ARM GAS  C:\Users\JEFFSN~1\AppData\Local\Temp\cc9h98U0.s 			page 1


   1              		.syntax unified
   2              		.cpu cortex-m3
   3              		.fpu softvfp
   4              		.eabi_attribute 20, 1
   5              		.eabi_attribute 21, 1
   6              		.eabi_attribute 23, 3
   7              		.eabi_attribute 24, 1
   8              		.eabi_attribute 25, 1
   9              		.eabi_attribute 26, 1
  10              		.eabi_attribute 30, 6
  11              		.eabi_attribute 34, 1
  12              		.eabi_attribute 18, 4
  13              		.thumb
  14              		.syntax unified
  15              		.file	"cyfitter_cfg.c"
  16              		.text
  17              	.Ltext0:
  18              		.cfi_sections	.debug_frame
  19              		.section	.text.CYMEMZERO,"ax",%progbits
  20              		.align	2
  21              		.thumb
  22              		.thumb_func
  23              		.type	CYMEMZERO, %function
  24              	CYMEMZERO:
  25              	.LFB0:
  26              		.file 1 "Generated_Source\\PSoC5\\cyfitter_cfg.c"
   1:Generated_Source\PSoC5/cyfitter_cfg.c **** 
   2:Generated_Source\PSoC5/cyfitter_cfg.c **** /*******************************************************************************
   3:Generated_Source\PSoC5/cyfitter_cfg.c **** * File Name: cyfitter_cfg.c
   4:Generated_Source\PSoC5/cyfitter_cfg.c **** * 
   5:Generated_Source\PSoC5/cyfitter_cfg.c **** * PSoC Creator  4.4
   6:Generated_Source\PSoC5/cyfitter_cfg.c **** *
   7:Generated_Source\PSoC5/cyfitter_cfg.c **** * Description:
   8:Generated_Source\PSoC5/cyfitter_cfg.c **** * This file contains device initialization code.
   9:Generated_Source\PSoC5/cyfitter_cfg.c **** * Except for the user defined sections in CyClockStartupError(), this file should not be modified.
  10:Generated_Source\PSoC5/cyfitter_cfg.c **** * This file is automatically generated by PSoC Creator.
  11:Generated_Source\PSoC5/cyfitter_cfg.c **** *
  12:Generated_Source\PSoC5/cyfitter_cfg.c **** ********************************************************************************
  13:Generated_Source\PSoC5/cyfitter_cfg.c **** * Copyright (c) 2007-2020 Cypress Semiconductor.  All rights reserved.
  14:Generated_Source\PSoC5/cyfitter_cfg.c **** * You may use this file only in accordance with the license, terms, conditions, 
  15:Generated_Source\PSoC5/cyfitter_cfg.c **** * disclaimers, and limitations in the end user license agreement accompanying 
  16:Generated_Source\PSoC5/cyfitter_cfg.c **** * the software package with which this file was provided.
  17:Generated_Source\PSoC5/cyfitter_cfg.c **** ********************************************************************************/
  18:Generated_Source\PSoC5/cyfitter_cfg.c **** 
  19:Generated_Source\PSoC5/cyfitter_cfg.c **** #include <string.h>
  20:Generated_Source\PSoC5/cyfitter_cfg.c **** #include "cytypes.h"
  21:Generated_Source\PSoC5/cyfitter_cfg.c **** #include "cydevice_trm.h"
  22:Generated_Source\PSoC5/cyfitter_cfg.c **** #include "cyfitter.h"
  23:Generated_Source\PSoC5/cyfitter_cfg.c **** #include "CyLib.h"
  24:Generated_Source\PSoC5/cyfitter_cfg.c **** #include "cyfitter_cfg.h"
  25:Generated_Source\PSoC5/cyfitter_cfg.c **** 
  26:Generated_Source\PSoC5/cyfitter_cfg.c **** #define CY_NEED_CYCLOCKSTARTUPERROR 1
  27:Generated_Source\PSoC5/cyfitter_cfg.c **** 
  28:Generated_Source\PSoC5/cyfitter_cfg.c **** 
  29:Generated_Source\PSoC5/cyfitter_cfg.c **** #if defined(__GNUC__) || defined(__ARMCC_VERSION)
  30:Generated_Source\PSoC5/cyfitter_cfg.c ****     #define CYPACKED 
  31:Generated_Source\PSoC5/cyfitter_cfg.c ****     #define CYPACKED_ATTR __attribute__ ((packed))
ARM GAS  C:\Users\JEFFSN~1\AppData\Local\Temp\cc9h98U0.s 			page 2


  32:Generated_Source\PSoC5/cyfitter_cfg.c ****     #define CYALIGNED __attribute__ ((aligned))
  33:Generated_Source\PSoC5/cyfitter_cfg.c ****     #define CY_CFG_UNUSED __attribute__ ((unused))
  34:Generated_Source\PSoC5/cyfitter_cfg.c ****     #ifndef CY_CFG_SECTION
  35:Generated_Source\PSoC5/cyfitter_cfg.c ****         #define CY_CFG_SECTION __attribute__ ((section(".psocinit")))
  36:Generated_Source\PSoC5/cyfitter_cfg.c ****     #endif
  37:Generated_Source\PSoC5/cyfitter_cfg.c ****     
  38:Generated_Source\PSoC5/cyfitter_cfg.c ****     #if CYDEV_CONFIGURATION_DMA
  39:Generated_Source\PSoC5/cyfitter_cfg.c ****         #if (defined(__ARMCC_VERSION) || defined(__GNUC__))
  40:Generated_Source\PSoC5/cyfitter_cfg.c ****             #ifndef DMAINITSEC
  41:Generated_Source\PSoC5/cyfitter_cfg.c ****                 #define DMAINITSEC __attribute__ ((section(".dma_init")))
  42:Generated_Source\PSoC5/cyfitter_cfg.c ****             #endif
  43:Generated_Source\PSoC5/cyfitter_cfg.c ****         #elif defined(__ICCARM__)
  44:Generated_Source\PSoC5/cyfitter_cfg.c ****             #define DMAINITSEC _Pragma("location=\".dma_init\"")
  45:Generated_Source\PSoC5/cyfitter_cfg.c ****         #endif
  46:Generated_Source\PSoC5/cyfitter_cfg.c ****     #else
  47:Generated_Source\PSoC5/cyfitter_cfg.c ****         #define DMAINITSEC
  48:Generated_Source\PSoC5/cyfitter_cfg.c ****     #endif
  49:Generated_Source\PSoC5/cyfitter_cfg.c **** 
  50:Generated_Source\PSoC5/cyfitter_cfg.c ****     #if defined(__ARMCC_VERSION)
  51:Generated_Source\PSoC5/cyfitter_cfg.c ****         #define CY_CFG_MEMORY_BARRIER() __memory_changed()
  52:Generated_Source\PSoC5/cyfitter_cfg.c ****     #else
  53:Generated_Source\PSoC5/cyfitter_cfg.c ****         #define CY_CFG_MEMORY_BARRIER() __sync_synchronize()
  54:Generated_Source\PSoC5/cyfitter_cfg.c ****     #endif
  55:Generated_Source\PSoC5/cyfitter_cfg.c ****     
  56:Generated_Source\PSoC5/cyfitter_cfg.c **** #elif defined(__ICCARM__)
  57:Generated_Source\PSoC5/cyfitter_cfg.c ****     #include <intrinsics.h>
  58:Generated_Source\PSoC5/cyfitter_cfg.c **** 
  59:Generated_Source\PSoC5/cyfitter_cfg.c ****     #define CYPACKED __packed
  60:Generated_Source\PSoC5/cyfitter_cfg.c ****     #define CYPACKED_ATTR 
  61:Generated_Source\PSoC5/cyfitter_cfg.c ****     #define CYALIGNED _Pragma("data_alignment=4")
  62:Generated_Source\PSoC5/cyfitter_cfg.c ****     #define CY_CFG_UNUSED _Pragma("diag_suppress=Pe177")
  63:Generated_Source\PSoC5/cyfitter_cfg.c ****     #define CY_CFG_SECTION _Pragma("location=\".psocinit\"")
  64:Generated_Source\PSoC5/cyfitter_cfg.c ****     
  65:Generated_Source\PSoC5/cyfitter_cfg.c ****     #if CYDEV_CONFIGURATION_DMA
  66:Generated_Source\PSoC5/cyfitter_cfg.c ****         #if (defined(__ARMCC_VERSION) || defined(__GNUC__))
  67:Generated_Source\PSoC5/cyfitter_cfg.c ****             #ifndef DMAINITSEC
  68:Generated_Source\PSoC5/cyfitter_cfg.c ****                 #define DMAINITSEC __attribute__ ((section(".dma_init")))
  69:Generated_Source\PSoC5/cyfitter_cfg.c ****             #endif
  70:Generated_Source\PSoC5/cyfitter_cfg.c ****         #elif defined(__ICCARM__)
  71:Generated_Source\PSoC5/cyfitter_cfg.c ****             #define DMAINITSEC _Pragma("location=\".dma_init\"")
  72:Generated_Source\PSoC5/cyfitter_cfg.c ****         #endif
  73:Generated_Source\PSoC5/cyfitter_cfg.c ****     #else
  74:Generated_Source\PSoC5/cyfitter_cfg.c ****         #define DMAINITSEC
  75:Generated_Source\PSoC5/cyfitter_cfg.c ****     #endif
  76:Generated_Source\PSoC5/cyfitter_cfg.c **** 
  77:Generated_Source\PSoC5/cyfitter_cfg.c ****     #define CY_CFG_MEMORY_BARRIER() __DMB()
  78:Generated_Source\PSoC5/cyfitter_cfg.c ****     
  79:Generated_Source\PSoC5/cyfitter_cfg.c **** #else
  80:Generated_Source\PSoC5/cyfitter_cfg.c ****     #error Unsupported toolchain
  81:Generated_Source\PSoC5/cyfitter_cfg.c **** #endif
  82:Generated_Source\PSoC5/cyfitter_cfg.c **** 
  83:Generated_Source\PSoC5/cyfitter_cfg.c **** #ifndef CYCODE
  84:Generated_Source\PSoC5/cyfitter_cfg.c ****     #define CYCODE
  85:Generated_Source\PSoC5/cyfitter_cfg.c **** #endif
  86:Generated_Source\PSoC5/cyfitter_cfg.c **** #ifndef CYDATA
  87:Generated_Source\PSoC5/cyfitter_cfg.c ****     #define CYDATA
  88:Generated_Source\PSoC5/cyfitter_cfg.c **** #endif
ARM GAS  C:\Users\JEFFSN~1\AppData\Local\Temp\cc9h98U0.s 			page 3


  89:Generated_Source\PSoC5/cyfitter_cfg.c **** #ifndef CYFAR
  90:Generated_Source\PSoC5/cyfitter_cfg.c ****     #define CYFAR
  91:Generated_Source\PSoC5/cyfitter_cfg.c **** #endif
  92:Generated_Source\PSoC5/cyfitter_cfg.c **** #ifndef CYXDATA
  93:Generated_Source\PSoC5/cyfitter_cfg.c ****     #define CYXDATA
  94:Generated_Source\PSoC5/cyfitter_cfg.c **** #endif
  95:Generated_Source\PSoC5/cyfitter_cfg.c **** 
  96:Generated_Source\PSoC5/cyfitter_cfg.c **** 
  97:Generated_Source\PSoC5/cyfitter_cfg.c **** CY_CFG_UNUSED
  98:Generated_Source\PSoC5/cyfitter_cfg.c **** static void CYMEMZERO(void *s, size_t n);
  99:Generated_Source\PSoC5/cyfitter_cfg.c **** CY_CFG_UNUSED
 100:Generated_Source\PSoC5/cyfitter_cfg.c **** static void CYMEMZERO(void *s, size_t n)
 101:Generated_Source\PSoC5/cyfitter_cfg.c **** {
  27              		.loc 1 101 0
  28              		.cfi_startproc
  29              		@ args = 0, pretend = 0, frame = 8
  30              		@ frame_needed = 1, uses_anonymous_args = 0
  31 0000 80B5     		push	{r7, lr}
  32              		.cfi_def_cfa_offset 8
  33              		.cfi_offset 7, -8
  34              		.cfi_offset 14, -4
  35 0002 82B0     		sub	sp, sp, #8
  36              		.cfi_def_cfa_offset 16
  37 0004 00AF     		add	r7, sp, #0
  38              		.cfi_def_cfa_register 7
  39 0006 7860     		str	r0, [r7, #4]
  40 0008 3960     		str	r1, [r7]
 102:Generated_Source\PSoC5/cyfitter_cfg.c **** 	(void)memset(s, 0, n);
  41              		.loc 1 102 0
  42 000a 3A68     		ldr	r2, [r7]
  43 000c 0021     		movs	r1, #0
  44 000e 7868     		ldr	r0, [r7, #4]
  45 0010 FFF7FEFF 		bl	memset
 103:Generated_Source\PSoC5/cyfitter_cfg.c **** }
  46              		.loc 1 103 0
  47 0014 00BF     		nop
  48 0016 0837     		adds	r7, r7, #8
  49              		.cfi_def_cfa_offset 8
  50 0018 BD46     		mov	sp, r7
  51              		.cfi_def_cfa_register 13
  52              		@ sp needed
  53 001a 80BD     		pop	{r7, pc}
  54              		.cfi_endproc
  55              	.LFE0:
  56              		.size	CYMEMZERO, .-CYMEMZERO
  57              		.section	.text.CYCONFIGCPY,"ax",%progbits
  58              		.align	2
  59              		.thumb
  60              		.thumb_func
  61              		.type	CYCONFIGCPY, %function
  62              	CYCONFIGCPY:
  63              	.LFB1:
 104:Generated_Source\PSoC5/cyfitter_cfg.c **** CY_CFG_UNUSED
 105:Generated_Source\PSoC5/cyfitter_cfg.c **** static void CYCONFIGCPY(void *dest, const void *src, size_t n);
 106:Generated_Source\PSoC5/cyfitter_cfg.c **** CY_CFG_UNUSED
 107:Generated_Source\PSoC5/cyfitter_cfg.c **** static void CYCONFIGCPY(void *dest, const void *src, size_t n)
 108:Generated_Source\PSoC5/cyfitter_cfg.c **** {
ARM GAS  C:\Users\JEFFSN~1\AppData\Local\Temp\cc9h98U0.s 			page 4


  64              		.loc 1 108 0
  65              		.cfi_startproc
  66              		@ args = 0, pretend = 0, frame = 16
  67              		@ frame_needed = 1, uses_anonymous_args = 0
  68 0000 80B5     		push	{r7, lr}
  69              		.cfi_def_cfa_offset 8
  70              		.cfi_offset 7, -8
  71              		.cfi_offset 14, -4
  72 0002 84B0     		sub	sp, sp, #16
  73              		.cfi_def_cfa_offset 24
  74 0004 00AF     		add	r7, sp, #0
  75              		.cfi_def_cfa_register 7
  76 0006 F860     		str	r0, [r7, #12]
  77 0008 B960     		str	r1, [r7, #8]
  78 000a 7A60     		str	r2, [r7, #4]
 109:Generated_Source\PSoC5/cyfitter_cfg.c **** 	(void)memcpy(dest, src, n);
  79              		.loc 1 109 0
  80 000c 7A68     		ldr	r2, [r7, #4]
  81 000e B968     		ldr	r1, [r7, #8]
  82 0010 F868     		ldr	r0, [r7, #12]
  83 0012 FFF7FEFF 		bl	memcpy
 110:Generated_Source\PSoC5/cyfitter_cfg.c **** }
  84              		.loc 1 110 0
  85 0016 00BF     		nop
  86 0018 1037     		adds	r7, r7, #16
  87              		.cfi_def_cfa_offset 8
  88 001a BD46     		mov	sp, r7
  89              		.cfi_def_cfa_register 13
  90              		@ sp needed
  91 001c 80BD     		pop	{r7, pc}
  92              		.cfi_endproc
  93              	.LFE1:
  94              		.size	CYCONFIGCPY, .-CYCONFIGCPY
  95 001e 00BF     		.section	.text.CYCONFIGCPYCODE,"ax",%progbits
  96              		.align	2
  97              		.thumb
  98              		.thumb_func
  99              		.type	CYCONFIGCPYCODE, %function
 100              	CYCONFIGCPYCODE:
 101              	.LFB2:
 111:Generated_Source\PSoC5/cyfitter_cfg.c **** CY_CFG_UNUSED
 112:Generated_Source\PSoC5/cyfitter_cfg.c **** static void CYCONFIGCPYCODE(void *dest, const void *src, size_t n);
 113:Generated_Source\PSoC5/cyfitter_cfg.c **** CY_CFG_UNUSED
 114:Generated_Source\PSoC5/cyfitter_cfg.c **** static void CYCONFIGCPYCODE(void *dest, const void *src, size_t n)
 115:Generated_Source\PSoC5/cyfitter_cfg.c **** {
 102              		.loc 1 115 0
 103              		.cfi_startproc
 104              		@ args = 0, pretend = 0, frame = 16
 105              		@ frame_needed = 1, uses_anonymous_args = 0
 106 0000 80B5     		push	{r7, lr}
 107              		.cfi_def_cfa_offset 8
 108              		.cfi_offset 7, -8
 109              		.cfi_offset 14, -4
 110 0002 84B0     		sub	sp, sp, #16
 111              		.cfi_def_cfa_offset 24
 112 0004 00AF     		add	r7, sp, #0
 113              		.cfi_def_cfa_register 7
ARM GAS  C:\Users\JEFFSN~1\AppData\Local\Temp\cc9h98U0.s 			page 5


 114 0006 F860     		str	r0, [r7, #12]
 115 0008 B960     		str	r1, [r7, #8]
 116 000a 7A60     		str	r2, [r7, #4]
 116:Generated_Source\PSoC5/cyfitter_cfg.c **** 	(void)memcpy(dest, src, n);
 117              		.loc 1 116 0
 118 000c 7A68     		ldr	r2, [r7, #4]
 119 000e B968     		ldr	r1, [r7, #8]
 120 0010 F868     		ldr	r0, [r7, #12]
 121 0012 FFF7FEFF 		bl	memcpy
 117:Generated_Source\PSoC5/cyfitter_cfg.c **** }
 122              		.loc 1 117 0
 123 0016 00BF     		nop
 124 0018 1037     		adds	r7, r7, #16
 125              		.cfi_def_cfa_offset 8
 126 001a BD46     		mov	sp, r7
 127              		.cfi_def_cfa_register 13
 128              		@ sp needed
 129 001c 80BD     		pop	{r7, pc}
 130              		.cfi_endproc
 131              	.LFE2:
 132              		.size	CYCONFIGCPYCODE, .-CYCONFIGCPYCODE
 133 001e 00BF     		.section	.text.CyClockStartupError,"ax",%progbits
 134              		.align	2
 135              		.thumb
 136              		.thumb_func
 137              		.type	CyClockStartupError, %function
 138              	CyClockStartupError:
 139              	.LFB3:
 118:Generated_Source\PSoC5/cyfitter_cfg.c **** 
 119:Generated_Source\PSoC5/cyfitter_cfg.c **** 
 120:Generated_Source\PSoC5/cyfitter_cfg.c **** 
 121:Generated_Source\PSoC5/cyfitter_cfg.c **** 
 122:Generated_Source\PSoC5/cyfitter_cfg.c **** /* Clock startup error codes                                                   */
 123:Generated_Source\PSoC5/cyfitter_cfg.c **** #define CYCLOCKSTART_NO_ERROR    0u
 124:Generated_Source\PSoC5/cyfitter_cfg.c **** #define CYCLOCKSTART_XTAL_ERROR  1u
 125:Generated_Source\PSoC5/cyfitter_cfg.c **** #define CYCLOCKSTART_32KHZ_ERROR 2u
 126:Generated_Source\PSoC5/cyfitter_cfg.c **** #define CYCLOCKSTART_PLL_ERROR   3u
 127:Generated_Source\PSoC5/cyfitter_cfg.c **** #define CYCLOCKSTART_FLL_ERROR   4u
 128:Generated_Source\PSoC5/cyfitter_cfg.c **** #define CYCLOCKSTART_WCO_ERROR   5u
 129:Generated_Source\PSoC5/cyfitter_cfg.c **** 
 130:Generated_Source\PSoC5/cyfitter_cfg.c **** 
 131:Generated_Source\PSoC5/cyfitter_cfg.c **** #ifdef CY_NEED_CYCLOCKSTARTUPERROR
 132:Generated_Source\PSoC5/cyfitter_cfg.c **** /*******************************************************************************
 133:Generated_Source\PSoC5/cyfitter_cfg.c **** * Function Name: CyClockStartupError
 134:Generated_Source\PSoC5/cyfitter_cfg.c **** ********************************************************************************
 135:Generated_Source\PSoC5/cyfitter_cfg.c **** * Summary:
 136:Generated_Source\PSoC5/cyfitter_cfg.c **** *  If an error is encountered during clock configuration (crystal startup error,
 137:Generated_Source\PSoC5/cyfitter_cfg.c **** *  PLL lock error, etc.), the system will end up here.  Unless reimplemented by
 138:Generated_Source\PSoC5/cyfitter_cfg.c **** *  the customer, this function will stop in an infinite loop.
 139:Generated_Source\PSoC5/cyfitter_cfg.c **** *
 140:Generated_Source\PSoC5/cyfitter_cfg.c **** * Parameters:
 141:Generated_Source\PSoC5/cyfitter_cfg.c **** *   void
 142:Generated_Source\PSoC5/cyfitter_cfg.c **** *
 143:Generated_Source\PSoC5/cyfitter_cfg.c **** * Return:
 144:Generated_Source\PSoC5/cyfitter_cfg.c **** *   void
 145:Generated_Source\PSoC5/cyfitter_cfg.c **** *
 146:Generated_Source\PSoC5/cyfitter_cfg.c **** *******************************************************************************/
ARM GAS  C:\Users\JEFFSN~1\AppData\Local\Temp\cc9h98U0.s 			page 6


 147:Generated_Source\PSoC5/cyfitter_cfg.c **** CY_CFG_UNUSED
 148:Generated_Source\PSoC5/cyfitter_cfg.c **** static void CyClockStartupError(uint8 errorCode);
 149:Generated_Source\PSoC5/cyfitter_cfg.c **** CY_CFG_UNUSED
 150:Generated_Source\PSoC5/cyfitter_cfg.c **** static void CyClockStartupError(uint8 errorCode)
 151:Generated_Source\PSoC5/cyfitter_cfg.c **** {
 140              		.loc 1 151 0
 141              		.cfi_startproc
 142              		@ args = 0, pretend = 0, frame = 8
 143              		@ frame_needed = 1, uses_anonymous_args = 0
 144              		@ link register save eliminated.
 145 0000 80B4     		push	{r7}
 146              		.cfi_def_cfa_offset 4
 147              		.cfi_offset 7, -4
 148 0002 83B0     		sub	sp, sp, #12
 149              		.cfi_def_cfa_offset 16
 150 0004 00AF     		add	r7, sp, #0
 151              		.cfi_def_cfa_register 7
 152 0006 0346     		mov	r3, r0
 153 0008 FB71     		strb	r3, [r7, #7]
 154              	.L5:
 152:Generated_Source\PSoC5/cyfitter_cfg.c ****     /* To remove the compiler warning if errorCode not used.                */
 153:Generated_Source\PSoC5/cyfitter_cfg.c ****     errorCode = errorCode;
 154:Generated_Source\PSoC5/cyfitter_cfg.c **** 
 155:Generated_Source\PSoC5/cyfitter_cfg.c ****     /* If we have a clock startup error (bad MHz crystal, PLL lock, etc.),  */
 156:Generated_Source\PSoC5/cyfitter_cfg.c ****     /* we will end up here to allow the customer to implement something to  */
 157:Generated_Source\PSoC5/cyfitter_cfg.c ****     /* deal with the clock condition.                                       */
 158:Generated_Source\PSoC5/cyfitter_cfg.c **** 
 159:Generated_Source\PSoC5/cyfitter_cfg.c **** #ifdef CY_CFG_CLOCK_STARTUP_ERROR_CALLBACK
 160:Generated_Source\PSoC5/cyfitter_cfg.c ****     CY_CFG_Clock_Startup_ErrorCallback();
 161:Generated_Source\PSoC5/cyfitter_cfg.c **** #else
 162:Generated_Source\PSoC5/cyfitter_cfg.c ****     /*  If not using CY_CFG_CLOCK_STARTUP_ERROR_CALLBACK, place your clock startup code here. */
 163:Generated_Source\PSoC5/cyfitter_cfg.c ****     /* `#START CyClockStartupError` */
 164:Generated_Source\PSoC5/cyfitter_cfg.c **** 
 165:Generated_Source\PSoC5/cyfitter_cfg.c **** 
 166:Generated_Source\PSoC5/cyfitter_cfg.c **** 
 167:Generated_Source\PSoC5/cyfitter_cfg.c ****     /* `#END` */
 168:Generated_Source\PSoC5/cyfitter_cfg.c **** 
 169:Generated_Source\PSoC5/cyfitter_cfg.c ****     while(1) {}
 155              		.loc 1 169 0 discriminator 1
 156 000a FEE7     		b	.L5
 157              		.cfi_endproc
 158              	.LFE3:
 159              		.size	CyClockStartupError, .-CyClockStartupError
 160              		.section	.dma_init,"a",%progbits
 161              		.align	2
 162              		.type	CH1_ADDR_DATA0.4992, %object
 163              		.size	CH1_ADDR_DATA0.4992, 8
 164              	CH1_ADDR_DATA0.4992:
 165 0000 01       		.byte	1
 166 0001 00       		.byte	0
 167 0002 00       		.byte	0
 168 0003 00       		.byte	0
 169 0004 00       		.byte	0
 170 0005 20       		.byte	32
 171 0006 00       		.byte	0
 172 0007 40       		.byte	64
 173              		.align	2
ARM GAS  C:\Users\JEFFSN~1\AppData\Local\Temp\cc9h98U0.s 			page 7


 174              		.type	CH2_ADDR_DATA0.4993, %object
 175              		.size	CH2_ADDR_DATA0.4993, 8
 176              	CH2_ADDR_DATA0.4993:
 177 0008 01       		.byte	1
 178 0009 00       		.byte	0
 179 000a 00       		.byte	0
 180 000b 00       		.byte	0
 181 000c 00       		.byte	0
 182 000d 20       		.byte	32
 183 000e 01       		.byte	1
 184 000f 40       		.byte	64
 185              		.align	2
 186              		.type	CH5_ADDR_DATA0.4994, %object
 187              		.size	CH5_ADDR_DATA0.4994, 8
 188              	CH5_ADDR_DATA0.4994:
 189 0010 01       		.byte	1
 190 0011 00       		.byte	0
 191 0012 00       		.byte	0
 192 0013 00       		.byte	0
 193 0014 00       		.byte	0
 194 0015 48       		.byte	72
 195 0016 00       		.byte	0
 196 0017 40       		.byte	64
 197              		.align	2
 198              		.type	CH6_ADDR_DATA0.4995, %object
 199              		.size	CH6_ADDR_DATA0.4995, 8
 200              	CH6_ADDR_DATA0.4995:
 201 0018 01       		.byte	1
 202 0019 00       		.byte	0
 203 001a 00       		.byte	0
 204 001b 00       		.byte	0
 205 001c 00       		.byte	0
 206 001d 48       		.byte	72
 207 001e 01       		.byte	1
 208 001f 40       		.byte	64
 209              		.align	2
 210              		.type	DMA_TD_START_CMD.4996, %object
 211              		.size	DMA_TD_START_CMD.4996, 5
 212              	DMA_TD_START_CMD.4996:
 213 0020 01       		.byte	1
 214 0021 00       		.byte	0
 215 0022 00       		.byte	0
 216 0023 00       		.byte	0
 217 0024 01       		.byte	1
 218 0025 000000   		.align	2
 219              		.type	CFG_TD_LIST0.4998, %object
 220              		.size	CFG_TD_LIST0.4998, 576
 221              	CFG_TD_LIST0.4998:
 222 0028 0800     		.short	8
 223 002a 02       		.byte	2
 224 002b 23       		.byte	35
 225 002c 0000     		.short	0
 226 002e 0876     		.short	30216
 227 0030 0800     		.short	8
 228 0032 03       		.byte	3
 229 0033 23       		.byte	35
 230 0034 0000     		.short	0
ARM GAS  C:\Users\JEFFSN~1\AppData\Local\Temp\cc9h98U0.s 			page 8


 231 0036 1076     		.short	30224
 232 0038 0800     		.short	8
 233 003a 04       		.byte	4
 234 003b 23       		.byte	35
 235 003c 0000     		.short	0
 236 003e 2876     		.short	30248
 237 0040 0800     		.short	8
 238 0042 05       		.byte	5
 239 0043 23       		.byte	35
 240 0044 0000     		.short	0
 241 0046 3076     		.short	30256
 242 0048 0500     		.short	5
 243 004a 06       		.byte	6
 244 004b 23       		.byte	35
 245 004c 0000     		.short	0
 246 004e 2070     		.short	28704
 247 0050 0500     		.short	5
 248 0052 07       		.byte	7
 249 0053 23       		.byte	35
 250 0054 0000     		.short	0
 251 0056 3070     		.short	28720
 252 0058 0500     		.short	5
 253 005a 08       		.byte	8
 254 005b 23       		.byte	35
 255 005c 0000     		.short	0
 256 005e 6070     		.short	28768
 257 0060 0500     		.short	5
 258 0062 FE       		.byte	-2
 259 0063 23       		.byte	35
 260 0064 0000     		.short	0
 261 0066 7070     		.short	28784
 262 0068 1000     		.short	16
 263 006a FE       		.byte	-2
 264 006b 22       		.byte	34
 265 006c 0000     		.short	0
 266 006e C051     		.short	20928
 267 0070 8003     		.short	896
 268 0072 0B       		.byte	11
 269 0073 22       		.byte	34
 270 0074 0000     		.short	0
 271 0076 0000     		.short	0
 272 0078 8001     		.short	384
 273 007a 0C       		.byte	12
 274 007b 22       		.byte	34
 275 007c 0000     		.short	0
 276 007e 0004     		.short	1024
 277 0080 8001     		.short	384
 278 0082 0D       		.byte	13
 279 0083 22       		.byte	34
 280 0084 0000     		.short	0
 281 0086 0006     		.short	1536
 282 0088 0002     		.short	512
 283 008a 0E       		.byte	14
 284 008b 22       		.byte	34
 285 008c 0000     		.short	0
 286 008e 000E     		.short	3584
 287 0090 8002     		.short	640
ARM GAS  C:\Users\JEFFSN~1\AppData\Local\Temp\cc9h98U0.s 			page 9


 288 0092 0F       		.byte	15
 289 0093 22       		.byte	34
 290 0094 0000     		.short	0
 291 0096 0014     		.short	5120
 292 0098 8000     		.short	128
 293 009a 10       		.byte	16
 294 009b 22       		.byte	34
 295 009c 0000     		.short	0
 296 009e 0041     		.short	16640
 297 00a0 8001     		.short	384
 298 00a2 11       		.byte	17
 299 00a3 22       		.byte	34
 300 00a4 0000     		.short	0
 301 00a6 0042     		.short	16896
 302 00a8 8000     		.short	128
 303 00aa 12       		.byte	18
 304 00ab 22       		.byte	34
 305 00ac 0000     		.short	0
 306 00ae 0045     		.short	17664
 307 00b0 8000     		.short	128
 308 00b2 13       		.byte	19
 309 00b3 22       		.byte	34
 310 00b4 0000     		.short	0
 311 00b6 0047     		.short	18176
 312 00b8 0001     		.short	256
 313 00ba FE       		.byte	-2
 314 00bb 22       		.byte	34
 315 00bc 0000     		.short	0
 316 00be 0049     		.short	18688
 317 00c0 0700     		.short	7
 318 00c2 15       		.byte	21
 319 00c3 23       		.byte	35
 320 00c4 0000     		.short	0
 321 00c6 0852     		.short	21000
 322 00c8 0700     		.short	7
 323 00ca 16       		.byte	22
 324 00cb 23       		.byte	35
 325 00cc 0000     		.short	0
 326 00ce 1052     		.short	21008
 327 00d0 0700     		.short	7
 328 00d2 17       		.byte	23
 329 00d3 23       		.byte	35
 330 00d4 0000     		.short	0
 331 00d6 2852     		.short	21032
 332 00d8 0700     		.short	7
 333 00da 18       		.byte	24
 334 00db 23       		.byte	35
 335 00dc 0000     		.short	0
 336 00de 3052     		.short	21040
 337 00e0 4000     		.short	64
 338 00e2 19       		.byte	25
 339 00e3 23       		.byte	35
 340 00e4 0000     		.short	0
 341 00e6 0064     		.short	25600
 342 00e8 2000     		.short	32
 343 00ea 1A       		.byte	26
 344 00eb 23       		.byte	35
ARM GAS  C:\Users\JEFFSN~1\AppData\Local\Temp\cc9h98U0.s 			page 10


 345 00ec 0000     		.short	0
 346 00ee 7064     		.short	25712
 347 00f0 4000     		.short	64
 348 00f2 1B       		.byte	27
 349 00f3 23       		.byte	35
 350 00f4 0000     		.short	0
 351 00f6 0065     		.short	25856
 352 00f8 2000     		.short	32
 353 00fa FE       		.byte	-2
 354 00fb 23       		.byte	35
 355 00fc 0000     		.short	0
 356 00fe 7065     		.short	25968
 357 0100 0800     		.short	8
 358 0102 1D       		.byte	29
 359 0103 23       		.byte	35
 360 0104 0000     		.short	0
 361 0106 0051     		.short	20736
 362 0108 8000     		.short	128
 363 010a 1E       		.byte	30
 364 010b 23       		.byte	35
 365 010c 0000     		.short	0
 366 010e 0008     		.short	2048
 367 0110 8000     		.short	128
 368 0112 1F       		.byte	31
 369 0113 23       		.byte	35
 370 0114 0000     		.short	0
 371 0116 8008     		.short	2176
 372 0118 8000     		.short	128
 373 011a 20       		.byte	32
 374 011b 23       		.byte	35
 375 011c 0000     		.short	0
 376 011e 000A     		.short	2560
 377 0120 8000     		.short	128
 378 0122 21       		.byte	33
 379 0123 23       		.byte	35
 380 0124 0000     		.short	0
 381 0126 800A     		.short	2688
 382 0128 8000     		.short	128
 383 012a 22       		.byte	34
 384 012b 23       		.byte	35
 385 012c 0000     		.short	0
 386 012e 000C     		.short	3072
 387 0130 8000     		.short	128
 388 0132 23       		.byte	35
 389 0133 23       		.byte	35
 390 0134 0000     		.short	0
 391 0136 800C     		.short	3200
 392 0138 8000     		.short	128
 393 013a 24       		.byte	36
 394 013b 23       		.byte	35
 395 013c 0000     		.short	0
 396 013e 8016     		.short	5760
 397 0140 8000     		.short	128
 398 0142 25       		.byte	37
 399 0143 23       		.byte	35
 400 0144 0000     		.short	0
 401 0146 0018     		.short	6144
ARM GAS  C:\Users\JEFFSN~1\AppData\Local\Temp\cc9h98U0.s 			page 11


 402 0148 8000     		.short	128
 403 014a 26       		.byte	38
 404 014b 23       		.byte	35
 405 014c 0000     		.short	0
 406 014e 8018     		.short	6272
 407 0150 8000     		.short	128
 408 0152 27       		.byte	39
 409 0153 23       		.byte	35
 410 0154 0000     		.short	0
 411 0156 001A     		.short	6656
 412 0158 8000     		.short	128
 413 015a 28       		.byte	40
 414 015b 23       		.byte	35
 415 015c 0000     		.short	0
 416 015e 801A     		.short	6784
 417 0160 1000     		.short	16
 418 0162 29       		.byte	41
 419 0163 23       		.byte	35
 420 0164 0000     		.short	0
 421 0166 1050     		.short	20496
 422 0168 1000     		.short	16
 423 016a 2A       		.byte	42
 424 016b 23       		.byte	35
 425 016c 0000     		.short	0
 426 016e 0050     		.short	20480
 427 0170 8000     		.short	128
 428 0172 2B       		.byte	43
 429 0173 23       		.byte	35
 430 0174 0000     		.short	0
 431 0176 004D     		.short	19712
 432 0178 8000     		.short	128
 433 017a 2C       		.byte	44
 434 017b 23       		.byte	35
 435 017c 0000     		.short	0
 436 017e 804D     		.short	19840
 437 0180 8000     		.short	128
 438 0182 2D       		.byte	45
 439 0183 23       		.byte	35
 440 0184 0000     		.short	0
 441 0186 004C     		.short	19456
 442 0188 8000     		.short	128
 443 018a 2E       		.byte	46
 444 018b 23       		.byte	35
 445 018c 0000     		.short	0
 446 018e 804C     		.short	19584
 447 0190 8000     		.short	128
 448 0192 2F       		.byte	47
 449 0193 23       		.byte	35
 450 0194 0000     		.short	0
 451 0196 8047     		.short	18304
 452 0198 8000     		.short	128
 453 019a 30       		.byte	48
 454 019b 23       		.byte	35
 455 019c 0000     		.short	0
 456 019e 0046     		.short	17920
 457 01a0 8000     		.short	128
 458 01a2 31       		.byte	49
ARM GAS  C:\Users\JEFFSN~1\AppData\Local\Temp\cc9h98U0.s 			page 12


 459 01a3 23       		.byte	35
 460 01a4 0000     		.short	0
 461 01a6 8046     		.short	18048
 462 01a8 8000     		.short	128
 463 01aa 32       		.byte	50
 464 01ab 23       		.byte	35
 465 01ac 0000     		.short	0
 466 01ae 8045     		.short	17792
 467 01b0 8000     		.short	128
 468 01b2 33       		.byte	51
 469 01b3 23       		.byte	35
 470 01b4 0000     		.short	0
 471 01b6 0044     		.short	17408
 472 01b8 8000     		.short	128
 473 01ba 34       		.byte	52
 474 01bb 23       		.byte	35
 475 01bc 0000     		.short	0
 476 01be 8044     		.short	17536
 477 01c0 8000     		.short	128
 478 01c2 35       		.byte	53
 479 01c3 23       		.byte	35
 480 01c4 0000     		.short	0
 481 01c6 001B     		.short	6912
 482 01c8 8000     		.short	128
 483 01ca 36       		.byte	54
 484 01cb 23       		.byte	35
 485 01cc 0000     		.short	0
 486 01ce 801B     		.short	7040
 487 01d0 8000     		.short	128
 488 01d2 37       		.byte	55
 489 01d3 23       		.byte	35
 490 01d4 0000     		.short	0
 491 01d6 0019     		.short	6400
 492 01d8 8000     		.short	128
 493 01da 38       		.byte	56
 494 01db 23       		.byte	35
 495 01dc 0000     		.short	0
 496 01de 8019     		.short	6528
 497 01e0 8000     		.short	128
 498 01e2 39       		.byte	57
 499 01e3 23       		.byte	35
 500 01e4 0000     		.short	0
 501 01e6 0017     		.short	5888
 502 01e8 8000     		.short	128
 503 01ea 3A       		.byte	58
 504 01eb 23       		.byte	35
 505 01ec 0000     		.short	0
 506 01ee 8017     		.short	6016
 507 01f0 8000     		.short	128
 508 01f2 3B       		.byte	59
 509 01f3 23       		.byte	35
 510 01f4 0000     		.short	0
 511 01f6 0009     		.short	2304
 512 01f8 8000     		.short	128
 513 01fa 3C       		.byte	60
 514 01fb 23       		.byte	35
 515 01fc 0000     		.short	0
ARM GAS  C:\Users\JEFFSN~1\AppData\Local\Temp\cc9h98U0.s 			page 13


 516 01fe 8009     		.short	2432
 517 0200 8000     		.short	128
 518 0202 3D       		.byte	61
 519 0203 23       		.byte	35
 520 0204 0000     		.short	0
 521 0206 8007     		.short	1920
 522 0208 8000     		.short	128
 523 020a 3E       		.byte	62
 524 020b 23       		.byte	35
 525 020c 0000     		.short	0
 526 020e 000B     		.short	2816
 527 0210 8000     		.short	128
 528 0212 3F       		.byte	63
 529 0213 23       		.byte	35
 530 0214 0000     		.short	0
 531 0216 800B     		.short	2944
 532 0218 8000     		.short	128
 533 021a 40       		.byte	64
 534 021b 23       		.byte	35
 535 021c 0000     		.short	0
 536 021e 8005     		.short	1408
 537 0220 8000     		.short	128
 538 0222 41       		.byte	65
 539 0223 23       		.byte	35
 540 0224 0000     		.short	0
 541 0226 000D     		.short	3328
 542 0228 8000     		.short	128
 543 022a 42       		.byte	66
 544 022b 23       		.byte	35
 545 022c 0000     		.short	0
 546 022e 800D     		.short	3456
 547 0230 8000     		.short	128
 548 0232 43       		.byte	67
 549 0233 23       		.byte	35
 550 0234 0000     		.short	0
 551 0236 8003     		.short	896
 552 0238 8000     		.short	128
 553 023a 44       		.byte	68
 554 023b 23       		.byte	35
 555 023c 0000     		.short	0
 556 023e 0048     		.short	18432
 557 0240 8000     		.short	128
 558 0242 45       		.byte	69
 559 0243 23       		.byte	35
 560 0244 0000     		.short	0
 561 0246 8048     		.short	18560
 562 0248 8000     		.short	128
 563 024a 46       		.byte	70
 564 024b 23       		.byte	35
 565 024c 0000     		.short	0
 566 024e 8043     		.short	17280
 567 0250 8000     		.short	128
 568 0252 47       		.byte	71
 569 0253 23       		.byte	35
 570 0254 0000     		.short	0
 571 0256 8041     		.short	16768
 572 0258 8000     		.short	128
ARM GAS  C:\Users\JEFFSN~1\AppData\Local\Temp\cc9h98U0.s 			page 14


 573 025a 48       		.byte	72
 574 025b 23       		.byte	35
 575 025c 0000     		.short	0
 576 025e 0040     		.short	16384
 577 0260 8000     		.short	128
 578 0262 FE       		.byte	-2
 579 0263 23       		.byte	35
 580 0264 0000     		.short	0
 581 0266 8040     		.short	16512
 582              		.section	.text.cfg_dma_init,"ax",%progbits
 583              		.align	2
 584              		.thumb
 585              		.thumb_func
 586              		.type	cfg_dma_init, %function
 587              	cfg_dma_init:
 588              	.LFB4:
 170:Generated_Source\PSoC5/cyfitter_cfg.c **** #endif /* CY_CFG_CLOCK_STARTUP_ERROR_CALLBACK */
 171:Generated_Source\PSoC5/cyfitter_cfg.c **** }
 172:Generated_Source\PSoC5/cyfitter_cfg.c **** #endif
 173:Generated_Source\PSoC5/cyfitter_cfg.c **** 
 174:Generated_Source\PSoC5/cyfitter_cfg.c **** /* IOPORT_1 Address: CYDEV_PRTDSI_PRT1_BASE Size (bytes): 7 */
 175:Generated_Source\PSoC5/cyfitter_cfg.c **** #define BS_IOPORT_1_VAL ((const uint8 CYFAR *)0x48000000u)
 176:Generated_Source\PSoC5/cyfitter_cfg.c **** 
 177:Generated_Source\PSoC5/cyfitter_cfg.c **** /* IOPORT_2 Address: CYDEV_PRTDSI_PRT2_BASE Size (bytes): 7 */
 178:Generated_Source\PSoC5/cyfitter_cfg.c **** #define BS_IOPORT_2_VAL ((const uint8 CYFAR *)0x48000008u)
 179:Generated_Source\PSoC5/cyfitter_cfg.c **** 
 180:Generated_Source\PSoC5/cyfitter_cfg.c **** /* IOPORT_5 Address: CYDEV_PRTDSI_PRT5_BASE Size (bytes): 7 */
 181:Generated_Source\PSoC5/cyfitter_cfg.c **** #define BS_IOPORT_5_VAL ((const uint8 CYFAR *)0x48000010u)
 182:Generated_Source\PSoC5/cyfitter_cfg.c **** 
 183:Generated_Source\PSoC5/cyfitter_cfg.c **** /* IOPORT_6 Address: CYDEV_PRTDSI_PRT6_BASE Size (bytes): 7 */
 184:Generated_Source\PSoC5/cyfitter_cfg.c **** #define BS_IOPORT_6_VAL ((const uint8 CYFAR *)0x48000018u)
 185:Generated_Source\PSoC5/cyfitter_cfg.c **** 
 186:Generated_Source\PSoC5/cyfitter_cfg.c **** /* IDMUX_IRQ Address: CYREG_IDMUX_IRQ_CTL0 Size (bytes): 8 */
 187:Generated_Source\PSoC5/cyfitter_cfg.c **** #define BS_IDMUX_IRQ_VAL ((const uint8 CYFAR *)0x48000020u)
 188:Generated_Source\PSoC5/cyfitter_cfg.c **** 
 189:Generated_Source\PSoC5/cyfitter_cfg.c **** /* UDB_0_2_1_CONFIG Address: CYDEV_UCFG_B0_P4_U0_BASE Size (bytes): 128 */
 190:Generated_Source\PSoC5/cyfitter_cfg.c **** #define BS_UDB_0_2_1_CONFIG_VAL ((const uint8 CYFAR *)0x48000028u)
 191:Generated_Source\PSoC5/cyfitter_cfg.c **** 
 192:Generated_Source\PSoC5/cyfitter_cfg.c **** /* UDB_0_2_0_CONFIG Address: CYDEV_UCFG_B0_P4_U1_BASE Size (bytes): 128 */
 193:Generated_Source\PSoC5/cyfitter_cfg.c **** #define BS_UDB_0_2_0_CONFIG_VAL ((const uint8 CYFAR *)0x480000A8u)
 194:Generated_Source\PSoC5/cyfitter_cfg.c **** 
 195:Generated_Source\PSoC5/cyfitter_cfg.c **** /* UDB_0_3_0_CONFIG Address: CYDEV_UCFG_B0_P5_U0_BASE Size (bytes): 128 */
 196:Generated_Source\PSoC5/cyfitter_cfg.c **** #define BS_UDB_0_3_0_CONFIG_VAL ((const uint8 CYFAR *)0x48000128u)
 197:Generated_Source\PSoC5/cyfitter_cfg.c **** 
 198:Generated_Source\PSoC5/cyfitter_cfg.c **** /* UDB_0_3_1_CONFIG Address: CYDEV_UCFG_B0_P5_U1_BASE Size (bytes): 128 */
 199:Generated_Source\PSoC5/cyfitter_cfg.c **** #define BS_UDB_0_3_1_CONFIG_VAL ((const uint8 CYFAR *)0x480001A8u)
 200:Generated_Source\PSoC5/cyfitter_cfg.c **** 
 201:Generated_Source\PSoC5/cyfitter_cfg.c **** /* UDB_0_4_1_CONFIG Address: CYDEV_UCFG_B0_P6_U0_BASE Size (bytes): 128 */
 202:Generated_Source\PSoC5/cyfitter_cfg.c **** #define BS_UDB_0_4_1_CONFIG_VAL ((const uint8 CYFAR *)0x48000228u)
 203:Generated_Source\PSoC5/cyfitter_cfg.c **** 
 204:Generated_Source\PSoC5/cyfitter_cfg.c **** /* UDB_0_4_0_CONFIG Address: CYDEV_UCFG_B0_P6_U1_BASE Size (bytes): 128 */
 205:Generated_Source\PSoC5/cyfitter_cfg.c **** #define BS_UDB_0_4_0_CONFIG_VAL ((const uint8 CYFAR *)0x480002A8u)
 206:Generated_Source\PSoC5/cyfitter_cfg.c **** 
 207:Generated_Source\PSoC5/cyfitter_cfg.c **** /* UDB_1_1_0_CONFIG Address: CYDEV_UCFG_B1_P3_U1_BASE Size (bytes): 128 */
 208:Generated_Source\PSoC5/cyfitter_cfg.c **** #define BS_UDB_1_1_0_CONFIG_VAL ((const uint8 CYFAR *)0x48000328u)
 209:Generated_Source\PSoC5/cyfitter_cfg.c **** 
 210:Generated_Source\PSoC5/cyfitter_cfg.c **** /* UDB_0_1_1_CONFIG Address: CYDEV_UCFG_B1_P4_U0_BASE Size (bytes): 128 */
ARM GAS  C:\Users\JEFFSN~1\AppData\Local\Temp\cc9h98U0.s 			page 15


 211:Generated_Source\PSoC5/cyfitter_cfg.c **** #define BS_UDB_0_1_1_CONFIG_VAL ((const uint8 CYFAR *)0x480003A8u)
 212:Generated_Source\PSoC5/cyfitter_cfg.c **** 
 213:Generated_Source\PSoC5/cyfitter_cfg.c **** /* UDB_0_1_0_CONFIG Address: CYDEV_UCFG_B1_P4_U1_BASE Size (bytes): 128 */
 214:Generated_Source\PSoC5/cyfitter_cfg.c **** #define BS_UDB_0_1_0_CONFIG_VAL ((const uint8 CYFAR *)0x48000428u)
 215:Generated_Source\PSoC5/cyfitter_cfg.c **** 
 216:Generated_Source\PSoC5/cyfitter_cfg.c **** /* UDB_0_0_0_CONFIG Address: CYDEV_UCFG_B1_P5_U0_BASE Size (bytes): 128 */
 217:Generated_Source\PSoC5/cyfitter_cfg.c **** #define BS_UDB_0_0_0_CONFIG_VAL ((const uint8 CYFAR *)0x480004A8u)
 218:Generated_Source\PSoC5/cyfitter_cfg.c **** 
 219:Generated_Source\PSoC5/cyfitter_cfg.c **** /* UDB_0_0_1_CONFIG Address: CYDEV_UCFG_B1_P5_U1_BASE Size (bytes): 128 */
 220:Generated_Source\PSoC5/cyfitter_cfg.c **** #define BS_UDB_0_0_1_CONFIG_VAL ((const uint8 CYFAR *)0x48000528u)
 221:Generated_Source\PSoC5/cyfitter_cfg.c **** 
 222:Generated_Source\PSoC5/cyfitter_cfg.c **** /* UWRK_B0_WRK_DP_BITS Address: CYDEV_UWRK_UWRK8_B0_BASE Size (bytes): 64 */
 223:Generated_Source\PSoC5/cyfitter_cfg.c **** #define BS_UWRK_B0_WRK_DP_BITS_VAL ((const uint8 CYFAR *)0x480005A8u)
 224:Generated_Source\PSoC5/cyfitter_cfg.c **** 
 225:Generated_Source\PSoC5/cyfitter_cfg.c **** /* UWRK_B0_WRK_STATCTL_BITS Address: CYDEV_UWRK_UWRK8_B0_BASE + 0x00000070u Size (bytes): 32 */
 226:Generated_Source\PSoC5/cyfitter_cfg.c **** #define BS_UWRK_B0_WRK_STATCTL_BITS_VAL ((const uint8 CYFAR *)0x480005E8u)
 227:Generated_Source\PSoC5/cyfitter_cfg.c **** 
 228:Generated_Source\PSoC5/cyfitter_cfg.c **** /* UWRK_B1_WRK_DP_BITS Address: CYDEV_UWRK_UWRK8_B1_BASE Size (bytes): 64 */
 229:Generated_Source\PSoC5/cyfitter_cfg.c **** #define BS_UWRK_B1_WRK_DP_BITS_VAL ((const uint8 CYFAR *)0x48000608u)
 230:Generated_Source\PSoC5/cyfitter_cfg.c **** 
 231:Generated_Source\PSoC5/cyfitter_cfg.c **** /* UWRK_B1_WRK_STATCTL_BITS Address: CYDEV_UWRK_UWRK8_B1_BASE + 0x00000070u Size (bytes): 32 */
 232:Generated_Source\PSoC5/cyfitter_cfg.c **** #define BS_UWRK_B1_WRK_STATCTL_BITS_VAL ((const uint8 CYFAR *)0x48000648u)
 233:Generated_Source\PSoC5/cyfitter_cfg.c **** 
 234:Generated_Source\PSoC5/cyfitter_cfg.c **** /* UCFG_BCTL1 Address: CYREG_BCTL1_MDCLK_EN Size (bytes): 16 */
 235:Generated_Source\PSoC5/cyfitter_cfg.c **** #define BS_UCFG_BCTL1_VAL ((const uint8 CYFAR *)0x48000668u)
 236:Generated_Source\PSoC5/cyfitter_cfg.c **** 
 237:Generated_Source\PSoC5/cyfitter_cfg.c **** /* UCFG_BCTL0 Address: CYREG_BCTL0_MDCLK_EN Size (bytes): 16 */
 238:Generated_Source\PSoC5/cyfitter_cfg.c **** #define BS_UCFG_BCTL0_VAL ((const uint8 CYFAR *)0x48000678u)
 239:Generated_Source\PSoC5/cyfitter_cfg.c **** 
 240:Generated_Source\PSoC5/cyfitter_cfg.c **** /* DSISWITCH_0_0 Address: CYDEV_UCFG_DSI13_BASE Size (bytes): 128 */
 241:Generated_Source\PSoC5/cyfitter_cfg.c **** #define BS_DSISWITCH_0_0_VAL ((const uint8 CYFAR *)0x48000688u)
 242:Generated_Source\PSoC5/cyfitter_cfg.c **** 
 243:Generated_Source\PSoC5/cyfitter_cfg.c **** /* DSI0_0_HV_ROUTING Address: CYDEV_UCFG_DSI13_BASE + 0x00000080u Size (bytes): 128 */
 244:Generated_Source\PSoC5/cyfitter_cfg.c **** #define BS_DSI0_0_HV_ROUTING_VAL ((const uint8 CYFAR *)0x48000708u)
 245:Generated_Source\PSoC5/cyfitter_cfg.c **** 
 246:Generated_Source\PSoC5/cyfitter_cfg.c **** /* DSISWITCH_0_1 Address: CYDEV_UCFG_DSI12_BASE Size (bytes): 128 */
 247:Generated_Source\PSoC5/cyfitter_cfg.c **** #define BS_DSISWITCH_0_1_VAL ((const uint8 CYFAR *)0x48000788u)
 248:Generated_Source\PSoC5/cyfitter_cfg.c **** 
 249:Generated_Source\PSoC5/cyfitter_cfg.c **** /* DSI0_1_HV_ROUTING Address: CYDEV_UCFG_DSI12_BASE + 0x00000080u Size (bytes): 128 */
 250:Generated_Source\PSoC5/cyfitter_cfg.c **** #define BS_DSI0_1_HV_ROUTING_VAL ((const uint8 CYFAR *)0x48000808u)
 251:Generated_Source\PSoC5/cyfitter_cfg.c **** 
 252:Generated_Source\PSoC5/cyfitter_cfg.c **** /* DSI0_2_HV_ROUTING Address: CYDEV_UCFG_DSI7_BASE + 0x00000080u Size (bytes): 128 */
 253:Generated_Source\PSoC5/cyfitter_cfg.c **** #define BS_DSI0_2_HV_ROUTING_VAL ((const uint8 CYFAR *)0x48000888u)
 254:Generated_Source\PSoC5/cyfitter_cfg.c **** 
 255:Generated_Source\PSoC5/cyfitter_cfg.c **** /* DSISWITCH_0_3 Address: CYDEV_UCFG_DSI6_BASE Size (bytes): 128 */
 256:Generated_Source\PSoC5/cyfitter_cfg.c **** #define BS_DSISWITCH_0_3_VAL ((const uint8 CYFAR *)0x48000908u)
 257:Generated_Source\PSoC5/cyfitter_cfg.c **** 
 258:Generated_Source\PSoC5/cyfitter_cfg.c **** /* DSI0_3_HV_ROUTING Address: CYDEV_UCFG_DSI6_BASE + 0x00000080u Size (bytes): 128 */
 259:Generated_Source\PSoC5/cyfitter_cfg.c **** #define BS_DSI0_3_HV_ROUTING_VAL ((const uint8 CYFAR *)0x48000988u)
 260:Generated_Source\PSoC5/cyfitter_cfg.c **** 
 261:Generated_Source\PSoC5/cyfitter_cfg.c **** /* DSI0_4_HV_ROUTING Address: CYDEV_UCFG_DSI5_BASE + 0x00000080u Size (bytes): 128 */
 262:Generated_Source\PSoC5/cyfitter_cfg.c **** #define BS_DSI0_4_HV_ROUTING_VAL ((const uint8 CYFAR *)0x48000A08u)
 263:Generated_Source\PSoC5/cyfitter_cfg.c **** 
 264:Generated_Source\PSoC5/cyfitter_cfg.c **** /* DSISWITCH_0_5 Address: CYDEV_UCFG_DSI4_BASE Size (bytes): 128 */
 265:Generated_Source\PSoC5/cyfitter_cfg.c **** #define BS_DSISWITCH_0_5_VAL ((const uint8 CYFAR *)0x48000A88u)
 266:Generated_Source\PSoC5/cyfitter_cfg.c **** 
 267:Generated_Source\PSoC5/cyfitter_cfg.c **** /* DSI0_5_HV_ROUTING Address: CYDEV_UCFG_DSI4_BASE + 0x00000080u Size (bytes): 128 */
ARM GAS  C:\Users\JEFFSN~1\AppData\Local\Temp\cc9h98U0.s 			page 16


 268:Generated_Source\PSoC5/cyfitter_cfg.c **** #define BS_DSI0_5_HV_ROUTING_VAL ((const uint8 CYFAR *)0x48000B08u)
 269:Generated_Source\PSoC5/cyfitter_cfg.c **** 
 270:Generated_Source\PSoC5/cyfitter_cfg.c **** /* UDBSWITCH_0_0 Address: CYDEV_UCFG_B1_P5_ROUTE_BASE Size (bytes): 128 */
 271:Generated_Source\PSoC5/cyfitter_cfg.c **** #define BS_UDBSWITCH_0_0_VAL ((const uint8 CYFAR *)0x48000B88u)
 272:Generated_Source\PSoC5/cyfitter_cfg.c **** 
 273:Generated_Source\PSoC5/cyfitter_cfg.c **** /* UDB_1_0_HV_ROUTING Address: CYDEV_UCFG_B1_P5_ROUTE_BASE + 0x00000080u Size (bytes): 128 */
 274:Generated_Source\PSoC5/cyfitter_cfg.c **** #define BS_UDB_1_0_HV_ROUTING_VAL ((const uint8 CYFAR *)0x48000C08u)
 275:Generated_Source\PSoC5/cyfitter_cfg.c **** 
 276:Generated_Source\PSoC5/cyfitter_cfg.c **** /* UDBSWITCH_0_1 Address: CYDEV_UCFG_B1_P4_ROUTE_BASE Size (bytes): 128 */
 277:Generated_Source\PSoC5/cyfitter_cfg.c **** #define BS_UDBSWITCH_0_1_VAL ((const uint8 CYFAR *)0x48000C88u)
 278:Generated_Source\PSoC5/cyfitter_cfg.c **** 
 279:Generated_Source\PSoC5/cyfitter_cfg.c **** /* UDB_1_1_HV_ROUTING Address: CYDEV_UCFG_B1_P4_ROUTE_BASE + 0x00000080u Size (bytes): 128 */
 280:Generated_Source\PSoC5/cyfitter_cfg.c **** #define BS_UDB_1_1_HV_ROUTING_VAL ((const uint8 CYFAR *)0x48000D08u)
 281:Generated_Source\PSoC5/cyfitter_cfg.c **** 
 282:Generated_Source\PSoC5/cyfitter_cfg.c **** /* UDBSWITCH_1_1 Address: CYDEV_UCFG_B1_P3_ROUTE_BASE Size (bytes): 128 */
 283:Generated_Source\PSoC5/cyfitter_cfg.c **** #define BS_UDBSWITCH_1_1_VAL ((const uint8 CYFAR *)0x48000D88u)
 284:Generated_Source\PSoC5/cyfitter_cfg.c **** 
 285:Generated_Source\PSoC5/cyfitter_cfg.c **** /* UDB_2_1_HV_ROUTING Address: CYDEV_UCFG_B1_P3_ROUTE_BASE + 0x00000080u Size (bytes): 128 */
 286:Generated_Source\PSoC5/cyfitter_cfg.c **** #define BS_UDB_2_1_HV_ROUTING_VAL ((const uint8 CYFAR *)0x48000E08u)
 287:Generated_Source\PSoC5/cyfitter_cfg.c **** 
 288:Generated_Source\PSoC5/cyfitter_cfg.c **** /* UDBSWITCH_0_2 Address: CYDEV_UCFG_B0_P4_ROUTE_BASE Size (bytes): 128 */
 289:Generated_Source\PSoC5/cyfitter_cfg.c **** #define BS_UDBSWITCH_0_2_VAL ((const uint8 CYFAR *)0x48000E88u)
 290:Generated_Source\PSoC5/cyfitter_cfg.c **** 
 291:Generated_Source\PSoC5/cyfitter_cfg.c **** /* UDB_1_2_HV_ROUTING Address: CYDEV_UCFG_B0_P4_ROUTE_BASE + 0x00000080u Size (bytes): 128 */
 292:Generated_Source\PSoC5/cyfitter_cfg.c **** #define BS_UDB_1_2_HV_ROUTING_VAL ((const uint8 CYFAR *)0x48000F08u)
 293:Generated_Source\PSoC5/cyfitter_cfg.c **** 
 294:Generated_Source\PSoC5/cyfitter_cfg.c **** /* UDB_2_2_HV_ROUTING Address: CYDEV_UCFG_B0_P3_ROUTE_BASE + 0x00000080u Size (bytes): 128 */
 295:Generated_Source\PSoC5/cyfitter_cfg.c **** #define BS_UDB_2_2_HV_ROUTING_VAL ((const uint8 CYFAR *)0x48000F88u)
 296:Generated_Source\PSoC5/cyfitter_cfg.c **** 
 297:Generated_Source\PSoC5/cyfitter_cfg.c **** /* UDBSWITCH_0_3 Address: CYDEV_UCFG_B0_P5_ROUTE_BASE Size (bytes): 128 */
 298:Generated_Source\PSoC5/cyfitter_cfg.c **** #define BS_UDBSWITCH_0_3_VAL ((const uint8 CYFAR *)0x48001008u)
 299:Generated_Source\PSoC5/cyfitter_cfg.c **** 
 300:Generated_Source\PSoC5/cyfitter_cfg.c **** /* UDB_1_3_HV_ROUTING Address: CYDEV_UCFG_B0_P5_ROUTE_BASE + 0x00000080u Size (bytes): 128 */
 301:Generated_Source\PSoC5/cyfitter_cfg.c **** #define BS_UDB_1_3_HV_ROUTING_VAL ((const uint8 CYFAR *)0x48001088u)
 302:Generated_Source\PSoC5/cyfitter_cfg.c **** 
 303:Generated_Source\PSoC5/cyfitter_cfg.c **** /* UDB_2_3_HV_ROUTING Address: CYDEV_UCFG_B0_P2_ROUTE_BASE + 0x00000080u Size (bytes): 128 */
 304:Generated_Source\PSoC5/cyfitter_cfg.c **** #define BS_UDB_2_3_HV_ROUTING_VAL ((const uint8 CYFAR *)0x48001108u)
 305:Generated_Source\PSoC5/cyfitter_cfg.c **** 
 306:Generated_Source\PSoC5/cyfitter_cfg.c **** /* UDBSWITCH_0_4 Address: CYDEV_UCFG_B0_P6_ROUTE_BASE Size (bytes): 128 */
 307:Generated_Source\PSoC5/cyfitter_cfg.c **** #define BS_UDBSWITCH_0_4_VAL ((const uint8 CYFAR *)0x48001188u)
 308:Generated_Source\PSoC5/cyfitter_cfg.c **** 
 309:Generated_Source\PSoC5/cyfitter_cfg.c **** /* UDB_1_4_HV_ROUTING Address: CYDEV_UCFG_B0_P6_ROUTE_BASE + 0x00000080u Size (bytes): 128 */
 310:Generated_Source\PSoC5/cyfitter_cfg.c **** #define BS_UDB_1_4_HV_ROUTING_VAL ((const uint8 CYFAR *)0x48001208u)
 311:Generated_Source\PSoC5/cyfitter_cfg.c **** 
 312:Generated_Source\PSoC5/cyfitter_cfg.c **** /* UDB_2_4_HV_ROUTING Address: CYDEV_UCFG_B0_P1_ROUTE_BASE + 0x00000080u Size (bytes): 128 */
 313:Generated_Source\PSoC5/cyfitter_cfg.c **** #define BS_UDB_2_4_HV_ROUTING_VAL ((const uint8 CYFAR *)0x48001288u)
 314:Generated_Source\PSoC5/cyfitter_cfg.c **** 
 315:Generated_Source\PSoC5/cyfitter_cfg.c **** /* DSISWITCH_1_1 Address: CYDEV_UCFG_DSI8_BASE Size (bytes): 128 */
 316:Generated_Source\PSoC5/cyfitter_cfg.c **** #define BS_DSISWITCH_1_1_VAL ((const uint8 CYFAR *)0x48001308u)
 317:Generated_Source\PSoC5/cyfitter_cfg.c **** 
 318:Generated_Source\PSoC5/cyfitter_cfg.c **** /* DSI3_1_HV_ROUTING Address: CYDEV_UCFG_DSI8_BASE + 0x00000080u Size (bytes): 128 */
 319:Generated_Source\PSoC5/cyfitter_cfg.c **** #define BS_DSI3_1_HV_ROUTING_VAL ((const uint8 CYFAR *)0x48001388u)
 320:Generated_Source\PSoC5/cyfitter_cfg.c **** 
 321:Generated_Source\PSoC5/cyfitter_cfg.c **** /* DSI3_2_HV_ROUTING Address: CYDEV_UCFG_DSI3_BASE + 0x00000080u Size (bytes): 128 */
 322:Generated_Source\PSoC5/cyfitter_cfg.c **** #define BS_DSI3_2_HV_ROUTING_VAL ((const uint8 CYFAR *)0x48001408u)
 323:Generated_Source\PSoC5/cyfitter_cfg.c **** 
 324:Generated_Source\PSoC5/cyfitter_cfg.c **** /* DSI3_4_HV_ROUTING Address: CYDEV_UCFG_DSI1_BASE + 0x00000080u Size (bytes): 128 */
ARM GAS  C:\Users\JEFFSN~1\AppData\Local\Temp\cc9h98U0.s 			page 17


 325:Generated_Source\PSoC5/cyfitter_cfg.c **** #define BS_DSI3_4_HV_ROUTING_VAL ((const uint8 CYFAR *)0x48001488u)
 326:Generated_Source\PSoC5/cyfitter_cfg.c **** 
 327:Generated_Source\PSoC5/cyfitter_cfg.c **** /* DSISWITCH_1_5 Address: CYDEV_UCFG_DSI0_BASE Size (bytes): 128 */
 328:Generated_Source\PSoC5/cyfitter_cfg.c **** #define BS_DSISWITCH_1_5_VAL ((const uint8 CYFAR *)0x48001508u)
 329:Generated_Source\PSoC5/cyfitter_cfg.c **** 
 330:Generated_Source\PSoC5/cyfitter_cfg.c **** /* DSI3_5_HV_ROUTING Address: CYDEV_UCFG_DSI0_BASE + 0x00000080u Size (bytes): 128 */
 331:Generated_Source\PSoC5/cyfitter_cfg.c **** #define BS_DSI3_5_HV_ROUTING_VAL ((const uint8 CYFAR *)0x48001588u)
 332:Generated_Source\PSoC5/cyfitter_cfg.c **** 
 333:Generated_Source\PSoC5/cyfitter_cfg.c **** /* IOPINS0_0 Address: CYREG_PRT0_DM0 Size (bytes): 8 */
 334:Generated_Source\PSoC5/cyfitter_cfg.c **** #define BS_IOPINS0_0_VAL ((const uint8 CYFAR *)0x48001608u)
 335:Generated_Source\PSoC5/cyfitter_cfg.c **** 
 336:Generated_Source\PSoC5/cyfitter_cfg.c **** /* IOPINS0_8 Address: CYREG_PRT15_DM0 Size (bytes): 8 */
 337:Generated_Source\PSoC5/cyfitter_cfg.c **** #define BS_IOPINS0_8_VAL ((const uint8 CYFAR *)0x48001610u)
 338:Generated_Source\PSoC5/cyfitter_cfg.c **** 
 339:Generated_Source\PSoC5/cyfitter_cfg.c **** /* IOPINS0_1 Address: CYREG_PRT1_DM0 Size (bytes): 8 */
 340:Generated_Source\PSoC5/cyfitter_cfg.c **** #define BS_IOPINS0_1_VAL ((const uint8 CYFAR *)0x48001618u)
 341:Generated_Source\PSoC5/cyfitter_cfg.c **** 
 342:Generated_Source\PSoC5/cyfitter_cfg.c **** /* IOPINS0_2 Address: CYREG_PRT2_DM0 Size (bytes): 8 */
 343:Generated_Source\PSoC5/cyfitter_cfg.c **** #define BS_IOPINS0_2_VAL ((const uint8 CYFAR *)0x48001620u)
 344:Generated_Source\PSoC5/cyfitter_cfg.c **** 
 345:Generated_Source\PSoC5/cyfitter_cfg.c **** /* IOPINS0_3 Address: CYREG_PRT3_DM0 Size (bytes): 8 */
 346:Generated_Source\PSoC5/cyfitter_cfg.c **** #define BS_IOPINS0_3_VAL ((const uint8 CYFAR *)0x48001628u)
 347:Generated_Source\PSoC5/cyfitter_cfg.c **** 
 348:Generated_Source\PSoC5/cyfitter_cfg.c **** /* IOPINS0_4 Address: CYREG_PRT4_DM0 Size (bytes): 8 */
 349:Generated_Source\PSoC5/cyfitter_cfg.c **** #define BS_IOPINS0_4_VAL ((const uint8 CYFAR *)0x48001630u)
 350:Generated_Source\PSoC5/cyfitter_cfg.c **** 
 351:Generated_Source\PSoC5/cyfitter_cfg.c **** /* IOPINS0_5 Address: CYREG_PRT5_DM0 Size (bytes): 8 */
 352:Generated_Source\PSoC5/cyfitter_cfg.c **** #define BS_IOPINS0_5_VAL ((const uint8 CYFAR *)0x48001638u)
 353:Generated_Source\PSoC5/cyfitter_cfg.c **** 
 354:Generated_Source\PSoC5/cyfitter_cfg.c **** /* IOPINS0_6 Address: CYREG_PRT6_DM0 Size (bytes): 8 */
 355:Generated_Source\PSoC5/cyfitter_cfg.c **** #define BS_IOPINS0_6_VAL ((const uint8 CYFAR *)0x48001640u)
 356:Generated_Source\PSoC5/cyfitter_cfg.c **** 
 357:Generated_Source\PSoC5/cyfitter_cfg.c **** /* CYDEV_CLKDIST_ACFG0_CFG0 Address: CYREG_CLKDIST_ACFG0_CFG0 Size (bytes): 4 */
 358:Generated_Source\PSoC5/cyfitter_cfg.c **** #define BS_CYDEV_CLKDIST_ACFG0_CFG0_VAL ((const uint8 CYFAR *)0x48001648u)
 359:Generated_Source\PSoC5/cyfitter_cfg.c **** 
 360:Generated_Source\PSoC5/cyfitter_cfg.c **** 
 361:Generated_Source\PSoC5/cyfitter_cfg.c **** /*******************************************************************************
 362:Generated_Source\PSoC5/cyfitter_cfg.c **** * Function Name: cfg_dma_init
 363:Generated_Source\PSoC5/cyfitter_cfg.c **** ********************************************************************************
 364:Generated_Source\PSoC5/cyfitter_cfg.c **** * Summary:
 365:Generated_Source\PSoC5/cyfitter_cfg.c **** *  This function is used to copy device configuration data from constant values
 366:Generated_Source\PSoC5/cyfitter_cfg.c **** *  stored in memory into the proper chip configuration registers using DMA.  It
 367:Generated_Source\PSoC5/cyfitter_cfg.c **** *  pulls data out of the CFG_TD_LISTs to know exactly how/what to configure.
 368:Generated_Source\PSoC5/cyfitter_cfg.c **** *
 369:Generated_Source\PSoC5/cyfitter_cfg.c **** * Parameters:  
 370:Generated_Source\PSoC5/cyfitter_cfg.c **** *   void
 371:Generated_Source\PSoC5/cyfitter_cfg.c **** *
 372:Generated_Source\PSoC5/cyfitter_cfg.c **** * Return:
 373:Generated_Source\PSoC5/cyfitter_cfg.c **** *   void
 374:Generated_Source\PSoC5/cyfitter_cfg.c **** *
 375:Generated_Source\PSoC5/cyfitter_cfg.c **** *******************************************************************************/
 376:Generated_Source\PSoC5/cyfitter_cfg.c **** static void cfg_dma_init(void);
 377:Generated_Source\PSoC5/cyfitter_cfg.c **** static void cfg_dma_init(void)
 378:Generated_Source\PSoC5/cyfitter_cfg.c **** {
 589              		.loc 1 378 0
 590              		.cfi_startproc
 591              		@ args = 0, pretend = 0, frame = 8
ARM GAS  C:\Users\JEFFSN~1\AppData\Local\Temp\cc9h98U0.s 			page 18


 592              		@ frame_needed = 1, uses_anonymous_args = 0
 593              		@ link register save eliminated.
 594 0000 80B4     		push	{r7}
 595              		.cfi_def_cfa_offset 4
 596              		.cfi_offset 7, -4
 597 0002 83B0     		sub	sp, sp, #12
 598              		.cfi_def_cfa_offset 16
 599 0004 00AF     		add	r7, sp, #0
 600              		.cfi_def_cfa_register 7
 379:Generated_Source\PSoC5/cyfitter_cfg.c **** 	/* TD structure for little-endian systems. Does not require endian swap */
 380:Generated_Source\PSoC5/cyfitter_cfg.c **** 	CYPACKED struct td_t {
 381:Generated_Source\PSoC5/cyfitter_cfg.c **** 		uint16 size;
 382:Generated_Source\PSoC5/cyfitter_cfg.c **** 		uint8 next_td_ptr;
 383:Generated_Source\PSoC5/cyfitter_cfg.c **** 		uint8 flags;
 384:Generated_Source\PSoC5/cyfitter_cfg.c **** 		uint16 src;
 385:Generated_Source\PSoC5/cyfitter_cfg.c **** 		uint16 dest;
 386:Generated_Source\PSoC5/cyfitter_cfg.c **** 	} CYPACKED_ATTR;
 387:Generated_Source\PSoC5/cyfitter_cfg.c **** 
 388:Generated_Source\PSoC5/cyfitter_cfg.c **** 	/* PHUB_CH1_CFGMEM_CFG0/1 initialization data */
 389:Generated_Source\PSoC5/cyfitter_cfg.c **** 	DMAINITSEC static const uint8 CYCODE CH1_ADDR_DATA0[] = { 0x01u, 0x00u, 0x00u, 0x00u, 0x00u, 0x20u
 390:Generated_Source\PSoC5/cyfitter_cfg.c **** 
 391:Generated_Source\PSoC5/cyfitter_cfg.c **** 	/* PHUB_CH2_CFGMEM_CFG0/1 initialization data */
 392:Generated_Source\PSoC5/cyfitter_cfg.c **** 	DMAINITSEC static const uint8 CYCODE CH2_ADDR_DATA0[] = { 0x01u, 0x00u, 0x00u, 0x00u, 0x00u, 0x20u
 393:Generated_Source\PSoC5/cyfitter_cfg.c **** 
 394:Generated_Source\PSoC5/cyfitter_cfg.c **** 	/* PHUB_CH5_CFGMEM_CFG0/1 initialization data */
 395:Generated_Source\PSoC5/cyfitter_cfg.c **** 	DMAINITSEC static const uint8 CYCODE CH5_ADDR_DATA0[] = { 0x01u, 0x00u, 0x00u, 0x00u, 0x00u, 0x48u
 396:Generated_Source\PSoC5/cyfitter_cfg.c **** 
 397:Generated_Source\PSoC5/cyfitter_cfg.c **** 	/* PHUB_CH6_CFGMEM_CFG0/1 initialization data */
 398:Generated_Source\PSoC5/cyfitter_cfg.c **** 	DMAINITSEC static const uint8 CYCODE CH6_ADDR_DATA0[] = { 0x01u, 0x00u, 0x00u, 0x00u, 0x00u, 0x48u
 399:Generated_Source\PSoC5/cyfitter_cfg.c **** 
 400:Generated_Source\PSoC5/cyfitter_cfg.c **** 	/* Initialization data for each DMA channel's TD registers */
 401:Generated_Source\PSoC5/cyfitter_cfg.c **** 	DMAINITSEC static const uint8 CYCODE DMA_TD_START_CMD[] = { 0x01u, 0x00u, 0x00u, 0x00u, 0x01u };
 402:Generated_Source\PSoC5/cyfitter_cfg.c **** 
 403:Generated_Source\PSoC5/cyfitter_cfg.c **** 	CYALIGNED static uint32 CYXDATA DMA_ZERO_VAL;
 404:Generated_Source\PSoC5/cyfitter_cfg.c **** 
 405:Generated_Source\PSoC5/cyfitter_cfg.c **** 	/* This table holds all of the initialization data necessary for the DMA
 406:Generated_Source\PSoC5/cyfitter_cfg.c **** 	   process to transfer data from the source location to the destination. */
 407:Generated_Source\PSoC5/cyfitter_cfg.c **** 	/* Source addresses can be relocated, but only when in 32bit addresses.
 408:Generated_Source\PSoC5/cyfitter_cfg.c **** 	   Because the standard TD table only has 16bit addresses, we generate a
 409:Generated_Source\PSoC5/cyfitter_cfg.c **** 	   separate CFG_TD_ADDR table for the source addresses that supports 32bit
 410:Generated_Source\PSoC5/cyfitter_cfg.c **** 	   addresses. */
 411:Generated_Source\PSoC5/cyfitter_cfg.c **** 	DMAINITSEC static const struct td_t CYCODE CFG_TD_LIST0[] = {
 412:Generated_Source\PSoC5/cyfitter_cfg.c **** 		/* Size, Next, Flags, Source, Destination */
 413:Generated_Source\PSoC5/cyfitter_cfg.c **** 		{ 8u, 0x02u, 0x23u, (uint16)(uint32)(0u), (uint16)(CYREG_PHUB_CFGMEM1_CFG0) },	/* TD 1 */
 414:Generated_Source\PSoC5/cyfitter_cfg.c **** 		{ 8u, 0x03u, 0x23u, (uint16)(uint32)(0u), (uint16)(CYREG_PHUB_CFGMEM2_CFG0) },	/* TD 2 */
 415:Generated_Source\PSoC5/cyfitter_cfg.c **** 		{ 8u, 0x04u, 0x23u, (uint16)(uint32)(0u), (uint16)(CYREG_PHUB_CFGMEM5_CFG0) },	/* TD 3 */
 416:Generated_Source\PSoC5/cyfitter_cfg.c **** 		{ 8u, 0x05u, 0x23u, (uint16)(uint32)(0u), (uint16)(CYREG_PHUB_CFGMEM6_CFG0) },	/* TD 4 */
 417:Generated_Source\PSoC5/cyfitter_cfg.c **** 		{ 5u, 0x06u, 0x23u, (uint16)(uint32)(0u), (uint16)(CYREG_PHUB_CH1_BASIC_CFG) },	/* TD 5 */
 418:Generated_Source\PSoC5/cyfitter_cfg.c **** 		{ 5u, 0x07u, 0x23u, (uint16)(uint32)(0u), (uint16)(CYREG_PHUB_CH2_BASIC_CFG) },	/* TD 6 */
 419:Generated_Source\PSoC5/cyfitter_cfg.c **** 		{ 5u, 0x08u, 0x23u, (uint16)(uint32)(0u), (uint16)(CYREG_PHUB_CH5_BASIC_CFG) },	/* TD 7 */
 420:Generated_Source\PSoC5/cyfitter_cfg.c **** 		{ 5u, 0xFEu, 0x23u, (uint16)(uint32)(0u), (uint16)(CYREG_PHUB_CH6_BASIC_CFG) },	/* TD 8 */
 421:Generated_Source\PSoC5/cyfitter_cfg.c **** 		{ 16u, 0xFEu, 0x22u, (uint16)(uint32)(0u), (uint16)(CYREG_PRT12_DR) },	/* TD 9 */
 422:Generated_Source\PSoC5/cyfitter_cfg.c **** 		{ 896u, 0x0Bu, 0x22u, (uint16)(uint32)(0u), (uint16)(CYDEV_UCFG_B0_P0_U0_BASE) },	/* TD 10 */
 423:Generated_Source\PSoC5/cyfitter_cfg.c **** 		{ 384u, 0x0Cu, 0x22u, (uint16)(uint32)(0u), (uint16)(CYDEV_UCFG_B0_P2_U0_BASE) },	/* TD 11 */
 424:Generated_Source\PSoC5/cyfitter_cfg.c **** 		{ 384u, 0x0Du, 0x22u, (uint16)(uint32)(0u), (uint16)(CYDEV_UCFG_B0_P3_U0_BASE) },	/* TD 12 */
 425:Generated_Source\PSoC5/cyfitter_cfg.c **** 		{ 512u, 0x0Eu, 0x22u, (uint16)(uint32)(0u), (uint16)(CYDEV_UCFG_B0_P7_U0_BASE) },	/* TD 13 */
 426:Generated_Source\PSoC5/cyfitter_cfg.c **** 		{ 640u, 0x0Fu, 0x22u, (uint16)(uint32)(0u), (uint16)(CYDEV_UCFG_B1_P2_U0_BASE) },	/* TD 14 */
ARM GAS  C:\Users\JEFFSN~1\AppData\Local\Temp\cc9h98U0.s 			page 19


 427:Generated_Source\PSoC5/cyfitter_cfg.c **** 		{ 128u, 0x10u, 0x22u, (uint16)(uint32)(0u), (uint16)(CYDEV_UCFG_DSI1_BASE) },	/* TD 15 */
 428:Generated_Source\PSoC5/cyfitter_cfg.c **** 		{ 384u, 0x11u, 0x22u, (uint16)(uint32)(0u), (uint16)(CYDEV_UCFG_DSI2_BASE) },	/* TD 16 */
 429:Generated_Source\PSoC5/cyfitter_cfg.c **** 		{ 128u, 0x12u, 0x22u, (uint16)(uint32)(0u), (uint16)(CYDEV_UCFG_DSI5_BASE) },	/* TD 17 */
 430:Generated_Source\PSoC5/cyfitter_cfg.c **** 		{ 128u, 0x13u, 0x22u, (uint16)(uint32)(0u), (uint16)(CYDEV_UCFG_DSI7_BASE) },	/* TD 18 */
 431:Generated_Source\PSoC5/cyfitter_cfg.c **** 		{ 256u, 0xFEu, 0x22u, (uint16)(uint32)(0u), (uint16)(CYDEV_UCFG_DSI9_BASE) },	/* TD 19 */
 432:Generated_Source\PSoC5/cyfitter_cfg.c **** 		{ 7u, 0x15u, 0x23u, (uint16)(uint32)(0u), (uint16)(CYDEV_PRTDSI_PRT1_BASE) },	/* TD 20 */
 433:Generated_Source\PSoC5/cyfitter_cfg.c **** 		{ 7u, 0x16u, 0x23u, (uint16)(uint32)(0u), (uint16)(CYDEV_PRTDSI_PRT2_BASE) },	/* TD 21 */
 434:Generated_Source\PSoC5/cyfitter_cfg.c **** 		{ 7u, 0x17u, 0x23u, (uint16)(uint32)(0u), (uint16)(CYDEV_PRTDSI_PRT5_BASE) },	/* TD 22 */
 435:Generated_Source\PSoC5/cyfitter_cfg.c **** 		{ 7u, 0x18u, 0x23u, (uint16)(uint32)(0u), (uint16)(CYDEV_PRTDSI_PRT6_BASE) },	/* TD 23 */
 436:Generated_Source\PSoC5/cyfitter_cfg.c **** 		{ 64u, 0x19u, 0x23u, (uint16)(uint32)(0u), (uint16)(CYDEV_UWRK_UWRK8_B0_BASE) },	/* TD 24 */
 437:Generated_Source\PSoC5/cyfitter_cfg.c **** 		{ 32u, 0x1Au, 0x23u, (uint16)(uint32)(0u), (uint16)(CYDEV_UWRK_UWRK8_B0_BASE + 0x00000070u) },	/*
 438:Generated_Source\PSoC5/cyfitter_cfg.c **** 		{ 64u, 0x1Bu, 0x23u, (uint16)(uint32)(0u), (uint16)(CYDEV_UWRK_UWRK8_B1_BASE) },	/* TD 26 */
 439:Generated_Source\PSoC5/cyfitter_cfg.c **** 		{ 32u, 0xFEu, 0x23u, (uint16)(uint32)(0u), (uint16)(CYDEV_UWRK_UWRK8_B1_BASE + 0x00000070u) },	/*
 440:Generated_Source\PSoC5/cyfitter_cfg.c **** 		{ 8u, 0x1Du, 0x23u, (uint16)(uint32)(0u), (uint16)(CYREG_IDMUX_IRQ_CTL0) },	/* TD 28 */
 441:Generated_Source\PSoC5/cyfitter_cfg.c **** 		{ 128u, 0x1Eu, 0x23u, (uint16)(uint32)(0u), (uint16)(CYDEV_UCFG_B0_P4_U0_BASE) },	/* TD 29 */
 442:Generated_Source\PSoC5/cyfitter_cfg.c **** 		{ 128u, 0x1Fu, 0x23u, (uint16)(uint32)(0u), (uint16)(CYDEV_UCFG_B0_P4_U1_BASE) },	/* TD 30 */
 443:Generated_Source\PSoC5/cyfitter_cfg.c **** 		{ 128u, 0x20u, 0x23u, (uint16)(uint32)(0u), (uint16)(CYDEV_UCFG_B0_P5_U0_BASE) },	/* TD 31 */
 444:Generated_Source\PSoC5/cyfitter_cfg.c **** 		{ 128u, 0x21u, 0x23u, (uint16)(uint32)(0u), (uint16)(CYDEV_UCFG_B0_P5_U1_BASE) },	/* TD 32 */
 445:Generated_Source\PSoC5/cyfitter_cfg.c **** 		{ 128u, 0x22u, 0x23u, (uint16)(uint32)(0u), (uint16)(CYDEV_UCFG_B0_P6_U0_BASE) },	/* TD 33 */
 446:Generated_Source\PSoC5/cyfitter_cfg.c **** 		{ 128u, 0x23u, 0x23u, (uint16)(uint32)(0u), (uint16)(CYDEV_UCFG_B0_P6_U1_BASE) },	/* TD 34 */
 447:Generated_Source\PSoC5/cyfitter_cfg.c **** 		{ 128u, 0x24u, 0x23u, (uint16)(uint32)(0u), (uint16)(CYDEV_UCFG_B1_P3_U1_BASE) },	/* TD 35 */
 448:Generated_Source\PSoC5/cyfitter_cfg.c **** 		{ 128u, 0x25u, 0x23u, (uint16)(uint32)(0u), (uint16)(CYDEV_UCFG_B1_P4_U0_BASE) },	/* TD 36 */
 449:Generated_Source\PSoC5/cyfitter_cfg.c **** 		{ 128u, 0x26u, 0x23u, (uint16)(uint32)(0u), (uint16)(CYDEV_UCFG_B1_P4_U1_BASE) },	/* TD 37 */
 450:Generated_Source\PSoC5/cyfitter_cfg.c **** 		{ 128u, 0x27u, 0x23u, (uint16)(uint32)(0u), (uint16)(CYDEV_UCFG_B1_P5_U0_BASE) },	/* TD 38 */
 451:Generated_Source\PSoC5/cyfitter_cfg.c **** 		{ 128u, 0x28u, 0x23u, (uint16)(uint32)(0u), (uint16)(CYDEV_UCFG_B1_P5_U1_BASE) },	/* TD 39 */
 452:Generated_Source\PSoC5/cyfitter_cfg.c **** 		{ 16u, 0x29u, 0x23u, (uint16)(uint32)(0u), (uint16)(CYREG_BCTL1_MDCLK_EN) },	/* TD 40 */
 453:Generated_Source\PSoC5/cyfitter_cfg.c **** 		{ 16u, 0x2Au, 0x23u, (uint16)(uint32)(0u), (uint16)(CYREG_BCTL0_MDCLK_EN) },	/* TD 41 */
 454:Generated_Source\PSoC5/cyfitter_cfg.c **** 		{ 128u, 0x2Bu, 0x23u, (uint16)(uint32)(0u), (uint16)(CYDEV_UCFG_DSI13_BASE) },	/* TD 42 */
 455:Generated_Source\PSoC5/cyfitter_cfg.c **** 		{ 128u, 0x2Cu, 0x23u, (uint16)(uint32)(0u), (uint16)(CYDEV_UCFG_DSI13_BASE + 0x00000080u) },	/* T
 456:Generated_Source\PSoC5/cyfitter_cfg.c **** 		{ 128u, 0x2Du, 0x23u, (uint16)(uint32)(0u), (uint16)(CYDEV_UCFG_DSI12_BASE) },	/* TD 44 */
 457:Generated_Source\PSoC5/cyfitter_cfg.c **** 		{ 128u, 0x2Eu, 0x23u, (uint16)(uint32)(0u), (uint16)(CYDEV_UCFG_DSI12_BASE + 0x00000080u) },	/* T
 458:Generated_Source\PSoC5/cyfitter_cfg.c **** 		{ 128u, 0x2Fu, 0x23u, (uint16)(uint32)(0u), (uint16)(CYDEV_UCFG_DSI7_BASE + 0x00000080u) },	/* TD
 459:Generated_Source\PSoC5/cyfitter_cfg.c **** 		{ 128u, 0x30u, 0x23u, (uint16)(uint32)(0u), (uint16)(CYDEV_UCFG_DSI6_BASE) },	/* TD 47 */
 460:Generated_Source\PSoC5/cyfitter_cfg.c **** 		{ 128u, 0x31u, 0x23u, (uint16)(uint32)(0u), (uint16)(CYDEV_UCFG_DSI6_BASE + 0x00000080u) },	/* TD
 461:Generated_Source\PSoC5/cyfitter_cfg.c **** 		{ 128u, 0x32u, 0x23u, (uint16)(uint32)(0u), (uint16)(CYDEV_UCFG_DSI5_BASE + 0x00000080u) },	/* TD
 462:Generated_Source\PSoC5/cyfitter_cfg.c **** 		{ 128u, 0x33u, 0x23u, (uint16)(uint32)(0u), (uint16)(CYDEV_UCFG_DSI4_BASE) },	/* TD 50 */
 463:Generated_Source\PSoC5/cyfitter_cfg.c **** 		{ 128u, 0x34u, 0x23u, (uint16)(uint32)(0u), (uint16)(CYDEV_UCFG_DSI4_BASE + 0x00000080u) },	/* TD
 464:Generated_Source\PSoC5/cyfitter_cfg.c **** 		{ 128u, 0x35u, 0x23u, (uint16)(uint32)(0u), (uint16)(CYDEV_UCFG_B1_P5_ROUTE_BASE) },	/* TD 52 */
 465:Generated_Source\PSoC5/cyfitter_cfg.c **** 		{ 128u, 0x36u, 0x23u, (uint16)(uint32)(0u), (uint16)(CYDEV_UCFG_B1_P5_ROUTE_BASE + 0x00000080u) }
 466:Generated_Source\PSoC5/cyfitter_cfg.c **** 		{ 128u, 0x37u, 0x23u, (uint16)(uint32)(0u), (uint16)(CYDEV_UCFG_B1_P4_ROUTE_BASE) },	/* TD 54 */
 467:Generated_Source\PSoC5/cyfitter_cfg.c **** 		{ 128u, 0x38u, 0x23u, (uint16)(uint32)(0u), (uint16)(CYDEV_UCFG_B1_P4_ROUTE_BASE + 0x00000080u) }
 468:Generated_Source\PSoC5/cyfitter_cfg.c **** 		{ 128u, 0x39u, 0x23u, (uint16)(uint32)(0u), (uint16)(CYDEV_UCFG_B1_P3_ROUTE_BASE) },	/* TD 56 */
 469:Generated_Source\PSoC5/cyfitter_cfg.c **** 		{ 128u, 0x3Au, 0x23u, (uint16)(uint32)(0u), (uint16)(CYDEV_UCFG_B1_P3_ROUTE_BASE + 0x00000080u) }
 470:Generated_Source\PSoC5/cyfitter_cfg.c **** 		{ 128u, 0x3Bu, 0x23u, (uint16)(uint32)(0u), (uint16)(CYDEV_UCFG_B0_P4_ROUTE_BASE) },	/* TD 58 */
 471:Generated_Source\PSoC5/cyfitter_cfg.c **** 		{ 128u, 0x3Cu, 0x23u, (uint16)(uint32)(0u), (uint16)(CYDEV_UCFG_B0_P4_ROUTE_BASE + 0x00000080u) }
 472:Generated_Source\PSoC5/cyfitter_cfg.c **** 		{ 128u, 0x3Du, 0x23u, (uint16)(uint32)(0u), (uint16)(CYDEV_UCFG_B0_P3_ROUTE_BASE + 0x00000080u) }
 473:Generated_Source\PSoC5/cyfitter_cfg.c **** 		{ 128u, 0x3Eu, 0x23u, (uint16)(uint32)(0u), (uint16)(CYDEV_UCFG_B0_P5_ROUTE_BASE) },	/* TD 61 */
 474:Generated_Source\PSoC5/cyfitter_cfg.c **** 		{ 128u, 0x3Fu, 0x23u, (uint16)(uint32)(0u), (uint16)(CYDEV_UCFG_B0_P5_ROUTE_BASE + 0x00000080u) }
 475:Generated_Source\PSoC5/cyfitter_cfg.c **** 		{ 128u, 0x40u, 0x23u, (uint16)(uint32)(0u), (uint16)(CYDEV_UCFG_B0_P2_ROUTE_BASE + 0x00000080u) }
 476:Generated_Source\PSoC5/cyfitter_cfg.c **** 		{ 128u, 0x41u, 0x23u, (uint16)(uint32)(0u), (uint16)(CYDEV_UCFG_B0_P6_ROUTE_BASE) },	/* TD 64 */
 477:Generated_Source\PSoC5/cyfitter_cfg.c **** 		{ 128u, 0x42u, 0x23u, (uint16)(uint32)(0u), (uint16)(CYDEV_UCFG_B0_P6_ROUTE_BASE + 0x00000080u) }
 478:Generated_Source\PSoC5/cyfitter_cfg.c **** 		{ 128u, 0x43u, 0x23u, (uint16)(uint32)(0u), (uint16)(CYDEV_UCFG_B0_P1_ROUTE_BASE + 0x00000080u) }
 479:Generated_Source\PSoC5/cyfitter_cfg.c **** 		{ 128u, 0x44u, 0x23u, (uint16)(uint32)(0u), (uint16)(CYDEV_UCFG_DSI8_BASE) },	/* TD 67 */
 480:Generated_Source\PSoC5/cyfitter_cfg.c **** 		{ 128u, 0x45u, 0x23u, (uint16)(uint32)(0u), (uint16)(CYDEV_UCFG_DSI8_BASE + 0x00000080u) },	/* TD
 481:Generated_Source\PSoC5/cyfitter_cfg.c **** 		{ 128u, 0x46u, 0x23u, (uint16)(uint32)(0u), (uint16)(CYDEV_UCFG_DSI3_BASE + 0x00000080u) },	/* TD
 482:Generated_Source\PSoC5/cyfitter_cfg.c **** 		{ 128u, 0x47u, 0x23u, (uint16)(uint32)(0u), (uint16)(CYDEV_UCFG_DSI1_BASE + 0x00000080u) },	/* TD
 483:Generated_Source\PSoC5/cyfitter_cfg.c **** 		{ 128u, 0x48u, 0x23u, (uint16)(uint32)(0u), (uint16)(CYDEV_UCFG_DSI0_BASE) },	/* TD 71 */
ARM GAS  C:\Users\JEFFSN~1\AppData\Local\Temp\cc9h98U0.s 			page 20


 484:Generated_Source\PSoC5/cyfitter_cfg.c **** 		{ 128u, 0xFEu, 0x23u, (uint16)(uint32)(0u), (uint16)(CYDEV_UCFG_DSI0_BASE + 0x00000080u) },	/* TD
 485:Generated_Source\PSoC5/cyfitter_cfg.c **** 	};
 486:Generated_Source\PSoC5/cyfitter_cfg.c **** 
 487:Generated_Source\PSoC5/cyfitter_cfg.c **** 	/* Source addresses can be relocated, but only when in 32bit addresses.
 488:Generated_Source\PSoC5/cyfitter_cfg.c **** 	   Because the standard TD table only has 16bit addresses, we generate a
 489:Generated_Source\PSoC5/cyfitter_cfg.c **** 	   separate table for the source addresses that does use 32bit addresses. This
 490:Generated_Source\PSoC5/cyfitter_cfg.c **** 	   table will be re-merged with the corresponding CFG_TD_LIST table during
 491:Generated_Source\PSoC5/cyfitter_cfg.c **** 	   initialization. */
 492:Generated_Source\PSoC5/cyfitter_cfg.c **** 	static const void * const CFG_TD_ADDR0[] = {
 493:Generated_Source\PSoC5/cyfitter_cfg.c **** 		(const void *)(CH1_ADDR_DATA0),	/* TD 1 */
 494:Generated_Source\PSoC5/cyfitter_cfg.c **** 		(const void *)(CH2_ADDR_DATA0),	/* TD 2 */
 495:Generated_Source\PSoC5/cyfitter_cfg.c **** 		(const void *)(CH5_ADDR_DATA0),	/* TD 3 */
 496:Generated_Source\PSoC5/cyfitter_cfg.c **** 		(const void *)(CH6_ADDR_DATA0),	/* TD 4 */
 497:Generated_Source\PSoC5/cyfitter_cfg.c **** 		(const void *)(DMA_TD_START_CMD),	/* TD 5 */
 498:Generated_Source\PSoC5/cyfitter_cfg.c **** 		(const void *)(DMA_TD_START_CMD),	/* TD 6 */
 499:Generated_Source\PSoC5/cyfitter_cfg.c **** 		(const void *)(DMA_TD_START_CMD),	/* TD 7 */
 500:Generated_Source\PSoC5/cyfitter_cfg.c **** 		(const void *)(DMA_TD_START_CMD),	/* TD 8 */
 501:Generated_Source\PSoC5/cyfitter_cfg.c **** 		(const void *)(&DMA_ZERO_VAL),	/* TD 9 */
 502:Generated_Source\PSoC5/cyfitter_cfg.c **** 		(const void *)(&DMA_ZERO_VAL),	/* TD 10 */
 503:Generated_Source\PSoC5/cyfitter_cfg.c **** 		(const void *)(&DMA_ZERO_VAL),	/* TD 11 */
 504:Generated_Source\PSoC5/cyfitter_cfg.c **** 		(const void *)(&DMA_ZERO_VAL),	/* TD 12 */
 505:Generated_Source\PSoC5/cyfitter_cfg.c **** 		(const void *)(&DMA_ZERO_VAL),	/* TD 13 */
 506:Generated_Source\PSoC5/cyfitter_cfg.c **** 		(const void *)(&DMA_ZERO_VAL),	/* TD 14 */
 507:Generated_Source\PSoC5/cyfitter_cfg.c **** 		(const void *)(&DMA_ZERO_VAL),	/* TD 15 */
 508:Generated_Source\PSoC5/cyfitter_cfg.c **** 		(const void *)(&DMA_ZERO_VAL),	/* TD 16 */
 509:Generated_Source\PSoC5/cyfitter_cfg.c **** 		(const void *)(&DMA_ZERO_VAL),	/* TD 17 */
 510:Generated_Source\PSoC5/cyfitter_cfg.c **** 		(const void *)(&DMA_ZERO_VAL),	/* TD 18 */
 511:Generated_Source\PSoC5/cyfitter_cfg.c **** 		(const void *)(&DMA_ZERO_VAL),	/* TD 19 */
 512:Generated_Source\PSoC5/cyfitter_cfg.c **** 		(const void *)(BS_IOPORT_1_VAL),	/* TD 20 */
 513:Generated_Source\PSoC5/cyfitter_cfg.c **** 		(const void *)(BS_IOPORT_2_VAL),	/* TD 21 */
 514:Generated_Source\PSoC5/cyfitter_cfg.c **** 		(const void *)(BS_IOPORT_5_VAL),	/* TD 22 */
 515:Generated_Source\PSoC5/cyfitter_cfg.c **** 		(const void *)(BS_IOPORT_6_VAL),	/* TD 23 */
 516:Generated_Source\PSoC5/cyfitter_cfg.c **** 		(const void *)(BS_UWRK_B0_WRK_DP_BITS_VAL),	/* TD 24 */
 517:Generated_Source\PSoC5/cyfitter_cfg.c **** 		(const void *)(BS_UWRK_B0_WRK_STATCTL_BITS_VAL),	/* TD 25 */
 518:Generated_Source\PSoC5/cyfitter_cfg.c **** 		(const void *)(BS_UWRK_B1_WRK_DP_BITS_VAL),	/* TD 26 */
 519:Generated_Source\PSoC5/cyfitter_cfg.c **** 		(const void *)(BS_UWRK_B1_WRK_STATCTL_BITS_VAL),	/* TD 27 */
 520:Generated_Source\PSoC5/cyfitter_cfg.c **** 		(const void *)(BS_IDMUX_IRQ_VAL),	/* TD 28 */
 521:Generated_Source\PSoC5/cyfitter_cfg.c **** 		(const void *)(BS_UDB_0_2_1_CONFIG_VAL),	/* TD 29 */
 522:Generated_Source\PSoC5/cyfitter_cfg.c **** 		(const void *)(BS_UDB_0_2_0_CONFIG_VAL),	/* TD 30 */
 523:Generated_Source\PSoC5/cyfitter_cfg.c **** 		(const void *)(BS_UDB_0_3_0_CONFIG_VAL),	/* TD 31 */
 524:Generated_Source\PSoC5/cyfitter_cfg.c **** 		(const void *)(BS_UDB_0_3_1_CONFIG_VAL),	/* TD 32 */
 525:Generated_Source\PSoC5/cyfitter_cfg.c **** 		(const void *)(BS_UDB_0_4_1_CONFIG_VAL),	/* TD 33 */
 526:Generated_Source\PSoC5/cyfitter_cfg.c **** 		(const void *)(BS_UDB_0_4_0_CONFIG_VAL),	/* TD 34 */
 527:Generated_Source\PSoC5/cyfitter_cfg.c **** 		(const void *)(BS_UDB_1_1_0_CONFIG_VAL),	/* TD 35 */
 528:Generated_Source\PSoC5/cyfitter_cfg.c **** 		(const void *)(BS_UDB_0_1_1_CONFIG_VAL),	/* TD 36 */
 529:Generated_Source\PSoC5/cyfitter_cfg.c **** 		(const void *)(BS_UDB_0_1_0_CONFIG_VAL),	/* TD 37 */
 530:Generated_Source\PSoC5/cyfitter_cfg.c **** 		(const void *)(BS_UDB_0_0_0_CONFIG_VAL),	/* TD 38 */
 531:Generated_Source\PSoC5/cyfitter_cfg.c **** 		(const void *)(BS_UDB_0_0_1_CONFIG_VAL),	/* TD 39 */
 532:Generated_Source\PSoC5/cyfitter_cfg.c **** 		(const void *)(BS_UCFG_BCTL1_VAL),	/* TD 40 */
 533:Generated_Source\PSoC5/cyfitter_cfg.c **** 		(const void *)(BS_UCFG_BCTL0_VAL),	/* TD 41 */
 534:Generated_Source\PSoC5/cyfitter_cfg.c **** 		(const void *)(BS_DSISWITCH_0_0_VAL),	/* TD 42 */
 535:Generated_Source\PSoC5/cyfitter_cfg.c **** 		(const void *)(BS_DSI0_0_HV_ROUTING_VAL),	/* TD 43 */
 536:Generated_Source\PSoC5/cyfitter_cfg.c **** 		(const void *)(BS_DSISWITCH_0_1_VAL),	/* TD 44 */
 537:Generated_Source\PSoC5/cyfitter_cfg.c **** 		(const void *)(BS_DSI0_1_HV_ROUTING_VAL),	/* TD 45 */
 538:Generated_Source\PSoC5/cyfitter_cfg.c **** 		(const void *)(BS_DSI0_2_HV_ROUTING_VAL),	/* TD 46 */
 539:Generated_Source\PSoC5/cyfitter_cfg.c **** 		(const void *)(BS_DSISWITCH_0_3_VAL),	/* TD 47 */
 540:Generated_Source\PSoC5/cyfitter_cfg.c **** 		(const void *)(BS_DSI0_3_HV_ROUTING_VAL),	/* TD 48 */
ARM GAS  C:\Users\JEFFSN~1\AppData\Local\Temp\cc9h98U0.s 			page 21


 541:Generated_Source\PSoC5/cyfitter_cfg.c **** 		(const void *)(BS_DSI0_4_HV_ROUTING_VAL),	/* TD 49 */
 542:Generated_Source\PSoC5/cyfitter_cfg.c **** 		(const void *)(BS_DSISWITCH_0_5_VAL),	/* TD 50 */
 543:Generated_Source\PSoC5/cyfitter_cfg.c **** 		(const void *)(BS_DSI0_5_HV_ROUTING_VAL),	/* TD 51 */
 544:Generated_Source\PSoC5/cyfitter_cfg.c **** 		(const void *)(BS_UDBSWITCH_0_0_VAL),	/* TD 52 */
 545:Generated_Source\PSoC5/cyfitter_cfg.c **** 		(const void *)(BS_UDB_1_0_HV_ROUTING_VAL),	/* TD 53 */
 546:Generated_Source\PSoC5/cyfitter_cfg.c **** 		(const void *)(BS_UDBSWITCH_0_1_VAL),	/* TD 54 */
 547:Generated_Source\PSoC5/cyfitter_cfg.c **** 		(const void *)(BS_UDB_1_1_HV_ROUTING_VAL),	/* TD 55 */
 548:Generated_Source\PSoC5/cyfitter_cfg.c **** 		(const void *)(BS_UDBSWITCH_1_1_VAL),	/* TD 56 */
 549:Generated_Source\PSoC5/cyfitter_cfg.c **** 		(const void *)(BS_UDB_2_1_HV_ROUTING_VAL),	/* TD 57 */
 550:Generated_Source\PSoC5/cyfitter_cfg.c **** 		(const void *)(BS_UDBSWITCH_0_2_VAL),	/* TD 58 */
 551:Generated_Source\PSoC5/cyfitter_cfg.c **** 		(const void *)(BS_UDB_1_2_HV_ROUTING_VAL),	/* TD 59 */
 552:Generated_Source\PSoC5/cyfitter_cfg.c **** 		(const void *)(BS_UDB_2_2_HV_ROUTING_VAL),	/* TD 60 */
 553:Generated_Source\PSoC5/cyfitter_cfg.c **** 		(const void *)(BS_UDBSWITCH_0_3_VAL),	/* TD 61 */
 554:Generated_Source\PSoC5/cyfitter_cfg.c **** 		(const void *)(BS_UDB_1_3_HV_ROUTING_VAL),	/* TD 62 */
 555:Generated_Source\PSoC5/cyfitter_cfg.c **** 		(const void *)(BS_UDB_2_3_HV_ROUTING_VAL),	/* TD 63 */
 556:Generated_Source\PSoC5/cyfitter_cfg.c **** 		(const void *)(BS_UDBSWITCH_0_4_VAL),	/* TD 64 */
 557:Generated_Source\PSoC5/cyfitter_cfg.c **** 		(const void *)(BS_UDB_1_4_HV_ROUTING_VAL),	/* TD 65 */
 558:Generated_Source\PSoC5/cyfitter_cfg.c **** 		(const void *)(BS_UDB_2_4_HV_ROUTING_VAL),	/* TD 66 */
 559:Generated_Source\PSoC5/cyfitter_cfg.c **** 		(const void *)(BS_DSISWITCH_1_1_VAL),	/* TD 67 */
 560:Generated_Source\PSoC5/cyfitter_cfg.c **** 		(const void *)(BS_DSI3_1_HV_ROUTING_VAL),	/* TD 68 */
 561:Generated_Source\PSoC5/cyfitter_cfg.c **** 		(const void *)(BS_DSI3_2_HV_ROUTING_VAL),	/* TD 69 */
 562:Generated_Source\PSoC5/cyfitter_cfg.c **** 		(const void *)(BS_DSI3_4_HV_ROUTING_VAL),	/* TD 70 */
 563:Generated_Source\PSoC5/cyfitter_cfg.c **** 		(const void *)(BS_DSISWITCH_1_5_VAL),	/* TD 71 */
 564:Generated_Source\PSoC5/cyfitter_cfg.c **** 		(const void *)(BS_DSI3_5_HV_ROUTING_VAL),	/* TD 72 */
 565:Generated_Source\PSoC5/cyfitter_cfg.c **** 	};
 566:Generated_Source\PSoC5/cyfitter_cfg.c **** 
 567:Generated_Source\PSoC5/cyfitter_cfg.c **** 
 568:Generated_Source\PSoC5/cyfitter_cfg.c **** 	uint32 i;
 569:Generated_Source\PSoC5/cyfitter_cfg.c **** 
 570:Generated_Source\PSoC5/cyfitter_cfg.c **** 	DMA_ZERO_VAL = 0u;
 601              		.loc 1 570 0
 602 0006 434B     		ldr	r3, .L15
 603 0008 0022     		movs	r2, #0
 604 000a 1A60     		str	r2, [r3]
 571:Generated_Source\PSoC5/cyfitter_cfg.c **** 	CY_SET_REG8((void CYXDATA *)CYREG_PHUB_CFGMEM0_CFG0, 0x10u);	/* set burstcnt */
 605              		.loc 1 571 0
 606 000c 424B     		ldr	r3, .L15+4
 607 000e 1022     		movs	r2, #16
 608 0010 1A70     		strb	r2, [r3]
 572:Generated_Source\PSoC5/cyfitter_cfg.c **** 	CY_SET_REG8((void CYXDATA *)CYREG_PHUB_CH0_BASIC_CFG, 0x01u);	/* enable ch0 */
 609              		.loc 1 572 0
 610 0012 424B     		ldr	r3, .L15+8
 611 0014 0122     		movs	r2, #1
 612 0016 1A70     		strb	r2, [r3]
 573:Generated_Source\PSoC5/cyfitter_cfg.c **** 	CY_SET_REG8((void CYXDATA *)(CYREG_PHUB_CH0_BASIC_STATUS+1u), 0x00u);	/* set first TD to 0 */
 613              		.loc 1 573 0
 614 0018 414B     		ldr	r3, .L15+12
 615 001a 0022     		movs	r2, #0
 616 001c 1A70     		strb	r2, [r3]
 574:Generated_Source\PSoC5/cyfitter_cfg.c **** 	CY_SET_REG16((void CYXDATA *)CYREG_PHUB_TDMEM0_ORIG_TD0, 72u*8u);	/* transfer size */
 617              		.loc 1 574 0
 618 001e 414B     		ldr	r3, .L15+16
 619 0020 4FF41072 		mov	r2, #576
 620 0024 1A80     		strh	r2, [r3]	@ movhi
 575:Generated_Source\PSoC5/cyfitter_cfg.c **** 	CY_SET_REG8((void CYXDATA *)(CYREG_PHUB_TDMEM0_ORIG_TD0+2u), 0x01u);	/* set next TD to 1 */
 621              		.loc 1 575 0
 622 0026 404B     		ldr	r3, .L15+20
ARM GAS  C:\Users\JEFFSN~1\AppData\Local\Temp\cc9h98U0.s 			page 22


 623 0028 0122     		movs	r2, #1
 624 002a 1A70     		strb	r2, [r3]
 576:Generated_Source\PSoC5/cyfitter_cfg.c **** 	CY_SET_REG8((void CYXDATA *)(CYREG_PHUB_TDMEM0_ORIG_TD0+3u), 0x03u);	/* set TD flags */
 625              		.loc 1 576 0
 626 002c 3F4B     		ldr	r3, .L15+24
 627 002e 0322     		movs	r2, #3
 628 0030 1A70     		strb	r2, [r3]
 577:Generated_Source\PSoC5/cyfitter_cfg.c **** 	CY_SET_REG16((void CYXDATA *)CYREG_PHUB_TDMEM0_ORIG_TD1, (uint16)((uint32)CFG_TD_LIST0 & 0x0000FFF
 629              		.loc 1 577 0
 630 0032 3F4B     		ldr	r3, .L15+28
 631 0034 3F4A     		ldr	r2, .L15+32
 632 0036 92B2     		uxth	r2, r2
 633 0038 1A80     		strh	r2, [r3]	@ movhi
 578:Generated_Source\PSoC5/cyfitter_cfg.c **** 	CY_SET_REG16((void CYXDATA *)(CYREG_PHUB_TDMEM0_ORIG_TD1+2u), CYDEV_PHUB_TDMEM1_BASE);	/* set td0'
 634              		.loc 1 578 0
 635 003a 3F4B     		ldr	r3, .L15+36
 636 003c 47F60802 		movw	r2, #30728
 637 0040 1A80     		strh	r2, [r3]	@ movhi
 579:Generated_Source\PSoC5/cyfitter_cfg.c **** 	CY_SET_REG16((void CYXDATA *)CYREG_PHUB_CFGMEM0_CFG1, (uint16)(CYDEV_FLASH_BASE >> 16));	/* set ch
 638              		.loc 1 579 0
 639 0042 3E4B     		ldr	r3, .L15+40
 640 0044 0022     		movs	r2, #0
 641 0046 1A80     		strh	r2, [r3]	@ movhi
 580:Generated_Source\PSoC5/cyfitter_cfg.c **** 	CY_SET_REG16((void CYXDATA *)(CYREG_PHUB_CFGMEM0_CFG1+2u), (uint16)(CYDEV_PHUB_TDMEM1_BASE >> 16))
 642              		.loc 1 580 0
 643 0048 3D4B     		ldr	r3, .L15+44
 644 004a 4FF48042 		mov	r2, #16384
 645 004e 1A80     		strh	r2, [r3]	@ movhi
 581:Generated_Source\PSoC5/cyfitter_cfg.c **** 	CY_SET_REG8((void CYXDATA *)(CYREG_PHUB_CH1_BASIC_STATUS+1u), 0x09u);	/* ch1 first TD: 9 */
 646              		.loc 1 581 0
 647 0050 3C4B     		ldr	r3, .L15+48
 648 0052 0922     		movs	r2, #9
 649 0054 1A70     		strb	r2, [r3]
 582:Generated_Source\PSoC5/cyfitter_cfg.c **** 	CY_SET_REG8((void CYXDATA *)(CYREG_PHUB_CH2_BASIC_STATUS+1u), 0x0Au);	/* ch2 first TD: 10 */
 650              		.loc 1 582 0
 651 0056 3C4B     		ldr	r3, .L15+52
 652 0058 0A22     		movs	r2, #10
 653 005a 1A70     		strb	r2, [r3]
 583:Generated_Source\PSoC5/cyfitter_cfg.c **** 	CY_SET_REG8((void CYXDATA *)(CYREG_PHUB_CH5_BASIC_STATUS+1u), 0x14u);	/* ch5 first TD: 20 */
 654              		.loc 1 583 0
 655 005c 3B4B     		ldr	r3, .L15+56
 656 005e 1422     		movs	r2, #20
 657 0060 1A70     		strb	r2, [r3]
 584:Generated_Source\PSoC5/cyfitter_cfg.c **** 	CY_SET_REG8((void CYXDATA *)(CYREG_PHUB_CH6_BASIC_STATUS+1u), 0x1Cu);	/* ch6 first TD: 28 */
 658              		.loc 1 584 0
 659 0062 3B4B     		ldr	r3, .L15+60
 660 0064 1C22     		movs	r2, #28
 661 0066 1A70     		strb	r2, [r3]
 585:Generated_Source\PSoC5/cyfitter_cfg.c **** 
 586:Generated_Source\PSoC5/cyfitter_cfg.c **** 	CY_CFG_MEMORY_BARRIER();
 662              		.loc 1 586 0
 663 0068 BFF35F8F 		dmb	sy
 587:Generated_Source\PSoC5/cyfitter_cfg.c **** 	CY_SET_REG8((void CYXDATA *)CYREG_PHUB_CH0_ACTION, 0x01u); /* cpu_req */
 664              		.loc 1 587 0
 665 006c 394B     		ldr	r3, .L15+64
 666 006e 0122     		movs	r2, #1
 667 0070 1A70     		strb	r2, [r3]
ARM GAS  C:\Users\JEFFSN~1\AppData\Local\Temp\cc9h98U0.s 			page 23


 588:Generated_Source\PSoC5/cyfitter_cfg.c **** 	CY_CFG_MEMORY_BARRIER();
 668              		.loc 1 588 0
 669 0072 BFF35F8F 		dmb	sy
 589:Generated_Source\PSoC5/cyfitter_cfg.c **** 
 590:Generated_Source\PSoC5/cyfitter_cfg.c **** 	/* Wait for TDs to be copied into TDMEM */
 591:Generated_Source\PSoC5/cyfitter_cfg.c **** 	while (CY_GET_REG16((void CYXDATA *)CYREG_PHUB_TDMEM0_ORIG_TD0) != 0u) { }
 670              		.loc 1 591 0
 671 0076 00BF     		nop
 672              	.L7:
 673              		.loc 1 591 0 is_stmt 0 discriminator 1
 674 0078 2A4B     		ldr	r3, .L15+16
 675 007a 1B88     		ldrh	r3, [r3]	@ movhi
 676 007c 9BB2     		uxth	r3, r3
 677 007e 002B     		cmp	r3, #0
 678 0080 FAD1     		bne	.L7
 592:Generated_Source\PSoC5/cyfitter_cfg.c **** 
 593:Generated_Source\PSoC5/cyfitter_cfg.c **** 	/* Recombine TD source table (CFG_TD_ADDR0) with full TD table (CFG_TD_LIST0) */
 594:Generated_Source\PSoC5/cyfitter_cfg.c **** 	for (i = 0u; i < 72u; i++)
 679              		.loc 1 594 0 is_stmt 1
 680 0082 0023     		movs	r3, #0
 681 0084 7B60     		str	r3, [r7, #4]
 682 0086 0DE0     		b	.L8
 683              	.L9:
 595:Generated_Source\PSoC5/cyfitter_cfg.c **** 	{
 596:Generated_Source\PSoC5/cyfitter_cfg.c **** 		CY_SET_REG16((void CYXDATA *)(CYREG_PHUB_TDMEM1_ORIG_TD1 + (sizeof(struct td_t)*i)), (uint16)(uin
 684              		.loc 1 596 0 discriminator 3
 685 0088 7B68     		ldr	r3, [r7, #4]
 686 008a DA00     		lsls	r2, r3, #3
 687 008c 324B     		ldr	r3, .L15+68
 688 008e 1344     		add	r3, r3, r2
 689 0090 1946     		mov	r1, r3
 690 0092 324A     		ldr	r2, .L15+72
 691 0094 7B68     		ldr	r3, [r7, #4]
 692 0096 52F82330 		ldr	r3, [r2, r3, lsl #2]
 693 009a 9BB2     		uxth	r3, r3
 694 009c 0B80     		strh	r3, [r1]	@ movhi
 594:Generated_Source\PSoC5/cyfitter_cfg.c **** 	{
 695              		.loc 1 594 0 discriminator 3
 696 009e 7B68     		ldr	r3, [r7, #4]
 697 00a0 0133     		adds	r3, r3, #1
 698 00a2 7B60     		str	r3, [r7, #4]
 699              	.L8:
 594:Generated_Source\PSoC5/cyfitter_cfg.c **** 	{
 700              		.loc 1 594 0 is_stmt 0 discriminator 1
 701 00a4 7B68     		ldr	r3, [r7, #4]
 702 00a6 472B     		cmp	r3, #71
 703 00a8 EED9     		bls	.L9
 597:Generated_Source\PSoC5/cyfitter_cfg.c **** 	}
 598:Generated_Source\PSoC5/cyfitter_cfg.c **** 
 599:Generated_Source\PSoC5/cyfitter_cfg.c **** 	CY_CFG_MEMORY_BARRIER();
 704              		.loc 1 599 0 is_stmt 1
 705 00aa BFF35F8F 		dmb	sy
 600:Generated_Source\PSoC5/cyfitter_cfg.c **** 	CY_SET_REG8((void CYXDATA *)CYREG_PHUB_CH0_ACTION, 0x01u); /* cpu_req */
 706              		.loc 1 600 0
 707 00ae 294B     		ldr	r3, .L15+64
 708 00b0 0122     		movs	r2, #1
 709 00b2 1A70     		strb	r2, [r3]
ARM GAS  C:\Users\JEFFSN~1\AppData\Local\Temp\cc9h98U0.s 			page 24


 601:Generated_Source\PSoC5/cyfitter_cfg.c **** 	CY_CFG_MEMORY_BARRIER();
 710              		.loc 1 601 0
 711 00b4 BFF35F8F 		dmb	sy
 602:Generated_Source\PSoC5/cyfitter_cfg.c **** 
 603:Generated_Source\PSoC5/cyfitter_cfg.c **** 	/* Wait for all DMA transfers to complete */
 604:Generated_Source\PSoC5/cyfitter_cfg.c **** 	while(0u != (CY_GET_REG8((void CYXDATA *)CYREG_PHUB_CH0_BASIC_STATUS) & 0x01u)){}
 712              		.loc 1 604 0
 713 00b8 00BF     		nop
 714              	.L10:
 715              		.loc 1 604 0 is_stmt 0 discriminator 1
 716 00ba 294B     		ldr	r3, .L15+76
 717 00bc 1B78     		ldrb	r3, [r3]
 718 00be DBB2     		uxtb	r3, r3
 719 00c0 03F00103 		and	r3, r3, #1
 720 00c4 002B     		cmp	r3, #0
 721 00c6 F8D1     		bne	.L10
 605:Generated_Source\PSoC5/cyfitter_cfg.c **** 	while(0u != (CY_GET_REG8((void CYXDATA *)CYREG_PHUB_CH1_BASIC_STATUS) & 0x01u)){}
 722              		.loc 1 605 0 is_stmt 1
 723 00c8 00BF     		nop
 724              	.L11:
 725              		.loc 1 605 0 is_stmt 0 discriminator 1
 726 00ca 264B     		ldr	r3, .L15+80
 727 00cc 1B78     		ldrb	r3, [r3]
 728 00ce DBB2     		uxtb	r3, r3
 729 00d0 03F00103 		and	r3, r3, #1
 730 00d4 002B     		cmp	r3, #0
 731 00d6 F8D1     		bne	.L11
 606:Generated_Source\PSoC5/cyfitter_cfg.c **** 	while(0u != (CY_GET_REG8((void CYXDATA *)CYREG_PHUB_CH2_BASIC_STATUS) & 0x01u)){}
 732              		.loc 1 606 0 is_stmt 1
 733 00d8 00BF     		nop
 734              	.L12:
 735              		.loc 1 606 0 is_stmt 0 discriminator 1
 736 00da 234B     		ldr	r3, .L15+84
 737 00dc 1B78     		ldrb	r3, [r3]
 738 00de DBB2     		uxtb	r3, r3
 739 00e0 03F00103 		and	r3, r3, #1
 740 00e4 002B     		cmp	r3, #0
 741 00e6 F8D1     		bne	.L12
 607:Generated_Source\PSoC5/cyfitter_cfg.c **** 	while(0u != (CY_GET_REG8((void CYXDATA *)CYREG_PHUB_CH5_BASIC_STATUS) & 0x01u)){}
 742              		.loc 1 607 0 is_stmt 1
 743 00e8 00BF     		nop
 744              	.L13:
 745              		.loc 1 607 0 is_stmt 0 discriminator 1
 746 00ea 204B     		ldr	r3, .L15+88
 747 00ec 1B78     		ldrb	r3, [r3]
 748 00ee DBB2     		uxtb	r3, r3
 749 00f0 03F00103 		and	r3, r3, #1
 750 00f4 002B     		cmp	r3, #0
 751 00f6 F8D1     		bne	.L13
 608:Generated_Source\PSoC5/cyfitter_cfg.c **** 	while(0u != (CY_GET_REG8((void CYXDATA *)CYREG_PHUB_CH6_BASIC_STATUS) & 0x01u)){}
 752              		.loc 1 608 0 is_stmt 1
 753 00f8 00BF     		nop
 754              	.L14:
 755              		.loc 1 608 0 is_stmt 0 discriminator 1
 756 00fa 1D4B     		ldr	r3, .L15+92
 757 00fc 1B78     		ldrb	r3, [r3]
 758 00fe DBB2     		uxtb	r3, r3
ARM GAS  C:\Users\JEFFSN~1\AppData\Local\Temp\cc9h98U0.s 			page 25


 759 0100 03F00103 		and	r3, r3, #1
 760 0104 002B     		cmp	r3, #0
 761 0106 F8D1     		bne	.L14
 609:Generated_Source\PSoC5/cyfitter_cfg.c **** 
 610:Generated_Source\PSoC5/cyfitter_cfg.c **** 
 611:Generated_Source\PSoC5/cyfitter_cfg.c **** }
 762              		.loc 1 611 0 is_stmt 1
 763 0108 00BF     		nop
 764 010a 0C37     		adds	r7, r7, #12
 765              		.cfi_def_cfa_offset 4
 766 010c BD46     		mov	sp, r7
 767              		.cfi_def_cfa_register 13
 768              		@ sp needed
 769 010e 80BC     		pop	{r7}
 770              		.cfi_restore 7
 771              		.cfi_def_cfa_offset 0
 772 0110 7047     		bx	lr
 773              	.L16:
 774 0112 00BF     		.align	2
 775              	.L15:
 776 0114 08000000 		.word	DMA_ZERO_VAL.4997
 777 0118 00760040 		.word	1073772032
 778 011c 10700040 		.word	1073770512
 779 0120 19700040 		.word	1073770521
 780 0124 00780040 		.word	1073772544
 781 0128 02780040 		.word	1073772546
 782 012c 03780040 		.word	1073772547
 783 0130 04780040 		.word	1073772548
 784 0134 28000000 		.word	CFG_TD_LIST0.4998
 785 0138 06780040 		.word	1073772550
 786 013c 04760040 		.word	1073772036
 787 0140 06760040 		.word	1073772038
 788 0144 29700040 		.word	1073770537
 789 0148 39700040 		.word	1073770553
 790 014c 69700040 		.word	1073770601
 791 0150 79700040 		.word	1073770617
 792 0154 14700040 		.word	1073770516
 793 0158 0C780040 		.word	1073772556
 794 015c B0000000 		.word	CFG_TD_ADDR0.4999
 795 0160 18700040 		.word	1073770520
 796 0164 28700040 		.word	1073770536
 797 0168 38700040 		.word	1073770552
 798 016c 68700040 		.word	1073770600
 799 0170 78700040 		.word	1073770616
 800              		.cfi_endproc
 801              	.LFE4:
 802              		.size	cfg_dma_init, .-cfg_dma_init
 803              		.section	.text.ClockSetup,"ax",%progbits
 804              		.align	2
 805              		.thumb
 806              		.thumb_func
 807              		.type	ClockSetup, %function
 808              	ClockSetup:
 809              	.LFB5:
 612:Generated_Source\PSoC5/cyfitter_cfg.c **** /*******************************************************************************
 613:Generated_Source\PSoC5/cyfitter_cfg.c **** * Function Name: ClockSetup
 614:Generated_Source\PSoC5/cyfitter_cfg.c **** ********************************************************************************
ARM GAS  C:\Users\JEFFSN~1\AppData\Local\Temp\cc9h98U0.s 			page 26


 615:Generated_Source\PSoC5/cyfitter_cfg.c **** *
 616:Generated_Source\PSoC5/cyfitter_cfg.c **** * Summary:
 617:Generated_Source\PSoC5/cyfitter_cfg.c **** *  Performs the initialization of all of the clocks in the device based on the
 618:Generated_Source\PSoC5/cyfitter_cfg.c **** *  settings in the Clock tab of the DWR.  This includes enabling the requested
 619:Generated_Source\PSoC5/cyfitter_cfg.c **** *  clocks and setting the necessary dividers to produce the desired frequency. 
 620:Generated_Source\PSoC5/cyfitter_cfg.c **** *
 621:Generated_Source\PSoC5/cyfitter_cfg.c **** * Parameters:
 622:Generated_Source\PSoC5/cyfitter_cfg.c **** *  void
 623:Generated_Source\PSoC5/cyfitter_cfg.c **** *
 624:Generated_Source\PSoC5/cyfitter_cfg.c **** * Return:
 625:Generated_Source\PSoC5/cyfitter_cfg.c **** *  void
 626:Generated_Source\PSoC5/cyfitter_cfg.c **** *
 627:Generated_Source\PSoC5/cyfitter_cfg.c **** *******************************************************************************/
 628:Generated_Source\PSoC5/cyfitter_cfg.c **** static void ClockSetup(void);
 629:Generated_Source\PSoC5/cyfitter_cfg.c **** static void ClockSetup(void)
 630:Generated_Source\PSoC5/cyfitter_cfg.c **** {
 810              		.loc 1 630 0
 811              		.cfi_startproc
 812              		@ args = 0, pretend = 0, frame = 8
 813              		@ frame_needed = 1, uses_anonymous_args = 0
 814 0000 80B5     		push	{r7, lr}
 815              		.cfi_def_cfa_offset 8
 816              		.cfi_offset 7, -8
 817              		.cfi_offset 14, -4
 818 0002 82B0     		sub	sp, sp, #8
 819              		.cfi_def_cfa_offset 16
 820 0004 00AF     		add	r7, sp, #0
 821              		.cfi_def_cfa_register 7
 631:Generated_Source\PSoC5/cyfitter_cfg.c **** 	uint32 timeout;
 632:Generated_Source\PSoC5/cyfitter_cfg.c **** 	uint8 pllLock;
 633:Generated_Source\PSoC5/cyfitter_cfg.c **** 
 634:Generated_Source\PSoC5/cyfitter_cfg.c **** 
 635:Generated_Source\PSoC5/cyfitter_cfg.c **** 	/* Configure Digital Clocks based on settings from Clock DWR */
 636:Generated_Source\PSoC5/cyfitter_cfg.c **** 	CY_SET_XTND_REG16((void CYFAR *)(CYREG_CLKDIST_DCFG0_CFG0), 0x0000u);
 822              		.loc 1 636 0
 823 0006 454B     		ldr	r3, .L22
 824 0008 0022     		movs	r2, #0
 825 000a 1A80     		strh	r2, [r3]	@ movhi
 637:Generated_Source\PSoC5/cyfitter_cfg.c **** 	CY_SET_XTND_REG8((void CYFAR *)(CYREG_CLKDIST_DCFG0_CFG0 + 0x2u), 0x50u);
 826              		.loc 1 637 0
 827 000c 444B     		ldr	r3, .L22+4
 828 000e 5022     		movs	r2, #80
 829 0010 1A70     		strb	r2, [r3]
 638:Generated_Source\PSoC5/cyfitter_cfg.c **** 	CY_SET_XTND_REG16((void CYFAR *)(CYREG_CLKDIST_DCFG1_CFG0), 0x0000u);
 830              		.loc 1 638 0
 831 0012 444B     		ldr	r3, .L22+8
 832 0014 0022     		movs	r2, #0
 833 0016 1A80     		strh	r2, [r3]	@ movhi
 639:Generated_Source\PSoC5/cyfitter_cfg.c **** 	CY_SET_XTND_REG8((void CYFAR *)(CYREG_CLKDIST_DCFG1_CFG0 + 0x2u), 0x19u);
 834              		.loc 1 639 0
 835 0018 434B     		ldr	r3, .L22+12
 836 001a 1922     		movs	r2, #25
 837 001c 1A70     		strb	r2, [r3]
 640:Generated_Source\PSoC5/cyfitter_cfg.c **** 	CY_SET_XTND_REG16((void CYFAR *)(CYREG_CLKDIST_DCFG2_CFG0), 0x0026u);
 838              		.loc 1 640 0
 839 001e 434B     		ldr	r3, .L22+16
 840 0020 2622     		movs	r2, #38
ARM GAS  C:\Users\JEFFSN~1\AppData\Local\Temp\cc9h98U0.s 			page 27


 841 0022 1A80     		strh	r2, [r3]	@ movhi
 641:Generated_Source\PSoC5/cyfitter_cfg.c **** 	CY_SET_XTND_REG8((void CYFAR *)(CYREG_CLKDIST_DCFG2_CFG0 + 0x2u), 0x18u);
 842              		.loc 1 641 0
 843 0024 424B     		ldr	r3, .L22+20
 844 0026 1822     		movs	r2, #24
 845 0028 1A70     		strb	r2, [r3]
 642:Generated_Source\PSoC5/cyfitter_cfg.c **** 	CY_SET_XTND_REG16((void CYFAR *)(CYREG_CLKDIST_DCFG3_CFG0), 0x0026u);
 846              		.loc 1 642 0
 847 002a 424B     		ldr	r3, .L22+24
 848 002c 2622     		movs	r2, #38
 849 002e 1A80     		strh	r2, [r3]	@ movhi
 643:Generated_Source\PSoC5/cyfitter_cfg.c **** 	CY_SET_XTND_REG8((void CYFAR *)(CYREG_CLKDIST_DCFG3_CFG0 + 0x2u), 0x18u);
 850              		.loc 1 643 0
 851 0030 414B     		ldr	r3, .L22+28
 852 0032 1822     		movs	r2, #24
 853 0034 1A70     		strb	r2, [r3]
 644:Generated_Source\PSoC5/cyfitter_cfg.c **** 
 645:Generated_Source\PSoC5/cyfitter_cfg.c **** 	/* Configure Analog Clocks based on settings from Clock DWR */
 646:Generated_Source\PSoC5/cyfitter_cfg.c **** 	CYCONFIGCPY((void CYFAR *)(CYREG_CLKDIST_ACFG0_CFG0), (const void CYFAR *)(BS_CYDEV_CLKDIST_ACFG0_
 854              		.loc 1 646 0
 855 0036 0422     		movs	r2, #4
 856 0038 4049     		ldr	r1, .L22+32
 857 003a 4148     		ldr	r0, .L22+36
 858 003c FFF7FEFF 		bl	CYCONFIGCPY
 647:Generated_Source\PSoC5/cyfitter_cfg.c **** 
 648:Generated_Source\PSoC5/cyfitter_cfg.c **** 	/* Configure ILO based on settings from Clock DWR */
 649:Generated_Source\PSoC5/cyfitter_cfg.c **** 	CY_SET_XTND_REG8((void CYFAR *)(CYREG_SLOWCLK_ILO_CR0), 0x06u);
 859              		.loc 1 649 0
 860 0040 404B     		ldr	r3, .L22+40
 861 0042 0622     		movs	r2, #6
 862 0044 1A70     		strb	r2, [r3]
 650:Generated_Source\PSoC5/cyfitter_cfg.c **** 
 651:Generated_Source\PSoC5/cyfitter_cfg.c **** 	/* Configure IMO based on settings from Clock DWR */
 652:Generated_Source\PSoC5/cyfitter_cfg.c **** 	CY_SET_XTND_REG8((void CYFAR *)(CYREG_IMO_TR1), (CY_GET_XTND_REG8((void CYFAR *)CYREG_FLSHID_CUST_
 863              		.loc 1 652 0
 864 0046 404B     		ldr	r3, .L22+44
 865 0048 404A     		ldr	r2, .L22+48
 866 004a 1278     		ldrb	r2, [r2]
 867 004c D2B2     		uxtb	r2, r2
 868 004e 1A70     		strb	r2, [r3]
 653:Generated_Source\PSoC5/cyfitter_cfg.c **** 	CY_SET_XTND_REG8((void CYFAR *)(CYREG_FASTCLK_IMO_CR), 0x52u);
 869              		.loc 1 653 0
 870 0050 3F4B     		ldr	r3, .L22+52
 871 0052 5222     		movs	r2, #82
 872 0054 1A70     		strb	r2, [r3]
 654:Generated_Source\PSoC5/cyfitter_cfg.c **** 
 655:Generated_Source\PSoC5/cyfitter_cfg.c **** 	/* Configure PLL based on settings from Clock DWR */
 656:Generated_Source\PSoC5/cyfitter_cfg.c **** 	CY_SET_XTND_REG16((void CYFAR *)(CYREG_FASTCLK_PLL_P), 0x071Au);
 873              		.loc 1 656 0
 874 0056 3F4B     		ldr	r3, .L22+56
 875 0058 40F21A72 		movw	r2, #1818
 876 005c 1A80     		strh	r2, [r3]	@ movhi
 657:Generated_Source\PSoC5/cyfitter_cfg.c **** 	CY_SET_XTND_REG16((void CYFAR *)(CYREG_FASTCLK_PLL_CFG0), 0x2251u);
 877              		.loc 1 657 0
 878 005e 3E4B     		ldr	r3, .L22+60
 879 0060 42F25122 		movw	r2, #8785
 880 0064 1A80     		strh	r2, [r3]	@ movhi
ARM GAS  C:\Users\JEFFSN~1\AppData\Local\Temp\cc9h98U0.s 			page 28


 658:Generated_Source\PSoC5/cyfitter_cfg.c **** 	/* Wait up to 250us for the PLL to lock */
 659:Generated_Source\PSoC5/cyfitter_cfg.c **** 	pllLock = 0u;
 881              		.loc 1 659 0
 882 0066 0023     		movs	r3, #0
 883 0068 FB70     		strb	r3, [r7, #3]
 660:Generated_Source\PSoC5/cyfitter_cfg.c **** 	for (timeout = 250u / 10u; (timeout > 0u) && (pllLock != 0x03u); timeout--)
 884              		.loc 1 660 0
 885 006a 1923     		movs	r3, #25
 886 006c 7B60     		str	r3, [r7, #4]
 887 006e 13E0     		b	.L18
 888              	.L20:
 661:Generated_Source\PSoC5/cyfitter_cfg.c **** 	{ 
 662:Generated_Source\PSoC5/cyfitter_cfg.c **** 		pllLock = 0x03u & ((uint8)((uint8)pllLock << 1) | ((CY_GET_XTND_REG8((void CYFAR *)CYREG_FASTCLK_
 889              		.loc 1 662 0 discriminator 4
 890 0070 FB78     		ldrb	r3, [r7, #3]
 891 0072 5B00     		lsls	r3, r3, #1
 892 0074 DAB2     		uxtb	r2, r3
 893 0076 394B     		ldr	r3, .L22+64
 894 0078 1B78     		ldrb	r3, [r3]
 895 007a DBB2     		uxtb	r3, r3
 896 007c 03F00103 		and	r3, r3, #1
 897 0080 DBB2     		uxtb	r3, r3
 898 0082 1343     		orrs	r3, r3, r2
 899 0084 DBB2     		uxtb	r3, r3
 900 0086 03F00303 		and	r3, r3, #3
 901 008a FB70     		strb	r3, [r7, #3]
 663:Generated_Source\PSoC5/cyfitter_cfg.c **** 		CyDelayCycles(10u * 12u); /* Delay 10us based on 12MHz clock */
 902              		.loc 1 663 0 discriminator 4
 903 008c 7820     		movs	r0, #120
 904 008e FFF7FEFF 		bl	CyDelayCycles
 660:Generated_Source\PSoC5/cyfitter_cfg.c **** 	for (timeout = 250u / 10u; (timeout > 0u) && (pllLock != 0x03u); timeout--)
 905              		.loc 1 660 0 discriminator 4
 906 0092 7B68     		ldr	r3, [r7, #4]
 907 0094 013B     		subs	r3, r3, #1
 908 0096 7B60     		str	r3, [r7, #4]
 909              	.L18:
 660:Generated_Source\PSoC5/cyfitter_cfg.c **** 	for (timeout = 250u / 10u; (timeout > 0u) && (pllLock != 0x03u); timeout--)
 910              		.loc 1 660 0 is_stmt 0 discriminator 1
 911 0098 7B68     		ldr	r3, [r7, #4]
 912 009a 002B     		cmp	r3, #0
 913 009c 02D0     		beq	.L19
 660:Generated_Source\PSoC5/cyfitter_cfg.c **** 	for (timeout = 250u / 10u; (timeout > 0u) && (pllLock != 0x03u); timeout--)
 914              		.loc 1 660 0 discriminator 3
 915 009e FB78     		ldrb	r3, [r7, #3]	@ zero_extendqisi2
 916 00a0 032B     		cmp	r3, #3
 917 00a2 E5D1     		bne	.L20
 918              	.L19:
 664:Generated_Source\PSoC5/cyfitter_cfg.c **** 	}
 665:Generated_Source\PSoC5/cyfitter_cfg.c **** 	/* If we ran out of time the PLL didn't lock so go to the error function */
 666:Generated_Source\PSoC5/cyfitter_cfg.c **** 	if (timeout == 0u)
 919              		.loc 1 666 0 is_stmt 1
 920 00a4 7B68     		ldr	r3, [r7, #4]
 921 00a6 002B     		cmp	r3, #0
 922 00a8 02D1     		bne	.L21
 667:Generated_Source\PSoC5/cyfitter_cfg.c **** 	{
 668:Generated_Source\PSoC5/cyfitter_cfg.c **** 		CyClockStartupError(CYCLOCKSTART_PLL_ERROR);
 923              		.loc 1 668 0
ARM GAS  C:\Users\JEFFSN~1\AppData\Local\Temp\cc9h98U0.s 			page 29


 924 00aa 0320     		movs	r0, #3
 925 00ac FFF7FEFF 		bl	CyClockStartupError
 926              	.L21:
 669:Generated_Source\PSoC5/cyfitter_cfg.c **** 	}
 670:Generated_Source\PSoC5/cyfitter_cfg.c **** 
 671:Generated_Source\PSoC5/cyfitter_cfg.c **** 	/* Configure Bus/Master Clock based on settings from Clock DWR */
 672:Generated_Source\PSoC5/cyfitter_cfg.c **** 	CY_SET_XTND_REG16((void CYFAR *)(CYREG_CLKDIST_MSTR0), 0x0100u);
 927              		.loc 1 672 0
 928 00b0 2B4B     		ldr	r3, .L22+68
 929 00b2 4FF48072 		mov	r2, #256
 930 00b6 1A80     		strh	r2, [r3]	@ movhi
 673:Generated_Source\PSoC5/cyfitter_cfg.c **** 	CY_SET_XTND_REG8((void CYFAR *)(CYREG_CLKDIST_MSTR0), 0x07u);
 931              		.loc 1 673 0
 932 00b8 294B     		ldr	r3, .L22+68
 933 00ba 0722     		movs	r2, #7
 934 00bc 1A70     		strb	r2, [r3]
 674:Generated_Source\PSoC5/cyfitter_cfg.c **** 	CY_SET_XTND_REG8((void CYFAR *)(CYREG_CLKDIST_BCFG0), 0x00u);
 935              		.loc 1 674 0
 936 00be 294B     		ldr	r3, .L22+72
 937 00c0 0022     		movs	r2, #0
 938 00c2 1A70     		strb	r2, [r3]
 675:Generated_Source\PSoC5/cyfitter_cfg.c **** 	CY_SET_XTND_REG8((void CYFAR *)(CYREG_CLKDIST_BCFG2), 0x48u);
 939              		.loc 1 675 0
 940 00c4 284B     		ldr	r3, .L22+76
 941 00c6 4822     		movs	r2, #72
 942 00c8 1A70     		strb	r2, [r3]
 676:Generated_Source\PSoC5/cyfitter_cfg.c **** 	CY_SET_XTND_REG8((void CYFAR *)(CYREG_CLKDIST_MSTR0), 0x00u);
 943              		.loc 1 676 0
 944 00ca 254B     		ldr	r3, .L22+68
 945 00cc 0022     		movs	r2, #0
 946 00ce 1A70     		strb	r2, [r3]
 677:Generated_Source\PSoC5/cyfitter_cfg.c **** 
 678:Generated_Source\PSoC5/cyfitter_cfg.c **** 	/* Configure USB Clock based on settings from Clock DWR */
 679:Generated_Source\PSoC5/cyfitter_cfg.c **** 	CY_SET_XTND_REG8((void CYFAR *)(CYREG_CLKDIST_UCFG), 0x00u);
 947              		.loc 1 679 0
 948 00d0 264B     		ldr	r3, .L22+80
 949 00d2 0022     		movs	r2, #0
 950 00d4 1A70     		strb	r2, [r3]
 680:Generated_Source\PSoC5/cyfitter_cfg.c **** 	CY_SET_XTND_REG8((void CYFAR *)(CYREG_CLKDIST_LD), 0x02u);
 951              		.loc 1 680 0
 952 00d6 264B     		ldr	r3, .L22+84
 953 00d8 0222     		movs	r2, #2
 954 00da 1A70     		strb	r2, [r3]
 681:Generated_Source\PSoC5/cyfitter_cfg.c **** 	CY_SET_XTND_REG8((void CYFAR *)(CYREG_CLKDIST_DLY1), 0x04u);
 955              		.loc 1 681 0
 956 00dc 254B     		ldr	r3, .L22+88
 957 00de 0422     		movs	r2, #4
 958 00e0 1A70     		strb	r2, [r3]
 682:Generated_Source\PSoC5/cyfitter_cfg.c **** 
 683:Generated_Source\PSoC5/cyfitter_cfg.c **** 	CY_SET_XTND_REG8((void CYFAR *)(CYREG_PM_ACT_CFG2), ((CY_GET_XTND_REG8((void CYFAR *)CYREG_PM_ACT_
 959              		.loc 1 683 0
 960 00e2 254A     		ldr	r2, .L22+92
 961 00e4 244B     		ldr	r3, .L22+92
 962 00e6 1B78     		ldrb	r3, [r3]
 963 00e8 DBB2     		uxtb	r3, r3
 964 00ea 43F00F03 		orr	r3, r3, #15
 965 00ee DBB2     		uxtb	r3, r3
ARM GAS  C:\Users\JEFFSN~1\AppData\Local\Temp\cc9h98U0.s 			page 30


 966 00f0 1370     		strb	r3, [r2]
 684:Generated_Source\PSoC5/cyfitter_cfg.c **** 	CY_SET_XTND_REG8((void CYFAR *)(CYREG_PM_ACT_CFG1), ((CY_GET_XTND_REG8((void CYFAR *)CYREG_PM_ACT_
 967              		.loc 1 684 0
 968 00f2 224A     		ldr	r2, .L22+96
 969 00f4 214B     		ldr	r3, .L22+96
 970 00f6 1B78     		ldrb	r3, [r3]
 971 00f8 DBB2     		uxtb	r3, r3
 972 00fa 43F00103 		orr	r3, r3, #1
 973 00fe DBB2     		uxtb	r3, r3
 974 0100 1370     		strb	r3, [r2]
 685:Generated_Source\PSoC5/cyfitter_cfg.c **** 	CY_SET_XTND_REG8((void CYFAR *)(CYREG_PM_ACT_CFG0), ((CY_GET_XTND_REG8((void CYFAR *)CYREG_PM_ACT_
 975              		.loc 1 685 0
 976 0102 1F4A     		ldr	r2, .L22+100
 977 0104 1E4B     		ldr	r3, .L22+100
 978 0106 1B78     		ldrb	r3, [r3]
 979 0108 DBB2     		uxtb	r3, r3
 980 010a 63F07F03 		orn	r3, r3, #127
 981 010e DBB2     		uxtb	r3, r3
 982 0110 1370     		strb	r3, [r2]
 686:Generated_Source\PSoC5/cyfitter_cfg.c **** }
 983              		.loc 1 686 0
 984 0112 00BF     		nop
 985 0114 0837     		adds	r7, r7, #8
 986              		.cfi_def_cfa_offset 8
 987 0116 BD46     		mov	sp, r7
 988              		.cfi_def_cfa_register 13
 989              		@ sp needed
 990 0118 80BD     		pop	{r7, pc}
 991              	.L23:
 992 011a 00BF     		.align	2
 993              	.L22:
 994 011c 80400040 		.word	1073758336
 995 0120 82400040 		.word	1073758338
 996 0124 84400040 		.word	1073758340
 997 0128 86400040 		.word	1073758342
 998 012c 88400040 		.word	1073758344
 999 0130 8A400040 		.word	1073758346
 1000 0134 8C400040 		.word	1073758348
 1001 0138 8E400040 		.word	1073758350
 1002 013c 48160048 		.word	1207965256
 1003 0140 00410040 		.word	1073758464
 1004 0144 00430040 		.word	1073758976
 1005 0148 A1460040 		.word	1073759905
 1006 014c 0F010049 		.word	1224737039
 1007 0150 00420040 		.word	1073758720
 1008 0154 22420040 		.word	1073758754
 1009 0158 20420040 		.word	1073758752
 1010 015c 25420040 		.word	1073758757
 1011 0160 04400040 		.word	1073758212
 1012 0164 06400040 		.word	1073758214
 1013 0168 08400040 		.word	1073758216
 1014 016c 09400040 		.word	1073758217
 1015 0170 01400040 		.word	1073758209
 1016 0174 0B400040 		.word	1073758219
 1017 0178 A2430040 		.word	1073759138
 1018 017c A1430040 		.word	1073759137
 1019 0180 A0430040 		.word	1073759136
ARM GAS  C:\Users\JEFFSN~1\AppData\Local\Temp\cc9h98U0.s 			page 31


 1020              		.cfi_endproc
 1021              	.LFE5:
 1022              		.size	ClockSetup, .-ClockSetup
 1023              		.section	.text.AnalogSetDefault,"ax",%progbits
 1024              		.align	2
 1025              		.thumb
 1026              		.thumb_func
 1027              		.type	AnalogSetDefault, %function
 1028              	AnalogSetDefault:
 1029              	.LFB6:
 687:Generated_Source\PSoC5/cyfitter_cfg.c **** 
 688:Generated_Source\PSoC5/cyfitter_cfg.c **** 
 689:Generated_Source\PSoC5/cyfitter_cfg.c **** /* Analog API Functions */
 690:Generated_Source\PSoC5/cyfitter_cfg.c **** 
 691:Generated_Source\PSoC5/cyfitter_cfg.c **** 
 692:Generated_Source\PSoC5/cyfitter_cfg.c **** /*******************************************************************************
 693:Generated_Source\PSoC5/cyfitter_cfg.c **** * Function Name: AnalogSetDefault
 694:Generated_Source\PSoC5/cyfitter_cfg.c **** ********************************************************************************
 695:Generated_Source\PSoC5/cyfitter_cfg.c **** *
 696:Generated_Source\PSoC5/cyfitter_cfg.c **** * Summary:
 697:Generated_Source\PSoC5/cyfitter_cfg.c **** *  Sets up the analog portions of the chip to default values based on chip
 698:Generated_Source\PSoC5/cyfitter_cfg.c **** *  configuration options from the project.
 699:Generated_Source\PSoC5/cyfitter_cfg.c **** *
 700:Generated_Source\PSoC5/cyfitter_cfg.c **** * Parameters:
 701:Generated_Source\PSoC5/cyfitter_cfg.c **** *  void
 702:Generated_Source\PSoC5/cyfitter_cfg.c **** *
 703:Generated_Source\PSoC5/cyfitter_cfg.c **** * Return:
 704:Generated_Source\PSoC5/cyfitter_cfg.c **** *  void
 705:Generated_Source\PSoC5/cyfitter_cfg.c **** *
 706:Generated_Source\PSoC5/cyfitter_cfg.c **** *******************************************************************************/
 707:Generated_Source\PSoC5/cyfitter_cfg.c **** static void AnalogSetDefault(void);
 708:Generated_Source\PSoC5/cyfitter_cfg.c **** static void AnalogSetDefault(void)
 709:Generated_Source\PSoC5/cyfitter_cfg.c **** {
 1030              		.loc 1 709 0
 1031              		.cfi_startproc
 1032              		@ args = 0, pretend = 0, frame = 8
 1033              		@ frame_needed = 1, uses_anonymous_args = 0
 1034              		@ link register save eliminated.
 1035 0000 80B4     		push	{r7}
 1036              		.cfi_def_cfa_offset 4
 1037              		.cfi_offset 7, -4
 1038 0002 83B0     		sub	sp, sp, #12
 1039              		.cfi_def_cfa_offset 16
 1040 0004 00AF     		add	r7, sp, #0
 1041              		.cfi_def_cfa_register 7
 710:Generated_Source\PSoC5/cyfitter_cfg.c **** 	uint8 bg_xover_inl_trim = CY_GET_XTND_REG8((void CYFAR *)(CYREG_FLSHID_MFG_CFG_BG_XOVER_INL_TRIM +
 1042              		.loc 1 710 0
 1043 0006 1D4B     		ldr	r3, .L25
 1044 0008 1B78     		ldrb	r3, [r3]
 1045 000a FB71     		strb	r3, [r7, #7]
 711:Generated_Source\PSoC5/cyfitter_cfg.c **** 	CY_SET_XTND_REG8((void CYFAR *)(CYREG_BG_DFT0), (bg_xover_inl_trim & 0x07u));
 1046              		.loc 1 711 0
 1047 000c 1C4A     		ldr	r2, .L25+4
 1048 000e FB79     		ldrb	r3, [r7, #7]
 1049 0010 03F00703 		and	r3, r3, #7
 1050 0014 DBB2     		uxtb	r3, r3
 1051 0016 1370     		strb	r3, [r2]
ARM GAS  C:\Users\JEFFSN~1\AppData\Local\Temp\cc9h98U0.s 			page 32


 712:Generated_Source\PSoC5/cyfitter_cfg.c **** 	CY_SET_XTND_REG8((void CYFAR *)(CYREG_BG_DFT1), ((bg_xover_inl_trim >> 4) & 0x0Fu));
 1052              		.loc 1 712 0
 1053 0018 1A4A     		ldr	r2, .L25+8
 1054 001a FB79     		ldrb	r3, [r7, #7]	@ zero_extendqisi2
 1055 001c 1B09     		lsrs	r3, r3, #4
 1056 001e DBB2     		uxtb	r3, r3
 1057 0020 1370     		strb	r3, [r2]
 713:Generated_Source\PSoC5/cyfitter_cfg.c **** 	CY_SET_XTND_REG8((void CYFAR *)CYREG_PRT3_AG, 0x02u);
 1058              		.loc 1 713 0
 1059 0022 194B     		ldr	r3, .L25+12
 1060 0024 0222     		movs	r2, #2
 1061 0026 1A70     		strb	r2, [r3]
 714:Generated_Source\PSoC5/cyfitter_cfg.c **** 	CY_SET_XTND_REG8((void CYFAR *)CYREG_PRT4_AG, 0x24u);
 1062              		.loc 1 714 0
 1063 0028 184B     		ldr	r3, .L25+16
 1064 002a 2422     		movs	r2, #36
 1065 002c 1A70     		strb	r2, [r3]
 715:Generated_Source\PSoC5/cyfitter_cfg.c **** 	CY_SET_XTND_REG8((void CYFAR *)CYREG_PRT15_AG, 0x10u);
 1066              		.loc 1 715 0
 1067 002e 184B     		ldr	r3, .L25+20
 1068 0030 1022     		movs	r2, #16
 1069 0032 1A70     		strb	r2, [r3]
 716:Generated_Source\PSoC5/cyfitter_cfg.c **** 	CY_SET_XTND_REG8((void CYFAR *)CYREG_BG_CR0, 0x09u);
 1070              		.loc 1 716 0
 1071 0034 174B     		ldr	r3, .L25+24
 1072 0036 0922     		movs	r2, #9
 1073 0038 1A70     		strb	r2, [r3]
 717:Generated_Source\PSoC5/cyfitter_cfg.c **** 	CY_SET_XTND_REG8((void CYFAR *)CYREG_CAPSL_CFG0, 0x00u);
 1074              		.loc 1 717 0
 1075 003a 174B     		ldr	r3, .L25+28
 1076 003c 0022     		movs	r2, #0
 1077 003e 1A70     		strb	r2, [r3]
 718:Generated_Source\PSoC5/cyfitter_cfg.c **** 	CY_SET_XTND_REG8((void CYFAR *)CYREG_CMP0_SW3, 0x20u);
 1078              		.loc 1 718 0
 1079 0040 164B     		ldr	r3, .L25+32
 1080 0042 2022     		movs	r2, #32
 1081 0044 1A70     		strb	r2, [r3]
 719:Generated_Source\PSoC5/cyfitter_cfg.c **** 	CY_SET_XTND_REG8((void CYFAR *)CYREG_CMP1_SW3, 0x40u);
 1082              		.loc 1 719 0
 1083 0046 164B     		ldr	r3, .L25+36
 1084 0048 4022     		movs	r2, #64
 1085 004a 1A70     		strb	r2, [r3]
 720:Generated_Source\PSoC5/cyfitter_cfg.c **** 	CY_SET_XTND_REG8((void CYFAR *)CYREG_CMP1_SW4, 0x10u);
 1086              		.loc 1 720 0
 1087 004c 154B     		ldr	r3, .L25+40
 1088 004e 1022     		movs	r2, #16
 1089 0050 1A70     		strb	r2, [r3]
 721:Generated_Source\PSoC5/cyfitter_cfg.c **** 	CY_SET_XTND_REG8((void CYFAR *)CYREG_CMP3_SW0, 0x60u);
 1090              		.loc 1 721 0
 1091 0052 154B     		ldr	r3, .L25+44
 1092 0054 6022     		movs	r2, #96
 1093 0056 1A70     		strb	r2, [r3]
 722:Generated_Source\PSoC5/cyfitter_cfg.c **** 	CY_SET_XTND_REG32((void CYFAR *)CYREG_OPAMP0_MX, 0x01010402u);
 1094              		.loc 1 722 0
 1095 0058 144B     		ldr	r3, .L25+48
 1096 005a 154A     		ldr	r2, .L25+52
 1097 005c 1A60     		str	r2, [r3]
ARM GAS  C:\Users\JEFFSN~1\AppData\Local\Temp\cc9h98U0.s 			page 33


 723:Generated_Source\PSoC5/cyfitter_cfg.c **** 	CY_SET_XTND_REG16((void CYFAR *)CYREG_OPAMP3_MX, 0x0101u);
 1098              		.loc 1 723 0
 1099 005e 154B     		ldr	r3, .L25+56
 1100 0060 40F20112 		movw	r2, #257
 1101 0064 1A80     		strh	r2, [r3]	@ movhi
 724:Generated_Source\PSoC5/cyfitter_cfg.c **** 	CY_SET_XTND_REG8((void CYFAR *)CYREG_BUS_SW0, 0xC0u);
 1102              		.loc 1 724 0
 1103 0066 144B     		ldr	r3, .L25+60
 1104 0068 C022     		movs	r2, #192
 1105 006a 1A70     		strb	r2, [r3]
 725:Generated_Source\PSoC5/cyfitter_cfg.c **** 	CY_SET_XTND_REG8((void CYFAR *)CYREG_PUMP_CR0, 0x66u);
 1106              		.loc 1 725 0
 1107 006c 134B     		ldr	r3, .L25+64
 1108 006e 6622     		movs	r2, #102
 1109 0070 1A70     		strb	r2, [r3]
 726:Generated_Source\PSoC5/cyfitter_cfg.c **** }
 1110              		.loc 1 726 0
 1111 0072 00BF     		nop
 1112 0074 0C37     		adds	r7, r7, #12
 1113              		.cfi_def_cfa_offset 4
 1114 0076 BD46     		mov	sp, r7
 1115              		.cfi_def_cfa_register 13
 1116              		@ sp needed
 1117 0078 80BC     		pop	{r7}
 1118              		.cfi_restore 7
 1119              		.cfi_def_cfa_offset 0
 1120 007a 7047     		bx	lr
 1121              	.L26:
 1122              		.align	2
 1123              	.L25:
 1124 007c CF010049 		.word	1224737231
 1125 0080 6E580040 		.word	1073764462
 1126 0084 6F580040 		.word	1073764463
 1127 0088 3D510040 		.word	1073762621
 1128 008c 4D510040 		.word	1073762637
 1129 0090 FD510040 		.word	1073762813
 1130 0094 6C580040 		.word	1073764460
 1131 0098 70580040 		.word	1073764464
 1132 009c C35A0040 		.word	1073765059
 1133 00a0 CB5A0040 		.word	1073765067
 1134 00a4 CC5A0040 		.word	1073765068
 1135 00a8 D85A0040 		.word	1073765080
 1136 00ac 405B0040 		.word	1073765184
 1137 00b0 02040101 		.word	16843778
 1138 00b4 465B0040 		.word	1073765190
 1139 00b8 585B0040 		.word	1073765208
 1140 00bc 76580040 		.word	1073764470
 1141              		.cfi_endproc
 1142              	.LFE6:
 1143              		.size	AnalogSetDefault, .-AnalogSetDefault
 1144              		.section	.text.SetAnalogRoutingPumps,"ax",%progbits
 1145              		.align	2
 1146              		.global	SetAnalogRoutingPumps
 1147              		.thumb
 1148              		.thumb_func
 1149              		.type	SetAnalogRoutingPumps, %function
 1150              	SetAnalogRoutingPumps:
ARM GAS  C:\Users\JEFFSN~1\AppData\Local\Temp\cc9h98U0.s 			page 34


 1151              	.LFB7:
 727:Generated_Source\PSoC5/cyfitter_cfg.c **** 
 728:Generated_Source\PSoC5/cyfitter_cfg.c **** 
 729:Generated_Source\PSoC5/cyfitter_cfg.c **** /*******************************************************************************
 730:Generated_Source\PSoC5/cyfitter_cfg.c **** * Function Name: SetAnalogRoutingPumps
 731:Generated_Source\PSoC5/cyfitter_cfg.c **** ********************************************************************************
 732:Generated_Source\PSoC5/cyfitter_cfg.c **** *
 733:Generated_Source\PSoC5/cyfitter_cfg.c **** * Summary:
 734:Generated_Source\PSoC5/cyfitter_cfg.c **** * Enables or disables the analog pumps feeding analog routing switches.
 735:Generated_Source\PSoC5/cyfitter_cfg.c **** * Intended to be called at startup, based on the Vdda system configuration;
 736:Generated_Source\PSoC5/cyfitter_cfg.c **** * may be called during operation when the user informs us that the Vdda voltage
 737:Generated_Source\PSoC5/cyfitter_cfg.c **** * crossed the pump threshold.
 738:Generated_Source\PSoC5/cyfitter_cfg.c **** *
 739:Generated_Source\PSoC5/cyfitter_cfg.c **** * Parameters:
 740:Generated_Source\PSoC5/cyfitter_cfg.c **** *  enabled - 1 to enable the pumps, 0 to disable the pumps
 741:Generated_Source\PSoC5/cyfitter_cfg.c **** *
 742:Generated_Source\PSoC5/cyfitter_cfg.c **** * Return:
 743:Generated_Source\PSoC5/cyfitter_cfg.c **** *  void
 744:Generated_Source\PSoC5/cyfitter_cfg.c **** *
 745:Generated_Source\PSoC5/cyfitter_cfg.c **** *******************************************************************************/
 746:Generated_Source\PSoC5/cyfitter_cfg.c **** void SetAnalogRoutingPumps(uint8 enabled)
 747:Generated_Source\PSoC5/cyfitter_cfg.c **** {
 1152              		.loc 1 747 0
 1153              		.cfi_startproc
 1154              		@ args = 0, pretend = 0, frame = 16
 1155              		@ frame_needed = 1, uses_anonymous_args = 0
 1156              		@ link register save eliminated.
 1157 0000 80B4     		push	{r7}
 1158              		.cfi_def_cfa_offset 4
 1159              		.cfi_offset 7, -4
 1160 0002 85B0     		sub	sp, sp, #20
 1161              		.cfi_def_cfa_offset 24
 1162 0004 00AF     		add	r7, sp, #0
 1163              		.cfi_def_cfa_register 7
 1164 0006 0346     		mov	r3, r0
 1165 0008 FB71     		strb	r3, [r7, #7]
 748:Generated_Source\PSoC5/cyfitter_cfg.c **** 	uint8 regValue = CY_GET_XTND_REG8((void CYFAR *)CYREG_PUMP_CR0);
 1166              		.loc 1 748 0
 1167 000a 0B4B     		ldr	r3, .L30
 1168 000c 1B78     		ldrb	r3, [r3]
 1169 000e FB73     		strb	r3, [r7, #15]
 749:Generated_Source\PSoC5/cyfitter_cfg.c **** 	if (enabled != 0u)
 1170              		.loc 1 749 0
 1171 0010 FB79     		ldrb	r3, [r7, #7]	@ zero_extendqisi2
 1172 0012 002B     		cmp	r3, #0
 1173 0014 04D0     		beq	.L28
 750:Generated_Source\PSoC5/cyfitter_cfg.c **** 	{
 751:Generated_Source\PSoC5/cyfitter_cfg.c **** 		regValue |= 0x22u;
 1174              		.loc 1 751 0
 1175 0016 FB7B     		ldrb	r3, [r7, #15]
 1176 0018 43F02203 		orr	r3, r3, #34
 1177 001c FB73     		strb	r3, [r7, #15]
 1178 001e 03E0     		b	.L29
 1179              	.L28:
 752:Generated_Source\PSoC5/cyfitter_cfg.c **** 	}
 753:Generated_Source\PSoC5/cyfitter_cfg.c **** 	else
 754:Generated_Source\PSoC5/cyfitter_cfg.c **** 	{
ARM GAS  C:\Users\JEFFSN~1\AppData\Local\Temp\cc9h98U0.s 			page 35


 755:Generated_Source\PSoC5/cyfitter_cfg.c **** 		regValue &= (uint8)~0x22u;
 1180              		.loc 1 755 0
 1181 0020 FB7B     		ldrb	r3, [r7, #15]
 1182 0022 23F02203 		bic	r3, r3, #34
 1183 0026 FB73     		strb	r3, [r7, #15]
 1184              	.L29:
 756:Generated_Source\PSoC5/cyfitter_cfg.c **** 	}
 757:Generated_Source\PSoC5/cyfitter_cfg.c **** 	CY_SET_XTND_REG8((void CYFAR *)CYREG_PUMP_CR0, regValue);
 1185              		.loc 1 757 0
 1186 0028 034A     		ldr	r2, .L30
 1187 002a FB7B     		ldrb	r3, [r7, #15]
 1188 002c 1370     		strb	r3, [r2]
 758:Generated_Source\PSoC5/cyfitter_cfg.c **** }
 1189              		.loc 1 758 0
 1190 002e 00BF     		nop
 1191 0030 1437     		adds	r7, r7, #20
 1192              		.cfi_def_cfa_offset 4
 1193 0032 BD46     		mov	sp, r7
 1194              		.cfi_def_cfa_register 13
 1195              		@ sp needed
 1196 0034 80BC     		pop	{r7}
 1197              		.cfi_restore 7
 1198              		.cfi_def_cfa_offset 0
 1199 0036 7047     		bx	lr
 1200              	.L31:
 1201              		.align	2
 1202              	.L30:
 1203 0038 76580040 		.word	1073764470
 1204              		.cfi_endproc
 1205              	.LFE7:
 1206              		.size	SetAnalogRoutingPumps, .-SetAnalogRoutingPumps
 1207              		.section	.rodata
 1208              		.align	2
 1209              		.type	AMux_1_CYAMUXSIDE_A__outerAddr, %object
 1210              		.size	AMux_1_CYAMUXSIDE_A__outerAddr, 20
 1211              	AMux_1_CYAMUXSIDE_A__outerAddr:
 1212 0000 585B0040 		.word	1073765208
 1213 0004 005B0040 		.word	1073765120
 1214 0008 585B0040 		.word	1073765208
 1215 000c 005B0040 		.word	1073765120
 1216 0010 035B0040 		.word	1073765123
 1217              		.align	2
 1218              		.type	AMux_1_CYAMUXSIDE_A__outerMask, %object
 1219              		.size	AMux_1_CYAMUXSIDE_A__outerMask, 5
 1220              	AMux_1_CYAMUXSIDE_A__outerMask:
 1221 0014 10       		.byte	16
 1222 0015 40       		.byte	64
 1223 0016 10       		.byte	16
 1224 0017 20       		.byte	32
 1225 0018 04       		.byte	4
 1226 0019 000000   		.align	2
 1227              		.type	AMux_1_CYAMUXSIDE_A__innerAddr, %object
 1228              		.size	AMux_1_CYAMUXSIDE_A__innerAddr, 8
 1229              	AMux_1_CYAMUXSIDE_A__innerAddr:
 1230 001c 005B0040 		.word	1073765120
 1231 0020 24430040 		.word	1073759012
 1232              		.align	2
ARM GAS  C:\Users\JEFFSN~1\AppData\Local\Temp\cc9h98U0.s 			page 36


 1233              		.type	AMux_1_CYAMUXSIDE_A__innerMask, %object
 1234              		.size	AMux_1_CYAMUXSIDE_A__innerMask, 2
 1235              	AMux_1_CYAMUXSIDE_A__innerMask:
 1236 0024 10       		.byte	16
 1237 0025 00       		.byte	0
 1238 0026 0000     		.align	2
 1239              		.type	AMux_1_CYAMUXSIDE_A__innerMap, %object
 1240              		.size	AMux_1_CYAMUXSIDE_A__innerMap, 5
 1241              	AMux_1_CYAMUXSIDE_A__innerMap:
 1242 0028 00       		.byte	0
 1243 0029 01       		.byte	1
 1244 002a 00       		.byte	0
 1245 002b 01       		.byte	1
 1246 002c 01       		.byte	1
 1247              		.bss
 1248              	AMux_1_CYAMUXSIDE_A__armsEnabled:
 1249 0000 00       		.space	1
 1250 0001 000000   		.align	2
 1251              	AMux_1_CYAMUXSIDE_A__refCnt:
 1252 0004 0000     		.space	2
 1253              		.section	.text.AMux_1_CYAMUXSIDE_A_Set,"ax",%progbits
 1254              		.align	2
 1255              		.global	AMux_1_CYAMUXSIDE_A_Set
 1256              		.thumb
 1257              		.thumb_func
 1258              		.type	AMux_1_CYAMUXSIDE_A_Set, %function
 1259              	AMux_1_CYAMUXSIDE_A_Set:
 1260              	.LFB8:
 759:Generated_Source\PSoC5/cyfitter_cfg.c **** 
 760:Generated_Source\PSoC5/cyfitter_cfg.c **** 
 761:Generated_Source\PSoC5/cyfitter_cfg.c **** #define CY_AMUX_UNUSED CYREG_BOOST_SR
 762:Generated_Source\PSoC5/cyfitter_cfg.c **** static uint8 CYXDATA * const CYCODE AMux_1_CYAMUXSIDE_A__outerAddr[5] = {
 763:Generated_Source\PSoC5/cyfitter_cfg.c **** 	(uint8 CYXDATA *)CYREG_BUS_SW0, 
 764:Generated_Source\PSoC5/cyfitter_cfg.c **** 	(uint8 CYXDATA *)CYREG_DSM0_SW0, 
 765:Generated_Source\PSoC5/cyfitter_cfg.c **** 	(uint8 CYXDATA *)CYREG_BUS_SW0, 
 766:Generated_Source\PSoC5/cyfitter_cfg.c **** 	(uint8 CYXDATA *)CYREG_DSM0_SW0, 
 767:Generated_Source\PSoC5/cyfitter_cfg.c **** 	(uint8 CYXDATA *)CYREG_DSM0_SW3, 
 768:Generated_Source\PSoC5/cyfitter_cfg.c **** };
 769:Generated_Source\PSoC5/cyfitter_cfg.c **** 
 770:Generated_Source\PSoC5/cyfitter_cfg.c **** static const uint8 CYCODE AMux_1_CYAMUXSIDE_A__outerMask[5] = {
 771:Generated_Source\PSoC5/cyfitter_cfg.c **** 	0x10u, 
 772:Generated_Source\PSoC5/cyfitter_cfg.c **** 	0x40u, 
 773:Generated_Source\PSoC5/cyfitter_cfg.c **** 	0x10u, 
 774:Generated_Source\PSoC5/cyfitter_cfg.c **** 	0x20u, 
 775:Generated_Source\PSoC5/cyfitter_cfg.c **** 	0x04u, 
 776:Generated_Source\PSoC5/cyfitter_cfg.c **** };
 777:Generated_Source\PSoC5/cyfitter_cfg.c **** 
 778:Generated_Source\PSoC5/cyfitter_cfg.c **** static uint8 CYXDATA * const CYCODE AMux_1_CYAMUXSIDE_A__innerAddr[2] = {
 779:Generated_Source\PSoC5/cyfitter_cfg.c **** 	(uint8 CYXDATA *)CYREG_DSM0_SW0, 
 780:Generated_Source\PSoC5/cyfitter_cfg.c **** 	(uint8 CYXDATA *)CY_AMUX_UNUSED, 
 781:Generated_Source\PSoC5/cyfitter_cfg.c **** };
 782:Generated_Source\PSoC5/cyfitter_cfg.c **** 
 783:Generated_Source\PSoC5/cyfitter_cfg.c **** static const uint8 CYCODE AMux_1_CYAMUXSIDE_A__innerMask[2] = {
 784:Generated_Source\PSoC5/cyfitter_cfg.c **** 	0x10u, 
 785:Generated_Source\PSoC5/cyfitter_cfg.c **** 	0x00u, 
 786:Generated_Source\PSoC5/cyfitter_cfg.c **** };
 787:Generated_Source\PSoC5/cyfitter_cfg.c **** 
ARM GAS  C:\Users\JEFFSN~1\AppData\Local\Temp\cc9h98U0.s 			page 37


 788:Generated_Source\PSoC5/cyfitter_cfg.c **** static const uint8 CYCODE AMux_1_CYAMUXSIDE_A__innerMap[5] = {
 789:Generated_Source\PSoC5/cyfitter_cfg.c **** 	0u, 
 790:Generated_Source\PSoC5/cyfitter_cfg.c **** 	1u, 
 791:Generated_Source\PSoC5/cyfitter_cfg.c **** 	0u, 
 792:Generated_Source\PSoC5/cyfitter_cfg.c **** 	1u, 
 793:Generated_Source\PSoC5/cyfitter_cfg.c **** 	1u, 
 794:Generated_Source\PSoC5/cyfitter_cfg.c **** };
 795:Generated_Source\PSoC5/cyfitter_cfg.c **** 
 796:Generated_Source\PSoC5/cyfitter_cfg.c **** static uint8 AMux_1_CYAMUXSIDE_A__armsEnabled = 0u;
 797:Generated_Source\PSoC5/cyfitter_cfg.c **** static uint8 AMux_1_CYAMUXSIDE_A__refCnt[] = {0u, 0u};
 798:Generated_Source\PSoC5/cyfitter_cfg.c **** 
 799:Generated_Source\PSoC5/cyfitter_cfg.c **** /*******************************************************************************
 800:Generated_Source\PSoC5/cyfitter_cfg.c **** * Function Name: AMux_1_CYAMUXSIDE_A_Set
 801:Generated_Source\PSoC5/cyfitter_cfg.c **** ********************************************************************************
 802:Generated_Source\PSoC5/cyfitter_cfg.c **** * Summary:
 803:Generated_Source\PSoC5/cyfitter_cfg.c **** *  This function is used to set a particular channel as active on the AMux.
 804:Generated_Source\PSoC5/cyfitter_cfg.c **** *
 805:Generated_Source\PSoC5/cyfitter_cfg.c **** * Parameters:  
 806:Generated_Source\PSoC5/cyfitter_cfg.c **** *   channel - The mux channel input to set as active
 807:Generated_Source\PSoC5/cyfitter_cfg.c **** *
 808:Generated_Source\PSoC5/cyfitter_cfg.c **** * Return:
 809:Generated_Source\PSoC5/cyfitter_cfg.c **** *   void
 810:Generated_Source\PSoC5/cyfitter_cfg.c **** *
 811:Generated_Source\PSoC5/cyfitter_cfg.c **** *******************************************************************************/
 812:Generated_Source\PSoC5/cyfitter_cfg.c **** void AMux_1_CYAMUXSIDE_A_Set(uint8 channel)
 813:Generated_Source\PSoC5/cyfitter_cfg.c **** {
 1261              		.loc 1 813 0
 1262              		.cfi_startproc
 1263              		@ args = 0, pretend = 0, frame = 16
 1264              		@ frame_needed = 1, uses_anonymous_args = 0
 1265              		@ link register save eliminated.
 1266 0000 80B4     		push	{r7}
 1267              		.cfi_def_cfa_offset 4
 1268              		.cfi_offset 7, -4
 1269 0002 85B0     		sub	sp, sp, #20
 1270              		.cfi_def_cfa_offset 24
 1271 0004 00AF     		add	r7, sp, #0
 1272              		.cfi_def_cfa_register 7
 1273 0006 0346     		mov	r3, r0
 1274 0008 FB71     		strb	r3, [r7, #7]
 814:Generated_Source\PSoC5/cyfitter_cfg.c **** 	uint8 i;
 815:Generated_Source\PSoC5/cyfitter_cfg.c **** 	uint8 channelMask = (1UL << channel);
 1275              		.loc 1 815 0
 1276 000a FB79     		ldrb	r3, [r7, #7]	@ zero_extendqisi2
 1277 000c 0122     		movs	r2, #1
 1278 000e 02FA03F3 		lsl	r3, r2, r3
 1279 0012 FB73     		strb	r3, [r7, #15]
 816:Generated_Source\PSoC5/cyfitter_cfg.c **** 	if ((channel < 5u) && ((AMux_1_CYAMUXSIDE_A__armsEnabled & channelMask) == ((uint32)0u)))
 1280              		.loc 1 816 0
 1281 0014 FB79     		ldrb	r3, [r7, #7]	@ zero_extendqisi2
 1282 0016 042B     		cmp	r3, #4
 1283 0018 3BD8     		bhi	.L35
 1284              		.loc 1 816 0 is_stmt 0 discriminator 1
 1285 001a 204B     		ldr	r3, .L36
 1286 001c 1A78     		ldrb	r2, [r3]	@ zero_extendqisi2
 1287 001e FB7B     		ldrb	r3, [r7, #15]
 1288 0020 1340     		ands	r3, r3, r2
ARM GAS  C:\Users\JEFFSN~1\AppData\Local\Temp\cc9h98U0.s 			page 38


 1289 0022 DBB2     		uxtb	r3, r3
 1290 0024 002B     		cmp	r3, #0
 1291 0026 34D1     		bne	.L35
 817:Generated_Source\PSoC5/cyfitter_cfg.c **** 	{
 818:Generated_Source\PSoC5/cyfitter_cfg.c **** 		AMux_1_CYAMUXSIDE_A__armsEnabled |= channelMask;
 1292              		.loc 1 818 0 is_stmt 1
 1293 0028 1C4B     		ldr	r3, .L36
 1294 002a 1A78     		ldrb	r2, [r3]	@ zero_extendqisi2
 1295 002c FB7B     		ldrb	r3, [r7, #15]
 1296 002e 1343     		orrs	r3, r3, r2
 1297 0030 DAB2     		uxtb	r2, r3
 1298 0032 1A4B     		ldr	r3, .L36
 1299 0034 1A70     		strb	r2, [r3]
 819:Generated_Source\PSoC5/cyfitter_cfg.c **** 		*AMux_1_CYAMUXSIDE_A__outerAddr[channel] |= AMux_1_CYAMUXSIDE_A__outerMask[channel];
 1300              		.loc 1 819 0
 1301 0036 FB79     		ldrb	r3, [r7, #7]	@ zero_extendqisi2
 1302 0038 194A     		ldr	r2, .L36+4
 1303 003a 52F82330 		ldr	r3, [r2, r3, lsl #2]
 1304 003e FA79     		ldrb	r2, [r7, #7]	@ zero_extendqisi2
 1305 0040 1749     		ldr	r1, .L36+4
 1306 0042 51F82220 		ldr	r2, [r1, r2, lsl #2]
 1307 0046 1178     		ldrb	r1, [r2]	@ zero_extendqisi2
 1308 0048 FA79     		ldrb	r2, [r7, #7]	@ zero_extendqisi2
 1309 004a 1648     		ldr	r0, .L36+8
 1310 004c 825C     		ldrb	r2, [r0, r2]	@ zero_extendqisi2
 1311 004e 0A43     		orrs	r2, r2, r1
 1312 0050 D2B2     		uxtb	r2, r2
 1313 0052 1A70     		strb	r2, [r3]
 820:Generated_Source\PSoC5/cyfitter_cfg.c **** 		i = AMux_1_CYAMUXSIDE_A__innerMap[channel];
 1314              		.loc 1 820 0
 1315 0054 FB79     		ldrb	r3, [r7, #7]	@ zero_extendqisi2
 1316 0056 144A     		ldr	r2, .L36+12
 1317 0058 D35C     		ldrb	r3, [r2, r3]
 1318 005a BB73     		strb	r3, [r7, #14]
 821:Generated_Source\PSoC5/cyfitter_cfg.c **** 		if (AMux_1_CYAMUXSIDE_A__refCnt[i] == 0u)
 1319              		.loc 1 821 0
 1320 005c BB7B     		ldrb	r3, [r7, #14]	@ zero_extendqisi2
 1321 005e 134A     		ldr	r2, .L36+16
 1322 0060 D35C     		ldrb	r3, [r2, r3]	@ zero_extendqisi2
 1323 0062 002B     		cmp	r3, #0
 1324 0064 0ED1     		bne	.L34
 822:Generated_Source\PSoC5/cyfitter_cfg.c **** 		{
 823:Generated_Source\PSoC5/cyfitter_cfg.c **** 			*AMux_1_CYAMUXSIDE_A__innerAddr[i] |= AMux_1_CYAMUXSIDE_A__innerMask[i];
 1325              		.loc 1 823 0
 1326 0066 BB7B     		ldrb	r3, [r7, #14]	@ zero_extendqisi2
 1327 0068 114A     		ldr	r2, .L36+20
 1328 006a 52F82330 		ldr	r3, [r2, r3, lsl #2]
 1329 006e BA7B     		ldrb	r2, [r7, #14]	@ zero_extendqisi2
 1330 0070 0F49     		ldr	r1, .L36+20
 1331 0072 51F82220 		ldr	r2, [r1, r2, lsl #2]
 1332 0076 1178     		ldrb	r1, [r2]	@ zero_extendqisi2
 1333 0078 BA7B     		ldrb	r2, [r7, #14]	@ zero_extendqisi2
 1334 007a 0E48     		ldr	r0, .L36+24
 1335 007c 825C     		ldrb	r2, [r0, r2]	@ zero_extendqisi2
 1336 007e 0A43     		orrs	r2, r2, r1
 1337 0080 D2B2     		uxtb	r2, r2
 1338 0082 1A70     		strb	r2, [r3]
ARM GAS  C:\Users\JEFFSN~1\AppData\Local\Temp\cc9h98U0.s 			page 39


 1339              	.L34:
 824:Generated_Source\PSoC5/cyfitter_cfg.c **** 		}
 825:Generated_Source\PSoC5/cyfitter_cfg.c **** 		AMux_1_CYAMUXSIDE_A__refCnt[i]++;
 1340              		.loc 1 825 0
 1341 0084 BB7B     		ldrb	r3, [r7, #14]	@ zero_extendqisi2
 1342 0086 094A     		ldr	r2, .L36+16
 1343 0088 D25C     		ldrb	r2, [r2, r3]	@ zero_extendqisi2
 1344 008a 0132     		adds	r2, r2, #1
 1345 008c D1B2     		uxtb	r1, r2
 1346 008e 074A     		ldr	r2, .L36+16
 1347 0090 D154     		strb	r1, [r2, r3]
 1348              	.L35:
 826:Generated_Source\PSoC5/cyfitter_cfg.c **** 	}
 827:Generated_Source\PSoC5/cyfitter_cfg.c **** }
 1349              		.loc 1 827 0
 1350 0092 00BF     		nop
 1351 0094 1437     		adds	r7, r7, #20
 1352              		.cfi_def_cfa_offset 4
 1353 0096 BD46     		mov	sp, r7
 1354              		.cfi_def_cfa_register 13
 1355              		@ sp needed
 1356 0098 80BC     		pop	{r7}
 1357              		.cfi_restore 7
 1358              		.cfi_def_cfa_offset 0
 1359 009a 7047     		bx	lr
 1360              	.L37:
 1361              		.align	2
 1362              	.L36:
 1363 009c 00000000 		.word	AMux_1_CYAMUXSIDE_A__armsEnabled
 1364 00a0 00000000 		.word	AMux_1_CYAMUXSIDE_A__outerAddr
 1365 00a4 14000000 		.word	AMux_1_CYAMUXSIDE_A__outerMask
 1366 00a8 28000000 		.word	AMux_1_CYAMUXSIDE_A__innerMap
 1367 00ac 04000000 		.word	AMux_1_CYAMUXSIDE_A__refCnt
 1368 00b0 1C000000 		.word	AMux_1_CYAMUXSIDE_A__innerAddr
 1369 00b4 24000000 		.word	AMux_1_CYAMUXSIDE_A__innerMask
 1370              		.cfi_endproc
 1371              	.LFE8:
 1372              		.size	AMux_1_CYAMUXSIDE_A_Set, .-AMux_1_CYAMUXSIDE_A_Set
 1373              		.section	.text.AMux_1_CYAMUXSIDE_A_Unset,"ax",%progbits
 1374              		.align	2
 1375              		.global	AMux_1_CYAMUXSIDE_A_Unset
 1376              		.thumb
 1377              		.thumb_func
 1378              		.type	AMux_1_CYAMUXSIDE_A_Unset, %function
 1379              	AMux_1_CYAMUXSIDE_A_Unset:
 1380              	.LFB9:
 828:Generated_Source\PSoC5/cyfitter_cfg.c **** 
 829:Generated_Source\PSoC5/cyfitter_cfg.c **** /*******************************************************************************
 830:Generated_Source\PSoC5/cyfitter_cfg.c **** * Function Name: AMux_1_CYAMUXSIDE_A_Unset
 831:Generated_Source\PSoC5/cyfitter_cfg.c **** ********************************************************************************
 832:Generated_Source\PSoC5/cyfitter_cfg.c **** * Summary:
 833:Generated_Source\PSoC5/cyfitter_cfg.c **** *  This function is used to clear a particular channel from being active on the
 834:Generated_Source\PSoC5/cyfitter_cfg.c **** *  AMux.
 835:Generated_Source\PSoC5/cyfitter_cfg.c **** *
 836:Generated_Source\PSoC5/cyfitter_cfg.c **** * Parameters:  
 837:Generated_Source\PSoC5/cyfitter_cfg.c **** *   channel - The mux channel input to mark inactive
 838:Generated_Source\PSoC5/cyfitter_cfg.c **** *
ARM GAS  C:\Users\JEFFSN~1\AppData\Local\Temp\cc9h98U0.s 			page 40


 839:Generated_Source\PSoC5/cyfitter_cfg.c **** * Return:
 840:Generated_Source\PSoC5/cyfitter_cfg.c **** *   void
 841:Generated_Source\PSoC5/cyfitter_cfg.c **** *
 842:Generated_Source\PSoC5/cyfitter_cfg.c **** *******************************************************************************/
 843:Generated_Source\PSoC5/cyfitter_cfg.c **** void AMux_1_CYAMUXSIDE_A_Unset(uint8 channel)
 844:Generated_Source\PSoC5/cyfitter_cfg.c **** {
 1381              		.loc 1 844 0
 1382              		.cfi_startproc
 1383              		@ args = 0, pretend = 0, frame = 16
 1384              		@ frame_needed = 1, uses_anonymous_args = 0
 1385              		@ link register save eliminated.
 1386 0000 80B4     		push	{r7}
 1387              		.cfi_def_cfa_offset 4
 1388              		.cfi_offset 7, -4
 1389 0002 85B0     		sub	sp, sp, #20
 1390              		.cfi_def_cfa_offset 24
 1391 0004 00AF     		add	r7, sp, #0
 1392              		.cfi_def_cfa_register 7
 1393 0006 0346     		mov	r3, r0
 1394 0008 FB71     		strb	r3, [r7, #7]
 845:Generated_Source\PSoC5/cyfitter_cfg.c **** 	uint8 i;
 846:Generated_Source\PSoC5/cyfitter_cfg.c **** 	uint8 channelMask = (1UL << channel);
 1395              		.loc 1 846 0
 1396 000a FB79     		ldrb	r3, [r7, #7]	@ zero_extendqisi2
 1397 000c 0122     		movs	r2, #1
 1398 000e 02FA03F3 		lsl	r3, r2, r3
 1399 0012 FB73     		strb	r3, [r7, #15]
 847:Generated_Source\PSoC5/cyfitter_cfg.c **** 	if ((channel < 5u) && ((AMux_1_CYAMUXSIDE_A__armsEnabled & channelMask) != ((uint32)0u)))
 1400              		.loc 1 847 0
 1401 0014 FB79     		ldrb	r3, [r7, #7]	@ zero_extendqisi2
 1402 0016 042B     		cmp	r3, #4
 1403 0018 41D8     		bhi	.L40
 1404              		.loc 1 847 0 is_stmt 0 discriminator 1
 1405 001a 234B     		ldr	r3, .L41
 1406 001c 1A78     		ldrb	r2, [r3]	@ zero_extendqisi2
 1407 001e FB7B     		ldrb	r3, [r7, #15]
 1408 0020 1340     		ands	r3, r3, r2
 1409 0022 DBB2     		uxtb	r3, r3
 1410 0024 002B     		cmp	r3, #0
 1411 0026 3AD0     		beq	.L40
 848:Generated_Source\PSoC5/cyfitter_cfg.c **** 	{
 849:Generated_Source\PSoC5/cyfitter_cfg.c **** 		AMux_1_CYAMUXSIDE_A__armsEnabled &= (uint8)~channelMask;
 1412              		.loc 1 849 0 is_stmt 1
 1413 0028 FB7B     		ldrb	r3, [r7, #15]
 1414 002a DB43     		mvns	r3, r3
 1415 002c DAB2     		uxtb	r2, r3
 1416 002e 1E4B     		ldr	r3, .L41
 1417 0030 1B78     		ldrb	r3, [r3]	@ zero_extendqisi2
 1418 0032 1340     		ands	r3, r3, r2
 1419 0034 DAB2     		uxtb	r2, r3
 1420 0036 1C4B     		ldr	r3, .L41
 1421 0038 1A70     		strb	r2, [r3]
 850:Generated_Source\PSoC5/cyfitter_cfg.c **** 		*AMux_1_CYAMUXSIDE_A__outerAddr[channel] &= (uint8)~AMux_1_CYAMUXSIDE_A__outerMask[channel];
 1422              		.loc 1 850 0
 1423 003a FB79     		ldrb	r3, [r7, #7]	@ zero_extendqisi2
 1424 003c 1B4A     		ldr	r2, .L41+4
 1425 003e 52F82330 		ldr	r3, [r2, r3, lsl #2]
ARM GAS  C:\Users\JEFFSN~1\AppData\Local\Temp\cc9h98U0.s 			page 41


 1426 0042 FA79     		ldrb	r2, [r7, #7]	@ zero_extendqisi2
 1427 0044 1949     		ldr	r1, .L41+4
 1428 0046 51F82220 		ldr	r2, [r1, r2, lsl #2]
 1429 004a 1178     		ldrb	r1, [r2]	@ zero_extendqisi2
 1430 004c FA79     		ldrb	r2, [r7, #7]	@ zero_extendqisi2
 1431 004e 1848     		ldr	r0, .L41+8
 1432 0050 825C     		ldrb	r2, [r0, r2]	@ zero_extendqisi2
 1433 0052 D243     		mvns	r2, r2
 1434 0054 D2B2     		uxtb	r2, r2
 1435 0056 0A40     		ands	r2, r2, r1
 1436 0058 D2B2     		uxtb	r2, r2
 1437 005a 1A70     		strb	r2, [r3]
 851:Generated_Source\PSoC5/cyfitter_cfg.c **** 		i = AMux_1_CYAMUXSIDE_A__innerMap[channel];
 1438              		.loc 1 851 0
 1439 005c FB79     		ldrb	r3, [r7, #7]	@ zero_extendqisi2
 1440 005e 154A     		ldr	r2, .L41+12
 1441 0060 D35C     		ldrb	r3, [r2, r3]
 1442 0062 BB73     		strb	r3, [r7, #14]
 852:Generated_Source\PSoC5/cyfitter_cfg.c **** 		AMux_1_CYAMUXSIDE_A__refCnt[i]--;
 1443              		.loc 1 852 0
 1444 0064 BB7B     		ldrb	r3, [r7, #14]	@ zero_extendqisi2
 1445 0066 144A     		ldr	r2, .L41+16
 1446 0068 D25C     		ldrb	r2, [r2, r3]	@ zero_extendqisi2
 1447 006a 013A     		subs	r2, r2, #1
 1448 006c D1B2     		uxtb	r1, r2
 1449 006e 124A     		ldr	r2, .L41+16
 1450 0070 D154     		strb	r1, [r2, r3]
 853:Generated_Source\PSoC5/cyfitter_cfg.c **** 		if (AMux_1_CYAMUXSIDE_A__refCnt[i] == 0)
 1451              		.loc 1 853 0
 1452 0072 BB7B     		ldrb	r3, [r7, #14]	@ zero_extendqisi2
 1453 0074 104A     		ldr	r2, .L41+16
 1454 0076 D35C     		ldrb	r3, [r2, r3]	@ zero_extendqisi2
 1455 0078 002B     		cmp	r3, #0
 1456 007a 10D1     		bne	.L40
 854:Generated_Source\PSoC5/cyfitter_cfg.c **** 		{
 855:Generated_Source\PSoC5/cyfitter_cfg.c **** 			*AMux_1_CYAMUXSIDE_A__innerAddr[i] &= (uint8)~AMux_1_CYAMUXSIDE_A__innerMask[i];
 1457              		.loc 1 855 0
 1458 007c BB7B     		ldrb	r3, [r7, #14]	@ zero_extendqisi2
 1459 007e 0F4A     		ldr	r2, .L41+20
 1460 0080 52F82330 		ldr	r3, [r2, r3, lsl #2]
 1461 0084 BA7B     		ldrb	r2, [r7, #14]	@ zero_extendqisi2
 1462 0086 0D49     		ldr	r1, .L41+20
 1463 0088 51F82220 		ldr	r2, [r1, r2, lsl #2]
 1464 008c 1178     		ldrb	r1, [r2]	@ zero_extendqisi2
 1465 008e BA7B     		ldrb	r2, [r7, #14]	@ zero_extendqisi2
 1466 0090 0B48     		ldr	r0, .L41+24
 1467 0092 825C     		ldrb	r2, [r0, r2]	@ zero_extendqisi2
 1468 0094 D243     		mvns	r2, r2
 1469 0096 D2B2     		uxtb	r2, r2
 1470 0098 0A40     		ands	r2, r2, r1
 1471 009a D2B2     		uxtb	r2, r2
 1472 009c 1A70     		strb	r2, [r3]
 1473              	.L40:
 856:Generated_Source\PSoC5/cyfitter_cfg.c **** 		}
 857:Generated_Source\PSoC5/cyfitter_cfg.c **** 	}
 858:Generated_Source\PSoC5/cyfitter_cfg.c **** }
 1474              		.loc 1 858 0
ARM GAS  C:\Users\JEFFSN~1\AppData\Local\Temp\cc9h98U0.s 			page 42


 1475 009e 00BF     		nop
 1476 00a0 1437     		adds	r7, r7, #20
 1477              		.cfi_def_cfa_offset 4
 1478 00a2 BD46     		mov	sp, r7
 1479              		.cfi_def_cfa_register 13
 1480              		@ sp needed
 1481 00a4 80BC     		pop	{r7}
 1482              		.cfi_restore 7
 1483              		.cfi_def_cfa_offset 0
 1484 00a6 7047     		bx	lr
 1485              	.L42:
 1486              		.align	2
 1487              	.L41:
 1488 00a8 00000000 		.word	AMux_1_CYAMUXSIDE_A__armsEnabled
 1489 00ac 00000000 		.word	AMux_1_CYAMUXSIDE_A__outerAddr
 1490 00b0 14000000 		.word	AMux_1_CYAMUXSIDE_A__outerMask
 1491 00b4 28000000 		.word	AMux_1_CYAMUXSIDE_A__innerMap
 1492 00b8 04000000 		.word	AMux_1_CYAMUXSIDE_A__refCnt
 1493 00bc 1C000000 		.word	AMux_1_CYAMUXSIDE_A__innerAddr
 1494 00c0 24000000 		.word	AMux_1_CYAMUXSIDE_A__innerMask
 1495              		.cfi_endproc
 1496              	.LFE9:
 1497              		.size	AMux_1_CYAMUXSIDE_A_Unset, .-AMux_1_CYAMUXSIDE_A_Unset
 1498              		.global	AMux_1_CYAMUXSIDE_B__addrTable
 1499              		.section	.rodata
 1500 002d 000000   		.align	2
 1501              		.type	AMux_1_CYAMUXSIDE_B__addrTable, %object
 1502              		.size	AMux_1_CYAMUXSIDE_B__addrTable, 40
 1503              	AMux_1_CYAMUXSIDE_B__addrTable:
 1504 0030 D85A0040 		.word	1073765080
 1505 0034 045B0040 		.word	1073765124
 1506 0038 035B0040 		.word	1073765123
 1507 003c 24430040 		.word	1073759012
 1508 0040 045B0040 		.word	1073765124
 1509 0044 24430040 		.word	1073759012
 1510 0048 035B0040 		.word	1073765123
 1511 004c 24430040 		.word	1073759012
 1512 0050 035B0040 		.word	1073765123
 1513 0054 24430040 		.word	1073759012
 1514              		.global	AMux_1_CYAMUXSIDE_B__maskTable
 1515              		.align	2
 1516              		.type	AMux_1_CYAMUXSIDE_B__maskTable, %object
 1517              		.size	AMux_1_CYAMUXSIDE_B__maskTable, 10
 1518              	AMux_1_CYAMUXSIDE_B__maskTable:
 1519 0058 80       		.byte	-128
 1520 0059 80       		.byte	-128
 1521 005a 40       		.byte	64
 1522 005b 00       		.byte	0
 1523 005c 20       		.byte	32
 1524 005d 00       		.byte	0
 1525 005e 40       		.byte	64
 1526 005f 00       		.byte	0
 1527 0060 40       		.byte	64
 1528 0061 00       		.byte	0
 1529              		.section	.text.AMux_1_CYAMUXSIDE_B_Set,"ax",%progbits
 1530              		.align	2
 1531              		.global	AMux_1_CYAMUXSIDE_B_Set
ARM GAS  C:\Users\JEFFSN~1\AppData\Local\Temp\cc9h98U0.s 			page 43


 1532              		.thumb
 1533              		.thumb_func
 1534              		.type	AMux_1_CYAMUXSIDE_B_Set, %function
 1535              	AMux_1_CYAMUXSIDE_B_Set:
 1536              	.LFB10:
 859:Generated_Source\PSoC5/cyfitter_cfg.c **** 
 860:Generated_Source\PSoC5/cyfitter_cfg.c **** /* This is an implementation detail of the AMux. Code that depends on it may be
 861:Generated_Source\PSoC5/cyfitter_cfg.c ****    incompatible with other versions of PSoC Creator. */
 862:Generated_Source\PSoC5/cyfitter_cfg.c **** uint8 CYXDATA * const CYCODE AMux_1_CYAMUXSIDE_B__addrTable[10] = {
 863:Generated_Source\PSoC5/cyfitter_cfg.c **** 	(uint8 CYXDATA *)CYREG_CMP3_SW0, (uint8 CYXDATA *)CYREG_DSM0_SW4, 
 864:Generated_Source\PSoC5/cyfitter_cfg.c **** 	(uint8 CYXDATA *)CYREG_DSM0_SW3, (uint8 CYXDATA *)CY_AMUX_UNUSED, 
 865:Generated_Source\PSoC5/cyfitter_cfg.c **** 	(uint8 CYXDATA *)CYREG_DSM0_SW4, (uint8 CYXDATA *)CY_AMUX_UNUSED, 
 866:Generated_Source\PSoC5/cyfitter_cfg.c **** 	(uint8 CYXDATA *)CYREG_DSM0_SW3, (uint8 CYXDATA *)CY_AMUX_UNUSED, 
 867:Generated_Source\PSoC5/cyfitter_cfg.c **** 	(uint8 CYXDATA *)CYREG_DSM0_SW3, (uint8 CYXDATA *)CY_AMUX_UNUSED, 
 868:Generated_Source\PSoC5/cyfitter_cfg.c **** };
 869:Generated_Source\PSoC5/cyfitter_cfg.c **** 
 870:Generated_Source\PSoC5/cyfitter_cfg.c **** /* This is an implementation detail of the AMux. Code that depends on it may be
 871:Generated_Source\PSoC5/cyfitter_cfg.c ****    incompatible with other versions of PSoC Creator. */
 872:Generated_Source\PSoC5/cyfitter_cfg.c **** const uint8 CYCODE AMux_1_CYAMUXSIDE_B__maskTable[10] = {
 873:Generated_Source\PSoC5/cyfitter_cfg.c **** 	0x80u, 0x80u, 
 874:Generated_Source\PSoC5/cyfitter_cfg.c **** 	0x40u, 0x00u, 
 875:Generated_Source\PSoC5/cyfitter_cfg.c **** 	0x20u, 0x00u, 
 876:Generated_Source\PSoC5/cyfitter_cfg.c **** 	0x40u, 0x00u, 
 877:Generated_Source\PSoC5/cyfitter_cfg.c **** 	0x40u, 0x00u, 
 878:Generated_Source\PSoC5/cyfitter_cfg.c **** };
 879:Generated_Source\PSoC5/cyfitter_cfg.c **** 
 880:Generated_Source\PSoC5/cyfitter_cfg.c **** /*******************************************************************************
 881:Generated_Source\PSoC5/cyfitter_cfg.c **** * Function Name: AMux_1_CYAMUXSIDE_B_Set
 882:Generated_Source\PSoC5/cyfitter_cfg.c **** ********************************************************************************
 883:Generated_Source\PSoC5/cyfitter_cfg.c **** * Summary:
 884:Generated_Source\PSoC5/cyfitter_cfg.c **** *  This function is used to set a particular channel as active on the AMux.
 885:Generated_Source\PSoC5/cyfitter_cfg.c **** *
 886:Generated_Source\PSoC5/cyfitter_cfg.c **** * Parameters:  
 887:Generated_Source\PSoC5/cyfitter_cfg.c **** *   channel - The mux channel input to set as active
 888:Generated_Source\PSoC5/cyfitter_cfg.c **** *
 889:Generated_Source\PSoC5/cyfitter_cfg.c **** * Return:
 890:Generated_Source\PSoC5/cyfitter_cfg.c **** *   void
 891:Generated_Source\PSoC5/cyfitter_cfg.c **** *
 892:Generated_Source\PSoC5/cyfitter_cfg.c **** *******************************************************************************/
 893:Generated_Source\PSoC5/cyfitter_cfg.c **** void AMux_1_CYAMUXSIDE_B_Set(uint8 channel)
 894:Generated_Source\PSoC5/cyfitter_cfg.c **** {
 1537              		.loc 1 894 0
 1538              		.cfi_startproc
 1539              		@ args = 0, pretend = 0, frame = 8
 1540              		@ frame_needed = 1, uses_anonymous_args = 0
 1541              		@ link register save eliminated.
 1542 0000 80B4     		push	{r7}
 1543              		.cfi_def_cfa_offset 4
 1544              		.cfi_offset 7, -4
 1545 0002 83B0     		sub	sp, sp, #12
 1546              		.cfi_def_cfa_offset 16
 1547 0004 00AF     		add	r7, sp, #0
 1548              		.cfi_def_cfa_register 7
 1549 0006 0346     		mov	r3, r0
 1550 0008 FB71     		strb	r3, [r7, #7]
 895:Generated_Source\PSoC5/cyfitter_cfg.c **** 	if (channel < 5)
 1551              		.loc 1 895 0
ARM GAS  C:\Users\JEFFSN~1\AppData\Local\Temp\cc9h98U0.s 			page 44


 1552 000a FB79     		ldrb	r3, [r7, #7]	@ zero_extendqisi2
 1553 000c 042B     		cmp	r3, #4
 1554 000e 24D8     		bhi	.L45
 896:Generated_Source\PSoC5/cyfitter_cfg.c **** 	{
 897:Generated_Source\PSoC5/cyfitter_cfg.c **** 		channel += channel;
 1555              		.loc 1 897 0
 1556 0010 FA79     		ldrb	r2, [r7, #7]
 1557 0012 FB79     		ldrb	r3, [r7, #7]
 1558 0014 1344     		add	r3, r3, r2
 1559 0016 FB71     		strb	r3, [r7, #7]
 898:Generated_Source\PSoC5/cyfitter_cfg.c **** 		*AMux_1_CYAMUXSIDE_B__addrTable[channel] |= AMux_1_CYAMUXSIDE_B__maskTable[channel];
 1560              		.loc 1 898 0
 1561 0018 FB79     		ldrb	r3, [r7, #7]	@ zero_extendqisi2
 1562 001a 124A     		ldr	r2, .L46
 1563 001c 52F82330 		ldr	r3, [r2, r3, lsl #2]
 1564 0020 FA79     		ldrb	r2, [r7, #7]	@ zero_extendqisi2
 1565 0022 1049     		ldr	r1, .L46
 1566 0024 51F82220 		ldr	r2, [r1, r2, lsl #2]
 1567 0028 1178     		ldrb	r1, [r2]	@ zero_extendqisi2
 1568 002a FA79     		ldrb	r2, [r7, #7]	@ zero_extendqisi2
 1569 002c 0E48     		ldr	r0, .L46+4
 1570 002e 825C     		ldrb	r2, [r0, r2]	@ zero_extendqisi2
 1571 0030 0A43     		orrs	r2, r2, r1
 1572 0032 D2B2     		uxtb	r2, r2
 1573 0034 1A70     		strb	r2, [r3]
 899:Generated_Source\PSoC5/cyfitter_cfg.c **** 		channel++;
 1574              		.loc 1 899 0
 1575 0036 FB79     		ldrb	r3, [r7, #7]	@ zero_extendqisi2
 1576 0038 0133     		adds	r3, r3, #1
 1577 003a FB71     		strb	r3, [r7, #7]
 900:Generated_Source\PSoC5/cyfitter_cfg.c **** 		*AMux_1_CYAMUXSIDE_B__addrTable[channel] |= AMux_1_CYAMUXSIDE_B__maskTable[channel];
 1578              		.loc 1 900 0
 1579 003c FB79     		ldrb	r3, [r7, #7]	@ zero_extendqisi2
 1580 003e 094A     		ldr	r2, .L46
 1581 0040 52F82330 		ldr	r3, [r2, r3, lsl #2]
 1582 0044 FA79     		ldrb	r2, [r7, #7]	@ zero_extendqisi2
 1583 0046 0749     		ldr	r1, .L46
 1584 0048 51F82220 		ldr	r2, [r1, r2, lsl #2]
 1585 004c 1178     		ldrb	r1, [r2]	@ zero_extendqisi2
 1586 004e FA79     		ldrb	r2, [r7, #7]	@ zero_extendqisi2
 1587 0050 0548     		ldr	r0, .L46+4
 1588 0052 825C     		ldrb	r2, [r0, r2]	@ zero_extendqisi2
 1589 0054 0A43     		orrs	r2, r2, r1
 1590 0056 D2B2     		uxtb	r2, r2
 1591 0058 1A70     		strb	r2, [r3]
 1592              	.L45:
 901:Generated_Source\PSoC5/cyfitter_cfg.c **** 	}
 902:Generated_Source\PSoC5/cyfitter_cfg.c **** }
 1593              		.loc 1 902 0
 1594 005a 00BF     		nop
 1595 005c 0C37     		adds	r7, r7, #12
 1596              		.cfi_def_cfa_offset 4
 1597 005e BD46     		mov	sp, r7
 1598              		.cfi_def_cfa_register 13
 1599              		@ sp needed
 1600 0060 80BC     		pop	{r7}
 1601              		.cfi_restore 7
ARM GAS  C:\Users\JEFFSN~1\AppData\Local\Temp\cc9h98U0.s 			page 45


 1602              		.cfi_def_cfa_offset 0
 1603 0062 7047     		bx	lr
 1604              	.L47:
 1605              		.align	2
 1606              	.L46:
 1607 0064 00000000 		.word	AMux_1_CYAMUXSIDE_B__addrTable
 1608 0068 00000000 		.word	AMux_1_CYAMUXSIDE_B__maskTable
 1609              		.cfi_endproc
 1610              	.LFE10:
 1611              		.size	AMux_1_CYAMUXSIDE_B_Set, .-AMux_1_CYAMUXSIDE_B_Set
 1612              		.section	.text.AMux_1_CYAMUXSIDE_B_Unset,"ax",%progbits
 1613              		.align	2
 1614              		.global	AMux_1_CYAMUXSIDE_B_Unset
 1615              		.thumb
 1616              		.thumb_func
 1617              		.type	AMux_1_CYAMUXSIDE_B_Unset, %function
 1618              	AMux_1_CYAMUXSIDE_B_Unset:
 1619              	.LFB11:
 903:Generated_Source\PSoC5/cyfitter_cfg.c **** 
 904:Generated_Source\PSoC5/cyfitter_cfg.c **** /*******************************************************************************
 905:Generated_Source\PSoC5/cyfitter_cfg.c **** * Function Name: AMux_1_CYAMUXSIDE_B_Unset
 906:Generated_Source\PSoC5/cyfitter_cfg.c **** ********************************************************************************
 907:Generated_Source\PSoC5/cyfitter_cfg.c **** * Summary:
 908:Generated_Source\PSoC5/cyfitter_cfg.c **** *  This function is used to clear a particular channel from being active on the
 909:Generated_Source\PSoC5/cyfitter_cfg.c **** *  AMux.
 910:Generated_Source\PSoC5/cyfitter_cfg.c **** *
 911:Generated_Source\PSoC5/cyfitter_cfg.c **** * Parameters:  
 912:Generated_Source\PSoC5/cyfitter_cfg.c **** *   channel - The mux channel input to mark inactive
 913:Generated_Source\PSoC5/cyfitter_cfg.c **** *
 914:Generated_Source\PSoC5/cyfitter_cfg.c **** * Return:
 915:Generated_Source\PSoC5/cyfitter_cfg.c **** *   void
 916:Generated_Source\PSoC5/cyfitter_cfg.c **** *
 917:Generated_Source\PSoC5/cyfitter_cfg.c **** *******************************************************************************/
 918:Generated_Source\PSoC5/cyfitter_cfg.c **** void AMux_1_CYAMUXSIDE_B_Unset(uint8 channel)
 919:Generated_Source\PSoC5/cyfitter_cfg.c **** {
 1620              		.loc 1 919 0
 1621              		.cfi_startproc
 1622              		@ args = 0, pretend = 0, frame = 8
 1623              		@ frame_needed = 1, uses_anonymous_args = 0
 1624              		@ link register save eliminated.
 1625 0000 80B4     		push	{r7}
 1626              		.cfi_def_cfa_offset 4
 1627              		.cfi_offset 7, -4
 1628 0002 83B0     		sub	sp, sp, #12
 1629              		.cfi_def_cfa_offset 16
 1630 0004 00AF     		add	r7, sp, #0
 1631              		.cfi_def_cfa_register 7
 1632 0006 0346     		mov	r3, r0
 1633 0008 FB71     		strb	r3, [r7, #7]
 920:Generated_Source\PSoC5/cyfitter_cfg.c **** 	if (channel < 5)
 1634              		.loc 1 920 0
 1635 000a FB79     		ldrb	r3, [r7, #7]	@ zero_extendqisi2
 1636 000c 042B     		cmp	r3, #4
 1637 000e 28D8     		bhi	.L50
 921:Generated_Source\PSoC5/cyfitter_cfg.c **** 	{
 922:Generated_Source\PSoC5/cyfitter_cfg.c **** 		channel += channel;
 1638              		.loc 1 922 0
ARM GAS  C:\Users\JEFFSN~1\AppData\Local\Temp\cc9h98U0.s 			page 46


 1639 0010 FA79     		ldrb	r2, [r7, #7]
 1640 0012 FB79     		ldrb	r3, [r7, #7]
 1641 0014 1344     		add	r3, r3, r2
 1642 0016 FB71     		strb	r3, [r7, #7]
 923:Generated_Source\PSoC5/cyfitter_cfg.c **** 		*AMux_1_CYAMUXSIDE_B__addrTable[channel] &= (uint8)~AMux_1_CYAMUXSIDE_B__maskTable[channel];
 1643              		.loc 1 923 0
 1644 0018 FB79     		ldrb	r3, [r7, #7]	@ zero_extendqisi2
 1645 001a 144A     		ldr	r2, .L51
 1646 001c 52F82330 		ldr	r3, [r2, r3, lsl #2]
 1647 0020 FA79     		ldrb	r2, [r7, #7]	@ zero_extendqisi2
 1648 0022 1249     		ldr	r1, .L51
 1649 0024 51F82220 		ldr	r2, [r1, r2, lsl #2]
 1650 0028 1178     		ldrb	r1, [r2]	@ zero_extendqisi2
 1651 002a FA79     		ldrb	r2, [r7, #7]	@ zero_extendqisi2
 1652 002c 1048     		ldr	r0, .L51+4
 1653 002e 825C     		ldrb	r2, [r0, r2]	@ zero_extendqisi2
 1654 0030 D243     		mvns	r2, r2
 1655 0032 D2B2     		uxtb	r2, r2
 1656 0034 0A40     		ands	r2, r2, r1
 1657 0036 D2B2     		uxtb	r2, r2
 1658 0038 1A70     		strb	r2, [r3]
 924:Generated_Source\PSoC5/cyfitter_cfg.c **** 		channel++;
 1659              		.loc 1 924 0
 1660 003a FB79     		ldrb	r3, [r7, #7]	@ zero_extendqisi2
 1661 003c 0133     		adds	r3, r3, #1
 1662 003e FB71     		strb	r3, [r7, #7]
 925:Generated_Source\PSoC5/cyfitter_cfg.c **** 		*AMux_1_CYAMUXSIDE_B__addrTable[channel] &= (uint8)~AMux_1_CYAMUXSIDE_B__maskTable[channel];
 1663              		.loc 1 925 0
 1664 0040 FB79     		ldrb	r3, [r7, #7]	@ zero_extendqisi2
 1665 0042 0A4A     		ldr	r2, .L51
 1666 0044 52F82330 		ldr	r3, [r2, r3, lsl #2]
 1667 0048 FA79     		ldrb	r2, [r7, #7]	@ zero_extendqisi2
 1668 004a 0849     		ldr	r1, .L51
 1669 004c 51F82220 		ldr	r2, [r1, r2, lsl #2]
 1670 0050 1178     		ldrb	r1, [r2]	@ zero_extendqisi2
 1671 0052 FA79     		ldrb	r2, [r7, #7]	@ zero_extendqisi2
 1672 0054 0648     		ldr	r0, .L51+4
 1673 0056 825C     		ldrb	r2, [r0, r2]	@ zero_extendqisi2
 1674 0058 D243     		mvns	r2, r2
 1675 005a D2B2     		uxtb	r2, r2
 1676 005c 0A40     		ands	r2, r2, r1
 1677 005e D2B2     		uxtb	r2, r2
 1678 0060 1A70     		strb	r2, [r3]
 1679              	.L50:
 926:Generated_Source\PSoC5/cyfitter_cfg.c **** 	}
 927:Generated_Source\PSoC5/cyfitter_cfg.c **** }
 1680              		.loc 1 927 0
 1681 0062 00BF     		nop
 1682 0064 0C37     		adds	r7, r7, #12
 1683              		.cfi_def_cfa_offset 4
 1684 0066 BD46     		mov	sp, r7
 1685              		.cfi_def_cfa_register 13
 1686              		@ sp needed
 1687 0068 80BC     		pop	{r7}
 1688              		.cfi_restore 7
 1689              		.cfi_def_cfa_offset 0
 1690 006a 7047     		bx	lr
ARM GAS  C:\Users\JEFFSN~1\AppData\Local\Temp\cc9h98U0.s 			page 47


 1691              	.L52:
 1692              		.align	2
 1693              	.L51:
 1694 006c 00000000 		.word	AMux_1_CYAMUXSIDE_B__addrTable
 1695 0070 00000000 		.word	AMux_1_CYAMUXSIDE_B__maskTable
 1696              		.cfi_endproc
 1697              	.LFE11:
 1698              		.size	AMux_1_CYAMUXSIDE_B_Unset, .-AMux_1_CYAMUXSIDE_B_Unset
 1699              		.global	CapSense_AMuxCH0__addrTable
 1700              		.section	.rodata
 1701 0062 0000     		.align	2
 1702              		.type	CapSense_AMuxCH0__addrTable, %object
 1703              		.size	CapSense_AMuxCH0__addrTable, 60
 1704              	CapSense_AMuxCH0__addrTable:
 1705 0064 2C510040 		.word	1073762604
 1706 0068 2C510040 		.word	1073762604
 1707 006c 2C510040 		.word	1073762604
 1708 0070 2C510040 		.word	1073762604
 1709 0074 2C510040 		.word	1073762604
 1710 0078 6C510040 		.word	1073762668
 1711 007c 6C510040 		.word	1073762668
 1712 0080 6C510040 		.word	1073762668
 1713 0084 6C510040 		.word	1073762668
 1714 0088 2C510040 		.word	1073762604
 1715 008c 2C510040 		.word	1073762604
 1716 0090 2C510040 		.word	1073762604
 1717 0094 FC510040 		.word	1073762812
 1718 0098 C35A0040 		.word	1073765059
 1719 009c 935A0040 		.word	1073765011
 1720              		.global	CapSense_AMuxCH0__maskTable
 1721              		.align	2
 1722              		.type	CapSense_AMuxCH0__maskTable, %object
 1723              		.size	CapSense_AMuxCH0__maskTable, 15
 1724              	CapSense_AMuxCH0__maskTable:
 1725 00a0 80       		.byte	-128
 1726 00a1 40       		.byte	64
 1727 00a2 20       		.byte	32
 1728 00a3 10       		.byte	16
 1729 00a4 08       		.byte	8
 1730 00a5 10       		.byte	16
 1731 00a6 20       		.byte	32
 1732 00a7 40       		.byte	64
 1733 00a8 80       		.byte	-128
 1734 00a9 01       		.byte	1
 1735 00aa 04       		.byte	4
 1736 00ab 02       		.byte	2
 1737 00ac 10       		.byte	16
 1738 00ad 01       		.byte	1
 1739 00ae 10       		.byte	16
 1740              		.section	.text.CapSense_AMuxCH0_Set,"ax",%progbits
 1741              		.align	2
 1742              		.global	CapSense_AMuxCH0_Set
 1743              		.thumb
 1744              		.thumb_func
 1745              		.type	CapSense_AMuxCH0_Set, %function
 1746              	CapSense_AMuxCH0_Set:
 1747              	.LFB12:
ARM GAS  C:\Users\JEFFSN~1\AppData\Local\Temp\cc9h98U0.s 			page 48


 928:Generated_Source\PSoC5/cyfitter_cfg.c **** 
 929:Generated_Source\PSoC5/cyfitter_cfg.c **** /* This is an implementation detail of the AMux. Code that depends on it may be
 930:Generated_Source\PSoC5/cyfitter_cfg.c ****    incompatible with other versions of PSoC Creator. */
 931:Generated_Source\PSoC5/cyfitter_cfg.c **** uint8 CYXDATA * const CYCODE CapSense_AMuxCH0__addrTable[15] = {
 932:Generated_Source\PSoC5/cyfitter_cfg.c **** 	(uint8 CYXDATA *)CYREG_PRT2_AMUX, 
 933:Generated_Source\PSoC5/cyfitter_cfg.c **** 	(uint8 CYXDATA *)CYREG_PRT2_AMUX, 
 934:Generated_Source\PSoC5/cyfitter_cfg.c **** 	(uint8 CYXDATA *)CYREG_PRT2_AMUX, 
 935:Generated_Source\PSoC5/cyfitter_cfg.c **** 	(uint8 CYXDATA *)CYREG_PRT2_AMUX, 
 936:Generated_Source\PSoC5/cyfitter_cfg.c **** 	(uint8 CYXDATA *)CYREG_PRT2_AMUX, 
 937:Generated_Source\PSoC5/cyfitter_cfg.c **** 	(uint8 CYXDATA *)CYREG_PRT6_AMUX, 
 938:Generated_Source\PSoC5/cyfitter_cfg.c **** 	(uint8 CYXDATA *)CYREG_PRT6_AMUX, 
 939:Generated_Source\PSoC5/cyfitter_cfg.c **** 	(uint8 CYXDATA *)CYREG_PRT6_AMUX, 
 940:Generated_Source\PSoC5/cyfitter_cfg.c **** 	(uint8 CYXDATA *)CYREG_PRT6_AMUX, 
 941:Generated_Source\PSoC5/cyfitter_cfg.c **** 	(uint8 CYXDATA *)CYREG_PRT2_AMUX, 
 942:Generated_Source\PSoC5/cyfitter_cfg.c **** 	(uint8 CYXDATA *)CYREG_PRT2_AMUX, 
 943:Generated_Source\PSoC5/cyfitter_cfg.c **** 	(uint8 CYXDATA *)CYREG_PRT2_AMUX, 
 944:Generated_Source\PSoC5/cyfitter_cfg.c **** 	(uint8 CYXDATA *)CYREG_PRT15_AMUX, 
 945:Generated_Source\PSoC5/cyfitter_cfg.c **** 	(uint8 CYXDATA *)CYREG_CMP0_SW3, 
 946:Generated_Source\PSoC5/cyfitter_cfg.c **** 	(uint8 CYXDATA *)CYREG_DAC2_SW3, 
 947:Generated_Source\PSoC5/cyfitter_cfg.c **** };
 948:Generated_Source\PSoC5/cyfitter_cfg.c **** 
 949:Generated_Source\PSoC5/cyfitter_cfg.c **** /* This is an implementation detail of the AMux. Code that depends on it may be
 950:Generated_Source\PSoC5/cyfitter_cfg.c ****    incompatible with other versions of PSoC Creator. */
 951:Generated_Source\PSoC5/cyfitter_cfg.c **** const uint8 CYCODE CapSense_AMuxCH0__maskTable[15] = {
 952:Generated_Source\PSoC5/cyfitter_cfg.c **** 	0x80u, 
 953:Generated_Source\PSoC5/cyfitter_cfg.c **** 	0x40u, 
 954:Generated_Source\PSoC5/cyfitter_cfg.c **** 	0x20u, 
 955:Generated_Source\PSoC5/cyfitter_cfg.c **** 	0x10u, 
 956:Generated_Source\PSoC5/cyfitter_cfg.c **** 	0x08u, 
 957:Generated_Source\PSoC5/cyfitter_cfg.c **** 	0x10u, 
 958:Generated_Source\PSoC5/cyfitter_cfg.c **** 	0x20u, 
 959:Generated_Source\PSoC5/cyfitter_cfg.c **** 	0x40u, 
 960:Generated_Source\PSoC5/cyfitter_cfg.c **** 	0x80u, 
 961:Generated_Source\PSoC5/cyfitter_cfg.c **** 	0x01u, 
 962:Generated_Source\PSoC5/cyfitter_cfg.c **** 	0x04u, 
 963:Generated_Source\PSoC5/cyfitter_cfg.c **** 	0x02u, 
 964:Generated_Source\PSoC5/cyfitter_cfg.c **** 	0x10u, 
 965:Generated_Source\PSoC5/cyfitter_cfg.c **** 	0x01u, 
 966:Generated_Source\PSoC5/cyfitter_cfg.c **** 	0x10u, 
 967:Generated_Source\PSoC5/cyfitter_cfg.c **** };
 968:Generated_Source\PSoC5/cyfitter_cfg.c **** 
 969:Generated_Source\PSoC5/cyfitter_cfg.c **** /*******************************************************************************
 970:Generated_Source\PSoC5/cyfitter_cfg.c **** * Function Name: CapSense_AMuxCH0_Set
 971:Generated_Source\PSoC5/cyfitter_cfg.c **** ********************************************************************************
 972:Generated_Source\PSoC5/cyfitter_cfg.c **** * Summary:
 973:Generated_Source\PSoC5/cyfitter_cfg.c **** *  This function is used to set a particular channel as active on the AMux.
 974:Generated_Source\PSoC5/cyfitter_cfg.c **** *
 975:Generated_Source\PSoC5/cyfitter_cfg.c **** * Parameters:  
 976:Generated_Source\PSoC5/cyfitter_cfg.c **** *   channel - The mux channel input to set as active
 977:Generated_Source\PSoC5/cyfitter_cfg.c **** *
 978:Generated_Source\PSoC5/cyfitter_cfg.c **** * Return:
 979:Generated_Source\PSoC5/cyfitter_cfg.c **** *   void
 980:Generated_Source\PSoC5/cyfitter_cfg.c **** *
 981:Generated_Source\PSoC5/cyfitter_cfg.c **** *******************************************************************************/
 982:Generated_Source\PSoC5/cyfitter_cfg.c **** void CapSense_AMuxCH0_Set(uint8 channel)
 983:Generated_Source\PSoC5/cyfitter_cfg.c **** {
 1748              		.loc 1 983 0
ARM GAS  C:\Users\JEFFSN~1\AppData\Local\Temp\cc9h98U0.s 			page 49


 1749              		.cfi_startproc
 1750              		@ args = 0, pretend = 0, frame = 8
 1751              		@ frame_needed = 1, uses_anonymous_args = 0
 1752              		@ link register save eliminated.
 1753 0000 80B4     		push	{r7}
 1754              		.cfi_def_cfa_offset 4
 1755              		.cfi_offset 7, -4
 1756 0002 83B0     		sub	sp, sp, #12
 1757              		.cfi_def_cfa_offset 16
 1758 0004 00AF     		add	r7, sp, #0
 1759              		.cfi_def_cfa_register 7
 1760 0006 0346     		mov	r3, r0
 1761 0008 FB71     		strb	r3, [r7, #7]
 984:Generated_Source\PSoC5/cyfitter_cfg.c **** 	if (channel < 15)
 1762              		.loc 1 984 0
 1763 000a FB79     		ldrb	r3, [r7, #7]	@ zero_extendqisi2
 1764 000c 0E2B     		cmp	r3, #14
 1765 000e 0ED8     		bhi	.L55
 985:Generated_Source\PSoC5/cyfitter_cfg.c **** 	{
 986:Generated_Source\PSoC5/cyfitter_cfg.c **** 		*CapSense_AMuxCH0__addrTable[channel] |= CapSense_AMuxCH0__maskTable[channel];
 1766              		.loc 1 986 0
 1767 0010 FB79     		ldrb	r3, [r7, #7]	@ zero_extendqisi2
 1768 0012 094A     		ldr	r2, .L56
 1769 0014 52F82330 		ldr	r3, [r2, r3, lsl #2]
 1770 0018 FA79     		ldrb	r2, [r7, #7]	@ zero_extendqisi2
 1771 001a 0749     		ldr	r1, .L56
 1772 001c 51F82220 		ldr	r2, [r1, r2, lsl #2]
 1773 0020 1178     		ldrb	r1, [r2]	@ zero_extendqisi2
 1774 0022 FA79     		ldrb	r2, [r7, #7]	@ zero_extendqisi2
 1775 0024 0548     		ldr	r0, .L56+4
 1776 0026 825C     		ldrb	r2, [r0, r2]	@ zero_extendqisi2
 1777 0028 0A43     		orrs	r2, r2, r1
 1778 002a D2B2     		uxtb	r2, r2
 1779 002c 1A70     		strb	r2, [r3]
 1780              	.L55:
 987:Generated_Source\PSoC5/cyfitter_cfg.c **** 	}
 988:Generated_Source\PSoC5/cyfitter_cfg.c **** }
 1781              		.loc 1 988 0
 1782 002e 00BF     		nop
 1783 0030 0C37     		adds	r7, r7, #12
 1784              		.cfi_def_cfa_offset 4
 1785 0032 BD46     		mov	sp, r7
 1786              		.cfi_def_cfa_register 13
 1787              		@ sp needed
 1788 0034 80BC     		pop	{r7}
 1789              		.cfi_restore 7
 1790              		.cfi_def_cfa_offset 0
 1791 0036 7047     		bx	lr
 1792              	.L57:
 1793              		.align	2
 1794              	.L56:
 1795 0038 00000000 		.word	CapSense_AMuxCH0__addrTable
 1796 003c 00000000 		.word	CapSense_AMuxCH0__maskTable
 1797              		.cfi_endproc
 1798              	.LFE12:
 1799              		.size	CapSense_AMuxCH0_Set, .-CapSense_AMuxCH0_Set
 1800              		.section	.text.CapSense_AMuxCH0_Unset,"ax",%progbits
ARM GAS  C:\Users\JEFFSN~1\AppData\Local\Temp\cc9h98U0.s 			page 50


 1801              		.align	2
 1802              		.global	CapSense_AMuxCH0_Unset
 1803              		.thumb
 1804              		.thumb_func
 1805              		.type	CapSense_AMuxCH0_Unset, %function
 1806              	CapSense_AMuxCH0_Unset:
 1807              	.LFB13:
 989:Generated_Source\PSoC5/cyfitter_cfg.c **** 
 990:Generated_Source\PSoC5/cyfitter_cfg.c **** /*******************************************************************************
 991:Generated_Source\PSoC5/cyfitter_cfg.c **** * Function Name: CapSense_AMuxCH0_Unset
 992:Generated_Source\PSoC5/cyfitter_cfg.c **** ********************************************************************************
 993:Generated_Source\PSoC5/cyfitter_cfg.c **** * Summary:
 994:Generated_Source\PSoC5/cyfitter_cfg.c **** *  This function is used to clear a particular channel from being active on the
 995:Generated_Source\PSoC5/cyfitter_cfg.c **** *  AMux.
 996:Generated_Source\PSoC5/cyfitter_cfg.c **** *
 997:Generated_Source\PSoC5/cyfitter_cfg.c **** * Parameters:  
 998:Generated_Source\PSoC5/cyfitter_cfg.c **** *   channel - The mux channel input to mark inactive
 999:Generated_Source\PSoC5/cyfitter_cfg.c **** *
1000:Generated_Source\PSoC5/cyfitter_cfg.c **** * Return:
1001:Generated_Source\PSoC5/cyfitter_cfg.c **** *   void
1002:Generated_Source\PSoC5/cyfitter_cfg.c **** *
1003:Generated_Source\PSoC5/cyfitter_cfg.c **** *******************************************************************************/
1004:Generated_Source\PSoC5/cyfitter_cfg.c **** void CapSense_AMuxCH0_Unset(uint8 channel)
1005:Generated_Source\PSoC5/cyfitter_cfg.c **** {
 1808              		.loc 1 1005 0
 1809              		.cfi_startproc
 1810              		@ args = 0, pretend = 0, frame = 8
 1811              		@ frame_needed = 1, uses_anonymous_args = 0
 1812              		@ link register save eliminated.
 1813 0000 80B4     		push	{r7}
 1814              		.cfi_def_cfa_offset 4
 1815              		.cfi_offset 7, -4
 1816 0002 83B0     		sub	sp, sp, #12
 1817              		.cfi_def_cfa_offset 16
 1818 0004 00AF     		add	r7, sp, #0
 1819              		.cfi_def_cfa_register 7
 1820 0006 0346     		mov	r3, r0
 1821 0008 FB71     		strb	r3, [r7, #7]
1006:Generated_Source\PSoC5/cyfitter_cfg.c **** 	if (channel < 15)
 1822              		.loc 1 1006 0
 1823 000a FB79     		ldrb	r3, [r7, #7]	@ zero_extendqisi2
 1824 000c 0E2B     		cmp	r3, #14
 1825 000e 10D8     		bhi	.L60
1007:Generated_Source\PSoC5/cyfitter_cfg.c **** 	{
1008:Generated_Source\PSoC5/cyfitter_cfg.c **** 		*CapSense_AMuxCH0__addrTable[channel] &= (uint8)~CapSense_AMuxCH0__maskTable[channel];
 1826              		.loc 1 1008 0
 1827 0010 FB79     		ldrb	r3, [r7, #7]	@ zero_extendqisi2
 1828 0012 0A4A     		ldr	r2, .L61
 1829 0014 52F82330 		ldr	r3, [r2, r3, lsl #2]
 1830 0018 FA79     		ldrb	r2, [r7, #7]	@ zero_extendqisi2
 1831 001a 0849     		ldr	r1, .L61
 1832 001c 51F82220 		ldr	r2, [r1, r2, lsl #2]
 1833 0020 1178     		ldrb	r1, [r2]	@ zero_extendqisi2
 1834 0022 FA79     		ldrb	r2, [r7, #7]	@ zero_extendqisi2
 1835 0024 0648     		ldr	r0, .L61+4
 1836 0026 825C     		ldrb	r2, [r0, r2]	@ zero_extendqisi2
 1837 0028 D243     		mvns	r2, r2
ARM GAS  C:\Users\JEFFSN~1\AppData\Local\Temp\cc9h98U0.s 			page 51


 1838 002a D2B2     		uxtb	r2, r2
 1839 002c 0A40     		ands	r2, r2, r1
 1840 002e D2B2     		uxtb	r2, r2
 1841 0030 1A70     		strb	r2, [r3]
 1842              	.L60:
1009:Generated_Source\PSoC5/cyfitter_cfg.c **** 	}
1010:Generated_Source\PSoC5/cyfitter_cfg.c **** }
 1843              		.loc 1 1010 0
 1844 0032 00BF     		nop
 1845 0034 0C37     		adds	r7, r7, #12
 1846              		.cfi_def_cfa_offset 4
 1847 0036 BD46     		mov	sp, r7
 1848              		.cfi_def_cfa_register 13
 1849              		@ sp needed
 1850 0038 80BC     		pop	{r7}
 1851              		.cfi_restore 7
 1852              		.cfi_def_cfa_offset 0
 1853 003a 7047     		bx	lr
 1854              	.L62:
 1855              		.align	2
 1856              	.L61:
 1857 003c 00000000 		.word	CapSense_AMuxCH0__addrTable
 1858 0040 00000000 		.word	CapSense_AMuxCH0__maskTable
 1859              		.cfi_endproc
 1860              	.LFE13:
 1861              		.size	CapSense_AMuxCH0_Unset, .-CapSense_AMuxCH0_Unset
 1862              		.section	.text.cyfitter_cfg,"ax",%progbits
 1863              		.align	2
 1864              		.global	cyfitter_cfg
 1865              		.thumb
 1866              		.thumb_func
 1867              		.type	cyfitter_cfg, %function
 1868              	cyfitter_cfg:
 1869              	.LFB14:
1011:Generated_Source\PSoC5/cyfitter_cfg.c **** 
1012:Generated_Source\PSoC5/cyfitter_cfg.c **** 
1013:Generated_Source\PSoC5/cyfitter_cfg.c **** 
1014:Generated_Source\PSoC5/cyfitter_cfg.c **** /*******************************************************************************
1015:Generated_Source\PSoC5/cyfitter_cfg.c **** * Function Name: cyfitter_cfg
1016:Generated_Source\PSoC5/cyfitter_cfg.c **** ********************************************************************************
1017:Generated_Source\PSoC5/cyfitter_cfg.c **** * Summary:
1018:Generated_Source\PSoC5/cyfitter_cfg.c **** *  This function is called by the start-up code for the selected device. It
1019:Generated_Source\PSoC5/cyfitter_cfg.c **** *  performs all of the necessary device configuration based on the design
1020:Generated_Source\PSoC5/cyfitter_cfg.c **** *  settings.  This includes settings from the Design Wide Resources (DWR) such
1021:Generated_Source\PSoC5/cyfitter_cfg.c **** *  as Clocks and Pins as well as any component configuration that is necessary.
1022:Generated_Source\PSoC5/cyfitter_cfg.c **** *
1023:Generated_Source\PSoC5/cyfitter_cfg.c **** * Parameters:
1024:Generated_Source\PSoC5/cyfitter_cfg.c **** *   void
1025:Generated_Source\PSoC5/cyfitter_cfg.c **** *
1026:Generated_Source\PSoC5/cyfitter_cfg.c **** * Return:
1027:Generated_Source\PSoC5/cyfitter_cfg.c **** *   void
1028:Generated_Source\PSoC5/cyfitter_cfg.c **** *
1029:Generated_Source\PSoC5/cyfitter_cfg.c **** *******************************************************************************/
1030:Generated_Source\PSoC5/cyfitter_cfg.c **** 
1031:Generated_Source\PSoC5/cyfitter_cfg.c **** void cyfitter_cfg(void)
1032:Generated_Source\PSoC5/cyfitter_cfg.c **** {
 1870              		.loc 1 1032 0
ARM GAS  C:\Users\JEFFSN~1\AppData\Local\Temp\cc9h98U0.s 			page 52


 1871              		.cfi_startproc
 1872              		@ args = 0, pretend = 0, frame = 0
 1873              		@ frame_needed = 1, uses_anonymous_args = 0
 1874 0000 80B5     		push	{r7, lr}
 1875              		.cfi_def_cfa_offset 8
 1876              		.cfi_offset 7, -8
 1877              		.cfi_offset 14, -4
 1878 0002 00AF     		add	r7, sp, #0
 1879              		.cfi_def_cfa_register 7
1033:Generated_Source\PSoC5/cyfitter_cfg.c **** #ifdef CYGlobalIntDisable
1034:Generated_Source\PSoC5/cyfitter_cfg.c **** 	/* Disable interrupts by default. Let user enable if/when they want. */
1035:Generated_Source\PSoC5/cyfitter_cfg.c **** 	CYGlobalIntDisable
 1880              		.loc 1 1035 0
 1881              		.syntax unified
 1882              	@ 1035 "Generated_Source\PSoC5\cyfitter_cfg.c" 1
 1883 0004 72B6     		CPSID   i
 1884              	@ 0 "" 2
1036:Generated_Source\PSoC5/cyfitter_cfg.c **** #endif
1037:Generated_Source\PSoC5/cyfitter_cfg.c **** 
1038:Generated_Source\PSoC5/cyfitter_cfg.c **** 
1039:Generated_Source\PSoC5/cyfitter_cfg.c **** 	/* Set Flash Cycles based on max possible frequency in case a glitch occurs during ClockSetup(). *
1040:Generated_Source\PSoC5/cyfitter_cfg.c **** 	CY_SET_XTND_REG8((void CYFAR *)(CYREG_CACHE_CC_CTL), (((CYDEV_INSTRUCT_CACHE_ENABLED) != 0) ? 0x61
 1885              		.loc 1 1040 0
 1886              		.thumb
 1887              		.syntax unified
 1888 0006 364B     		ldr	r3, .L64
 1889 0008 6122     		movs	r2, #97
 1890 000a 1A70     		strb	r2, [r3]
1041:Generated_Source\PSoC5/cyfitter_cfg.c **** 	/* Setup clocks based on selections from Clock DWR */
1042:Generated_Source\PSoC5/cyfitter_cfg.c **** 	ClockSetup();
 1891              		.loc 1 1042 0
 1892 000c FFF7FEFF 		bl	ClockSetup
1043:Generated_Source\PSoC5/cyfitter_cfg.c **** 	{
1044:Generated_Source\PSoC5/cyfitter_cfg.c **** 		cfg_dma_init();
 1893              		.loc 1 1044 0
 1894 0010 FFF7FEFF 		bl	cfg_dma_init
1045:Generated_Source\PSoC5/cyfitter_cfg.c **** 
1046:Generated_Source\PSoC5/cyfitter_cfg.c **** 		/* Perform normal device configuration. Order is not critical for these items. */
1047:Generated_Source\PSoC5/cyfitter_cfg.c **** 		CY_SET_XTND_REG16((void CYFAR *)(CYREG_CAPSL_CFG0), 0x0300u);
 1895              		.loc 1 1047 0
 1896 0014 334B     		ldr	r3, .L64+4
 1897 0016 4FF44072 		mov	r2, #768
 1898 001a 1A80     		strh	r2, [r3]	@ movhi
1048:Generated_Source\PSoC5/cyfitter_cfg.c **** 		CY_SET_XTND_REG8((void CYFAR *)(CYREG_DSM0_CR3), 0x0Au);
 1899              		.loc 1 1048 0
 1900 001c 324B     		ldr	r3, .L64+8
 1901 001e 0A22     		movs	r2, #10
 1902 0020 1A70     		strb	r2, [r3]
1049:Generated_Source\PSoC5/cyfitter_cfg.c **** 		CY_SET_XTND_REG16((void CYFAR *)(CYREG_LUT0_CR), 0x0003u);
 1903              		.loc 1 1049 0
 1904 0022 324B     		ldr	r3, .L64+12
 1905 0024 0322     		movs	r2, #3
 1906 0026 1A80     		strh	r2, [r3]	@ movhi
1050:Generated_Source\PSoC5/cyfitter_cfg.c **** 
1051:Generated_Source\PSoC5/cyfitter_cfg.c **** 		/* B0_P4_U1_CFG24 Starting address: CYDEV_UCFG_B0_P4_U1_CFG24 */
1052:Generated_Source\PSoC5/cyfitter_cfg.c **** 		CY_SET_XTND_REG32((void CYFAR *)(CYREG_B0_P4_U1_CFG24), 0x84000404u);
 1907              		.loc 1 1052 0
ARM GAS  C:\Users\JEFFSN~1\AppData\Local\Temp\cc9h98U0.s 			page 53


 1908 0028 314B     		ldr	r3, .L64+16
 1909 002a 324A     		ldr	r2, .L64+20
 1910 002c 1A60     		str	r2, [r3]
1053:Generated_Source\PSoC5/cyfitter_cfg.c **** 
1054:Generated_Source\PSoC5/cyfitter_cfg.c **** 		/* Enable digital routing */
1055:Generated_Source\PSoC5/cyfitter_cfg.c **** 		CY_SET_XTND_REG8((void CYFAR *)CYREG_BCTL0_BANK_CTL, CY_GET_XTND_REG8((void CYFAR *)CYREG_BCTL0_B
 1911              		.loc 1 1055 0
 1912 002e 324A     		ldr	r2, .L64+24
 1913 0030 314B     		ldr	r3, .L64+24
 1914 0032 1B78     		ldrb	r3, [r3]
 1915 0034 DBB2     		uxtb	r3, r3
 1916 0036 43F00203 		orr	r3, r3, #2
 1917 003a DBB2     		uxtb	r3, r3
 1918 003c 1370     		strb	r3, [r2]
1056:Generated_Source\PSoC5/cyfitter_cfg.c **** 		CY_SET_XTND_REG8((void CYFAR *)CYREG_BCTL1_BANK_CTL, CY_GET_XTND_REG8((void CYFAR *)CYREG_BCTL1_B
 1919              		.loc 1 1056 0
 1920 003e 2F4A     		ldr	r2, .L64+28
 1921 0040 2E4B     		ldr	r3, .L64+28
 1922 0042 1B78     		ldrb	r3, [r3]
 1923 0044 DBB2     		uxtb	r3, r3
 1924 0046 43F00203 		orr	r3, r3, #2
 1925 004a DBB2     		uxtb	r3, r3
 1926 004c 1370     		strb	r3, [r2]
1057:Generated_Source\PSoC5/cyfitter_cfg.c **** 
1058:Generated_Source\PSoC5/cyfitter_cfg.c **** 		/* Enable UDB array */
1059:Generated_Source\PSoC5/cyfitter_cfg.c **** 		CY_SET_XTND_REG8((void CYFAR *)CYREG_PM_ACT_CFG0, CY_GET_XTND_REG8((void CYFAR *)CYREG_PM_ACT_CFG
 1927              		.loc 1 1059 0
 1928 004e 2C4A     		ldr	r2, .L64+32
 1929 0050 2B4B     		ldr	r3, .L64+32
 1930 0052 1B78     		ldrb	r3, [r3]
 1931 0054 DBB2     		uxtb	r3, r3
 1932 0056 43F04003 		orr	r3, r3, #64
 1933 005a DBB2     		uxtb	r3, r3
 1934 005c 1370     		strb	r3, [r2]
1060:Generated_Source\PSoC5/cyfitter_cfg.c **** 		CY_SET_XTND_REG8((void CYFAR *)CYREG_PM_AVAIL_CR2, CY_GET_XTND_REG8((void CYFAR *)CYREG_PM_AVAIL_
 1935              		.loc 1 1060 0
 1936 005e 294A     		ldr	r2, .L64+36
 1937 0060 284B     		ldr	r3, .L64+36
 1938 0062 1B78     		ldrb	r3, [r3]
 1939 0064 DBB2     		uxtb	r3, r3
 1940 0066 43F01003 		orr	r3, r3, #16
 1941 006a DBB2     		uxtb	r3, r3
 1942 006c 1370     		strb	r3, [r2]
1061:Generated_Source\PSoC5/cyfitter_cfg.c **** 	}
1062:Generated_Source\PSoC5/cyfitter_cfg.c **** 
1063:Generated_Source\PSoC5/cyfitter_cfg.c **** 
1064:Generated_Source\PSoC5/cyfitter_cfg.c **** 	/* Perform second pass device configuration. These items must be configured in specific order afte
1065:Generated_Source\PSoC5/cyfitter_cfg.c **** 	CYCONFIGCPY((void CYFAR *)(CYREG_PRT0_DM0), (const void CYFAR *)(BS_IOPINS0_0_VAL), 8u);
 1943              		.loc 1 1065 0
 1944 006e 0822     		movs	r2, #8
 1945 0070 2549     		ldr	r1, .L64+40
 1946 0072 2648     		ldr	r0, .L64+44
 1947 0074 FFF7FEFF 		bl	CYCONFIGCPY
1066:Generated_Source\PSoC5/cyfitter_cfg.c **** 	CYCONFIGCPY((void CYFAR *)(CYREG_PRT15_DM0), (const void CYFAR *)(BS_IOPINS0_8_VAL), 8u);
 1948              		.loc 1 1066 0
 1949 0078 0822     		movs	r2, #8
 1950 007a 2549     		ldr	r1, .L64+48
ARM GAS  C:\Users\JEFFSN~1\AppData\Local\Temp\cc9h98U0.s 			page 54


 1951 007c 2548     		ldr	r0, .L64+52
 1952 007e FFF7FEFF 		bl	CYCONFIGCPY
1067:Generated_Source\PSoC5/cyfitter_cfg.c **** 	CYCONFIGCPY((void CYFAR *)(CYREG_PRT1_DM0), (const void CYFAR *)(BS_IOPINS0_1_VAL), 8u);
 1953              		.loc 1 1067 0
 1954 0082 0822     		movs	r2, #8
 1955 0084 2449     		ldr	r1, .L64+56
 1956 0086 2548     		ldr	r0, .L64+60
 1957 0088 FFF7FEFF 		bl	CYCONFIGCPY
1068:Generated_Source\PSoC5/cyfitter_cfg.c **** 	CYCONFIGCPY((void CYFAR *)(CYREG_PRT2_DM0), (const void CYFAR *)(BS_IOPINS0_2_VAL), 8u);
 1958              		.loc 1 1068 0
 1959 008c 0822     		movs	r2, #8
 1960 008e 2449     		ldr	r1, .L64+64
 1961 0090 2448     		ldr	r0, .L64+68
 1962 0092 FFF7FEFF 		bl	CYCONFIGCPY
1069:Generated_Source\PSoC5/cyfitter_cfg.c **** 	CYCONFIGCPY((void CYFAR *)(CYREG_PRT3_DM0), (const void CYFAR *)(BS_IOPINS0_3_VAL), 8u);
 1963              		.loc 1 1069 0
 1964 0096 0822     		movs	r2, #8
 1965 0098 2349     		ldr	r1, .L64+72
 1966 009a 2448     		ldr	r0, .L64+76
 1967 009c FFF7FEFF 		bl	CYCONFIGCPY
1070:Generated_Source\PSoC5/cyfitter_cfg.c **** 	CYCONFIGCPY((void CYFAR *)(CYREG_PRT4_DM0), (const void CYFAR *)(BS_IOPINS0_4_VAL), 8u);
 1968              		.loc 1 1070 0
 1969 00a0 0822     		movs	r2, #8
 1970 00a2 2349     		ldr	r1, .L64+80
 1971 00a4 2348     		ldr	r0, .L64+84
 1972 00a6 FFF7FEFF 		bl	CYCONFIGCPY
1071:Generated_Source\PSoC5/cyfitter_cfg.c **** 	CYCONFIGCPY((void CYFAR *)(CYREG_PRT5_DM0), (const void CYFAR *)(BS_IOPINS0_5_VAL), 8u);
 1973              		.loc 1 1071 0
 1974 00aa 0822     		movs	r2, #8
 1975 00ac 2249     		ldr	r1, .L64+88
 1976 00ae 2348     		ldr	r0, .L64+92
 1977 00b0 FFF7FEFF 		bl	CYCONFIGCPY
1072:Generated_Source\PSoC5/cyfitter_cfg.c **** 	CYCONFIGCPY((void CYFAR *)(CYREG_PRT6_DM0), (const void CYFAR *)(BS_IOPINS0_6_VAL), 8u);
 1978              		.loc 1 1072 0
 1979 00b4 0822     		movs	r2, #8
 1980 00b6 2249     		ldr	r1, .L64+96
 1981 00b8 2248     		ldr	r0, .L64+100
 1982 00ba FFF7FEFF 		bl	CYCONFIGCPY
1073:Generated_Source\PSoC5/cyfitter_cfg.c **** 	/* Switch Boost to the precision bandgap reference from its internal reference */
1074:Generated_Source\PSoC5/cyfitter_cfg.c **** 	CY_SET_REG8((void CYXDATA *)CYREG_BOOST_CR2, (CY_GET_REG8((void CYXDATA *)CYREG_BOOST_CR2) | 0x08u
 1983              		.loc 1 1074 0
 1984 00be 224A     		ldr	r2, .L64+104
 1985 00c0 214B     		ldr	r3, .L64+104
 1986 00c2 1B78     		ldrb	r3, [r3]
 1987 00c4 DBB2     		uxtb	r3, r3
 1988 00c6 43F00803 		orr	r3, r3, #8
 1989 00ca DBB2     		uxtb	r3, r3
 1990 00cc 1370     		strb	r3, [r2]
1075:Generated_Source\PSoC5/cyfitter_cfg.c **** 
1076:Generated_Source\PSoC5/cyfitter_cfg.c **** 	/* Perform basic analog initialization to defaults */
1077:Generated_Source\PSoC5/cyfitter_cfg.c **** 	AnalogSetDefault();
 1991              		.loc 1 1077 0
 1992 00ce FFF7FEFF 		bl	AnalogSetDefault
1078:Generated_Source\PSoC5/cyfitter_cfg.c **** 
1079:Generated_Source\PSoC5/cyfitter_cfg.c **** 	/* Configure alternate active mode */
1080:Generated_Source\PSoC5/cyfitter_cfg.c **** 	CYCONFIGCPY((void CYFAR *)CYDEV_PM_STBY_BASE, (const void CYFAR *)CYDEV_PM_ACT_BASE, 14u);
 1993              		.loc 1 1080 0
ARM GAS  C:\Users\JEFFSN~1\AppData\Local\Temp\cc9h98U0.s 			page 55


 1994 00d2 0E22     		movs	r2, #14
 1995 00d4 0A49     		ldr	r1, .L64+32
 1996 00d6 1D48     		ldr	r0, .L64+108
 1997 00d8 FFF7FEFF 		bl	CYCONFIGCPY
1081:Generated_Source\PSoC5/cyfitter_cfg.c **** }
 1998              		.loc 1 1081 0
 1999 00dc 00BF     		nop
 2000 00de 80BD     		pop	{r7, pc}
 2001              	.L65:
 2002              		.align	2
 2003              	.L64:
 2004 00e0 00480040 		.word	1073760256
 2005 00e4 70580040 		.word	1073764464
 2006 00e8 83580040 		.word	1073764483
 2007 00ec 48580040 		.word	1073764424
 2008 00f0 D8080140 		.word	1073809624
 2009 00f4 04040084 		.word	-2080373756
 2010 00f8 03500140 		.word	1073827843
 2011 00fc 13500140 		.word	1073827859
 2012 0100 A0430040 		.word	1073759136
 2013 0104 C2430040 		.word	1073759170
 2014 0108 08160048 		.word	1207965192
 2015 010c 02510040 		.word	1073762562
 2016 0110 10160048 		.word	1207965200
 2017 0114 F2510040 		.word	1073762802
 2018 0118 18160048 		.word	1207965208
 2019 011c 12510040 		.word	1073762578
 2020 0120 20160048 		.word	1207965216
 2021 0124 22510040 		.word	1073762594
 2022 0128 28160048 		.word	1207965224
 2023 012c 32510040 		.word	1073762610
 2024 0130 30160048 		.word	1207965232
 2025 0134 42510040 		.word	1073762626
 2026 0138 38160048 		.word	1207965240
 2027 013c 52510040 		.word	1073762642
 2028 0140 40160048 		.word	1207965248
 2029 0144 62510040 		.word	1073762658
 2030 0148 22430040 		.word	1073759010
 2031 014c B0430040 		.word	1073759152
 2032              		.cfi_endproc
 2033              	.LFE14:
 2034              		.size	cyfitter_cfg, .-cyfitter_cfg
 2035              		.bss
 2036 0006 0000     		.align	3
 2037              	DMA_ZERO_VAL.4997:
 2038 0008 00000000 		.space	4
 2039              		.section	.rodata
 2040 00af 00       		.align	2
 2041              		.type	CFG_TD_ADDR0.4999, %object
 2042              		.size	CFG_TD_ADDR0.4999, 288
 2043              	CFG_TD_ADDR0.4999:
 2044 00b0 00000000 		.word	CH1_ADDR_DATA0.4992
 2045 00b4 08000000 		.word	CH2_ADDR_DATA0.4993
 2046 00b8 10000000 		.word	CH5_ADDR_DATA0.4994
 2047 00bc 18000000 		.word	CH6_ADDR_DATA0.4995
 2048 00c0 20000000 		.word	DMA_TD_START_CMD.4996
 2049 00c4 20000000 		.word	DMA_TD_START_CMD.4996
ARM GAS  C:\Users\JEFFSN~1\AppData\Local\Temp\cc9h98U0.s 			page 56


 2050 00c8 20000000 		.word	DMA_TD_START_CMD.4996
 2051 00cc 20000000 		.word	DMA_TD_START_CMD.4996
 2052 00d0 08000000 		.word	DMA_ZERO_VAL.4997
 2053 00d4 08000000 		.word	DMA_ZERO_VAL.4997
 2054 00d8 08000000 		.word	DMA_ZERO_VAL.4997
 2055 00dc 08000000 		.word	DMA_ZERO_VAL.4997
 2056 00e0 08000000 		.word	DMA_ZERO_VAL.4997
 2057 00e4 08000000 		.word	DMA_ZERO_VAL.4997
 2058 00e8 08000000 		.word	DMA_ZERO_VAL.4997
 2059 00ec 08000000 		.word	DMA_ZERO_VAL.4997
 2060 00f0 08000000 		.word	DMA_ZERO_VAL.4997
 2061 00f4 08000000 		.word	DMA_ZERO_VAL.4997
 2062 00f8 08000000 		.word	DMA_ZERO_VAL.4997
 2063 00fc 00000048 		.word	1207959552
 2064 0100 08000048 		.word	1207959560
 2065 0104 10000048 		.word	1207959568
 2066 0108 18000048 		.word	1207959576
 2067 010c A8050048 		.word	1207961000
 2068 0110 E8050048 		.word	1207961064
 2069 0114 08060048 		.word	1207961096
 2070 0118 48060048 		.word	1207961160
 2071 011c 20000048 		.word	1207959584
 2072 0120 28000048 		.word	1207959592
 2073 0124 A8000048 		.word	1207959720
 2074 0128 28010048 		.word	1207959848
 2075 012c A8010048 		.word	1207959976
 2076 0130 28020048 		.word	1207960104
 2077 0134 A8020048 		.word	1207960232
 2078 0138 28030048 		.word	1207960360
 2079 013c A8030048 		.word	1207960488
 2080 0140 28040048 		.word	1207960616
 2081 0144 A8040048 		.word	1207960744
 2082 0148 28050048 		.word	1207960872
 2083 014c 68060048 		.word	1207961192
 2084 0150 78060048 		.word	1207961208
 2085 0154 88060048 		.word	1207961224
 2086 0158 08070048 		.word	1207961352
 2087 015c 88070048 		.word	1207961480
 2088 0160 08080048 		.word	1207961608
 2089 0164 88080048 		.word	1207961736
 2090 0168 08090048 		.word	1207961864
 2091 016c 88090048 		.word	1207961992
 2092 0170 080A0048 		.word	1207962120
 2093 0174 880A0048 		.word	1207962248
 2094 0178 080B0048 		.word	1207962376
 2095 017c 880B0048 		.word	1207962504
 2096 0180 080C0048 		.word	1207962632
 2097 0184 880C0048 		.word	1207962760
 2098 0188 080D0048 		.word	1207962888
 2099 018c 880D0048 		.word	1207963016
 2100 0190 080E0048 		.word	1207963144
 2101 0194 880E0048 		.word	1207963272
 2102 0198 080F0048 		.word	1207963400
 2103 019c 880F0048 		.word	1207963528
 2104 01a0 08100048 		.word	1207963656
 2105 01a4 88100048 		.word	1207963784
 2106 01a8 08110048 		.word	1207963912
ARM GAS  C:\Users\JEFFSN~1\AppData\Local\Temp\cc9h98U0.s 			page 57


 2107 01ac 88110048 		.word	1207964040
 2108 01b0 08120048 		.word	1207964168
 2109 01b4 88120048 		.word	1207964296
 2110 01b8 08130048 		.word	1207964424
 2111 01bc 88130048 		.word	1207964552
 2112 01c0 08140048 		.word	1207964680
 2113 01c4 88140048 		.word	1207964808
 2114 01c8 08150048 		.word	1207964936
 2115 01cc 88150048 		.word	1207965064
 2116              		.text
 2117              	.Letext0:
 2118              		.file 2 "c:\\program files (x86)\\cypress\\psoc creator\\4.4\\psoc creator\\import\\gnu\\arm\\5.4.
 2119              		.file 3 "Generated_Source\\PSoC5\\cytypes.h"