ARM GAS  C:\Users\JEFFSN~1\AppData\Local\Temp\ccPiifqs.s 			page 1


   1              		.syntax unified
   2              		.cpu cortex-m3
   3              		.fpu softvfp
   4              		.eabi_attribute 20, 1
   5              		.eabi_attribute 21, 1
   6              		.eabi_attribute 23, 3
   7              		.eabi_attribute 24, 1
   8              		.eabi_attribute 25, 1
   9              		.eabi_attribute 26, 1
  10              		.eabi_attribute 30, 6
  11              		.eabi_attribute 34, 1
  12              		.eabi_attribute 18, 4
  13              		.thumb
  14              		.syntax unified
  15              		.file	"I2C_Pins.c"
  16              		.text
  17              	.Ltext0:
  18              		.cfi_sections	.debug_frame
  19              		.section	.text.I2C_Pins_Write,"ax",%progbits
  20              		.align	2
  21              		.global	I2C_Pins_Write
  22              		.thumb
  23              		.thumb_func
  24              		.type	I2C_Pins_Write, %function
  25              	I2C_Pins_Write:
  26              	.LFB0:
  27              		.file 1 "Generated_Source\\PSoC5\\I2C_Pins.c"
   1:Generated_Source\PSoC5/I2C_Pins.c **** /*******************************************************************************
   2:Generated_Source\PSoC5/I2C_Pins.c **** * File Name: I2C_Pins.c  
   3:Generated_Source\PSoC5/I2C_Pins.c **** * Version 2.20
   4:Generated_Source\PSoC5/I2C_Pins.c **** *
   5:Generated_Source\PSoC5/I2C_Pins.c **** * Description:
   6:Generated_Source\PSoC5/I2C_Pins.c **** *  This file contains API to enable firmware control of a Pins component.
   7:Generated_Source\PSoC5/I2C_Pins.c **** *
   8:Generated_Source\PSoC5/I2C_Pins.c **** * Note:
   9:Generated_Source\PSoC5/I2C_Pins.c **** *
  10:Generated_Source\PSoC5/I2C_Pins.c **** ********************************************************************************
  11:Generated_Source\PSoC5/I2C_Pins.c **** * Copyright 2008-2015, Cypress Semiconductor Corporation.  All rights reserved.
  12:Generated_Source\PSoC5/I2C_Pins.c **** * You may use this file only in accordance with the license, terms, conditions, 
  13:Generated_Source\PSoC5/I2C_Pins.c **** * disclaimers, and limitations in the end user license agreement accompanying 
  14:Generated_Source\PSoC5/I2C_Pins.c **** * the software package with which this file was provided.
  15:Generated_Source\PSoC5/I2C_Pins.c **** *******************************************************************************/
  16:Generated_Source\PSoC5/I2C_Pins.c **** 
  17:Generated_Source\PSoC5/I2C_Pins.c **** #include "cytypes.h"
  18:Generated_Source\PSoC5/I2C_Pins.c **** #include "I2C_Pins.h"
  19:Generated_Source\PSoC5/I2C_Pins.c **** 
  20:Generated_Source\PSoC5/I2C_Pins.c **** /* APIs are not generated for P15[7:6] on PSoC 5 */
  21:Generated_Source\PSoC5/I2C_Pins.c **** #if !(CY_PSOC5A &&\
  22:Generated_Source\PSoC5/I2C_Pins.c **** 	 I2C_Pins__PORT == 15 && ((I2C_Pins__MASK & 0xC0) != 0))
  23:Generated_Source\PSoC5/I2C_Pins.c **** 
  24:Generated_Source\PSoC5/I2C_Pins.c **** 
  25:Generated_Source\PSoC5/I2C_Pins.c **** /*******************************************************************************
  26:Generated_Source\PSoC5/I2C_Pins.c **** * Function Name: I2C_Pins_Write
  27:Generated_Source\PSoC5/I2C_Pins.c **** ****************************************************************************//**
  28:Generated_Source\PSoC5/I2C_Pins.c **** *
  29:Generated_Source\PSoC5/I2C_Pins.c **** * \brief Writes the value to the physical port (data output register), masking
  30:Generated_Source\PSoC5/I2C_Pins.c **** *  and shifting the bits appropriately. 
ARM GAS  C:\Users\JEFFSN~1\AppData\Local\Temp\ccPiifqs.s 			page 2


  31:Generated_Source\PSoC5/I2C_Pins.c **** *
  32:Generated_Source\PSoC5/I2C_Pins.c **** * The data output register controls the signal applied to the physical pin in 
  33:Generated_Source\PSoC5/I2C_Pins.c **** * conjunction with the drive mode parameter. This function avoids changing 
  34:Generated_Source\PSoC5/I2C_Pins.c **** * other bits in the port by using the appropriate method (read-modify-write or
  35:Generated_Source\PSoC5/I2C_Pins.c **** * bit banding).
  36:Generated_Source\PSoC5/I2C_Pins.c **** *
  37:Generated_Source\PSoC5/I2C_Pins.c **** * <b>Note</b> This function should not be used on a hardware digital output pin 
  38:Generated_Source\PSoC5/I2C_Pins.c **** * as it is driven by the hardware signal attached to it.
  39:Generated_Source\PSoC5/I2C_Pins.c **** *
  40:Generated_Source\PSoC5/I2C_Pins.c **** * \param value
  41:Generated_Source\PSoC5/I2C_Pins.c **** *  Value to write to the component instance.
  42:Generated_Source\PSoC5/I2C_Pins.c **** *
  43:Generated_Source\PSoC5/I2C_Pins.c **** * \return 
  44:Generated_Source\PSoC5/I2C_Pins.c **** *  None 
  45:Generated_Source\PSoC5/I2C_Pins.c **** *
  46:Generated_Source\PSoC5/I2C_Pins.c **** * \sideeffect
  47:Generated_Source\PSoC5/I2C_Pins.c **** *  If you use read-modify-write operations that are not atomic; the Interrupt 
  48:Generated_Source\PSoC5/I2C_Pins.c **** *  Service Routines (ISR) can cause corruption of this function. An ISR that 
  49:Generated_Source\PSoC5/I2C_Pins.c **** *  interrupts this function and performs writes to the Pins component data 
  50:Generated_Source\PSoC5/I2C_Pins.c **** *  register can cause corrupted port data. To avoid this issue, you should 
  51:Generated_Source\PSoC5/I2C_Pins.c **** *  either use the Per-Pin APIs (primary method) or disable interrupts around 
  52:Generated_Source\PSoC5/I2C_Pins.c **** *  this function.
  53:Generated_Source\PSoC5/I2C_Pins.c **** *
  54:Generated_Source\PSoC5/I2C_Pins.c **** * \funcusage
  55:Generated_Source\PSoC5/I2C_Pins.c **** *  \snippet I2C_Pins_SUT.c usage_I2C_Pins_Write
  56:Generated_Source\PSoC5/I2C_Pins.c **** *******************************************************************************/
  57:Generated_Source\PSoC5/I2C_Pins.c **** void I2C_Pins_Write(uint8 value)
  58:Generated_Source\PSoC5/I2C_Pins.c **** {
  28              		.loc 1 58 0
  29              		.cfi_startproc
  30              		@ args = 0, pretend = 0, frame = 16
  31              		@ frame_needed = 1, uses_anonymous_args = 0
  32              		@ link register save eliminated.
  33 0000 80B4     		push	{r7}
  34              		.cfi_def_cfa_offset 4
  35              		.cfi_offset 7, -4
  36 0002 85B0     		sub	sp, sp, #20
  37              		.cfi_def_cfa_offset 24
  38 0004 00AF     		add	r7, sp, #0
  39              		.cfi_def_cfa_register 7
  40 0006 0346     		mov	r3, r0
  41 0008 FB71     		strb	r3, [r7, #7]
  59:Generated_Source\PSoC5/I2C_Pins.c ****     uint8 staticBits = (I2C_Pins_DR & (uint8)(~I2C_Pins_MASK));
  42              		.loc 1 59 0
  43 000a 0A4B     		ldr	r3, .L2
  44 000c 1B78     		ldrb	r3, [r3]
  45 000e DBB2     		uxtb	r3, r3
  46 0010 23F00303 		bic	r3, r3, #3
  47 0014 FB73     		strb	r3, [r7, #15]
  60:Generated_Source\PSoC5/I2C_Pins.c ****     I2C_Pins_DR = staticBits | ((uint8)(value << I2C_Pins_SHIFT) & I2C_Pins_MASK);
  48              		.loc 1 60 0
  49 0016 0749     		ldr	r1, .L2
  50 0018 FB79     		ldrb	r3, [r7, #7]
  51 001a 03F00303 		and	r3, r3, #3
  52 001e DAB2     		uxtb	r2, r3
  53 0020 FB7B     		ldrb	r3, [r7, #15]
  54 0022 1343     		orrs	r3, r3, r2
ARM GAS  C:\Users\JEFFSN~1\AppData\Local\Temp\ccPiifqs.s 			page 3


  55 0024 DBB2     		uxtb	r3, r3
  56 0026 0B70     		strb	r3, [r1]
  61:Generated_Source\PSoC5/I2C_Pins.c **** }
  57              		.loc 1 61 0
  58 0028 00BF     		nop
  59 002a 1437     		adds	r7, r7, #20
  60              		.cfi_def_cfa_offset 4
  61 002c BD46     		mov	sp, r7
  62              		.cfi_def_cfa_register 13
  63              		@ sp needed
  64 002e 80BC     		pop	{r7}
  65              		.cfi_restore 7
  66              		.cfi_def_cfa_offset 0
  67 0030 7047     		bx	lr
  68              	.L3:
  69 0032 00BF     		.align	2
  70              	.L2:
  71 0034 C0510040 		.word	1073762752
  72              		.cfi_endproc
  73              	.LFE0:
  74              		.size	I2C_Pins_Write, .-I2C_Pins_Write
  75              		.section	.text.I2C_Pins_SetDriveMode,"ax",%progbits
  76              		.align	2
  77              		.global	I2C_Pins_SetDriveMode
  78              		.thumb
  79              		.thumb_func
  80              		.type	I2C_Pins_SetDriveMode, %function
  81              	I2C_Pins_SetDriveMode:
  82              	.LFB1:
  62:Generated_Source\PSoC5/I2C_Pins.c **** 
  63:Generated_Source\PSoC5/I2C_Pins.c **** 
  64:Generated_Source\PSoC5/I2C_Pins.c **** /*******************************************************************************
  65:Generated_Source\PSoC5/I2C_Pins.c **** * Function Name: I2C_Pins_SetDriveMode
  66:Generated_Source\PSoC5/I2C_Pins.c **** ****************************************************************************//**
  67:Generated_Source\PSoC5/I2C_Pins.c **** *
  68:Generated_Source\PSoC5/I2C_Pins.c **** * \brief Sets the drive mode for each of the Pins component's pins.
  69:Generated_Source\PSoC5/I2C_Pins.c **** * 
  70:Generated_Source\PSoC5/I2C_Pins.c **** * <b>Note</b> This affects all pins in the Pins component instance. Use the
  71:Generated_Source\PSoC5/I2C_Pins.c **** * Per-Pin APIs if you wish to control individual pin's drive modes.
  72:Generated_Source\PSoC5/I2C_Pins.c **** *
  73:Generated_Source\PSoC5/I2C_Pins.c **** * \param mode
  74:Generated_Source\PSoC5/I2C_Pins.c **** *  Mode for the selected signals. Valid options are documented in 
  75:Generated_Source\PSoC5/I2C_Pins.c **** *  \ref driveMode.
  76:Generated_Source\PSoC5/I2C_Pins.c **** *
  77:Generated_Source\PSoC5/I2C_Pins.c **** * \return
  78:Generated_Source\PSoC5/I2C_Pins.c **** *  None
  79:Generated_Source\PSoC5/I2C_Pins.c **** *
  80:Generated_Source\PSoC5/I2C_Pins.c **** * \sideeffect
  81:Generated_Source\PSoC5/I2C_Pins.c **** *  If you use read-modify-write operations that are not atomic, the ISR can
  82:Generated_Source\PSoC5/I2C_Pins.c **** *  cause corruption of this function. An ISR that interrupts this function 
  83:Generated_Source\PSoC5/I2C_Pins.c **** *  and performs writes to the Pins component Drive Mode registers can cause 
  84:Generated_Source\PSoC5/I2C_Pins.c **** *  corrupted port data. To avoid this issue, you should either use the Per-Pin
  85:Generated_Source\PSoC5/I2C_Pins.c **** *  APIs (primary method) or disable interrupts around this function.
  86:Generated_Source\PSoC5/I2C_Pins.c **** *
  87:Generated_Source\PSoC5/I2C_Pins.c **** * \funcusage
  88:Generated_Source\PSoC5/I2C_Pins.c **** *  \snippet I2C_Pins_SUT.c usage_I2C_Pins_SetDriveMode
  89:Generated_Source\PSoC5/I2C_Pins.c **** *******************************************************************************/
ARM GAS  C:\Users\JEFFSN~1\AppData\Local\Temp\ccPiifqs.s 			page 4


  90:Generated_Source\PSoC5/I2C_Pins.c **** void I2C_Pins_SetDriveMode(uint8 mode)
  91:Generated_Source\PSoC5/I2C_Pins.c **** {
  83              		.loc 1 91 0
  84              		.cfi_startproc
  85              		@ args = 0, pretend = 0, frame = 8
  86              		@ frame_needed = 1, uses_anonymous_args = 0
  87              		@ link register save eliminated.
  88 0000 80B4     		push	{r7}
  89              		.cfi_def_cfa_offset 4
  90              		.cfi_offset 7, -4
  91 0002 83B0     		sub	sp, sp, #12
  92              		.cfi_def_cfa_offset 16
  93 0004 00AF     		add	r7, sp, #0
  94              		.cfi_def_cfa_register 7
  95 0006 0346     		mov	r3, r0
  96 0008 FB71     		strb	r3, [r7, #7]
  92:Generated_Source\PSoC5/I2C_Pins.c **** 	CyPins_SetPinDriveMode(I2C_Pins_0, mode);
  97              		.loc 1 92 0
  98 000a 1349     		ldr	r1, .L5
  99 000c 124B     		ldr	r3, .L5
 100 000e 1B78     		ldrb	r3, [r3]
 101 0010 DBB2     		uxtb	r3, r3
 102 0012 5BB2     		sxtb	r3, r3
 103 0014 23F00E03 		bic	r3, r3, #14
 104 0018 5AB2     		sxtb	r2, r3
 105 001a 97F90730 		ldrsb	r3, [r7, #7]
 106 001e 03F00E03 		and	r3, r3, #14
 107 0022 5BB2     		sxtb	r3, r3
 108 0024 1343     		orrs	r3, r3, r2
 109 0026 5BB2     		sxtb	r3, r3
 110 0028 DBB2     		uxtb	r3, r3
 111 002a 0B70     		strb	r3, [r1]
  93:Generated_Source\PSoC5/I2C_Pins.c **** 	CyPins_SetPinDriveMode(I2C_Pins_1, mode);
 112              		.loc 1 93 0
 113 002c 0B49     		ldr	r1, .L5+4
 114 002e 0B4B     		ldr	r3, .L5+4
 115 0030 1B78     		ldrb	r3, [r3]
 116 0032 DBB2     		uxtb	r3, r3
 117 0034 5BB2     		sxtb	r3, r3
 118 0036 23F00E03 		bic	r3, r3, #14
 119 003a 5AB2     		sxtb	r2, r3
 120 003c 97F90730 		ldrsb	r3, [r7, #7]
 121 0040 03F00E03 		and	r3, r3, #14
 122 0044 5BB2     		sxtb	r3, r3
 123 0046 1343     		orrs	r3, r3, r2
 124 0048 5BB2     		sxtb	r3, r3
 125 004a DBB2     		uxtb	r3, r3
 126 004c 0B70     		strb	r3, [r1]
  94:Generated_Source\PSoC5/I2C_Pins.c **** }
 127              		.loc 1 94 0
 128 004e 00BF     		nop
 129 0050 0C37     		adds	r7, r7, #12
 130              		.cfi_def_cfa_offset 4
 131 0052 BD46     		mov	sp, r7
 132              		.cfi_def_cfa_register 13
 133              		@ sp needed
 134 0054 80BC     		pop	{r7}
ARM GAS  C:\Users\JEFFSN~1\AppData\Local\Temp\ccPiifqs.s 			page 5


 135              		.cfi_restore 7
 136              		.cfi_def_cfa_offset 0
 137 0056 7047     		bx	lr
 138              	.L6:
 139              		.align	2
 140              	.L5:
 141 0058 60500040 		.word	1073762400
 142 005c 61500040 		.word	1073762401
 143              		.cfi_endproc
 144              	.LFE1:
 145              		.size	I2C_Pins_SetDriveMode, .-I2C_Pins_SetDriveMode
 146              		.section	.text.I2C_Pins_Read,"ax",%progbits
 147              		.align	2
 148              		.global	I2C_Pins_Read
 149              		.thumb
 150              		.thumb_func
 151              		.type	I2C_Pins_Read, %function
 152              	I2C_Pins_Read:
 153              	.LFB2:
  95:Generated_Source\PSoC5/I2C_Pins.c **** 
  96:Generated_Source\PSoC5/I2C_Pins.c **** 
  97:Generated_Source\PSoC5/I2C_Pins.c **** /*******************************************************************************
  98:Generated_Source\PSoC5/I2C_Pins.c **** * Function Name: I2C_Pins_Read
  99:Generated_Source\PSoC5/I2C_Pins.c **** ****************************************************************************//**
 100:Generated_Source\PSoC5/I2C_Pins.c **** *
 101:Generated_Source\PSoC5/I2C_Pins.c **** * \brief Reads the associated physical port (pin status register) and masks 
 102:Generated_Source\PSoC5/I2C_Pins.c **** *  the required bits according to the width and bit position of the component
 103:Generated_Source\PSoC5/I2C_Pins.c **** *  instance. 
 104:Generated_Source\PSoC5/I2C_Pins.c **** *
 105:Generated_Source\PSoC5/I2C_Pins.c **** * The pin's status register returns the current logic level present on the 
 106:Generated_Source\PSoC5/I2C_Pins.c **** * physical pin.
 107:Generated_Source\PSoC5/I2C_Pins.c **** *
 108:Generated_Source\PSoC5/I2C_Pins.c **** * \return 
 109:Generated_Source\PSoC5/I2C_Pins.c **** *  The current value for the pins in the component as a right justified number.
 110:Generated_Source\PSoC5/I2C_Pins.c **** *
 111:Generated_Source\PSoC5/I2C_Pins.c **** * \funcusage
 112:Generated_Source\PSoC5/I2C_Pins.c **** *  \snippet I2C_Pins_SUT.c usage_I2C_Pins_Read  
 113:Generated_Source\PSoC5/I2C_Pins.c **** *******************************************************************************/
 114:Generated_Source\PSoC5/I2C_Pins.c **** uint8 I2C_Pins_Read(void)
 115:Generated_Source\PSoC5/I2C_Pins.c **** {
 154              		.loc 1 115 0
 155              		.cfi_startproc
 156              		@ args = 0, pretend = 0, frame = 0
 157              		@ frame_needed = 1, uses_anonymous_args = 0
 158              		@ link register save eliminated.
 159 0000 80B4     		push	{r7}
 160              		.cfi_def_cfa_offset 4
 161              		.cfi_offset 7, -4
 162 0002 00AF     		add	r7, sp, #0
 163              		.cfi_def_cfa_register 7
 116:Generated_Source\PSoC5/I2C_Pins.c ****     return (I2C_Pins_PS & I2C_Pins_MASK) >> I2C_Pins_SHIFT;
 164              		.loc 1 116 0
 165 0004 044B     		ldr	r3, .L9
 166 0006 1B78     		ldrb	r3, [r3]
 167 0008 DBB2     		uxtb	r3, r3
 168 000a 03F00303 		and	r3, r3, #3
 169 000e DBB2     		uxtb	r3, r3
ARM GAS  C:\Users\JEFFSN~1\AppData\Local\Temp\ccPiifqs.s 			page 6


 117:Generated_Source\PSoC5/I2C_Pins.c **** }
 170              		.loc 1 117 0
 171 0010 1846     		mov	r0, r3
 172 0012 BD46     		mov	sp, r7
 173              		.cfi_def_cfa_register 13
 174              		@ sp needed
 175 0014 80BC     		pop	{r7}
 176              		.cfi_restore 7
 177              		.cfi_def_cfa_offset 0
 178 0016 7047     		bx	lr
 179              	.L10:
 180              		.align	2
 181              	.L9:
 182 0018 C1510040 		.word	1073762753
 183              		.cfi_endproc
 184              	.LFE2:
 185              		.size	I2C_Pins_Read, .-I2C_Pins_Read
 186              		.section	.text.I2C_Pins_ReadDataReg,"ax",%progbits
 187              		.align	2
 188              		.global	I2C_Pins_ReadDataReg
 189              		.thumb
 190              		.thumb_func
 191              		.type	I2C_Pins_ReadDataReg, %function
 192              	I2C_Pins_ReadDataReg:
 193              	.LFB3:
 118:Generated_Source\PSoC5/I2C_Pins.c **** 
 119:Generated_Source\PSoC5/I2C_Pins.c **** 
 120:Generated_Source\PSoC5/I2C_Pins.c **** /*******************************************************************************
 121:Generated_Source\PSoC5/I2C_Pins.c **** * Function Name: I2C_Pins_ReadDataReg
 122:Generated_Source\PSoC5/I2C_Pins.c **** ****************************************************************************//**
 123:Generated_Source\PSoC5/I2C_Pins.c **** *
 124:Generated_Source\PSoC5/I2C_Pins.c **** * \brief Reads the associated physical port's data output register and masks 
 125:Generated_Source\PSoC5/I2C_Pins.c **** *  the correct bits according to the width and bit position of the component 
 126:Generated_Source\PSoC5/I2C_Pins.c **** *  instance. 
 127:Generated_Source\PSoC5/I2C_Pins.c **** *
 128:Generated_Source\PSoC5/I2C_Pins.c **** * The data output register controls the signal applied to the physical pin in 
 129:Generated_Source\PSoC5/I2C_Pins.c **** * conjunction with the drive mode parameter. This is not the same as the 
 130:Generated_Source\PSoC5/I2C_Pins.c **** * preferred I2C_Pins_Read() API because the 
 131:Generated_Source\PSoC5/I2C_Pins.c **** * I2C_Pins_ReadDataReg() reads the data register instead of the status 
 132:Generated_Source\PSoC5/I2C_Pins.c **** * register. For output pins this is a useful function to determine the value 
 133:Generated_Source\PSoC5/I2C_Pins.c **** * just written to the pin.
 134:Generated_Source\PSoC5/I2C_Pins.c **** *
 135:Generated_Source\PSoC5/I2C_Pins.c **** * \return 
 136:Generated_Source\PSoC5/I2C_Pins.c **** *  The current value of the data register masked and shifted into a right 
 137:Generated_Source\PSoC5/I2C_Pins.c **** *  justified number for the component instance.
 138:Generated_Source\PSoC5/I2C_Pins.c **** *
 139:Generated_Source\PSoC5/I2C_Pins.c **** * \funcusage
 140:Generated_Source\PSoC5/I2C_Pins.c **** *  \snippet I2C_Pins_SUT.c usage_I2C_Pins_ReadDataReg 
 141:Generated_Source\PSoC5/I2C_Pins.c **** *******************************************************************************/
 142:Generated_Source\PSoC5/I2C_Pins.c **** uint8 I2C_Pins_ReadDataReg(void)
 143:Generated_Source\PSoC5/I2C_Pins.c **** {
 194              		.loc 1 143 0
 195              		.cfi_startproc
 196              		@ args = 0, pretend = 0, frame = 0
 197              		@ frame_needed = 1, uses_anonymous_args = 0
 198              		@ link register save eliminated.
 199 0000 80B4     		push	{r7}
ARM GAS  C:\Users\JEFFSN~1\AppData\Local\Temp\ccPiifqs.s 			page 7


 200              		.cfi_def_cfa_offset 4
 201              		.cfi_offset 7, -4
 202 0002 00AF     		add	r7, sp, #0
 203              		.cfi_def_cfa_register 7
 144:Generated_Source\PSoC5/I2C_Pins.c ****     return (I2C_Pins_DR & I2C_Pins_MASK) >> I2C_Pins_SHIFT;
 204              		.loc 1 144 0
 205 0004 044B     		ldr	r3, .L13
 206 0006 1B78     		ldrb	r3, [r3]
 207 0008 DBB2     		uxtb	r3, r3
 208 000a 03F00303 		and	r3, r3, #3
 209 000e DBB2     		uxtb	r3, r3
 145:Generated_Source\PSoC5/I2C_Pins.c **** }
 210              		.loc 1 145 0
 211 0010 1846     		mov	r0, r3
 212 0012 BD46     		mov	sp, r7
 213              		.cfi_def_cfa_register 13
 214              		@ sp needed
 215 0014 80BC     		pop	{r7}
 216              		.cfi_restore 7
 217              		.cfi_def_cfa_offset 0
 218 0016 7047     		bx	lr
 219              	.L14:
 220              		.align	2
 221              	.L13:
 222 0018 C0510040 		.word	1073762752
 223              		.cfi_endproc
 224              	.LFE3:
 225              		.size	I2C_Pins_ReadDataReg, .-I2C_Pins_ReadDataReg
 226              		.text
 227              	.Letext0:
 228              		.file 2 "Generated_Source\\PSoC5\\cytypes.h"