ARM GAS  C:\Users\JEFFSN~1\AppData\Local\Temp\ccYO9KEx.s 			page 1


   1              		.syntax unified
   2              		.cpu cortex-m3
   3              		.fpu softvfp
   4              		.eabi_attribute 20, 1
   5              		.eabi_attribute 21, 1
   6              		.eabi_attribute 23, 3
   7              		.eabi_attribute 24, 1
   8              		.eabi_attribute 25, 1
   9              		.eabi_attribute 26, 1
  10              		.eabi_attribute 30, 6
  11              		.eabi_attribute 34, 1
  12              		.eabi_attribute 18, 4
  13              		.thumb
  14              		.syntax unified
  15              		.file	"main.c"
  16              		.text
  17              	.Ltext0:
  18              		.cfi_sections	.debug_frame
  19              		.comm	stringCapSensorsOnOff,1,4
  20              		.comm	stringCapSensorsRaw,16,4
  21              		.global	thresholdArray
  22              		.data
  23              		.align	2
  24              		.type	thresholdArray, %object
  25              		.size	thresholdArray, 12
  26              	thresholdArray:
  27 0000 0F       		.byte	15
  28 0001 0F       		.byte	15
  29 0002 0F       		.byte	15
  30 0003 0F       		.byte	15
  31 0004 0F       		.byte	15
  32 0005 0F       		.byte	15
  33 0006 0F       		.byte	15
  34 0007 0F       		.byte	15
  35 0008 0F       		.byte	15
  36 0009 0F       		.byte	15
  37 000a 0F       		.byte	15
  38 000b 0F       		.byte	15
  39              		.comm	barArray,8,4
  40              		.comm	touchArray,4,4
  41              		.comm	linearPotValue32Bit,16,4
  42              		.global	i
  43              		.bss
  44              		.type	i, %object
  45              		.size	i, 1
  46              	i:
  47 0000 00       		.space	1
  48              		.global	counter
  49              		.type	counter, %object
  50              		.size	counter, 1
  51              	counter:
  52 0001 00       		.space	1
  53              		.comm	temper,4,4
  54              		.comm	previousButtons,44,4
  55              		.global	octave
  56 0002 0000     		.align	2
  57              		.type	octave, %object
ARM GAS  C:\Users\JEFFSN~1\AppData\Local\Temp\ccYO9KEx.s 			page 2


  58              		.size	octave, 4
  59              	octave:
  60 0004 00000000 		.space	4
  61              		.section	.text.button_press_ISR,"ax",%progbits
  62              		.align	2
  63              		.global	button_press_ISR
  64              		.thumb
  65              		.thumb_func
  66              		.type	button_press_ISR, %function
  67              	button_press_ISR:
  68              	.LFB64:
  69              		.file 1 "main.c"
   1:main.c        **** /*****************************************************************************
   2:main.c        **** * File Name: main.c
   3:main.c        **** *
   4:main.c        **** * Version: 3.0
   5:main.c        **** *
   6:main.c        **** * Description:
   7:main.c        **** *   
   8:main.c        **** * 
   9:main.c        **** * Note:
  10:main.c        **** * 	The main project includes the ADC and other components required for the
  11:main.c        **** *   temperature measurement. The Thermistor component is a complete firmware component
  12:main.c        **** *   as decribed in the component datahseet and application note
  13:main.c        **** ******************************************************************************
  14:main.c        **** * Copyright (C) 2015, Cypress Semiconductor Corporation.
  15:main.c        **** ******************************************************************************
  16:main.c        **** * This software is owned by Cypress Semiconductor Corporation (Cypress) and is
  17:main.c        **** * protected by and subject to worldwide patent protection (United States and
  18:main.c        **** * foreign), United States copyright laws and international treaty provisions.
  19:main.c        **** * Cypress hereby grants to licensee a personal, non-exclusive, non-transferable
  20:main.c        **** * license to copy, use, modify, create derivative works of, and compile the
  21:main.c        **** * Cypress Source Code and derivative works for the sole purpose of creating
  22:main.c        **** * custom software in support of licensee product to be used only in conjunction
  23:main.c        **** * with a Cypress integrated circuit as specified in the applicable agreement.
  24:main.c        **** * Any reproduction, modification, translation, compilation, or representation of
  25:main.c        **** * this software except as specified above is prohibited without the express
  26:main.c        **** * written permission of Cypress.
  27:main.c        **** *
  28:main.c        **** * Disclaimer: CYPRESS MAKES NO WARRANTY OF ANY KIND, EXPRESS OR IMPLIED, WITH
  29:main.c        **** * REGARD TO THIS MATERIAL, INCLUDING, BUT NOT LIMITED TO, THE IMPLIED
  30:main.c        **** * WARRANTIES OF MERCHANTABILITY AND FITNESS FOR A PARTICULAR PURPOSE.
  31:main.c        **** * Cypress reserves the right to make changes without further notice to the
  32:main.c        **** * materials described herein. Cypress does not assume any liability arising out
  33:main.c        **** * of the application or use of any product or circuit described herein. Cypress
  34:main.c        **** * does not authorize its products for use as critical components in life-support
  35:main.c        **** * systems where a malfunction or failure may reasonably be expected to result in
  36:main.c        **** * significant injury to the user. The inclusion of Cypress' product in a life-
  37:main.c        **** * support systems application implies that the manufacturer assumes all risk of
  38:main.c        **** * such use and in doing so indemnifies Cypress against all charges. Use may be
  39:main.c        **** * limited by and subject to the applicable Cypress software license agreement.
  40:main.c        **** *****************************************************************************/
  41:main.c        **** #include <device.h>
  42:main.c        **** #include "removeOffsetNoise.h"
  43:main.c        **** #include "measurement.h"
  44:main.c        **** #include <stdio.h>
  45:main.c        **** 
ARM GAS  C:\Users\JEFFSN~1\AppData\Local\Temp\ccYO9KEx.s 			page 3


  46:main.c        **** #define barBufferSize 8
  47:main.c        **** #define touchBufferSize 4
  48:main.c        **** #define REFERENCE_RESISTOR 32000
  49:main.c        **** 
  50:main.c        **** 
  51:main.c        **** uint8_t stringCapSensorsOnOff[1];
  52:main.c        **** uint8_t stringCapSensorsRaw[16];
  53:main.c        **** uint8_t thresholdArray[12] = {15, 15, 15, 15, 15, 15, 15, 15, 15, 15, 15, 15};
  54:main.c        **** uint8 barArray[barBufferSize];
  55:main.c        **** uint8 touchArray[touchBufferSize];
  56:main.c        **** int32_t linearPotValue32Bit[4];
  57:main.c        **** uint8_t i = 0;
  58:main.c        **** uint8_t counter = 0;
  59:main.c        **** 
  60:main.c        **** int32_t temper;
  61:main.c        **** int previousButtons[11];
  62:main.c        **** int octave = 0;
  63:main.c        **** void scanLinearResistor(void);
  64:main.c        **** 
  65:main.c        **** 
  66:main.c        **** CY_ISR(button_press_ISR) {     /* No need to clear any interrupt source; interrupt component should
  70              		.loc 1 66 0
  71              		.cfi_startproc
  72              		@ args = 0, pretend = 0, frame = 0
  73              		@ frame_needed = 1, uses_anonymous_args = 0
  74              		@ link register save eliminated.
  75 0000 80B4     		push	{r7}
  76              		.cfi_def_cfa_offset 4
  77              		.cfi_offset 7, -4
  78 0002 00AF     		add	r7, sp, #0
  79              		.cfi_def_cfa_register 7
  67:main.c        ****  //FiltReg_Read(); 
  68:main.c        ****     //
  69:main.c        **** }
  80              		.loc 1 69 0
  81 0004 00BF     		nop
  82 0006 BD46     		mov	sp, r7
  83              		.cfi_def_cfa_register 13
  84              		@ sp needed
  85 0008 80BC     		pop	{r7}
  86              		.cfi_restore 7
  87              		.cfi_def_cfa_offset 0
  88 000a 7047     		bx	lr
  89              		.cfi_endproc
  90              	.LFE64:
  91              		.size	button_press_ISR, .-button_press_ISR
  92              		.comm	ADC_values,24,4
  93              		.global	currentResistor
  94              		.bss
  95              		.type	currentResistor, %object
  96              		.size	currentResistor, 1
  97              	currentResistor:
  98 0008 00       		.space	1
  99              		.global	scanState
 100              		.type	scanState, %object
 101              		.size	scanState, 1
 102              	scanState:
ARM GAS  C:\Users\JEFFSN~1\AppData\Local\Temp\ccYO9KEx.s 			page 4


 103 0009 00       		.space	1
 104              		.global	iVtherm
 105 000a 0000     		.align	2
 106              		.type	iVtherm, %object
 107              		.size	iVtherm, 4
 108              	iVtherm:
 109 000c 00000000 		.space	4
 110              		.global	iVref
 111              		.align	2
 112              		.type	iVref, %object
 113              		.size	iVref, 4
 114              	iVref:
 115 0010 00000000 		.space	4
 116              		.global	iRes
 117              		.align	2
 118              		.type	iRes, %object
 119              		.size	iRes, 4
 120              	iRes:
 121 0014 00000000 		.space	4
 122              		.global	offset
 123              		.align	2
 124              		.type	offset, %object
 125              		.size	offset, 4
 126              	offset:
 127 0018 00000000 		.space	4
 128              		.section	.text.main,"ax",%progbits
 129              		.align	2
 130              		.global	main
 131              		.thumb
 132              		.thumb_func
 133              		.type	main, %function
 134              	main:
 135              	.LFB65:
  70:main.c        **** 
  71:main.c        **** uint16_t ADC_values[12];
  72:main.c        **** uint8_t currentResistor = 0;
  73:main.c        **** uint8_t scanState = 0;
  74:main.c        **** int32 iVtherm = 0;
  75:main.c        **** int32 iVref = 0;
  76:main.c        **** int32 iRes = 0;
  77:main.c        **** int32 offset = 0;
  78:main.c        **** 
  79:main.c        **** 
  80:main.c        **** int main(void)
  81:main.c        **** {
 136              		.loc 1 81 0
 137              		.cfi_startproc
 138              		@ args = 0, pretend = 0, frame = 40
 139              		@ frame_needed = 1, uses_anonymous_args = 0
 140 0000 80B5     		push	{r7, lr}
 141              		.cfi_def_cfa_offset 8
 142              		.cfi_offset 7, -8
 143              		.cfi_offset 14, -4
 144 0002 8AB0     		sub	sp, sp, #40
 145              		.cfi_def_cfa_offset 48
 146 0004 00AF     		add	r7, sp, #0
 147              		.cfi_def_cfa_register 7
ARM GAS  C:\Users\JEFFSN~1\AppData\Local\Temp\ccYO9KEx.s 			page 5


  82:main.c        ****     
  83:main.c        **** 	char printBuf[16]={'\0'};
 148              		.loc 1 83 0
 149 0006 3B46     		mov	r3, r7
 150 0008 0022     		movs	r2, #0
 151 000a 1A60     		str	r2, [r3]
 152 000c 5A60     		str	r2, [r3, #4]
 153 000e 9A60     		str	r2, [r3, #8]
 154 0010 DA60     		str	r2, [r3, #12]
  84:main.c        **** 
  85:main.c        **** 
  86:main.c        **** 	CYGlobalIntEnable; 
 155              		.loc 1 86 0
 156              		.syntax unified
 157              	@ 86 "main.c" 1
 158 0012 62B6     		CPSIE   i
 159              	@ 0 "" 2
  87:main.c        **** 	ADC_1_Start();
 160              		.loc 1 87 0
 161              		.thumb
 162              		.syntax unified
 163 0014 FFF7FEFF 		bl	ADC_1_Start
  88:main.c        **** 	AMux_1_Start();
 164              		.loc 1 88 0
 165 0018 FFF7FEFF 		bl	AMux_1_Start
  89:main.c        **** 
  90:main.c        **** 
  91:main.c        ****     SPIM_1_Start();
 166              		.loc 1 91 0
 167 001c FFF7FEFF 		bl	SPIM_1_Start
  92:main.c        ****     SPIM_2_Start();
 168              		.loc 1 92 0
 169 0020 FFF7FEFF 		bl	SPIM_2_Start
  93:main.c        ****     //SPIS_1_Start();
  94:main.c        ****     Opamp_1_Start();
 170              		.loc 1 94 0
 171 0024 FFF7FEFF 		bl	Opamp_1_Start
  95:main.c        ****     Opamp_2_Start();
 172              		.loc 1 95 0
 173 0028 FFF7FEFF 		bl	Opamp_2_Start
  96:main.c        ****     //Opamp_3_Start();
  97:main.c        ****     //Opamp_4_Start();
  98:main.c        ****     
  99:main.c        ****     Opamp_1_Sleep();
 174              		.loc 1 99 0
 175 002c FFF7FEFF 		bl	Opamp_1_Sleep
 100:main.c        **** 
 101:main.c        ****    // VDAC8_1_Start();
 102:main.c        ****    // VDAC8_2_Start();
 103:main.c        ****     
 104:main.c        ****     CapSense_Start();     
 176              		.loc 1 104 0
 177 0030 FFF7FEFF 		bl	CapSense_Start
 105:main.c        ****     
 106:main.c        ****     CyDelay(1000);
 178              		.loc 1 106 0
 179 0034 4FF47A70 		mov	r0, #1000
ARM GAS  C:\Users\JEFFSN~1\AppData\Local\Temp\ccYO9KEx.s 			page 6


 180 0038 FFF7FEFF 		bl	CyDelay
 107:main.c        ****     CapSense_InitializeAllBaselines();
 181              		.loc 1 107 0
 182 003c FFF7FEFF 		bl	CapSense_InitializeAllBaselines
 108:main.c        ****     uint8_t myArrayCounter = 0;
 183              		.loc 1 108 0
 184 0040 0023     		movs	r3, #0
 185 0042 FB77     		strb	r3, [r7, #31]
 109:main.c        ****     
 110:main.c        ****     CapSense_ScanEnabledWidgets();  
 186              		.loc 1 110 0
 187 0044 FFF7FEFF 		bl	CapSense_ScanEnabledWidgets
 111:main.c        **** 
 112:main.c        ****     //select the high/low pins
 113:main.c        ****     if (currentResistor == 0)
 188              		.loc 1 113 0
 189 0048 994B     		ldr	r3, .L19
 190 004a 1B78     		ldrb	r3, [r3]	@ zero_extendqisi2
 191 004c 002B     		cmp	r3, #0
 192 004e 04D1     		bne	.L3
 114:main.c        ****     {
 115:main.c        ****         Opamp_2_Sleep();
 193              		.loc 1 115 0
 194 0050 FFF7FEFF 		bl	Opamp_2_Sleep
 116:main.c        ****         Opamp_1_Wakeup();
 195              		.loc 1 116 0
 196 0054 FFF7FEFF 		bl	Opamp_1_Wakeup
 197 0058 03E0     		b	.L4
 198              	.L3:
 117:main.c        ****     }
 118:main.c        ****     else
 119:main.c        ****     {   
 120:main.c        ****         Opamp_1_Sleep();
 199              		.loc 1 120 0
 200 005a FFF7FEFF 		bl	Opamp_1_Sleep
 121:main.c        ****         Opamp_2_Wakeup();
 201              		.loc 1 121 0
 202 005e FFF7FEFF 		bl	Opamp_2_Wakeup
 203              	.L4:
 122:main.c        ****     }
 123:main.c        **** 
 124:main.c        ****     //select the wiper pins
 125:main.c        ****     AMux_1_FastSelect(currentResistor * 2);
 204              		.loc 1 125 0
 205 0062 934B     		ldr	r3, .L19
 206 0064 1B78     		ldrb	r3, [r3]	@ zero_extendqisi2
 207 0066 5B00     		lsls	r3, r3, #1
 208 0068 DBB2     		uxtb	r3, r3
 209 006a 1846     		mov	r0, r3
 210 006c FFF7FEFF 		bl	AMux_1_FastSelect
 126:main.c        ****     ADC_1_StartConvert();
 211              		.loc 1 126 0
 212 0070 FFF7FEFF 		bl	ADC_1_StartConvert
 127:main.c        ****     scanState = 0;
 213              		.loc 1 127 0
 214 0074 8F4B     		ldr	r3, .L19+4
 215 0076 0022     		movs	r2, #0
ARM GAS  C:\Users\JEFFSN~1\AppData\Local\Temp\ccYO9KEx.s 			page 7


 216 0078 1A70     		strb	r2, [r3]
 217              	.L18:
 218              	.LBB2:
 128:main.c        **** 	for(;;)
 129:main.c        ****     {
 130:main.c        ****         CapSense_ClearSensors();
 219              		.loc 1 130 0
 220 007a FFF7FEFF 		bl	CapSense_ClearSensors
 131:main.c        ****         
 132:main.c        **** 
 133:main.c        ****         scanLinearResistor();
 221              		.loc 1 133 0
 222 007e FFF7FEFF 		bl	scanLinearResistor
 134:main.c        **** 
 135:main.c        **** 
 136:main.c        ****         uint8_t byteCounter = 0;
 223              		.loc 1 136 0
 224 0082 0023     		movs	r3, #0
 225 0084 BB77     		strb	r3, [r7, #30]
 137:main.c        **** 
 138:main.c        ****         CapSense_UpdateEnabledBaselines();
 226              		.loc 1 138 0
 227 0086 FFF7FEFF 		bl	CapSense_UpdateEnabledBaselines
 139:main.c        ****         CapSense_ScanEnabledWidgets();  
 228              		.loc 1 139 0
 229 008a FFF7FEFF 		bl	CapSense_ScanEnabledWidgets
 140:main.c        ****         
 141:main.c        ****         int isSensorOn1 = (CapSense_sensorRaw[0] - CapSense_sensorBaseline[0]) > thresholdArray[0];
 230              		.loc 1 141 0
 231 008e 8A4B     		ldr	r3, .L19+8
 232 0090 1B88     		ldrh	r3, [r3]
 233 0092 1A46     		mov	r2, r3
 234 0094 894B     		ldr	r3, .L19+12
 235 0096 1B88     		ldrh	r3, [r3]
 236 0098 D31A     		subs	r3, r2, r3
 237 009a 894A     		ldr	r2, .L19+16
 238 009c 1278     		ldrb	r2, [r2]	@ zero_extendqisi2
 239 009e 9342     		cmp	r3, r2
 240 00a0 CCBF     		ite	gt
 241 00a2 0123     		movgt	r3, #1
 242 00a4 0023     		movle	r3, #0
 243 00a6 DBB2     		uxtb	r3, r3
 244 00a8 BB61     		str	r3, [r7, #24]
 142:main.c        ****         if (isSensorOn1)
 245              		.loc 1 142 0
 246 00aa BB69     		ldr	r3, [r7, #24]
 247 00ac 002B     		cmp	r3, #0
 248 00ae 03D0     		beq	.L5
 143:main.c        ****         {
 144:main.c        ****             LED_1_Write(1);
 249              		.loc 1 144 0
 250 00b0 0120     		movs	r0, #1
 251 00b2 FFF7FEFF 		bl	LED_1_Write
 252 00b6 02E0     		b	.L6
 253              	.L5:
 145:main.c        ****         }
 146:main.c        ****         else
ARM GAS  C:\Users\JEFFSN~1\AppData\Local\Temp\ccYO9KEx.s 			page 8


 147:main.c        ****         {
 148:main.c        ****             LED_1_Write(0);
 254              		.loc 1 148 0
 255 00b8 0020     		movs	r0, #0
 256 00ba FFF7FEFF 		bl	LED_1_Write
 257              	.L6:
 149:main.c        ****         }
 150:main.c        **** 
 151:main.c        ****         counter = 0;
 258              		.loc 1 151 0
 259 00be 814B     		ldr	r3, .L19+20
 260 00c0 0022     		movs	r2, #0
 261 00c2 1A70     		strb	r2, [r3]
 152:main.c        ****         
 153:main.c        ****         for (i = 0; i < 2; i++)
 262              		.loc 1 153 0
 263 00c4 804B     		ldr	r3, .L19+24
 264 00c6 0022     		movs	r2, #0
 265 00c8 1A70     		strb	r2, [r3]
 266 00ca 26E0     		b	.L7
 267              	.L8:
 154:main.c        ****         {
 155:main.c        ****             barArray[counter++] = ((uint16_t) linearPotValue32Bit[i]) >> 8;
 268              		.loc 1 155 0 discriminator 3
 269 00cc 7D4B     		ldr	r3, .L19+20
 270 00ce 1B78     		ldrb	r3, [r3]	@ zero_extendqisi2
 271 00d0 5A1C     		adds	r2, r3, #1
 272 00d2 D1B2     		uxtb	r1, r2
 273 00d4 7B4A     		ldr	r2, .L19+20
 274 00d6 1170     		strb	r1, [r2]
 275 00d8 1A46     		mov	r2, r3
 276 00da 7B4B     		ldr	r3, .L19+24
 277 00dc 1B78     		ldrb	r3, [r3]	@ zero_extendqisi2
 278 00de 1946     		mov	r1, r3
 279 00e0 7A4B     		ldr	r3, .L19+28
 280 00e2 53F82130 		ldr	r3, [r3, r1, lsl #2]
 281 00e6 1B12     		asrs	r3, r3, #8
 282 00e8 D9B2     		uxtb	r1, r3
 283 00ea 794B     		ldr	r3, .L19+32
 284 00ec 9954     		strb	r1, [r3, r2]
 156:main.c        ****             barArray[counter++] = linearPotValue32Bit[i] & 0xff;
 285              		.loc 1 156 0 discriminator 3
 286 00ee 754B     		ldr	r3, .L19+20
 287 00f0 1B78     		ldrb	r3, [r3]	@ zero_extendqisi2
 288 00f2 5A1C     		adds	r2, r3, #1
 289 00f4 D1B2     		uxtb	r1, r2
 290 00f6 734A     		ldr	r2, .L19+20
 291 00f8 1170     		strb	r1, [r2]
 292 00fa 1A46     		mov	r2, r3
 293 00fc 724B     		ldr	r3, .L19+24
 294 00fe 1B78     		ldrb	r3, [r3]	@ zero_extendqisi2
 295 0100 1946     		mov	r1, r3
 296 0102 724B     		ldr	r3, .L19+28
 297 0104 53F82130 		ldr	r3, [r3, r1, lsl #2]
 298 0108 D9B2     		uxtb	r1, r3
 299 010a 714B     		ldr	r3, .L19+32
 300 010c 9954     		strb	r1, [r3, r2]
ARM GAS  C:\Users\JEFFSN~1\AppData\Local\Temp\ccYO9KEx.s 			page 9


 153:main.c        ****         {
 301              		.loc 1 153 0 discriminator 3
 302 010e 6E4B     		ldr	r3, .L19+24
 303 0110 1B78     		ldrb	r3, [r3]	@ zero_extendqisi2
 304 0112 0133     		adds	r3, r3, #1
 305 0114 DAB2     		uxtb	r2, r3
 306 0116 6C4B     		ldr	r3, .L19+24
 307 0118 1A70     		strb	r2, [r3]
 308              	.L7:
 153:main.c        ****         {
 309              		.loc 1 153 0 is_stmt 0 discriminator 1
 310 011a 6B4B     		ldr	r3, .L19+24
 311 011c 1B78     		ldrb	r3, [r3]	@ zero_extendqisi2
 312 011e 012B     		cmp	r3, #1
 313 0120 D4D9     		bls	.L8
 157:main.c        ****         }
 158:main.c        **** 
 159:main.c        **** 
 160:main.c        **** 
 161:main.c        ****         barArray[4] = 0;
 314              		.loc 1 161 0 is_stmt 1
 315 0122 6B4B     		ldr	r3, .L19+32
 316 0124 0022     		movs	r2, #0
 317 0126 1A71     		strb	r2, [r3, #4]
 162:main.c        ****         barArray[5] = 0;
 318              		.loc 1 162 0
 319 0128 694B     		ldr	r3, .L19+32
 320 012a 0022     		movs	r2, #0
 321 012c 5A71     		strb	r2, [r3, #5]
 163:main.c        ****         barArray[6] = 254;
 322              		.loc 1 163 0
 323 012e 684B     		ldr	r3, .L19+32
 324 0130 FE22     		movs	r2, #254
 325 0132 9A71     		strb	r2, [r3, #6]
 164:main.c        ****         barArray[7] = 253;
 326              		.loc 1 164 0
 327 0134 664B     		ldr	r3, .L19+32
 328 0136 FD22     		movs	r2, #253
 329 0138 DA71     		strb	r2, [r3, #7]
 165:main.c        ****         
 166:main.c        ****         touchArray[0] = 0;
 330              		.loc 1 166 0
 331 013a 664B     		ldr	r3, .L19+36
 332 013c 0022     		movs	r2, #0
 333 013e 1A70     		strb	r2, [r3]
 167:main.c        ****         touchArray[1] = 0;
 334              		.loc 1 167 0
 335 0140 644B     		ldr	r3, .L19+36
 336 0142 0022     		movs	r2, #0
 337 0144 5A70     		strb	r2, [r3, #1]
 168:main.c        ****         touchArray[2] = 254;
 338              		.loc 1 168 0
 339 0146 634B     		ldr	r3, .L19+36
 340 0148 FE22     		movs	r2, #254
 341 014a 9A70     		strb	r2, [r3, #2]
 169:main.c        ****         touchArray[3] = 253;
 342              		.loc 1 169 0
ARM GAS  C:\Users\JEFFSN~1\AppData\Local\Temp\ccYO9KEx.s 			page 10


 343 014c 614B     		ldr	r3, .L19+36
 344 014e FD22     		movs	r2, #253
 345 0150 DA70     		strb	r2, [r3, #3]
 170:main.c        **** 
 171:main.c        ****         
 172:main.c        ****         while(CapSense_IsBusy() != 0)  
 346              		.loc 1 172 0
 347 0152 00BF     		nop
 348              	.L9:
 349              		.loc 1 172 0 is_stmt 0 discriminator 1
 350 0154 FFF7FEFF 		bl	CapSense_IsBusy
 351 0158 0346     		mov	r3, r0
 352 015a 002B     		cmp	r3, #0
 353 015c FAD1     		bne	.L9
 173:main.c        ****         {
 174:main.c        ****             ;//wait until scan is complete
 175:main.c        ****         }  
 176:main.c        ****         for (i = 0; i < 8; i++)
 354              		.loc 1 176 0 is_stmt 1
 355 015e 5A4B     		ldr	r3, .L19+24
 356 0160 0022     		movs	r2, #0
 357 0162 1A70     		strb	r2, [r3]
 358 0164 3AE0     		b	.L10
 359              	.L11:
 360              	.LBB3:
 177:main.c        ****         {
 178:main.c        ****            int isSensorOn = (CapSense_sensorRaw[i] - CapSense_sensorBaseline[i]) > thresholdArray[i
 361              		.loc 1 178 0 discriminator 3
 362 0166 584B     		ldr	r3, .L19+24
 363 0168 1B78     		ldrb	r3, [r3]	@ zero_extendqisi2
 364 016a 1A46     		mov	r2, r3
 365 016c 524B     		ldr	r3, .L19+8
 366 016e 33F81230 		ldrh	r3, [r3, r2, lsl #1]
 367 0172 1A46     		mov	r2, r3
 368 0174 544B     		ldr	r3, .L19+24
 369 0176 1B78     		ldrb	r3, [r3]	@ zero_extendqisi2
 370 0178 1946     		mov	r1, r3
 371 017a 504B     		ldr	r3, .L19+12
 372 017c 33F81130 		ldrh	r3, [r3, r1, lsl #1]
 373 0180 D31A     		subs	r3, r2, r3
 374 0182 514A     		ldr	r2, .L19+24
 375 0184 1278     		ldrb	r2, [r2]	@ zero_extendqisi2
 376 0186 1146     		mov	r1, r2
 377 0188 4D4A     		ldr	r2, .L19+16
 378 018a 525C     		ldrb	r2, [r2, r1]	@ zero_extendqisi2
 379 018c 9342     		cmp	r3, r2
 380 018e CCBF     		ite	gt
 381 0190 0123     		movgt	r3, #1
 382 0192 0023     		movle	r3, #0
 383 0194 DBB2     		uxtb	r3, r3
 384 0196 7B61     		str	r3, [r7, #20]
 179:main.c        ****             touchArray[0] |= (isSensorOn << i);
 385              		.loc 1 179 0 discriminator 3
 386 0198 4E4B     		ldr	r3, .L19+36
 387 019a 1B78     		ldrb	r3, [r3]	@ zero_extendqisi2
 388 019c 5AB2     		sxtb	r2, r3
 389 019e 4A4B     		ldr	r3, .L19+24
ARM GAS  C:\Users\JEFFSN~1\AppData\Local\Temp\ccYO9KEx.s 			page 11


 390 01a0 1B78     		ldrb	r3, [r3]	@ zero_extendqisi2
 391 01a2 1946     		mov	r1, r3
 392 01a4 7B69     		ldr	r3, [r7, #20]
 393 01a6 8B40     		lsls	r3, r3, r1
 394 01a8 5BB2     		sxtb	r3, r3
 395 01aa 1343     		orrs	r3, r3, r2
 396 01ac 5BB2     		sxtb	r3, r3
 397 01ae DAB2     		uxtb	r2, r3
 398 01b0 484B     		ldr	r3, .L19+36
 399 01b2 1A70     		strb	r2, [r3]
 180:main.c        ****             barArray[4] |= (isSensorOn << i);
 400              		.loc 1 180 0 discriminator 3
 401 01b4 464B     		ldr	r3, .L19+32
 402 01b6 1B79     		ldrb	r3, [r3, #4]	@ zero_extendqisi2
 403 01b8 5AB2     		sxtb	r2, r3
 404 01ba 434B     		ldr	r3, .L19+24
 405 01bc 1B78     		ldrb	r3, [r3]	@ zero_extendqisi2
 406 01be 1946     		mov	r1, r3
 407 01c0 7B69     		ldr	r3, [r7, #20]
 408 01c2 8B40     		lsls	r3, r3, r1
 409 01c4 5BB2     		sxtb	r3, r3
 410 01c6 1343     		orrs	r3, r3, r2
 411 01c8 5BB2     		sxtb	r3, r3
 412 01ca DAB2     		uxtb	r2, r3
 413 01cc 404B     		ldr	r3, .L19+32
 414 01ce 1A71     		strb	r2, [r3, #4]
 415              	.LBE3:
 176:main.c        ****         {
 416              		.loc 1 176 0 discriminator 3
 417 01d0 3D4B     		ldr	r3, .L19+24
 418 01d2 1B78     		ldrb	r3, [r3]	@ zero_extendqisi2
 419 01d4 0133     		adds	r3, r3, #1
 420 01d6 DAB2     		uxtb	r2, r3
 421 01d8 3B4B     		ldr	r3, .L19+24
 422 01da 1A70     		strb	r2, [r3]
 423              	.L10:
 176:main.c        ****         {
 424              		.loc 1 176 0 is_stmt 0 discriminator 1
 425 01dc 3A4B     		ldr	r3, .L19+24
 426 01de 1B78     		ldrb	r3, [r3]	@ zero_extendqisi2
 427 01e0 072B     		cmp	r3, #7
 428 01e2 C0D9     		bls	.L11
 181:main.c        **** 
 182:main.c        ****         }
 183:main.c        ****         for (i = 8; i < 12; i++)
 429              		.loc 1 183 0 is_stmt 1
 430 01e4 384B     		ldr	r3, .L19+24
 431 01e6 0822     		movs	r2, #8
 432 01e8 1A70     		strb	r2, [r3]
 433 01ea 3CE0     		b	.L12
 434              	.L13:
 435              	.LBB4:
 184:main.c        ****         {
 185:main.c        ****            int isSensorOn = (CapSense_sensorRaw[i] - CapSense_sensorBaseline[i]) > thresholdArray[i
 436              		.loc 1 185 0 discriminator 3
 437 01ec 364B     		ldr	r3, .L19+24
 438 01ee 1B78     		ldrb	r3, [r3]	@ zero_extendqisi2
ARM GAS  C:\Users\JEFFSN~1\AppData\Local\Temp\ccYO9KEx.s 			page 12


 439 01f0 1A46     		mov	r2, r3
 440 01f2 314B     		ldr	r3, .L19+8
 441 01f4 33F81230 		ldrh	r3, [r3, r2, lsl #1]
 442 01f8 1A46     		mov	r2, r3
 443 01fa 334B     		ldr	r3, .L19+24
 444 01fc 1B78     		ldrb	r3, [r3]	@ zero_extendqisi2
 445 01fe 1946     		mov	r1, r3
 446 0200 2E4B     		ldr	r3, .L19+12
 447 0202 33F81130 		ldrh	r3, [r3, r1, lsl #1]
 448 0206 D31A     		subs	r3, r2, r3
 449 0208 2F4A     		ldr	r2, .L19+24
 450 020a 1278     		ldrb	r2, [r2]	@ zero_extendqisi2
 451 020c 1146     		mov	r1, r2
 452 020e 2C4A     		ldr	r2, .L19+16
 453 0210 525C     		ldrb	r2, [r2, r1]	@ zero_extendqisi2
 454 0212 9342     		cmp	r3, r2
 455 0214 CCBF     		ite	gt
 456 0216 0123     		movgt	r3, #1
 457 0218 0023     		movle	r3, #0
 458 021a DBB2     		uxtb	r3, r3
 459 021c 3B61     		str	r3, [r7, #16]
 186:main.c        ****             touchArray[1] |= (isSensorOn << (i - 8));
 460              		.loc 1 186 0 discriminator 3
 461 021e 2D4B     		ldr	r3, .L19+36
 462 0220 5B78     		ldrb	r3, [r3, #1]	@ zero_extendqisi2
 463 0222 5AB2     		sxtb	r2, r3
 464 0224 284B     		ldr	r3, .L19+24
 465 0226 1B78     		ldrb	r3, [r3]	@ zero_extendqisi2
 466 0228 083B     		subs	r3, r3, #8
 467 022a 3969     		ldr	r1, [r7, #16]
 468 022c 01FA03F3 		lsl	r3, r1, r3
 469 0230 5BB2     		sxtb	r3, r3
 470 0232 1343     		orrs	r3, r3, r2
 471 0234 5BB2     		sxtb	r3, r3
 472 0236 DAB2     		uxtb	r2, r3
 473 0238 264B     		ldr	r3, .L19+36
 474 023a 5A70     		strb	r2, [r3, #1]
 187:main.c        ****             barArray[5] |= (isSensorOn << (i - 8));
 475              		.loc 1 187 0 discriminator 3
 476 023c 244B     		ldr	r3, .L19+32
 477 023e 5B79     		ldrb	r3, [r3, #5]	@ zero_extendqisi2
 478 0240 5AB2     		sxtb	r2, r3
 479 0242 214B     		ldr	r3, .L19+24
 480 0244 1B78     		ldrb	r3, [r3]	@ zero_extendqisi2
 481 0246 083B     		subs	r3, r3, #8
 482 0248 3969     		ldr	r1, [r7, #16]
 483 024a 01FA03F3 		lsl	r3, r1, r3
 484 024e 5BB2     		sxtb	r3, r3
 485 0250 1343     		orrs	r3, r3, r2
 486 0252 5BB2     		sxtb	r3, r3
 487 0254 DAB2     		uxtb	r2, r3
 488 0256 1E4B     		ldr	r3, .L19+32
 489 0258 5A71     		strb	r2, [r3, #5]
 490              	.LBE4:
 183:main.c        ****         {
 491              		.loc 1 183 0 discriminator 3
 492 025a 1B4B     		ldr	r3, .L19+24
ARM GAS  C:\Users\JEFFSN~1\AppData\Local\Temp\ccYO9KEx.s 			page 13


 493 025c 1B78     		ldrb	r3, [r3]	@ zero_extendqisi2
 494 025e 0133     		adds	r3, r3, #1
 495 0260 DAB2     		uxtb	r2, r3
 496 0262 194B     		ldr	r3, .L19+24
 497 0264 1A70     		strb	r2, [r3]
 498              	.L12:
 183:main.c        ****         {
 499              		.loc 1 183 0 is_stmt 0 discriminator 1
 500 0266 184B     		ldr	r3, .L19+24
 501 0268 1B78     		ldrb	r3, [r3]	@ zero_extendqisi2
 502 026a 0B2B     		cmp	r3, #11
 503 026c BED9     		bls	.L13
 504              	.LBB5:
 188:main.c        ****         }        
 189:main.c        ****         
 190:main.c        ****         //send data over SPI to Genera boards
 191:main.c        ****          for (int i = 0; i < touchBufferSize; i++)
 505              		.loc 1 191 0 is_stmt 1
 506 026e 0023     		movs	r3, #0
 507 0270 7B62     		str	r3, [r7, #36]
 508 0272 09E0     		b	.L14
 509              	.L15:
 192:main.c        ****         {         
 193:main.c        **** 
 194:main.c        ****             SPIM_1_WriteTxData(touchArray[i]);
 510              		.loc 1 194 0 discriminator 3
 511 0274 174A     		ldr	r2, .L19+36
 512 0276 7B6A     		ldr	r3, [r7, #36]
 513 0278 1344     		add	r3, r3, r2
 514 027a 1B78     		ldrb	r3, [r3]	@ zero_extendqisi2
 515 027c 1846     		mov	r0, r3
 516 027e FFF7FEFF 		bl	SPIM_1_WriteTxData
 191:main.c        ****         {         
 517              		.loc 1 191 0 discriminator 3
 518 0282 7B6A     		ldr	r3, [r7, #36]
 519 0284 0133     		adds	r3, r3, #1
 520 0286 7B62     		str	r3, [r7, #36]
 521              	.L14:
 191:main.c        ****         {         
 522              		.loc 1 191 0 is_stmt 0 discriminator 1
 523 0288 7B6A     		ldr	r3, [r7, #36]
 524 028a 032B     		cmp	r3, #3
 525 028c F2DD     		ble	.L15
 526              	.LBE5:
 527              	.LBB6:
 195:main.c        **** 
 196:main.c        ****         }
 197:main.c        ****         
 198:main.c        ****         //send data over SPI to brain and synth boards
 199:main.c        ****          for (int i = 0; i < barBufferSize; i++)
 528              		.loc 1 199 0 is_stmt 1
 529 028e 0023     		movs	r3, #0
 530 0290 3B62     		str	r3, [r7, #32]
 531 0292 09E0     		b	.L16
 532              	.L17:
 200:main.c        ****         {         
 201:main.c        **** 
ARM GAS  C:\Users\JEFFSN~1\AppData\Local\Temp\ccYO9KEx.s 			page 14


 202:main.c        ****             SPIM_2_WriteTxData(barArray[i]);
 533              		.loc 1 202 0 discriminator 3
 534 0294 0E4A     		ldr	r2, .L19+32
 535 0296 3B6A     		ldr	r3, [r7, #32]
 536 0298 1344     		add	r3, r3, r2
 537 029a 1B78     		ldrb	r3, [r3]	@ zero_extendqisi2
 538 029c 1846     		mov	r0, r3
 539 029e FFF7FEFF 		bl	SPIM_2_WriteTxData
 199:main.c        ****         {         
 540              		.loc 1 199 0 discriminator 3
 541 02a2 3B6A     		ldr	r3, [r7, #32]
 542 02a4 0133     		adds	r3, r3, #1
 543 02a6 3B62     		str	r3, [r7, #32]
 544              	.L16:
 199:main.c        ****         {         
 545              		.loc 1 199 0 is_stmt 0 discriminator 1
 546 02a8 3B6A     		ldr	r3, [r7, #32]
 547 02aa 072B     		cmp	r3, #7
 548 02ac F2DD     		ble	.L17
 549              	.LBE6:
 550              	.LBE2:
 203:main.c        **** 
 204:main.c        ****         }
 205:main.c        **** 
 206:main.c        ****       
 207:main.c        ****         
 208:main.c        ****      }
 551              		.loc 1 208 0 is_stmt 1
 552 02ae E4E6     		b	.L18
 553              	.L20:
 554              		.align	2
 555              	.L19:
 556 02b0 00000000 		.word	currentResistor
 557 02b4 00000000 		.word	scanState
 558 02b8 00000000 		.word	CapSense_sensorRaw
 559 02bc 00000000 		.word	CapSense_sensorBaseline
 560 02c0 00000000 		.word	thresholdArray
 561 02c4 00000000 		.word	counter
 562 02c8 00000000 		.word	i
 563 02cc 00000000 		.word	linearPotValue32Bit
 564 02d0 00000000 		.word	barArray
 565 02d4 00000000 		.word	touchArray
 566              		.cfi_endproc
 567              	.LFE65:
 568              		.size	main, .-main
 569              		.global	__aeabi_i2f
 570              		.global	__aeabi_fdiv
 571              		.global	__aeabi_fmul
 572              		.global	__aeabi_f2iz
 573              		.section	.text.scanLinearResistor,"ax",%progbits
 574              		.align	2
 575              		.global	scanLinearResistor
 576              		.thumb
 577              		.thumb_func
 578              		.type	scanLinearResistor, %function
 579              	scanLinearResistor:
 580              	.LFB66:
ARM GAS  C:\Users\JEFFSN~1\AppData\Local\Temp\ccYO9KEx.s 			page 15


 209:main.c        **** }
 210:main.c        **** 
 211:main.c        **** 
 212:main.c        **** 
 213:main.c        **** void scanLinearResistor(void)
 214:main.c        **** {  
 581              		.loc 1 214 0
 582              		.cfi_startproc
 583              		@ args = 0, pretend = 0, frame = 8
 584              		@ frame_needed = 1, uses_anonymous_args = 0
 585 0000 90B5     		push	{r4, r7, lr}
 586              		.cfi_def_cfa_offset 12
 587              		.cfi_offset 4, -12
 588              		.cfi_offset 7, -8
 589              		.cfi_offset 14, -4
 590 0002 83B0     		sub	sp, sp, #12
 591              		.cfi_def_cfa_offset 24
 592 0004 00AF     		add	r7, sp, #0
 593              		.cfi_def_cfa_register 7
 215:main.c        ****         if (ADC_1_IsEndConversion(ADC_1_RETURN_STATUS))
 594              		.loc 1 215 0
 595 0006 0120     		movs	r0, #1
 596 0008 FFF7FEFF 		bl	ADC_1_IsEndConversion
 597 000c 0346     		mov	r3, r0
 598 000e 002B     		cmp	r3, #0
 599 0010 00F08880 		beq	.L29
 216:main.c        ****         {
 217:main.c        ****             if (scanState == 0)
 600              		.loc 1 217 0
 601 0014 454B     		ldr	r3, .L30
 602 0016 1B78     		ldrb	r3, [r3]	@ zero_extendqisi2
 603 0018 002B     		cmp	r3, #0
 604 001a 13D1     		bne	.L23
 218:main.c        ****             {
 219:main.c        ****                 iVtherm = ADC_1_GetResult32();
 605              		.loc 1 219 0
 606 001c FFF7FEFF 		bl	ADC_1_GetResult32
 607 0020 0246     		mov	r2, r0
 608 0022 434B     		ldr	r3, .L30+4
 609 0024 1A60     		str	r2, [r3]
 220:main.c        ****             	/* Get the offset voltage*/
 221:main.c        ****                 /*
 222:main.c        ****         	    AMux_1_FastSelect(4);
 223:main.c        ****                 ADC_1_StartConvert();
 224:main.c        ****                 scanState = 2;
 225:main.c        ****             }
 226:main.c        ****             else if (scanState == 1)
 227:main.c        ****             {
 228:main.c        ****                 offset = ADC_1_GetResult32();
 229:main.c        ****                 iVtherm =  iVtherm - offset;
 230:main.c        ****     	*/
 231:main.c        ****                 AMux_1_FastSelect((currentResistor * 2) + 1);
 610              		.loc 1 231 0
 611 0026 434B     		ldr	r3, .L30+8
 612 0028 1B78     		ldrb	r3, [r3]	@ zero_extendqisi2
 613 002a 5B00     		lsls	r3, r3, #1
 614 002c DBB2     		uxtb	r3, r3
ARM GAS  C:\Users\JEFFSN~1\AppData\Local\Temp\ccYO9KEx.s 			page 16


 615 002e 0133     		adds	r3, r3, #1
 616 0030 DBB2     		uxtb	r3, r3
 617 0032 1846     		mov	r0, r3
 618 0034 FFF7FEFF 		bl	AMux_1_FastSelect
 232:main.c        ****                 ADC_1_StartConvert();
 619              		.loc 1 232 0
 620 0038 FFF7FEFF 		bl	ADC_1_StartConvert
 233:main.c        ****                 scanState = 2;
 621              		.loc 1 233 0
 622 003c 3B4B     		ldr	r3, .L30
 623 003e 0222     		movs	r2, #2
 624 0040 1A70     		strb	r2, [r3]
 234:main.c        ****             }
 235:main.c        ****             else if (scanState == 2)
 236:main.c        ****             {
 237:main.c        ****                 iVref = ADC_1_GetResult32();
 238:main.c        ****                 iVref =  iVref - offset;
 239:main.c        ****             
 240:main.c        ****                 //iRes = Thermistor_GetResistance(iVtherm, iVref); //check if more efficient than m
 241:main.c        ****                 if ((iVref > 210000) && (iVtherm < 200000))
 242:main.c        ****                 {
 243:main.c        ****                     iRes = 65535;
 244:main.c        ****                 }
 245:main.c        ****                 else
 246:main.c        ****                 
 247:main.c        ****                 {
 248:main.c        ****                     float tempres = ((float)iVref / (float)iVtherm);
 249:main.c        ****                     iRes = (int32)(tempres * REFERENCE_RESISTOR);
 250:main.c        ****                 }
 251:main.c        ****                 if (iRes > 65535)
 252:main.c        ****                 {
 253:main.c        ****                     iRes = 65535;
 254:main.c        ****                 }
 255:main.c        ****                 linearPotValue32Bit[currentResistor] = iRes;
 256:main.c        ****                 currentResistor = !currentResistor;
 257:main.c        ****                 
 258:main.c        ****                                 //select the high/low pins
 259:main.c        ****                 if (currentResistor == 0)
 260:main.c        ****                 {
 261:main.c        ****                     Opamp_2_Sleep();
 262:main.c        ****                     Opamp_1_Wakeup();
 263:main.c        ****                 }
 264:main.c        ****                 else
 265:main.c        ****                 {   
 266:main.c        ****                     Opamp_1_Sleep();
 267:main.c        ****                     Opamp_2_Wakeup();
 268:main.c        ****                 }
 269:main.c        ****         
 270:main.c        ****                 //select the wiper pins
 271:main.c        ****                 AMux_1_FastSelect(currentResistor * 2);
 272:main.c        ****                 ADC_1_StartConvert();
 273:main.c        ****                 scanState = 0;
 274:main.c        ****             }
 275:main.c        ****         }
 276:main.c        **** }
 625              		.loc 1 276 0
 626 0042 6FE0     		b	.L29
ARM GAS  C:\Users\JEFFSN~1\AppData\Local\Temp\ccYO9KEx.s 			page 17


 627              	.L23:
 235:main.c        ****             {
 628              		.loc 1 235 0
 629 0044 394B     		ldr	r3, .L30
 630 0046 1B78     		ldrb	r3, [r3]	@ zero_extendqisi2
 631 0048 022B     		cmp	r3, #2
 632 004a 6BD1     		bne	.L29
 237:main.c        ****                 iVref =  iVref - offset;
 633              		.loc 1 237 0
 634 004c FFF7FEFF 		bl	ADC_1_GetResult32
 635 0050 0246     		mov	r2, r0
 636 0052 394B     		ldr	r3, .L30+12
 637 0054 1A60     		str	r2, [r3]
 238:main.c        ****             
 638              		.loc 1 238 0
 639 0056 384B     		ldr	r3, .L30+12
 640 0058 1A68     		ldr	r2, [r3]
 641 005a 384B     		ldr	r3, .L30+16
 642 005c 1B68     		ldr	r3, [r3]
 643 005e D31A     		subs	r3, r2, r3
 644 0060 354A     		ldr	r2, .L30+12
 645 0062 1360     		str	r3, [r2]
 241:main.c        ****                 {
 646              		.loc 1 241 0
 647 0064 344B     		ldr	r3, .L30+12
 648 0066 1B68     		ldr	r3, [r3]
 649 0068 354A     		ldr	r2, .L30+20
 650 006a 9342     		cmp	r3, r2
 651 006c 09DD     		ble	.L24
 241:main.c        ****                 {
 652              		.loc 1 241 0 is_stmt 0 discriminator 1
 653 006e 304B     		ldr	r3, .L30+4
 654 0070 1B68     		ldr	r3, [r3]
 655 0072 344A     		ldr	r2, .L30+24
 656 0074 9342     		cmp	r3, r2
 657 0076 04DC     		bgt	.L24
 243:main.c        ****                 }
 658              		.loc 1 243 0 is_stmt 1
 659 0078 334B     		ldr	r3, .L30+28
 660 007a 4FF6FF72 		movw	r2, #65535
 661 007e 1A60     		str	r2, [r3]
 662 0080 1CE0     		b	.L25
 663              	.L24:
 664              	.LBB7:
 248:main.c        ****                     iRes = (int32)(tempres * REFERENCE_RESISTOR);
 665              		.loc 1 248 0
 666 0082 2D4B     		ldr	r3, .L30+12
 667 0084 1B68     		ldr	r3, [r3]
 668 0086 1846     		mov	r0, r3
 669 0088 FFF7FEFF 		bl	__aeabi_i2f
 670 008c 0446     		mov	r4, r0
 671 008e 284B     		ldr	r3, .L30+4
 672 0090 1B68     		ldr	r3, [r3]
 673 0092 1846     		mov	r0, r3
 674 0094 FFF7FEFF 		bl	__aeabi_i2f
 675 0098 0346     		mov	r3, r0
 676 009a 1946     		mov	r1, r3
ARM GAS  C:\Users\JEFFSN~1\AppData\Local\Temp\ccYO9KEx.s 			page 18


 677 009c 2046     		mov	r0, r4
 678 009e FFF7FEFF 		bl	__aeabi_fdiv
 679 00a2 0346     		mov	r3, r0
 680 00a4 7B60     		str	r3, [r7, #4]	@ float
 249:main.c        ****                 }
 681              		.loc 1 249 0
 682 00a6 2949     		ldr	r1, .L30+32
 683 00a8 7868     		ldr	r0, [r7, #4]	@ float
 684 00aa FFF7FEFF 		bl	__aeabi_fmul
 685 00ae 0346     		mov	r3, r0
 686 00b0 1846     		mov	r0, r3
 687 00b2 FFF7FEFF 		bl	__aeabi_f2iz
 688 00b6 0246     		mov	r2, r0
 689 00b8 234B     		ldr	r3, .L30+28
 690 00ba 1A60     		str	r2, [r3]
 691              	.L25:
 692              	.LBE7:
 251:main.c        ****                 {
 693              		.loc 1 251 0
 694 00bc 224B     		ldr	r3, .L30+28
 695 00be 1B68     		ldr	r3, [r3]
 696 00c0 B3F5803F 		cmp	r3, #65536
 697 00c4 03DB     		blt	.L26
 253:main.c        ****                 }
 698              		.loc 1 253 0
 699 00c6 204B     		ldr	r3, .L30+28
 700 00c8 4FF6FF72 		movw	r2, #65535
 701 00cc 1A60     		str	r2, [r3]
 702              	.L26:
 255:main.c        ****                 currentResistor = !currentResistor;
 703              		.loc 1 255 0
 704 00ce 194B     		ldr	r3, .L30+8
 705 00d0 1B78     		ldrb	r3, [r3]	@ zero_extendqisi2
 706 00d2 1946     		mov	r1, r3
 707 00d4 1C4B     		ldr	r3, .L30+28
 708 00d6 1B68     		ldr	r3, [r3]
 709 00d8 1D4A     		ldr	r2, .L30+36
 710 00da 42F82130 		str	r3, [r2, r1, lsl #2]
 256:main.c        ****                 
 711              		.loc 1 256 0
 712 00de 154B     		ldr	r3, .L30+8
 713 00e0 1B78     		ldrb	r3, [r3]	@ zero_extendqisi2
 714 00e2 002B     		cmp	r3, #0
 715 00e4 0CBF     		ite	eq
 716 00e6 0123     		moveq	r3, #1
 717 00e8 0023     		movne	r3, #0
 718 00ea DBB2     		uxtb	r3, r3
 719 00ec 1A46     		mov	r2, r3
 720 00ee 114B     		ldr	r3, .L30+8
 721 00f0 1A70     		strb	r2, [r3]
 259:main.c        ****                 {
 722              		.loc 1 259 0
 723 00f2 104B     		ldr	r3, .L30+8
 724 00f4 1B78     		ldrb	r3, [r3]	@ zero_extendqisi2
 725 00f6 002B     		cmp	r3, #0
 726 00f8 04D1     		bne	.L27
 261:main.c        ****                     Opamp_1_Wakeup();
ARM GAS  C:\Users\JEFFSN~1\AppData\Local\Temp\ccYO9KEx.s 			page 19


 727              		.loc 1 261 0
 728 00fa FFF7FEFF 		bl	Opamp_2_Sleep
 262:main.c        ****                 }
 729              		.loc 1 262 0
 730 00fe FFF7FEFF 		bl	Opamp_1_Wakeup
 731 0102 03E0     		b	.L28
 732              	.L27:
 266:main.c        ****                     Opamp_2_Wakeup();
 733              		.loc 1 266 0
 734 0104 FFF7FEFF 		bl	Opamp_1_Sleep
 267:main.c        ****                 }
 735              		.loc 1 267 0
 736 0108 FFF7FEFF 		bl	Opamp_2_Wakeup
 737              	.L28:
 271:main.c        ****                 ADC_1_StartConvert();
 738              		.loc 1 271 0
 739 010c 094B     		ldr	r3, .L30+8
 740 010e 1B78     		ldrb	r3, [r3]	@ zero_extendqisi2
 741 0110 5B00     		lsls	r3, r3, #1
 742 0112 DBB2     		uxtb	r3, r3
 743 0114 1846     		mov	r0, r3
 744 0116 FFF7FEFF 		bl	AMux_1_FastSelect
 272:main.c        ****                 scanState = 0;
 745              		.loc 1 272 0
 746 011a FFF7FEFF 		bl	ADC_1_StartConvert
 273:main.c        ****             }
 747              		.loc 1 273 0
 748 011e 034B     		ldr	r3, .L30
 749 0120 0022     		movs	r2, #0
 750 0122 1A70     		strb	r2, [r3]
 751              	.L29:
 752              		.loc 1 276 0
 753 0124 00BF     		nop
 754 0126 0C37     		adds	r7, r7, #12
 755              		.cfi_def_cfa_offset 12
 756 0128 BD46     		mov	sp, r7
 757              		.cfi_def_cfa_register 13
 758              		@ sp needed
 759 012a 90BD     		pop	{r4, r7, pc}
 760              	.L31:
 761              		.align	2
 762              	.L30:
 763 012c 00000000 		.word	scanState
 764 0130 00000000 		.word	iVtherm
 765 0134 00000000 		.word	currentResistor
 766 0138 00000000 		.word	iVref
 767 013c 00000000 		.word	offset
 768 0140 50340300 		.word	210000
 769 0144 3F0D0300 		.word	199999
 770 0148 00000000 		.word	iRes
 771 014c 0000FA46 		.word	1190789120
 772 0150 00000000 		.word	linearPotValue32Bit
 773              		.cfi_endproc
 774              	.LFE66:
 775              		.size	scanLinearResistor, .-scanLinearResistor
 776              		.text
 777              	.Letext0:
ARM GAS  C:\Users\JEFFSN~1\AppData\Local\Temp\ccYO9KEx.s 			page 20


 778              		.file 2 "c:\\program files (x86)\\cypress\\psoc creator\\4.4\\psoc creator\\import\\gnu\\arm\\5.4.
 779              		.file 3 "c:\\program files (x86)\\cypress\\psoc creator\\4.4\\psoc creator\\import\\gnu\\arm\\5.4.
 780              		.file 4 "Generated_Source\\PSoC5/cytypes.h"
 781              		.file 5 "Generated_Source\\PSoC5/CapSense.h"
 782              		.file 6 "Generated_Source\\PSoC5/CapSense_CSHL.h"
 783              		.file 7 "Generated_Source\\PSoC5/core_cm3.h"