ARM GAS  C:\Users\JEFFSN~1\AppData\Local\Temp\ccqfr1aT.s 			page 1


   1              		.syntax unified
   2              		.cpu cortex-m3
   3              		.fpu softvfp
   4              		.eabi_attribute 20, 1
   5              		.eabi_attribute 21, 1
   6              		.eabi_attribute 23, 3
   7              		.eabi_attribute 24, 1
   8              		.eabi_attribute 25, 1
   9              		.eabi_attribute 26, 1
  10              		.eabi_attribute 30, 6
  11              		.eabi_attribute 34, 1
  12              		.eabi_attribute 18, 4
  13              		.thumb
  14              		.syntax unified
  15              		.file	"SPIS_1.c"
  16              		.text
  17              	.Ltext0:
  18              		.cfi_sections	.debug_frame
  19              		.global	SPIS_1_initVar
  20              		.bss
  21              		.type	SPIS_1_initVar, %object
  22              		.size	SPIS_1_initVar, 1
  23              	SPIS_1_initVar:
  24 0000 00       		.space	1
  25              		.comm	SPIS_1_swStatusTx,1,1
  26              		.comm	SPIS_1_swStatusRx,1,1
  27              		.section	.text.SPIS_1_Init,"ax",%progbits
  28              		.align	2
  29              		.global	SPIS_1_Init
  30              		.thumb
  31              		.thumb_func
  32              		.type	SPIS_1_Init, %function
  33              	SPIS_1_Init:
  34              	.LFB0:
  35              		.file 1 "Generated_Source\\PSoC5\\SPIS_1.c"
   1:Generated_Source\PSoC5/SPIS_1.c **** /*******************************************************************************
   2:Generated_Source\PSoC5/SPIS_1.c **** * File Name: SPIS_1.c
   3:Generated_Source\PSoC5/SPIS_1.c **** * Version 2.70
   4:Generated_Source\PSoC5/SPIS_1.c **** *
   5:Generated_Source\PSoC5/SPIS_1.c **** * Description:
   6:Generated_Source\PSoC5/SPIS_1.c **** *  This file provides all API functionality of the SPI Slave component.
   7:Generated_Source\PSoC5/SPIS_1.c **** *
   8:Generated_Source\PSoC5/SPIS_1.c **** * Note:
   9:Generated_Source\PSoC5/SPIS_1.c **** *  None.
  10:Generated_Source\PSoC5/SPIS_1.c **** *
  11:Generated_Source\PSoC5/SPIS_1.c **** ********************************************************************************
  12:Generated_Source\PSoC5/SPIS_1.c **** * Copyright 2008-2015, Cypress Semiconductor Corporation.  All rights reserved.
  13:Generated_Source\PSoC5/SPIS_1.c **** * You may use this file only in accordance with the license, terms, conditions,
  14:Generated_Source\PSoC5/SPIS_1.c **** * disclaimers, and limitations in the end user license agreement accompanying
  15:Generated_Source\PSoC5/SPIS_1.c **** * the software package with which this file was provided.
  16:Generated_Source\PSoC5/SPIS_1.c **** *******************************************************************************/
  17:Generated_Source\PSoC5/SPIS_1.c **** 
  18:Generated_Source\PSoC5/SPIS_1.c **** #include "SPIS_1_PVT.h"
  19:Generated_Source\PSoC5/SPIS_1.c **** 
  20:Generated_Source\PSoC5/SPIS_1.c **** #if (SPIS_1_TX_SOFTWARE_BUF_ENABLED)
  21:Generated_Source\PSoC5/SPIS_1.c **** 
  22:Generated_Source\PSoC5/SPIS_1.c ****     volatile uint8 SPIS_1_txBuffer[SPIS_1_TX_BUFFER_SIZE];
ARM GAS  C:\Users\JEFFSN~1\AppData\Local\Temp\ccqfr1aT.s 			page 2


  23:Generated_Source\PSoC5/SPIS_1.c ****     volatile uint8 SPIS_1_txBufferRead;
  24:Generated_Source\PSoC5/SPIS_1.c ****     volatile uint8 SPIS_1_txBufferWrite;
  25:Generated_Source\PSoC5/SPIS_1.c ****     volatile uint8 SPIS_1_txBufferFull;
  26:Generated_Source\PSoC5/SPIS_1.c **** 
  27:Generated_Source\PSoC5/SPIS_1.c **** #endif /* SPIS_1_TX_SOFTWARE_BUF_ENABLED*/
  28:Generated_Source\PSoC5/SPIS_1.c **** 
  29:Generated_Source\PSoC5/SPIS_1.c **** #if (SPIS_1_RX_SOFTWARE_BUF_ENABLED)
  30:Generated_Source\PSoC5/SPIS_1.c **** 
  31:Generated_Source\PSoC5/SPIS_1.c ****     volatile uint8 SPIS_1_rxBuffer[SPIS_1_RX_BUFFER_SIZE];
  32:Generated_Source\PSoC5/SPIS_1.c ****     volatile uint8 SPIS_1_rxBufferRead;
  33:Generated_Source\PSoC5/SPIS_1.c ****     volatile uint8 SPIS_1_rxBufferWrite;
  34:Generated_Source\PSoC5/SPIS_1.c ****     volatile uint8 SPIS_1_rxBufferFull;
  35:Generated_Source\PSoC5/SPIS_1.c **** 
  36:Generated_Source\PSoC5/SPIS_1.c **** #endif /* SPIS_1_RX_SOFTWARE_BUF_ENABLED */
  37:Generated_Source\PSoC5/SPIS_1.c **** 
  38:Generated_Source\PSoC5/SPIS_1.c **** uint8 SPIS_1_initVar = 0u;
  39:Generated_Source\PSoC5/SPIS_1.c **** 
  40:Generated_Source\PSoC5/SPIS_1.c **** volatile uint8 SPIS_1_swStatusTx;
  41:Generated_Source\PSoC5/SPIS_1.c **** volatile uint8 SPIS_1_swStatusRx;
  42:Generated_Source\PSoC5/SPIS_1.c **** 
  43:Generated_Source\PSoC5/SPIS_1.c **** 
  44:Generated_Source\PSoC5/SPIS_1.c **** /*******************************************************************************
  45:Generated_Source\PSoC5/SPIS_1.c **** * Function Name: SPIS_1_Init
  46:Generated_Source\PSoC5/SPIS_1.c **** ********************************************************************************
  47:Generated_Source\PSoC5/SPIS_1.c **** *
  48:Generated_Source\PSoC5/SPIS_1.c **** * Summary:
  49:Generated_Source\PSoC5/SPIS_1.c **** *  Inits/Restores default SPIS configuration provided with customizer.
  50:Generated_Source\PSoC5/SPIS_1.c **** *
  51:Generated_Source\PSoC5/SPIS_1.c **** * Parameters:
  52:Generated_Source\PSoC5/SPIS_1.c **** *  None.
  53:Generated_Source\PSoC5/SPIS_1.c **** *
  54:Generated_Source\PSoC5/SPIS_1.c **** * Return:
  55:Generated_Source\PSoC5/SPIS_1.c **** *  None.
  56:Generated_Source\PSoC5/SPIS_1.c **** *
  57:Generated_Source\PSoC5/SPIS_1.c **** * Side Effects:
  58:Generated_Source\PSoC5/SPIS_1.c **** *  When this function is called it initializes all of the necessary parameters
  59:Generated_Source\PSoC5/SPIS_1.c **** *  for execution. i.e. setting the initial interrupt mask, configuring the
  60:Generated_Source\PSoC5/SPIS_1.c **** *  interrupt service routine, configuring the bit-counter parameters and
  61:Generated_Source\PSoC5/SPIS_1.c **** *  clearing the FIFO and Status Register.
  62:Generated_Source\PSoC5/SPIS_1.c **** *
  63:Generated_Source\PSoC5/SPIS_1.c **** * Reentrant:
  64:Generated_Source\PSoC5/SPIS_1.c **** *  No.
  65:Generated_Source\PSoC5/SPIS_1.c **** *
  66:Generated_Source\PSoC5/SPIS_1.c **** *******************************************************************************/
  67:Generated_Source\PSoC5/SPIS_1.c **** void SPIS_1_Init(void) 
  68:Generated_Source\PSoC5/SPIS_1.c **** {
  36              		.loc 1 68 0
  37              		.cfi_startproc
  38              		@ args = 0, pretend = 0, frame = 0
  39              		@ frame_needed = 1, uses_anonymous_args = 0
  40 0000 80B5     		push	{r7, lr}
  41              		.cfi_def_cfa_offset 8
  42              		.cfi_offset 7, -8
  43              		.cfi_offset 14, -4
  44 0002 00AF     		add	r7, sp, #0
  45              		.cfi_def_cfa_register 7
  69:Generated_Source\PSoC5/SPIS_1.c ****     /*Initialize the Bit counter */
ARM GAS  C:\Users\JEFFSN~1\AppData\Local\Temp\ccqfr1aT.s 			page 3


  70:Generated_Source\PSoC5/SPIS_1.c ****     SPIS_1_COUNTER_PERIOD_REG = SPIS_1_BITCTR_INIT;
  46              		.loc 1 70 0
  47 0004 0D4B     		ldr	r3, .L2
  48 0006 0722     		movs	r2, #7
  49 0008 1A70     		strb	r2, [r3]
  71:Generated_Source\PSoC5/SPIS_1.c **** 
  72:Generated_Source\PSoC5/SPIS_1.c ****     /* ISR initialization */
  73:Generated_Source\PSoC5/SPIS_1.c ****     #if(SPIS_1_INTERNAL_TX_INT_ENABLED)
  74:Generated_Source\PSoC5/SPIS_1.c **** 
  75:Generated_Source\PSoC5/SPIS_1.c ****         CyIntDisable(SPIS_1_TX_ISR_NUMBER);
  76:Generated_Source\PSoC5/SPIS_1.c **** 
  77:Generated_Source\PSoC5/SPIS_1.c ****         /* Set the ISR to point to the SPIS_1_isr Interrupt. */
  78:Generated_Source\PSoC5/SPIS_1.c ****         (void)CyIntSetVector(SPIS_1_TX_ISR_NUMBER, &SPIS_1_TX_ISR);
  79:Generated_Source\PSoC5/SPIS_1.c **** 
  80:Generated_Source\PSoC5/SPIS_1.c ****         /* Set the priority. */
  81:Generated_Source\PSoC5/SPIS_1.c ****         CyIntSetPriority(SPIS_1_TX_ISR_NUMBER, SPIS_1_TX_ISR_PRIORITY);
  82:Generated_Source\PSoC5/SPIS_1.c **** 
  83:Generated_Source\PSoC5/SPIS_1.c ****     #endif /* SPIS_1_INTERNAL_TX_INT_ENABLED */
  84:Generated_Source\PSoC5/SPIS_1.c **** 
  85:Generated_Source\PSoC5/SPIS_1.c ****     #if(SPIS_1_INTERNAL_RX_INT_ENABLED)
  86:Generated_Source\PSoC5/SPIS_1.c **** 
  87:Generated_Source\PSoC5/SPIS_1.c ****         CyIntDisable(SPIS_1_RX_ISR_NUMBER);
  50              		.loc 1 87 0
  51 000a 0D4B     		ldr	r3, .L2+4
  52 000c 0222     		movs	r2, #2
  53 000e 1A60     		str	r2, [r3]
  88:Generated_Source\PSoC5/SPIS_1.c **** 
  89:Generated_Source\PSoC5/SPIS_1.c ****         /* Set the ISR to point to the SPIS_1_isr Interrupt. */
  90:Generated_Source\PSoC5/SPIS_1.c ****         (void)CyIntSetVector(SPIS_1_RX_ISR_NUMBER, &SPIS_1_RX_ISR);
  54              		.loc 1 90 0
  55 0010 0C49     		ldr	r1, .L2+8
  56 0012 0120     		movs	r0, #1
  57 0014 FFF7FEFF 		bl	CyIntSetVector
  91:Generated_Source\PSoC5/SPIS_1.c **** 
  92:Generated_Source\PSoC5/SPIS_1.c ****         /* Set the priority. */
  93:Generated_Source\PSoC5/SPIS_1.c ****         CyIntSetPriority(SPIS_1_RX_ISR_NUMBER, SPIS_1_RX_ISR_PRIORITY);
  58              		.loc 1 93 0
  59 0018 0721     		movs	r1, #7
  60 001a 0120     		movs	r0, #1
  61 001c FFF7FEFF 		bl	CyIntSetPriority
  94:Generated_Source\PSoC5/SPIS_1.c **** 
  95:Generated_Source\PSoC5/SPIS_1.c ****     #endif /* SPIS_1_INTERNAL_RX_INT_ENABLED */
  96:Generated_Source\PSoC5/SPIS_1.c **** 
  97:Generated_Source\PSoC5/SPIS_1.c ****     /* Clear any stray data from the RX and TX FIFO */
  98:Generated_Source\PSoC5/SPIS_1.c ****     SPIS_1_ClearFIFO();
  62              		.loc 1 98 0
  63 0020 FFF7FEFF 		bl	SPIS_1_ClearFIFO
  99:Generated_Source\PSoC5/SPIS_1.c **** 
 100:Generated_Source\PSoC5/SPIS_1.c ****     #if(SPIS_1_RX_SOFTWARE_BUF_ENABLED)
 101:Generated_Source\PSoC5/SPIS_1.c ****         SPIS_1_rxBufferFull = 0u;
 102:Generated_Source\PSoC5/SPIS_1.c ****         SPIS_1_rxBufferRead = 0u;
 103:Generated_Source\PSoC5/SPIS_1.c ****         SPIS_1_rxBufferWrite = 0u;
 104:Generated_Source\PSoC5/SPIS_1.c ****     #endif /* SPIS_1_RX_SOFTWARE_BUF_ENABLED */
 105:Generated_Source\PSoC5/SPIS_1.c **** 
 106:Generated_Source\PSoC5/SPIS_1.c ****     #if(SPIS_1_TX_SOFTWARE_BUF_ENABLED)
 107:Generated_Source\PSoC5/SPIS_1.c ****         SPIS_1_txBufferFull = 0u;
 108:Generated_Source\PSoC5/SPIS_1.c ****         SPIS_1_txBufferRead = 0u;
ARM GAS  C:\Users\JEFFSN~1\AppData\Local\Temp\ccqfr1aT.s 			page 4


 109:Generated_Source\PSoC5/SPIS_1.c ****         SPIS_1_txBufferWrite = 0u;
 110:Generated_Source\PSoC5/SPIS_1.c ****     #endif /* SPIS_1_TX_SOFTWARE_BUF_ENABLED */
 111:Generated_Source\PSoC5/SPIS_1.c **** 
 112:Generated_Source\PSoC5/SPIS_1.c ****     (void) SPIS_1_ReadTxStatus(); /* Clear any pending status bits */
  64              		.loc 1 112 0
  65 0024 FFF7FEFF 		bl	SPIS_1_ReadTxStatus
 113:Generated_Source\PSoC5/SPIS_1.c ****     (void) SPIS_1_ReadRxStatus(); /* Clear any pending status bits */
  66              		.loc 1 113 0
  67 0028 FFF7FEFF 		bl	SPIS_1_ReadRxStatus
 114:Generated_Source\PSoC5/SPIS_1.c **** 
 115:Generated_Source\PSoC5/SPIS_1.c **** 
 116:Generated_Source\PSoC5/SPIS_1.c ****     /* Configure the Initial interrupt mask */
 117:Generated_Source\PSoC5/SPIS_1.c ****     #if (SPIS_1_TX_SOFTWARE_BUF_ENABLED)
 118:Generated_Source\PSoC5/SPIS_1.c ****         SPIS_1_TX_STATUS_MASK_REG  = (SPIS_1_TX_INIT_INTERRUPTS_MASK &
 119:Generated_Source\PSoC5/SPIS_1.c ****                                                 (uint8)~SPIS_1_STS_TX_FIFO_NOT_FULL);
 120:Generated_Source\PSoC5/SPIS_1.c ****     #else /* SPIS_1_TX_SOFTWARE_BUF_ENABLED */
 121:Generated_Source\PSoC5/SPIS_1.c ****         SPIS_1_TX_STATUS_MASK_REG  = SPIS_1_TX_INIT_INTERRUPTS_MASK;
  68              		.loc 1 121 0
  69 002c 064B     		ldr	r3, .L2+12
  70 002e 0122     		movs	r2, #1
  71 0030 1A70     		strb	r2, [r3]
 122:Generated_Source\PSoC5/SPIS_1.c ****     #endif /* SPIS_1_TX_SOFTWARE_BUF_ENABLED */
 123:Generated_Source\PSoC5/SPIS_1.c **** 
 124:Generated_Source\PSoC5/SPIS_1.c ****     SPIS_1_RX_STATUS_MASK_REG  = SPIS_1_RX_INIT_INTERRUPTS_MASK;
  72              		.loc 1 124 0
  73 0032 064B     		ldr	r3, .L2+16
  74 0034 4022     		movs	r2, #64
  75 0036 1A70     		strb	r2, [r3]
 125:Generated_Source\PSoC5/SPIS_1.c **** }
  76              		.loc 1 125 0
  77 0038 00BF     		nop
  78 003a 80BD     		pop	{r7, pc}
  79              	.L3:
  80              		.align	2
  81              	.L2:
  82 003c 82640040 		.word	1073767554
  83 0040 80E100E0 		.word	-536813184
  84 0044 00000000 		.word	SPIS_1_RX_ISR
  85 0048 84640040 		.word	1073767556
  86 004c 84650040 		.word	1073767812
  87              		.cfi_endproc
  88              	.LFE0:
  89              		.size	SPIS_1_Init, .-SPIS_1_Init
  90              		.section	.text.SPIS_1_Enable,"ax",%progbits
  91              		.align	2
  92              		.global	SPIS_1_Enable
  93              		.thumb
  94              		.thumb_func
  95              		.type	SPIS_1_Enable, %function
  96              	SPIS_1_Enable:
  97              	.LFB1:
 126:Generated_Source\PSoC5/SPIS_1.c **** 
 127:Generated_Source\PSoC5/SPIS_1.c **** 
 128:Generated_Source\PSoC5/SPIS_1.c **** /*******************************************************************************
 129:Generated_Source\PSoC5/SPIS_1.c **** * Function Name: SPIS_1_Enable
 130:Generated_Source\PSoC5/SPIS_1.c **** ********************************************************************************
 131:Generated_Source\PSoC5/SPIS_1.c **** *
ARM GAS  C:\Users\JEFFSN~1\AppData\Local\Temp\ccqfr1aT.s 			page 5


 132:Generated_Source\PSoC5/SPIS_1.c **** * Summary:
 133:Generated_Source\PSoC5/SPIS_1.c **** *  Enable SPIS component.
 134:Generated_Source\PSoC5/SPIS_1.c **** *
 135:Generated_Source\PSoC5/SPIS_1.c **** * Parameters:
 136:Generated_Source\PSoC5/SPIS_1.c **** *  None.
 137:Generated_Source\PSoC5/SPIS_1.c **** *
 138:Generated_Source\PSoC5/SPIS_1.c **** * Return:
 139:Generated_Source\PSoC5/SPIS_1.c **** *  None.
 140:Generated_Source\PSoC5/SPIS_1.c **** *
 141:Generated_Source\PSoC5/SPIS_1.c **** *******************************************************************************/
 142:Generated_Source\PSoC5/SPIS_1.c **** void SPIS_1_Enable(void) 
 143:Generated_Source\PSoC5/SPIS_1.c **** {
  98              		.loc 1 143 0
  99              		.cfi_startproc
 100              		@ args = 0, pretend = 0, frame = 8
 101              		@ frame_needed = 1, uses_anonymous_args = 0
 102 0000 80B5     		push	{r7, lr}
 103              		.cfi_def_cfa_offset 8
 104              		.cfi_offset 7, -8
 105              		.cfi_offset 14, -4
 106 0002 82B0     		sub	sp, sp, #8
 107              		.cfi_def_cfa_offset 16
 108 0004 00AF     		add	r7, sp, #0
 109              		.cfi_def_cfa_register 7
 144:Generated_Source\PSoC5/SPIS_1.c ****     uint8 enableInterrupts;
 145:Generated_Source\PSoC5/SPIS_1.c ****     enableInterrupts = CyEnterCriticalSection();
 110              		.loc 1 145 0
 111 0006 FFF7FEFF 		bl	CyEnterCriticalSection
 112 000a 0346     		mov	r3, r0
 113 000c FB71     		strb	r3, [r7, #7]
 146:Generated_Source\PSoC5/SPIS_1.c **** 
 147:Generated_Source\PSoC5/SPIS_1.c ****     SPIS_1_COUNTER_CONTROL_REG |= SPIS_1_CNTR_ENABLE;
 114              		.loc 1 147 0
 115 000e 114A     		ldr	r2, .L5
 116 0010 104B     		ldr	r3, .L5
 117 0012 1B78     		ldrb	r3, [r3]
 118 0014 DBB2     		uxtb	r3, r3
 119 0016 43F02003 		orr	r3, r3, #32
 120 001a DBB2     		uxtb	r3, r3
 121 001c 1370     		strb	r3, [r2]
 148:Generated_Source\PSoC5/SPIS_1.c ****     SPIS_1_TX_STATUS_ACTL_REG |= SPIS_1_INT_ENABLE;
 122              		.loc 1 148 0
 123 001e 0E4A     		ldr	r2, .L5+4
 124 0020 0D4B     		ldr	r3, .L5+4
 125 0022 1B78     		ldrb	r3, [r3]
 126 0024 DBB2     		uxtb	r3, r3
 127 0026 43F01003 		orr	r3, r3, #16
 128 002a DBB2     		uxtb	r3, r3
 129 002c 1370     		strb	r3, [r2]
 149:Generated_Source\PSoC5/SPIS_1.c ****     SPIS_1_RX_STATUS_ACTL_REG |= SPIS_1_INT_ENABLE;
 130              		.loc 1 149 0
 131 002e 0B4A     		ldr	r2, .L5+8
 132 0030 0A4B     		ldr	r3, .L5+8
 133 0032 1B78     		ldrb	r3, [r3]
 134 0034 DBB2     		uxtb	r3, r3
 135 0036 43F01003 		orr	r3, r3, #16
 136 003a DBB2     		uxtb	r3, r3
ARM GAS  C:\Users\JEFFSN~1\AppData\Local\Temp\ccqfr1aT.s 			page 6


 137 003c 1370     		strb	r3, [r2]
 150:Generated_Source\PSoC5/SPIS_1.c **** 
 151:Generated_Source\PSoC5/SPIS_1.c ****     CyExitCriticalSection(enableInterrupts);
 138              		.loc 1 151 0
 139 003e FB79     		ldrb	r3, [r7, #7]	@ zero_extendqisi2
 140 0040 1846     		mov	r0, r3
 141 0042 FFF7FEFF 		bl	CyExitCriticalSection
 152:Generated_Source\PSoC5/SPIS_1.c **** 
 153:Generated_Source\PSoC5/SPIS_1.c ****     #if(SPIS_1_INTERNAL_TX_INT_ENABLED)
 154:Generated_Source\PSoC5/SPIS_1.c ****         CyIntEnable(SPIS_1_TX_ISR_NUMBER);
 155:Generated_Source\PSoC5/SPIS_1.c ****     #endif /* SPIS_1_INTERNAL_TX_INT_ENABLED */
 156:Generated_Source\PSoC5/SPIS_1.c **** 
 157:Generated_Source\PSoC5/SPIS_1.c ****     #if(SPIS_1_INTERNAL_RX_INT_ENABLED)
 158:Generated_Source\PSoC5/SPIS_1.c ****         CyIntEnable(SPIS_1_RX_ISR_NUMBER);
 142              		.loc 1 158 0
 143 0046 064B     		ldr	r3, .L5+12
 144 0048 0222     		movs	r2, #2
 145 004a 1A60     		str	r2, [r3]
 159:Generated_Source\PSoC5/SPIS_1.c ****     #endif /* SPIS_1_INTERNAL_RX_INT_ENABLED */
 160:Generated_Source\PSoC5/SPIS_1.c **** }
 146              		.loc 1 160 0
 147 004c 00BF     		nop
 148 004e 0837     		adds	r7, r7, #8
 149              		.cfi_def_cfa_offset 8
 150 0050 BD46     		mov	sp, r7
 151              		.cfi_def_cfa_register 13
 152              		@ sp needed
 153 0052 80BD     		pop	{r7, pc}
 154              	.L6:
 155              		.align	2
 156              	.L5:
 157 0054 92640040 		.word	1073767570
 158 0058 94640040 		.word	1073767572
 159 005c 94650040 		.word	1073767828
 160 0060 00E100E0 		.word	-536813312
 161              		.cfi_endproc
 162              	.LFE1:
 163              		.size	SPIS_1_Enable, .-SPIS_1_Enable
 164              		.section	.text.SPIS_1_Start,"ax",%progbits
 165              		.align	2
 166              		.global	SPIS_1_Start
 167              		.thumb
 168              		.thumb_func
 169              		.type	SPIS_1_Start, %function
 170              	SPIS_1_Start:
 171              	.LFB2:
 161:Generated_Source\PSoC5/SPIS_1.c **** 
 162:Generated_Source\PSoC5/SPIS_1.c **** 
 163:Generated_Source\PSoC5/SPIS_1.c **** /*******************************************************************************
 164:Generated_Source\PSoC5/SPIS_1.c **** * Function Name: SPIS_1_Start
 165:Generated_Source\PSoC5/SPIS_1.c **** ********************************************************************************
 166:Generated_Source\PSoC5/SPIS_1.c **** *
 167:Generated_Source\PSoC5/SPIS_1.c **** * Summary:
 168:Generated_Source\PSoC5/SPIS_1.c **** *  Initialize and Enable the SPI Slave component.
 169:Generated_Source\PSoC5/SPIS_1.c **** *
 170:Generated_Source\PSoC5/SPIS_1.c **** * Parameters:
 171:Generated_Source\PSoC5/SPIS_1.c **** *  None.
ARM GAS  C:\Users\JEFFSN~1\AppData\Local\Temp\ccqfr1aT.s 			page 7


 172:Generated_Source\PSoC5/SPIS_1.c **** *
 173:Generated_Source\PSoC5/SPIS_1.c **** * Return:
 174:Generated_Source\PSoC5/SPIS_1.c **** *  None.
 175:Generated_Source\PSoC5/SPIS_1.c **** *
 176:Generated_Source\PSoC5/SPIS_1.c **** * Global variables:
 177:Generated_Source\PSoC5/SPIS_1.c **** *  SPIS_1_initVar - used to check initial configuration, modified on
 178:Generated_Source\PSoC5/SPIS_1.c **** *  first function call.
 179:Generated_Source\PSoC5/SPIS_1.c **** *
 180:Generated_Source\PSoC5/SPIS_1.c **** * Theory:
 181:Generated_Source\PSoC5/SPIS_1.c **** *  Enable the clock input to enable operation.
 182:Generated_Source\PSoC5/SPIS_1.c **** *
 183:Generated_Source\PSoC5/SPIS_1.c **** * Reentrant:
 184:Generated_Source\PSoC5/SPIS_1.c **** *  No.
 185:Generated_Source\PSoC5/SPIS_1.c **** *
 186:Generated_Source\PSoC5/SPIS_1.c **** *******************************************************************************/
 187:Generated_Source\PSoC5/SPIS_1.c **** void SPIS_1_Start(void) 
 188:Generated_Source\PSoC5/SPIS_1.c **** {
 172              		.loc 1 188 0
 173              		.cfi_startproc
 174              		@ args = 0, pretend = 0, frame = 0
 175              		@ frame_needed = 1, uses_anonymous_args = 0
 176 0000 80B5     		push	{r7, lr}
 177              		.cfi_def_cfa_offset 8
 178              		.cfi_offset 7, -8
 179              		.cfi_offset 14, -4
 180 0002 00AF     		add	r7, sp, #0
 181              		.cfi_def_cfa_register 7
 189:Generated_Source\PSoC5/SPIS_1.c ****     if(SPIS_1_initVar == 0u)
 182              		.loc 1 189 0
 183 0004 064B     		ldr	r3, .L9
 184 0006 1B78     		ldrb	r3, [r3]	@ zero_extendqisi2
 185 0008 002B     		cmp	r3, #0
 186 000a 04D1     		bne	.L8
 190:Generated_Source\PSoC5/SPIS_1.c ****     {
 191:Generated_Source\PSoC5/SPIS_1.c ****         SPIS_1_Init();
 187              		.loc 1 191 0
 188 000c FFF7FEFF 		bl	SPIS_1_Init
 192:Generated_Source\PSoC5/SPIS_1.c ****         SPIS_1_initVar = 1u;
 189              		.loc 1 192 0
 190 0010 034B     		ldr	r3, .L9
 191 0012 0122     		movs	r2, #1
 192 0014 1A70     		strb	r2, [r3]
 193              	.L8:
 193:Generated_Source\PSoC5/SPIS_1.c ****     }
 194:Generated_Source\PSoC5/SPIS_1.c **** 
 195:Generated_Source\PSoC5/SPIS_1.c ****     SPIS_1_Enable();
 194              		.loc 1 195 0
 195 0016 FFF7FEFF 		bl	SPIS_1_Enable
 196:Generated_Source\PSoC5/SPIS_1.c **** }
 196              		.loc 1 196 0
 197 001a 00BF     		nop
 198 001c 80BD     		pop	{r7, pc}
 199              	.L10:
 200 001e 00BF     		.align	2
 201              	.L9:
 202 0020 00000000 		.word	SPIS_1_initVar
 203              		.cfi_endproc
ARM GAS  C:\Users\JEFFSN~1\AppData\Local\Temp\ccqfr1aT.s 			page 8


 204              	.LFE2:
 205              		.size	SPIS_1_Start, .-SPIS_1_Start
 206              		.section	.text.SPIS_1_Stop,"ax",%progbits
 207              		.align	2
 208              		.global	SPIS_1_Stop
 209              		.thumb
 210              		.thumb_func
 211              		.type	SPIS_1_Stop, %function
 212              	SPIS_1_Stop:
 213              	.LFB3:
 197:Generated_Source\PSoC5/SPIS_1.c **** 
 198:Generated_Source\PSoC5/SPIS_1.c **** 
 199:Generated_Source\PSoC5/SPIS_1.c **** /*******************************************************************************
 200:Generated_Source\PSoC5/SPIS_1.c **** * Function Name: SPIS_1_Stop
 201:Generated_Source\PSoC5/SPIS_1.c **** ********************************************************************************
 202:Generated_Source\PSoC5/SPIS_1.c **** *
 203:Generated_Source\PSoC5/SPIS_1.c **** * Summary:
 204:Generated_Source\PSoC5/SPIS_1.c **** *  Disable the SPI Slave component.
 205:Generated_Source\PSoC5/SPIS_1.c **** *
 206:Generated_Source\PSoC5/SPIS_1.c **** * Parameters:
 207:Generated_Source\PSoC5/SPIS_1.c **** *  None.
 208:Generated_Source\PSoC5/SPIS_1.c **** *
 209:Generated_Source\PSoC5/SPIS_1.c **** * Return:
 210:Generated_Source\PSoC5/SPIS_1.c **** *  None.
 211:Generated_Source\PSoC5/SPIS_1.c **** *
 212:Generated_Source\PSoC5/SPIS_1.c **** * Theory:
 213:Generated_Source\PSoC5/SPIS_1.c **** *  Disable the internal interrupt if one is used.
 214:Generated_Source\PSoC5/SPIS_1.c **** *
 215:Generated_Source\PSoC5/SPIS_1.c **** *******************************************************************************/
 216:Generated_Source\PSoC5/SPIS_1.c **** void SPIS_1_Stop(void) 
 217:Generated_Source\PSoC5/SPIS_1.c **** {
 214              		.loc 1 217 0
 215              		.cfi_startproc
 216              		@ args = 0, pretend = 0, frame = 8
 217              		@ frame_needed = 1, uses_anonymous_args = 0
 218 0000 80B5     		push	{r7, lr}
 219              		.cfi_def_cfa_offset 8
 220              		.cfi_offset 7, -8
 221              		.cfi_offset 14, -4
 222 0002 82B0     		sub	sp, sp, #8
 223              		.cfi_def_cfa_offset 16
 224 0004 00AF     		add	r7, sp, #0
 225              		.cfi_def_cfa_register 7
 218:Generated_Source\PSoC5/SPIS_1.c ****     uint8 enableInterrupts;
 219:Generated_Source\PSoC5/SPIS_1.c ****     enableInterrupts = CyEnterCriticalSection();
 226              		.loc 1 219 0
 227 0006 FFF7FEFF 		bl	CyEnterCriticalSection
 228 000a 0346     		mov	r3, r0
 229 000c FB71     		strb	r3, [r7, #7]
 220:Generated_Source\PSoC5/SPIS_1.c **** 
 221:Generated_Source\PSoC5/SPIS_1.c ****     SPIS_1_TX_STATUS_ACTL_REG &= (uint8)~SPIS_1_INT_ENABLE;
 230              		.loc 1 221 0
 231 000e 0D4A     		ldr	r2, .L12
 232 0010 0C4B     		ldr	r3, .L12
 233 0012 1B78     		ldrb	r3, [r3]
 234 0014 DBB2     		uxtb	r3, r3
 235 0016 23F01003 		bic	r3, r3, #16
ARM GAS  C:\Users\JEFFSN~1\AppData\Local\Temp\ccqfr1aT.s 			page 9


 236 001a DBB2     		uxtb	r3, r3
 237 001c 1370     		strb	r3, [r2]
 222:Generated_Source\PSoC5/SPIS_1.c ****     SPIS_1_RX_STATUS_ACTL_REG &= (uint8)~SPIS_1_INT_ENABLE;
 238              		.loc 1 222 0
 239 001e 0A4A     		ldr	r2, .L12+4
 240 0020 094B     		ldr	r3, .L12+4
 241 0022 1B78     		ldrb	r3, [r3]
 242 0024 DBB2     		uxtb	r3, r3
 243 0026 23F01003 		bic	r3, r3, #16
 244 002a DBB2     		uxtb	r3, r3
 245 002c 1370     		strb	r3, [r2]
 223:Generated_Source\PSoC5/SPIS_1.c **** 
 224:Generated_Source\PSoC5/SPIS_1.c ****     CyExitCriticalSection(enableInterrupts);
 246              		.loc 1 224 0
 247 002e FB79     		ldrb	r3, [r7, #7]	@ zero_extendqisi2
 248 0030 1846     		mov	r0, r3
 249 0032 FFF7FEFF 		bl	CyExitCriticalSection
 225:Generated_Source\PSoC5/SPIS_1.c **** 
 226:Generated_Source\PSoC5/SPIS_1.c ****     #if(SPIS_1_INTERNAL_TX_INT_ENABLED)
 227:Generated_Source\PSoC5/SPIS_1.c ****         CyIntDisable(SPIS_1_TX_ISR_NUMBER);
 228:Generated_Source\PSoC5/SPIS_1.c ****     #endif /* SPIS_1_INTERNAL_TX_INT_ENABLED */
 229:Generated_Source\PSoC5/SPIS_1.c **** 
 230:Generated_Source\PSoC5/SPIS_1.c ****     #if(SPIS_1_INTERNAL_RX_INT_ENABLED)
 231:Generated_Source\PSoC5/SPIS_1.c ****         CyIntDisable(SPIS_1_RX_ISR_NUMBER);
 250              		.loc 1 231 0
 251 0036 054B     		ldr	r3, .L12+8
 252 0038 0222     		movs	r2, #2
 253 003a 1A60     		str	r2, [r3]
 232:Generated_Source\PSoC5/SPIS_1.c ****     #endif /* SPIS_1_INTERNAL_RX_INT_ENABLED */
 233:Generated_Source\PSoC5/SPIS_1.c **** }
 254              		.loc 1 233 0
 255 003c 00BF     		nop
 256 003e 0837     		adds	r7, r7, #8
 257              		.cfi_def_cfa_offset 8
 258 0040 BD46     		mov	sp, r7
 259              		.cfi_def_cfa_register 13
 260              		@ sp needed
 261 0042 80BD     		pop	{r7, pc}
 262              	.L13:
 263              		.align	2
 264              	.L12:
 265 0044 94640040 		.word	1073767572
 266 0048 94650040 		.word	1073767828
 267 004c 80E100E0 		.word	-536813184
 268              		.cfi_endproc
 269              	.LFE3:
 270              		.size	SPIS_1_Stop, .-SPIS_1_Stop
 271              		.section	.text.SPIS_1_EnableTxInt,"ax",%progbits
 272              		.align	2
 273              		.global	SPIS_1_EnableTxInt
 274              		.thumb
 275              		.thumb_func
 276              		.type	SPIS_1_EnableTxInt, %function
 277              	SPIS_1_EnableTxInt:
 278              	.LFB4:
 234:Generated_Source\PSoC5/SPIS_1.c **** 
 235:Generated_Source\PSoC5/SPIS_1.c **** 
ARM GAS  C:\Users\JEFFSN~1\AppData\Local\Temp\ccqfr1aT.s 			page 10


 236:Generated_Source\PSoC5/SPIS_1.c **** /*******************************************************************************
 237:Generated_Source\PSoC5/SPIS_1.c **** * Function Name: SPIS_1_EnableTxInt
 238:Generated_Source\PSoC5/SPIS_1.c **** ********************************************************************************
 239:Generated_Source\PSoC5/SPIS_1.c **** *
 240:Generated_Source\PSoC5/SPIS_1.c **** * Summary:
 241:Generated_Source\PSoC5/SPIS_1.c **** *  Enable internal Tx interrupt generation.
 242:Generated_Source\PSoC5/SPIS_1.c **** *
 243:Generated_Source\PSoC5/SPIS_1.c **** * Parameters:
 244:Generated_Source\PSoC5/SPIS_1.c **** *  None.
 245:Generated_Source\PSoC5/SPIS_1.c **** *
 246:Generated_Source\PSoC5/SPIS_1.c **** * Return:
 247:Generated_Source\PSoC5/SPIS_1.c **** *  None.
 248:Generated_Source\PSoC5/SPIS_1.c **** *
 249:Generated_Source\PSoC5/SPIS_1.c **** * Theory:
 250:Generated_Source\PSoC5/SPIS_1.c **** *  Enable the internal Tx interrupt output -or- the interrupt component itself.
 251:Generated_Source\PSoC5/SPIS_1.c **** *
 252:Generated_Source\PSoC5/SPIS_1.c **** *******************************************************************************/
 253:Generated_Source\PSoC5/SPIS_1.c **** void SPIS_1_EnableTxInt(void) 
 254:Generated_Source\PSoC5/SPIS_1.c **** {
 279              		.loc 1 254 0
 280              		.cfi_startproc
 281              		@ args = 0, pretend = 0, frame = 0
 282              		@ frame_needed = 1, uses_anonymous_args = 0
 283              		@ link register save eliminated.
 284 0000 80B4     		push	{r7}
 285              		.cfi_def_cfa_offset 4
 286              		.cfi_offset 7, -4
 287 0002 00AF     		add	r7, sp, #0
 288              		.cfi_def_cfa_register 7
 255:Generated_Source\PSoC5/SPIS_1.c ****     #if(SPIS_1_INTERNAL_TX_INT_ENABLED)
 256:Generated_Source\PSoC5/SPIS_1.c ****         CyIntEnable(SPIS_1_TX_ISR_NUMBER);
 257:Generated_Source\PSoC5/SPIS_1.c ****     #endif /* SPIS_1_INTERNAL_TX_INT_ENABLED */
 258:Generated_Source\PSoC5/SPIS_1.c **** }
 289              		.loc 1 258 0
 290 0004 00BF     		nop
 291 0006 BD46     		mov	sp, r7
 292              		.cfi_def_cfa_register 13
 293              		@ sp needed
 294 0008 80BC     		pop	{r7}
 295              		.cfi_restore 7
 296              		.cfi_def_cfa_offset 0
 297 000a 7047     		bx	lr
 298              		.cfi_endproc
 299              	.LFE4:
 300              		.size	SPIS_1_EnableTxInt, .-SPIS_1_EnableTxInt
 301              		.section	.text.SPIS_1_EnableRxInt,"ax",%progbits
 302              		.align	2
 303              		.global	SPIS_1_EnableRxInt
 304              		.thumb
 305              		.thumb_func
 306              		.type	SPIS_1_EnableRxInt, %function
 307              	SPIS_1_EnableRxInt:
 308              	.LFB5:
 259:Generated_Source\PSoC5/SPIS_1.c **** 
 260:Generated_Source\PSoC5/SPIS_1.c **** 
 261:Generated_Source\PSoC5/SPIS_1.c **** /*******************************************************************************
 262:Generated_Source\PSoC5/SPIS_1.c **** * Function Name: SPIS_1_EnableRxInt
ARM GAS  C:\Users\JEFFSN~1\AppData\Local\Temp\ccqfr1aT.s 			page 11


 263:Generated_Source\PSoC5/SPIS_1.c **** ********************************************************************************
 264:Generated_Source\PSoC5/SPIS_1.c **** *
 265:Generated_Source\PSoC5/SPIS_1.c **** * Summary:
 266:Generated_Source\PSoC5/SPIS_1.c **** *  Enable internal Rx interrupt generation.
 267:Generated_Source\PSoC5/SPIS_1.c **** *
 268:Generated_Source\PSoC5/SPIS_1.c **** * Parameters:
 269:Generated_Source\PSoC5/SPIS_1.c **** *  None.
 270:Generated_Source\PSoC5/SPIS_1.c **** *
 271:Generated_Source\PSoC5/SPIS_1.c **** * Return:
 272:Generated_Source\PSoC5/SPIS_1.c **** *  None.
 273:Generated_Source\PSoC5/SPIS_1.c **** *
 274:Generated_Source\PSoC5/SPIS_1.c **** * Theory:
 275:Generated_Source\PSoC5/SPIS_1.c **** *  Enable the internal Rx interrupt output -or- the interrupt component itself.
 276:Generated_Source\PSoC5/SPIS_1.c **** *
 277:Generated_Source\PSoC5/SPIS_1.c **** *******************************************************************************/
 278:Generated_Source\PSoC5/SPIS_1.c **** void SPIS_1_EnableRxInt(void) 
 279:Generated_Source\PSoC5/SPIS_1.c **** {
 309              		.loc 1 279 0
 310              		.cfi_startproc
 311              		@ args = 0, pretend = 0, frame = 0
 312              		@ frame_needed = 1, uses_anonymous_args = 0
 313              		@ link register save eliminated.
 314 0000 80B4     		push	{r7}
 315              		.cfi_def_cfa_offset 4
 316              		.cfi_offset 7, -4
 317 0002 00AF     		add	r7, sp, #0
 318              		.cfi_def_cfa_register 7
 280:Generated_Source\PSoC5/SPIS_1.c ****     #if(SPIS_1_INTERNAL_RX_INT_ENABLED)
 281:Generated_Source\PSoC5/SPIS_1.c ****         CyIntEnable(SPIS_1_RX_ISR_NUMBER);
 319              		.loc 1 281 0
 320 0004 034B     		ldr	r3, .L16
 321 0006 0222     		movs	r2, #2
 322 0008 1A60     		str	r2, [r3]
 282:Generated_Source\PSoC5/SPIS_1.c ****     #endif /* SPIS_1_INTERNAL_RX_INT_ENABLED */
 283:Generated_Source\PSoC5/SPIS_1.c **** }
 323              		.loc 1 283 0
 324 000a 00BF     		nop
 325 000c BD46     		mov	sp, r7
 326              		.cfi_def_cfa_register 13
 327              		@ sp needed
 328 000e 80BC     		pop	{r7}
 329              		.cfi_restore 7
 330              		.cfi_def_cfa_offset 0
 331 0010 7047     		bx	lr
 332              	.L17:
 333 0012 00BF     		.align	2
 334              	.L16:
 335 0014 00E100E0 		.word	-536813312
 336              		.cfi_endproc
 337              	.LFE5:
 338              		.size	SPIS_1_EnableRxInt, .-SPIS_1_EnableRxInt
 339              		.section	.text.SPIS_1_DisableTxInt,"ax",%progbits
 340              		.align	2
 341              		.global	SPIS_1_DisableTxInt
 342              		.thumb
 343              		.thumb_func
 344              		.type	SPIS_1_DisableTxInt, %function
ARM GAS  C:\Users\JEFFSN~1\AppData\Local\Temp\ccqfr1aT.s 			page 12


 345              	SPIS_1_DisableTxInt:
 346              	.LFB6:
 284:Generated_Source\PSoC5/SPIS_1.c **** 
 285:Generated_Source\PSoC5/SPIS_1.c **** 
 286:Generated_Source\PSoC5/SPIS_1.c **** /*******************************************************************************
 287:Generated_Source\PSoC5/SPIS_1.c **** * Function Name: SPIS_1_DisableTxInt
 288:Generated_Source\PSoC5/SPIS_1.c **** ********************************************************************************
 289:Generated_Source\PSoC5/SPIS_1.c **** *
 290:Generated_Source\PSoC5/SPIS_1.c **** * Summary:
 291:Generated_Source\PSoC5/SPIS_1.c **** *  Disable internal Tx interrupt generation.
 292:Generated_Source\PSoC5/SPIS_1.c **** *
 293:Generated_Source\PSoC5/SPIS_1.c **** * Parameters:
 294:Generated_Source\PSoC5/SPIS_1.c **** *  None.
 295:Generated_Source\PSoC5/SPIS_1.c **** *
 296:Generated_Source\PSoC5/SPIS_1.c **** * Return:
 297:Generated_Source\PSoC5/SPIS_1.c **** *  None.
 298:Generated_Source\PSoC5/SPIS_1.c **** *
 299:Generated_Source\PSoC5/SPIS_1.c **** * Theory:
 300:Generated_Source\PSoC5/SPIS_1.c **** *  Disable the internal Tx interrupt output -or- the interrupt component itself.
 301:Generated_Source\PSoC5/SPIS_1.c **** *
 302:Generated_Source\PSoC5/SPIS_1.c **** *******************************************************************************/
 303:Generated_Source\PSoC5/SPIS_1.c **** void SPIS_1_DisableTxInt(void) 
 304:Generated_Source\PSoC5/SPIS_1.c **** {
 347              		.loc 1 304 0
 348              		.cfi_startproc
 349              		@ args = 0, pretend = 0, frame = 0
 350              		@ frame_needed = 1, uses_anonymous_args = 0
 351              		@ link register save eliminated.
 352 0000 80B4     		push	{r7}
 353              		.cfi_def_cfa_offset 4
 354              		.cfi_offset 7, -4
 355 0002 00AF     		add	r7, sp, #0
 356              		.cfi_def_cfa_register 7
 305:Generated_Source\PSoC5/SPIS_1.c ****     #if(SPIS_1_INTERNAL_TX_INT_ENABLED)
 306:Generated_Source\PSoC5/SPIS_1.c ****         CyIntDisable(SPIS_1_TX_ISR_NUMBER);
 307:Generated_Source\PSoC5/SPIS_1.c ****     #endif /* SPIS_1_INTERNAL_TX_INT_ENABLED */
 308:Generated_Source\PSoC5/SPIS_1.c **** }
 357              		.loc 1 308 0
 358 0004 00BF     		nop
 359 0006 BD46     		mov	sp, r7
 360              		.cfi_def_cfa_register 13
 361              		@ sp needed
 362 0008 80BC     		pop	{r7}
 363              		.cfi_restore 7
 364              		.cfi_def_cfa_offset 0
 365 000a 7047     		bx	lr
 366              		.cfi_endproc
 367              	.LFE6:
 368              		.size	SPIS_1_DisableTxInt, .-SPIS_1_DisableTxInt
 369              		.section	.text.SPIS_1_DisableRxInt,"ax",%progbits
 370              		.align	2
 371              		.global	SPIS_1_DisableRxInt
 372              		.thumb
 373              		.thumb_func
 374              		.type	SPIS_1_DisableRxInt, %function
 375              	SPIS_1_DisableRxInt:
 376              	.LFB7:
ARM GAS  C:\Users\JEFFSN~1\AppData\Local\Temp\ccqfr1aT.s 			page 13


 309:Generated_Source\PSoC5/SPIS_1.c **** 
 310:Generated_Source\PSoC5/SPIS_1.c **** 
 311:Generated_Source\PSoC5/SPIS_1.c **** /*******************************************************************************
 312:Generated_Source\PSoC5/SPIS_1.c **** * Function Name: SPIS_1_DisableRxInt
 313:Generated_Source\PSoC5/SPIS_1.c **** ********************************************************************************
 314:Generated_Source\PSoC5/SPIS_1.c **** *
 315:Generated_Source\PSoC5/SPIS_1.c **** * Summary:
 316:Generated_Source\PSoC5/SPIS_1.c **** *  Disable internal Rx interrupt generation.
 317:Generated_Source\PSoC5/SPIS_1.c **** *
 318:Generated_Source\PSoC5/SPIS_1.c **** * Parameters:
 319:Generated_Source\PSoC5/SPIS_1.c **** *  None.
 320:Generated_Source\PSoC5/SPIS_1.c **** *
 321:Generated_Source\PSoC5/SPIS_1.c **** * Return:
 322:Generated_Source\PSoC5/SPIS_1.c **** *  None.
 323:Generated_Source\PSoC5/SPIS_1.c **** *
 324:Generated_Source\PSoC5/SPIS_1.c **** * Theory:
 325:Generated_Source\PSoC5/SPIS_1.c **** *  Disable the internal Rx interrupt output -or- the interrupt component itself.
 326:Generated_Source\PSoC5/SPIS_1.c **** *
 327:Generated_Source\PSoC5/SPIS_1.c **** *******************************************************************************/
 328:Generated_Source\PSoC5/SPIS_1.c **** void SPIS_1_DisableRxInt(void) 
 329:Generated_Source\PSoC5/SPIS_1.c **** {
 377              		.loc 1 329 0
 378              		.cfi_startproc
 379              		@ args = 0, pretend = 0, frame = 0
 380              		@ frame_needed = 1, uses_anonymous_args = 0
 381              		@ link register save eliminated.
 382 0000 80B4     		push	{r7}
 383              		.cfi_def_cfa_offset 4
 384              		.cfi_offset 7, -4
 385 0002 00AF     		add	r7, sp, #0
 386              		.cfi_def_cfa_register 7
 330:Generated_Source\PSoC5/SPIS_1.c ****     #if(SPIS_1_INTERNAL_RX_INT_ENABLED)
 331:Generated_Source\PSoC5/SPIS_1.c ****         CyIntDisable(SPIS_1_RX_ISR_NUMBER);
 387              		.loc 1 331 0
 388 0004 034B     		ldr	r3, .L20
 389 0006 0222     		movs	r2, #2
 390 0008 1A60     		str	r2, [r3]
 332:Generated_Source\PSoC5/SPIS_1.c ****     #endif /* SPIS_1_INTERNAL_RX_INT_ENABLED */
 333:Generated_Source\PSoC5/SPIS_1.c **** }
 391              		.loc 1 333 0
 392 000a 00BF     		nop
 393 000c BD46     		mov	sp, r7
 394              		.cfi_def_cfa_register 13
 395              		@ sp needed
 396 000e 80BC     		pop	{r7}
 397              		.cfi_restore 7
 398              		.cfi_def_cfa_offset 0
 399 0010 7047     		bx	lr
 400              	.L21:
 401 0012 00BF     		.align	2
 402              	.L20:
 403 0014 80E100E0 		.word	-536813184
 404              		.cfi_endproc
 405              	.LFE7:
 406              		.size	SPIS_1_DisableRxInt, .-SPIS_1_DisableRxInt
 407              		.section	.text.SPIS_1_SetTxInterruptMode,"ax",%progbits
 408              		.align	2
ARM GAS  C:\Users\JEFFSN~1\AppData\Local\Temp\ccqfr1aT.s 			page 14


 409              		.global	SPIS_1_SetTxInterruptMode
 410              		.thumb
 411              		.thumb_func
 412              		.type	SPIS_1_SetTxInterruptMode, %function
 413              	SPIS_1_SetTxInterruptMode:
 414              	.LFB8:
 334:Generated_Source\PSoC5/SPIS_1.c **** 
 335:Generated_Source\PSoC5/SPIS_1.c **** 
 336:Generated_Source\PSoC5/SPIS_1.c **** /*******************************************************************************
 337:Generated_Source\PSoC5/SPIS_1.c **** * Function Name: SPIS_1_SetTxInterruptMode
 338:Generated_Source\PSoC5/SPIS_1.c **** ********************************************************************************
 339:Generated_Source\PSoC5/SPIS_1.c **** *
 340:Generated_Source\PSoC5/SPIS_1.c **** * Summary:
 341:Generated_Source\PSoC5/SPIS_1.c **** *  Configure which status bits trigger an interrupt event.
 342:Generated_Source\PSoC5/SPIS_1.c **** *
 343:Generated_Source\PSoC5/SPIS_1.c **** * Parameters:
 344:Generated_Source\PSoC5/SPIS_1.c **** *  intSrc: An or'd combination of the desired status bit masks (defined in the
 345:Generated_Source\PSoC5/SPIS_1.c **** *  header file).
 346:Generated_Source\PSoC5/SPIS_1.c **** *
 347:Generated_Source\PSoC5/SPIS_1.c **** * Return:
 348:Generated_Source\PSoC5/SPIS_1.c **** *  None.
 349:Generated_Source\PSoC5/SPIS_1.c **** *
 350:Generated_Source\PSoC5/SPIS_1.c **** * Theory:
 351:Generated_Source\PSoC5/SPIS_1.c **** *  Enables the output of specific status bits to the interrupt controller.
 352:Generated_Source\PSoC5/SPIS_1.c **** *
 353:Generated_Source\PSoC5/SPIS_1.c **** *******************************************************************************/
 354:Generated_Source\PSoC5/SPIS_1.c **** void SPIS_1_SetTxInterruptMode(uint8 intSrc) 
 355:Generated_Source\PSoC5/SPIS_1.c **** {
 415              		.loc 1 355 0
 416              		.cfi_startproc
 417              		@ args = 0, pretend = 0, frame = 8
 418              		@ frame_needed = 1, uses_anonymous_args = 0
 419              		@ link register save eliminated.
 420 0000 80B4     		push	{r7}
 421              		.cfi_def_cfa_offset 4
 422              		.cfi_offset 7, -4
 423 0002 83B0     		sub	sp, sp, #12
 424              		.cfi_def_cfa_offset 16
 425 0004 00AF     		add	r7, sp, #0
 426              		.cfi_def_cfa_register 7
 427 0006 0346     		mov	r3, r0
 428 0008 FB71     		strb	r3, [r7, #7]
 356:Generated_Source\PSoC5/SPIS_1.c ****     SPIS_1_TX_STATUS_MASK_REG  = intSrc;
 429              		.loc 1 356 0
 430 000a 044A     		ldr	r2, .L23
 431 000c FB79     		ldrb	r3, [r7, #7]
 432 000e 1370     		strb	r3, [r2]
 357:Generated_Source\PSoC5/SPIS_1.c **** }
 433              		.loc 1 357 0
 434 0010 00BF     		nop
 435 0012 0C37     		adds	r7, r7, #12
 436              		.cfi_def_cfa_offset 4
 437 0014 BD46     		mov	sp, r7
 438              		.cfi_def_cfa_register 13
 439              		@ sp needed
 440 0016 80BC     		pop	{r7}
 441              		.cfi_restore 7
ARM GAS  C:\Users\JEFFSN~1\AppData\Local\Temp\ccqfr1aT.s 			page 15


 442              		.cfi_def_cfa_offset 0
 443 0018 7047     		bx	lr
 444              	.L24:
 445 001a 00BF     		.align	2
 446              	.L23:
 447 001c 84640040 		.word	1073767556
 448              		.cfi_endproc
 449              	.LFE8:
 450              		.size	SPIS_1_SetTxInterruptMode, .-SPIS_1_SetTxInterruptMode
 451              		.section	.text.SPIS_1_SetRxInterruptMode,"ax",%progbits
 452              		.align	2
 453              		.global	SPIS_1_SetRxInterruptMode
 454              		.thumb
 455              		.thumb_func
 456              		.type	SPIS_1_SetRxInterruptMode, %function
 457              	SPIS_1_SetRxInterruptMode:
 458              	.LFB9:
 358:Generated_Source\PSoC5/SPIS_1.c **** 
 359:Generated_Source\PSoC5/SPIS_1.c **** 
 360:Generated_Source\PSoC5/SPIS_1.c **** /*******************************************************************************
 361:Generated_Source\PSoC5/SPIS_1.c **** * Function Name: SPIS_1_SetRxInterruptMode
 362:Generated_Source\PSoC5/SPIS_1.c **** ********************************************************************************
 363:Generated_Source\PSoC5/SPIS_1.c **** *
 364:Generated_Source\PSoC5/SPIS_1.c **** * Summary:
 365:Generated_Source\PSoC5/SPIS_1.c **** *  Configure which status bits trigger an interrupt event.
 366:Generated_Source\PSoC5/SPIS_1.c **** *
 367:Generated_Source\PSoC5/SPIS_1.c **** * Parameters:
 368:Generated_Source\PSoC5/SPIS_1.c **** *  intSrc: An or'd combination of the desired status bit masks (defined in the
 369:Generated_Source\PSoC5/SPIS_1.c **** *  header file).
 370:Generated_Source\PSoC5/SPIS_1.c **** *
 371:Generated_Source\PSoC5/SPIS_1.c **** * Return:
 372:Generated_Source\PSoC5/SPIS_1.c **** *  None.
 373:Generated_Source\PSoC5/SPIS_1.c **** *
 374:Generated_Source\PSoC5/SPIS_1.c **** * Theory:
 375:Generated_Source\PSoC5/SPIS_1.c **** *  Enables the output of specific status bits to the interrupt controller.
 376:Generated_Source\PSoC5/SPIS_1.c **** *
 377:Generated_Source\PSoC5/SPIS_1.c **** *******************************************************************************/
 378:Generated_Source\PSoC5/SPIS_1.c **** void SPIS_1_SetRxInterruptMode(uint8 intSrc) 
 379:Generated_Source\PSoC5/SPIS_1.c **** {
 459              		.loc 1 379 0
 460              		.cfi_startproc
 461              		@ args = 0, pretend = 0, frame = 8
 462              		@ frame_needed = 1, uses_anonymous_args = 0
 463              		@ link register save eliminated.
 464 0000 80B4     		push	{r7}
 465              		.cfi_def_cfa_offset 4
 466              		.cfi_offset 7, -4
 467 0002 83B0     		sub	sp, sp, #12
 468              		.cfi_def_cfa_offset 16
 469 0004 00AF     		add	r7, sp, #0
 470              		.cfi_def_cfa_register 7
 471 0006 0346     		mov	r3, r0
 472 0008 FB71     		strb	r3, [r7, #7]
 380:Generated_Source\PSoC5/SPIS_1.c ****     SPIS_1_RX_STATUS_MASK_REG  = intSrc;
 473              		.loc 1 380 0
 474 000a 044A     		ldr	r2, .L26
 475 000c FB79     		ldrb	r3, [r7, #7]
ARM GAS  C:\Users\JEFFSN~1\AppData\Local\Temp\ccqfr1aT.s 			page 16


 476 000e 1370     		strb	r3, [r2]
 381:Generated_Source\PSoC5/SPIS_1.c **** }
 477              		.loc 1 381 0
 478 0010 00BF     		nop
 479 0012 0C37     		adds	r7, r7, #12
 480              		.cfi_def_cfa_offset 4
 481 0014 BD46     		mov	sp, r7
 482              		.cfi_def_cfa_register 13
 483              		@ sp needed
 484 0016 80BC     		pop	{r7}
 485              		.cfi_restore 7
 486              		.cfi_def_cfa_offset 0
 487 0018 7047     		bx	lr
 488              	.L27:
 489 001a 00BF     		.align	2
 490              	.L26:
 491 001c 84650040 		.word	1073767812
 492              		.cfi_endproc
 493              	.LFE9:
 494              		.size	SPIS_1_SetRxInterruptMode, .-SPIS_1_SetRxInterruptMode
 495              		.section	.text.SPIS_1_ReadTxStatus,"ax",%progbits
 496              		.align	2
 497              		.global	SPIS_1_ReadTxStatus
 498              		.thumb
 499              		.thumb_func
 500              		.type	SPIS_1_ReadTxStatus, %function
 501              	SPIS_1_ReadTxStatus:
 502              	.LFB10:
 382:Generated_Source\PSoC5/SPIS_1.c **** 
 383:Generated_Source\PSoC5/SPIS_1.c **** 
 384:Generated_Source\PSoC5/SPIS_1.c **** /*******************************************************************************
 385:Generated_Source\PSoC5/SPIS_1.c **** * Function Name: SPIS_1_ReadTxStatus
 386:Generated_Source\PSoC5/SPIS_1.c **** ********************************************************************************
 387:Generated_Source\PSoC5/SPIS_1.c **** *
 388:Generated_Source\PSoC5/SPIS_1.c **** * Summary:
 389:Generated_Source\PSoC5/SPIS_1.c **** *  Read the Tx status register for the component.
 390:Generated_Source\PSoC5/SPIS_1.c **** *
 391:Generated_Source\PSoC5/SPIS_1.c **** * Parameters:
 392:Generated_Source\PSoC5/SPIS_1.c **** *  None.
 393:Generated_Source\PSoC5/SPIS_1.c **** *
 394:Generated_Source\PSoC5/SPIS_1.c **** * Return:
 395:Generated_Source\PSoC5/SPIS_1.c **** *  Contents of the Tx status register.
 396:Generated_Source\PSoC5/SPIS_1.c **** *
 397:Generated_Source\PSoC5/SPIS_1.c **** * Global variables:
 398:Generated_Source\PSoC5/SPIS_1.c **** *  SPIS_1_swStatusTx - used to store in software status register,
 399:Generated_Source\PSoC5/SPIS_1.c **** *  modified every function call - resets to zero.
 400:Generated_Source\PSoC5/SPIS_1.c **** *
 401:Generated_Source\PSoC5/SPIS_1.c **** * Theory:
 402:Generated_Source\PSoC5/SPIS_1.c **** *  Allows the user and the API to read the Tx status register for error
 403:Generated_Source\PSoC5/SPIS_1.c **** *  detection and flow control.
 404:Generated_Source\PSoC5/SPIS_1.c **** *
 405:Generated_Source\PSoC5/SPIS_1.c **** * Side Effects:
 406:Generated_Source\PSoC5/SPIS_1.c **** *  Clear Tx status register of the component.
 407:Generated_Source\PSoC5/SPIS_1.c **** *
 408:Generated_Source\PSoC5/SPIS_1.c **** * Reentrant:
 409:Generated_Source\PSoC5/SPIS_1.c **** *  No.
 410:Generated_Source\PSoC5/SPIS_1.c **** *
ARM GAS  C:\Users\JEFFSN~1\AppData\Local\Temp\ccqfr1aT.s 			page 17


 411:Generated_Source\PSoC5/SPIS_1.c **** *******************************************************************************/
 412:Generated_Source\PSoC5/SPIS_1.c **** uint8 SPIS_1_ReadTxStatus(void) 
 413:Generated_Source\PSoC5/SPIS_1.c **** {
 503              		.loc 1 413 0
 504              		.cfi_startproc
 505              		@ args = 0, pretend = 0, frame = 8
 506              		@ frame_needed = 1, uses_anonymous_args = 0
 507              		@ link register save eliminated.
 508 0000 80B4     		push	{r7}
 509              		.cfi_def_cfa_offset 4
 510              		.cfi_offset 7, -4
 511 0002 83B0     		sub	sp, sp, #12
 512              		.cfi_def_cfa_offset 16
 513 0004 00AF     		add	r7, sp, #0
 514              		.cfi_def_cfa_register 7
 414:Generated_Source\PSoC5/SPIS_1.c ****     uint8 tmpStatus;
 415:Generated_Source\PSoC5/SPIS_1.c **** 
 416:Generated_Source\PSoC5/SPIS_1.c ****     #if (SPIS_1_TX_SOFTWARE_BUF_ENABLED)
 417:Generated_Source\PSoC5/SPIS_1.c **** 
 418:Generated_Source\PSoC5/SPIS_1.c ****         SPIS_1_DisableTxInt();
 419:Generated_Source\PSoC5/SPIS_1.c **** 
 420:Generated_Source\PSoC5/SPIS_1.c ****         tmpStatus = SPIS_1_GET_STATUS_TX(SPIS_1_swStatusTx);
 421:Generated_Source\PSoC5/SPIS_1.c **** 
 422:Generated_Source\PSoC5/SPIS_1.c ****         SPIS_1_swStatusTx = 0u;
 423:Generated_Source\PSoC5/SPIS_1.c **** 
 424:Generated_Source\PSoC5/SPIS_1.c ****         /* Enable Interrupts */
 425:Generated_Source\PSoC5/SPIS_1.c ****         SPIS_1_EnableTxInt();
 426:Generated_Source\PSoC5/SPIS_1.c **** 
 427:Generated_Source\PSoC5/SPIS_1.c ****     #else /* !SPIS_1_TX_SOFTWARE_BUF_ENABLED */
 428:Generated_Source\PSoC5/SPIS_1.c **** 
 429:Generated_Source\PSoC5/SPIS_1.c ****         tmpStatus = SPIS_1_TX_STATUS_REG;
 515              		.loc 1 429 0
 516 0006 044B     		ldr	r3, .L30
 517 0008 1B78     		ldrb	r3, [r3]
 518 000a FB71     		strb	r3, [r7, #7]
 430:Generated_Source\PSoC5/SPIS_1.c **** 
 431:Generated_Source\PSoC5/SPIS_1.c ****     #endif /* SPIS_1_TX_SOFTWARE_BUF_ENABLED */
 432:Generated_Source\PSoC5/SPIS_1.c **** 
 433:Generated_Source\PSoC5/SPIS_1.c ****     return(tmpStatus);
 519              		.loc 1 433 0
 520 000c FB79     		ldrb	r3, [r7, #7]	@ zero_extendqisi2
 434:Generated_Source\PSoC5/SPIS_1.c **** }
 521              		.loc 1 434 0
 522 000e 1846     		mov	r0, r3
 523 0010 0C37     		adds	r7, r7, #12
 524              		.cfi_def_cfa_offset 4
 525 0012 BD46     		mov	sp, r7
 526              		.cfi_def_cfa_register 13
 527              		@ sp needed
 528 0014 80BC     		pop	{r7}
 529              		.cfi_restore 7
 530              		.cfi_def_cfa_offset 0
 531 0016 7047     		bx	lr
 532              	.L31:
 533              		.align	2
 534              	.L30:
 535 0018 64640040 		.word	1073767524
ARM GAS  C:\Users\JEFFSN~1\AppData\Local\Temp\ccqfr1aT.s 			page 18


 536              		.cfi_endproc
 537              	.LFE10:
 538              		.size	SPIS_1_ReadTxStatus, .-SPIS_1_ReadTxStatus
 539              		.section	.text.SPIS_1_ReadRxStatus,"ax",%progbits
 540              		.align	2
 541              		.global	SPIS_1_ReadRxStatus
 542              		.thumb
 543              		.thumb_func
 544              		.type	SPIS_1_ReadRxStatus, %function
 545              	SPIS_1_ReadRxStatus:
 546              	.LFB11:
 435:Generated_Source\PSoC5/SPIS_1.c **** 
 436:Generated_Source\PSoC5/SPIS_1.c **** 
 437:Generated_Source\PSoC5/SPIS_1.c **** /*******************************************************************************
 438:Generated_Source\PSoC5/SPIS_1.c **** * Function Name: SPIS_1_ReadRxStatus
 439:Generated_Source\PSoC5/SPIS_1.c **** ********************************************************************************
 440:Generated_Source\PSoC5/SPIS_1.c **** *
 441:Generated_Source\PSoC5/SPIS_1.c **** * Summary:
 442:Generated_Source\PSoC5/SPIS_1.c **** *  Read the Rx status register for the component.
 443:Generated_Source\PSoC5/SPIS_1.c **** *
 444:Generated_Source\PSoC5/SPIS_1.c **** * Parameters:
 445:Generated_Source\PSoC5/SPIS_1.c **** *  None.
 446:Generated_Source\PSoC5/SPIS_1.c **** *
 447:Generated_Source\PSoC5/SPIS_1.c **** * Return:
 448:Generated_Source\PSoC5/SPIS_1.c **** *  Contents of the Rx status register.
 449:Generated_Source\PSoC5/SPIS_1.c **** *
 450:Generated_Source\PSoC5/SPIS_1.c **** * Global variables:
 451:Generated_Source\PSoC5/SPIS_1.c **** *  SPIS_1_swStatusRx - used to store in software Rx status register,
 452:Generated_Source\PSoC5/SPIS_1.c **** *  modified every function call - resets to zero.
 453:Generated_Source\PSoC5/SPIS_1.c **** *
 454:Generated_Source\PSoC5/SPIS_1.c **** * Theory:
 455:Generated_Source\PSoC5/SPIS_1.c **** *  Allows the user and the API to read the Rx status register for error
 456:Generated_Source\PSoC5/SPIS_1.c **** *  detection and flow control.
 457:Generated_Source\PSoC5/SPIS_1.c **** *
 458:Generated_Source\PSoC5/SPIS_1.c **** * Side Effects:
 459:Generated_Source\PSoC5/SPIS_1.c **** *  Clear Rx status register of the component.
 460:Generated_Source\PSoC5/SPIS_1.c **** *
 461:Generated_Source\PSoC5/SPIS_1.c **** * Reentrant:
 462:Generated_Source\PSoC5/SPIS_1.c **** *  No.
 463:Generated_Source\PSoC5/SPIS_1.c **** *
 464:Generated_Source\PSoC5/SPIS_1.c **** *******************************************************************************/
 465:Generated_Source\PSoC5/SPIS_1.c **** uint8 SPIS_1_ReadRxStatus(void) 
 466:Generated_Source\PSoC5/SPIS_1.c **** {
 547              		.loc 1 466 0
 548              		.cfi_startproc
 549              		@ args = 0, pretend = 0, frame = 8
 550              		@ frame_needed = 1, uses_anonymous_args = 0
 551              		@ link register save eliminated.
 552 0000 80B4     		push	{r7}
 553              		.cfi_def_cfa_offset 4
 554              		.cfi_offset 7, -4
 555 0002 83B0     		sub	sp, sp, #12
 556              		.cfi_def_cfa_offset 16
 557 0004 00AF     		add	r7, sp, #0
 558              		.cfi_def_cfa_register 7
 467:Generated_Source\PSoC5/SPIS_1.c ****     uint8 tmpStatus;
 468:Generated_Source\PSoC5/SPIS_1.c **** 
ARM GAS  C:\Users\JEFFSN~1\AppData\Local\Temp\ccqfr1aT.s 			page 19


 469:Generated_Source\PSoC5/SPIS_1.c ****     #if (SPIS_1_RX_SOFTWARE_BUF_ENABLED)
 470:Generated_Source\PSoC5/SPIS_1.c **** 
 471:Generated_Source\PSoC5/SPIS_1.c ****         SPIS_1_DisableRxInt();
 472:Generated_Source\PSoC5/SPIS_1.c **** 
 473:Generated_Source\PSoC5/SPIS_1.c ****         tmpStatus = SPIS_1_GET_STATUS_RX(SPIS_1_swStatusRx);
 474:Generated_Source\PSoC5/SPIS_1.c **** 
 475:Generated_Source\PSoC5/SPIS_1.c ****         SPIS_1_swStatusRx = 0u;
 476:Generated_Source\PSoC5/SPIS_1.c **** 
 477:Generated_Source\PSoC5/SPIS_1.c ****         /* Enable Interrupts */
 478:Generated_Source\PSoC5/SPIS_1.c ****         SPIS_1_EnableRxInt();
 479:Generated_Source\PSoC5/SPIS_1.c **** 
 480:Generated_Source\PSoC5/SPIS_1.c ****     #else /* !SPIS_1_RX_SOFTWARE_BUF_ENABLED */
 481:Generated_Source\PSoC5/SPIS_1.c **** 
 482:Generated_Source\PSoC5/SPIS_1.c ****         tmpStatus = SPIS_1_RX_STATUS_REG;
 559              		.loc 1 482 0
 560 0006 044B     		ldr	r3, .L34
 561 0008 1B78     		ldrb	r3, [r3]
 562 000a FB71     		strb	r3, [r7, #7]
 483:Generated_Source\PSoC5/SPIS_1.c **** 
 484:Generated_Source\PSoC5/SPIS_1.c ****     #endif /* SPIS_1_RX_SOFTWARE_BUF_ENABLED */
 485:Generated_Source\PSoC5/SPIS_1.c **** 
 486:Generated_Source\PSoC5/SPIS_1.c ****     return(tmpStatus);
 563              		.loc 1 486 0
 564 000c FB79     		ldrb	r3, [r7, #7]	@ zero_extendqisi2
 487:Generated_Source\PSoC5/SPIS_1.c **** }
 565              		.loc 1 487 0
 566 000e 1846     		mov	r0, r3
 567 0010 0C37     		adds	r7, r7, #12
 568              		.cfi_def_cfa_offset 4
 569 0012 BD46     		mov	sp, r7
 570              		.cfi_def_cfa_register 13
 571              		@ sp needed
 572 0014 80BC     		pop	{r7}
 573              		.cfi_restore 7
 574              		.cfi_def_cfa_offset 0
 575 0016 7047     		bx	lr
 576              	.L35:
 577              		.align	2
 578              	.L34:
 579 0018 64650040 		.word	1073767780
 580              		.cfi_endproc
 581              	.LFE11:
 582              		.size	SPIS_1_ReadRxStatus, .-SPIS_1_ReadRxStatus
 583              		.section	.text.SPIS_1_WriteTxData,"ax",%progbits
 584              		.align	2
 585              		.global	SPIS_1_WriteTxData
 586              		.thumb
 587              		.thumb_func
 588              		.type	SPIS_1_WriteTxData, %function
 589              	SPIS_1_WriteTxData:
 590              	.LFB12:
 488:Generated_Source\PSoC5/SPIS_1.c **** 
 489:Generated_Source\PSoC5/SPIS_1.c **** 
 490:Generated_Source\PSoC5/SPIS_1.c **** /*******************************************************************************
 491:Generated_Source\PSoC5/SPIS_1.c **** * Function Name: SPIS_1_WriteTxData
 492:Generated_Source\PSoC5/SPIS_1.c **** ********************************************************************************
 493:Generated_Source\PSoC5/SPIS_1.c **** *
ARM GAS  C:\Users\JEFFSN~1\AppData\Local\Temp\ccqfr1aT.s 			page 20


 494:Generated_Source\PSoC5/SPIS_1.c **** * Summary:
 495:Generated_Source\PSoC5/SPIS_1.c **** *  Write a byte of data to be sent across the SPI.
 496:Generated_Source\PSoC5/SPIS_1.c **** *
 497:Generated_Source\PSoC5/SPIS_1.c **** * Parameters:
 498:Generated_Source\PSoC5/SPIS_1.c **** *  txDataByte: The data value to send across the SPI.
 499:Generated_Source\PSoC5/SPIS_1.c **** *
 500:Generated_Source\PSoC5/SPIS_1.c **** * Return:
 501:Generated_Source\PSoC5/SPIS_1.c **** *  None.
 502:Generated_Source\PSoC5/SPIS_1.c **** *
 503:Generated_Source\PSoC5/SPIS_1.c **** * Global variables:
 504:Generated_Source\PSoC5/SPIS_1.c **** *  SPIS_1_txBufferWrite - used for the account of the bytes which
 505:Generated_Source\PSoC5/SPIS_1.c **** *  have been written down in the TX software buffer, modified every function
 506:Generated_Source\PSoC5/SPIS_1.c **** *  call if TX Software Buffer is used.
 507:Generated_Source\PSoC5/SPIS_1.c **** *  SPIS_1_txBufferRead - used for the account of the bytes which
 508:Generated_Source\PSoC5/SPIS_1.c **** *  have been read from the TX software buffer.
 509:Generated_Source\PSoC5/SPIS_1.c **** *  SPIS_1_txBuffer[SPIS_1_TX_BUFFER_SIZE] - used to store
 510:Generated_Source\PSoC5/SPIS_1.c **** *  data to sending, modified every function call if TX Software Buffer is used.
 511:Generated_Source\PSoC5/SPIS_1.c **** *
 512:Generated_Source\PSoC5/SPIS_1.c **** * Theory:
 513:Generated_Source\PSoC5/SPIS_1.c **** *  Allows the user to transmit any byte of data in a single transfer.
 514:Generated_Source\PSoC5/SPIS_1.c **** *
 515:Generated_Source\PSoC5/SPIS_1.c **** * Side Effects:
 516:Generated_Source\PSoC5/SPIS_1.c **** *  If this function is called again before the previous byte is finished then
 517:Generated_Source\PSoC5/SPIS_1.c **** *  the next byte will be appended to the transfer with no time between
 518:Generated_Source\PSoC5/SPIS_1.c **** *  the byte transfers. Clear Tx status register of the component.
 519:Generated_Source\PSoC5/SPIS_1.c **** *
 520:Generated_Source\PSoC5/SPIS_1.c **** * Reentrant:
 521:Generated_Source\PSoC5/SPIS_1.c **** *  No.
 522:Generated_Source\PSoC5/SPIS_1.c **** *
 523:Generated_Source\PSoC5/SPIS_1.c **** *******************************************************************************/
 524:Generated_Source\PSoC5/SPIS_1.c **** void SPIS_1_WriteTxData(uint8 txData) 
 525:Generated_Source\PSoC5/SPIS_1.c **** {
 591              		.loc 1 525 0
 592              		.cfi_startproc
 593              		@ args = 0, pretend = 0, frame = 8
 594              		@ frame_needed = 1, uses_anonymous_args = 0
 595              		@ link register save eliminated.
 596 0000 80B4     		push	{r7}
 597              		.cfi_def_cfa_offset 4
 598              		.cfi_offset 7, -4
 599 0002 83B0     		sub	sp, sp, #12
 600              		.cfi_def_cfa_offset 16
 601 0004 00AF     		add	r7, sp, #0
 602              		.cfi_def_cfa_register 7
 603 0006 0346     		mov	r3, r0
 604 0008 FB71     		strb	r3, [r7, #7]
 526:Generated_Source\PSoC5/SPIS_1.c ****     #if(SPIS_1_TX_SOFTWARE_BUF_ENABLED)
 527:Generated_Source\PSoC5/SPIS_1.c **** 
 528:Generated_Source\PSoC5/SPIS_1.c ****         uint8 tempStatus;
 529:Generated_Source\PSoC5/SPIS_1.c ****         uint8 tmpTxBufferRead;
 530:Generated_Source\PSoC5/SPIS_1.c **** 
 531:Generated_Source\PSoC5/SPIS_1.c ****         /* Block if buffer is full, so we don't overwrite. */
 532:Generated_Source\PSoC5/SPIS_1.c ****         do
 533:Generated_Source\PSoC5/SPIS_1.c ****         {
 534:Generated_Source\PSoC5/SPIS_1.c ****             tmpTxBufferRead = SPIS_1_txBufferRead;
 535:Generated_Source\PSoC5/SPIS_1.c ****             if (0u == tmpTxBufferRead)
 536:Generated_Source\PSoC5/SPIS_1.c ****             {
ARM GAS  C:\Users\JEFFSN~1\AppData\Local\Temp\ccqfr1aT.s 			page 21


 537:Generated_Source\PSoC5/SPIS_1.c ****                 tmpTxBufferRead = SPIS_1_TX_BUFFER_SIZE - 1u;
 538:Generated_Source\PSoC5/SPIS_1.c ****             }
 539:Generated_Source\PSoC5/SPIS_1.c ****             else
 540:Generated_Source\PSoC5/SPIS_1.c ****             {
 541:Generated_Source\PSoC5/SPIS_1.c ****                 tmpTxBufferRead--;
 542:Generated_Source\PSoC5/SPIS_1.c ****             }
 543:Generated_Source\PSoC5/SPIS_1.c **** 
 544:Generated_Source\PSoC5/SPIS_1.c ****         }
 545:Generated_Source\PSoC5/SPIS_1.c ****         while(tmpTxBufferRead == SPIS_1_txBufferWrite);
 546:Generated_Source\PSoC5/SPIS_1.c **** 
 547:Generated_Source\PSoC5/SPIS_1.c ****         /* Disable Interrupt to protect variables that could change on interrupt. */
 548:Generated_Source\PSoC5/SPIS_1.c ****         SPIS_1_DisableTxInt();
 549:Generated_Source\PSoC5/SPIS_1.c **** 
 550:Generated_Source\PSoC5/SPIS_1.c ****         tempStatus = SPIS_1_GET_STATUS_TX(SPIS_1_swStatusTx);
 551:Generated_Source\PSoC5/SPIS_1.c ****         SPIS_1_swStatusTx = tempStatus;
 552:Generated_Source\PSoC5/SPIS_1.c **** 
 553:Generated_Source\PSoC5/SPIS_1.c ****         if((SPIS_1_txBufferRead == SPIS_1_txBufferWrite) &&
 554:Generated_Source\PSoC5/SPIS_1.c ****             (0u != (SPIS_1_swStatusTx & SPIS_1_STS_TX_FIFO_NOT_FULL)))
 555:Generated_Source\PSoC5/SPIS_1.c ****         {
 556:Generated_Source\PSoC5/SPIS_1.c ****             /* Put data element into the TX FIFO */
 557:Generated_Source\PSoC5/SPIS_1.c ****             CY_SET_REG8(SPIS_1_TXDATA_PTR, txData);
 558:Generated_Source\PSoC5/SPIS_1.c ****         }
 559:Generated_Source\PSoC5/SPIS_1.c ****         else
 560:Generated_Source\PSoC5/SPIS_1.c ****         {
 561:Generated_Source\PSoC5/SPIS_1.c ****             /* Put data element into the software buffer */
 562:Generated_Source\PSoC5/SPIS_1.c ****             SPIS_1_txBufferWrite++;
 563:Generated_Source\PSoC5/SPIS_1.c ****             if(SPIS_1_txBufferWrite >= SPIS_1_TX_BUFFER_SIZE)
 564:Generated_Source\PSoC5/SPIS_1.c ****             {
 565:Generated_Source\PSoC5/SPIS_1.c ****                 SPIS_1_txBufferWrite = 0u;
 566:Generated_Source\PSoC5/SPIS_1.c ****             }
 567:Generated_Source\PSoC5/SPIS_1.c **** 
 568:Generated_Source\PSoC5/SPIS_1.c ****             if(SPIS_1_txBufferWrite == SPIS_1_txBufferRead)
 569:Generated_Source\PSoC5/SPIS_1.c ****             {
 570:Generated_Source\PSoC5/SPIS_1.c ****                 SPIS_1_txBufferRead++;
 571:Generated_Source\PSoC5/SPIS_1.c ****                 if(SPIS_1_txBufferRead >= SPIS_1_RX_BUFFER_SIZE)
 572:Generated_Source\PSoC5/SPIS_1.c ****                 {
 573:Generated_Source\PSoC5/SPIS_1.c ****                     SPIS_1_txBufferRead = 0u;
 574:Generated_Source\PSoC5/SPIS_1.c ****                 }
 575:Generated_Source\PSoC5/SPIS_1.c ****                 SPIS_1_txBufferFull = 1u;
 576:Generated_Source\PSoC5/SPIS_1.c ****             }
 577:Generated_Source\PSoC5/SPIS_1.c **** 
 578:Generated_Source\PSoC5/SPIS_1.c ****             SPIS_1_txBuffer[SPIS_1_txBufferWrite] = txData;
 579:Generated_Source\PSoC5/SPIS_1.c **** 
 580:Generated_Source\PSoC5/SPIS_1.c ****             SPIS_1_TX_STATUS_MASK_REG |= SPIS_1_STS_TX_FIFO_NOT_FULL;
 581:Generated_Source\PSoC5/SPIS_1.c ****         }
 582:Generated_Source\PSoC5/SPIS_1.c **** 
 583:Generated_Source\PSoC5/SPIS_1.c ****         /* Enable Interrupt. */
 584:Generated_Source\PSoC5/SPIS_1.c ****         SPIS_1_EnableTxInt();
 585:Generated_Source\PSoC5/SPIS_1.c **** 
 586:Generated_Source\PSoC5/SPIS_1.c ****     #else /* !SPIS_1_TX_SOFTWARE_BUF_ENABLED */
 587:Generated_Source\PSoC5/SPIS_1.c ****         /* Wait until TX FIFO has a place */
 588:Generated_Source\PSoC5/SPIS_1.c ****         while(0u == (SPIS_1_TX_STATUS_REG & SPIS_1_STS_TX_FIFO_NOT_FULL))
 605              		.loc 1 588 0
 606 000a 00BF     		nop
 607              	.L37:
 608              		.loc 1 588 0 is_stmt 0 discriminator 1
 609 000c 074B     		ldr	r3, .L38
ARM GAS  C:\Users\JEFFSN~1\AppData\Local\Temp\ccqfr1aT.s 			page 22


 610 000e 1B78     		ldrb	r3, [r3]
 611 0010 DBB2     		uxtb	r3, r3
 612 0012 03F00203 		and	r3, r3, #2
 613 0016 002B     		cmp	r3, #0
 614 0018 F8D0     		beq	.L37
 589:Generated_Source\PSoC5/SPIS_1.c ****         {
 590:Generated_Source\PSoC5/SPIS_1.c ****         }
 591:Generated_Source\PSoC5/SPIS_1.c **** 
 592:Generated_Source\PSoC5/SPIS_1.c ****         /* Put data element into the TX FIFO */
 593:Generated_Source\PSoC5/SPIS_1.c ****         CY_SET_REG8(SPIS_1_TXDATA_PTR, txData);
 615              		.loc 1 593 0 is_stmt 1
 616 001a 054A     		ldr	r2, .L38+4
 617 001c FB79     		ldrb	r3, [r7, #7]
 618 001e 1370     		strb	r3, [r2]
 594:Generated_Source\PSoC5/SPIS_1.c ****         
 595:Generated_Source\PSoC5/SPIS_1.c ****     #endif /* SPIS_1_TX_SOFTWARE_BUF_ENABLED */
 596:Generated_Source\PSoC5/SPIS_1.c **** }
 619              		.loc 1 596 0
 620 0020 00BF     		nop
 621 0022 0C37     		adds	r7, r7, #12
 622              		.cfi_def_cfa_offset 4
 623 0024 BD46     		mov	sp, r7
 624              		.cfi_def_cfa_register 13
 625              		@ sp needed
 626 0026 80BC     		pop	{r7}
 627              		.cfi_restore 7
 628              		.cfi_def_cfa_offset 0
 629 0028 7047     		bx	lr
 630              	.L39:
 631 002a 00BF     		.align	2
 632              	.L38:
 633 002c 64640040 		.word	1073767524
 634 0030 43640040 		.word	1073767491
 635              		.cfi_endproc
 636              	.LFE12:
 637              		.size	SPIS_1_WriteTxData, .-SPIS_1_WriteTxData
 638              		.section	.text.SPIS_1_WriteTxDataZero,"ax",%progbits
 639              		.align	2
 640              		.global	SPIS_1_WriteTxDataZero
 641              		.thumb
 642              		.thumb_func
 643              		.type	SPIS_1_WriteTxDataZero, %function
 644              	SPIS_1_WriteTxDataZero:
 645              	.LFB13:
 597:Generated_Source\PSoC5/SPIS_1.c **** 
 598:Generated_Source\PSoC5/SPIS_1.c **** #if(SPIS_1_MODE_USE_ZERO != 0u)
 599:Generated_Source\PSoC5/SPIS_1.c **** 
 600:Generated_Source\PSoC5/SPIS_1.c ****     /*******************************************************************************
 601:Generated_Source\PSoC5/SPIS_1.c ****     * Function Name: SPIS_1_WriteTxDataZero
 602:Generated_Source\PSoC5/SPIS_1.c ****     ********************************************************************************
 603:Generated_Source\PSoC5/SPIS_1.c ****     *
 604:Generated_Source\PSoC5/SPIS_1.c ****     * Summary:
 605:Generated_Source\PSoC5/SPIS_1.c ****     *  Write a byte zero of data to be sent across the SPI. This must be used in
 606:Generated_Source\PSoC5/SPIS_1.c ****     *  Mode 00 and 01 if the FIFO is empty and data is not being sent.
 607:Generated_Source\PSoC5/SPIS_1.c ****     *
 608:Generated_Source\PSoC5/SPIS_1.c ****     * Parameters:
 609:Generated_Source\PSoC5/SPIS_1.c ****     *  txDataByte: The data value to send across the SPI.
ARM GAS  C:\Users\JEFFSN~1\AppData\Local\Temp\ccqfr1aT.s 			page 23


 610:Generated_Source\PSoC5/SPIS_1.c ****     *
 611:Generated_Source\PSoC5/SPIS_1.c ****     * Return:
 612:Generated_Source\PSoC5/SPIS_1.c ****     *  None.
 613:Generated_Source\PSoC5/SPIS_1.c ****     *
 614:Generated_Source\PSoC5/SPIS_1.c ****     * Theory:
 615:Generated_Source\PSoC5/SPIS_1.c ****     *  Allows the user to transmit any byte of data in a single transfer. Clear
 616:Generated_Source\PSoC5/SPIS_1.c ****     *  status register of the component.
 617:Generated_Source\PSoC5/SPIS_1.c ****     *
 618:Generated_Source\PSoC5/SPIS_1.c ****     *******************************************************************************/
 619:Generated_Source\PSoC5/SPIS_1.c ****     void SPIS_1_WriteTxDataZero(uint8 txDataByte)
 620:Generated_Source\PSoC5/SPIS_1.c ****                                         
 621:Generated_Source\PSoC5/SPIS_1.c ****     {
 646              		.loc 1 621 0
 647              		.cfi_startproc
 648              		@ args = 0, pretend = 0, frame = 8
 649              		@ frame_needed = 1, uses_anonymous_args = 0
 650              		@ link register save eliminated.
 651 0000 80B4     		push	{r7}
 652              		.cfi_def_cfa_offset 4
 653              		.cfi_offset 7, -4
 654 0002 83B0     		sub	sp, sp, #12
 655              		.cfi_def_cfa_offset 16
 656 0004 00AF     		add	r7, sp, #0
 657              		.cfi_def_cfa_register 7
 658 0006 0346     		mov	r3, r0
 659 0008 FB71     		strb	r3, [r7, #7]
 622:Generated_Source\PSoC5/SPIS_1.c ****         CY_SET_REG8(SPIS_1_TXDATA_ZERO_PTR, txDataByte);
 660              		.loc 1 622 0
 661 000a 044A     		ldr	r2, .L41
 662 000c FB79     		ldrb	r3, [r7, #7]
 663 000e 1370     		strb	r3, [r2]
 623:Generated_Source\PSoC5/SPIS_1.c ****     }
 664              		.loc 1 623 0
 665 0010 00BF     		nop
 666 0012 0C37     		adds	r7, r7, #12
 667              		.cfi_def_cfa_offset 4
 668 0014 BD46     		mov	sp, r7
 669              		.cfi_def_cfa_register 13
 670              		@ sp needed
 671 0016 80BC     		pop	{r7}
 672              		.cfi_restore 7
 673              		.cfi_def_cfa_offset 0
 674 0018 7047     		bx	lr
 675              	.L42:
 676 001a 00BF     		.align	2
 677              	.L41:
 678 001c 03640040 		.word	1073767427
 679              		.cfi_endproc
 680              	.LFE13:
 681              		.size	SPIS_1_WriteTxDataZero, .-SPIS_1_WriteTxDataZero
 682              		.section	.text.SPIS_1_ReadRxData,"ax",%progbits
 683              		.align	2
 684              		.global	SPIS_1_ReadRxData
 685              		.thumb
 686              		.thumb_func
 687              		.type	SPIS_1_ReadRxData, %function
 688              	SPIS_1_ReadRxData:
ARM GAS  C:\Users\JEFFSN~1\AppData\Local\Temp\ccqfr1aT.s 			page 24


 689              	.LFB14:
 624:Generated_Source\PSoC5/SPIS_1.c **** 
 625:Generated_Source\PSoC5/SPIS_1.c **** #endif /* (SPIS_1_MODE_USE_ZERO != 0u) */
 626:Generated_Source\PSoC5/SPIS_1.c **** 
 627:Generated_Source\PSoC5/SPIS_1.c **** 
 628:Generated_Source\PSoC5/SPIS_1.c **** /*******************************************************************************
 629:Generated_Source\PSoC5/SPIS_1.c **** * Function Name: SPIS_1_ReadRxData
 630:Generated_Source\PSoC5/SPIS_1.c **** ********************************************************************************
 631:Generated_Source\PSoC5/SPIS_1.c **** *
 632:Generated_Source\PSoC5/SPIS_1.c **** * Summary:
 633:Generated_Source\PSoC5/SPIS_1.c **** *  Read the next byte of data received across the SPI.
 634:Generated_Source\PSoC5/SPIS_1.c **** *
 635:Generated_Source\PSoC5/SPIS_1.c **** * Parameters:
 636:Generated_Source\PSoC5/SPIS_1.c **** *  None.
 637:Generated_Source\PSoC5/SPIS_1.c **** *
 638:Generated_Source\PSoC5/SPIS_1.c **** * Return:
 639:Generated_Source\PSoC5/SPIS_1.c **** *  The next byte of data read from the FIFO.
 640:Generated_Source\PSoC5/SPIS_1.c **** *
 641:Generated_Source\PSoC5/SPIS_1.c **** * Global variables:
 642:Generated_Source\PSoC5/SPIS_1.c **** *  SPIS_1_rxBufferWrite - used for the account of the bytes which
 643:Generated_Source\PSoC5/SPIS_1.c **** *  have been written down in the RX software buffer.
 644:Generated_Source\PSoC5/SPIS_1.c **** *  SPIS_1_rxBufferRead - used for the account of the bytes which
 645:Generated_Source\PSoC5/SPIS_1.c **** *  have been read from the RX software buffer, modified every function
 646:Generated_Source\PSoC5/SPIS_1.c **** *  call if RX Software Buffer is used.
 647:Generated_Source\PSoC5/SPIS_1.c **** *  SPIS_1_rxBuffer[SPIS_1_RX_BUFFER_SIZE] - used to store
 648:Generated_Source\PSoC5/SPIS_1.c **** *  received data.
 649:Generated_Source\PSoC5/SPIS_1.c **** *
 650:Generated_Source\PSoC5/SPIS_1.c **** * Theory:
 651:Generated_Source\PSoC5/SPIS_1.c **** *  Allows the user to read a byte of data received.
 652:Generated_Source\PSoC5/SPIS_1.c **** *
 653:Generated_Source\PSoC5/SPIS_1.c **** * Side Effects:
 654:Generated_Source\PSoC5/SPIS_1.c **** *  Will return invalid data if the FIFO is empty.  User should poll for FIFO
 655:Generated_Source\PSoC5/SPIS_1.c **** *  empty status before calling Read function.
 656:Generated_Source\PSoC5/SPIS_1.c **** *
 657:Generated_Source\PSoC5/SPIS_1.c **** * Reentrant:
 658:Generated_Source\PSoC5/SPIS_1.c **** *  No.
 659:Generated_Source\PSoC5/SPIS_1.c **** *
 660:Generated_Source\PSoC5/SPIS_1.c **** *******************************************************************************/
 661:Generated_Source\PSoC5/SPIS_1.c **** uint8 SPIS_1_ReadRxData(void) 
 662:Generated_Source\PSoC5/SPIS_1.c **** {
 690              		.loc 1 662 0
 691              		.cfi_startproc
 692              		@ args = 0, pretend = 0, frame = 8
 693              		@ frame_needed = 1, uses_anonymous_args = 0
 694              		@ link register save eliminated.
 695 0000 80B4     		push	{r7}
 696              		.cfi_def_cfa_offset 4
 697              		.cfi_offset 7, -4
 698 0002 83B0     		sub	sp, sp, #12
 699              		.cfi_def_cfa_offset 16
 700 0004 00AF     		add	r7, sp, #0
 701              		.cfi_def_cfa_register 7
 663:Generated_Source\PSoC5/SPIS_1.c ****     uint8 rxData;
 664:Generated_Source\PSoC5/SPIS_1.c **** 
 665:Generated_Source\PSoC5/SPIS_1.c ****     #if(SPIS_1_RX_SOFTWARE_BUF_ENABLED)
 666:Generated_Source\PSoC5/SPIS_1.c **** 
 667:Generated_Source\PSoC5/SPIS_1.c ****         /* Disable Interrupt to protect variables that could change on interrupt. */
ARM GAS  C:\Users\JEFFSN~1\AppData\Local\Temp\ccqfr1aT.s 			page 25


 668:Generated_Source\PSoC5/SPIS_1.c ****         SPIS_1_DisableRxInt();
 669:Generated_Source\PSoC5/SPIS_1.c **** 
 670:Generated_Source\PSoC5/SPIS_1.c ****         if(SPIS_1_rxBufferRead != SPIS_1_rxBufferWrite)
 671:Generated_Source\PSoC5/SPIS_1.c ****         {
 672:Generated_Source\PSoC5/SPIS_1.c ****             if(SPIS_1_rxBufferFull == 0u)
 673:Generated_Source\PSoC5/SPIS_1.c ****             {
 674:Generated_Source\PSoC5/SPIS_1.c ****                 SPIS_1_rxBufferRead++;
 675:Generated_Source\PSoC5/SPIS_1.c ****                 if(SPIS_1_rxBufferRead >= SPIS_1_RX_BUFFER_SIZE)
 676:Generated_Source\PSoC5/SPIS_1.c ****                 {
 677:Generated_Source\PSoC5/SPIS_1.c ****                     SPIS_1_rxBufferRead = 0u;
 678:Generated_Source\PSoC5/SPIS_1.c ****                 }
 679:Generated_Source\PSoC5/SPIS_1.c ****             }
 680:Generated_Source\PSoC5/SPIS_1.c ****             else
 681:Generated_Source\PSoC5/SPIS_1.c ****             {
 682:Generated_Source\PSoC5/SPIS_1.c ****                 SPIS_1_rxBufferFull = 0u;
 683:Generated_Source\PSoC5/SPIS_1.c ****             }
 684:Generated_Source\PSoC5/SPIS_1.c ****         }
 685:Generated_Source\PSoC5/SPIS_1.c **** 
 686:Generated_Source\PSoC5/SPIS_1.c ****         rxData = SPIS_1_rxBuffer[SPIS_1_rxBufferRead];
 687:Generated_Source\PSoC5/SPIS_1.c **** 
 688:Generated_Source\PSoC5/SPIS_1.c ****         /* Enable Interrupt. */
 689:Generated_Source\PSoC5/SPIS_1.c ****         SPIS_1_EnableRxInt();
 690:Generated_Source\PSoC5/SPIS_1.c **** 
 691:Generated_Source\PSoC5/SPIS_1.c ****     #else /* !SPIS_1_RX_SOFTWARE_BUF_ENABLED */
 692:Generated_Source\PSoC5/SPIS_1.c **** 
 693:Generated_Source\PSoC5/SPIS_1.c ****         rxData = CY_GET_REG8(SPIS_1_RXDATA_PTR);
 702              		.loc 1 693 0
 703 0006 044B     		ldr	r3, .L45
 704 0008 1B78     		ldrb	r3, [r3]
 705 000a FB71     		strb	r3, [r7, #7]
 694:Generated_Source\PSoC5/SPIS_1.c **** 
 695:Generated_Source\PSoC5/SPIS_1.c ****     #endif /* SPIS_1_RX_SOFTWARE_BUF_ENABLED */
 696:Generated_Source\PSoC5/SPIS_1.c **** 
 697:Generated_Source\PSoC5/SPIS_1.c ****     return (rxData);
 706              		.loc 1 697 0
 707 000c FB79     		ldrb	r3, [r7, #7]	@ zero_extendqisi2
 698:Generated_Source\PSoC5/SPIS_1.c **** 
 699:Generated_Source\PSoC5/SPIS_1.c **** }
 708              		.loc 1 699 0
 709 000e 1846     		mov	r0, r3
 710 0010 0C37     		adds	r7, r7, #12
 711              		.cfi_def_cfa_offset 4
 712 0012 BD46     		mov	sp, r7
 713              		.cfi_def_cfa_register 13
 714              		@ sp needed
 715 0014 80BC     		pop	{r7}
 716              		.cfi_restore 7
 717              		.cfi_def_cfa_offset 0
 718 0016 7047     		bx	lr
 719              	.L46:
 720              		.align	2
 721              	.L45:
 722 0018 53640040 		.word	1073767507
 723              		.cfi_endproc
 724              	.LFE14:
 725              		.size	SPIS_1_ReadRxData, .-SPIS_1_ReadRxData
 726              		.section	.text.SPIS_1_GetRxBufferSize,"ax",%progbits
ARM GAS  C:\Users\JEFFSN~1\AppData\Local\Temp\ccqfr1aT.s 			page 26


 727              		.align	2
 728              		.global	SPIS_1_GetRxBufferSize
 729              		.thumb
 730              		.thumb_func
 731              		.type	SPIS_1_GetRxBufferSize, %function
 732              	SPIS_1_GetRxBufferSize:
 733              	.LFB15:
 700:Generated_Source\PSoC5/SPIS_1.c **** 
 701:Generated_Source\PSoC5/SPIS_1.c **** 
 702:Generated_Source\PSoC5/SPIS_1.c **** /*******************************************************************************
 703:Generated_Source\PSoC5/SPIS_1.c **** * Function Name: SPIS_1_GetRxBufferSize
 704:Generated_Source\PSoC5/SPIS_1.c **** ********************************************************************************
 705:Generated_Source\PSoC5/SPIS_1.c **** *
 706:Generated_Source\PSoC5/SPIS_1.c **** * Summary:
 707:Generated_Source\PSoC5/SPIS_1.c **** *  Returns the number of bytes/words of data currently held in the RX buffer.
 708:Generated_Source\PSoC5/SPIS_1.c **** *  If RX Software Buffer not used then function return 0 if FIFO empty or 1 if
 709:Generated_Source\PSoC5/SPIS_1.c **** *  FIFO not empty. In another case function return size of RX Software Buffer.
 710:Generated_Source\PSoC5/SPIS_1.c **** *
 711:Generated_Source\PSoC5/SPIS_1.c **** * Parameters:
 712:Generated_Source\PSoC5/SPIS_1.c **** *  None.
 713:Generated_Source\PSoC5/SPIS_1.c **** *
 714:Generated_Source\PSoC5/SPIS_1.c **** * Return:
 715:Generated_Source\PSoC5/SPIS_1.c **** *  Integer count of the number of bytes/words in the RX buffer.
 716:Generated_Source\PSoC5/SPIS_1.c **** *
 717:Generated_Source\PSoC5/SPIS_1.c **** * Global variables:
 718:Generated_Source\PSoC5/SPIS_1.c **** *  SPIS_1_rxBufferWrite - used for the account of the bytes which
 719:Generated_Source\PSoC5/SPIS_1.c **** *  have been written down in the RX software buffer.
 720:Generated_Source\PSoC5/SPIS_1.c **** *  SPIS_1_rxBufferRead - used for the account of the bytes which
 721:Generated_Source\PSoC5/SPIS_1.c **** *  have been read from the RX software buffer.
 722:Generated_Source\PSoC5/SPIS_1.c **** *
 723:Generated_Source\PSoC5/SPIS_1.c **** * Theory:
 724:Generated_Source\PSoC5/SPIS_1.c **** *  Allows the user to find out how full the RX Buffer is.
 725:Generated_Source\PSoC5/SPIS_1.c **** *
 726:Generated_Source\PSoC5/SPIS_1.c **** *******************************************************************************/
 727:Generated_Source\PSoC5/SPIS_1.c **** uint8 SPIS_1_GetRxBufferSize(void) 
 728:Generated_Source\PSoC5/SPIS_1.c **** {
 734              		.loc 1 728 0
 735              		.cfi_startproc
 736              		@ args = 0, pretend = 0, frame = 8
 737              		@ frame_needed = 1, uses_anonymous_args = 0
 738              		@ link register save eliminated.
 739 0000 80B4     		push	{r7}
 740              		.cfi_def_cfa_offset 4
 741              		.cfi_offset 7, -4
 742 0002 83B0     		sub	sp, sp, #12
 743              		.cfi_def_cfa_offset 16
 744 0004 00AF     		add	r7, sp, #0
 745              		.cfi_def_cfa_register 7
 729:Generated_Source\PSoC5/SPIS_1.c ****     uint8 size;
 730:Generated_Source\PSoC5/SPIS_1.c **** 
 731:Generated_Source\PSoC5/SPIS_1.c ****     #if(SPIS_1_RX_SOFTWARE_BUF_ENABLED)
 732:Generated_Source\PSoC5/SPIS_1.c **** 
 733:Generated_Source\PSoC5/SPIS_1.c ****         /* Disable Interrupt to protect variables that could change on interrupt. */
 734:Generated_Source\PSoC5/SPIS_1.c ****         SPIS_1_DisableRxInt();
 735:Generated_Source\PSoC5/SPIS_1.c **** 
 736:Generated_Source\PSoC5/SPIS_1.c ****         if(SPIS_1_rxBufferRead == SPIS_1_rxBufferWrite)
 737:Generated_Source\PSoC5/SPIS_1.c ****         {
ARM GAS  C:\Users\JEFFSN~1\AppData\Local\Temp\ccqfr1aT.s 			page 27


 738:Generated_Source\PSoC5/SPIS_1.c ****             size = 0u; /* No data in RX buffer */
 739:Generated_Source\PSoC5/SPIS_1.c ****         }
 740:Generated_Source\PSoC5/SPIS_1.c ****         else if(SPIS_1_rxBufferRead < SPIS_1_rxBufferWrite)
 741:Generated_Source\PSoC5/SPIS_1.c ****         {
 742:Generated_Source\PSoC5/SPIS_1.c ****             size = (SPIS_1_rxBufferWrite - SPIS_1_rxBufferRead);
 743:Generated_Source\PSoC5/SPIS_1.c ****         }
 744:Generated_Source\PSoC5/SPIS_1.c ****         else
 745:Generated_Source\PSoC5/SPIS_1.c ****         {
 746:Generated_Source\PSoC5/SPIS_1.c ****             size = (SPIS_1_RX_BUFFER_SIZE - SPIS_1_rxBufferRead) + SPIS_1_rxBufferWrite;
 747:Generated_Source\PSoC5/SPIS_1.c ****         }
 748:Generated_Source\PSoC5/SPIS_1.c **** 
 749:Generated_Source\PSoC5/SPIS_1.c ****         /* Enable interrupt. */
 750:Generated_Source\PSoC5/SPIS_1.c ****         SPIS_1_EnableRxInt();
 751:Generated_Source\PSoC5/SPIS_1.c **** 
 752:Generated_Source\PSoC5/SPIS_1.c ****     #else /* !SPIS_1_RX_SOFTWARE_BUF_ENABLED*/
 753:Generated_Source\PSoC5/SPIS_1.c **** 
 754:Generated_Source\PSoC5/SPIS_1.c ****         /* We can only know if there is data in the fifo. */
 755:Generated_Source\PSoC5/SPIS_1.c ****         size = ((SPIS_1_RX_STATUS_REG & SPIS_1_STS_RX_FIFO_NOT_EMPTY) != 0u) ? 1u : 0u;
 746              		.loc 1 755 0
 747 0006 084B     		ldr	r3, .L51
 748 0008 1B78     		ldrb	r3, [r3]
 749 000a DBB2     		uxtb	r3, r3
 750 000c 03F00803 		and	r3, r3, #8
 751 0010 002B     		cmp	r3, #0
 752 0012 01D0     		beq	.L48
 753              		.loc 1 755 0 is_stmt 0 discriminator 1
 754 0014 0123     		movs	r3, #1
 755 0016 00E0     		b	.L49
 756              	.L48:
 757              		.loc 1 755 0 discriminator 2
 758 0018 0023     		movs	r3, #0
 759              	.L49:
 760              		.loc 1 755 0 discriminator 4
 761 001a FB71     		strb	r3, [r7, #7]
 756:Generated_Source\PSoC5/SPIS_1.c **** 
 757:Generated_Source\PSoC5/SPIS_1.c ****     #endif /* SPIS_1_RX_SOFTWARE_BUF_ENABLED */
 758:Generated_Source\PSoC5/SPIS_1.c **** 
 759:Generated_Source\PSoC5/SPIS_1.c ****     return (size);
 762              		.loc 1 759 0 is_stmt 1 discriminator 4
 763 001c FB79     		ldrb	r3, [r7, #7]	@ zero_extendqisi2
 760:Generated_Source\PSoC5/SPIS_1.c **** }
 764              		.loc 1 760 0 discriminator 4
 765 001e 1846     		mov	r0, r3
 766 0020 0C37     		adds	r7, r7, #12
 767              		.cfi_def_cfa_offset 4
 768 0022 BD46     		mov	sp, r7
 769              		.cfi_def_cfa_register 13
 770              		@ sp needed
 771 0024 80BC     		pop	{r7}
 772              		.cfi_restore 7
 773              		.cfi_def_cfa_offset 0
 774 0026 7047     		bx	lr
 775              	.L52:
 776              		.align	2
 777              	.L51:
 778 0028 64650040 		.word	1073767780
 779              		.cfi_endproc
ARM GAS  C:\Users\JEFFSN~1\AppData\Local\Temp\ccqfr1aT.s 			page 28


 780              	.LFE15:
 781              		.size	SPIS_1_GetRxBufferSize, .-SPIS_1_GetRxBufferSize
 782              		.section	.text.SPIS_1_GetTxBufferSize,"ax",%progbits
 783              		.align	2
 784              		.global	SPIS_1_GetTxBufferSize
 785              		.thumb
 786              		.thumb_func
 787              		.type	SPIS_1_GetTxBufferSize, %function
 788              	SPIS_1_GetTxBufferSize:
 789              	.LFB16:
 761:Generated_Source\PSoC5/SPIS_1.c **** 
 762:Generated_Source\PSoC5/SPIS_1.c **** 
 763:Generated_Source\PSoC5/SPIS_1.c **** /*******************************************************************************
 764:Generated_Source\PSoC5/SPIS_1.c **** * Function Name: SPIS_1_GetTxBufferSize
 765:Generated_Source\PSoC5/SPIS_1.c **** ********************************************************************************
 766:Generated_Source\PSoC5/SPIS_1.c **** *
 767:Generated_Source\PSoC5/SPIS_1.c **** * Summary:
 768:Generated_Source\PSoC5/SPIS_1.c **** *  Returns the number of bytes/words of data currently held in the TX buffer.
 769:Generated_Source\PSoC5/SPIS_1.c **** *  If TX Software Buffer not used then function return 0 - if FIFO empty, 1 - if
 770:Generated_Source\PSoC5/SPIS_1.c **** *  FIFO not full, 4 - if FIFO full. In another case function return size of TX
 771:Generated_Source\PSoC5/SPIS_1.c **** *  Software Buffer.
 772:Generated_Source\PSoC5/SPIS_1.c **** *
 773:Generated_Source\PSoC5/SPIS_1.c **** * Parameters:
 774:Generated_Source\PSoC5/SPIS_1.c **** *  None.
 775:Generated_Source\PSoC5/SPIS_1.c **** *
 776:Generated_Source\PSoC5/SPIS_1.c **** * Return:
 777:Generated_Source\PSoC5/SPIS_1.c **** *  Integer count of the number of bytes/words in the TX buffer.
 778:Generated_Source\PSoC5/SPIS_1.c **** *
 779:Generated_Source\PSoC5/SPIS_1.c **** * Global variables:
 780:Generated_Source\PSoC5/SPIS_1.c **** *  SPIS_1_txBufferWrite - used for the account of the bytes which
 781:Generated_Source\PSoC5/SPIS_1.c **** *  have been written down in the TX software buffer.
 782:Generated_Source\PSoC5/SPIS_1.c **** *  SPIS_1_txBufferRead - used for the account of the bytes which
 783:Generated_Source\PSoC5/SPIS_1.c **** *  have been read from the TX software buffer.
 784:Generated_Source\PSoC5/SPIS_1.c **** *
 785:Generated_Source\PSoC5/SPIS_1.c **** * Theory:
 786:Generated_Source\PSoC5/SPIS_1.c **** *  Allows the user to find out how full the TX Buffer is.
 787:Generated_Source\PSoC5/SPIS_1.c **** *
 788:Generated_Source\PSoC5/SPIS_1.c **** * Side Effects:
 789:Generated_Source\PSoC5/SPIS_1.c **** *  Clear status register of the component.
 790:Generated_Source\PSoC5/SPIS_1.c **** *
 791:Generated_Source\PSoC5/SPIS_1.c **** *******************************************************************************/
 792:Generated_Source\PSoC5/SPIS_1.c **** uint8  SPIS_1_GetTxBufferSize(void) 
 793:Generated_Source\PSoC5/SPIS_1.c **** {
 790              		.loc 1 793 0
 791              		.cfi_startproc
 792              		@ args = 0, pretend = 0, frame = 8
 793              		@ frame_needed = 1, uses_anonymous_args = 0
 794              		@ link register save eliminated.
 795 0000 80B4     		push	{r7}
 796              		.cfi_def_cfa_offset 4
 797              		.cfi_offset 7, -4
 798 0002 83B0     		sub	sp, sp, #12
 799              		.cfi_def_cfa_offset 16
 800 0004 00AF     		add	r7, sp, #0
 801              		.cfi_def_cfa_register 7
 794:Generated_Source\PSoC5/SPIS_1.c ****     uint8 size;
 795:Generated_Source\PSoC5/SPIS_1.c **** 
ARM GAS  C:\Users\JEFFSN~1\AppData\Local\Temp\ccqfr1aT.s 			page 29


 796:Generated_Source\PSoC5/SPIS_1.c ****     #if(SPIS_1_TX_SOFTWARE_BUF_ENABLED)
 797:Generated_Source\PSoC5/SPIS_1.c **** 
 798:Generated_Source\PSoC5/SPIS_1.c ****         /* Disable Interrupt to protect variables that could change on interrupt. */
 799:Generated_Source\PSoC5/SPIS_1.c ****         SPIS_1_DisableTxInt();
 800:Generated_Source\PSoC5/SPIS_1.c **** 
 801:Generated_Source\PSoC5/SPIS_1.c ****         if(SPIS_1_txBufferRead == SPIS_1_txBufferWrite)
 802:Generated_Source\PSoC5/SPIS_1.c ****         {
 803:Generated_Source\PSoC5/SPIS_1.c ****             size = 0u;
 804:Generated_Source\PSoC5/SPIS_1.c ****         }
 805:Generated_Source\PSoC5/SPIS_1.c ****         else if(SPIS_1_txBufferRead < SPIS_1_txBufferWrite)
 806:Generated_Source\PSoC5/SPIS_1.c ****         {
 807:Generated_Source\PSoC5/SPIS_1.c ****             size = (SPIS_1_txBufferWrite - SPIS_1_txBufferRead);
 808:Generated_Source\PSoC5/SPIS_1.c ****         }
 809:Generated_Source\PSoC5/SPIS_1.c ****         else
 810:Generated_Source\PSoC5/SPIS_1.c ****         {
 811:Generated_Source\PSoC5/SPIS_1.c ****             size = (SPIS_1_TX_BUFFER_SIZE - SPIS_1_txBufferRead) + SPIS_1_txBufferWrite;
 812:Generated_Source\PSoC5/SPIS_1.c ****         }
 813:Generated_Source\PSoC5/SPIS_1.c **** 
 814:Generated_Source\PSoC5/SPIS_1.c ****         /* Enable Interrupt. */
 815:Generated_Source\PSoC5/SPIS_1.c ****         SPIS_1_EnableTxInt();
 816:Generated_Source\PSoC5/SPIS_1.c **** 
 817:Generated_Source\PSoC5/SPIS_1.c ****     #else /* !SPIS_1_TX_SOFTWARE_BUF_ENABLED */
 818:Generated_Source\PSoC5/SPIS_1.c **** 
 819:Generated_Source\PSoC5/SPIS_1.c ****         size = SPIS_1_TX_STATUS_REG;
 802              		.loc 1 819 0
 803 0006 0D4B     		ldr	r3, .L58
 804 0008 1B78     		ldrb	r3, [r3]
 805 000a FB71     		strb	r3, [r7, #7]
 820:Generated_Source\PSoC5/SPIS_1.c **** 
 821:Generated_Source\PSoC5/SPIS_1.c ****         /* Is the fifo is full. */
 822:Generated_Source\PSoC5/SPIS_1.c ****         if((size & SPIS_1_STS_TX_FIFO_EMPTY) != 0u)
 806              		.loc 1 822 0
 807 000c FB79     		ldrb	r3, [r7, #7]	@ zero_extendqisi2
 808 000e 03F00403 		and	r3, r3, #4
 809 0012 002B     		cmp	r3, #0
 810 0014 02D0     		beq	.L54
 823:Generated_Source\PSoC5/SPIS_1.c ****         {
 824:Generated_Source\PSoC5/SPIS_1.c ****             size = 0u;
 811              		.loc 1 824 0
 812 0016 0023     		movs	r3, #0
 813 0018 FB71     		strb	r3, [r7, #7]
 814 001a 09E0     		b	.L55
 815              	.L54:
 825:Generated_Source\PSoC5/SPIS_1.c ****         }
 826:Generated_Source\PSoC5/SPIS_1.c ****         else if((size & SPIS_1_STS_TX_FIFO_NOT_FULL) != 0u)
 816              		.loc 1 826 0
 817 001c FB79     		ldrb	r3, [r7, #7]	@ zero_extendqisi2
 818 001e 03F00203 		and	r3, r3, #2
 819 0022 002B     		cmp	r3, #0
 820 0024 02D0     		beq	.L56
 827:Generated_Source\PSoC5/SPIS_1.c ****         {
 828:Generated_Source\PSoC5/SPIS_1.c ****             size = 1u;
 821              		.loc 1 828 0
 822 0026 0123     		movs	r3, #1
 823 0028 FB71     		strb	r3, [r7, #7]
 824 002a 01E0     		b	.L55
 825              	.L56:
ARM GAS  C:\Users\JEFFSN~1\AppData\Local\Temp\ccqfr1aT.s 			page 30


 829:Generated_Source\PSoC5/SPIS_1.c ****         }
 830:Generated_Source\PSoC5/SPIS_1.c ****         else
 831:Generated_Source\PSoC5/SPIS_1.c ****         {
 832:Generated_Source\PSoC5/SPIS_1.c ****             size = 4u;
 826              		.loc 1 832 0
 827 002c 0423     		movs	r3, #4
 828 002e FB71     		strb	r3, [r7, #7]
 829              	.L55:
 833:Generated_Source\PSoC5/SPIS_1.c ****         }
 834:Generated_Source\PSoC5/SPIS_1.c **** 
 835:Generated_Source\PSoC5/SPIS_1.c ****     #endif /* SPIS_1_TX_SOFTWARE_BUF_ENABLED */
 836:Generated_Source\PSoC5/SPIS_1.c **** 
 837:Generated_Source\PSoC5/SPIS_1.c ****     return (size);
 830              		.loc 1 837 0
 831 0030 FB79     		ldrb	r3, [r7, #7]	@ zero_extendqisi2
 838:Generated_Source\PSoC5/SPIS_1.c **** }
 832              		.loc 1 838 0
 833 0032 1846     		mov	r0, r3
 834 0034 0C37     		adds	r7, r7, #12
 835              		.cfi_def_cfa_offset 4
 836 0036 BD46     		mov	sp, r7
 837              		.cfi_def_cfa_register 13
 838              		@ sp needed
 839 0038 80BC     		pop	{r7}
 840              		.cfi_restore 7
 841              		.cfi_def_cfa_offset 0
 842 003a 7047     		bx	lr
 843              	.L59:
 844              		.align	2
 845              	.L58:
 846 003c 64640040 		.word	1073767524
 847              		.cfi_endproc
 848              	.LFE16:
 849              		.size	SPIS_1_GetTxBufferSize, .-SPIS_1_GetTxBufferSize
 850              		.section	.text.SPIS_1_ClearRxBuffer,"ax",%progbits
 851              		.align	2
 852              		.global	SPIS_1_ClearRxBuffer
 853              		.thumb
 854              		.thumb_func
 855              		.type	SPIS_1_ClearRxBuffer, %function
 856              	SPIS_1_ClearRxBuffer:
 857              	.LFB17:
 839:Generated_Source\PSoC5/SPIS_1.c **** 
 840:Generated_Source\PSoC5/SPIS_1.c **** 
 841:Generated_Source\PSoC5/SPIS_1.c **** /*******************************************************************************
 842:Generated_Source\PSoC5/SPIS_1.c **** * Function Name: SPIS_1_ClearRxBuffer
 843:Generated_Source\PSoC5/SPIS_1.c **** ********************************************************************************
 844:Generated_Source\PSoC5/SPIS_1.c **** *
 845:Generated_Source\PSoC5/SPIS_1.c **** * Summary:
 846:Generated_Source\PSoC5/SPIS_1.c **** *  Clear the RX RAM buffer by setting the read and write pointers both to zero.
 847:Generated_Source\PSoC5/SPIS_1.c **** *
 848:Generated_Source\PSoC5/SPIS_1.c **** * Parameters:
 849:Generated_Source\PSoC5/SPIS_1.c **** *  None.
 850:Generated_Source\PSoC5/SPIS_1.c **** *
 851:Generated_Source\PSoC5/SPIS_1.c **** * Return:
 852:Generated_Source\PSoC5/SPIS_1.c **** *  None.
 853:Generated_Source\PSoC5/SPIS_1.c **** *
ARM GAS  C:\Users\JEFFSN~1\AppData\Local\Temp\ccqfr1aT.s 			page 31


 854:Generated_Source\PSoC5/SPIS_1.c **** * Global variables:
 855:Generated_Source\PSoC5/SPIS_1.c **** *  SPIS_1_rxBufferWrite - used for the account of the bytes which
 856:Generated_Source\PSoC5/SPIS_1.c **** *  have been written down in the RX software buffer, modified every function
 857:Generated_Source\PSoC5/SPIS_1.c **** *  call - resets to zero.
 858:Generated_Source\PSoC5/SPIS_1.c **** *  SPIS_1_rxBufferRead - used for the account of the bytes which
 859:Generated_Source\PSoC5/SPIS_1.c **** *  have been read from the RX software buffer, modified every function call -
 860:Generated_Source\PSoC5/SPIS_1.c **** *  resets to zero.
 861:Generated_Source\PSoC5/SPIS_1.c **** *
 862:Generated_Source\PSoC5/SPIS_1.c **** * Theory:
 863:Generated_Source\PSoC5/SPIS_1.c **** *  Setting the pointers to zero makes the system believe there is no data to
 864:Generated_Source\PSoC5/SPIS_1.c **** *  read and writing will resume at address 0 overwriting any data that may have
 865:Generated_Source\PSoC5/SPIS_1.c **** *  remained in the RAM.
 866:Generated_Source\PSoC5/SPIS_1.c **** *
 867:Generated_Source\PSoC5/SPIS_1.c **** * Side Effects:
 868:Generated_Source\PSoC5/SPIS_1.c **** *  Any received data not read from the RAM buffer will be lost when overwritten.
 869:Generated_Source\PSoC5/SPIS_1.c **** *
 870:Generated_Source\PSoC5/SPIS_1.c **** * Reentrant:
 871:Generated_Source\PSoC5/SPIS_1.c **** *  No.
 872:Generated_Source\PSoC5/SPIS_1.c **** *
 873:Generated_Source\PSoC5/SPIS_1.c **** *******************************************************************************/
 874:Generated_Source\PSoC5/SPIS_1.c **** void SPIS_1_ClearRxBuffer(void) 
 875:Generated_Source\PSoC5/SPIS_1.c **** {
 858              		.loc 1 875 0
 859              		.cfi_startproc
 860              		@ args = 0, pretend = 0, frame = 0
 861              		@ frame_needed = 1, uses_anonymous_args = 0
 862              		@ link register save eliminated.
 863 0000 80B4     		push	{r7}
 864              		.cfi_def_cfa_offset 4
 865              		.cfi_offset 7, -4
 866 0002 00AF     		add	r7, sp, #0
 867              		.cfi_def_cfa_register 7
 876:Generated_Source\PSoC5/SPIS_1.c ****     /* Clear Hardware RX FIFO */
 877:Generated_Source\PSoC5/SPIS_1.c ****     while((SPIS_1_RX_STATUS_REG & SPIS_1_STS_RX_FIFO_NOT_EMPTY) != 0u)
 868              		.loc 1 877 0
 869 0004 01E0     		b	.L61
 870              	.L62:
 878:Generated_Source\PSoC5/SPIS_1.c ****     {
 879:Generated_Source\PSoC5/SPIS_1.c ****         CY_GET_REG8(SPIS_1_RXDATA_PTR);
 871              		.loc 1 879 0
 872 0006 064B     		ldr	r3, .L63
 873 0008 1B78     		ldrb	r3, [r3]
 874              	.L61:
 877:Generated_Source\PSoC5/SPIS_1.c ****     {
 875              		.loc 1 877 0
 876 000a 064B     		ldr	r3, .L63+4
 877 000c 1B78     		ldrb	r3, [r3]
 878 000e DBB2     		uxtb	r3, r3
 879 0010 03F00803 		and	r3, r3, #8
 880 0014 002B     		cmp	r3, #0
 881 0016 F6D1     		bne	.L62
 880:Generated_Source\PSoC5/SPIS_1.c ****     }
 881:Generated_Source\PSoC5/SPIS_1.c **** 
 882:Generated_Source\PSoC5/SPIS_1.c ****     #if(SPIS_1_RX_SOFTWARE_BUF_ENABLED)
 883:Generated_Source\PSoC5/SPIS_1.c **** 
 884:Generated_Source\PSoC5/SPIS_1.c ****         /* Disable interrupt to protect variables that could change on interrupt. */
 885:Generated_Source\PSoC5/SPIS_1.c ****         SPIS_1_DisableRxInt();
ARM GAS  C:\Users\JEFFSN~1\AppData\Local\Temp\ccqfr1aT.s 			page 32


 886:Generated_Source\PSoC5/SPIS_1.c **** 
 887:Generated_Source\PSoC5/SPIS_1.c ****         SPIS_1_rxBufferRead  = 0u;
 888:Generated_Source\PSoC5/SPIS_1.c ****         SPIS_1_rxBufferWrite = 0u;
 889:Generated_Source\PSoC5/SPIS_1.c **** 		SPIS_1_rxBufferFull  = 0u;
 890:Generated_Source\PSoC5/SPIS_1.c ****         /* Enable interrupt. */
 891:Generated_Source\PSoC5/SPIS_1.c ****         SPIS_1_EnableRxInt();
 892:Generated_Source\PSoC5/SPIS_1.c **** 
 893:Generated_Source\PSoC5/SPIS_1.c ****     #endif /* SPIS_1_RX_SOFTWARE_BUF_ENABLED */
 894:Generated_Source\PSoC5/SPIS_1.c **** }
 882              		.loc 1 894 0
 883 0018 00BF     		nop
 884 001a BD46     		mov	sp, r7
 885              		.cfi_def_cfa_register 13
 886              		@ sp needed
 887 001c 80BC     		pop	{r7}
 888              		.cfi_restore 7
 889              		.cfi_def_cfa_offset 0
 890 001e 7047     		bx	lr
 891              	.L64:
 892              		.align	2
 893              	.L63:
 894 0020 53640040 		.word	1073767507
 895 0024 64650040 		.word	1073767780
 896              		.cfi_endproc
 897              	.LFE17:
 898              		.size	SPIS_1_ClearRxBuffer, .-SPIS_1_ClearRxBuffer
 899              		.section	.text.SPIS_1_ClearTxBuffer,"ax",%progbits
 900              		.align	2
 901              		.global	SPIS_1_ClearTxBuffer
 902              		.thumb
 903              		.thumb_func
 904              		.type	SPIS_1_ClearTxBuffer, %function
 905              	SPIS_1_ClearTxBuffer:
 906              	.LFB18:
 895:Generated_Source\PSoC5/SPIS_1.c **** 
 896:Generated_Source\PSoC5/SPIS_1.c **** 
 897:Generated_Source\PSoC5/SPIS_1.c **** /*******************************************************************************
 898:Generated_Source\PSoC5/SPIS_1.c **** * Function Name: SPIS_1_ClearTxBuffer
 899:Generated_Source\PSoC5/SPIS_1.c **** ********************************************************************************
 900:Generated_Source\PSoC5/SPIS_1.c **** *
 901:Generated_Source\PSoC5/SPIS_1.c **** * Summary:
 902:Generated_Source\PSoC5/SPIS_1.c **** *  Clear the TX RAM buffer by setting the read and write pointers both to zero.
 903:Generated_Source\PSoC5/SPIS_1.c **** *
 904:Generated_Source\PSoC5/SPIS_1.c **** * Parameters:
 905:Generated_Source\PSoC5/SPIS_1.c **** *  None.
 906:Generated_Source\PSoC5/SPIS_1.c **** *
 907:Generated_Source\PSoC5/SPIS_1.c **** * Return:
 908:Generated_Source\PSoC5/SPIS_1.c **** *  None.
 909:Generated_Source\PSoC5/SPIS_1.c **** *
 910:Generated_Source\PSoC5/SPIS_1.c **** * Global variables:
 911:Generated_Source\PSoC5/SPIS_1.c **** *  SPIS_1_txBufferWrite - used for the account of the bytes which
 912:Generated_Source\PSoC5/SPIS_1.c **** *  have been written down in the TX software buffer, modified every function
 913:Generated_Source\PSoC5/SPIS_1.c **** *  call - resets to zero.
 914:Generated_Source\PSoC5/SPIS_1.c **** *  SPIS_1_txBufferRead - used for the account of the bytes which
 915:Generated_Source\PSoC5/SPIS_1.c **** *  have been read from the TX software buffer, modified every function call -
 916:Generated_Source\PSoC5/SPIS_1.c **** *  resets to zero.
 917:Generated_Source\PSoC5/SPIS_1.c **** *
ARM GAS  C:\Users\JEFFSN~1\AppData\Local\Temp\ccqfr1aT.s 			page 33


 918:Generated_Source\PSoC5/SPIS_1.c **** * Theory:
 919:Generated_Source\PSoC5/SPIS_1.c **** *  Setting the pointers to zero makes the system believe there is no data to
 920:Generated_Source\PSoC5/SPIS_1.c **** *  read and writing will resume at address 0 overwriting any data that may have
 921:Generated_Source\PSoC5/SPIS_1.c **** *  remained in the RAM.
 922:Generated_Source\PSoC5/SPIS_1.c **** *
 923:Generated_Source\PSoC5/SPIS_1.c **** * Side Effects:
 924:Generated_Source\PSoC5/SPIS_1.c **** *  Any data not yet transmitted from the RAM buffer will be lost when
 925:Generated_Source\PSoC5/SPIS_1.c **** *  overwritten.
 926:Generated_Source\PSoC5/SPIS_1.c **** *
 927:Generated_Source\PSoC5/SPIS_1.c **** * Reentrant:
 928:Generated_Source\PSoC5/SPIS_1.c **** *  No.
 929:Generated_Source\PSoC5/SPIS_1.c **** *
 930:Generated_Source\PSoC5/SPIS_1.c **** *******************************************************************************/
 931:Generated_Source\PSoC5/SPIS_1.c **** void SPIS_1_ClearTxBuffer(void) 
 932:Generated_Source\PSoC5/SPIS_1.c **** {
 907              		.loc 1 932 0
 908              		.cfi_startproc
 909              		@ args = 0, pretend = 0, frame = 8
 910              		@ frame_needed = 1, uses_anonymous_args = 0
 911 0000 80B5     		push	{r7, lr}
 912              		.cfi_def_cfa_offset 8
 913              		.cfi_offset 7, -8
 914              		.cfi_offset 14, -4
 915 0002 82B0     		sub	sp, sp, #8
 916              		.cfi_def_cfa_offset 16
 917 0004 00AF     		add	r7, sp, #0
 918              		.cfi_def_cfa_register 7
 933:Generated_Source\PSoC5/SPIS_1.c ****     uint8 enableInterrupts;
 934:Generated_Source\PSoC5/SPIS_1.c **** 
 935:Generated_Source\PSoC5/SPIS_1.c ****     /* Clear Hardware TX FIFO */
 936:Generated_Source\PSoC5/SPIS_1.c ****     enableInterrupts = CyEnterCriticalSection();
 919              		.loc 1 936 0
 920 0006 FFF7FEFF 		bl	CyEnterCriticalSection
 921 000a 0346     		mov	r3, r0
 922 000c FB71     		strb	r3, [r7, #7]
 937:Generated_Source\PSoC5/SPIS_1.c **** 
 938:Generated_Source\PSoC5/SPIS_1.c ****     #if(SPIS_1_DATA_WIDTH <= 8u)
 939:Generated_Source\PSoC5/SPIS_1.c **** 
 940:Generated_Source\PSoC5/SPIS_1.c ****         /* Clear TX FIFO */
 941:Generated_Source\PSoC5/SPIS_1.c ****         SPIS_1_TX_AUX_CONTROL_DP0_REG |= (uint8)SPIS_1_FIFO_CLR;
 923              		.loc 1 941 0
 924 000e 0C4A     		ldr	r2, .L66
 925 0010 0B4B     		ldr	r3, .L66
 926 0012 1B78     		ldrb	r3, [r3]
 927 0014 DBB2     		uxtb	r3, r3
 928 0016 43F00303 		orr	r3, r3, #3
 929 001a DBB2     		uxtb	r3, r3
 930 001c 1370     		strb	r3, [r2]
 942:Generated_Source\PSoC5/SPIS_1.c ****         SPIS_1_TX_AUX_CONTROL_DP0_REG &= (uint8)~SPIS_1_FIFO_CLR;
 931              		.loc 1 942 0
 932 001e 084A     		ldr	r2, .L66
 933 0020 074B     		ldr	r3, .L66
 934 0022 1B78     		ldrb	r3, [r3]
 935 0024 DBB2     		uxtb	r3, r3
 936 0026 23F00303 		bic	r3, r3, #3
 937 002a DBB2     		uxtb	r3, r3
 938 002c 1370     		strb	r3, [r2]
ARM GAS  C:\Users\JEFFSN~1\AppData\Local\Temp\ccqfr1aT.s 			page 34


 943:Generated_Source\PSoC5/SPIS_1.c **** 
 944:Generated_Source\PSoC5/SPIS_1.c ****     #else
 945:Generated_Source\PSoC5/SPIS_1.c **** 
 946:Generated_Source\PSoC5/SPIS_1.c ****         /* Clear TX FIFO */
 947:Generated_Source\PSoC5/SPIS_1.c ****         SPIS_1_TX_AUX_CONTROL_DP0_REG |= (uint8)SPIS_1_FIFO_CLR;
 948:Generated_Source\PSoC5/SPIS_1.c ****         SPIS_1_TX_AUX_CONTROL_DP0_REG &= (uint8)~SPIS_1_FIFO_CLR;
 949:Generated_Source\PSoC5/SPIS_1.c ****         SPIS_1_TX_AUX_CONTROL_DP1_REG |= (uint8)SPIS_1_FIFO_CLR;
 950:Generated_Source\PSoC5/SPIS_1.c ****         SPIS_1_TX_AUX_CONTROL_DP1_REG &= (uint8)~SPIS_1_FIFO_CLR;
 951:Generated_Source\PSoC5/SPIS_1.c **** 
 952:Generated_Source\PSoC5/SPIS_1.c ****     #endif /* SPIS_1_DATA_WIDTH > 8u */
 953:Generated_Source\PSoC5/SPIS_1.c **** 
 954:Generated_Source\PSoC5/SPIS_1.c ****     CyExitCriticalSection(enableInterrupts);
 939              		.loc 1 954 0
 940 002e FB79     		ldrb	r3, [r7, #7]	@ zero_extendqisi2
 941 0030 1846     		mov	r0, r3
 942 0032 FFF7FEFF 		bl	CyExitCriticalSection
 955:Generated_Source\PSoC5/SPIS_1.c **** 
 956:Generated_Source\PSoC5/SPIS_1.c ****     #if(SPIS_1_TX_SOFTWARE_BUF_ENABLED)
 957:Generated_Source\PSoC5/SPIS_1.c **** 
 958:Generated_Source\PSoC5/SPIS_1.c ****         /* Disable Interrupt to protect variables that could change on interrupt. */
 959:Generated_Source\PSoC5/SPIS_1.c ****         SPIS_1_DisableTxInt();
 960:Generated_Source\PSoC5/SPIS_1.c **** 
 961:Generated_Source\PSoC5/SPIS_1.c ****         SPIS_1_txBufferRead  = 0u;
 962:Generated_Source\PSoC5/SPIS_1.c ****         SPIS_1_txBufferWrite = 0u;
 963:Generated_Source\PSoC5/SPIS_1.c **** 		SPIS_1_txBufferFull  = 0u;
 964:Generated_Source\PSoC5/SPIS_1.c **** 		
 965:Generated_Source\PSoC5/SPIS_1.c ****         /* If Buffer is empty then disable TX FIFO status interrupt */
 966:Generated_Source\PSoC5/SPIS_1.c ****         SPIS_1_TX_STATUS_MASK_REG &= (uint8)~SPIS_1_STS_TX_FIFO_NOT_FULL;
 967:Generated_Source\PSoC5/SPIS_1.c **** 
 968:Generated_Source\PSoC5/SPIS_1.c ****         /* Enable Interrupt. */
 969:Generated_Source\PSoC5/SPIS_1.c ****         SPIS_1_EnableTxInt();
 970:Generated_Source\PSoC5/SPIS_1.c **** 
 971:Generated_Source\PSoC5/SPIS_1.c ****     #endif /* SPIS_1_TX_SOFTWARE_BUF_ENABLED */
 972:Generated_Source\PSoC5/SPIS_1.c **** }
 943              		.loc 1 972 0
 944 0036 00BF     		nop
 945 0038 0837     		adds	r7, r7, #8
 946              		.cfi_def_cfa_offset 8
 947 003a BD46     		mov	sp, r7
 948              		.cfi_def_cfa_register 13
 949              		@ sp needed
 950 003c 80BD     		pop	{r7, pc}
 951              	.L67:
 952 003e 00BF     		.align	2
 953              	.L66:
 954 0040 93640040 		.word	1073767571
 955              		.cfi_endproc
 956              	.LFE18:
 957              		.size	SPIS_1_ClearTxBuffer, .-SPIS_1_ClearTxBuffer
 958              		.section	.text.SPIS_1_PutArray,"ax",%progbits
 959              		.align	2
 960              		.global	SPIS_1_PutArray
 961              		.thumb
 962              		.thumb_func
 963              		.type	SPIS_1_PutArray, %function
 964              	SPIS_1_PutArray:
 965              	.LFB19:
ARM GAS  C:\Users\JEFFSN~1\AppData\Local\Temp\ccqfr1aT.s 			page 35


 973:Generated_Source\PSoC5/SPIS_1.c **** 
 974:Generated_Source\PSoC5/SPIS_1.c **** 
 975:Generated_Source\PSoC5/SPIS_1.c **** #if (SPIS_1_BIDIRECTIONAL_MODE != 0u)
 976:Generated_Source\PSoC5/SPIS_1.c **** 
 977:Generated_Source\PSoC5/SPIS_1.c ****     /*******************************************************************************
 978:Generated_Source\PSoC5/SPIS_1.c ****     * Function Name: SPIS_1_TxEnable
 979:Generated_Source\PSoC5/SPIS_1.c ****     ********************************************************************************
 980:Generated_Source\PSoC5/SPIS_1.c ****     *
 981:Generated_Source\PSoC5/SPIS_1.c ****     * Summary:
 982:Generated_Source\PSoC5/SPIS_1.c ****     *  If the SPI Slave is configured to use a single bi-directional pin then this
 983:Generated_Source\PSoC5/SPIS_1.c ****     *  will set the bi-directional pin to transmit.
 984:Generated_Source\PSoC5/SPIS_1.c ****     *
 985:Generated_Source\PSoC5/SPIS_1.c ****     * Parameters:
 986:Generated_Source\PSoC5/SPIS_1.c ****     *  None.
 987:Generated_Source\PSoC5/SPIS_1.c ****     *
 988:Generated_Source\PSoC5/SPIS_1.c ****     * Return:
 989:Generated_Source\PSoC5/SPIS_1.c ****     *  None.
 990:Generated_Source\PSoC5/SPIS_1.c ****     *
 991:Generated_Source\PSoC5/SPIS_1.c ****     *******************************************************************************/
 992:Generated_Source\PSoC5/SPIS_1.c ****     void SPIS_1_TxEnable(void) 
 993:Generated_Source\PSoC5/SPIS_1.c ****     {
 994:Generated_Source\PSoC5/SPIS_1.c ****             SPIS_1_CONTROL_REG |= SPIS_1_CTRL_TX_SIGNAL_EN;
 995:Generated_Source\PSoC5/SPIS_1.c ****     }
 996:Generated_Source\PSoC5/SPIS_1.c **** 
 997:Generated_Source\PSoC5/SPIS_1.c **** 
 998:Generated_Source\PSoC5/SPIS_1.c ****     /*******************************************************************************
 999:Generated_Source\PSoC5/SPIS_1.c ****     * Function Name: SPIS_1_TxDisable
1000:Generated_Source\PSoC5/SPIS_1.c ****     ********************************************************************************
1001:Generated_Source\PSoC5/SPIS_1.c ****     *
1002:Generated_Source\PSoC5/SPIS_1.c ****     * Summary:
1003:Generated_Source\PSoC5/SPIS_1.c ****     *  If the SPI Slave is configured to use a single bi-directional pin then this
1004:Generated_Source\PSoC5/SPIS_1.c ****     *  will set the bi-directional pin to receive.
1005:Generated_Source\PSoC5/SPIS_1.c ****     *
1006:Generated_Source\PSoC5/SPIS_1.c ****     * Parameters:
1007:Generated_Source\PSoC5/SPIS_1.c ****     *  None.
1008:Generated_Source\PSoC5/SPIS_1.c ****     *
1009:Generated_Source\PSoC5/SPIS_1.c ****     * Return:
1010:Generated_Source\PSoC5/SPIS_1.c ****     *  None.
1011:Generated_Source\PSoC5/SPIS_1.c ****     *
1012:Generated_Source\PSoC5/SPIS_1.c ****     *******************************************************************************/
1013:Generated_Source\PSoC5/SPIS_1.c ****     void SPIS_1_TxDisable(void) 
1014:Generated_Source\PSoC5/SPIS_1.c ****     {
1015:Generated_Source\PSoC5/SPIS_1.c ****             SPIS_1_CONTROL_REG &= (uint8)~SPIS_1_CTRL_TX_SIGNAL_EN;
1016:Generated_Source\PSoC5/SPIS_1.c ****     }
1017:Generated_Source\PSoC5/SPIS_1.c **** 
1018:Generated_Source\PSoC5/SPIS_1.c **** #endif /* SPIS_1_BIDIRECTIONAL_MODE != 0u */
1019:Generated_Source\PSoC5/SPIS_1.c **** 
1020:Generated_Source\PSoC5/SPIS_1.c **** 
1021:Generated_Source\PSoC5/SPIS_1.c **** /*******************************************************************************
1022:Generated_Source\PSoC5/SPIS_1.c **** * Function Name: SPIS_1_PutArray
1023:Generated_Source\PSoC5/SPIS_1.c **** ********************************************************************************
1024:Generated_Source\PSoC5/SPIS_1.c **** *
1025:Generated_Source\PSoC5/SPIS_1.c **** * Summary:
1026:Generated_Source\PSoC5/SPIS_1.c **** *  Write available data from RAM/ROM to the TX buffer while space is available
1027:Generated_Source\PSoC5/SPIS_1.c **** *  in the TX buffer. Keep trying until all data is passed to the TX buffer. If
1028:Generated_Source\PSoC5/SPIS_1.c **** *  used Mode 00 or 01 before PutArray() function should be called
1029:Generated_Source\PSoC5/SPIS_1.c **** *  WriteTxDataZero() function.
ARM GAS  C:\Users\JEFFSN~1\AppData\Local\Temp\ccqfr1aT.s 			page 36


1030:Generated_Source\PSoC5/SPIS_1.c **** *
1031:Generated_Source\PSoC5/SPIS_1.c **** * Parameters:
1032:Generated_Source\PSoC5/SPIS_1.c **** *  *buffer: Pointer to the location in RAM containing the data to send
1033:Generated_Source\PSoC5/SPIS_1.c **** *  byteCount: The number of bytes to move to the transmit buffer.
1034:Generated_Source\PSoC5/SPIS_1.c **** *
1035:Generated_Source\PSoC5/SPIS_1.c **** * Return:
1036:Generated_Source\PSoC5/SPIS_1.c **** *  None.
1037:Generated_Source\PSoC5/SPIS_1.c **** *
1038:Generated_Source\PSoC5/SPIS_1.c **** * Side Effects:
1039:Generated_Source\PSoC5/SPIS_1.c **** *  Will stay in this routine until all data has been sent.  May get locked in
1040:Generated_Source\PSoC5/SPIS_1.c **** *  this loop if data is not being initiated by the master if there is not
1041:Generated_Source\PSoC5/SPIS_1.c **** *  enough room in the TX FIFO.
1042:Generated_Source\PSoC5/SPIS_1.c **** *
1043:Generated_Source\PSoC5/SPIS_1.c **** * Reentrant:
1044:Generated_Source\PSoC5/SPIS_1.c **** *  No.
1045:Generated_Source\PSoC5/SPIS_1.c **** *
1046:Generated_Source\PSoC5/SPIS_1.c **** *******************************************************************************/
1047:Generated_Source\PSoC5/SPIS_1.c **** void SPIS_1_PutArray(const uint8 buffer[], uint8 byteCount)
1048:Generated_Source\PSoC5/SPIS_1.c ****                                                                     
1049:Generated_Source\PSoC5/SPIS_1.c **** {
 966              		.loc 1 1049 0
 967              		.cfi_startproc
 968              		@ args = 0, pretend = 0, frame = 16
 969              		@ frame_needed = 1, uses_anonymous_args = 0
 970 0000 80B5     		push	{r7, lr}
 971              		.cfi_def_cfa_offset 8
 972              		.cfi_offset 7, -8
 973              		.cfi_offset 14, -4
 974 0002 84B0     		sub	sp, sp, #16
 975              		.cfi_def_cfa_offset 24
 976 0004 00AF     		add	r7, sp, #0
 977              		.cfi_def_cfa_register 7
 978 0006 7860     		str	r0, [r7, #4]
 979 0008 0B46     		mov	r3, r1
 980 000a FB70     		strb	r3, [r7, #3]
1050:Generated_Source\PSoC5/SPIS_1.c ****     uint8 bufIndex;
1051:Generated_Source\PSoC5/SPIS_1.c ****     bufIndex = 0u;
 981              		.loc 1 1051 0
 982 000c 0023     		movs	r3, #0
 983 000e FB73     		strb	r3, [r7, #15]
1052:Generated_Source\PSoC5/SPIS_1.c **** 
1053:Generated_Source\PSoC5/SPIS_1.c ****     while(byteCount > 0u)
 984              		.loc 1 1053 0
 985 0010 0CE0     		b	.L69
 986              	.L70:
1054:Generated_Source\PSoC5/SPIS_1.c ****     {
1055:Generated_Source\PSoC5/SPIS_1.c ****         SPIS_1_WriteTxData(buffer[bufIndex]);
 987              		.loc 1 1055 0
 988 0012 FB7B     		ldrb	r3, [r7, #15]	@ zero_extendqisi2
 989 0014 7A68     		ldr	r2, [r7, #4]
 990 0016 1344     		add	r3, r3, r2
 991 0018 1B78     		ldrb	r3, [r3]	@ zero_extendqisi2
 992 001a 1846     		mov	r0, r3
 993 001c FFF7FEFF 		bl	SPIS_1_WriteTxData
1056:Generated_Source\PSoC5/SPIS_1.c ****         bufIndex++;
 994              		.loc 1 1056 0
 995 0020 FB7B     		ldrb	r3, [r7, #15]	@ zero_extendqisi2
ARM GAS  C:\Users\JEFFSN~1\AppData\Local\Temp\ccqfr1aT.s 			page 37


 996 0022 0133     		adds	r3, r3, #1
 997 0024 FB73     		strb	r3, [r7, #15]
1057:Generated_Source\PSoC5/SPIS_1.c ****         byteCount--;
 998              		.loc 1 1057 0
 999 0026 FB78     		ldrb	r3, [r7, #3]	@ zero_extendqisi2
 1000 0028 013B     		subs	r3, r3, #1
 1001 002a FB70     		strb	r3, [r7, #3]
 1002              	.L69:
1053:Generated_Source\PSoC5/SPIS_1.c ****     {
 1003              		.loc 1 1053 0
 1004 002c FB78     		ldrb	r3, [r7, #3]	@ zero_extendqisi2
 1005 002e 002B     		cmp	r3, #0
 1006 0030 EFD1     		bne	.L70
1058:Generated_Source\PSoC5/SPIS_1.c ****     }
1059:Generated_Source\PSoC5/SPIS_1.c **** }
 1007              		.loc 1 1059 0
 1008 0032 00BF     		nop
 1009 0034 1037     		adds	r7, r7, #16
 1010              		.cfi_def_cfa_offset 8
 1011 0036 BD46     		mov	sp, r7
 1012              		.cfi_def_cfa_register 13
 1013              		@ sp needed
 1014 0038 80BD     		pop	{r7, pc}
 1015              		.cfi_endproc
 1016              	.LFE19:
 1017              		.size	SPIS_1_PutArray, .-SPIS_1_PutArray
 1018 003a 00BF     		.section	.text.SPIS_1_ClearFIFO,"ax",%progbits
 1019              		.align	2
 1020              		.global	SPIS_1_ClearFIFO
 1021              		.thumb
 1022              		.thumb_func
 1023              		.type	SPIS_1_ClearFIFO, %function
 1024              	SPIS_1_ClearFIFO:
 1025              	.LFB20:
1060:Generated_Source\PSoC5/SPIS_1.c **** 
1061:Generated_Source\PSoC5/SPIS_1.c **** 
1062:Generated_Source\PSoC5/SPIS_1.c **** /*******************************************************************************
1063:Generated_Source\PSoC5/SPIS_1.c **** * Function Name: SPIS_1_ClearFIFO
1064:Generated_Source\PSoC5/SPIS_1.c **** ********************************************************************************
1065:Generated_Source\PSoC5/SPIS_1.c **** *
1066:Generated_Source\PSoC5/SPIS_1.c **** * Summary:
1067:Generated_Source\PSoC5/SPIS_1.c **** *  Clear the RX and TX FIFO's of all data for a fresh start.
1068:Generated_Source\PSoC5/SPIS_1.c **** *
1069:Generated_Source\PSoC5/SPIS_1.c **** * Parameters:
1070:Generated_Source\PSoC5/SPIS_1.c **** *  None.
1071:Generated_Source\PSoC5/SPIS_1.c **** *
1072:Generated_Source\PSoC5/SPIS_1.c **** * Return:
1073:Generated_Source\PSoC5/SPIS_1.c **** *  None.
1074:Generated_Source\PSoC5/SPIS_1.c **** *
1075:Generated_Source\PSoC5/SPIS_1.c **** * Side Effects:
1076:Generated_Source\PSoC5/SPIS_1.c **** *  Clear status register of the component.
1077:Generated_Source\PSoC5/SPIS_1.c **** *
1078:Generated_Source\PSoC5/SPIS_1.c **** *******************************************************************************/
1079:Generated_Source\PSoC5/SPIS_1.c **** void SPIS_1_ClearFIFO(void) 
1080:Generated_Source\PSoC5/SPIS_1.c **** {
 1026              		.loc 1 1080 0
 1027              		.cfi_startproc
ARM GAS  C:\Users\JEFFSN~1\AppData\Local\Temp\ccqfr1aT.s 			page 38


 1028              		@ args = 0, pretend = 0, frame = 8
 1029              		@ frame_needed = 1, uses_anonymous_args = 0
 1030 0000 80B5     		push	{r7, lr}
 1031              		.cfi_def_cfa_offset 8
 1032              		.cfi_offset 7, -8
 1033              		.cfi_offset 14, -4
 1034 0002 82B0     		sub	sp, sp, #8
 1035              		.cfi_def_cfa_offset 16
 1036 0004 00AF     		add	r7, sp, #0
 1037              		.cfi_def_cfa_register 7
1081:Generated_Source\PSoC5/SPIS_1.c ****     uint8 enableInterrupts;
1082:Generated_Source\PSoC5/SPIS_1.c **** 
1083:Generated_Source\PSoC5/SPIS_1.c ****     while((SPIS_1_RX_STATUS_REG & SPIS_1_STS_RX_FIFO_NOT_EMPTY) != 0u)
 1038              		.loc 1 1083 0
 1039 0006 01E0     		b	.L72
 1040              	.L73:
1084:Generated_Source\PSoC5/SPIS_1.c ****     {
1085:Generated_Source\PSoC5/SPIS_1.c ****         CY_GET_REG8(SPIS_1_RXDATA_PTR);
 1041              		.loc 1 1085 0
 1042 0008 124B     		ldr	r3, .L74
 1043 000a 1B78     		ldrb	r3, [r3]
 1044              	.L72:
1083:Generated_Source\PSoC5/SPIS_1.c ****     {
 1045              		.loc 1 1083 0
 1046 000c 124B     		ldr	r3, .L74+4
 1047 000e 1B78     		ldrb	r3, [r3]
 1048 0010 DBB2     		uxtb	r3, r3
 1049 0012 03F00803 		and	r3, r3, #8
 1050 0016 002B     		cmp	r3, #0
 1051 0018 F6D1     		bne	.L73
1086:Generated_Source\PSoC5/SPIS_1.c ****     }
1087:Generated_Source\PSoC5/SPIS_1.c **** 
1088:Generated_Source\PSoC5/SPIS_1.c ****     enableInterrupts = CyEnterCriticalSection();
 1052              		.loc 1 1088 0
 1053 001a FFF7FEFF 		bl	CyEnterCriticalSection
 1054 001e 0346     		mov	r3, r0
 1055 0020 FB71     		strb	r3, [r7, #7]
1089:Generated_Source\PSoC5/SPIS_1.c **** 
1090:Generated_Source\PSoC5/SPIS_1.c ****     #if(SPIS_1_DATA_WIDTH <= 8u)
1091:Generated_Source\PSoC5/SPIS_1.c **** 
1092:Generated_Source\PSoC5/SPIS_1.c ****         /* Clear TX FIFO */
1093:Generated_Source\PSoC5/SPIS_1.c ****         SPIS_1_TX_AUX_CONTROL_DP0_REG |= (uint8)SPIS_1_FIFO_CLR;
 1056              		.loc 1 1093 0
 1057 0022 0E4A     		ldr	r2, .L74+8
 1058 0024 0D4B     		ldr	r3, .L74+8
 1059 0026 1B78     		ldrb	r3, [r3]
 1060 0028 DBB2     		uxtb	r3, r3
 1061 002a 43F00303 		orr	r3, r3, #3
 1062 002e DBB2     		uxtb	r3, r3
 1063 0030 1370     		strb	r3, [r2]
1094:Generated_Source\PSoC5/SPIS_1.c ****         SPIS_1_TX_AUX_CONTROL_DP0_REG &= (uint8)~SPIS_1_FIFO_CLR;
 1064              		.loc 1 1094 0
 1065 0032 0A4A     		ldr	r2, .L74+8
 1066 0034 094B     		ldr	r3, .L74+8
 1067 0036 1B78     		ldrb	r3, [r3]
 1068 0038 DBB2     		uxtb	r3, r3
 1069 003a 23F00303 		bic	r3, r3, #3
ARM GAS  C:\Users\JEFFSN~1\AppData\Local\Temp\ccqfr1aT.s 			page 39


 1070 003e DBB2     		uxtb	r3, r3
 1071 0040 1370     		strb	r3, [r2]
1095:Generated_Source\PSoC5/SPIS_1.c **** 
1096:Generated_Source\PSoC5/SPIS_1.c ****     #else
1097:Generated_Source\PSoC5/SPIS_1.c **** 
1098:Generated_Source\PSoC5/SPIS_1.c ****         /* Clear TX FIFO */
1099:Generated_Source\PSoC5/SPIS_1.c ****         SPIS_1_TX_AUX_CONTROL_DP0_REG |= (uint8)SPIS_1_FIFO_CLR;
1100:Generated_Source\PSoC5/SPIS_1.c ****         SPIS_1_TX_AUX_CONTROL_DP0_REG &= (uint8)~SPIS_1_FIFO_CLR;
1101:Generated_Source\PSoC5/SPIS_1.c ****         SPIS_1_TX_AUX_CONTROL_DP1_REG |= (uint8)SPIS_1_FIFO_CLR;
1102:Generated_Source\PSoC5/SPIS_1.c ****         SPIS_1_TX_AUX_CONTROL_DP1_REG &= (uint8)~SPIS_1_FIFO_CLR;
1103:Generated_Source\PSoC5/SPIS_1.c **** 
1104:Generated_Source\PSoC5/SPIS_1.c ****     #endif /* SPIS_1_DATA_WIDTH <= 8u */
1105:Generated_Source\PSoC5/SPIS_1.c **** 
1106:Generated_Source\PSoC5/SPIS_1.c ****     CyExitCriticalSection(enableInterrupts);
 1072              		.loc 1 1106 0
 1073 0042 FB79     		ldrb	r3, [r7, #7]	@ zero_extendqisi2
 1074 0044 1846     		mov	r0, r3
 1075 0046 FFF7FEFF 		bl	CyExitCriticalSection
1107:Generated_Source\PSoC5/SPIS_1.c **** }
 1076              		.loc 1 1107 0
 1077 004a 00BF     		nop
 1078 004c 0837     		adds	r7, r7, #8
 1079              		.cfi_def_cfa_offset 8
 1080 004e BD46     		mov	sp, r7
 1081              		.cfi_def_cfa_register 13
 1082              		@ sp needed
 1083 0050 80BD     		pop	{r7, pc}
 1084              	.L75:
 1085 0052 00BF     		.align	2
 1086              	.L74:
 1087 0054 53640040 		.word	1073767507
 1088 0058 64650040 		.word	1073767780
 1089 005c 93640040 		.word	1073767571
 1090              		.cfi_endproc
 1091              	.LFE20:
 1092              		.size	SPIS_1_ClearFIFO, .-SPIS_1_ClearFIFO
 1093              		.section	.text.SPIS_1_EnableInt,"ax",%progbits
 1094              		.align	2
 1095              		.global	SPIS_1_EnableInt
 1096              		.thumb
 1097              		.thumb_func
 1098              		.type	SPIS_1_EnableInt, %function
 1099              	SPIS_1_EnableInt:
 1100              	.LFB21:
1108:Generated_Source\PSoC5/SPIS_1.c **** 
1109:Generated_Source\PSoC5/SPIS_1.c **** 
1110:Generated_Source\PSoC5/SPIS_1.c **** /* Following functions are for version Compatibility, they are obsolete.
1111:Generated_Source\PSoC5/SPIS_1.c **** *  Please do not use it in new projects.
1112:Generated_Source\PSoC5/SPIS_1.c **** */
1113:Generated_Source\PSoC5/SPIS_1.c **** 
1114:Generated_Source\PSoC5/SPIS_1.c **** 
1115:Generated_Source\PSoC5/SPIS_1.c **** /*******************************************************************************
1116:Generated_Source\PSoC5/SPIS_1.c **** * Function Name: SPIS_1_EnableInt
1117:Generated_Source\PSoC5/SPIS_1.c **** ********************************************************************************
1118:Generated_Source\PSoC5/SPIS_1.c **** *
1119:Generated_Source\PSoC5/SPIS_1.c **** * Summary:
1120:Generated_Source\PSoC5/SPIS_1.c **** *  Enable internal interrupt generation.
ARM GAS  C:\Users\JEFFSN~1\AppData\Local\Temp\ccqfr1aT.s 			page 40


1121:Generated_Source\PSoC5/SPIS_1.c **** *
1122:Generated_Source\PSoC5/SPIS_1.c **** * Parameters:
1123:Generated_Source\PSoC5/SPIS_1.c **** *  None.
1124:Generated_Source\PSoC5/SPIS_1.c **** *
1125:Generated_Source\PSoC5/SPIS_1.c **** * Return:
1126:Generated_Source\PSoC5/SPIS_1.c **** *  None.
1127:Generated_Source\PSoC5/SPIS_1.c **** *
1128:Generated_Source\PSoC5/SPIS_1.c **** * Theory:
1129:Generated_Source\PSoC5/SPIS_1.c **** *  Enable the internal interrupt output -or- the interrupt component itself.
1130:Generated_Source\PSoC5/SPIS_1.c **** *
1131:Generated_Source\PSoC5/SPIS_1.c **** *******************************************************************************/
1132:Generated_Source\PSoC5/SPIS_1.c **** void SPIS_1_EnableInt(void) 
1133:Generated_Source\PSoC5/SPIS_1.c **** {
 1101              		.loc 1 1133 0
 1102              		.cfi_startproc
 1103              		@ args = 0, pretend = 0, frame = 0
 1104              		@ frame_needed = 1, uses_anonymous_args = 0
 1105              		@ link register save eliminated.
 1106 0000 80B4     		push	{r7}
 1107              		.cfi_def_cfa_offset 4
 1108              		.cfi_offset 7, -4
 1109 0002 00AF     		add	r7, sp, #0
 1110              		.cfi_def_cfa_register 7
1134:Generated_Source\PSoC5/SPIS_1.c ****     #if(SPIS_1_INTERNAL_TX_INT_ENABLED)
1135:Generated_Source\PSoC5/SPIS_1.c ****         CyIntEnable(SPIS_1_TX_ISR_NUMBER);
1136:Generated_Source\PSoC5/SPIS_1.c ****     #endif /* SPIS_1_INTERNAL_TX_INT_ENABLED */
1137:Generated_Source\PSoC5/SPIS_1.c **** 
1138:Generated_Source\PSoC5/SPIS_1.c ****     #if(SPIS_1_INTERNAL_RX_INT_ENABLED)
1139:Generated_Source\PSoC5/SPIS_1.c ****         CyIntEnable(SPIS_1_RX_ISR_NUMBER);
 1111              		.loc 1 1139 0
 1112 0004 034B     		ldr	r3, .L77
 1113 0006 0222     		movs	r2, #2
 1114 0008 1A60     		str	r2, [r3]
1140:Generated_Source\PSoC5/SPIS_1.c ****     #endif /* SPIS_1_INTERNAL_RX_INT_ENABLED */
1141:Generated_Source\PSoC5/SPIS_1.c **** }
 1115              		.loc 1 1141 0
 1116 000a 00BF     		nop
 1117 000c BD46     		mov	sp, r7
 1118              		.cfi_def_cfa_register 13
 1119              		@ sp needed
 1120 000e 80BC     		pop	{r7}
 1121              		.cfi_restore 7
 1122              		.cfi_def_cfa_offset 0
 1123 0010 7047     		bx	lr
 1124              	.L78:
 1125 0012 00BF     		.align	2
 1126              	.L77:
 1127 0014 00E100E0 		.word	-536813312
 1128              		.cfi_endproc
 1129              	.LFE21:
 1130              		.size	SPIS_1_EnableInt, .-SPIS_1_EnableInt
 1131              		.section	.text.SPIS_1_DisableInt,"ax",%progbits
 1132              		.align	2
 1133              		.global	SPIS_1_DisableInt
 1134              		.thumb
 1135              		.thumb_func
 1136              		.type	SPIS_1_DisableInt, %function
ARM GAS  C:\Users\JEFFSN~1\AppData\Local\Temp\ccqfr1aT.s 			page 41


 1137              	SPIS_1_DisableInt:
 1138              	.LFB22:
1142:Generated_Source\PSoC5/SPIS_1.c **** 
1143:Generated_Source\PSoC5/SPIS_1.c **** 
1144:Generated_Source\PSoC5/SPIS_1.c **** /*******************************************************************************
1145:Generated_Source\PSoC5/SPIS_1.c **** * Function Name: SPIS_1_DisableInt
1146:Generated_Source\PSoC5/SPIS_1.c **** ********************************************************************************
1147:Generated_Source\PSoC5/SPIS_1.c **** *
1148:Generated_Source\PSoC5/SPIS_1.c **** * Summary:
1149:Generated_Source\PSoC5/SPIS_1.c **** *  Disable internal interrupt generation.
1150:Generated_Source\PSoC5/SPIS_1.c **** *
1151:Generated_Source\PSoC5/SPIS_1.c **** * Parameters:
1152:Generated_Source\PSoC5/SPIS_1.c **** *  None.
1153:Generated_Source\PSoC5/SPIS_1.c **** *
1154:Generated_Source\PSoC5/SPIS_1.c **** * Return:
1155:Generated_Source\PSoC5/SPIS_1.c **** *  None.
1156:Generated_Source\PSoC5/SPIS_1.c **** *
1157:Generated_Source\PSoC5/SPIS_1.c **** * Theory:
1158:Generated_Source\PSoC5/SPIS_1.c **** *  Disable the internal interrupt output -or- the interrupt component itself.
1159:Generated_Source\PSoC5/SPIS_1.c **** *
1160:Generated_Source\PSoC5/SPIS_1.c **** *******************************************************************************/
1161:Generated_Source\PSoC5/SPIS_1.c **** void SPIS_1_DisableInt(void) 
1162:Generated_Source\PSoC5/SPIS_1.c **** {
 1139              		.loc 1 1162 0
 1140              		.cfi_startproc
 1141              		@ args = 0, pretend = 0, frame = 0
 1142              		@ frame_needed = 1, uses_anonymous_args = 0
 1143              		@ link register save eliminated.
 1144 0000 80B4     		push	{r7}
 1145              		.cfi_def_cfa_offset 4
 1146              		.cfi_offset 7, -4
 1147 0002 00AF     		add	r7, sp, #0
 1148              		.cfi_def_cfa_register 7
1163:Generated_Source\PSoC5/SPIS_1.c ****     #if(SPIS_1_INTERNAL_TX_INT_ENABLED)
1164:Generated_Source\PSoC5/SPIS_1.c ****         CyIntDisable(SPIS_1_TX_ISR_NUMBER);
1165:Generated_Source\PSoC5/SPIS_1.c ****     #endif /* SPIS_1_INTERNAL_TX_INT_ENABLED */
1166:Generated_Source\PSoC5/SPIS_1.c **** 
1167:Generated_Source\PSoC5/SPIS_1.c ****     #if(SPIS_1_INTERNAL_RX_INT_ENABLED)
1168:Generated_Source\PSoC5/SPIS_1.c ****         CyIntDisable(SPIS_1_RX_ISR_NUMBER);
 1149              		.loc 1 1168 0
 1150 0004 034B     		ldr	r3, .L80
 1151 0006 0222     		movs	r2, #2
 1152 0008 1A60     		str	r2, [r3]
1169:Generated_Source\PSoC5/SPIS_1.c ****     #endif /* SPIS_1_INTERNAL_RX_INT_ENABLED */
1170:Generated_Source\PSoC5/SPIS_1.c **** }
 1153              		.loc 1 1170 0
 1154 000a 00BF     		nop
 1155 000c BD46     		mov	sp, r7
 1156              		.cfi_def_cfa_register 13
 1157              		@ sp needed
 1158 000e 80BC     		pop	{r7}
 1159              		.cfi_restore 7
 1160              		.cfi_def_cfa_offset 0
 1161 0010 7047     		bx	lr
 1162              	.L81:
 1163 0012 00BF     		.align	2
 1164              	.L80:
ARM GAS  C:\Users\JEFFSN~1\AppData\Local\Temp\ccqfr1aT.s 			page 42


 1165 0014 80E100E0 		.word	-536813184
 1166              		.cfi_endproc
 1167              	.LFE22:
 1168              		.size	SPIS_1_DisableInt, .-SPIS_1_DisableInt
 1169              		.section	.text.SPIS_1_SetInterruptMode,"ax",%progbits
 1170              		.align	2
 1171              		.global	SPIS_1_SetInterruptMode
 1172              		.thumb
 1173              		.thumb_func
 1174              		.type	SPIS_1_SetInterruptMode, %function
 1175              	SPIS_1_SetInterruptMode:
 1176              	.LFB23:
1171:Generated_Source\PSoC5/SPIS_1.c **** 
1172:Generated_Source\PSoC5/SPIS_1.c **** 
1173:Generated_Source\PSoC5/SPIS_1.c **** /*******************************************************************************
1174:Generated_Source\PSoC5/SPIS_1.c **** * Function Name: SPIS_1_SetInterruptMode
1175:Generated_Source\PSoC5/SPIS_1.c **** ********************************************************************************
1176:Generated_Source\PSoC5/SPIS_1.c **** *
1177:Generated_Source\PSoC5/SPIS_1.c **** * Summary:
1178:Generated_Source\PSoC5/SPIS_1.c **** *  Configure which status bits trigger an interrupt event.
1179:Generated_Source\PSoC5/SPIS_1.c **** *
1180:Generated_Source\PSoC5/SPIS_1.c **** * Parameters:
1181:Generated_Source\PSoC5/SPIS_1.c **** *  intSrc: An or'd combination of the desired status bit masks (defined in the
1182:Generated_Source\PSoC5/SPIS_1.c **** *  header file).
1183:Generated_Source\PSoC5/SPIS_1.c **** *
1184:Generated_Source\PSoC5/SPIS_1.c **** * Return:
1185:Generated_Source\PSoC5/SPIS_1.c **** *  None.
1186:Generated_Source\PSoC5/SPIS_1.c **** *
1187:Generated_Source\PSoC5/SPIS_1.c **** * Theory:
1188:Generated_Source\PSoC5/SPIS_1.c **** *  Enables the output of specific status bits to the interrupt controller.
1189:Generated_Source\PSoC5/SPIS_1.c **** *
1190:Generated_Source\PSoC5/SPIS_1.c **** *******************************************************************************/
1191:Generated_Source\PSoC5/SPIS_1.c **** void SPIS_1_SetInterruptMode(uint8 intSrc) 
1192:Generated_Source\PSoC5/SPIS_1.c **** {
 1177              		.loc 1 1192 0
 1178              		.cfi_startproc
 1179              		@ args = 0, pretend = 0, frame = 8
 1180              		@ frame_needed = 1, uses_anonymous_args = 0
 1181              		@ link register save eliminated.
 1182 0000 80B4     		push	{r7}
 1183              		.cfi_def_cfa_offset 4
 1184              		.cfi_offset 7, -4
 1185 0002 83B0     		sub	sp, sp, #12
 1186              		.cfi_def_cfa_offset 16
 1187 0004 00AF     		add	r7, sp, #0
 1188              		.cfi_def_cfa_register 7
 1189 0006 0346     		mov	r3, r0
 1190 0008 FB71     		strb	r3, [r7, #7]
1193:Generated_Source\PSoC5/SPIS_1.c ****     SPIS_1_TX_STATUS_MASK_REG  = intSrc;
 1191              		.loc 1 1193 0
 1192 000a 054A     		ldr	r2, .L83
 1193 000c FB79     		ldrb	r3, [r7, #7]
 1194 000e 1370     		strb	r3, [r2]
1194:Generated_Source\PSoC5/SPIS_1.c ****     SPIS_1_RX_STATUS_MASK_REG  = intSrc;
 1195              		.loc 1 1194 0
 1196 0010 044A     		ldr	r2, .L83+4
 1197 0012 FB79     		ldrb	r3, [r7, #7]
ARM GAS  C:\Users\JEFFSN~1\AppData\Local\Temp\ccqfr1aT.s 			page 43


 1198 0014 1370     		strb	r3, [r2]
1195:Generated_Source\PSoC5/SPIS_1.c **** }
 1199              		.loc 1 1195 0
 1200 0016 00BF     		nop
 1201 0018 0C37     		adds	r7, r7, #12
 1202              		.cfi_def_cfa_offset 4
 1203 001a BD46     		mov	sp, r7
 1204              		.cfi_def_cfa_register 13
 1205              		@ sp needed
 1206 001c 80BC     		pop	{r7}
 1207              		.cfi_restore 7
 1208              		.cfi_def_cfa_offset 0
 1209 001e 7047     		bx	lr
 1210              	.L84:
 1211              		.align	2
 1212              	.L83:
 1213 0020 84640040 		.word	1073767556
 1214 0024 84650040 		.word	1073767812
 1215              		.cfi_endproc
 1216              	.LFE23:
 1217              		.size	SPIS_1_SetInterruptMode, .-SPIS_1_SetInterruptMode
 1218              		.section	.text.SPIS_1_ReadStatus,"ax",%progbits
 1219              		.align	2
 1220              		.global	SPIS_1_ReadStatus
 1221              		.thumb
 1222              		.thumb_func
 1223              		.type	SPIS_1_ReadStatus, %function
 1224              	SPIS_1_ReadStatus:
 1225              	.LFB24:
1196:Generated_Source\PSoC5/SPIS_1.c **** 
1197:Generated_Source\PSoC5/SPIS_1.c **** 
1198:Generated_Source\PSoC5/SPIS_1.c **** /*******************************************************************************
1199:Generated_Source\PSoC5/SPIS_1.c **** * Function Name: SPIS_1_ReadStatus
1200:Generated_Source\PSoC5/SPIS_1.c **** ********************************************************************************
1201:Generated_Source\PSoC5/SPIS_1.c **** *
1202:Generated_Source\PSoC5/SPIS_1.c **** * Summary:
1203:Generated_Source\PSoC5/SPIS_1.c **** *  Read the status register for the component.
1204:Generated_Source\PSoC5/SPIS_1.c **** *
1205:Generated_Source\PSoC5/SPIS_1.c **** * Parameters:
1206:Generated_Source\PSoC5/SPIS_1.c **** *  None.
1207:Generated_Source\PSoC5/SPIS_1.c **** *
1208:Generated_Source\PSoC5/SPIS_1.c **** * Return:
1209:Generated_Source\PSoC5/SPIS_1.c **** *  Contents of the status register.
1210:Generated_Source\PSoC5/SPIS_1.c **** *
1211:Generated_Source\PSoC5/SPIS_1.c **** * Global variables:
1212:Generated_Source\PSoC5/SPIS_1.c **** *  SPIS_1_swStatus - used to store in software status register,
1213:Generated_Source\PSoC5/SPIS_1.c **** *  modified every function call - resets to zero.
1214:Generated_Source\PSoC5/SPIS_1.c **** *
1215:Generated_Source\PSoC5/SPIS_1.c **** * Theory:
1216:Generated_Source\PSoC5/SPIS_1.c **** *  Allows the user and the API to read the status register for error detection
1217:Generated_Source\PSoC5/SPIS_1.c **** *  and flow control.
1218:Generated_Source\PSoC5/SPIS_1.c **** *
1219:Generated_Source\PSoC5/SPIS_1.c **** * Side Effects:
1220:Generated_Source\PSoC5/SPIS_1.c **** *  Clear status register of the component.
1221:Generated_Source\PSoC5/SPIS_1.c **** *
1222:Generated_Source\PSoC5/SPIS_1.c **** * Reentrant:
1223:Generated_Source\PSoC5/SPIS_1.c **** *  No.
ARM GAS  C:\Users\JEFFSN~1\AppData\Local\Temp\ccqfr1aT.s 			page 44


1224:Generated_Source\PSoC5/SPIS_1.c **** *
1225:Generated_Source\PSoC5/SPIS_1.c **** *******************************************************************************/
1226:Generated_Source\PSoC5/SPIS_1.c **** uint8 SPIS_1_ReadStatus(void) 
1227:Generated_Source\PSoC5/SPIS_1.c **** {
 1226              		.loc 1 1227 0
 1227              		.cfi_startproc
 1228              		@ args = 0, pretend = 0, frame = 8
 1229              		@ frame_needed = 1, uses_anonymous_args = 0
 1230              		@ link register save eliminated.
 1231 0000 80B4     		push	{r7}
 1232              		.cfi_def_cfa_offset 4
 1233              		.cfi_offset 7, -4
 1234 0002 83B0     		sub	sp, sp, #12
 1235              		.cfi_def_cfa_offset 16
 1236 0004 00AF     		add	r7, sp, #0
 1237              		.cfi_def_cfa_register 7
1228:Generated_Source\PSoC5/SPIS_1.c ****     uint8 tmpStatus;
1229:Generated_Source\PSoC5/SPIS_1.c **** 
1230:Generated_Source\PSoC5/SPIS_1.c ****     #if ((SPIS_1_TX_SOFTWARE_BUF_ENABLED) || (SPIS_1_RX_SOFTWARE_BUF_ENABLED))
1231:Generated_Source\PSoC5/SPIS_1.c **** 
1232:Generated_Source\PSoC5/SPIS_1.c ****         SPIS_1_DisableInt();
1233:Generated_Source\PSoC5/SPIS_1.c **** 
1234:Generated_Source\PSoC5/SPIS_1.c ****         tmpStatus = SPIS_1_GET_STATUS_TX(SPIS_1_swStatusTx) |
1235:Generated_Source\PSoC5/SPIS_1.c ****               (SPIS_1_GET_STATUS_RX(SPIS_1_swStatusRx) & (uint8)~SPIS_1_STS_RX_FIFO_FULL);
1236:Generated_Source\PSoC5/SPIS_1.c **** 
1237:Generated_Source\PSoC5/SPIS_1.c ****         SPIS_1_swStatusTx = 0u;
1238:Generated_Source\PSoC5/SPIS_1.c ****         SPIS_1_swStatusRx = 0u;
1239:Generated_Source\PSoC5/SPIS_1.c **** 
1240:Generated_Source\PSoC5/SPIS_1.c ****         /* Enable Interrupts */
1241:Generated_Source\PSoC5/SPIS_1.c ****         SPIS_1_EnableInt();
1242:Generated_Source\PSoC5/SPIS_1.c **** 
1243:Generated_Source\PSoC5/SPIS_1.c ****     #else /* !((SPIS_1_TX_SOFTWARE_BUF_ENABLED) || (SPIS_1_RX_SOFTWARE_BUF_ENABLED)) */
1244:Generated_Source\PSoC5/SPIS_1.c **** 
1245:Generated_Source\PSoC5/SPIS_1.c ****         tmpStatus = SPIS_1_TX_STATUS_REG | (SPIS_1_RX_STATUS_REG &
 1238              		.loc 1 1245 0
 1239 0006 0A4B     		ldr	r3, .L87
 1240 0008 1B78     		ldrb	r3, [r3]
 1241 000a DBB2     		uxtb	r3, r3
 1242 000c 5AB2     		sxtb	r2, r3
 1243 000e 094B     		ldr	r3, .L87+4
 1244 0010 1B78     		ldrb	r3, [r3]
 1245 0012 DBB2     		uxtb	r3, r3
 1246 0014 5BB2     		sxtb	r3, r3
 1247 0016 23F04003 		bic	r3, r3, #64
 1248 001a 5BB2     		sxtb	r3, r3
 1249 001c 1343     		orrs	r3, r3, r2
 1250 001e 5BB2     		sxtb	r3, r3
 1251 0020 FB71     		strb	r3, [r7, #7]
1246:Generated_Source\PSoC5/SPIS_1.c ****                                                       (uint8)~SPIS_1_STS_RX_FIFO_FULL);
1247:Generated_Source\PSoC5/SPIS_1.c **** 
1248:Generated_Source\PSoC5/SPIS_1.c ****     #endif /* (SPIS_1_TX_SOFTWARE_BUF_ENABLED) || (SPIS_1_RX_SOFTWARE_BUF_ENABLED) */
1249:Generated_Source\PSoC5/SPIS_1.c **** 
1250:Generated_Source\PSoC5/SPIS_1.c ****     return(tmpStatus);
 1252              		.loc 1 1250 0
 1253 0022 FB79     		ldrb	r3, [r7, #7]	@ zero_extendqisi2
1251:Generated_Source\PSoC5/SPIS_1.c **** }
 1254              		.loc 1 1251 0
ARM GAS  C:\Users\JEFFSN~1\AppData\Local\Temp\ccqfr1aT.s 			page 45


 1255 0024 1846     		mov	r0, r3
 1256 0026 0C37     		adds	r7, r7, #12
 1257              		.cfi_def_cfa_offset 4
 1258 0028 BD46     		mov	sp, r7
 1259              		.cfi_def_cfa_register 13
 1260              		@ sp needed
 1261 002a 80BC     		pop	{r7}
 1262              		.cfi_restore 7
 1263              		.cfi_def_cfa_offset 0
 1264 002c 7047     		bx	lr
 1265              	.L88:
 1266 002e 00BF     		.align	2
 1267              	.L87:
 1268 0030 64640040 		.word	1073767524
 1269 0034 64650040 		.word	1073767780
 1270              		.cfi_endproc
 1271              	.LFE24:
 1272              		.size	SPIS_1_ReadStatus, .-SPIS_1_ReadStatus
 1273              		.text
 1274              	.Letext0:
 1275              		.file 2 "Generated_Source\\PSoC5\\cytypes.h"