ARM GAS  C:\Users\JEFFSN~1\AppData\Local\Temp\ccuhjQR3.s 			page 1


   1              		.syntax unified
   2              		.cpu cortex-m3
   3              		.fpu softvfp
   4              		.eabi_attribute 20, 1
   5              		.eabi_attribute 21, 1
   6              		.eabi_attribute 23, 3
   7              		.eabi_attribute 24, 1
   8              		.eabi_attribute 25, 1
   9              		.eabi_attribute 26, 1
  10              		.eabi_attribute 30, 6
  11              		.eabi_attribute 34, 1
  12              		.eabi_attribute 18, 4
  13              		.thumb
  14              		.syntax unified
  15              		.file	"ADC_SAR_Seq_1_SAR.c"
  16              		.text
  17              	.Ltext0:
  18              		.cfi_sections	.debug_frame
  19              		.global	ADC_SAR_Seq_1_SAR_initVar
  20              		.bss
  21              		.type	ADC_SAR_Seq_1_SAR_initVar, %object
  22              		.size	ADC_SAR_Seq_1_SAR_initVar, 1
  23              	ADC_SAR_Seq_1_SAR_initVar:
  24 0000 00       		.space	1
  25              		.comm	ADC_SAR_Seq_1_SAR_offset,2,2
  26              		.comm	ADC_SAR_Seq_1_SAR_countsPerVolt,2,2
  27              		.comm	ADC_SAR_Seq_1_SAR_countsPer10Volt,4,4
  28              		.comm	ADC_SAR_Seq_1_SAR_shift,2,2
  29              		.section	.text.ADC_SAR_Seq_1_SAR_Start,"ax",%progbits
  30              		.align	2
  31              		.global	ADC_SAR_Seq_1_SAR_Start
  32              		.thumb
  33              		.thumb_func
  34              		.type	ADC_SAR_Seq_1_SAR_Start, %function
  35              	ADC_SAR_Seq_1_SAR_Start:
  36              	.LFB0:
  37              		.file 1 "Generated_Source\\PSoC5\\ADC_SAR_Seq_1_SAR.c"
   1:Generated_Source\PSoC5/ADC_SAR_Seq_1_SAR.c **** /*******************************************************************************
   2:Generated_Source\PSoC5/ADC_SAR_Seq_1_SAR.c **** * File Name: ADC_SAR_Seq_1_SAR.c
   3:Generated_Source\PSoC5/ADC_SAR_Seq_1_SAR.c **** * Version 3.10
   4:Generated_Source\PSoC5/ADC_SAR_Seq_1_SAR.c **** *
   5:Generated_Source\PSoC5/ADC_SAR_Seq_1_SAR.c **** * Description:
   6:Generated_Source\PSoC5/ADC_SAR_Seq_1_SAR.c **** *  This file provides the source code to the API for the Successive
   7:Generated_Source\PSoC5/ADC_SAR_Seq_1_SAR.c **** *  approximation ADC Component.
   8:Generated_Source\PSoC5/ADC_SAR_Seq_1_SAR.c **** *
   9:Generated_Source\PSoC5/ADC_SAR_Seq_1_SAR.c **** * Note:
  10:Generated_Source\PSoC5/ADC_SAR_Seq_1_SAR.c **** *
  11:Generated_Source\PSoC5/ADC_SAR_Seq_1_SAR.c **** ********************************************************************************
  12:Generated_Source\PSoC5/ADC_SAR_Seq_1_SAR.c **** * Copyright 2008-2015, Cypress Semiconductor Corporation.  All rights reserved.
  13:Generated_Source\PSoC5/ADC_SAR_Seq_1_SAR.c **** * You may use this file only in accordance with the license, terms, conditions,
  14:Generated_Source\PSoC5/ADC_SAR_Seq_1_SAR.c **** * disclaimers, and limitations in the end user license agreement accompanying
  15:Generated_Source\PSoC5/ADC_SAR_Seq_1_SAR.c **** * the software package with which this file was provided.
  16:Generated_Source\PSoC5/ADC_SAR_Seq_1_SAR.c **** *******************************************************************************/
  17:Generated_Source\PSoC5/ADC_SAR_Seq_1_SAR.c **** 
  18:Generated_Source\PSoC5/ADC_SAR_Seq_1_SAR.c **** #include "CyLib.h"
  19:Generated_Source\PSoC5/ADC_SAR_Seq_1_SAR.c **** #include "ADC_SAR_Seq_1_SAR.h"
  20:Generated_Source\PSoC5/ADC_SAR_Seq_1_SAR.c **** 
ARM GAS  C:\Users\JEFFSN~1\AppData\Local\Temp\ccuhjQR3.s 			page 2


  21:Generated_Source\PSoC5/ADC_SAR_Seq_1_SAR.c **** #if(ADC_SAR_Seq_1_SAR_DEFAULT_INTERNAL_CLK)
  22:Generated_Source\PSoC5/ADC_SAR_Seq_1_SAR.c ****     #include "ADC_SAR_Seq_1_SAR_theACLK.h"
  23:Generated_Source\PSoC5/ADC_SAR_Seq_1_SAR.c **** #endif /* End ADC_SAR_Seq_1_SAR_DEFAULT_INTERNAL_CLK */
  24:Generated_Source\PSoC5/ADC_SAR_Seq_1_SAR.c **** 
  25:Generated_Source\PSoC5/ADC_SAR_Seq_1_SAR.c **** 
  26:Generated_Source\PSoC5/ADC_SAR_Seq_1_SAR.c **** /***************************************
  27:Generated_Source\PSoC5/ADC_SAR_Seq_1_SAR.c **** * Forward function references
  28:Generated_Source\PSoC5/ADC_SAR_Seq_1_SAR.c **** ***************************************/
  29:Generated_Source\PSoC5/ADC_SAR_Seq_1_SAR.c **** static void ADC_SAR_Seq_1_SAR_CalcGain(uint8 resolution);
  30:Generated_Source\PSoC5/ADC_SAR_Seq_1_SAR.c **** 
  31:Generated_Source\PSoC5/ADC_SAR_Seq_1_SAR.c **** 
  32:Generated_Source\PSoC5/ADC_SAR_Seq_1_SAR.c **** /***************************************
  33:Generated_Source\PSoC5/ADC_SAR_Seq_1_SAR.c **** * Global data allocation
  34:Generated_Source\PSoC5/ADC_SAR_Seq_1_SAR.c **** ***************************************/
  35:Generated_Source\PSoC5/ADC_SAR_Seq_1_SAR.c **** uint8 ADC_SAR_Seq_1_SAR_initVar = 0u;
  36:Generated_Source\PSoC5/ADC_SAR_Seq_1_SAR.c **** volatile int16 ADC_SAR_Seq_1_SAR_offset;
  37:Generated_Source\PSoC5/ADC_SAR_Seq_1_SAR.c **** volatile int16 ADC_SAR_Seq_1_SAR_countsPerVolt;     /* Obsolete Gain compensation */
  38:Generated_Source\PSoC5/ADC_SAR_Seq_1_SAR.c **** volatile int32 ADC_SAR_Seq_1_SAR_countsPer10Volt;   /* Gain compensation */
  39:Generated_Source\PSoC5/ADC_SAR_Seq_1_SAR.c **** volatile int16 ADC_SAR_Seq_1_SAR_shift;
  40:Generated_Source\PSoC5/ADC_SAR_Seq_1_SAR.c **** 
  41:Generated_Source\PSoC5/ADC_SAR_Seq_1_SAR.c **** 
  42:Generated_Source\PSoC5/ADC_SAR_Seq_1_SAR.c **** /*******************************************************************************
  43:Generated_Source\PSoC5/ADC_SAR_Seq_1_SAR.c **** * Function Name: ADC_SAR_Seq_1_SAR_Start
  44:Generated_Source\PSoC5/ADC_SAR_Seq_1_SAR.c **** ********************************************************************************
  45:Generated_Source\PSoC5/ADC_SAR_Seq_1_SAR.c **** *
  46:Generated_Source\PSoC5/ADC_SAR_Seq_1_SAR.c **** * Summary:
  47:Generated_Source\PSoC5/ADC_SAR_Seq_1_SAR.c **** *  This is the preferred method to begin component operation.
  48:Generated_Source\PSoC5/ADC_SAR_Seq_1_SAR.c **** *  ADC_SAR_Seq_1_SAR_Start() sets the initVar variable, calls the
  49:Generated_Source\PSoC5/ADC_SAR_Seq_1_SAR.c **** *  ADC_SAR_Seq_1_SAR_Init() function, and then calls the
  50:Generated_Source\PSoC5/ADC_SAR_Seq_1_SAR.c **** *  ADC_SAR_Seq_1_SAR_Enable() function.
  51:Generated_Source\PSoC5/ADC_SAR_Seq_1_SAR.c **** *
  52:Generated_Source\PSoC5/ADC_SAR_Seq_1_SAR.c **** * Parameters:
  53:Generated_Source\PSoC5/ADC_SAR_Seq_1_SAR.c **** *  None.
  54:Generated_Source\PSoC5/ADC_SAR_Seq_1_SAR.c **** *
  55:Generated_Source\PSoC5/ADC_SAR_Seq_1_SAR.c **** * Return:
  56:Generated_Source\PSoC5/ADC_SAR_Seq_1_SAR.c **** *  None.
  57:Generated_Source\PSoC5/ADC_SAR_Seq_1_SAR.c **** *
  58:Generated_Source\PSoC5/ADC_SAR_Seq_1_SAR.c **** * Global variables:
  59:Generated_Source\PSoC5/ADC_SAR_Seq_1_SAR.c **** *  The ADC_SAR_Seq_1_SAR_initVar variable is used to indicate when/if initial
  60:Generated_Source\PSoC5/ADC_SAR_Seq_1_SAR.c **** *  configuration of this component has happened. The variable is initialized to
  61:Generated_Source\PSoC5/ADC_SAR_Seq_1_SAR.c **** *  zero and set to 1 the first time ADC_Start() is called. This allows for
  62:Generated_Source\PSoC5/ADC_SAR_Seq_1_SAR.c **** *  component Re-Start without re-initialization in all subsequent calls to the
  63:Generated_Source\PSoC5/ADC_SAR_Seq_1_SAR.c **** *  ADC_SAR_Seq_1_SAR_Start() routine.
  64:Generated_Source\PSoC5/ADC_SAR_Seq_1_SAR.c **** *  If re-initialization of the component is required the variable should be set
  65:Generated_Source\PSoC5/ADC_SAR_Seq_1_SAR.c **** *  to zero before call of ADC_SAR_Seq_1_SAR_Start() routine, or the user may call
  66:Generated_Source\PSoC5/ADC_SAR_Seq_1_SAR.c **** *  ADC_SAR_Seq_1_SAR_Init() and ADC_SAR_Seq_1_SAR_Enable() as done in the
  67:Generated_Source\PSoC5/ADC_SAR_Seq_1_SAR.c **** *  ADC_SAR_Seq_1_SAR_Start() routine.
  68:Generated_Source\PSoC5/ADC_SAR_Seq_1_SAR.c **** *
  69:Generated_Source\PSoC5/ADC_SAR_Seq_1_SAR.c **** * Side Effect:
  70:Generated_Source\PSoC5/ADC_SAR_Seq_1_SAR.c **** *  If the initVar variable is already set, this function only calls the
  71:Generated_Source\PSoC5/ADC_SAR_Seq_1_SAR.c **** *  ADC_SAR_Seq_1_SAR_Enable() function.
  72:Generated_Source\PSoC5/ADC_SAR_Seq_1_SAR.c **** *
  73:Generated_Source\PSoC5/ADC_SAR_Seq_1_SAR.c **** *******************************************************************************/
  74:Generated_Source\PSoC5/ADC_SAR_Seq_1_SAR.c **** void ADC_SAR_Seq_1_SAR_Start(void)
  75:Generated_Source\PSoC5/ADC_SAR_Seq_1_SAR.c **** {
  38              		.loc 1 75 0
  39              		.cfi_startproc
ARM GAS  C:\Users\JEFFSN~1\AppData\Local\Temp\ccuhjQR3.s 			page 3


  40              		@ args = 0, pretend = 0, frame = 0
  41              		@ frame_needed = 1, uses_anonymous_args = 0
  42 0000 80B5     		push	{r7, lr}
  43              		.cfi_def_cfa_offset 8
  44              		.cfi_offset 7, -8
  45              		.cfi_offset 14, -4
  46 0002 00AF     		add	r7, sp, #0
  47              		.cfi_def_cfa_register 7
  76:Generated_Source\PSoC5/ADC_SAR_Seq_1_SAR.c **** 
  77:Generated_Source\PSoC5/ADC_SAR_Seq_1_SAR.c ****     /* If not Initialized then initialize all required hardware and software */
  78:Generated_Source\PSoC5/ADC_SAR_Seq_1_SAR.c ****     if(ADC_SAR_Seq_1_SAR_initVar == 0u)
  48              		.loc 1 78 0
  49 0004 064B     		ldr	r3, .L3
  50 0006 1B78     		ldrb	r3, [r3]	@ zero_extendqisi2
  51 0008 002B     		cmp	r3, #0
  52 000a 04D1     		bne	.L2
  79:Generated_Source\PSoC5/ADC_SAR_Seq_1_SAR.c ****     {
  80:Generated_Source\PSoC5/ADC_SAR_Seq_1_SAR.c ****         ADC_SAR_Seq_1_SAR_Init();
  53              		.loc 1 80 0
  54 000c FFF7FEFF 		bl	ADC_SAR_Seq_1_SAR_Init
  81:Generated_Source\PSoC5/ADC_SAR_Seq_1_SAR.c ****         ADC_SAR_Seq_1_SAR_initVar = 1u;
  55              		.loc 1 81 0
  56 0010 034B     		ldr	r3, .L3
  57 0012 0122     		movs	r2, #1
  58 0014 1A70     		strb	r2, [r3]
  59              	.L2:
  82:Generated_Source\PSoC5/ADC_SAR_Seq_1_SAR.c ****     }
  83:Generated_Source\PSoC5/ADC_SAR_Seq_1_SAR.c ****     ADC_SAR_Seq_1_SAR_Enable();
  60              		.loc 1 83 0
  61 0016 FFF7FEFF 		bl	ADC_SAR_Seq_1_SAR_Enable
  84:Generated_Source\PSoC5/ADC_SAR_Seq_1_SAR.c **** }
  62              		.loc 1 84 0
  63 001a 00BF     		nop
  64 001c 80BD     		pop	{r7, pc}
  65              	.L4:
  66 001e 00BF     		.align	2
  67              	.L3:
  68 0020 00000000 		.word	ADC_SAR_Seq_1_SAR_initVar
  69              		.cfi_endproc
  70              	.LFE0:
  71              		.size	ADC_SAR_Seq_1_SAR_Start, .-ADC_SAR_Seq_1_SAR_Start
  72              		.section	.text.ADC_SAR_Seq_1_SAR_Init,"ax",%progbits
  73              		.align	2
  74              		.global	ADC_SAR_Seq_1_SAR_Init
  75              		.thumb
  76              		.thumb_func
  77              		.type	ADC_SAR_Seq_1_SAR_Init, %function
  78              	ADC_SAR_Seq_1_SAR_Init:
  79              	.LFB1:
  85:Generated_Source\PSoC5/ADC_SAR_Seq_1_SAR.c **** 
  86:Generated_Source\PSoC5/ADC_SAR_Seq_1_SAR.c **** 
  87:Generated_Source\PSoC5/ADC_SAR_Seq_1_SAR.c **** /*******************************************************************************
  88:Generated_Source\PSoC5/ADC_SAR_Seq_1_SAR.c **** * Function Name: ADC_SAR_Seq_1_SAR_Init
  89:Generated_Source\PSoC5/ADC_SAR_Seq_1_SAR.c **** ********************************************************************************
  90:Generated_Source\PSoC5/ADC_SAR_Seq_1_SAR.c **** *
  91:Generated_Source\PSoC5/ADC_SAR_Seq_1_SAR.c **** * Summary:
  92:Generated_Source\PSoC5/ADC_SAR_Seq_1_SAR.c **** *  Initialize component's parameters to the parameters set by user in the
ARM GAS  C:\Users\JEFFSN~1\AppData\Local\Temp\ccuhjQR3.s 			page 4


  93:Generated_Source\PSoC5/ADC_SAR_Seq_1_SAR.c **** *  customizer of the component placed onto schematic. Usually called in
  94:Generated_Source\PSoC5/ADC_SAR_Seq_1_SAR.c **** *  ADC_SAR_Seq_1_SAR_Start().
  95:Generated_Source\PSoC5/ADC_SAR_Seq_1_SAR.c **** *
  96:Generated_Source\PSoC5/ADC_SAR_Seq_1_SAR.c **** * Parameters:
  97:Generated_Source\PSoC5/ADC_SAR_Seq_1_SAR.c **** *  None.
  98:Generated_Source\PSoC5/ADC_SAR_Seq_1_SAR.c **** *
  99:Generated_Source\PSoC5/ADC_SAR_Seq_1_SAR.c **** * Return:
 100:Generated_Source\PSoC5/ADC_SAR_Seq_1_SAR.c **** *  None.
 101:Generated_Source\PSoC5/ADC_SAR_Seq_1_SAR.c **** *
 102:Generated_Source\PSoC5/ADC_SAR_Seq_1_SAR.c **** * Global variables:
 103:Generated_Source\PSoC5/ADC_SAR_Seq_1_SAR.c **** *  The ADC_SAR_Seq_1_SAR_offset variable is initialized to 0.
 104:Generated_Source\PSoC5/ADC_SAR_Seq_1_SAR.c **** *
 105:Generated_Source\PSoC5/ADC_SAR_Seq_1_SAR.c **** *******************************************************************************/
 106:Generated_Source\PSoC5/ADC_SAR_Seq_1_SAR.c **** void ADC_SAR_Seq_1_SAR_Init(void)
 107:Generated_Source\PSoC5/ADC_SAR_Seq_1_SAR.c **** {
  80              		.loc 1 107 0
  81              		.cfi_startproc
  82              		@ args = 0, pretend = 0, frame = 0
  83              		@ frame_needed = 1, uses_anonymous_args = 0
  84 0000 80B5     		push	{r7, lr}
  85              		.cfi_def_cfa_offset 8
  86              		.cfi_offset 7, -8
  87              		.cfi_offset 14, -4
  88 0002 00AF     		add	r7, sp, #0
  89              		.cfi_def_cfa_register 7
 108:Generated_Source\PSoC5/ADC_SAR_Seq_1_SAR.c **** 
 109:Generated_Source\PSoC5/ADC_SAR_Seq_1_SAR.c ****     /* This is only valid if there is an internal clock */
 110:Generated_Source\PSoC5/ADC_SAR_Seq_1_SAR.c ****     #if(ADC_SAR_Seq_1_SAR_DEFAULT_INTERNAL_CLK)
 111:Generated_Source\PSoC5/ADC_SAR_Seq_1_SAR.c ****         ADC_SAR_Seq_1_SAR_theACLK_SetMode(CYCLK_DUTY);
 112:Generated_Source\PSoC5/ADC_SAR_Seq_1_SAR.c ****     #endif /* End ADC_SAR_Seq_1_SAR_DEFAULT_INTERNAL_CLK */
 113:Generated_Source\PSoC5/ADC_SAR_Seq_1_SAR.c **** 
 114:Generated_Source\PSoC5/ADC_SAR_Seq_1_SAR.c ****     #if(ADC_SAR_Seq_1_SAR_IRQ_REMOVE == 0u)
 115:Generated_Source\PSoC5/ADC_SAR_Seq_1_SAR.c ****         /* Start and set interrupt vector */
 116:Generated_Source\PSoC5/ADC_SAR_Seq_1_SAR.c ****         CyIntSetPriority(ADC_SAR_Seq_1_SAR_INTC_NUMBER, ADC_SAR_Seq_1_SAR_INTC_PRIOR_NUMBER);
 117:Generated_Source\PSoC5/ADC_SAR_Seq_1_SAR.c ****         (void)CyIntSetVector(ADC_SAR_Seq_1_SAR_INTC_NUMBER, &ADC_SAR_Seq_1_SAR_ISR);
 118:Generated_Source\PSoC5/ADC_SAR_Seq_1_SAR.c ****     #endif   /* End ADC_SAR_Seq_1_SAR_IRQ_REMOVE */
 119:Generated_Source\PSoC5/ADC_SAR_Seq_1_SAR.c **** 
 120:Generated_Source\PSoC5/ADC_SAR_Seq_1_SAR.c ****     /* Enable IRQ mode*/
 121:Generated_Source\PSoC5/ADC_SAR_Seq_1_SAR.c ****     ADC_SAR_Seq_1_SAR_SAR_CSR1_REG |= ADC_SAR_Seq_1_SAR_SAR_IRQ_MASK_EN | ADC_SAR_Seq_1_SAR_SAR_IRQ
  90              		.loc 1 121 0
  91 0004 074A     		ldr	r2, .L6
  92 0006 074B     		ldr	r3, .L6
  93 0008 1B78     		ldrb	r3, [r3]
  94 000a DBB2     		uxtb	r3, r3
  95 000c 43F00603 		orr	r3, r3, #6
  96 0010 DBB2     		uxtb	r3, r3
  97 0012 1370     		strb	r3, [r2]
 122:Generated_Source\PSoC5/ADC_SAR_Seq_1_SAR.c **** 
 123:Generated_Source\PSoC5/ADC_SAR_Seq_1_SAR.c ****     /*Set SAR ADC resolution ADC */
 124:Generated_Source\PSoC5/ADC_SAR_Seq_1_SAR.c ****     ADC_SAR_Seq_1_SAR_SetResolution(ADC_SAR_Seq_1_SAR_DEFAULT_RESOLUTION);
  98              		.loc 1 124 0
  99 0014 0C20     		movs	r0, #12
 100 0016 FFF7FEFF 		bl	ADC_SAR_Seq_1_SAR_SetResolution
 125:Generated_Source\PSoC5/ADC_SAR_Seq_1_SAR.c ****     ADC_SAR_Seq_1_SAR_offset = 0;
 101              		.loc 1 125 0
 102 001a 034B     		ldr	r3, .L6+4
 103 001c 0022     		movs	r2, #0
ARM GAS  C:\Users\JEFFSN~1\AppData\Local\Temp\ccuhjQR3.s 			page 5


 104 001e 1A80     		strh	r2, [r3]	@ movhi
 126:Generated_Source\PSoC5/ADC_SAR_Seq_1_SAR.c **** }
 105              		.loc 1 126 0
 106 0020 00BF     		nop
 107 0022 80BD     		pop	{r7, pc}
 108              	.L7:
 109              		.align	2
 110              	.L6:
 111 0024 09590040 		.word	1073764617
 112 0028 00000000 		.word	ADC_SAR_Seq_1_SAR_offset
 113              		.cfi_endproc
 114              	.LFE1:
 115              		.size	ADC_SAR_Seq_1_SAR_Init, .-ADC_SAR_Seq_1_SAR_Init
 116              		.section	.text.ADC_SAR_Seq_1_SAR_Enable,"ax",%progbits
 117              		.align	2
 118              		.global	ADC_SAR_Seq_1_SAR_Enable
 119              		.thumb
 120              		.thumb_func
 121              		.type	ADC_SAR_Seq_1_SAR_Enable, %function
 122              	ADC_SAR_Seq_1_SAR_Enable:
 123              	.LFB2:
 127:Generated_Source\PSoC5/ADC_SAR_Seq_1_SAR.c **** 
 128:Generated_Source\PSoC5/ADC_SAR_Seq_1_SAR.c **** 
 129:Generated_Source\PSoC5/ADC_SAR_Seq_1_SAR.c **** /*******************************************************************************
 130:Generated_Source\PSoC5/ADC_SAR_Seq_1_SAR.c **** * Function Name: ADC_SAR_Seq_1_SAR_Enable
 131:Generated_Source\PSoC5/ADC_SAR_Seq_1_SAR.c **** ********************************************************************************
 132:Generated_Source\PSoC5/ADC_SAR_Seq_1_SAR.c **** *
 133:Generated_Source\PSoC5/ADC_SAR_Seq_1_SAR.c **** * Summary:
 134:Generated_Source\PSoC5/ADC_SAR_Seq_1_SAR.c **** *  Enables the reference, clock and power for SAR ADC.
 135:Generated_Source\PSoC5/ADC_SAR_Seq_1_SAR.c **** *
 136:Generated_Source\PSoC5/ADC_SAR_Seq_1_SAR.c **** * Parameters:
 137:Generated_Source\PSoC5/ADC_SAR_Seq_1_SAR.c **** *  None.
 138:Generated_Source\PSoC5/ADC_SAR_Seq_1_SAR.c **** *
 139:Generated_Source\PSoC5/ADC_SAR_Seq_1_SAR.c **** * Return:
 140:Generated_Source\PSoC5/ADC_SAR_Seq_1_SAR.c **** *  None.
 141:Generated_Source\PSoC5/ADC_SAR_Seq_1_SAR.c **** *
 142:Generated_Source\PSoC5/ADC_SAR_Seq_1_SAR.c **** *******************************************************************************/
 143:Generated_Source\PSoC5/ADC_SAR_Seq_1_SAR.c **** void ADC_SAR_Seq_1_SAR_Enable(void)
 144:Generated_Source\PSoC5/ADC_SAR_Seq_1_SAR.c **** {
 124              		.loc 1 144 0
 125              		.cfi_startproc
 126              		@ args = 0, pretend = 0, frame = 8
 127              		@ frame_needed = 1, uses_anonymous_args = 0
 128 0000 80B5     		push	{r7, lr}
 129              		.cfi_def_cfa_offset 8
 130              		.cfi_offset 7, -8
 131              		.cfi_offset 14, -4
 132 0002 82B0     		sub	sp, sp, #8
 133              		.cfi_def_cfa_offset 16
 134 0004 00AF     		add	r7, sp, #0
 135              		.cfi_def_cfa_register 7
 145:Generated_Source\PSoC5/ADC_SAR_Seq_1_SAR.c ****     uint8 tmpReg;
 146:Generated_Source\PSoC5/ADC_SAR_Seq_1_SAR.c ****     uint8 enableInterrupts;
 147:Generated_Source\PSoC5/ADC_SAR_Seq_1_SAR.c ****     enableInterrupts = CyEnterCriticalSection();
 136              		.loc 1 147 0
 137 0006 FFF7FEFF 		bl	CyEnterCriticalSection
 138 000a 0346     		mov	r3, r0
ARM GAS  C:\Users\JEFFSN~1\AppData\Local\Temp\ccuhjQR3.s 			page 6


 139 000c FB71     		strb	r3, [r7, #7]
 148:Generated_Source\PSoC5/ADC_SAR_Seq_1_SAR.c **** 
 149:Generated_Source\PSoC5/ADC_SAR_Seq_1_SAR.c ****     /* Enable the SAR ADC block in Active Power Mode */
 150:Generated_Source\PSoC5/ADC_SAR_Seq_1_SAR.c ****     ADC_SAR_Seq_1_SAR_PWRMGR_SAR_REG |= ADC_SAR_Seq_1_SAR_ACT_PWR_SAR_EN;
 140              		.loc 1 150 0
 141 000e 254A     		ldr	r2, .L9
 142 0010 244B     		ldr	r3, .L9
 143 0012 1B78     		ldrb	r3, [r3]
 144 0014 DBB2     		uxtb	r3, r3
 145 0016 43F00203 		orr	r3, r3, #2
 146 001a DBB2     		uxtb	r3, r3
 147 001c 1370     		strb	r3, [r2]
 151:Generated_Source\PSoC5/ADC_SAR_Seq_1_SAR.c **** 
 152:Generated_Source\PSoC5/ADC_SAR_Seq_1_SAR.c ****      /* Enable the SAR ADC in Standby Power Mode*/
 153:Generated_Source\PSoC5/ADC_SAR_Seq_1_SAR.c ****     ADC_SAR_Seq_1_SAR_STBY_PWRMGR_SAR_REG |= ADC_SAR_Seq_1_SAR_STBY_PWR_SAR_EN;
 148              		.loc 1 153 0
 149 001e 224A     		ldr	r2, .L9+4
 150 0020 214B     		ldr	r3, .L9+4
 151 0022 1B78     		ldrb	r3, [r3]
 152 0024 DBB2     		uxtb	r3, r3
 153 0026 43F00203 		orr	r3, r3, #2
 154 002a DBB2     		uxtb	r3, r3
 155 002c 1370     		strb	r3, [r2]
 154:Generated_Source\PSoC5/ADC_SAR_Seq_1_SAR.c **** 
 155:Generated_Source\PSoC5/ADC_SAR_Seq_1_SAR.c ****     /* This is only valid if there is an internal clock */
 156:Generated_Source\PSoC5/ADC_SAR_Seq_1_SAR.c ****     #if(ADC_SAR_Seq_1_SAR_DEFAULT_INTERNAL_CLK)
 157:Generated_Source\PSoC5/ADC_SAR_Seq_1_SAR.c ****         ADC_SAR_Seq_1_SAR_PWRMGR_CLK_REG |= ADC_SAR_Seq_1_SAR_ACT_PWR_CLK_EN;
 158:Generated_Source\PSoC5/ADC_SAR_Seq_1_SAR.c ****         ADC_SAR_Seq_1_SAR_STBY_PWRMGR_CLK_REG |= ADC_SAR_Seq_1_SAR_STBY_PWR_CLK_EN;
 159:Generated_Source\PSoC5/ADC_SAR_Seq_1_SAR.c ****     #endif /* End ADC_SAR_Seq_1_SAR_DEFAULT_INTERNAL_CLK */
 160:Generated_Source\PSoC5/ADC_SAR_Seq_1_SAR.c **** 
 161:Generated_Source\PSoC5/ADC_SAR_Seq_1_SAR.c ****     /* Enable VCM buffer and Enable Int Ref Amp */
 162:Generated_Source\PSoC5/ADC_SAR_Seq_1_SAR.c ****     tmpReg = ADC_SAR_Seq_1_SAR_SAR_CSR3_REG;
 156              		.loc 1 162 0
 157 002e 1F4B     		ldr	r3, .L9+8
 158 0030 1B78     		ldrb	r3, [r3]
 159 0032 BB71     		strb	r3, [r7, #6]
 163:Generated_Source\PSoC5/ADC_SAR_Seq_1_SAR.c ****     tmpReg |= ADC_SAR_Seq_1_SAR_SAR_EN_BUF_VCM_EN;
 160              		.loc 1 163 0
 161 0034 BB79     		ldrb	r3, [r7, #6]
 162 0036 43F00203 		orr	r3, r3, #2
 163 003a BB71     		strb	r3, [r7, #6]
 164:Generated_Source\PSoC5/ADC_SAR_Seq_1_SAR.c ****     /* PD_BUF_VREF is OFF in External reference or Vdda reference mode */
 165:Generated_Source\PSoC5/ADC_SAR_Seq_1_SAR.c ****     #if((ADC_SAR_Seq_1_SAR_DEFAULT_REFERENCE == ADC_SAR_Seq_1_SAR__EXT_REF) || \
 166:Generated_Source\PSoC5/ADC_SAR_Seq_1_SAR.c ****         (ADC_SAR_Seq_1_SAR_DEFAULT_RANGE == ADC_SAR_Seq_1_SAR__VNEG_VDDA_DIFF))
 167:Generated_Source\PSoC5/ADC_SAR_Seq_1_SAR.c ****         tmpReg &= (uint8)~ADC_SAR_Seq_1_SAR_SAR_EN_BUF_VREF_EN;
 168:Generated_Source\PSoC5/ADC_SAR_Seq_1_SAR.c ****     #else /* In INTREF or INTREF Bypassed this buffer is ON */
 169:Generated_Source\PSoC5/ADC_SAR_Seq_1_SAR.c ****         tmpReg |= ADC_SAR_Seq_1_SAR_SAR_EN_BUF_VREF_EN;
 164              		.loc 1 169 0
 165 003c BB79     		ldrb	r3, [r7, #6]
 166 003e 43F00103 		orr	r3, r3, #1
 167 0042 BB71     		strb	r3, [r7, #6]
 170:Generated_Source\PSoC5/ADC_SAR_Seq_1_SAR.c ****     #endif /* ADC_SAR_Seq_1_SAR_DEFAULT_REFERENCE == ADC_SAR_Seq_1_SAR__EXT_REF */
 171:Generated_Source\PSoC5/ADC_SAR_Seq_1_SAR.c ****     ADC_SAR_Seq_1_SAR_SAR_CSR3_REG = tmpReg;
 168              		.loc 1 171 0
 169 0044 194A     		ldr	r2, .L9+8
 170 0046 BB79     		ldrb	r3, [r7, #6]
 171 0048 1370     		strb	r3, [r2]
ARM GAS  C:\Users\JEFFSN~1\AppData\Local\Temp\ccuhjQR3.s 			page 7


 172:Generated_Source\PSoC5/ADC_SAR_Seq_1_SAR.c **** 
 173:Generated_Source\PSoC5/ADC_SAR_Seq_1_SAR.c ****     /* Set reference for ADC */
 174:Generated_Source\PSoC5/ADC_SAR_Seq_1_SAR.c ****     #if(ADC_SAR_Seq_1_SAR_DEFAULT_RANGE == ADC_SAR_Seq_1_SAR__VNEG_VDDA_DIFF)
 175:Generated_Source\PSoC5/ADC_SAR_Seq_1_SAR.c ****         #if(ADC_SAR_Seq_1_SAR_DEFAULT_REFERENCE == ADC_SAR_Seq_1_SAR__EXT_REF)
 176:Generated_Source\PSoC5/ADC_SAR_Seq_1_SAR.c ****             ADC_SAR_Seq_1_SAR_SAR_CSR6_REG = ADC_SAR_Seq_1_SAR_INT_BYPASS_EXT_VREF; /* S2 */
 177:Generated_Source\PSoC5/ADC_SAR_Seq_1_SAR.c ****         #else /* Internal Vdda reference or obsolete bypass mode */
 178:Generated_Source\PSoC5/ADC_SAR_Seq_1_SAR.c ****             ADC_SAR_Seq_1_SAR_SAR_CSR6_REG = ADC_SAR_Seq_1_SAR_VDDA_VREF;           /* S7 */
 179:Generated_Source\PSoC5/ADC_SAR_Seq_1_SAR.c ****         #endif /* ADC_SAR_Seq_1_SAR_DEFAULT_REFERENCE == ADC_SAR_Seq_1_SAR__EXT_REF */
 180:Generated_Source\PSoC5/ADC_SAR_Seq_1_SAR.c ****     #else  /* Reference goes through internal buffer */
 181:Generated_Source\PSoC5/ADC_SAR_Seq_1_SAR.c ****         #if(ADC_SAR_Seq_1_SAR_DEFAULT_REFERENCE == ADC_SAR_Seq_1_SAR__INT_REF_NOT_BYPASSED)
 182:Generated_Source\PSoC5/ADC_SAR_Seq_1_SAR.c ****             ADC_SAR_Seq_1_SAR_SAR_CSR6_REG = ADC_SAR_Seq_1_SAR_INT_VREF;            /* S3 + S4 */
 172              		.loc 1 182 0
 173 004a 194B     		ldr	r3, .L9+12
 174 004c 1822     		movs	r2, #24
 175 004e 1A70     		strb	r2, [r3]
 183:Generated_Source\PSoC5/ADC_SAR_Seq_1_SAR.c ****         #else /* INTREF Bypassed of External */
 184:Generated_Source\PSoC5/ADC_SAR_Seq_1_SAR.c ****             ADC_SAR_Seq_1_SAR_SAR_CSR6_REG = ADC_SAR_Seq_1_SAR_INT_BYPASS_EXT_VREF; /* S2 */
 185:Generated_Source\PSoC5/ADC_SAR_Seq_1_SAR.c ****         #endif /* ADC_SAR_Seq_1_SAR_DEFAULT_REFERENCE == ADC_SAR_Seq_1_SAR__INT_REF_NOT_BYPASSED */
 186:Generated_Source\PSoC5/ADC_SAR_Seq_1_SAR.c ****     #endif /* VNEG_VDDA_DIFF */
 187:Generated_Source\PSoC5/ADC_SAR_Seq_1_SAR.c **** 
 188:Generated_Source\PSoC5/ADC_SAR_Seq_1_SAR.c ****     /* Low non-overlap delay for sampling clock signals (for 1MSPS) */
 189:Generated_Source\PSoC5/ADC_SAR_Seq_1_SAR.c ****     #if(ADC_SAR_Seq_1_SAR_HIGH_POWER_PULSE == 0u) /* MinPulseWidth <= 50 ns */
 190:Generated_Source\PSoC5/ADC_SAR_Seq_1_SAR.c ****         ADC_SAR_Seq_1_SAR_SAR_CSR5_REG &= (uint8)~ADC_SAR_Seq_1_SAR_SAR_DLY_INC;
 191:Generated_Source\PSoC5/ADC_SAR_Seq_1_SAR.c ****     #else /* Set High non-overlap delay for sampling clock signals (for <500KSPS)*/
 192:Generated_Source\PSoC5/ADC_SAR_Seq_1_SAR.c ****         ADC_SAR_Seq_1_SAR_SAR_CSR5_REG |= ADC_SAR_Seq_1_SAR_SAR_DLY_INC;
 176              		.loc 1 192 0
 177 0050 184A     		ldr	r2, .L9+16
 178 0052 184B     		ldr	r3, .L9+16
 179 0054 1B78     		ldrb	r3, [r3]
 180 0056 DBB2     		uxtb	r3, r3
 181 0058 43F04003 		orr	r3, r3, #64
 182 005c DBB2     		uxtb	r3, r3
 183 005e 1370     		strb	r3, [r2]
 193:Generated_Source\PSoC5/ADC_SAR_Seq_1_SAR.c ****     #endif /* ADC_SAR_Seq_1_SAR_HIGH_POWER_PULSE == 0u */
 194:Generated_Source\PSoC5/ADC_SAR_Seq_1_SAR.c **** 
 195:Generated_Source\PSoC5/ADC_SAR_Seq_1_SAR.c ****     /* Increase comparator latch enable delay by 20%, 
 196:Generated_Source\PSoC5/ADC_SAR_Seq_1_SAR.c ****     *  Increase comparator bias current by 30% without impacting delaysDelay 
 197:Generated_Source\PSoC5/ADC_SAR_Seq_1_SAR.c ****     *  Default for 1MSPS) 
 198:Generated_Source\PSoC5/ADC_SAR_Seq_1_SAR.c ****     */
 199:Generated_Source\PSoC5/ADC_SAR_Seq_1_SAR.c ****     #if(ADC_SAR_Seq_1_SAR_HIGH_POWER_PULSE == 0u)    /* MinPulseWidth <= 50 ns */
 200:Generated_Source\PSoC5/ADC_SAR_Seq_1_SAR.c ****         ADC_SAR_Seq_1_SAR_SAR_CSR5_REG |= ADC_SAR_Seq_1_SAR_SAR_SEL_CSEL_DFT_CHAR;
 201:Generated_Source\PSoC5/ADC_SAR_Seq_1_SAR.c ****     #else /* for <500ksps */
 202:Generated_Source\PSoC5/ADC_SAR_Seq_1_SAR.c ****         ADC_SAR_Seq_1_SAR_SAR_CSR5_REG &= (uint8)~ADC_SAR_Seq_1_SAR_SAR_SEL_CSEL_DFT_CHAR;
 184              		.loc 1 202 0
 185 0060 144A     		ldr	r2, .L9+16
 186 0062 144B     		ldr	r3, .L9+16
 187 0064 1B78     		ldrb	r3, [r3]
 188 0066 DBB2     		uxtb	r3, r3
 189 0068 23F00303 		bic	r3, r3, #3
 190 006c DBB2     		uxtb	r3, r3
 191 006e 1370     		strb	r3, [r2]
 203:Generated_Source\PSoC5/ADC_SAR_Seq_1_SAR.c ****     #endif /* ADC_SAR_Seq_1_SAR_HIGH_POWER_PULSE == 0u */
 204:Generated_Source\PSoC5/ADC_SAR_Seq_1_SAR.c **** 
 205:Generated_Source\PSoC5/ADC_SAR_Seq_1_SAR.c ****     /* Set default power and other configurations for control register 0 in multiple lines */
 206:Generated_Source\PSoC5/ADC_SAR_Seq_1_SAR.c ****     ADC_SAR_Seq_1_SAR_SAR_CSR0_REG = (uint8)((uint8)ADC_SAR_Seq_1_SAR_DEFAULT_POWER << ADC_SAR_Seq_
 192              		.loc 1 206 0
 193 0070 114B     		ldr	r3, .L9+20
ARM GAS  C:\Users\JEFFSN~1\AppData\Local\Temp\ccuhjQR3.s 			page 8


 194 0072 CE22     		movs	r2, #206
 195 0074 1A70     		strb	r2, [r3]
 207:Generated_Source\PSoC5/ADC_SAR_Seq_1_SAR.c ****     /* SAR_HIZ_CLEAR:   Should not be used for LP */
 208:Generated_Source\PSoC5/ADC_SAR_Seq_1_SAR.c ****     #if ((CY_PSOC5LP) || (ADC_SAR_Seq_1_SAR_DEFAULT_REFERENCE != ADC_SAR_Seq_1_SAR__EXT_REF))
 209:Generated_Source\PSoC5/ADC_SAR_Seq_1_SAR.c ****         | ADC_SAR_Seq_1_SAR_SAR_HIZ_CLEAR
 210:Generated_Source\PSoC5/ADC_SAR_Seq_1_SAR.c ****     #endif /* SAR_HIZ_CLEAR */
 211:Generated_Source\PSoC5/ADC_SAR_Seq_1_SAR.c ****     /*Set Convertion mode */
 212:Generated_Source\PSoC5/ADC_SAR_Seq_1_SAR.c ****     #if(ADC_SAR_Seq_1_SAR_DEFAULT_CONV_MODE != ADC_SAR_Seq_1_SAR__FREE_RUNNING)      /* If triggere
 213:Generated_Source\PSoC5/ADC_SAR_Seq_1_SAR.c ****         | ADC_SAR_Seq_1_SAR_SAR_MX_SOF_UDB           /* source: UDB */
 214:Generated_Source\PSoC5/ADC_SAR_Seq_1_SAR.c ****         | ADC_SAR_Seq_1_SAR_SAR_SOF_MODE_EDGE        /* Set edge-sensitive sof source */
 215:Generated_Source\PSoC5/ADC_SAR_Seq_1_SAR.c ****     #endif /* ADC_SAR_Seq_1_SAR_DEFAULT_CONV_MODE */
 216:Generated_Source\PSoC5/ADC_SAR_Seq_1_SAR.c ****     ; /* end of multiple line initialization */
 217:Generated_Source\PSoC5/ADC_SAR_Seq_1_SAR.c **** 
 218:Generated_Source\PSoC5/ADC_SAR_Seq_1_SAR.c ****     ADC_SAR_Seq_1_SAR_SAR_TR0_REG = ADC_SAR_Seq_1_SAR_SAR_CAP_TRIM_2;
 196              		.loc 1 218 0
 197 0076 114B     		ldr	r3, .L9+24
 198 0078 0222     		movs	r2, #2
 199 007a 1A70     		strb	r2, [r3]
 219:Generated_Source\PSoC5/ADC_SAR_Seq_1_SAR.c **** 
 220:Generated_Source\PSoC5/ADC_SAR_Seq_1_SAR.c ****     /* Enable clock for SAR ADC*/
 221:Generated_Source\PSoC5/ADC_SAR_Seq_1_SAR.c ****     ADC_SAR_Seq_1_SAR_SAR_CLK_REG |= ADC_SAR_Seq_1_SAR_SAR_MX_CLK_EN;
 200              		.loc 1 221 0
 201 007c 104A     		ldr	r2, .L9+28
 202 007e 104B     		ldr	r3, .L9+28
 203 0080 1B78     		ldrb	r3, [r3]
 204 0082 DBB2     		uxtb	r3, r3
 205 0084 43F00803 		orr	r3, r3, #8
 206 0088 DBB2     		uxtb	r3, r3
 207 008a 1370     		strb	r3, [r2]
 222:Generated_Source\PSoC5/ADC_SAR_Seq_1_SAR.c **** 
 223:Generated_Source\PSoC5/ADC_SAR_Seq_1_SAR.c ****     CyDelayUs(10u); /* The block is ready to use 10 us after the enable signal is set high. */
 208              		.loc 1 223 0
 209 008c 0A20     		movs	r0, #10
 210 008e FFF7FEFF 		bl	CyDelayUs
 224:Generated_Source\PSoC5/ADC_SAR_Seq_1_SAR.c **** 
 225:Generated_Source\PSoC5/ADC_SAR_Seq_1_SAR.c ****     #if(ADC_SAR_Seq_1_SAR_IRQ_REMOVE == 0u)
 226:Generated_Source\PSoC5/ADC_SAR_Seq_1_SAR.c ****         /* Clear a pending interrupt */
 227:Generated_Source\PSoC5/ADC_SAR_Seq_1_SAR.c ****         CyIntClearPending(ADC_SAR_Seq_1_SAR_INTC_NUMBER);
 228:Generated_Source\PSoC5/ADC_SAR_Seq_1_SAR.c ****     #endif   /* End ADC_SAR_Seq_1_SAR_IRQ_REMOVE */
 229:Generated_Source\PSoC5/ADC_SAR_Seq_1_SAR.c **** 
 230:Generated_Source\PSoC5/ADC_SAR_Seq_1_SAR.c ****     CyExitCriticalSection(enableInterrupts);
 211              		.loc 1 230 0
 212 0092 FB79     		ldrb	r3, [r7, #7]	@ zero_extendqisi2
 213 0094 1846     		mov	r0, r3
 214 0096 FFF7FEFF 		bl	CyExitCriticalSection
 231:Generated_Source\PSoC5/ADC_SAR_Seq_1_SAR.c **** }
 215              		.loc 1 231 0
 216 009a 00BF     		nop
 217 009c 0837     		adds	r7, r7, #8
 218              		.cfi_def_cfa_offset 8
 219 009e BD46     		mov	sp, r7
 220              		.cfi_def_cfa_register 13
 221              		@ sp needed
 222 00a0 80BD     		pop	{r7, pc}
 223              	.L10:
 224 00a2 00BF     		.align	2
 225              	.L9:
ARM GAS  C:\Users\JEFFSN~1\AppData\Local\Temp\ccuhjQR3.s 			page 9


 226 00a4 AB430040 		.word	1073759147
 227 00a8 BB430040 		.word	1073759163
 228 00ac 0B590040 		.word	1073764619
 229 00b0 0E590040 		.word	1073764622
 230 00b4 0D590040 		.word	1073764621
 231 00b8 08590040 		.word	1073764616
 232 00bc 16460040 		.word	1073759766
 233 00c0 2F5B0040 		.word	1073765167
 234              		.cfi_endproc
 235              	.LFE2:
 236              		.size	ADC_SAR_Seq_1_SAR_Enable, .-ADC_SAR_Seq_1_SAR_Enable
 237              		.section	.text.ADC_SAR_Seq_1_SAR_Stop,"ax",%progbits
 238              		.align	2
 239              		.global	ADC_SAR_Seq_1_SAR_Stop
 240              		.thumb
 241              		.thumb_func
 242              		.type	ADC_SAR_Seq_1_SAR_Stop, %function
 243              	ADC_SAR_Seq_1_SAR_Stop:
 244              	.LFB3:
 232:Generated_Source\PSoC5/ADC_SAR_Seq_1_SAR.c **** 
 233:Generated_Source\PSoC5/ADC_SAR_Seq_1_SAR.c **** 
 234:Generated_Source\PSoC5/ADC_SAR_Seq_1_SAR.c **** /*******************************************************************************
 235:Generated_Source\PSoC5/ADC_SAR_Seq_1_SAR.c **** * Function Name: ADC_SAR_Seq_1_SAR_Stop
 236:Generated_Source\PSoC5/ADC_SAR_Seq_1_SAR.c **** ********************************************************************************
 237:Generated_Source\PSoC5/ADC_SAR_Seq_1_SAR.c **** *
 238:Generated_Source\PSoC5/ADC_SAR_Seq_1_SAR.c **** * Summary:
 239:Generated_Source\PSoC5/ADC_SAR_Seq_1_SAR.c **** *  Stops ADC conversions and puts the ADC into its lowest power mode.
 240:Generated_Source\PSoC5/ADC_SAR_Seq_1_SAR.c **** *
 241:Generated_Source\PSoC5/ADC_SAR_Seq_1_SAR.c **** * Parameters:
 242:Generated_Source\PSoC5/ADC_SAR_Seq_1_SAR.c **** *  None.
 243:Generated_Source\PSoC5/ADC_SAR_Seq_1_SAR.c **** *
 244:Generated_Source\PSoC5/ADC_SAR_Seq_1_SAR.c **** * Return:
 245:Generated_Source\PSoC5/ADC_SAR_Seq_1_SAR.c **** *  None.
 246:Generated_Source\PSoC5/ADC_SAR_Seq_1_SAR.c **** *
 247:Generated_Source\PSoC5/ADC_SAR_Seq_1_SAR.c **** *******************************************************************************/
 248:Generated_Source\PSoC5/ADC_SAR_Seq_1_SAR.c **** void ADC_SAR_Seq_1_SAR_Stop(void)
 249:Generated_Source\PSoC5/ADC_SAR_Seq_1_SAR.c **** {
 245              		.loc 1 249 0
 246              		.cfi_startproc
 247              		@ args = 0, pretend = 0, frame = 8
 248              		@ frame_needed = 1, uses_anonymous_args = 0
 249 0000 80B5     		push	{r7, lr}
 250              		.cfi_def_cfa_offset 8
 251              		.cfi_offset 7, -8
 252              		.cfi_offset 14, -4
 253 0002 82B0     		sub	sp, sp, #8
 254              		.cfi_def_cfa_offset 16
 255 0004 00AF     		add	r7, sp, #0
 256              		.cfi_def_cfa_register 7
 250:Generated_Source\PSoC5/ADC_SAR_Seq_1_SAR.c ****     uint8 enableInterrupts;
 251:Generated_Source\PSoC5/ADC_SAR_Seq_1_SAR.c ****     enableInterrupts = CyEnterCriticalSection();
 257              		.loc 1 251 0
 258 0006 FFF7FEFF 		bl	CyEnterCriticalSection
 259 000a 0346     		mov	r3, r0
 260 000c FB71     		strb	r3, [r7, #7]
 252:Generated_Source\PSoC5/ADC_SAR_Seq_1_SAR.c **** 
 253:Generated_Source\PSoC5/ADC_SAR_Seq_1_SAR.c ****     /* Stop all conversions */
ARM GAS  C:\Users\JEFFSN~1\AppData\Local\Temp\ccuhjQR3.s 			page 10


 254:Generated_Source\PSoC5/ADC_SAR_Seq_1_SAR.c ****     ADC_SAR_Seq_1_SAR_SAR_CSR0_REG &= (uint8)~ADC_SAR_Seq_1_SAR_SAR_SOF_START_CONV;
 261              		.loc 1 254 0
 262 000e 104A     		ldr	r2, .L12
 263 0010 0F4B     		ldr	r3, .L12
 264 0012 1B78     		ldrb	r3, [r3]
 265 0014 DBB2     		uxtb	r3, r3
 266 0016 23F00103 		bic	r3, r3, #1
 267 001a DBB2     		uxtb	r3, r3
 268 001c 1370     		strb	r3, [r2]
 255:Generated_Source\PSoC5/ADC_SAR_Seq_1_SAR.c ****     /* Disable the SAR ADC block in Active Power Mode */
 256:Generated_Source\PSoC5/ADC_SAR_Seq_1_SAR.c ****     ADC_SAR_Seq_1_SAR_PWRMGR_SAR_REG &= (uint8)~ADC_SAR_Seq_1_SAR_ACT_PWR_SAR_EN;
 269              		.loc 1 256 0
 270 001e 0D4A     		ldr	r2, .L12+4
 271 0020 0C4B     		ldr	r3, .L12+4
 272 0022 1B78     		ldrb	r3, [r3]
 273 0024 DBB2     		uxtb	r3, r3
 274 0026 23F00203 		bic	r3, r3, #2
 275 002a DBB2     		uxtb	r3, r3
 276 002c 1370     		strb	r3, [r2]
 257:Generated_Source\PSoC5/ADC_SAR_Seq_1_SAR.c ****     /* Disable the SAR ADC in Standby Power Mode */
 258:Generated_Source\PSoC5/ADC_SAR_Seq_1_SAR.c ****     ADC_SAR_Seq_1_SAR_STBY_PWRMGR_SAR_REG &= (uint8)~ADC_SAR_Seq_1_SAR_STBY_PWR_SAR_EN;
 277              		.loc 1 258 0
 278 002e 0A4A     		ldr	r2, .L12+8
 279 0030 094B     		ldr	r3, .L12+8
 280 0032 1B78     		ldrb	r3, [r3]
 281 0034 DBB2     		uxtb	r3, r3
 282 0036 23F00203 		bic	r3, r3, #2
 283 003a DBB2     		uxtb	r3, r3
 284 003c 1370     		strb	r3, [r2]
 259:Generated_Source\PSoC5/ADC_SAR_Seq_1_SAR.c **** 
 260:Generated_Source\PSoC5/ADC_SAR_Seq_1_SAR.c ****     /* This is only valid if there is an internal clock */
 261:Generated_Source\PSoC5/ADC_SAR_Seq_1_SAR.c ****     #if(ADC_SAR_Seq_1_SAR_DEFAULT_INTERNAL_CLK)
 262:Generated_Source\PSoC5/ADC_SAR_Seq_1_SAR.c ****         ADC_SAR_Seq_1_SAR_PWRMGR_CLK_REG &= (uint8)~ADC_SAR_Seq_1_SAR_ACT_PWR_CLK_EN;
 263:Generated_Source\PSoC5/ADC_SAR_Seq_1_SAR.c ****         ADC_SAR_Seq_1_SAR_STBY_PWRMGR_CLK_REG &= (uint8)~ADC_SAR_Seq_1_SAR_STBY_PWR_CLK_EN;
 264:Generated_Source\PSoC5/ADC_SAR_Seq_1_SAR.c ****     #endif /* End ADC_SAR_Seq_1_SAR_DEFAULT_INTERNAL_CLK */
 265:Generated_Source\PSoC5/ADC_SAR_Seq_1_SAR.c **** 
 266:Generated_Source\PSoC5/ADC_SAR_Seq_1_SAR.c ****     CyExitCriticalSection(enableInterrupts);
 285              		.loc 1 266 0
 286 003e FB79     		ldrb	r3, [r7, #7]	@ zero_extendqisi2
 287 0040 1846     		mov	r0, r3
 288 0042 FFF7FEFF 		bl	CyExitCriticalSection
 267:Generated_Source\PSoC5/ADC_SAR_Seq_1_SAR.c **** 
 268:Generated_Source\PSoC5/ADC_SAR_Seq_1_SAR.c **** }
 289              		.loc 1 268 0
 290 0046 00BF     		nop
 291 0048 0837     		adds	r7, r7, #8
 292              		.cfi_def_cfa_offset 8
 293 004a BD46     		mov	sp, r7
 294              		.cfi_def_cfa_register 13
 295              		@ sp needed
 296 004c 80BD     		pop	{r7, pc}
 297              	.L13:
 298 004e 00BF     		.align	2
 299              	.L12:
 300 0050 08590040 		.word	1073764616
 301 0054 AB430040 		.word	1073759147
 302 0058 BB430040 		.word	1073759163
ARM GAS  C:\Users\JEFFSN~1\AppData\Local\Temp\ccuhjQR3.s 			page 11


 303              		.cfi_endproc
 304              	.LFE3:
 305              		.size	ADC_SAR_Seq_1_SAR_Stop, .-ADC_SAR_Seq_1_SAR_Stop
 306              		.section	.text.ADC_SAR_Seq_1_SAR_SetPower,"ax",%progbits
 307              		.align	2
 308              		.global	ADC_SAR_Seq_1_SAR_SetPower
 309              		.thumb
 310              		.thumb_func
 311              		.type	ADC_SAR_Seq_1_SAR_SetPower, %function
 312              	ADC_SAR_Seq_1_SAR_SetPower:
 313              	.LFB4:
 269:Generated_Source\PSoC5/ADC_SAR_Seq_1_SAR.c **** 
 270:Generated_Source\PSoC5/ADC_SAR_Seq_1_SAR.c **** 
 271:Generated_Source\PSoC5/ADC_SAR_Seq_1_SAR.c **** /*******************************************************************************
 272:Generated_Source\PSoC5/ADC_SAR_Seq_1_SAR.c **** * Function Name: ADC_SAR_Seq_1_SAR_SetPower
 273:Generated_Source\PSoC5/ADC_SAR_Seq_1_SAR.c **** ********************************************************************************
 274:Generated_Source\PSoC5/ADC_SAR_Seq_1_SAR.c **** *
 275:Generated_Source\PSoC5/ADC_SAR_Seq_1_SAR.c **** * Summary:
 276:Generated_Source\PSoC5/ADC_SAR_Seq_1_SAR.c **** *  Sets the operational power of the ADC. You should use the higher power
 277:Generated_Source\PSoC5/ADC_SAR_Seq_1_SAR.c **** *  settings with faster clock speeds.
 278:Generated_Source\PSoC5/ADC_SAR_Seq_1_SAR.c **** *
 279:Generated_Source\PSoC5/ADC_SAR_Seq_1_SAR.c **** * Parameters:
 280:Generated_Source\PSoC5/ADC_SAR_Seq_1_SAR.c **** *  power:  Power setting for ADC
 281:Generated_Source\PSoC5/ADC_SAR_Seq_1_SAR.c **** *  0 ->    Normal
 282:Generated_Source\PSoC5/ADC_SAR_Seq_1_SAR.c **** *  1 ->    Medium power
 283:Generated_Source\PSoC5/ADC_SAR_Seq_1_SAR.c **** *  2 ->    1.25 power
 284:Generated_Source\PSoC5/ADC_SAR_Seq_1_SAR.c **** *  3 ->    Minimum power.
 285:Generated_Source\PSoC5/ADC_SAR_Seq_1_SAR.c **** *
 286:Generated_Source\PSoC5/ADC_SAR_Seq_1_SAR.c **** * Return:
 287:Generated_Source\PSoC5/ADC_SAR_Seq_1_SAR.c **** *  None.
 288:Generated_Source\PSoC5/ADC_SAR_Seq_1_SAR.c **** *
 289:Generated_Source\PSoC5/ADC_SAR_Seq_1_SAR.c **** *******************************************************************************/
 290:Generated_Source\PSoC5/ADC_SAR_Seq_1_SAR.c **** void ADC_SAR_Seq_1_SAR_SetPower(uint8 power)
 291:Generated_Source\PSoC5/ADC_SAR_Seq_1_SAR.c **** {
 314              		.loc 1 291 0
 315              		.cfi_startproc
 316              		@ args = 0, pretend = 0, frame = 16
 317              		@ frame_needed = 1, uses_anonymous_args = 0
 318              		@ link register save eliminated.
 319 0000 80B4     		push	{r7}
 320              		.cfi_def_cfa_offset 4
 321              		.cfi_offset 7, -4
 322 0002 85B0     		sub	sp, sp, #20
 323              		.cfi_def_cfa_offset 24
 324 0004 00AF     		add	r7, sp, #0
 325              		.cfi_def_cfa_register 7
 326 0006 0346     		mov	r3, r0
 327 0008 FB71     		strb	r3, [r7, #7]
 292:Generated_Source\PSoC5/ADC_SAR_Seq_1_SAR.c ****     uint8 tmpReg;
 293:Generated_Source\PSoC5/ADC_SAR_Seq_1_SAR.c **** 
 294:Generated_Source\PSoC5/ADC_SAR_Seq_1_SAR.c ****     /* mask off invalid power settings */
 295:Generated_Source\PSoC5/ADC_SAR_Seq_1_SAR.c ****     power &= ADC_SAR_Seq_1_SAR_SAR_API_POWER_MASK;
 328              		.loc 1 295 0
 329 000a FB79     		ldrb	r3, [r7, #7]
 330 000c 03F00303 		and	r3, r3, #3
 331 0010 FB71     		strb	r3, [r7, #7]
 296:Generated_Source\PSoC5/ADC_SAR_Seq_1_SAR.c **** 
ARM GAS  C:\Users\JEFFSN~1\AppData\Local\Temp\ccuhjQR3.s 			page 12


 297:Generated_Source\PSoC5/ADC_SAR_Seq_1_SAR.c ****     /* Set Power parameter  */
 298:Generated_Source\PSoC5/ADC_SAR_Seq_1_SAR.c ****     tmpReg = ADC_SAR_Seq_1_SAR_SAR_CSR0_REG & (uint8)~ADC_SAR_Seq_1_SAR_SAR_POWER_MASK;
 332              		.loc 1 298 0
 333 0012 0A4B     		ldr	r3, .L15
 334 0014 1B78     		ldrb	r3, [r3]
 335 0016 DBB2     		uxtb	r3, r3
 336 0018 03F03F03 		and	r3, r3, #63
 337 001c FB73     		strb	r3, [r7, #15]
 299:Generated_Source\PSoC5/ADC_SAR_Seq_1_SAR.c ****     tmpReg |= (uint8)(power << ADC_SAR_Seq_1_SAR_SAR_POWER_SHIFT);
 338              		.loc 1 299 0
 339 001e FB79     		ldrb	r3, [r7, #7]
 340 0020 9B01     		lsls	r3, r3, #6
 341 0022 DAB2     		uxtb	r2, r3
 342 0024 FB7B     		ldrb	r3, [r7, #15]
 343 0026 1343     		orrs	r3, r3, r2
 344 0028 FB73     		strb	r3, [r7, #15]
 300:Generated_Source\PSoC5/ADC_SAR_Seq_1_SAR.c ****     ADC_SAR_Seq_1_SAR_SAR_CSR0_REG = tmpReg;
 345              		.loc 1 300 0
 346 002a 044A     		ldr	r2, .L15
 347 002c FB7B     		ldrb	r3, [r7, #15]
 348 002e 1370     		strb	r3, [r2]
 301:Generated_Source\PSoC5/ADC_SAR_Seq_1_SAR.c **** }
 349              		.loc 1 301 0
 350 0030 00BF     		nop
 351 0032 1437     		adds	r7, r7, #20
 352              		.cfi_def_cfa_offset 4
 353 0034 BD46     		mov	sp, r7
 354              		.cfi_def_cfa_register 13
 355              		@ sp needed
 356 0036 80BC     		pop	{r7}
 357              		.cfi_restore 7
 358              		.cfi_def_cfa_offset 0
 359 0038 7047     		bx	lr
 360              	.L16:
 361 003a 00BF     		.align	2
 362              	.L15:
 363 003c 08590040 		.word	1073764616
 364              		.cfi_endproc
 365              	.LFE4:
 366              		.size	ADC_SAR_Seq_1_SAR_SetPower, .-ADC_SAR_Seq_1_SAR_SetPower
 367              		.section	.text.ADC_SAR_Seq_1_SAR_SetResolution,"ax",%progbits
 368              		.align	2
 369              		.global	ADC_SAR_Seq_1_SAR_SetResolution
 370              		.thumb
 371              		.thumb_func
 372              		.type	ADC_SAR_Seq_1_SAR_SetResolution, %function
 373              	ADC_SAR_Seq_1_SAR_SetResolution:
 374              	.LFB5:
 302:Generated_Source\PSoC5/ADC_SAR_Seq_1_SAR.c **** 
 303:Generated_Source\PSoC5/ADC_SAR_Seq_1_SAR.c **** 
 304:Generated_Source\PSoC5/ADC_SAR_Seq_1_SAR.c **** /*******************************************************************************
 305:Generated_Source\PSoC5/ADC_SAR_Seq_1_SAR.c **** * Function Name: ADC_SAR_Seq_1_SAR_SetResolution
 306:Generated_Source\PSoC5/ADC_SAR_Seq_1_SAR.c **** ********************************************************************************
 307:Generated_Source\PSoC5/ADC_SAR_Seq_1_SAR.c **** *
 308:Generated_Source\PSoC5/ADC_SAR_Seq_1_SAR.c **** * Summary:
 309:Generated_Source\PSoC5/ADC_SAR_Seq_1_SAR.c **** *  Sets the Relution of the SAR.
 310:Generated_Source\PSoC5/ADC_SAR_Seq_1_SAR.c **** *
ARM GAS  C:\Users\JEFFSN~1\AppData\Local\Temp\ccuhjQR3.s 			page 13


 311:Generated_Source\PSoC5/ADC_SAR_Seq_1_SAR.c **** * Parameters:
 312:Generated_Source\PSoC5/ADC_SAR_Seq_1_SAR.c **** *  resolution:
 313:Generated_Source\PSoC5/ADC_SAR_Seq_1_SAR.c **** *  12 ->    RES12
 314:Generated_Source\PSoC5/ADC_SAR_Seq_1_SAR.c **** *  10 ->    RES10
 315:Generated_Source\PSoC5/ADC_SAR_Seq_1_SAR.c **** *  8  ->    RES8
 316:Generated_Source\PSoC5/ADC_SAR_Seq_1_SAR.c **** *
 317:Generated_Source\PSoC5/ADC_SAR_Seq_1_SAR.c **** * Return:
 318:Generated_Source\PSoC5/ADC_SAR_Seq_1_SAR.c **** *  None.
 319:Generated_Source\PSoC5/ADC_SAR_Seq_1_SAR.c **** *
 320:Generated_Source\PSoC5/ADC_SAR_Seq_1_SAR.c **** * Side Effects:
 321:Generated_Source\PSoC5/ADC_SAR_Seq_1_SAR.c **** *  The ADC resolution cannot be changed during a conversion cycle. The
 322:Generated_Source\PSoC5/ADC_SAR_Seq_1_SAR.c **** *  recommended best practice is to stop conversions with
 323:Generated_Source\PSoC5/ADC_SAR_Seq_1_SAR.c **** *  ADC_StopConvert(), change the resolution, then restart the
 324:Generated_Source\PSoC5/ADC_SAR_Seq_1_SAR.c **** *  conversions with ADC_StartConvert().
 325:Generated_Source\PSoC5/ADC_SAR_Seq_1_SAR.c **** *  If you decide not to stop conversions before calling this API, you
 326:Generated_Source\PSoC5/ADC_SAR_Seq_1_SAR.c **** *  should use ADC_IsEndConversion() to wait until conversion is complete
 327:Generated_Source\PSoC5/ADC_SAR_Seq_1_SAR.c **** *  before changing the resolution.
 328:Generated_Source\PSoC5/ADC_SAR_Seq_1_SAR.c **** *  If you call ADC_SetResolution() during a conversion, the resolution will
 329:Generated_Source\PSoC5/ADC_SAR_Seq_1_SAR.c **** *  not be changed until the current conversion is complete. Data will not be
 330:Generated_Source\PSoC5/ADC_SAR_Seq_1_SAR.c **** *  available in the new resolution for another 6 + "New Resolution(in bits)"
 331:Generated_Source\PSoC5/ADC_SAR_Seq_1_SAR.c **** *  clock cycles.
 332:Generated_Source\PSoC5/ADC_SAR_Seq_1_SAR.c **** *  You may need add a delay of this number of clock cycles after
 333:Generated_Source\PSoC5/ADC_SAR_Seq_1_SAR.c **** *  ADC_SetResolution() is called before data is valid again.
 334:Generated_Source\PSoC5/ADC_SAR_Seq_1_SAR.c **** *  Affects ADC_CountsTo_Volts(), ADC_CountsTo_mVolts(), and
 335:Generated_Source\PSoC5/ADC_SAR_Seq_1_SAR.c **** *  ADC_CountsTo_uVolts() by calculating the correct conversion between ADC
 336:Generated_Source\PSoC5/ADC_SAR_Seq_1_SAR.c **** *  counts and the applied input voltage. Calculation depends on resolution,
 337:Generated_Source\PSoC5/ADC_SAR_Seq_1_SAR.c **** *  input range, and voltage reference.
 338:Generated_Source\PSoC5/ADC_SAR_Seq_1_SAR.c **** *
 339:Generated_Source\PSoC5/ADC_SAR_Seq_1_SAR.c **** *******************************************************************************/
 340:Generated_Source\PSoC5/ADC_SAR_Seq_1_SAR.c **** void ADC_SAR_Seq_1_SAR_SetResolution(uint8 resolution)
 341:Generated_Source\PSoC5/ADC_SAR_Seq_1_SAR.c **** {
 375              		.loc 1 341 0
 376              		.cfi_startproc
 377              		@ args = 0, pretend = 0, frame = 16
 378              		@ frame_needed = 1, uses_anonymous_args = 0
 379 0000 80B5     		push	{r7, lr}
 380              		.cfi_def_cfa_offset 8
 381              		.cfi_offset 7, -8
 382              		.cfi_offset 14, -4
 383 0002 84B0     		sub	sp, sp, #16
 384              		.cfi_def_cfa_offset 24
 385 0004 00AF     		add	r7, sp, #0
 386              		.cfi_def_cfa_register 7
 387 0006 0346     		mov	r3, r0
 388 0008 FB71     		strb	r3, [r7, #7]
 342:Generated_Source\PSoC5/ADC_SAR_Seq_1_SAR.c ****     uint8 tmpReg;
 343:Generated_Source\PSoC5/ADC_SAR_Seq_1_SAR.c **** 
 344:Generated_Source\PSoC5/ADC_SAR_Seq_1_SAR.c ****     /* Set SAR ADC resolution and sample width: 18 conversion cycles at 12bits + 1 gap */
 345:Generated_Source\PSoC5/ADC_SAR_Seq_1_SAR.c ****     switch (resolution)
 389              		.loc 1 345 0
 390 000a FB79     		ldrb	r3, [r7, #7]	@ zero_extendqisi2
 391 000c 0A2B     		cmp	r3, #10
 392 000e 07D0     		beq	.L19
 393 0010 0C2B     		cmp	r3, #12
 394 0012 02D0     		beq	.L20
 395 0014 082B     		cmp	r3, #8
 396 0016 06D0     		beq	.L21
ARM GAS  C:\Users\JEFFSN~1\AppData\Local\Temp\ccuhjQR3.s 			page 14


 397 0018 08E0     		b	.L23
 398              	.L20:
 346:Generated_Source\PSoC5/ADC_SAR_Seq_1_SAR.c ****     {
 347:Generated_Source\PSoC5/ADC_SAR_Seq_1_SAR.c ****         case (uint8)ADC_SAR_Seq_1_SAR__BITS_12:
 348:Generated_Source\PSoC5/ADC_SAR_Seq_1_SAR.c ****             tmpReg = ADC_SAR_Seq_1_SAR_SAR_RESOLUTION_12BIT | ADC_SAR_Seq_1_SAR_SAR_SAMPLE_WIDTH;
 399              		.loc 1 348 0
 400 001a C223     		movs	r3, #194
 401 001c FB73     		strb	r3, [r7, #15]
 349:Generated_Source\PSoC5/ADC_SAR_Seq_1_SAR.c ****             break;
 402              		.loc 1 349 0
 403 001e 0BE0     		b	.L22
 404              	.L19:
 350:Generated_Source\PSoC5/ADC_SAR_Seq_1_SAR.c ****         case (uint8)ADC_SAR_Seq_1_SAR__BITS_10:
 351:Generated_Source\PSoC5/ADC_SAR_Seq_1_SAR.c ****             tmpReg = ADC_SAR_Seq_1_SAR_SAR_RESOLUTION_10BIT | ADC_SAR_Seq_1_SAR_SAR_SAMPLE_WIDTH;
 405              		.loc 1 351 0
 406 0020 8223     		movs	r3, #130
 407 0022 FB73     		strb	r3, [r7, #15]
 352:Generated_Source\PSoC5/ADC_SAR_Seq_1_SAR.c ****             break;
 408              		.loc 1 352 0
 409 0024 08E0     		b	.L22
 410              	.L21:
 353:Generated_Source\PSoC5/ADC_SAR_Seq_1_SAR.c ****         case (uint8)ADC_SAR_Seq_1_SAR__BITS_8:
 354:Generated_Source\PSoC5/ADC_SAR_Seq_1_SAR.c ****             tmpReg = ADC_SAR_Seq_1_SAR_SAR_RESOLUTION_8BIT | ADC_SAR_Seq_1_SAR_SAR_SAMPLE_WIDTH;
 411              		.loc 1 354 0
 412 0026 4223     		movs	r3, #66
 413 0028 FB73     		strb	r3, [r7, #15]
 355:Generated_Source\PSoC5/ADC_SAR_Seq_1_SAR.c ****             break;
 414              		.loc 1 355 0
 415 002a 05E0     		b	.L22
 416              	.L23:
 356:Generated_Source\PSoC5/ADC_SAR_Seq_1_SAR.c ****         default:
 357:Generated_Source\PSoC5/ADC_SAR_Seq_1_SAR.c ****             tmpReg = ADC_SAR_Seq_1_SAR_SAR_RESOLUTION_12BIT | ADC_SAR_Seq_1_SAR_SAR_SAMPLE_WIDTH;
 417              		.loc 1 357 0
 418 002c C223     		movs	r3, #194
 419 002e FB73     		strb	r3, [r7, #15]
 358:Generated_Source\PSoC5/ADC_SAR_Seq_1_SAR.c ****             /* Halt CPU in debug mode if resolution is out of valid range */
 359:Generated_Source\PSoC5/ADC_SAR_Seq_1_SAR.c ****             CYASSERT(0u != 0u);
 420              		.loc 1 359 0
 421 0030 0020     		movs	r0, #0
 422 0032 FFF7FEFF 		bl	CyHalt
 360:Generated_Source\PSoC5/ADC_SAR_Seq_1_SAR.c ****             break;
 423              		.loc 1 360 0
 424 0036 00BF     		nop
 425              	.L22:
 361:Generated_Source\PSoC5/ADC_SAR_Seq_1_SAR.c ****     }
 362:Generated_Source\PSoC5/ADC_SAR_Seq_1_SAR.c ****     ADC_SAR_Seq_1_SAR_SAR_CSR2_REG = tmpReg;
 426              		.loc 1 362 0
 427 0038 054A     		ldr	r2, .L24
 428 003a FB7B     		ldrb	r3, [r7, #15]
 429 003c 1370     		strb	r3, [r2]
 363:Generated_Source\PSoC5/ADC_SAR_Seq_1_SAR.c **** 
 364:Generated_Source\PSoC5/ADC_SAR_Seq_1_SAR.c ****      /* Calculate gain for convert counts to volts */
 365:Generated_Source\PSoC5/ADC_SAR_Seq_1_SAR.c ****     ADC_SAR_Seq_1_SAR_CalcGain(resolution);
 430              		.loc 1 365 0
 431 003e FB79     		ldrb	r3, [r7, #7]	@ zero_extendqisi2
 432 0040 1846     		mov	r0, r3
 433 0042 FFF7FEFF 		bl	ADC_SAR_Seq_1_SAR_CalcGain
ARM GAS  C:\Users\JEFFSN~1\AppData\Local\Temp\ccuhjQR3.s 			page 15


 366:Generated_Source\PSoC5/ADC_SAR_Seq_1_SAR.c **** }
 434              		.loc 1 366 0
 435 0046 00BF     		nop
 436 0048 1037     		adds	r7, r7, #16
 437              		.cfi_def_cfa_offset 8
 438 004a BD46     		mov	sp, r7
 439              		.cfi_def_cfa_register 13
 440              		@ sp needed
 441 004c 80BD     		pop	{r7, pc}
 442              	.L25:
 443 004e 00BF     		.align	2
 444              	.L24:
 445 0050 0A590040 		.word	1073764618
 446              		.cfi_endproc
 447              	.LFE5:
 448              		.size	ADC_SAR_Seq_1_SAR_SetResolution, .-ADC_SAR_Seq_1_SAR_SetResolution
 449              		.section	.text.ADC_SAR_Seq_1_SAR_StartConvert,"ax",%progbits
 450              		.align	2
 451              		.global	ADC_SAR_Seq_1_SAR_StartConvert
 452              		.thumb
 453              		.thumb_func
 454              		.type	ADC_SAR_Seq_1_SAR_StartConvert, %function
 455              	ADC_SAR_Seq_1_SAR_StartConvert:
 456              	.LFB6:
 367:Generated_Source\PSoC5/ADC_SAR_Seq_1_SAR.c **** 
 368:Generated_Source\PSoC5/ADC_SAR_Seq_1_SAR.c **** 
 369:Generated_Source\PSoC5/ADC_SAR_Seq_1_SAR.c **** #if(ADC_SAR_Seq_1_SAR_DEFAULT_CONV_MODE != ADC_SAR_Seq_1_SAR__HARDWARE_TRIGGER)
 370:Generated_Source\PSoC5/ADC_SAR_Seq_1_SAR.c **** 
 371:Generated_Source\PSoC5/ADC_SAR_Seq_1_SAR.c **** 
 372:Generated_Source\PSoC5/ADC_SAR_Seq_1_SAR.c ****     /*******************************************************************************
 373:Generated_Source\PSoC5/ADC_SAR_Seq_1_SAR.c ****     * Function Name: ADC_SAR_Seq_1_SAR_StartConvert
 374:Generated_Source\PSoC5/ADC_SAR_Seq_1_SAR.c ****     ********************************************************************************
 375:Generated_Source\PSoC5/ADC_SAR_Seq_1_SAR.c ****     *
 376:Generated_Source\PSoC5/ADC_SAR_Seq_1_SAR.c ****     * Summary:
 377:Generated_Source\PSoC5/ADC_SAR_Seq_1_SAR.c ****     *  Forces the ADC to initiate a conversion. In free-running mode, the ADC runs
 378:Generated_Source\PSoC5/ADC_SAR_Seq_1_SAR.c ****     *  continuously. In software trigger mode, the function also acts as a software
 379:Generated_Source\PSoC5/ADC_SAR_Seq_1_SAR.c ****     *  version of the SOC and every conversion must be triggered by
 380:Generated_Source\PSoC5/ADC_SAR_Seq_1_SAR.c ****     *  ADC_SAR_Seq_1_SAR_StartConvert(). This function is not available when the
 381:Generated_Source\PSoC5/ADC_SAR_Seq_1_SAR.c ****     *  Hardware Trigger sample mode is selected.
 382:Generated_Source\PSoC5/ADC_SAR_Seq_1_SAR.c ****     *
 383:Generated_Source\PSoC5/ADC_SAR_Seq_1_SAR.c ****     * Parameters:
 384:Generated_Source\PSoC5/ADC_SAR_Seq_1_SAR.c ****     *  None.
 385:Generated_Source\PSoC5/ADC_SAR_Seq_1_SAR.c ****     *
 386:Generated_Source\PSoC5/ADC_SAR_Seq_1_SAR.c ****     * Return:
 387:Generated_Source\PSoC5/ADC_SAR_Seq_1_SAR.c ****     *  None.
 388:Generated_Source\PSoC5/ADC_SAR_Seq_1_SAR.c ****     *
 389:Generated_Source\PSoC5/ADC_SAR_Seq_1_SAR.c ****     * Theory:
 390:Generated_Source\PSoC5/ADC_SAR_Seq_1_SAR.c ****     *  Forces the ADC to initiate a conversion. In Free Running mode, the ADC will
 391:Generated_Source\PSoC5/ADC_SAR_Seq_1_SAR.c ****     *  run continuously. In a software trigger mode the function also acts as a
 392:Generated_Source\PSoC5/ADC_SAR_Seq_1_SAR.c ****     *  software version of the SOC. Here every conversion has to be triggered by
 393:Generated_Source\PSoC5/ADC_SAR_Seq_1_SAR.c ****     *  the routine. This writes into the SOC bit in SAR_CTRL reg.
 394:Generated_Source\PSoC5/ADC_SAR_Seq_1_SAR.c ****     *
 395:Generated_Source\PSoC5/ADC_SAR_Seq_1_SAR.c ****     * Side Effects:
 396:Generated_Source\PSoC5/ADC_SAR_Seq_1_SAR.c ****     *  In a software trigger mode the function switches source for SOF from the
 397:Generated_Source\PSoC5/ADC_SAR_Seq_1_SAR.c ****     *  external pin to the internal SOF generation. Application should not call
 398:Generated_Source\PSoC5/ADC_SAR_Seq_1_SAR.c ****     *  StartConvert if external source used for SOF.
 399:Generated_Source\PSoC5/ADC_SAR_Seq_1_SAR.c ****     *
ARM GAS  C:\Users\JEFFSN~1\AppData\Local\Temp\ccuhjQR3.s 			page 16


 400:Generated_Source\PSoC5/ADC_SAR_Seq_1_SAR.c ****     *******************************************************************************/
 401:Generated_Source\PSoC5/ADC_SAR_Seq_1_SAR.c ****     void ADC_SAR_Seq_1_SAR_StartConvert(void)
 402:Generated_Source\PSoC5/ADC_SAR_Seq_1_SAR.c ****     {
 457              		.loc 1 402 0
 458              		.cfi_startproc
 459              		@ args = 0, pretend = 0, frame = 0
 460              		@ frame_needed = 1, uses_anonymous_args = 0
 461              		@ link register save eliminated.
 462 0000 80B4     		push	{r7}
 463              		.cfi_def_cfa_offset 4
 464              		.cfi_offset 7, -4
 465 0002 00AF     		add	r7, sp, #0
 466              		.cfi_def_cfa_register 7
 403:Generated_Source\PSoC5/ADC_SAR_Seq_1_SAR.c ****         #if(ADC_SAR_Seq_1_SAR_DEFAULT_CONV_MODE != ADC_SAR_Seq_1_SAR__FREE_RUNNING)  /* If software
 404:Generated_Source\PSoC5/ADC_SAR_Seq_1_SAR.c ****             ADC_SAR_Seq_1_SAR_SAR_CSR0_REG &= (uint8)~ADC_SAR_Seq_1_SAR_SAR_MX_SOF_UDB;   /* source
 467              		.loc 1 404 0
 468 0004 094A     		ldr	r2, .L27
 469 0006 094B     		ldr	r3, .L27
 470 0008 1B78     		ldrb	r3, [r3]
 471 000a DBB2     		uxtb	r3, r3
 472 000c 23F00403 		bic	r3, r3, #4
 473 0010 DBB2     		uxtb	r3, r3
 474 0012 1370     		strb	r3, [r2]
 405:Generated_Source\PSoC5/ADC_SAR_Seq_1_SAR.c ****         #endif /* End ADC_SAR_Seq_1_SAR_DEFAULT_CONV_MODE */
 406:Generated_Source\PSoC5/ADC_SAR_Seq_1_SAR.c **** 
 407:Generated_Source\PSoC5/ADC_SAR_Seq_1_SAR.c ****         /* Start the conversion */
 408:Generated_Source\PSoC5/ADC_SAR_Seq_1_SAR.c ****         ADC_SAR_Seq_1_SAR_SAR_CSR0_REG |= ADC_SAR_Seq_1_SAR_SAR_SOF_START_CONV;
 475              		.loc 1 408 0
 476 0014 054A     		ldr	r2, .L27
 477 0016 054B     		ldr	r3, .L27
 478 0018 1B78     		ldrb	r3, [r3]
 479 001a DBB2     		uxtb	r3, r3
 480 001c 43F00103 		orr	r3, r3, #1
 481 0020 DBB2     		uxtb	r3, r3
 482 0022 1370     		strb	r3, [r2]
 409:Generated_Source\PSoC5/ADC_SAR_Seq_1_SAR.c ****     }
 483              		.loc 1 409 0
 484 0024 00BF     		nop
 485 0026 BD46     		mov	sp, r7
 486              		.cfi_def_cfa_register 13
 487              		@ sp needed
 488 0028 80BC     		pop	{r7}
 489              		.cfi_restore 7
 490              		.cfi_def_cfa_offset 0
 491 002a 7047     		bx	lr
 492              	.L28:
 493              		.align	2
 494              	.L27:
 495 002c 08590040 		.word	1073764616
 496              		.cfi_endproc
 497              	.LFE6:
 498              		.size	ADC_SAR_Seq_1_SAR_StartConvert, .-ADC_SAR_Seq_1_SAR_StartConvert
 499              		.section	.text.ADC_SAR_Seq_1_SAR_StopConvert,"ax",%progbits
 500              		.align	2
 501              		.global	ADC_SAR_Seq_1_SAR_StopConvert
 502              		.thumb
 503              		.thumb_func
ARM GAS  C:\Users\JEFFSN~1\AppData\Local\Temp\ccuhjQR3.s 			page 17


 504              		.type	ADC_SAR_Seq_1_SAR_StopConvert, %function
 505              	ADC_SAR_Seq_1_SAR_StopConvert:
 506              	.LFB7:
 410:Generated_Source\PSoC5/ADC_SAR_Seq_1_SAR.c **** 
 411:Generated_Source\PSoC5/ADC_SAR_Seq_1_SAR.c **** 
 412:Generated_Source\PSoC5/ADC_SAR_Seq_1_SAR.c ****     /*******************************************************************************
 413:Generated_Source\PSoC5/ADC_SAR_Seq_1_SAR.c ****     * Function Name: ADC_SAR_Seq_1_SAR_StopConvert
 414:Generated_Source\PSoC5/ADC_SAR_Seq_1_SAR.c ****     ********************************************************************************
 415:Generated_Source\PSoC5/ADC_SAR_Seq_1_SAR.c ****     *
 416:Generated_Source\PSoC5/ADC_SAR_Seq_1_SAR.c ****     * Summary:
 417:Generated_Source\PSoC5/ADC_SAR_Seq_1_SAR.c ****     *  Forces the ADC to stop conversions. If a conversion is currently executing,
 418:Generated_Source\PSoC5/ADC_SAR_Seq_1_SAR.c ****     *  that conversion will complete, but no further conversions will occur. This
 419:Generated_Source\PSoC5/ADC_SAR_Seq_1_SAR.c ****     *  function is not available when the Hardware Trigger sample mode is selected.
 420:Generated_Source\PSoC5/ADC_SAR_Seq_1_SAR.c ****     *
 421:Generated_Source\PSoC5/ADC_SAR_Seq_1_SAR.c ****     * Parameters:
 422:Generated_Source\PSoC5/ADC_SAR_Seq_1_SAR.c ****     *  None.
 423:Generated_Source\PSoC5/ADC_SAR_Seq_1_SAR.c ****     *
 424:Generated_Source\PSoC5/ADC_SAR_Seq_1_SAR.c ****     * Return:
 425:Generated_Source\PSoC5/ADC_SAR_Seq_1_SAR.c ****     *  None.
 426:Generated_Source\PSoC5/ADC_SAR_Seq_1_SAR.c ****     *
 427:Generated_Source\PSoC5/ADC_SAR_Seq_1_SAR.c ****     * Theory:
 428:Generated_Source\PSoC5/ADC_SAR_Seq_1_SAR.c ****     *  Stops ADC conversion in Free Running mode.
 429:Generated_Source\PSoC5/ADC_SAR_Seq_1_SAR.c ****     *
 430:Generated_Source\PSoC5/ADC_SAR_Seq_1_SAR.c ****     * Side Effects:
 431:Generated_Source\PSoC5/ADC_SAR_Seq_1_SAR.c ****     *  In Software Trigger sample mode, this function sets a software version of the
 432:Generated_Source\PSoC5/ADC_SAR_Seq_1_SAR.c ****     *  SOC to low level and switches the SOC source to hardware SOC input.
 433:Generated_Source\PSoC5/ADC_SAR_Seq_1_SAR.c ****     *
 434:Generated_Source\PSoC5/ADC_SAR_Seq_1_SAR.c ****     *******************************************************************************/
 435:Generated_Source\PSoC5/ADC_SAR_Seq_1_SAR.c ****     void ADC_SAR_Seq_1_SAR_StopConvert(void)
 436:Generated_Source\PSoC5/ADC_SAR_Seq_1_SAR.c ****     {
 507              		.loc 1 436 0
 508              		.cfi_startproc
 509              		@ args = 0, pretend = 0, frame = 0
 510              		@ frame_needed = 1, uses_anonymous_args = 0
 511              		@ link register save eliminated.
 512 0000 80B4     		push	{r7}
 513              		.cfi_def_cfa_offset 4
 514              		.cfi_offset 7, -4
 515 0002 00AF     		add	r7, sp, #0
 516              		.cfi_def_cfa_register 7
 437:Generated_Source\PSoC5/ADC_SAR_Seq_1_SAR.c ****         /* Stop all conversions */
 438:Generated_Source\PSoC5/ADC_SAR_Seq_1_SAR.c ****         ADC_SAR_Seq_1_SAR_SAR_CSR0_REG &= (uint8)~ADC_SAR_Seq_1_SAR_SAR_SOF_START_CONV;
 517              		.loc 1 438 0
 518 0004 094A     		ldr	r2, .L30
 519 0006 094B     		ldr	r3, .L30
 520 0008 1B78     		ldrb	r3, [r3]
 521 000a DBB2     		uxtb	r3, r3
 522 000c 23F00103 		bic	r3, r3, #1
 523 0010 DBB2     		uxtb	r3, r3
 524 0012 1370     		strb	r3, [r2]
 439:Generated_Source\PSoC5/ADC_SAR_Seq_1_SAR.c **** 
 440:Generated_Source\PSoC5/ADC_SAR_Seq_1_SAR.c ****         #if(ADC_SAR_Seq_1_SAR_DEFAULT_CONV_MODE != ADC_SAR_Seq_1_SAR__FREE_RUNNING)  /* If software
 441:Generated_Source\PSoC5/ADC_SAR_Seq_1_SAR.c ****             /* Return source to UDB for hardware SOF signal */
 442:Generated_Source\PSoC5/ADC_SAR_Seq_1_SAR.c ****             ADC_SAR_Seq_1_SAR_SAR_CSR0_REG |= ADC_SAR_Seq_1_SAR_SAR_MX_SOF_UDB;    /* source: UDB *
 525              		.loc 1 442 0
 526 0014 054A     		ldr	r2, .L30
 527 0016 054B     		ldr	r3, .L30
ARM GAS  C:\Users\JEFFSN~1\AppData\Local\Temp\ccuhjQR3.s 			page 18


 528 0018 1B78     		ldrb	r3, [r3]
 529 001a DBB2     		uxtb	r3, r3
 530 001c 43F00403 		orr	r3, r3, #4
 531 0020 DBB2     		uxtb	r3, r3
 532 0022 1370     		strb	r3, [r2]
 443:Generated_Source\PSoC5/ADC_SAR_Seq_1_SAR.c ****         #endif /* End ADC_SAR_Seq_1_SAR_DEFAULT_CONV_MODE */
 444:Generated_Source\PSoC5/ADC_SAR_Seq_1_SAR.c **** 
 445:Generated_Source\PSoC5/ADC_SAR_Seq_1_SAR.c ****     }
 533              		.loc 1 445 0
 534 0024 00BF     		nop
 535 0026 BD46     		mov	sp, r7
 536              		.cfi_def_cfa_register 13
 537              		@ sp needed
 538 0028 80BC     		pop	{r7}
 539              		.cfi_restore 7
 540              		.cfi_def_cfa_offset 0
 541 002a 7047     		bx	lr
 542              	.L31:
 543              		.align	2
 544              	.L30:
 545 002c 08590040 		.word	1073764616
 546              		.cfi_endproc
 547              	.LFE7:
 548              		.size	ADC_SAR_Seq_1_SAR_StopConvert, .-ADC_SAR_Seq_1_SAR_StopConvert
 549              		.section	.text.ADC_SAR_Seq_1_SAR_IsEndConversion,"ax",%progbits
 550              		.align	2
 551              		.global	ADC_SAR_Seq_1_SAR_IsEndConversion
 552              		.thumb
 553              		.thumb_func
 554              		.type	ADC_SAR_Seq_1_SAR_IsEndConversion, %function
 555              	ADC_SAR_Seq_1_SAR_IsEndConversion:
 556              	.LFB8:
 446:Generated_Source\PSoC5/ADC_SAR_Seq_1_SAR.c **** 
 447:Generated_Source\PSoC5/ADC_SAR_Seq_1_SAR.c **** #endif /* End ADC_SAR_Seq_1_SAR_DEFAULT_CONV_MODE != ADC_SAR_Seq_1_SAR__HARDWARE_TRIGGER */
 448:Generated_Source\PSoC5/ADC_SAR_Seq_1_SAR.c **** 
 449:Generated_Source\PSoC5/ADC_SAR_Seq_1_SAR.c **** 
 450:Generated_Source\PSoC5/ADC_SAR_Seq_1_SAR.c **** /*******************************************************************************
 451:Generated_Source\PSoC5/ADC_SAR_Seq_1_SAR.c **** * Function Name: ADC_SAR_Seq_1_SAR_IsEndConversion
 452:Generated_Source\PSoC5/ADC_SAR_Seq_1_SAR.c **** ********************************************************************************
 453:Generated_Source\PSoC5/ADC_SAR_Seq_1_SAR.c **** *
 454:Generated_Source\PSoC5/ADC_SAR_Seq_1_SAR.c **** * Summary:
 455:Generated_Source\PSoC5/ADC_SAR_Seq_1_SAR.c **** *  Immediately returns the status of the conversion or does not return
 456:Generated_Source\PSoC5/ADC_SAR_Seq_1_SAR.c **** *  (blocking) until the conversion completes, depending on the retMode
 457:Generated_Source\PSoC5/ADC_SAR_Seq_1_SAR.c **** *  parameter.
 458:Generated_Source\PSoC5/ADC_SAR_Seq_1_SAR.c **** *
 459:Generated_Source\PSoC5/ADC_SAR_Seq_1_SAR.c **** * Parameters:
 460:Generated_Source\PSoC5/ADC_SAR_Seq_1_SAR.c **** *  retMode:  Check conversion return mode.
 461:Generated_Source\PSoC5/ADC_SAR_Seq_1_SAR.c **** *   ADC_SAR_Seq_1_SAR_RETURN_STATUS: Immediately returns the status. If the
 462:Generated_Source\PSoC5/ADC_SAR_Seq_1_SAR.c **** *     value returned is zero, the conversion is not complete, and this function
 463:Generated_Source\PSoC5/ADC_SAR_Seq_1_SAR.c **** *     should be retried until a nonzero result is returned.
 464:Generated_Source\PSoC5/ADC_SAR_Seq_1_SAR.c **** *   ADC_SAR_Seq_1_SAR_WAIT_FOR_RESULT: Does not return a result until the ADC
 465:Generated_Source\PSoC5/ADC_SAR_Seq_1_SAR.c **** *     conversion is complete.
 466:Generated_Source\PSoC5/ADC_SAR_Seq_1_SAR.c **** *
 467:Generated_Source\PSoC5/ADC_SAR_Seq_1_SAR.c **** * Return:
 468:Generated_Source\PSoC5/ADC_SAR_Seq_1_SAR.c **** *  (uint8)  0 =>  The ADC is still calculating the last result.
 469:Generated_Source\PSoC5/ADC_SAR_Seq_1_SAR.c **** *           1 =>  The last conversion is complete.
 470:Generated_Source\PSoC5/ADC_SAR_Seq_1_SAR.c **** *
ARM GAS  C:\Users\JEFFSN~1\AppData\Local\Temp\ccuhjQR3.s 			page 19


 471:Generated_Source\PSoC5/ADC_SAR_Seq_1_SAR.c **** * Side Effects:
 472:Generated_Source\PSoC5/ADC_SAR_Seq_1_SAR.c **** *  This function reads the end of conversion status, which is cleared on read.
 473:Generated_Source\PSoC5/ADC_SAR_Seq_1_SAR.c **** *
 474:Generated_Source\PSoC5/ADC_SAR_Seq_1_SAR.c **** *******************************************************************************/
 475:Generated_Source\PSoC5/ADC_SAR_Seq_1_SAR.c **** uint8 ADC_SAR_Seq_1_SAR_IsEndConversion(uint8 retMode)
 476:Generated_Source\PSoC5/ADC_SAR_Seq_1_SAR.c **** {
 557              		.loc 1 476 0
 558              		.cfi_startproc
 559              		@ args = 0, pretend = 0, frame = 16
 560              		@ frame_needed = 1, uses_anonymous_args = 0
 561 0000 80B5     		push	{r7, lr}
 562              		.cfi_def_cfa_offset 8
 563              		.cfi_offset 7, -8
 564              		.cfi_offset 14, -4
 565 0002 84B0     		sub	sp, sp, #16
 566              		.cfi_def_cfa_offset 24
 567 0004 00AF     		add	r7, sp, #0
 568              		.cfi_def_cfa_register 7
 569 0006 0346     		mov	r3, r0
 570 0008 FB71     		strb	r3, [r7, #7]
 571              	.L34:
 477:Generated_Source\PSoC5/ADC_SAR_Seq_1_SAR.c ****     uint8 status;
 478:Generated_Source\PSoC5/ADC_SAR_Seq_1_SAR.c **** 
 479:Generated_Source\PSoC5/ADC_SAR_Seq_1_SAR.c ****     do
 480:Generated_Source\PSoC5/ADC_SAR_Seq_1_SAR.c ****     {
 481:Generated_Source\PSoC5/ADC_SAR_Seq_1_SAR.c ****         status = ADC_SAR_Seq_1_SAR_SAR_CSR1_REG & ADC_SAR_Seq_1_SAR_SAR_EOF_1;
 572              		.loc 1 481 0 discriminator 2
 573 000a 0C4B     		ldr	r3, .L37
 574 000c 1B78     		ldrb	r3, [r3]
 575 000e DBB2     		uxtb	r3, r3
 576 0010 03F00103 		and	r3, r3, #1
 577 0014 FB73     		strb	r3, [r7, #15]
 482:Generated_Source\PSoC5/ADC_SAR_Seq_1_SAR.c ****     } while ((status != ADC_SAR_Seq_1_SAR_SAR_EOF_1) && (retMode == ADC_SAR_Seq_1_SAR_WAIT_FOR_RESU
 578              		.loc 1 482 0 discriminator 2
 579 0016 FB7B     		ldrb	r3, [r7, #15]	@ zero_extendqisi2
 580 0018 012B     		cmp	r3, #1
 581 001a 02D0     		beq	.L33
 582              		.loc 1 482 0 is_stmt 0 discriminator 1
 583 001c FB79     		ldrb	r3, [r7, #7]	@ zero_extendqisi2
 584 001e 002B     		cmp	r3, #0
 585 0020 F3D0     		beq	.L34
 586              	.L33:
 483:Generated_Source\PSoC5/ADC_SAR_Seq_1_SAR.c ****     /* If convertion complete, wait until EOF bit released */
 484:Generated_Source\PSoC5/ADC_SAR_Seq_1_SAR.c ****     if(status == ADC_SAR_Seq_1_SAR_SAR_EOF_1)
 587              		.loc 1 484 0 is_stmt 1
 588 0022 FB7B     		ldrb	r3, [r7, #15]	@ zero_extendqisi2
 589 0024 012B     		cmp	r3, #1
 590 0026 04D1     		bne	.L35
 485:Generated_Source\PSoC5/ADC_SAR_Seq_1_SAR.c ****     {
 486:Generated_Source\PSoC5/ADC_SAR_Seq_1_SAR.c ****         /* wait one ADC clock to let the EOC status bit release */
 487:Generated_Source\PSoC5/ADC_SAR_Seq_1_SAR.c ****         CyDelayUs(1u);
 591              		.loc 1 487 0
 592 0028 0120     		movs	r0, #1
 593 002a FFF7FEFF 		bl	CyDelayUs
 488:Generated_Source\PSoC5/ADC_SAR_Seq_1_SAR.c ****         /* Do the unconditional read operation of the CSR1 register to make sure the EOC bit has be
 489:Generated_Source\PSoC5/ADC_SAR_Seq_1_SAR.c ****         CY_GET_REG8(ADC_SAR_Seq_1_SAR_SAR_CSR1_PTR);
 594              		.loc 1 489 0
ARM GAS  C:\Users\JEFFSN~1\AppData\Local\Temp\ccuhjQR3.s 			page 20


 595 002e 034B     		ldr	r3, .L37
 596 0030 1B78     		ldrb	r3, [r3]
 597              	.L35:
 490:Generated_Source\PSoC5/ADC_SAR_Seq_1_SAR.c ****     }
 491:Generated_Source\PSoC5/ADC_SAR_Seq_1_SAR.c **** 
 492:Generated_Source\PSoC5/ADC_SAR_Seq_1_SAR.c ****     return(status);
 598              		.loc 1 492 0
 599 0032 FB7B     		ldrb	r3, [r7, #15]	@ zero_extendqisi2
 493:Generated_Source\PSoC5/ADC_SAR_Seq_1_SAR.c **** }
 600              		.loc 1 493 0
 601 0034 1846     		mov	r0, r3
 602 0036 1037     		adds	r7, r7, #16
 603              		.cfi_def_cfa_offset 8
 604 0038 BD46     		mov	sp, r7
 605              		.cfi_def_cfa_register 13
 606              		@ sp needed
 607 003a 80BD     		pop	{r7, pc}
 608              	.L38:
 609              		.align	2
 610              	.L37:
 611 003c 09590040 		.word	1073764617
 612              		.cfi_endproc
 613              	.LFE8:
 614              		.size	ADC_SAR_Seq_1_SAR_IsEndConversion, .-ADC_SAR_Seq_1_SAR_IsEndConversion
 615              		.section	.text.ADC_SAR_Seq_1_SAR_GetResult8,"ax",%progbits
 616              		.align	2
 617              		.global	ADC_SAR_Seq_1_SAR_GetResult8
 618              		.thumb
 619              		.thumb_func
 620              		.type	ADC_SAR_Seq_1_SAR_GetResult8, %function
 621              	ADC_SAR_Seq_1_SAR_GetResult8:
 622              	.LFB9:
 494:Generated_Source\PSoC5/ADC_SAR_Seq_1_SAR.c **** 
 495:Generated_Source\PSoC5/ADC_SAR_Seq_1_SAR.c **** 
 496:Generated_Source\PSoC5/ADC_SAR_Seq_1_SAR.c **** /*******************************************************************************
 497:Generated_Source\PSoC5/ADC_SAR_Seq_1_SAR.c **** * Function Name: ADC_SAR_Seq_1_SAR_GetResult8
 498:Generated_Source\PSoC5/ADC_SAR_Seq_1_SAR.c **** ********************************************************************************
 499:Generated_Source\PSoC5/ADC_SAR_Seq_1_SAR.c **** *
 500:Generated_Source\PSoC5/ADC_SAR_Seq_1_SAR.c **** * Summary:
 501:Generated_Source\PSoC5/ADC_SAR_Seq_1_SAR.c **** *  Returns the result of an 8-bit conversion. If the resolution is set greater
 502:Generated_Source\PSoC5/ADC_SAR_Seq_1_SAR.c **** *  than 8 bits, the function returns the LSB of the result.
 503:Generated_Source\PSoC5/ADC_SAR_Seq_1_SAR.c **** *  ADC_SAR_Seq_1_SAR_IsEndConversion() should be called to verify that the data
 504:Generated_Source\PSoC5/ADC_SAR_Seq_1_SAR.c **** *   sample is ready.
 505:Generated_Source\PSoC5/ADC_SAR_Seq_1_SAR.c **** *
 506:Generated_Source\PSoC5/ADC_SAR_Seq_1_SAR.c **** * Parameters:
 507:Generated_Source\PSoC5/ADC_SAR_Seq_1_SAR.c **** *  None.
 508:Generated_Source\PSoC5/ADC_SAR_Seq_1_SAR.c **** *
 509:Generated_Source\PSoC5/ADC_SAR_Seq_1_SAR.c **** * Return:
 510:Generated_Source\PSoC5/ADC_SAR_Seq_1_SAR.c **** *  The LSB of the last ADC conversion.
 511:Generated_Source\PSoC5/ADC_SAR_Seq_1_SAR.c **** *
 512:Generated_Source\PSoC5/ADC_SAR_Seq_1_SAR.c **** * Global Variables:
 513:Generated_Source\PSoC5/ADC_SAR_Seq_1_SAR.c **** *  ADC_SAR_Seq_1_SAR_shift - used to convert the ADC counts to the 2s
 514:Generated_Source\PSoC5/ADC_SAR_Seq_1_SAR.c **** *  compliment form.
 515:Generated_Source\PSoC5/ADC_SAR_Seq_1_SAR.c **** *
 516:Generated_Source\PSoC5/ADC_SAR_Seq_1_SAR.c **** * Side Effects:
 517:Generated_Source\PSoC5/ADC_SAR_Seq_1_SAR.c **** *  Converts the ADC counts to the 2s complement form.
 518:Generated_Source\PSoC5/ADC_SAR_Seq_1_SAR.c **** *
ARM GAS  C:\Users\JEFFSN~1\AppData\Local\Temp\ccuhjQR3.s 			page 21


 519:Generated_Source\PSoC5/ADC_SAR_Seq_1_SAR.c **** *******************************************************************************/
 520:Generated_Source\PSoC5/ADC_SAR_Seq_1_SAR.c **** int8 ADC_SAR_Seq_1_SAR_GetResult8( void )
 521:Generated_Source\PSoC5/ADC_SAR_Seq_1_SAR.c **** {
 623              		.loc 1 521 0
 624              		.cfi_startproc
 625              		@ args = 0, pretend = 0, frame = 0
 626              		@ frame_needed = 1, uses_anonymous_args = 0
 627              		@ link register save eliminated.
 628 0000 80B4     		push	{r7}
 629              		.cfi_def_cfa_offset 4
 630              		.cfi_offset 7, -4
 631 0002 00AF     		add	r7, sp, #0
 632              		.cfi_def_cfa_register 7
 522:Generated_Source\PSoC5/ADC_SAR_Seq_1_SAR.c ****     return( (int8)ADC_SAR_Seq_1_SAR_SAR_WRK0_REG - (int8)ADC_SAR_Seq_1_SAR_shift);
 633              		.loc 1 522 0
 634 0004 064B     		ldr	r3, .L41
 635 0006 1B78     		ldrb	r3, [r3]
 636 0008 DAB2     		uxtb	r2, r3
 637 000a 064B     		ldr	r3, .L41+4
 638 000c 1B88     		ldrh	r3, [r3]	@ movhi
 639 000e 1BB2     		sxth	r3, r3
 640 0010 DBB2     		uxtb	r3, r3
 641 0012 D31A     		subs	r3, r2, r3
 642 0014 DBB2     		uxtb	r3, r3
 643 0016 5BB2     		sxtb	r3, r3
 523:Generated_Source\PSoC5/ADC_SAR_Seq_1_SAR.c **** }
 644              		.loc 1 523 0
 645 0018 1846     		mov	r0, r3
 646 001a BD46     		mov	sp, r7
 647              		.cfi_def_cfa_register 13
 648              		@ sp needed
 649 001c 80BC     		pop	{r7}
 650              		.cfi_restore 7
 651              		.cfi_def_cfa_offset 0
 652 001e 7047     		bx	lr
 653              	.L42:
 654              		.align	2
 655              	.L41:
 656 0020 A25B0040 		.word	1073765282
 657 0024 00000000 		.word	ADC_SAR_Seq_1_SAR_shift
 658              		.cfi_endproc
 659              	.LFE9:
 660              		.size	ADC_SAR_Seq_1_SAR_GetResult8, .-ADC_SAR_Seq_1_SAR_GetResult8
 661              		.section	.text.ADC_SAR_Seq_1_SAR_GetResult16,"ax",%progbits
 662              		.align	2
 663              		.global	ADC_SAR_Seq_1_SAR_GetResult16
 664              		.thumb
 665              		.thumb_func
 666              		.type	ADC_SAR_Seq_1_SAR_GetResult16, %function
 667              	ADC_SAR_Seq_1_SAR_GetResult16:
 668              	.LFB10:
 524:Generated_Source\PSoC5/ADC_SAR_Seq_1_SAR.c **** 
 525:Generated_Source\PSoC5/ADC_SAR_Seq_1_SAR.c **** 
 526:Generated_Source\PSoC5/ADC_SAR_Seq_1_SAR.c **** /*******************************************************************************
 527:Generated_Source\PSoC5/ADC_SAR_Seq_1_SAR.c **** * Function Name: ADC_SAR_Seq_1_SAR_GetResult16
 528:Generated_Source\PSoC5/ADC_SAR_Seq_1_SAR.c **** ********************************************************************************
 529:Generated_Source\PSoC5/ADC_SAR_Seq_1_SAR.c **** *
ARM GAS  C:\Users\JEFFSN~1\AppData\Local\Temp\ccuhjQR3.s 			page 22


 530:Generated_Source\PSoC5/ADC_SAR_Seq_1_SAR.c **** * Summary:
 531:Generated_Source\PSoC5/ADC_SAR_Seq_1_SAR.c **** *  Returns a 16-bit result for a conversion with a result that has a resolution
 532:Generated_Source\PSoC5/ADC_SAR_Seq_1_SAR.c **** *  of 8 to 12 bits.
 533:Generated_Source\PSoC5/ADC_SAR_Seq_1_SAR.c **** *  ADC_SAR_Seq_1_SAR_IsEndConversion() should be called to verify that the data
 534:Generated_Source\PSoC5/ADC_SAR_Seq_1_SAR.c **** *   sample is ready
 535:Generated_Source\PSoC5/ADC_SAR_Seq_1_SAR.c **** *
 536:Generated_Source\PSoC5/ADC_SAR_Seq_1_SAR.c **** * Parameters:
 537:Generated_Source\PSoC5/ADC_SAR_Seq_1_SAR.c **** *  None.
 538:Generated_Source\PSoC5/ADC_SAR_Seq_1_SAR.c **** *
 539:Generated_Source\PSoC5/ADC_SAR_Seq_1_SAR.c **** * Return:
 540:Generated_Source\PSoC5/ADC_SAR_Seq_1_SAR.c **** *  The 16-bit result of the last ADC conversion
 541:Generated_Source\PSoC5/ADC_SAR_Seq_1_SAR.c **** *
 542:Generated_Source\PSoC5/ADC_SAR_Seq_1_SAR.c **** * Global Variables:
 543:Generated_Source\PSoC5/ADC_SAR_Seq_1_SAR.c **** *  ADC_SAR_Seq_1_SAR_shift - used to convert the ADC counts to the 2s
 544:Generated_Source\PSoC5/ADC_SAR_Seq_1_SAR.c **** *  compliment form.
 545:Generated_Source\PSoC5/ADC_SAR_Seq_1_SAR.c **** *
 546:Generated_Source\PSoC5/ADC_SAR_Seq_1_SAR.c **** * Side Effects:
 547:Generated_Source\PSoC5/ADC_SAR_Seq_1_SAR.c **** *  Converts the ADC counts to the 2s complement form.
 548:Generated_Source\PSoC5/ADC_SAR_Seq_1_SAR.c **** *
 549:Generated_Source\PSoC5/ADC_SAR_Seq_1_SAR.c **** *******************************************************************************/
 550:Generated_Source\PSoC5/ADC_SAR_Seq_1_SAR.c **** int16 ADC_SAR_Seq_1_SAR_GetResult16( void )
 551:Generated_Source\PSoC5/ADC_SAR_Seq_1_SAR.c **** {
 669              		.loc 1 551 0
 670              		.cfi_startproc
 671              		@ args = 0, pretend = 0, frame = 8
 672              		@ frame_needed = 1, uses_anonymous_args = 0
 673              		@ link register save eliminated.
 674 0000 80B4     		push	{r7}
 675              		.cfi_def_cfa_offset 4
 676              		.cfi_offset 7, -4
 677 0002 83B0     		sub	sp, sp, #12
 678              		.cfi_def_cfa_offset 16
 679 0004 00AF     		add	r7, sp, #0
 680              		.cfi_def_cfa_register 7
 552:Generated_Source\PSoC5/ADC_SAR_Seq_1_SAR.c ****     uint16 res;
 553:Generated_Source\PSoC5/ADC_SAR_Seq_1_SAR.c **** 
 554:Generated_Source\PSoC5/ADC_SAR_Seq_1_SAR.c ****     res = CY_GET_REG16(ADC_SAR_Seq_1_SAR_SAR_WRK_PTR);
 681              		.loc 1 554 0
 682 0006 084B     		ldr	r3, .L45
 683 0008 1B88     		ldrh	r3, [r3]	@ movhi
 684 000a FB80     		strh	r3, [r7, #6]	@ movhi
 555:Generated_Source\PSoC5/ADC_SAR_Seq_1_SAR.c **** 
 556:Generated_Source\PSoC5/ADC_SAR_Seq_1_SAR.c ****     return( (int16)res - ADC_SAR_Seq_1_SAR_shift );
 685              		.loc 1 556 0
 686 000c 074B     		ldr	r3, .L45+4
 687 000e 1B88     		ldrh	r3, [r3]	@ movhi
 688 0010 1BB2     		sxth	r3, r3
 689 0012 9BB2     		uxth	r3, r3
 690 0014 FA88     		ldrh	r2, [r7, #6]	@ movhi
 691 0016 D31A     		subs	r3, r2, r3
 692 0018 9BB2     		uxth	r3, r3
 693 001a 1BB2     		sxth	r3, r3
 557:Generated_Source\PSoC5/ADC_SAR_Seq_1_SAR.c **** }
 694              		.loc 1 557 0
 695 001c 1846     		mov	r0, r3
 696 001e 0C37     		adds	r7, r7, #12
 697              		.cfi_def_cfa_offset 4
ARM GAS  C:\Users\JEFFSN~1\AppData\Local\Temp\ccuhjQR3.s 			page 23


 698 0020 BD46     		mov	sp, r7
 699              		.cfi_def_cfa_register 13
 700              		@ sp needed
 701 0022 80BC     		pop	{r7}
 702              		.cfi_restore 7
 703              		.cfi_def_cfa_offset 0
 704 0024 7047     		bx	lr
 705              	.L46:
 706 0026 00BF     		.align	2
 707              	.L45:
 708 0028 A25B0040 		.word	1073765282
 709 002c 00000000 		.word	ADC_SAR_Seq_1_SAR_shift
 710              		.cfi_endproc
 711              	.LFE10:
 712              		.size	ADC_SAR_Seq_1_SAR_GetResult16, .-ADC_SAR_Seq_1_SAR_GetResult16
 713              		.section	.text.ADC_SAR_Seq_1_SAR_SetOffset,"ax",%progbits
 714              		.align	2
 715              		.global	ADC_SAR_Seq_1_SAR_SetOffset
 716              		.thumb
 717              		.thumb_func
 718              		.type	ADC_SAR_Seq_1_SAR_SetOffset, %function
 719              	ADC_SAR_Seq_1_SAR_SetOffset:
 720              	.LFB11:
 558:Generated_Source\PSoC5/ADC_SAR_Seq_1_SAR.c **** 
 559:Generated_Source\PSoC5/ADC_SAR_Seq_1_SAR.c **** 
 560:Generated_Source\PSoC5/ADC_SAR_Seq_1_SAR.c **** /*******************************************************************************
 561:Generated_Source\PSoC5/ADC_SAR_Seq_1_SAR.c **** * Function Name: ADC_SAR_Seq_1_SAR_SetOffset
 562:Generated_Source\PSoC5/ADC_SAR_Seq_1_SAR.c **** ********************************************************************************
 563:Generated_Source\PSoC5/ADC_SAR_Seq_1_SAR.c **** *
 564:Generated_Source\PSoC5/ADC_SAR_Seq_1_SAR.c **** * Summary:
 565:Generated_Source\PSoC5/ADC_SAR_Seq_1_SAR.c **** *  Sets the ADC offset, which is used by ADC_SAR_Seq_1_SAR_CountsTo_Volts(),
 566:Generated_Source\PSoC5/ADC_SAR_Seq_1_SAR.c **** *  ADC_SAR_Seq_1_SAR_CountsTo_mVolts(), and ADC_SAR_Seq_1_SAR_CountsTo_uVolts()
 567:Generated_Source\PSoC5/ADC_SAR_Seq_1_SAR.c **** *  to subtract the offset from the given reading before calculating the voltage
 568:Generated_Source\PSoC5/ADC_SAR_Seq_1_SAR.c **** *  conversion.
 569:Generated_Source\PSoC5/ADC_SAR_Seq_1_SAR.c **** *
 570:Generated_Source\PSoC5/ADC_SAR_Seq_1_SAR.c **** * Parameters:
 571:Generated_Source\PSoC5/ADC_SAR_Seq_1_SAR.c **** *  int16: This value is measured when the inputs are shorted or connected to
 572:Generated_Source\PSoC5/ADC_SAR_Seq_1_SAR.c ****    the same input voltage.
 573:Generated_Source\PSoC5/ADC_SAR_Seq_1_SAR.c **** *
 574:Generated_Source\PSoC5/ADC_SAR_Seq_1_SAR.c **** * Return:
 575:Generated_Source\PSoC5/ADC_SAR_Seq_1_SAR.c **** *  None.
 576:Generated_Source\PSoC5/ADC_SAR_Seq_1_SAR.c **** *
 577:Generated_Source\PSoC5/ADC_SAR_Seq_1_SAR.c **** * Global Variables:
 578:Generated_Source\PSoC5/ADC_SAR_Seq_1_SAR.c **** *  The ADC_SAR_Seq_1_SAR_offset variable modified. This variable is used for
 579:Generated_Source\PSoC5/ADC_SAR_Seq_1_SAR.c **** *  offset calibration purpose.
 580:Generated_Source\PSoC5/ADC_SAR_Seq_1_SAR.c **** *  Affects the ADC_SAR_Seq_1_SAR_CountsTo_Volts,
 581:Generated_Source\PSoC5/ADC_SAR_Seq_1_SAR.c **** *  ADC_SAR_Seq_1_SAR_CountsTo_mVolts, ADC_SAR_Seq_1_SAR_CountsTo_uVolts functions
 582:Generated_Source\PSoC5/ADC_SAR_Seq_1_SAR.c **** *  by subtracting the given offset.
 583:Generated_Source\PSoC5/ADC_SAR_Seq_1_SAR.c **** *
 584:Generated_Source\PSoC5/ADC_SAR_Seq_1_SAR.c **** *******************************************************************************/
 585:Generated_Source\PSoC5/ADC_SAR_Seq_1_SAR.c **** void ADC_SAR_Seq_1_SAR_SetOffset(int16 offset)
 586:Generated_Source\PSoC5/ADC_SAR_Seq_1_SAR.c **** {
 721              		.loc 1 586 0
 722              		.cfi_startproc
 723              		@ args = 0, pretend = 0, frame = 8
 724              		@ frame_needed = 1, uses_anonymous_args = 0
 725              		@ link register save eliminated.
ARM GAS  C:\Users\JEFFSN~1\AppData\Local\Temp\ccuhjQR3.s 			page 24


 726 0000 80B4     		push	{r7}
 727              		.cfi_def_cfa_offset 4
 728              		.cfi_offset 7, -4
 729 0002 83B0     		sub	sp, sp, #12
 730              		.cfi_def_cfa_offset 16
 731 0004 00AF     		add	r7, sp, #0
 732              		.cfi_def_cfa_register 7
 733 0006 0346     		mov	r3, r0
 734 0008 FB80     		strh	r3, [r7, #6]	@ movhi
 587:Generated_Source\PSoC5/ADC_SAR_Seq_1_SAR.c ****     ADC_SAR_Seq_1_SAR_offset = offset;
 735              		.loc 1 587 0
 736 000a 044A     		ldr	r2, .L48
 737 000c FB88     		ldrh	r3, [r7, #6]	@ movhi
 738 000e 1380     		strh	r3, [r2]	@ movhi
 588:Generated_Source\PSoC5/ADC_SAR_Seq_1_SAR.c **** }
 739              		.loc 1 588 0
 740 0010 00BF     		nop
 741 0012 0C37     		adds	r7, r7, #12
 742              		.cfi_def_cfa_offset 4
 743 0014 BD46     		mov	sp, r7
 744              		.cfi_def_cfa_register 13
 745              		@ sp needed
 746 0016 80BC     		pop	{r7}
 747              		.cfi_restore 7
 748              		.cfi_def_cfa_offset 0
 749 0018 7047     		bx	lr
 750              	.L49:
 751 001a 00BF     		.align	2
 752              	.L48:
 753 001c 00000000 		.word	ADC_SAR_Seq_1_SAR_offset
 754              		.cfi_endproc
 755              	.LFE11:
 756              		.size	ADC_SAR_Seq_1_SAR_SetOffset, .-ADC_SAR_Seq_1_SAR_SetOffset
 757              		.section	.text.ADC_SAR_Seq_1_SAR_CalcGain,"ax",%progbits
 758              		.align	2
 759              		.thumb
 760              		.thumb_func
 761              		.type	ADC_SAR_Seq_1_SAR_CalcGain, %function
 762              	ADC_SAR_Seq_1_SAR_CalcGain:
 763              	.LFB12:
 589:Generated_Source\PSoC5/ADC_SAR_Seq_1_SAR.c **** 
 590:Generated_Source\PSoC5/ADC_SAR_Seq_1_SAR.c **** 
 591:Generated_Source\PSoC5/ADC_SAR_Seq_1_SAR.c **** /*******************************************************************************
 592:Generated_Source\PSoC5/ADC_SAR_Seq_1_SAR.c **** * Function Name: ADC_SAR_Seq_1_SAR_CalcGain
 593:Generated_Source\PSoC5/ADC_SAR_Seq_1_SAR.c **** ********************************************************************************
 594:Generated_Source\PSoC5/ADC_SAR_Seq_1_SAR.c **** *
 595:Generated_Source\PSoC5/ADC_SAR_Seq_1_SAR.c **** * Summary:
 596:Generated_Source\PSoC5/ADC_SAR_Seq_1_SAR.c **** *  This function calculates the ADC gain in counts per 10 volt.
 597:Generated_Source\PSoC5/ADC_SAR_Seq_1_SAR.c **** *
 598:Generated_Source\PSoC5/ADC_SAR_Seq_1_SAR.c **** * Parameters:
 599:Generated_Source\PSoC5/ADC_SAR_Seq_1_SAR.c **** *  uint8: resolution
 600:Generated_Source\PSoC5/ADC_SAR_Seq_1_SAR.c **** *
 601:Generated_Source\PSoC5/ADC_SAR_Seq_1_SAR.c **** * Return:
 602:Generated_Source\PSoC5/ADC_SAR_Seq_1_SAR.c **** *  None.
 603:Generated_Source\PSoC5/ADC_SAR_Seq_1_SAR.c **** *
 604:Generated_Source\PSoC5/ADC_SAR_Seq_1_SAR.c **** * Global Variables:
 605:Generated_Source\PSoC5/ADC_SAR_Seq_1_SAR.c **** *  ADC_SAR_Seq_1_SAR_shift variable initialized. This variable is used to
ARM GAS  C:\Users\JEFFSN~1\AppData\Local\Temp\ccuhjQR3.s 			page 25


 606:Generated_Source\PSoC5/ADC_SAR_Seq_1_SAR.c **** *  convert the ADC counts to the 2s compliment form.
 607:Generated_Source\PSoC5/ADC_SAR_Seq_1_SAR.c **** *  ADC_SAR_Seq_1_SAR_countsPer10Volt variable initialized. This variable is used
 608:Generated_Source\PSoC5/ADC_SAR_Seq_1_SAR.c **** *  for gain calibration purpose.
 609:Generated_Source\PSoC5/ADC_SAR_Seq_1_SAR.c **** *
 610:Generated_Source\PSoC5/ADC_SAR_Seq_1_SAR.c **** *******************************************************************************/
 611:Generated_Source\PSoC5/ADC_SAR_Seq_1_SAR.c **** static void ADC_SAR_Seq_1_SAR_CalcGain( uint8 resolution )
 612:Generated_Source\PSoC5/ADC_SAR_Seq_1_SAR.c **** {
 764              		.loc 1 612 0
 765              		.cfi_startproc
 766              		@ args = 0, pretend = 0, frame = 16
 767              		@ frame_needed = 1, uses_anonymous_args = 0
 768 0000 80B5     		push	{r7, lr}
 769              		.cfi_def_cfa_offset 8
 770              		.cfi_offset 7, -8
 771              		.cfi_offset 14, -4
 772 0002 84B0     		sub	sp, sp, #16
 773              		.cfi_def_cfa_offset 24
 774 0004 00AF     		add	r7, sp, #0
 775              		.cfi_def_cfa_register 7
 776 0006 0346     		mov	r3, r0
 777 0008 FB71     		strb	r3, [r7, #7]
 613:Generated_Source\PSoC5/ADC_SAR_Seq_1_SAR.c ****     int32 counts;
 614:Generated_Source\PSoC5/ADC_SAR_Seq_1_SAR.c ****     #if(!((ADC_SAR_Seq_1_SAR_DEFAULT_RANGE == ADC_SAR_Seq_1_SAR__VSS_TO_VREF) || \
 615:Generated_Source\PSoC5/ADC_SAR_Seq_1_SAR.c ****          (ADC_SAR_Seq_1_SAR_DEFAULT_RANGE == ADC_SAR_Seq_1_SAR__VSSA_TO_VDDA) || \
 616:Generated_Source\PSoC5/ADC_SAR_Seq_1_SAR.c ****          (ADC_SAR_Seq_1_SAR_DEFAULT_RANGE == ADC_SAR_Seq_1_SAR__VSSA_TO_VDAC)) )
 617:Generated_Source\PSoC5/ADC_SAR_Seq_1_SAR.c ****         uint16 diff_zero;
 618:Generated_Source\PSoC5/ADC_SAR_Seq_1_SAR.c ****     #endif /* End ADC_SAR_Seq_1_SAR_DEFAULT_RANGE */
 619:Generated_Source\PSoC5/ADC_SAR_Seq_1_SAR.c **** 
 620:Generated_Source\PSoC5/ADC_SAR_Seq_1_SAR.c ****     switch (resolution)
 778              		.loc 1 620 0
 779 000a FB79     		ldrb	r3, [r7, #7]	@ zero_extendqisi2
 780 000c 0A2B     		cmp	r3, #10
 781 000e 08D0     		beq	.L52
 782 0010 0C2B     		cmp	r3, #12
 783 0012 02D0     		beq	.L53
 784 0014 082B     		cmp	r3, #8
 785 0016 08D0     		beq	.L54
 786 0018 0BE0     		b	.L57
 787              	.L53:
 621:Generated_Source\PSoC5/ADC_SAR_Seq_1_SAR.c ****     {
 622:Generated_Source\PSoC5/ADC_SAR_Seq_1_SAR.c ****         case (uint8)ADC_SAR_Seq_1_SAR__BITS_12:
 623:Generated_Source\PSoC5/ADC_SAR_Seq_1_SAR.c ****             counts = (int32)ADC_SAR_Seq_1_SAR_SAR_WRK_MAX_12BIT;
 788              		.loc 1 623 0
 789 001a 4FF48053 		mov	r3, #4096
 790 001e FB60     		str	r3, [r7, #12]
 624:Generated_Source\PSoC5/ADC_SAR_Seq_1_SAR.c ****             #if(!((ADC_SAR_Seq_1_SAR_DEFAULT_RANGE == ADC_SAR_Seq_1_SAR__VSS_TO_VREF) || \
 625:Generated_Source\PSoC5/ADC_SAR_Seq_1_SAR.c ****                  (ADC_SAR_Seq_1_SAR_DEFAULT_RANGE == ADC_SAR_Seq_1_SAR__VSSA_TO_VDDA) || \
 626:Generated_Source\PSoC5/ADC_SAR_Seq_1_SAR.c ****                  (ADC_SAR_Seq_1_SAR_DEFAULT_RANGE == ADC_SAR_Seq_1_SAR__VSSA_TO_VDAC)) )
 627:Generated_Source\PSoC5/ADC_SAR_Seq_1_SAR.c ****                 diff_zero = ADC_SAR_Seq_1_SAR_SAR_DIFF_SHIFT;
 628:Generated_Source\PSoC5/ADC_SAR_Seq_1_SAR.c ****             #endif /* End ADC_SAR_Seq_1_SAR_DEFAULT_RANGE */
 629:Generated_Source\PSoC5/ADC_SAR_Seq_1_SAR.c ****             break;
 791              		.loc 1 629 0
 792 0020 0DE0     		b	.L55
 793              	.L52:
 630:Generated_Source\PSoC5/ADC_SAR_Seq_1_SAR.c ****         case (uint8)ADC_SAR_Seq_1_SAR__BITS_10:
 631:Generated_Source\PSoC5/ADC_SAR_Seq_1_SAR.c ****             counts = (int32)ADC_SAR_Seq_1_SAR_SAR_WRK_MAX_10BIT;
 794              		.loc 1 631 0
ARM GAS  C:\Users\JEFFSN~1\AppData\Local\Temp\ccuhjQR3.s 			page 26


 795 0022 4FF48063 		mov	r3, #1024
 796 0026 FB60     		str	r3, [r7, #12]
 632:Generated_Source\PSoC5/ADC_SAR_Seq_1_SAR.c ****             #if(!((ADC_SAR_Seq_1_SAR_DEFAULT_RANGE == ADC_SAR_Seq_1_SAR__VSS_TO_VREF) || \
 633:Generated_Source\PSoC5/ADC_SAR_Seq_1_SAR.c ****                  (ADC_SAR_Seq_1_SAR_DEFAULT_RANGE == ADC_SAR_Seq_1_SAR__VSSA_TO_VDDA) || \
 634:Generated_Source\PSoC5/ADC_SAR_Seq_1_SAR.c ****                  (ADC_SAR_Seq_1_SAR_DEFAULT_RANGE == ADC_SAR_Seq_1_SAR__VSSA_TO_VDAC)) )
 635:Generated_Source\PSoC5/ADC_SAR_Seq_1_SAR.c ****                 diff_zero = ADC_SAR_Seq_1_SAR_SAR_DIFF_SHIFT >> 2u;
 636:Generated_Source\PSoC5/ADC_SAR_Seq_1_SAR.c ****             #endif /* End ADC_SAR_Seq_1_SAR_DEFAULT_RANGE */
 637:Generated_Source\PSoC5/ADC_SAR_Seq_1_SAR.c ****             break;
 797              		.loc 1 637 0
 798 0028 09E0     		b	.L55
 799              	.L54:
 638:Generated_Source\PSoC5/ADC_SAR_Seq_1_SAR.c ****         case (uint8)ADC_SAR_Seq_1_SAR__BITS_8:
 639:Generated_Source\PSoC5/ADC_SAR_Seq_1_SAR.c ****             counts = (int32)ADC_SAR_Seq_1_SAR_SAR_WRK_MAX_8BIT;
 800              		.loc 1 639 0
 801 002a 4FF48073 		mov	r3, #256
 802 002e FB60     		str	r3, [r7, #12]
 640:Generated_Source\PSoC5/ADC_SAR_Seq_1_SAR.c ****             #if(!((ADC_SAR_Seq_1_SAR_DEFAULT_RANGE == ADC_SAR_Seq_1_SAR__VSS_TO_VREF) || \
 641:Generated_Source\PSoC5/ADC_SAR_Seq_1_SAR.c ****                  (ADC_SAR_Seq_1_SAR_DEFAULT_RANGE == ADC_SAR_Seq_1_SAR__VSSA_TO_VDDA) || \
 642:Generated_Source\PSoC5/ADC_SAR_Seq_1_SAR.c ****                  (ADC_SAR_Seq_1_SAR_DEFAULT_RANGE == ADC_SAR_Seq_1_SAR__VSSA_TO_VDAC)) )
 643:Generated_Source\PSoC5/ADC_SAR_Seq_1_SAR.c ****                 diff_zero = ADC_SAR_Seq_1_SAR_SAR_DIFF_SHIFT >> 4u;
 644:Generated_Source\PSoC5/ADC_SAR_Seq_1_SAR.c ****             #endif /* End ADC_SAR_Seq_1_SAR_DEFAULT_RANGE */
 645:Generated_Source\PSoC5/ADC_SAR_Seq_1_SAR.c ****             break;
 803              		.loc 1 645 0
 804 0030 05E0     		b	.L55
 805              	.L57:
 646:Generated_Source\PSoC5/ADC_SAR_Seq_1_SAR.c ****         default: /* Halt CPU in debug mode if resolution is out of valid range */
 647:Generated_Source\PSoC5/ADC_SAR_Seq_1_SAR.c ****             counts = 0;
 806              		.loc 1 647 0
 807 0032 0023     		movs	r3, #0
 808 0034 FB60     		str	r3, [r7, #12]
 648:Generated_Source\PSoC5/ADC_SAR_Seq_1_SAR.c ****             #if(!((ADC_SAR_Seq_1_SAR_DEFAULT_RANGE == ADC_SAR_Seq_1_SAR__VSS_TO_VREF) || \
 649:Generated_Source\PSoC5/ADC_SAR_Seq_1_SAR.c ****                  (ADC_SAR_Seq_1_SAR_DEFAULT_RANGE == ADC_SAR_Seq_1_SAR__VSSA_TO_VDDA) || \
 650:Generated_Source\PSoC5/ADC_SAR_Seq_1_SAR.c ****                  (ADC_SAR_Seq_1_SAR_DEFAULT_RANGE == ADC_SAR_Seq_1_SAR__VSSA_TO_VDAC)) )
 651:Generated_Source\PSoC5/ADC_SAR_Seq_1_SAR.c ****                 diff_zero = 0u;
 652:Generated_Source\PSoC5/ADC_SAR_Seq_1_SAR.c ****             #endif /* End ADC_SAR_Seq_1_SAR_DEFAULT_RANGE */
 653:Generated_Source\PSoC5/ADC_SAR_Seq_1_SAR.c ****             CYASSERT(0u != 0u);
 809              		.loc 1 653 0
 810 0036 0020     		movs	r0, #0
 811 0038 FFF7FEFF 		bl	CyHalt
 654:Generated_Source\PSoC5/ADC_SAR_Seq_1_SAR.c ****             break;
 812              		.loc 1 654 0
 813 003c 00BF     		nop
 814              	.L55:
 655:Generated_Source\PSoC5/ADC_SAR_Seq_1_SAR.c ****     }
 656:Generated_Source\PSoC5/ADC_SAR_Seq_1_SAR.c ****     ADC_SAR_Seq_1_SAR_countsPerVolt = 0; /* Clear obsolete variable */
 815              		.loc 1 656 0
 816 003e 0C4B     		ldr	r3, .L58
 817 0040 0022     		movs	r2, #0
 818 0042 1A80     		strh	r2, [r3]	@ movhi
 657:Generated_Source\PSoC5/ADC_SAR_Seq_1_SAR.c ****     /* Calculate gain in counts per 10 volts with rounding */
 658:Generated_Source\PSoC5/ADC_SAR_Seq_1_SAR.c ****     ADC_SAR_Seq_1_SAR_countsPer10Volt = (((counts * ADC_SAR_Seq_1_SAR_10MV_COUNTS) +
 819              		.loc 1 658 0
 820 0044 FB68     		ldr	r3, [r7, #12]
 821 0046 42F21072 		movw	r2, #10000
 822 004a 02FB03F3 		mul	r3, r2, r3
 823 004e 03F58063 		add	r3, r3, #1024
 659:Generated_Source\PSoC5/ADC_SAR_Seq_1_SAR.c ****                         ADC_SAR_Seq_1_SAR_DEFAULT_REF_VOLTAGE_MV) / (ADC_SAR_Seq_1_SAR_DEFAULT_REF_
ARM GAS  C:\Users\JEFFSN~1\AppData\Local\Temp\ccuhjQR3.s 			page 27


 824              		.loc 1 659 0
 825 0052 002B     		cmp	r3, #0
 826 0054 01DA     		bge	.L56
 827 0056 03F2FF73 		addw	r3, r3, #2047
 828              	.L56:
 829 005a DB12     		asrs	r3, r3, #11
 830 005c 1A46     		mov	r2, r3
 658:Generated_Source\PSoC5/ADC_SAR_Seq_1_SAR.c ****                         ADC_SAR_Seq_1_SAR_DEFAULT_REF_VOLTAGE_MV) / (ADC_SAR_Seq_1_SAR_DEFAULT_REF_
 831              		.loc 1 658 0
 832 005e 054B     		ldr	r3, .L58+4
 833 0060 1A60     		str	r2, [r3]
 660:Generated_Source\PSoC5/ADC_SAR_Seq_1_SAR.c **** 
 661:Generated_Source\PSoC5/ADC_SAR_Seq_1_SAR.c ****     #if( (ADC_SAR_Seq_1_SAR_DEFAULT_RANGE == ADC_SAR_Seq_1_SAR__VSS_TO_VREF) || \
 662:Generated_Source\PSoC5/ADC_SAR_Seq_1_SAR.c ****          (ADC_SAR_Seq_1_SAR_DEFAULT_RANGE == ADC_SAR_Seq_1_SAR__VSSA_TO_VDDA) || \
 663:Generated_Source\PSoC5/ADC_SAR_Seq_1_SAR.c ****          (ADC_SAR_Seq_1_SAR_DEFAULT_RANGE == ADC_SAR_Seq_1_SAR__VSSA_TO_VDAC) )
 664:Generated_Source\PSoC5/ADC_SAR_Seq_1_SAR.c ****         ADC_SAR_Seq_1_SAR_shift = 0;
 834              		.loc 1 664 0
 835 0062 054B     		ldr	r3, .L58+8
 836 0064 0022     		movs	r2, #0
 837 0066 1A80     		strh	r2, [r3]	@ movhi
 665:Generated_Source\PSoC5/ADC_SAR_Seq_1_SAR.c ****     #else
 666:Generated_Source\PSoC5/ADC_SAR_Seq_1_SAR.c ****         ADC_SAR_Seq_1_SAR_shift = diff_zero;
 667:Generated_Source\PSoC5/ADC_SAR_Seq_1_SAR.c ****     #endif /* End ADC_SAR_Seq_1_SAR_DEFAULT_RANGE */
 668:Generated_Source\PSoC5/ADC_SAR_Seq_1_SAR.c **** }
 838              		.loc 1 668 0
 839 0068 00BF     		nop
 840 006a 1037     		adds	r7, r7, #16
 841              		.cfi_def_cfa_offset 8
 842 006c BD46     		mov	sp, r7
 843              		.cfi_def_cfa_register 13
 844              		@ sp needed
 845 006e 80BD     		pop	{r7, pc}
 846              	.L59:
 847              		.align	2
 848              	.L58:
 849 0070 00000000 		.word	ADC_SAR_Seq_1_SAR_countsPerVolt
 850 0074 00000000 		.word	ADC_SAR_Seq_1_SAR_countsPer10Volt
 851 0078 00000000 		.word	ADC_SAR_Seq_1_SAR_shift
 852              		.cfi_endproc
 853              	.LFE12:
 854              		.size	ADC_SAR_Seq_1_SAR_CalcGain, .-ADC_SAR_Seq_1_SAR_CalcGain
 855              		.section	.text.ADC_SAR_Seq_1_SAR_SetGain,"ax",%progbits
 856              		.align	2
 857              		.global	ADC_SAR_Seq_1_SAR_SetGain
 858              		.thumb
 859              		.thumb_func
 860              		.type	ADC_SAR_Seq_1_SAR_SetGain, %function
 861              	ADC_SAR_Seq_1_SAR_SetGain:
 862              	.LFB13:
 669:Generated_Source\PSoC5/ADC_SAR_Seq_1_SAR.c **** 
 670:Generated_Source\PSoC5/ADC_SAR_Seq_1_SAR.c **** 
 671:Generated_Source\PSoC5/ADC_SAR_Seq_1_SAR.c **** /*******************************************************************************
 672:Generated_Source\PSoC5/ADC_SAR_Seq_1_SAR.c **** * Function Name: ADC_SAR_Seq_1_SAR_SetGain
 673:Generated_Source\PSoC5/ADC_SAR_Seq_1_SAR.c **** ********************************************************************************
 674:Generated_Source\PSoC5/ADC_SAR_Seq_1_SAR.c **** *
 675:Generated_Source\PSoC5/ADC_SAR_Seq_1_SAR.c **** * Summary:
 676:Generated_Source\PSoC5/ADC_SAR_Seq_1_SAR.c **** *  Sets the ADC gain in counts per volt for the voltage conversion functions
ARM GAS  C:\Users\JEFFSN~1\AppData\Local\Temp\ccuhjQR3.s 			page 28


 677:Generated_Source\PSoC5/ADC_SAR_Seq_1_SAR.c **** *  that follow. This value is set by default by the reference and input range
 678:Generated_Source\PSoC5/ADC_SAR_Seq_1_SAR.c **** *  settings. It should only be used to further calibrate the ADC with a known
 679:Generated_Source\PSoC5/ADC_SAR_Seq_1_SAR.c **** *  input or if the ADC is using an external reference.
 680:Generated_Source\PSoC5/ADC_SAR_Seq_1_SAR.c **** *
 681:Generated_Source\PSoC5/ADC_SAR_Seq_1_SAR.c **** * Parameters:
 682:Generated_Source\PSoC5/ADC_SAR_Seq_1_SAR.c **** *  int16 adcGain counts per volt
 683:Generated_Source\PSoC5/ADC_SAR_Seq_1_SAR.c **** *
 684:Generated_Source\PSoC5/ADC_SAR_Seq_1_SAR.c **** * Return:
 685:Generated_Source\PSoC5/ADC_SAR_Seq_1_SAR.c **** *  None.
 686:Generated_Source\PSoC5/ADC_SAR_Seq_1_SAR.c **** *
 687:Generated_Source\PSoC5/ADC_SAR_Seq_1_SAR.c **** * Global Variables:
 688:Generated_Source\PSoC5/ADC_SAR_Seq_1_SAR.c **** *  ADC_SAR_Seq_1_SAR_countsPer10Volt variable modified. This variable is used
 689:Generated_Source\PSoC5/ADC_SAR_Seq_1_SAR.c **** *  for gain calibration purpose.
 690:Generated_Source\PSoC5/ADC_SAR_Seq_1_SAR.c **** *
 691:Generated_Source\PSoC5/ADC_SAR_Seq_1_SAR.c **** *******************************************************************************/
 692:Generated_Source\PSoC5/ADC_SAR_Seq_1_SAR.c **** void ADC_SAR_Seq_1_SAR_SetGain(int16 adcGain)
 693:Generated_Source\PSoC5/ADC_SAR_Seq_1_SAR.c **** {
 863              		.loc 1 693 0
 864              		.cfi_startproc
 865              		@ args = 0, pretend = 0, frame = 8
 866              		@ frame_needed = 1, uses_anonymous_args = 0
 867              		@ link register save eliminated.
 868 0000 80B4     		push	{r7}
 869              		.cfi_def_cfa_offset 4
 870              		.cfi_offset 7, -4
 871 0002 83B0     		sub	sp, sp, #12
 872              		.cfi_def_cfa_offset 16
 873 0004 00AF     		add	r7, sp, #0
 874              		.cfi_def_cfa_register 7
 875 0006 0346     		mov	r3, r0
 876 0008 FB80     		strh	r3, [r7, #6]	@ movhi
 694:Generated_Source\PSoC5/ADC_SAR_Seq_1_SAR.c ****     ADC_SAR_Seq_1_SAR_countsPer10Volt = (int32)adcGain * 10;
 877              		.loc 1 694 0
 878 000a B7F90620 		ldrsh	r2, [r7, #6]
 879 000e 1346     		mov	r3, r2
 880 0010 9B00     		lsls	r3, r3, #2
 881 0012 1344     		add	r3, r3, r2
 882 0014 5B00     		lsls	r3, r3, #1
 883 0016 1A46     		mov	r2, r3
 884 0018 034B     		ldr	r3, .L61
 885 001a 1A60     		str	r2, [r3]
 695:Generated_Source\PSoC5/ADC_SAR_Seq_1_SAR.c **** }
 886              		.loc 1 695 0
 887 001c 00BF     		nop
 888 001e 0C37     		adds	r7, r7, #12
 889              		.cfi_def_cfa_offset 4
 890 0020 BD46     		mov	sp, r7
 891              		.cfi_def_cfa_register 13
 892              		@ sp needed
 893 0022 80BC     		pop	{r7}
 894              		.cfi_restore 7
 895              		.cfi_def_cfa_offset 0
 896 0024 7047     		bx	lr
 897              	.L62:
 898 0026 00BF     		.align	2
 899              	.L61:
 900 0028 00000000 		.word	ADC_SAR_Seq_1_SAR_countsPer10Volt
ARM GAS  C:\Users\JEFFSN~1\AppData\Local\Temp\ccuhjQR3.s 			page 29


 901              		.cfi_endproc
 902              	.LFE13:
 903              		.size	ADC_SAR_Seq_1_SAR_SetGain, .-ADC_SAR_Seq_1_SAR_SetGain
 904              		.section	.text.ADC_SAR_Seq_1_SAR_SetScaledGain,"ax",%progbits
 905              		.align	2
 906              		.global	ADC_SAR_Seq_1_SAR_SetScaledGain
 907              		.thumb
 908              		.thumb_func
 909              		.type	ADC_SAR_Seq_1_SAR_SetScaledGain, %function
 910              	ADC_SAR_Seq_1_SAR_SetScaledGain:
 911              	.LFB14:
 696:Generated_Source\PSoC5/ADC_SAR_Seq_1_SAR.c **** 
 697:Generated_Source\PSoC5/ADC_SAR_Seq_1_SAR.c **** 
 698:Generated_Source\PSoC5/ADC_SAR_Seq_1_SAR.c **** /*******************************************************************************
 699:Generated_Source\PSoC5/ADC_SAR_Seq_1_SAR.c **** * Function Name: ADC_SAR_Seq_1_SAR_SetScaledGain
 700:Generated_Source\PSoC5/ADC_SAR_Seq_1_SAR.c **** ********************************************************************************
 701:Generated_Source\PSoC5/ADC_SAR_Seq_1_SAR.c **** *
 702:Generated_Source\PSoC5/ADC_SAR_Seq_1_SAR.c **** * Summary:
 703:Generated_Source\PSoC5/ADC_SAR_Seq_1_SAR.c **** *  Sets the ADC gain in counts per 10 volt for the voltage conversion functions
 704:Generated_Source\PSoC5/ADC_SAR_Seq_1_SAR.c **** *  that follow. This value is set by default by the reference and input range
 705:Generated_Source\PSoC5/ADC_SAR_Seq_1_SAR.c **** *  settings. It should only be used to further calibrate the ADC with a known
 706:Generated_Source\PSoC5/ADC_SAR_Seq_1_SAR.c **** *  input or if the ADC is using an external reference.
 707:Generated_Source\PSoC5/ADC_SAR_Seq_1_SAR.c **** *
 708:Generated_Source\PSoC5/ADC_SAR_Seq_1_SAR.c **** * Parameters:
 709:Generated_Source\PSoC5/ADC_SAR_Seq_1_SAR.c **** *  int32 adcGain  counts per 10 volt
 710:Generated_Source\PSoC5/ADC_SAR_Seq_1_SAR.c **** *
 711:Generated_Source\PSoC5/ADC_SAR_Seq_1_SAR.c **** * Return:
 712:Generated_Source\PSoC5/ADC_SAR_Seq_1_SAR.c **** *  None.
 713:Generated_Source\PSoC5/ADC_SAR_Seq_1_SAR.c **** *
 714:Generated_Source\PSoC5/ADC_SAR_Seq_1_SAR.c **** * Global Variables:
 715:Generated_Source\PSoC5/ADC_SAR_Seq_1_SAR.c **** *  ADC_SAR_Seq_1_SAR_countsPer10Volt variable modified. This variable is used
 716:Generated_Source\PSoC5/ADC_SAR_Seq_1_SAR.c **** *  for gain calibration purpose.
 717:Generated_Source\PSoC5/ADC_SAR_Seq_1_SAR.c **** *
 718:Generated_Source\PSoC5/ADC_SAR_Seq_1_SAR.c **** *******************************************************************************/
 719:Generated_Source\PSoC5/ADC_SAR_Seq_1_SAR.c **** void ADC_SAR_Seq_1_SAR_SetScaledGain(int32 adcGain)
 720:Generated_Source\PSoC5/ADC_SAR_Seq_1_SAR.c **** {
 912              		.loc 1 720 0
 913              		.cfi_startproc
 914              		@ args = 0, pretend = 0, frame = 8
 915              		@ frame_needed = 1, uses_anonymous_args = 0
 916              		@ link register save eliminated.
 917 0000 80B4     		push	{r7}
 918              		.cfi_def_cfa_offset 4
 919              		.cfi_offset 7, -4
 920 0002 83B0     		sub	sp, sp, #12
 921              		.cfi_def_cfa_offset 16
 922 0004 00AF     		add	r7, sp, #0
 923              		.cfi_def_cfa_register 7
 924 0006 7860     		str	r0, [r7, #4]
 721:Generated_Source\PSoC5/ADC_SAR_Seq_1_SAR.c ****     ADC_SAR_Seq_1_SAR_countsPer10Volt = adcGain;
 925              		.loc 1 721 0
 926 0008 034A     		ldr	r2, .L64
 927 000a 7B68     		ldr	r3, [r7, #4]
 928 000c 1360     		str	r3, [r2]
 722:Generated_Source\PSoC5/ADC_SAR_Seq_1_SAR.c **** }
 929              		.loc 1 722 0
 930 000e 00BF     		nop
ARM GAS  C:\Users\JEFFSN~1\AppData\Local\Temp\ccuhjQR3.s 			page 30


 931 0010 0C37     		adds	r7, r7, #12
 932              		.cfi_def_cfa_offset 4
 933 0012 BD46     		mov	sp, r7
 934              		.cfi_def_cfa_register 13
 935              		@ sp needed
 936 0014 80BC     		pop	{r7}
 937              		.cfi_restore 7
 938              		.cfi_def_cfa_offset 0
 939 0016 7047     		bx	lr
 940              	.L65:
 941              		.align	2
 942              	.L64:
 943 0018 00000000 		.word	ADC_SAR_Seq_1_SAR_countsPer10Volt
 944              		.cfi_endproc
 945              	.LFE14:
 946              		.size	ADC_SAR_Seq_1_SAR_SetScaledGain, .-ADC_SAR_Seq_1_SAR_SetScaledGain
 947              		.section	.text.ADC_SAR_Seq_1_SAR_CountsTo_mVolts,"ax",%progbits
 948              		.align	2
 949              		.global	ADC_SAR_Seq_1_SAR_CountsTo_mVolts
 950              		.thumb
 951              		.thumb_func
 952              		.type	ADC_SAR_Seq_1_SAR_CountsTo_mVolts, %function
 953              	ADC_SAR_Seq_1_SAR_CountsTo_mVolts:
 954              	.LFB15:
 723:Generated_Source\PSoC5/ADC_SAR_Seq_1_SAR.c **** 
 724:Generated_Source\PSoC5/ADC_SAR_Seq_1_SAR.c **** 
 725:Generated_Source\PSoC5/ADC_SAR_Seq_1_SAR.c **** /*******************************************************************************
 726:Generated_Source\PSoC5/ADC_SAR_Seq_1_SAR.c **** * Function Name: ADC_SAR_Seq_1_SAR_CountsTo_mVolts
 727:Generated_Source\PSoC5/ADC_SAR_Seq_1_SAR.c **** ********************************************************************************
 728:Generated_Source\PSoC5/ADC_SAR_Seq_1_SAR.c **** *
 729:Generated_Source\PSoC5/ADC_SAR_Seq_1_SAR.c **** * Summary:
 730:Generated_Source\PSoC5/ADC_SAR_Seq_1_SAR.c **** *  Converts the ADC output to millivolts as a 16-bit integer.
 731:Generated_Source\PSoC5/ADC_SAR_Seq_1_SAR.c **** *
 732:Generated_Source\PSoC5/ADC_SAR_Seq_1_SAR.c **** * Parameters:
 733:Generated_Source\PSoC5/ADC_SAR_Seq_1_SAR.c **** *  int16 adcCounts:  Result from the ADC conversion
 734:Generated_Source\PSoC5/ADC_SAR_Seq_1_SAR.c **** *
 735:Generated_Source\PSoC5/ADC_SAR_Seq_1_SAR.c **** * Return:
 736:Generated_Source\PSoC5/ADC_SAR_Seq_1_SAR.c **** *  int16 Result in mVolts
 737:Generated_Source\PSoC5/ADC_SAR_Seq_1_SAR.c **** *
 738:Generated_Source\PSoC5/ADC_SAR_Seq_1_SAR.c **** * Global Variables:
 739:Generated_Source\PSoC5/ADC_SAR_Seq_1_SAR.c **** *  ADC_SAR_Seq_1_SAR_offset variable used.
 740:Generated_Source\PSoC5/ADC_SAR_Seq_1_SAR.c **** *  ADC_SAR_Seq_1_SAR_countsPer10Volt variable used.
 741:Generated_Source\PSoC5/ADC_SAR_Seq_1_SAR.c **** *
 742:Generated_Source\PSoC5/ADC_SAR_Seq_1_SAR.c **** *******************************************************************************/
 743:Generated_Source\PSoC5/ADC_SAR_Seq_1_SAR.c **** int16 ADC_SAR_Seq_1_SAR_CountsTo_mVolts(int16 adcCounts)
 744:Generated_Source\PSoC5/ADC_SAR_Seq_1_SAR.c **** {
 955              		.loc 1 744 0
 956              		.cfi_startproc
 957              		@ args = 0, pretend = 0, frame = 16
 958              		@ frame_needed = 1, uses_anonymous_args = 0
 959              		@ link register save eliminated.
 960 0000 80B4     		push	{r7}
 961              		.cfi_def_cfa_offset 4
 962              		.cfi_offset 7, -4
 963 0002 85B0     		sub	sp, sp, #20
 964              		.cfi_def_cfa_offset 24
 965 0004 00AF     		add	r7, sp, #0
ARM GAS  C:\Users\JEFFSN~1\AppData\Local\Temp\ccuhjQR3.s 			page 31


 966              		.cfi_def_cfa_register 7
 967 0006 0346     		mov	r3, r0
 968 0008 FB80     		strh	r3, [r7, #6]	@ movhi
 745:Generated_Source\PSoC5/ADC_SAR_Seq_1_SAR.c ****     int16 mVolts;
 746:Generated_Source\PSoC5/ADC_SAR_Seq_1_SAR.c ****     int32 countsPer10Volt;
 747:Generated_Source\PSoC5/ADC_SAR_Seq_1_SAR.c **** 
 748:Generated_Source\PSoC5/ADC_SAR_Seq_1_SAR.c ****     if(ADC_SAR_Seq_1_SAR_countsPerVolt != 0)
 969              		.loc 1 748 0
 970 000a 1D4B     		ldr	r3, .L72
 971 000c 1B88     		ldrh	r3, [r3]	@ movhi
 972 000e 1BB2     		sxth	r3, r3
 973 0010 002B     		cmp	r3, #0
 974 0012 09D0     		beq	.L67
 749:Generated_Source\PSoC5/ADC_SAR_Seq_1_SAR.c ****     {   /* Support obsolete method */
 750:Generated_Source\PSoC5/ADC_SAR_Seq_1_SAR.c ****         countsPer10Volt = (int32)ADC_SAR_Seq_1_SAR_countsPerVolt * 10;
 975              		.loc 1 750 0
 976 0014 1A4B     		ldr	r3, .L72
 977 0016 1B88     		ldrh	r3, [r3]	@ movhi
 978 0018 1BB2     		sxth	r3, r3
 979 001a 1A46     		mov	r2, r3
 980 001c 1346     		mov	r3, r2
 981 001e 9B00     		lsls	r3, r3, #2
 982 0020 1344     		add	r3, r3, r2
 983 0022 5B00     		lsls	r3, r3, #1
 984 0024 FB60     		str	r3, [r7, #12]
 985 0026 02E0     		b	.L68
 986              	.L67:
 751:Generated_Source\PSoC5/ADC_SAR_Seq_1_SAR.c ****     }
 752:Generated_Source\PSoC5/ADC_SAR_Seq_1_SAR.c ****     else
 753:Generated_Source\PSoC5/ADC_SAR_Seq_1_SAR.c ****     {
 754:Generated_Source\PSoC5/ADC_SAR_Seq_1_SAR.c ****         countsPer10Volt = ADC_SAR_Seq_1_SAR_countsPer10Volt;
 987              		.loc 1 754 0
 988 0028 164B     		ldr	r3, .L72+4
 989 002a 1B68     		ldr	r3, [r3]
 990 002c FB60     		str	r3, [r7, #12]
 991              	.L68:
 755:Generated_Source\PSoC5/ADC_SAR_Seq_1_SAR.c ****     }
 756:Generated_Source\PSoC5/ADC_SAR_Seq_1_SAR.c **** 
 757:Generated_Source\PSoC5/ADC_SAR_Seq_1_SAR.c ****     /* Subtract ADC offset */
 758:Generated_Source\PSoC5/ADC_SAR_Seq_1_SAR.c ****     adcCounts -= ADC_SAR_Seq_1_SAR_offset;
 992              		.loc 1 758 0
 993 002e 164B     		ldr	r3, .L72+8
 994 0030 1B88     		ldrh	r3, [r3]	@ movhi
 995 0032 1BB2     		sxth	r3, r3
 996 0034 FA88     		ldrh	r2, [r7, #6]
 997 0036 9BB2     		uxth	r3, r3
 998 0038 D31A     		subs	r3, r2, r3
 999 003a 9BB2     		uxth	r3, r3
 1000 003c FB80     		strh	r3, [r7, #6]	@ movhi
 759:Generated_Source\PSoC5/ADC_SAR_Seq_1_SAR.c ****     /* Convert to millivolts with rounding */
 760:Generated_Source\PSoC5/ADC_SAR_Seq_1_SAR.c ****     mVolts = (int16)( (( (int32)adcCounts * ADC_SAR_Seq_1_SAR_10MV_COUNTS ) + ( (adcCounts > 0) ?
 1001              		.loc 1 760 0
 1002 003e B7F90630 		ldrsh	r3, [r7, #6]
 1003 0042 42F21072 		movw	r2, #10000
 1004 0046 02FB03F2 		mul	r2, r2, r3
 761:Generated_Source\PSoC5/ADC_SAR_Seq_1_SAR.c ****                        (countsPer10Volt / 2) : (-(countsPer10Volt / 2)) )) / countsPer10Volt);
 1005              		.loc 1 761 0
ARM GAS  C:\Users\JEFFSN~1\AppData\Local\Temp\ccuhjQR3.s 			page 32


 1006 004a B7F90630 		ldrsh	r3, [r7, #6]
 1007 004e 002B     		cmp	r3, #0
 1008 0050 04DD     		ble	.L69
 1009              		.loc 1 761 0 is_stmt 0 discriminator 1
 1010 0052 FB68     		ldr	r3, [r7, #12]
 1011 0054 D90F     		lsrs	r1, r3, #31
 1012 0056 0B44     		add	r3, r3, r1
 1013 0058 5B10     		asrs	r3, r3, #1
 1014 005a 04E0     		b	.L70
 1015              	.L69:
 1016              		.loc 1 761 0 discriminator 2
 1017 005c FB68     		ldr	r3, [r7, #12]
 1018 005e D90F     		lsrs	r1, r3, #31
 1019 0060 0B44     		add	r3, r3, r1
 1020 0062 5B10     		asrs	r3, r3, #1
 1021 0064 5B42     		negs	r3, r3
 1022              	.L70:
 760:Generated_Source\PSoC5/ADC_SAR_Seq_1_SAR.c ****                        (countsPer10Volt / 2) : (-(countsPer10Volt / 2)) )) / countsPer10Volt);
 1023              		.loc 1 760 0 is_stmt 1
 1024 0066 1A44     		add	r2, r2, r3
 1025              		.loc 1 761 0
 1026 0068 FB68     		ldr	r3, [r7, #12]
 1027 006a 92FBF3F3 		sdiv	r3, r2, r3
 760:Generated_Source\PSoC5/ADC_SAR_Seq_1_SAR.c ****                        (countsPer10Volt / 2) : (-(countsPer10Volt / 2)) )) / countsPer10Volt);
 1028              		.loc 1 760 0
 1029 006e 7B81     		strh	r3, [r7, #10]	@ movhi
 762:Generated_Source\PSoC5/ADC_SAR_Seq_1_SAR.c **** 
 763:Generated_Source\PSoC5/ADC_SAR_Seq_1_SAR.c ****     return( mVolts );
 1030              		.loc 1 763 0
 1031 0070 B7F90A30 		ldrsh	r3, [r7, #10]
 764:Generated_Source\PSoC5/ADC_SAR_Seq_1_SAR.c **** }
 1032              		.loc 1 764 0
 1033 0074 1846     		mov	r0, r3
 1034 0076 1437     		adds	r7, r7, #20
 1035              		.cfi_def_cfa_offset 4
 1036 0078 BD46     		mov	sp, r7
 1037              		.cfi_def_cfa_register 13
 1038              		@ sp needed
 1039 007a 80BC     		pop	{r7}
 1040              		.cfi_restore 7
 1041              		.cfi_def_cfa_offset 0
 1042 007c 7047     		bx	lr
 1043              	.L73:
 1044 007e 00BF     		.align	2
 1045              	.L72:
 1046 0080 00000000 		.word	ADC_SAR_Seq_1_SAR_countsPerVolt
 1047 0084 00000000 		.word	ADC_SAR_Seq_1_SAR_countsPer10Volt
 1048 0088 00000000 		.word	ADC_SAR_Seq_1_SAR_offset
 1049              		.cfi_endproc
 1050              	.LFE15:
 1051              		.size	ADC_SAR_Seq_1_SAR_CountsTo_mVolts, .-ADC_SAR_Seq_1_SAR_CountsTo_mVolts
 1052              		.global	__aeabi_ldivmod
 1053              		.section	.text.ADC_SAR_Seq_1_SAR_CountsTo_uVolts,"ax",%progbits
 1054              		.align	2
 1055              		.global	ADC_SAR_Seq_1_SAR_CountsTo_uVolts
 1056              		.thumb
 1057              		.thumb_func
ARM GAS  C:\Users\JEFFSN~1\AppData\Local\Temp\ccuhjQR3.s 			page 33


 1058              		.type	ADC_SAR_Seq_1_SAR_CountsTo_uVolts, %function
 1059              	ADC_SAR_Seq_1_SAR_CountsTo_uVolts:
 1060              	.LFB16:
 765:Generated_Source\PSoC5/ADC_SAR_Seq_1_SAR.c **** 
 766:Generated_Source\PSoC5/ADC_SAR_Seq_1_SAR.c **** 
 767:Generated_Source\PSoC5/ADC_SAR_Seq_1_SAR.c **** /*******************************************************************************
 768:Generated_Source\PSoC5/ADC_SAR_Seq_1_SAR.c **** * Function Name: ADC_SAR_Seq_1_SAR_CountsTo_uVolts
 769:Generated_Source\PSoC5/ADC_SAR_Seq_1_SAR.c **** ********************************************************************************
 770:Generated_Source\PSoC5/ADC_SAR_Seq_1_SAR.c **** *
 771:Generated_Source\PSoC5/ADC_SAR_Seq_1_SAR.c **** * Summary:
 772:Generated_Source\PSoC5/ADC_SAR_Seq_1_SAR.c **** *  Converts the ADC output to microvolts as a 32-bit integer.
 773:Generated_Source\PSoC5/ADC_SAR_Seq_1_SAR.c **** *
 774:Generated_Source\PSoC5/ADC_SAR_Seq_1_SAR.c **** * Parameters:
 775:Generated_Source\PSoC5/ADC_SAR_Seq_1_SAR.c **** *  int16 adcCounts: Result from the ADC conversion
 776:Generated_Source\PSoC5/ADC_SAR_Seq_1_SAR.c **** *
 777:Generated_Source\PSoC5/ADC_SAR_Seq_1_SAR.c **** * Return:
 778:Generated_Source\PSoC5/ADC_SAR_Seq_1_SAR.c **** *  int32 Result in micro Volts
 779:Generated_Source\PSoC5/ADC_SAR_Seq_1_SAR.c **** *
 780:Generated_Source\PSoC5/ADC_SAR_Seq_1_SAR.c **** * Global Variables:
 781:Generated_Source\PSoC5/ADC_SAR_Seq_1_SAR.c **** *  ADC_SAR_Seq_1_SAR_offset variable used.
 782:Generated_Source\PSoC5/ADC_SAR_Seq_1_SAR.c **** *  ADC_SAR_Seq_1_SAR_countsPer10Volt used to convert ADC counts to uVolts.
 783:Generated_Source\PSoC5/ADC_SAR_Seq_1_SAR.c **** *
 784:Generated_Source\PSoC5/ADC_SAR_Seq_1_SAR.c **** *******************************************************************************/
 785:Generated_Source\PSoC5/ADC_SAR_Seq_1_SAR.c **** int32 ADC_SAR_Seq_1_SAR_CountsTo_uVolts(int16 adcCounts)
 786:Generated_Source\PSoC5/ADC_SAR_Seq_1_SAR.c **** {
 1061              		.loc 1 786 0
 1062              		.cfi_startproc
 1063              		@ args = 0, pretend = 0, frame = 24
 1064              		@ frame_needed = 1, uses_anonymous_args = 0
 1065 0000 90B5     		push	{r4, r7, lr}
 1066              		.cfi_def_cfa_offset 12
 1067              		.cfi_offset 4, -12
 1068              		.cfi_offset 7, -8
 1069              		.cfi_offset 14, -4
 1070 0002 87B0     		sub	sp, sp, #28
 1071              		.cfi_def_cfa_offset 40
 1072 0004 00AF     		add	r7, sp, #0
 1073              		.cfi_def_cfa_register 7
 1074 0006 0346     		mov	r3, r0
 1075 0008 FB80     		strh	r3, [r7, #6]	@ movhi
 787:Generated_Source\PSoC5/ADC_SAR_Seq_1_SAR.c **** 
 788:Generated_Source\PSoC5/ADC_SAR_Seq_1_SAR.c ****     int64 uVolts;
 789:Generated_Source\PSoC5/ADC_SAR_Seq_1_SAR.c ****     int32 countsPer10Volt;
 790:Generated_Source\PSoC5/ADC_SAR_Seq_1_SAR.c **** 
 791:Generated_Source\PSoC5/ADC_SAR_Seq_1_SAR.c ****     if(ADC_SAR_Seq_1_SAR_countsPerVolt != 0)
 1076              		.loc 1 791 0
 1077 000a 1D4B     		ldr	r3, .L78
 1078 000c 1B88     		ldrh	r3, [r3]	@ movhi
 1079 000e 1BB2     		sxth	r3, r3
 1080 0010 002B     		cmp	r3, #0
 1081 0012 09D0     		beq	.L75
 792:Generated_Source\PSoC5/ADC_SAR_Seq_1_SAR.c ****     {   /* Support obsolete method */
 793:Generated_Source\PSoC5/ADC_SAR_Seq_1_SAR.c ****         countsPer10Volt = (int32)ADC_SAR_Seq_1_SAR_countsPerVolt * 10;
 1082              		.loc 1 793 0
 1083 0014 1A4B     		ldr	r3, .L78
 1084 0016 1B88     		ldrh	r3, [r3]	@ movhi
 1085 0018 1BB2     		sxth	r3, r3
ARM GAS  C:\Users\JEFFSN~1\AppData\Local\Temp\ccuhjQR3.s 			page 34


 1086 001a 1A46     		mov	r2, r3
 1087 001c 1346     		mov	r3, r2
 1088 001e 9B00     		lsls	r3, r3, #2
 1089 0020 1344     		add	r3, r3, r2
 1090 0022 5B00     		lsls	r3, r3, #1
 1091 0024 7B61     		str	r3, [r7, #20]
 1092 0026 02E0     		b	.L76
 1093              	.L75:
 794:Generated_Source\PSoC5/ADC_SAR_Seq_1_SAR.c ****     }
 795:Generated_Source\PSoC5/ADC_SAR_Seq_1_SAR.c ****     else
 796:Generated_Source\PSoC5/ADC_SAR_Seq_1_SAR.c ****     {
 797:Generated_Source\PSoC5/ADC_SAR_Seq_1_SAR.c ****         countsPer10Volt = ADC_SAR_Seq_1_SAR_countsPer10Volt;
 1094              		.loc 1 797 0
 1095 0028 164B     		ldr	r3, .L78+4
 1096 002a 1B68     		ldr	r3, [r3]
 1097 002c 7B61     		str	r3, [r7, #20]
 1098              	.L76:
 798:Generated_Source\PSoC5/ADC_SAR_Seq_1_SAR.c ****     }
 799:Generated_Source\PSoC5/ADC_SAR_Seq_1_SAR.c **** 
 800:Generated_Source\PSoC5/ADC_SAR_Seq_1_SAR.c ****     /* Subtract ADC offset */
 801:Generated_Source\PSoC5/ADC_SAR_Seq_1_SAR.c ****     adcCounts -= ADC_SAR_Seq_1_SAR_offset;
 1099              		.loc 1 801 0
 1100 002e 164B     		ldr	r3, .L78+8
 1101 0030 1B88     		ldrh	r3, [r3]	@ movhi
 1102 0032 1BB2     		sxth	r3, r3
 1103 0034 FA88     		ldrh	r2, [r7, #6]
 1104 0036 9BB2     		uxth	r3, r3
 1105 0038 D31A     		subs	r3, r2, r3
 1106 003a 9BB2     		uxth	r3, r3
 1107 003c FB80     		strh	r3, [r7, #6]	@ movhi
 802:Generated_Source\PSoC5/ADC_SAR_Seq_1_SAR.c ****     /* To convert adcCounts to microVolts it is required to be multiplied
 803:Generated_Source\PSoC5/ADC_SAR_Seq_1_SAR.c ****     *  on 10 million and later divide on gain in counts per 10V.
 804:Generated_Source\PSoC5/ADC_SAR_Seq_1_SAR.c ****     */
 805:Generated_Source\PSoC5/ADC_SAR_Seq_1_SAR.c ****     uVolts = (( (int64)adcCounts * ADC_SAR_Seq_1_SAR_10UV_COUNTS ) / countsPer10Volt);
 1108              		.loc 1 805 0
 1109 003e B7F90630 		ldrsh	r3, [r7, #6]
 1110 0042 4FEAE374 		asr	r4, r3, #31
 1111 0046 114A     		ldr	r2, .L78+12
 1112 0048 02FB04F1 		mul	r1, r2, r4
 1113 004c 0022     		movs	r2, #0
 1114 004e 02FB03F2 		mul	r2, r2, r3
 1115 0052 0A44     		add	r2, r2, r1
 1116 0054 0D49     		ldr	r1, .L78+12
 1117 0056 A3FB0101 		umull	r0, r1, r3, r1
 1118 005a 5318     		adds	r3, r2, r1
 1119 005c 1946     		mov	r1, r3
 1120 005e 7B69     		ldr	r3, [r7, #20]
 1121 0060 4FEAE374 		asr	r4, r3, #31
 1122 0064 1A46     		mov	r2, r3
 1123 0066 2346     		mov	r3, r4
 1124 0068 FFF7FEFF 		bl	__aeabi_ldivmod
 1125 006c 0346     		mov	r3, r0
 1126 006e 0C46     		mov	r4, r1
 1127 0070 C7E90234 		strd	r3, [r7, #8]
 806:Generated_Source\PSoC5/ADC_SAR_Seq_1_SAR.c **** 
 807:Generated_Source\PSoC5/ADC_SAR_Seq_1_SAR.c ****     return((int32) uVolts );
 1128              		.loc 1 807 0
ARM GAS  C:\Users\JEFFSN~1\AppData\Local\Temp\ccuhjQR3.s 			page 35


 1129 0074 BB68     		ldr	r3, [r7, #8]
 808:Generated_Source\PSoC5/ADC_SAR_Seq_1_SAR.c **** }
 1130              		.loc 1 808 0
 1131 0076 1846     		mov	r0, r3
 1132 0078 1C37     		adds	r7, r7, #28
 1133              		.cfi_def_cfa_offset 12
 1134 007a BD46     		mov	sp, r7
 1135              		.cfi_def_cfa_register 13
 1136              		@ sp needed
 1137 007c 90BD     		pop	{r4, r7, pc}
 1138              	.L79:
 1139 007e 00BF     		.align	2
 1140              	.L78:
 1141 0080 00000000 		.word	ADC_SAR_Seq_1_SAR_countsPerVolt
 1142 0084 00000000 		.word	ADC_SAR_Seq_1_SAR_countsPer10Volt
 1143 0088 00000000 		.word	ADC_SAR_Seq_1_SAR_offset
 1144 008c 80969800 		.word	10000000
 1145              		.cfi_endproc
 1146              	.LFE16:
 1147              		.size	ADC_SAR_Seq_1_SAR_CountsTo_uVolts, .-ADC_SAR_Seq_1_SAR_CountsTo_uVolts
 1148              		.global	__aeabi_i2f
 1149              		.global	__aeabi_fmul
 1150              		.global	__aeabi_fdiv
 1151              		.section	.text.ADC_SAR_Seq_1_SAR_CountsTo_Volts,"ax",%progbits
 1152              		.align	2
 1153              		.global	ADC_SAR_Seq_1_SAR_CountsTo_Volts
 1154              		.thumb
 1155              		.thumb_func
 1156              		.type	ADC_SAR_Seq_1_SAR_CountsTo_Volts, %function
 1157              	ADC_SAR_Seq_1_SAR_CountsTo_Volts:
 1158              	.LFB17:
 809:Generated_Source\PSoC5/ADC_SAR_Seq_1_SAR.c **** 
 810:Generated_Source\PSoC5/ADC_SAR_Seq_1_SAR.c **** 
 811:Generated_Source\PSoC5/ADC_SAR_Seq_1_SAR.c **** /*******************************************************************************
 812:Generated_Source\PSoC5/ADC_SAR_Seq_1_SAR.c **** * Function Name: ADC_SAR_Seq_1_SAR_CountsTo_Volts
 813:Generated_Source\PSoC5/ADC_SAR_Seq_1_SAR.c **** ********************************************************************************
 814:Generated_Source\PSoC5/ADC_SAR_Seq_1_SAR.c **** *
 815:Generated_Source\PSoC5/ADC_SAR_Seq_1_SAR.c **** * Summary:
 816:Generated_Source\PSoC5/ADC_SAR_Seq_1_SAR.c **** *  Converts the ADC output to volts as a floating-point number.
 817:Generated_Source\PSoC5/ADC_SAR_Seq_1_SAR.c **** *
 818:Generated_Source\PSoC5/ADC_SAR_Seq_1_SAR.c **** * Parameters:
 819:Generated_Source\PSoC5/ADC_SAR_Seq_1_SAR.c **** *  int16 adcCounts: Result from the ADC conversion
 820:Generated_Source\PSoC5/ADC_SAR_Seq_1_SAR.c **** *
 821:Generated_Source\PSoC5/ADC_SAR_Seq_1_SAR.c **** * Return:
 822:Generated_Source\PSoC5/ADC_SAR_Seq_1_SAR.c **** *  float Result in Volts
 823:Generated_Source\PSoC5/ADC_SAR_Seq_1_SAR.c **** *
 824:Generated_Source\PSoC5/ADC_SAR_Seq_1_SAR.c **** * Global Variables:
 825:Generated_Source\PSoC5/ADC_SAR_Seq_1_SAR.c **** *  ADC_SAR_Seq_1_SAR_offset variable used.
 826:Generated_Source\PSoC5/ADC_SAR_Seq_1_SAR.c **** *  ADC_SAR_Seq_1_SAR_countsPer10Volt used to convert ADC counts to Volts.
 827:Generated_Source\PSoC5/ADC_SAR_Seq_1_SAR.c **** *
 828:Generated_Source\PSoC5/ADC_SAR_Seq_1_SAR.c **** *******************************************************************************/
 829:Generated_Source\PSoC5/ADC_SAR_Seq_1_SAR.c **** float32 ADC_SAR_Seq_1_SAR_CountsTo_Volts(int16 adcCounts)
 830:Generated_Source\PSoC5/ADC_SAR_Seq_1_SAR.c **** {
 1159              		.loc 1 830 0
 1160              		.cfi_startproc
 1161              		@ args = 0, pretend = 0, frame = 16
 1162              		@ frame_needed = 1, uses_anonymous_args = 0
ARM GAS  C:\Users\JEFFSN~1\AppData\Local\Temp\ccuhjQR3.s 			page 36


 1163 0000 90B5     		push	{r4, r7, lr}
 1164              		.cfi_def_cfa_offset 12
 1165              		.cfi_offset 4, -12
 1166              		.cfi_offset 7, -8
 1167              		.cfi_offset 14, -4
 1168 0002 85B0     		sub	sp, sp, #20
 1169              		.cfi_def_cfa_offset 32
 1170 0004 00AF     		add	r7, sp, #0
 1171              		.cfi_def_cfa_register 7
 1172 0006 0346     		mov	r3, r0
 1173 0008 FB80     		strh	r3, [r7, #6]	@ movhi
 831:Generated_Source\PSoC5/ADC_SAR_Seq_1_SAR.c ****     float32 volts;
 832:Generated_Source\PSoC5/ADC_SAR_Seq_1_SAR.c ****     int32 countsPer10Volt;
 833:Generated_Source\PSoC5/ADC_SAR_Seq_1_SAR.c **** 
 834:Generated_Source\PSoC5/ADC_SAR_Seq_1_SAR.c ****     if(ADC_SAR_Seq_1_SAR_countsPerVolt != 0)
 1174              		.loc 1 834 0
 1175 000a 1A4B     		ldr	r3, .L84
 1176 000c 1B88     		ldrh	r3, [r3]	@ movhi
 1177 000e 1BB2     		sxth	r3, r3
 1178 0010 002B     		cmp	r3, #0
 1179 0012 09D0     		beq	.L81
 835:Generated_Source\PSoC5/ADC_SAR_Seq_1_SAR.c ****     {   /* Support obsolete method */
 836:Generated_Source\PSoC5/ADC_SAR_Seq_1_SAR.c ****         countsPer10Volt = (int32)ADC_SAR_Seq_1_SAR_countsPerVolt * 10;
 1180              		.loc 1 836 0
 1181 0014 174B     		ldr	r3, .L84
 1182 0016 1B88     		ldrh	r3, [r3]	@ movhi
 1183 0018 1BB2     		sxth	r3, r3
 1184 001a 1A46     		mov	r2, r3
 1185 001c 1346     		mov	r3, r2
 1186 001e 9B00     		lsls	r3, r3, #2
 1187 0020 1344     		add	r3, r3, r2
 1188 0022 5B00     		lsls	r3, r3, #1
 1189 0024 FB60     		str	r3, [r7, #12]
 1190 0026 02E0     		b	.L82
 1191              	.L81:
 837:Generated_Source\PSoC5/ADC_SAR_Seq_1_SAR.c ****     }
 838:Generated_Source\PSoC5/ADC_SAR_Seq_1_SAR.c ****     else
 839:Generated_Source\PSoC5/ADC_SAR_Seq_1_SAR.c ****     {
 840:Generated_Source\PSoC5/ADC_SAR_Seq_1_SAR.c ****         countsPer10Volt = ADC_SAR_Seq_1_SAR_countsPer10Volt;
 1192              		.loc 1 840 0
 1193 0028 134B     		ldr	r3, .L84+4
 1194 002a 1B68     		ldr	r3, [r3]
 1195 002c FB60     		str	r3, [r7, #12]
 1196              	.L82:
 841:Generated_Source\PSoC5/ADC_SAR_Seq_1_SAR.c ****     }
 842:Generated_Source\PSoC5/ADC_SAR_Seq_1_SAR.c **** 
 843:Generated_Source\PSoC5/ADC_SAR_Seq_1_SAR.c ****     /* Subtract ADC offset */
 844:Generated_Source\PSoC5/ADC_SAR_Seq_1_SAR.c ****     adcCounts -= ADC_SAR_Seq_1_SAR_offset;
 1197              		.loc 1 844 0
 1198 002e 134B     		ldr	r3, .L84+8
 1199 0030 1B88     		ldrh	r3, [r3]	@ movhi
 1200 0032 1BB2     		sxth	r3, r3
 1201 0034 FA88     		ldrh	r2, [r7, #6]
 1202 0036 9BB2     		uxth	r3, r3
 1203 0038 D31A     		subs	r3, r2, r3
 1204 003a 9BB2     		uxth	r3, r3
 1205 003c FB80     		strh	r3, [r7, #6]	@ movhi
ARM GAS  C:\Users\JEFFSN~1\AppData\Local\Temp\ccuhjQR3.s 			page 37


 845:Generated_Source\PSoC5/ADC_SAR_Seq_1_SAR.c **** 
 846:Generated_Source\PSoC5/ADC_SAR_Seq_1_SAR.c ****     volts = ((float32)adcCounts * ADC_SAR_Seq_1_SAR_10V_COUNTS) / (float32)countsPer10Volt;
 1206              		.loc 1 846 0
 1207 003e B7F90630 		ldrsh	r3, [r7, #6]
 1208 0042 1846     		mov	r0, r3
 1209 0044 FFF7FEFF 		bl	__aeabi_i2f
 1210 0048 0346     		mov	r3, r0
 1211 004a 0D49     		ldr	r1, .L84+12
 1212 004c 1846     		mov	r0, r3
 1213 004e FFF7FEFF 		bl	__aeabi_fmul
 1214 0052 0346     		mov	r3, r0
 1215 0054 1C46     		mov	r4, r3
 1216 0056 F868     		ldr	r0, [r7, #12]
 1217 0058 FFF7FEFF 		bl	__aeabi_i2f
 1218 005c 0346     		mov	r3, r0
 1219 005e 1946     		mov	r1, r3
 1220 0060 2046     		mov	r0, r4
 1221 0062 FFF7FEFF 		bl	__aeabi_fdiv
 1222 0066 0346     		mov	r3, r0
 1223 0068 BB60     		str	r3, [r7, #8]	@ float
 847:Generated_Source\PSoC5/ADC_SAR_Seq_1_SAR.c **** 
 848:Generated_Source\PSoC5/ADC_SAR_Seq_1_SAR.c ****     return( volts );
 1224              		.loc 1 848 0
 1225 006a BB68     		ldr	r3, [r7, #8]	@ float
 849:Generated_Source\PSoC5/ADC_SAR_Seq_1_SAR.c **** }
 1226              		.loc 1 849 0
 1227 006c 1846     		mov	r0, r3
 1228 006e 1437     		adds	r7, r7, #20
 1229              		.cfi_def_cfa_offset 12
 1230 0070 BD46     		mov	sp, r7
 1231              		.cfi_def_cfa_register 13
 1232              		@ sp needed
 1233 0072 90BD     		pop	{r4, r7, pc}
 1234              	.L85:
 1235              		.align	2
 1236              	.L84:
 1237 0074 00000000 		.word	ADC_SAR_Seq_1_SAR_countsPerVolt
 1238 0078 00000000 		.word	ADC_SAR_Seq_1_SAR_countsPer10Volt
 1239 007c 00000000 		.word	ADC_SAR_Seq_1_SAR_offset
 1240 0080 00002041 		.word	1092616192
 1241              		.cfi_endproc
 1242              	.LFE17:
 1243              		.size	ADC_SAR_Seq_1_SAR_CountsTo_Volts, .-ADC_SAR_Seq_1_SAR_CountsTo_Volts
 1244              		.text
 1245              	.Letext0:
 1246              		.file 2 "Generated_Source\\PSoC5\\cytypes.h"