ARM GAS  C:\Users\JEFFSN~1\AppData\Local\Temp\cc26AX0u.s 			page 1


   1              		.syntax unified
   2              		.cpu cortex-m3
   3              		.fpu softvfp
   4              		.eabi_attribute 20, 1
   5              		.eabi_attribute 21, 1
   6              		.eabi_attribute 23, 3
   7              		.eabi_attribute 24, 1
   8              		.eabi_attribute 25, 1
   9              		.eabi_attribute 26, 1
  10              		.eabi_attribute 30, 6
  11              		.eabi_attribute 34, 1
  12              		.eabi_attribute 18, 4
  13              		.thumb
  14              		.syntax unified
  15              		.file	"ADC_SAR_Seq_1_PM.c"
  16              		.text
  17              	.Ltext0:
  18              		.cfi_sections	.debug_frame
  19              		.section	.text.ADC_SAR_Seq_1_Sleep,"ax",%progbits
  20              		.align	2
  21              		.global	ADC_SAR_Seq_1_Sleep
  22              		.thumb
  23              		.thumb_func
  24              		.type	ADC_SAR_Seq_1_Sleep, %function
  25              	ADC_SAR_Seq_1_Sleep:
  26              	.LFB0:
  27              		.file 1 "Generated_Source\\PSoC5\\ADC_SAR_Seq_1_PM.c"
   1:Generated_Source\PSoC5/ADC_SAR_Seq_1_PM.c **** /*******************************************************************************
   2:Generated_Source\PSoC5/ADC_SAR_Seq_1_PM.c **** * File Name: ADC_SAR_Seq_1_PM.c
   3:Generated_Source\PSoC5/ADC_SAR_Seq_1_PM.c **** * Version 2.10
   4:Generated_Source\PSoC5/ADC_SAR_Seq_1_PM.c **** *
   5:Generated_Source\PSoC5/ADC_SAR_Seq_1_PM.c **** * Description:
   6:Generated_Source\PSoC5/ADC_SAR_Seq_1_PM.c **** *  This file contains the setup, control and status commands to support
   7:Generated_Source\PSoC5/ADC_SAR_Seq_1_PM.c **** *  component operations in low power mode.
   8:Generated_Source\PSoC5/ADC_SAR_Seq_1_PM.c **** *
   9:Generated_Source\PSoC5/ADC_SAR_Seq_1_PM.c **** * Note:
  10:Generated_Source\PSoC5/ADC_SAR_Seq_1_PM.c **** *
  11:Generated_Source\PSoC5/ADC_SAR_Seq_1_PM.c **** ********************************************************************************
  12:Generated_Source\PSoC5/ADC_SAR_Seq_1_PM.c **** * Copyright 2012-2015, Cypress Semiconductor Corporation.  All rights reserved.
  13:Generated_Source\PSoC5/ADC_SAR_Seq_1_PM.c **** * You may use this file only in accordance with the license, terms, conditions,
  14:Generated_Source\PSoC5/ADC_SAR_Seq_1_PM.c **** * disclaimers, and limitations in the end user license agreement accompanying
  15:Generated_Source\PSoC5/ADC_SAR_Seq_1_PM.c **** * the software package with which this file was provided.
  16:Generated_Source\PSoC5/ADC_SAR_Seq_1_PM.c **** *******************************************************************************/
  17:Generated_Source\PSoC5/ADC_SAR_Seq_1_PM.c **** 
  18:Generated_Source\PSoC5/ADC_SAR_Seq_1_PM.c **** #include "ADC_SAR_Seq_1.h"
  19:Generated_Source\PSoC5/ADC_SAR_Seq_1_PM.c **** #include "ADC_SAR_Seq_1_SAR.h"
  20:Generated_Source\PSoC5/ADC_SAR_Seq_1_PM.c **** #if(ADC_SAR_Seq_1_CLOCK_SOURCE == ADC_SAR_Seq_1_CLOCK_INTERNAL)
  21:Generated_Source\PSoC5/ADC_SAR_Seq_1_PM.c ****     #include "ADC_SAR_Seq_1_IntClock.h"
  22:Generated_Source\PSoC5/ADC_SAR_Seq_1_PM.c **** #endif   /* ADC_SAR_Seq_1_CLOCK_SOURCE == ADC_SAR_Seq_1_CLOCK_INTERNAL */
  23:Generated_Source\PSoC5/ADC_SAR_Seq_1_PM.c **** 
  24:Generated_Source\PSoC5/ADC_SAR_Seq_1_PM.c **** 
  25:Generated_Source\PSoC5/ADC_SAR_Seq_1_PM.c **** /*******************************************************************************
  26:Generated_Source\PSoC5/ADC_SAR_Seq_1_PM.c **** * Function Name: ADC_SAR_Seq_1_Sleep
  27:Generated_Source\PSoC5/ADC_SAR_Seq_1_PM.c **** ********************************************************************************
  28:Generated_Source\PSoC5/ADC_SAR_Seq_1_PM.c **** *
  29:Generated_Source\PSoC5/ADC_SAR_Seq_1_PM.c **** * Summary:
  30:Generated_Source\PSoC5/ADC_SAR_Seq_1_PM.c **** *  Stops the ADC operation and saves the configuration registers and component
ARM GAS  C:\Users\JEFFSN~1\AppData\Local\Temp\cc26AX0u.s 			page 2


  31:Generated_Source\PSoC5/ADC_SAR_Seq_1_PM.c **** *  enable state. Should be called just prior to entering sleep
  32:Generated_Source\PSoC5/ADC_SAR_Seq_1_PM.c **** *
  33:Generated_Source\PSoC5/ADC_SAR_Seq_1_PM.c **** * Parameters:
  34:Generated_Source\PSoC5/ADC_SAR_Seq_1_PM.c **** *  None.
  35:Generated_Source\PSoC5/ADC_SAR_Seq_1_PM.c **** *
  36:Generated_Source\PSoC5/ADC_SAR_Seq_1_PM.c **** * Return:
  37:Generated_Source\PSoC5/ADC_SAR_Seq_1_PM.c **** *  None.
  38:Generated_Source\PSoC5/ADC_SAR_Seq_1_PM.c **** *
  39:Generated_Source\PSoC5/ADC_SAR_Seq_1_PM.c **** * Side Effects:
  40:Generated_Source\PSoC5/ADC_SAR_Seq_1_PM.c **** *  None.
  41:Generated_Source\PSoC5/ADC_SAR_Seq_1_PM.c **** *
  42:Generated_Source\PSoC5/ADC_SAR_Seq_1_PM.c **** * Reentrant:
  43:Generated_Source\PSoC5/ADC_SAR_Seq_1_PM.c **** *  No.
  44:Generated_Source\PSoC5/ADC_SAR_Seq_1_PM.c **** *
  45:Generated_Source\PSoC5/ADC_SAR_Seq_1_PM.c **** *******************************************************************************/
  46:Generated_Source\PSoC5/ADC_SAR_Seq_1_PM.c **** void ADC_SAR_Seq_1_Sleep(void)
  47:Generated_Source\PSoC5/ADC_SAR_Seq_1_PM.c **** {
  28              		.loc 1 47 0
  29              		.cfi_startproc
  30              		@ args = 0, pretend = 0, frame = 0
  31              		@ frame_needed = 1, uses_anonymous_args = 0
  32 0000 80B5     		push	{r7, lr}
  33              		.cfi_def_cfa_offset 8
  34              		.cfi_offset 7, -8
  35              		.cfi_offset 14, -4
  36 0002 00AF     		add	r7, sp, #0
  37              		.cfi_def_cfa_register 7
  48:Generated_Source\PSoC5/ADC_SAR_Seq_1_PM.c ****     ADC_SAR_Seq_1_SAR_Stop();
  38              		.loc 1 48 0
  39 0004 FFF7FEFF 		bl	ADC_SAR_Seq_1_SAR_Stop
  49:Generated_Source\PSoC5/ADC_SAR_Seq_1_PM.c ****     ADC_SAR_Seq_1_SAR_Sleep();
  40              		.loc 1 49 0
  41 0008 FFF7FEFF 		bl	ADC_SAR_Seq_1_SAR_Sleep
  50:Generated_Source\PSoC5/ADC_SAR_Seq_1_PM.c ****     ADC_SAR_Seq_1_Disable();
  42              		.loc 1 50 0
  43 000c FFF7FEFF 		bl	ADC_SAR_Seq_1_Disable
  51:Generated_Source\PSoC5/ADC_SAR_Seq_1_PM.c **** 
  52:Generated_Source\PSoC5/ADC_SAR_Seq_1_PM.c ****     #if(ADC_SAR_Seq_1_CLOCK_SOURCE == ADC_SAR_Seq_1_CLOCK_INTERNAL)
  53:Generated_Source\PSoC5/ADC_SAR_Seq_1_PM.c ****         ADC_SAR_Seq_1_IntClock_Stop();
  54:Generated_Source\PSoC5/ADC_SAR_Seq_1_PM.c ****     #endif   /* ADC_SAR_Seq_1_CLOCK_SOURCE == ADC_SAR_Seq_1_CLOCK_INTERNAL */
  55:Generated_Source\PSoC5/ADC_SAR_Seq_1_PM.c **** }
  44              		.loc 1 55 0
  45 0010 00BF     		nop
  46 0012 80BD     		pop	{r7, pc}
  47              		.cfi_endproc
  48              	.LFE0:
  49              		.size	ADC_SAR_Seq_1_Sleep, .-ADC_SAR_Seq_1_Sleep
  50              		.section	.text.ADC_SAR_Seq_1_Wakeup,"ax",%progbits
  51              		.align	2
  52              		.global	ADC_SAR_Seq_1_Wakeup
  53              		.thumb
  54              		.thumb_func
  55              		.type	ADC_SAR_Seq_1_Wakeup, %function
  56              	ADC_SAR_Seq_1_Wakeup:
  57              	.LFB1:
  56:Generated_Source\PSoC5/ADC_SAR_Seq_1_PM.c **** 
  57:Generated_Source\PSoC5/ADC_SAR_Seq_1_PM.c **** 
ARM GAS  C:\Users\JEFFSN~1\AppData\Local\Temp\cc26AX0u.s 			page 3


  58:Generated_Source\PSoC5/ADC_SAR_Seq_1_PM.c **** /*******************************************************************************
  59:Generated_Source\PSoC5/ADC_SAR_Seq_1_PM.c **** * Function Name: ADC_SAR_Seq_1_Wakeup
  60:Generated_Source\PSoC5/ADC_SAR_Seq_1_PM.c **** ********************************************************************************
  61:Generated_Source\PSoC5/ADC_SAR_Seq_1_PM.c **** *
  62:Generated_Source\PSoC5/ADC_SAR_Seq_1_PM.c **** * Summary:
  63:Generated_Source\PSoC5/ADC_SAR_Seq_1_PM.c **** *  Restores the component enable state and configuration registers. This should
  64:Generated_Source\PSoC5/ADC_SAR_Seq_1_PM.c **** *  be called just after awaking from sleep mode
  65:Generated_Source\PSoC5/ADC_SAR_Seq_1_PM.c **** *
  66:Generated_Source\PSoC5/ADC_SAR_Seq_1_PM.c **** * Parameters:
  67:Generated_Source\PSoC5/ADC_SAR_Seq_1_PM.c **** *  None.
  68:Generated_Source\PSoC5/ADC_SAR_Seq_1_PM.c **** *
  69:Generated_Source\PSoC5/ADC_SAR_Seq_1_PM.c **** * Return:
  70:Generated_Source\PSoC5/ADC_SAR_Seq_1_PM.c **** *  None.
  71:Generated_Source\PSoC5/ADC_SAR_Seq_1_PM.c **** *
  72:Generated_Source\PSoC5/ADC_SAR_Seq_1_PM.c **** * Side Effects:
  73:Generated_Source\PSoC5/ADC_SAR_Seq_1_PM.c **** *  None.
  74:Generated_Source\PSoC5/ADC_SAR_Seq_1_PM.c **** *
  75:Generated_Source\PSoC5/ADC_SAR_Seq_1_PM.c **** * Reentrant:
  76:Generated_Source\PSoC5/ADC_SAR_Seq_1_PM.c **** *  No.
  77:Generated_Source\PSoC5/ADC_SAR_Seq_1_PM.c **** *
  78:Generated_Source\PSoC5/ADC_SAR_Seq_1_PM.c **** *******************************************************************************/
  79:Generated_Source\PSoC5/ADC_SAR_Seq_1_PM.c **** void ADC_SAR_Seq_1_Wakeup(void)
  80:Generated_Source\PSoC5/ADC_SAR_Seq_1_PM.c **** {
  58              		.loc 1 80 0
  59              		.cfi_startproc
  60              		@ args = 0, pretend = 0, frame = 0
  61              		@ frame_needed = 1, uses_anonymous_args = 0
  62 0000 80B5     		push	{r7, lr}
  63              		.cfi_def_cfa_offset 8
  64              		.cfi_offset 7, -8
  65              		.cfi_offset 14, -4
  66 0002 00AF     		add	r7, sp, #0
  67              		.cfi_def_cfa_register 7
  81:Generated_Source\PSoC5/ADC_SAR_Seq_1_PM.c ****     ADC_SAR_Seq_1_SAR_Wakeup();
  68              		.loc 1 81 0
  69 0004 FFF7FEFF 		bl	ADC_SAR_Seq_1_SAR_Wakeup
  82:Generated_Source\PSoC5/ADC_SAR_Seq_1_PM.c ****     ADC_SAR_Seq_1_SAR_Enable();
  70              		.loc 1 82 0
  71 0008 FFF7FEFF 		bl	ADC_SAR_Seq_1_SAR_Enable
  83:Generated_Source\PSoC5/ADC_SAR_Seq_1_PM.c **** 
  84:Generated_Source\PSoC5/ADC_SAR_Seq_1_PM.c ****     #if(ADC_SAR_Seq_1_CLOCK_SOURCE == ADC_SAR_Seq_1_CLOCK_INTERNAL)
  85:Generated_Source\PSoC5/ADC_SAR_Seq_1_PM.c ****         ADC_SAR_Seq_1_IntClock_Start();
  86:Generated_Source\PSoC5/ADC_SAR_Seq_1_PM.c ****     #endif   /* ADC_SAR_Seq_1_CLOCK_SOURCE == ADC_SAR_Seq_1_CLOCK_INTERNAL */
  87:Generated_Source\PSoC5/ADC_SAR_Seq_1_PM.c **** 
  88:Generated_Source\PSoC5/ADC_SAR_Seq_1_PM.c ****     /* The block is ready to use 10 us after the SAR enable signal is set high. */
  89:Generated_Source\PSoC5/ADC_SAR_Seq_1_PM.c ****     CyDelayUs(10u);
  72              		.loc 1 89 0
  73 000c 0A20     		movs	r0, #10
  74 000e FFF7FEFF 		bl	CyDelayUs
  90:Generated_Source\PSoC5/ADC_SAR_Seq_1_PM.c ****     
  91:Generated_Source\PSoC5/ADC_SAR_Seq_1_PM.c ****     ADC_SAR_Seq_1_Enable();
  75              		.loc 1 91 0
  76 0012 FFF7FEFF 		bl	ADC_SAR_Seq_1_Enable
  92:Generated_Source\PSoC5/ADC_SAR_Seq_1_PM.c **** 
  93:Generated_Source\PSoC5/ADC_SAR_Seq_1_PM.c ****     #if(ADC_SAR_Seq_1_SAMPLE_MODE == ADC_SAR_Seq_1_SAMPLE_MODE_FREE_RUNNING)
  94:Generated_Source\PSoC5/ADC_SAR_Seq_1_PM.c ****         ADC_SAR_Seq_1_SAR_StartConvert();
  95:Generated_Source\PSoC5/ADC_SAR_Seq_1_PM.c ****     #endif /* (ADC_SAR_Seq_1_SAMPLE_MODE == ADC_SAR_Seq_1_SAMPLE_MODE_FREE_RUNNING) */
ARM GAS  C:\Users\JEFFSN~1\AppData\Local\Temp\cc26AX0u.s 			page 4


  96:Generated_Source\PSoC5/ADC_SAR_Seq_1_PM.c **** 
  97:Generated_Source\PSoC5/ADC_SAR_Seq_1_PM.c ****     (void) CY_GET_REG8(ADC_SAR_Seq_1_STATUS_PTR);
  77              		.loc 1 97 0
  78 0016 024B     		ldr	r3, .L3
  79 0018 1B78     		ldrb	r3, [r3]
  98:Generated_Source\PSoC5/ADC_SAR_Seq_1_PM.c **** }
  80              		.loc 1 98 0
  81 001a 00BF     		nop
  82 001c 80BD     		pop	{r7, pc}
  83              	.L4:
  84 001e 00BF     		.align	2
  85              	.L3:
  86 0020 6B640040 		.word	1073767531
  87              		.cfi_endproc
  88              	.LFE1:
  89              		.size	ADC_SAR_Seq_1_Wakeup, .-ADC_SAR_Seq_1_Wakeup
  90              		.section	.text.ADC_SAR_Seq_1_SaveConfig,"ax",%progbits
  91              		.align	2
  92              		.global	ADC_SAR_Seq_1_SaveConfig
  93              		.thumb
  94              		.thumb_func
  95              		.type	ADC_SAR_Seq_1_SaveConfig, %function
  96              	ADC_SAR_Seq_1_SaveConfig:
  97              	.LFB2:
  99:Generated_Source\PSoC5/ADC_SAR_Seq_1_PM.c **** 
 100:Generated_Source\PSoC5/ADC_SAR_Seq_1_PM.c **** 
 101:Generated_Source\PSoC5/ADC_SAR_Seq_1_PM.c **** /*******************************************************************************
 102:Generated_Source\PSoC5/ADC_SAR_Seq_1_PM.c **** * Function Name: ADC_SAR_Seq_1_SaveConfig
 103:Generated_Source\PSoC5/ADC_SAR_Seq_1_PM.c **** ********************************************************************************
 104:Generated_Source\PSoC5/ADC_SAR_Seq_1_PM.c **** *
 105:Generated_Source\PSoC5/ADC_SAR_Seq_1_PM.c **** * Summary:
 106:Generated_Source\PSoC5/ADC_SAR_Seq_1_PM.c **** *  Save the current configuration of ADC non-retention registers
 107:Generated_Source\PSoC5/ADC_SAR_Seq_1_PM.c **** *
 108:Generated_Source\PSoC5/ADC_SAR_Seq_1_PM.c **** * Parameters:
 109:Generated_Source\PSoC5/ADC_SAR_Seq_1_PM.c **** *  None.
 110:Generated_Source\PSoC5/ADC_SAR_Seq_1_PM.c **** *
 111:Generated_Source\PSoC5/ADC_SAR_Seq_1_PM.c **** * Return:
 112:Generated_Source\PSoC5/ADC_SAR_Seq_1_PM.c **** *  None.
 113:Generated_Source\PSoC5/ADC_SAR_Seq_1_PM.c **** *
 114:Generated_Source\PSoC5/ADC_SAR_Seq_1_PM.c **** * Side Effects:
 115:Generated_Source\PSoC5/ADC_SAR_Seq_1_PM.c **** *  None.
 116:Generated_Source\PSoC5/ADC_SAR_Seq_1_PM.c **** *
 117:Generated_Source\PSoC5/ADC_SAR_Seq_1_PM.c **** * Reentrant:
 118:Generated_Source\PSoC5/ADC_SAR_Seq_1_PM.c **** *  No.
 119:Generated_Source\PSoC5/ADC_SAR_Seq_1_PM.c **** *
 120:Generated_Source\PSoC5/ADC_SAR_Seq_1_PM.c **** *******************************************************************************/
 121:Generated_Source\PSoC5/ADC_SAR_Seq_1_PM.c **** void ADC_SAR_Seq_1_SaveConfig(void)
 122:Generated_Source\PSoC5/ADC_SAR_Seq_1_PM.c **** {
  98              		.loc 1 122 0
  99              		.cfi_startproc
 100              		@ args = 0, pretend = 0, frame = 0
 101              		@ frame_needed = 1, uses_anonymous_args = 0
 102              		@ link register save eliminated.
 103 0000 80B4     		push	{r7}
 104              		.cfi_def_cfa_offset 4
 105              		.cfi_offset 7, -4
 106 0002 00AF     		add	r7, sp, #0
ARM GAS  C:\Users\JEFFSN~1\AppData\Local\Temp\cc26AX0u.s 			page 5


 107              		.cfi_def_cfa_register 7
 123:Generated_Source\PSoC5/ADC_SAR_Seq_1_PM.c **** 
 124:Generated_Source\PSoC5/ADC_SAR_Seq_1_PM.c **** }
 108              		.loc 1 124 0
 109 0004 00BF     		nop
 110 0006 BD46     		mov	sp, r7
 111              		.cfi_def_cfa_register 13
 112              		@ sp needed
 113 0008 80BC     		pop	{r7}
 114              		.cfi_restore 7
 115              		.cfi_def_cfa_offset 0
 116 000a 7047     		bx	lr
 117              		.cfi_endproc
 118              	.LFE2:
 119              		.size	ADC_SAR_Seq_1_SaveConfig, .-ADC_SAR_Seq_1_SaveConfig
 120              		.section	.text.ADC_SAR_Seq_1_RestoreConfig,"ax",%progbits
 121              		.align	2
 122              		.global	ADC_SAR_Seq_1_RestoreConfig
 123              		.thumb
 124              		.thumb_func
 125              		.type	ADC_SAR_Seq_1_RestoreConfig, %function
 126              	ADC_SAR_Seq_1_RestoreConfig:
 127              	.LFB3:
 125:Generated_Source\PSoC5/ADC_SAR_Seq_1_PM.c **** 
 126:Generated_Source\PSoC5/ADC_SAR_Seq_1_PM.c **** 
 127:Generated_Source\PSoC5/ADC_SAR_Seq_1_PM.c **** /*******************************************************************************
 128:Generated_Source\PSoC5/ADC_SAR_Seq_1_PM.c **** * Function Name: ADC_SAR_Seq_1_RestoreConfig
 129:Generated_Source\PSoC5/ADC_SAR_Seq_1_PM.c **** ********************************************************************************
 130:Generated_Source\PSoC5/ADC_SAR_Seq_1_PM.c **** *
 131:Generated_Source\PSoC5/ADC_SAR_Seq_1_PM.c **** * Summary:
 132:Generated_Source\PSoC5/ADC_SAR_Seq_1_PM.c **** *  Restores the configuration of ADC non-retention registers
 133:Generated_Source\PSoC5/ADC_SAR_Seq_1_PM.c **** *
 134:Generated_Source\PSoC5/ADC_SAR_Seq_1_PM.c **** * Parameters:
 135:Generated_Source\PSoC5/ADC_SAR_Seq_1_PM.c **** *  None.
 136:Generated_Source\PSoC5/ADC_SAR_Seq_1_PM.c **** *
 137:Generated_Source\PSoC5/ADC_SAR_Seq_1_PM.c **** * Return:
 138:Generated_Source\PSoC5/ADC_SAR_Seq_1_PM.c **** *  None.
 139:Generated_Source\PSoC5/ADC_SAR_Seq_1_PM.c **** *
 140:Generated_Source\PSoC5/ADC_SAR_Seq_1_PM.c **** * Side Effects:
 141:Generated_Source\PSoC5/ADC_SAR_Seq_1_PM.c **** *  None.
 142:Generated_Source\PSoC5/ADC_SAR_Seq_1_PM.c **** *
 143:Generated_Source\PSoC5/ADC_SAR_Seq_1_PM.c **** * Reentrant:
 144:Generated_Source\PSoC5/ADC_SAR_Seq_1_PM.c **** *  No.
 145:Generated_Source\PSoC5/ADC_SAR_Seq_1_PM.c **** *
 146:Generated_Source\PSoC5/ADC_SAR_Seq_1_PM.c **** *******************************************************************************/
 147:Generated_Source\PSoC5/ADC_SAR_Seq_1_PM.c **** void ADC_SAR_Seq_1_RestoreConfig(void)
 148:Generated_Source\PSoC5/ADC_SAR_Seq_1_PM.c **** {
 128              		.loc 1 148 0
 129              		.cfi_startproc
 130              		@ args = 0, pretend = 0, frame = 0
 131              		@ frame_needed = 1, uses_anonymous_args = 0
 132              		@ link register save eliminated.
 133 0000 80B4     		push	{r7}
 134              		.cfi_def_cfa_offset 4
 135              		.cfi_offset 7, -4
 136 0002 00AF     		add	r7, sp, #0
 137              		.cfi_def_cfa_register 7
ARM GAS  C:\Users\JEFFSN~1\AppData\Local\Temp\cc26AX0u.s 			page 6


 149:Generated_Source\PSoC5/ADC_SAR_Seq_1_PM.c **** 
 150:Generated_Source\PSoC5/ADC_SAR_Seq_1_PM.c **** }
 138              		.loc 1 150 0
 139 0004 00BF     		nop
 140 0006 BD46     		mov	sp, r7
 141              		.cfi_def_cfa_register 13
 142              		@ sp needed
 143 0008 80BC     		pop	{r7}
 144              		.cfi_restore 7
 145              		.cfi_def_cfa_offset 0
 146 000a 7047     		bx	lr
 147              		.cfi_endproc
 148              	.LFE3:
 149              		.size	ADC_SAR_Seq_1_RestoreConfig, .-ADC_SAR_Seq_1_RestoreConfig
 150              		.text
 151              	.Letext0:
 152              		.file 2 "Generated_Source\\PSoC5\\cytypes.h"