ARM GAS  C:\Users\JEFFSN~1\AppData\Local\Temp\ccH9Odmk.s 			page 1


   1              		.syntax unified
   2              		.cpu cortex-m3
   3              		.fpu softvfp
   4              		.eabi_attribute 20, 1
   5              		.eabi_attribute 21, 1
   6              		.eabi_attribute 23, 3
   7              		.eabi_attribute 24, 1
   8              		.eabi_attribute 25, 1
   9              		.eabi_attribute 26, 1
  10              		.eabi_attribute 30, 6
  11              		.eabi_attribute 34, 1
  12              		.eabi_attribute 18, 4
  13              		.thumb
  14              		.syntax unified
  15              		.file	"AMux.c"
  16              		.text
  17              	.Ltext0:
  18              		.cfi_sections	.debug_frame
  19              		.data
  20              		.type	AMux_lastChannel, %object
  21              		.size	AMux_lastChannel, 1
  22              	AMux_lastChannel:
  23 0000 FF       		.byte	-1
  24              		.section	.text.AMux_Start,"ax",%progbits
  25              		.align	2
  26              		.global	AMux_Start
  27              		.thumb
  28              		.thumb_func
  29              		.type	AMux_Start, %function
  30              	AMux_Start:
  31              	.LFB0:
  32              		.file 1 "Generated_Source\\PSoC5\\AMux.c"
   1:Generated_Source\PSoC5/AMux.c **** /*******************************************************************************
   2:Generated_Source\PSoC5/AMux.c **** * File Name: AMux.c
   3:Generated_Source\PSoC5/AMux.c **** * Version 1.80
   4:Generated_Source\PSoC5/AMux.c **** *
   5:Generated_Source\PSoC5/AMux.c **** *  Description:
   6:Generated_Source\PSoC5/AMux.c **** *    This file contains all functions required for the analog multiplexer
   7:Generated_Source\PSoC5/AMux.c **** *    AMux User Module.
   8:Generated_Source\PSoC5/AMux.c **** *
   9:Generated_Source\PSoC5/AMux.c **** *   Note:
  10:Generated_Source\PSoC5/AMux.c **** *
  11:Generated_Source\PSoC5/AMux.c **** *******************************************************************************
  12:Generated_Source\PSoC5/AMux.c **** * Copyright 2008-2010, Cypress Semiconductor Corporation.  All rights reserved.
  13:Generated_Source\PSoC5/AMux.c **** * You may use this file only in accordance with the license, terms, conditions, 
  14:Generated_Source\PSoC5/AMux.c **** * disclaimers, and limitations in the end user license agreement accompanying 
  15:Generated_Source\PSoC5/AMux.c **** * the software package with which this file was provided.
  16:Generated_Source\PSoC5/AMux.c **** ********************************************************************************/
  17:Generated_Source\PSoC5/AMux.c **** 
  18:Generated_Source\PSoC5/AMux.c **** #include "AMux.h"
  19:Generated_Source\PSoC5/AMux.c **** 
  20:Generated_Source\PSoC5/AMux.c **** static uint8 AMux_lastChannel = AMux_NULL_CHANNEL;
  21:Generated_Source\PSoC5/AMux.c **** 
  22:Generated_Source\PSoC5/AMux.c **** 
  23:Generated_Source\PSoC5/AMux.c **** /*******************************************************************************
  24:Generated_Source\PSoC5/AMux.c **** * Function Name: AMux_Start
  25:Generated_Source\PSoC5/AMux.c **** ********************************************************************************
ARM GAS  C:\Users\JEFFSN~1\AppData\Local\Temp\ccH9Odmk.s 			page 2


  26:Generated_Source\PSoC5/AMux.c **** * Summary:
  27:Generated_Source\PSoC5/AMux.c **** *  Disconnect all channels.
  28:Generated_Source\PSoC5/AMux.c **** *
  29:Generated_Source\PSoC5/AMux.c **** * Parameters:
  30:Generated_Source\PSoC5/AMux.c **** *  void
  31:Generated_Source\PSoC5/AMux.c **** *
  32:Generated_Source\PSoC5/AMux.c **** * Return:
  33:Generated_Source\PSoC5/AMux.c **** *  void
  34:Generated_Source\PSoC5/AMux.c **** *
  35:Generated_Source\PSoC5/AMux.c **** *******************************************************************************/
  36:Generated_Source\PSoC5/AMux.c **** void AMux_Start(void) 
  37:Generated_Source\PSoC5/AMux.c **** {
  33              		.loc 1 37 0
  34              		.cfi_startproc
  35              		@ args = 0, pretend = 0, frame = 8
  36              		@ frame_needed = 1, uses_anonymous_args = 0
  37 0000 80B5     		push	{r7, lr}
  38              		.cfi_def_cfa_offset 8
  39              		.cfi_offset 7, -8
  40              		.cfi_offset 14, -4
  41 0002 82B0     		sub	sp, sp, #8
  42              		.cfi_def_cfa_offset 16
  43 0004 00AF     		add	r7, sp, #0
  44              		.cfi_def_cfa_register 7
  38:Generated_Source\PSoC5/AMux.c ****     uint8 chan;
  39:Generated_Source\PSoC5/AMux.c **** 
  40:Generated_Source\PSoC5/AMux.c ****     for(chan = 0u; chan < AMux_CHANNELS ; chan++)
  45              		.loc 1 40 0
  46 0006 0023     		movs	r3, #0
  47 0008 FB71     		strb	r3, [r7, #7]
  48 000a 0AE0     		b	.L2
  49              	.L3:
  41:Generated_Source\PSoC5/AMux.c ****     {
  42:Generated_Source\PSoC5/AMux.c **** #if (AMux_MUXTYPE == AMux_MUX_SINGLE)
  43:Generated_Source\PSoC5/AMux.c ****         AMux_Unset(chan);
  44:Generated_Source\PSoC5/AMux.c **** #else
  45:Generated_Source\PSoC5/AMux.c ****         AMux_CYAMUXSIDE_A_Unset(chan);
  50              		.loc 1 45 0 discriminator 3
  51 000c FB79     		ldrb	r3, [r7, #7]	@ zero_extendqisi2
  52 000e 1846     		mov	r0, r3
  53 0010 FFF7FEFF 		bl	AMux_CYAMUXSIDE_A_Unset
  46:Generated_Source\PSoC5/AMux.c ****         AMux_CYAMUXSIDE_B_Unset(chan);
  54              		.loc 1 46 0 discriminator 3
  55 0014 FB79     		ldrb	r3, [r7, #7]	@ zero_extendqisi2
  56 0016 1846     		mov	r0, r3
  57 0018 FFF7FEFF 		bl	AMux_CYAMUXSIDE_B_Unset
  40:Generated_Source\PSoC5/AMux.c ****     {
  58              		.loc 1 40 0 discriminator 3
  59 001c FB79     		ldrb	r3, [r7, #7]	@ zero_extendqisi2
  60 001e 0133     		adds	r3, r3, #1
  61 0020 FB71     		strb	r3, [r7, #7]
  62              	.L2:
  40:Generated_Source\PSoC5/AMux.c ****     {
  63              		.loc 1 40 0 is_stmt 0 discriminator 1
  64 0022 FB79     		ldrb	r3, [r7, #7]	@ zero_extendqisi2
  65 0024 082B     		cmp	r3, #8
  66 0026 F1D9     		bls	.L3
ARM GAS  C:\Users\JEFFSN~1\AppData\Local\Temp\ccH9Odmk.s 			page 3


  47:Generated_Source\PSoC5/AMux.c **** #endif
  48:Generated_Source\PSoC5/AMux.c ****     }
  49:Generated_Source\PSoC5/AMux.c **** 
  50:Generated_Source\PSoC5/AMux.c ****     AMux_lastChannel = AMux_NULL_CHANNEL;
  67              		.loc 1 50 0 is_stmt 1
  68 0028 034B     		ldr	r3, .L4
  69 002a FF22     		movs	r2, #255
  70 002c 1A70     		strb	r2, [r3]
  51:Generated_Source\PSoC5/AMux.c **** }
  71              		.loc 1 51 0
  72 002e 00BF     		nop
  73 0030 0837     		adds	r7, r7, #8
  74              		.cfi_def_cfa_offset 8
  75 0032 BD46     		mov	sp, r7
  76              		.cfi_def_cfa_register 13
  77              		@ sp needed
  78 0034 80BD     		pop	{r7, pc}
  79              	.L5:
  80 0036 00BF     		.align	2
  81              	.L4:
  82 0038 00000000 		.word	AMux_lastChannel
  83              		.cfi_endproc
  84              	.LFE0:
  85              		.size	AMux_Start, .-AMux_Start
  86              		.section	.text.AMux_FastSelect,"ax",%progbits
  87              		.align	2
  88              		.global	AMux_FastSelect
  89              		.thumb
  90              		.thumb_func
  91              		.type	AMux_FastSelect, %function
  92              	AMux_FastSelect:
  93              	.LFB1:
  52:Generated_Source\PSoC5/AMux.c **** 
  53:Generated_Source\PSoC5/AMux.c **** 
  54:Generated_Source\PSoC5/AMux.c **** #if (!AMux_ATMOSTONE)
  55:Generated_Source\PSoC5/AMux.c **** /*******************************************************************************
  56:Generated_Source\PSoC5/AMux.c **** * Function Name: AMux_Select
  57:Generated_Source\PSoC5/AMux.c **** ********************************************************************************
  58:Generated_Source\PSoC5/AMux.c **** * Summary:
  59:Generated_Source\PSoC5/AMux.c **** *  This functions first disconnects all channels then connects the given
  60:Generated_Source\PSoC5/AMux.c **** *  channel.
  61:Generated_Source\PSoC5/AMux.c **** *
  62:Generated_Source\PSoC5/AMux.c **** * Parameters:
  63:Generated_Source\PSoC5/AMux.c **** *  channel:  The channel to connect to the common terminal.
  64:Generated_Source\PSoC5/AMux.c **** *
  65:Generated_Source\PSoC5/AMux.c **** * Return:
  66:Generated_Source\PSoC5/AMux.c **** *  void
  67:Generated_Source\PSoC5/AMux.c **** *
  68:Generated_Source\PSoC5/AMux.c **** *******************************************************************************/
  69:Generated_Source\PSoC5/AMux.c **** void AMux_Select(uint8 channel) 
  70:Generated_Source\PSoC5/AMux.c **** {
  71:Generated_Source\PSoC5/AMux.c ****     AMux_DisconnectAll();        /* Disconnect all previous connections */
  72:Generated_Source\PSoC5/AMux.c ****     AMux_Connect(channel);       /* Make the given selection */
  73:Generated_Source\PSoC5/AMux.c ****     AMux_lastChannel = channel;  /* Update last channel */
  74:Generated_Source\PSoC5/AMux.c **** }
  75:Generated_Source\PSoC5/AMux.c **** #endif
  76:Generated_Source\PSoC5/AMux.c **** 
ARM GAS  C:\Users\JEFFSN~1\AppData\Local\Temp\ccH9Odmk.s 			page 4


  77:Generated_Source\PSoC5/AMux.c **** 
  78:Generated_Source\PSoC5/AMux.c **** /*******************************************************************************
  79:Generated_Source\PSoC5/AMux.c **** * Function Name: AMux_FastSelect
  80:Generated_Source\PSoC5/AMux.c **** ********************************************************************************
  81:Generated_Source\PSoC5/AMux.c **** * Summary:
  82:Generated_Source\PSoC5/AMux.c **** *  This function first disconnects the last connection made with FastSelect or
  83:Generated_Source\PSoC5/AMux.c **** *  Select, then connects the given channel. The FastSelect function is similar
  84:Generated_Source\PSoC5/AMux.c **** *  to the Select function, except it is faster since it only disconnects the
  85:Generated_Source\PSoC5/AMux.c **** *  last channel selected rather than all channels.
  86:Generated_Source\PSoC5/AMux.c **** *
  87:Generated_Source\PSoC5/AMux.c **** * Parameters:
  88:Generated_Source\PSoC5/AMux.c **** *  channel:  The channel to connect to the common terminal.
  89:Generated_Source\PSoC5/AMux.c **** *
  90:Generated_Source\PSoC5/AMux.c **** * Return:
  91:Generated_Source\PSoC5/AMux.c **** *  void
  92:Generated_Source\PSoC5/AMux.c **** *
  93:Generated_Source\PSoC5/AMux.c **** *******************************************************************************/
  94:Generated_Source\PSoC5/AMux.c **** void AMux_FastSelect(uint8 channel) 
  95:Generated_Source\PSoC5/AMux.c **** {
  94              		.loc 1 95 0
  95              		.cfi_startproc
  96              		@ args = 0, pretend = 0, frame = 8
  97              		@ frame_needed = 1, uses_anonymous_args = 0
  98 0000 80B5     		push	{r7, lr}
  99              		.cfi_def_cfa_offset 8
 100              		.cfi_offset 7, -8
 101              		.cfi_offset 14, -4
 102 0002 82B0     		sub	sp, sp, #8
 103              		.cfi_def_cfa_offset 16
 104 0004 00AF     		add	r7, sp, #0
 105              		.cfi_def_cfa_register 7
 106 0006 0346     		mov	r3, r0
 107 0008 FB71     		strb	r3, [r7, #7]
  96:Generated_Source\PSoC5/AMux.c ****     /* Disconnect the last valid channel */
  97:Generated_Source\PSoC5/AMux.c ****     if( AMux_lastChannel != AMux_NULL_CHANNEL)
 108              		.loc 1 97 0
 109 000a 0C4B     		ldr	r3, .L8
 110 000c 1B78     		ldrb	r3, [r3]	@ zero_extendqisi2
 111 000e FF2B     		cmp	r3, #255
 112 0010 04D0     		beq	.L7
  98:Generated_Source\PSoC5/AMux.c ****     {
  99:Generated_Source\PSoC5/AMux.c ****         AMux_Disconnect(AMux_lastChannel);
 113              		.loc 1 99 0
 114 0012 0A4B     		ldr	r3, .L8
 115 0014 1B78     		ldrb	r3, [r3]	@ zero_extendqisi2
 116 0016 1846     		mov	r0, r3
 117 0018 FFF7FEFF 		bl	AMux_Disconnect
 118              	.L7:
 100:Generated_Source\PSoC5/AMux.c ****     }
 101:Generated_Source\PSoC5/AMux.c **** 
 102:Generated_Source\PSoC5/AMux.c ****     /* Make the new channel connection */
 103:Generated_Source\PSoC5/AMux.c **** #if (AMux_MUXTYPE == AMux_MUX_SINGLE)
 104:Generated_Source\PSoC5/AMux.c ****     AMux_Set(channel);
 105:Generated_Source\PSoC5/AMux.c **** #else
 106:Generated_Source\PSoC5/AMux.c ****     AMux_CYAMUXSIDE_A_Set(channel);
 119              		.loc 1 106 0
 120 001c FB79     		ldrb	r3, [r7, #7]	@ zero_extendqisi2
ARM GAS  C:\Users\JEFFSN~1\AppData\Local\Temp\ccH9Odmk.s 			page 5


 121 001e 1846     		mov	r0, r3
 122 0020 FFF7FEFF 		bl	AMux_CYAMUXSIDE_A_Set
 107:Generated_Source\PSoC5/AMux.c ****     AMux_CYAMUXSIDE_B_Set(channel);
 123              		.loc 1 107 0
 124 0024 FB79     		ldrb	r3, [r7, #7]	@ zero_extendqisi2
 125 0026 1846     		mov	r0, r3
 126 0028 FFF7FEFF 		bl	AMux_CYAMUXSIDE_B_Set
 108:Generated_Source\PSoC5/AMux.c **** #endif
 109:Generated_Source\PSoC5/AMux.c **** 
 110:Generated_Source\PSoC5/AMux.c **** 
 111:Generated_Source\PSoC5/AMux.c ****     AMux_lastChannel = channel;   /* Update last channel */
 127              		.loc 1 111 0
 128 002c 034A     		ldr	r2, .L8
 129 002e FB79     		ldrb	r3, [r7, #7]
 130 0030 1370     		strb	r3, [r2]
 112:Generated_Source\PSoC5/AMux.c **** }
 131              		.loc 1 112 0
 132 0032 00BF     		nop
 133 0034 0837     		adds	r7, r7, #8
 134              		.cfi_def_cfa_offset 8
 135 0036 BD46     		mov	sp, r7
 136              		.cfi_def_cfa_register 13
 137              		@ sp needed
 138 0038 80BD     		pop	{r7, pc}
 139              	.L9:
 140 003a 00BF     		.align	2
 141              	.L8:
 142 003c 00000000 		.word	AMux_lastChannel
 143              		.cfi_endproc
 144              	.LFE1:
 145              		.size	AMux_FastSelect, .-AMux_FastSelect
 146              		.section	.text.AMux_Disconnect,"ax",%progbits
 147              		.align	2
 148              		.global	AMux_Disconnect
 149              		.thumb
 150              		.thumb_func
 151              		.type	AMux_Disconnect, %function
 152              	AMux_Disconnect:
 153              	.LFB2:
 113:Generated_Source\PSoC5/AMux.c **** 
 114:Generated_Source\PSoC5/AMux.c **** 
 115:Generated_Source\PSoC5/AMux.c **** #if (AMux_MUXTYPE == AMux_MUX_DIFF)
 116:Generated_Source\PSoC5/AMux.c **** #if (!AMux_ATMOSTONE)
 117:Generated_Source\PSoC5/AMux.c **** /*******************************************************************************
 118:Generated_Source\PSoC5/AMux.c **** * Function Name: AMux_Connect
 119:Generated_Source\PSoC5/AMux.c **** ********************************************************************************
 120:Generated_Source\PSoC5/AMux.c **** * Summary:
 121:Generated_Source\PSoC5/AMux.c **** *  This function connects the given channel without affecting other connections.
 122:Generated_Source\PSoC5/AMux.c **** *
 123:Generated_Source\PSoC5/AMux.c **** * Parameters:
 124:Generated_Source\PSoC5/AMux.c **** *  channel:  The channel to connect to the common terminal.
 125:Generated_Source\PSoC5/AMux.c **** *
 126:Generated_Source\PSoC5/AMux.c **** * Return:
 127:Generated_Source\PSoC5/AMux.c **** *  void
 128:Generated_Source\PSoC5/AMux.c **** *
 129:Generated_Source\PSoC5/AMux.c **** *******************************************************************************/
 130:Generated_Source\PSoC5/AMux.c **** void AMux_Connect(uint8 channel) 
ARM GAS  C:\Users\JEFFSN~1\AppData\Local\Temp\ccH9Odmk.s 			page 6


 131:Generated_Source\PSoC5/AMux.c **** {
 132:Generated_Source\PSoC5/AMux.c ****     AMux_CYAMUXSIDE_A_Set(channel);
 133:Generated_Source\PSoC5/AMux.c ****     AMux_CYAMUXSIDE_B_Set(channel);
 134:Generated_Source\PSoC5/AMux.c **** }
 135:Generated_Source\PSoC5/AMux.c **** #endif
 136:Generated_Source\PSoC5/AMux.c **** 
 137:Generated_Source\PSoC5/AMux.c **** /*******************************************************************************
 138:Generated_Source\PSoC5/AMux.c **** * Function Name: AMux_Disconnect
 139:Generated_Source\PSoC5/AMux.c **** ********************************************************************************
 140:Generated_Source\PSoC5/AMux.c **** * Summary:
 141:Generated_Source\PSoC5/AMux.c **** *  This function disconnects the given channel from the common or output
 142:Generated_Source\PSoC5/AMux.c **** *  terminal without affecting other connections.
 143:Generated_Source\PSoC5/AMux.c **** *
 144:Generated_Source\PSoC5/AMux.c **** * Parameters:
 145:Generated_Source\PSoC5/AMux.c **** *  channel:  The channel to disconnect from the common terminal.
 146:Generated_Source\PSoC5/AMux.c **** *
 147:Generated_Source\PSoC5/AMux.c **** * Return:
 148:Generated_Source\PSoC5/AMux.c **** *  void
 149:Generated_Source\PSoC5/AMux.c **** *
 150:Generated_Source\PSoC5/AMux.c **** *******************************************************************************/
 151:Generated_Source\PSoC5/AMux.c **** void AMux_Disconnect(uint8 channel) 
 152:Generated_Source\PSoC5/AMux.c **** {
 154              		.loc 1 152 0
 155              		.cfi_startproc
 156              		@ args = 0, pretend = 0, frame = 8
 157              		@ frame_needed = 1, uses_anonymous_args = 0
 158 0000 80B5     		push	{r7, lr}
 159              		.cfi_def_cfa_offset 8
 160              		.cfi_offset 7, -8
 161              		.cfi_offset 14, -4
 162 0002 82B0     		sub	sp, sp, #8
 163              		.cfi_def_cfa_offset 16
 164 0004 00AF     		add	r7, sp, #0
 165              		.cfi_def_cfa_register 7
 166 0006 0346     		mov	r3, r0
 167 0008 FB71     		strb	r3, [r7, #7]
 153:Generated_Source\PSoC5/AMux.c ****     AMux_CYAMUXSIDE_A_Unset(channel);
 168              		.loc 1 153 0
 169 000a FB79     		ldrb	r3, [r7, #7]	@ zero_extendqisi2
 170 000c 1846     		mov	r0, r3
 171 000e FFF7FEFF 		bl	AMux_CYAMUXSIDE_A_Unset
 154:Generated_Source\PSoC5/AMux.c ****     AMux_CYAMUXSIDE_B_Unset(channel);
 172              		.loc 1 154 0
 173 0012 FB79     		ldrb	r3, [r7, #7]	@ zero_extendqisi2
 174 0014 1846     		mov	r0, r3
 175 0016 FFF7FEFF 		bl	AMux_CYAMUXSIDE_B_Unset
 155:Generated_Source\PSoC5/AMux.c **** }
 176              		.loc 1 155 0
 177 001a 00BF     		nop
 178 001c 0837     		adds	r7, r7, #8
 179              		.cfi_def_cfa_offset 8
 180 001e BD46     		mov	sp, r7
 181              		.cfi_def_cfa_register 13
 182              		@ sp needed
 183 0020 80BD     		pop	{r7, pc}
 184              		.cfi_endproc
 185              	.LFE2:
ARM GAS  C:\Users\JEFFSN~1\AppData\Local\Temp\ccH9Odmk.s 			page 7


 186              		.size	AMux_Disconnect, .-AMux_Disconnect
 187 0022 00BF     		.section	.text.AMux_DisconnectAll,"ax",%progbits
 188              		.align	2
 189              		.global	AMux_DisconnectAll
 190              		.thumb
 191              		.thumb_func
 192              		.type	AMux_DisconnectAll, %function
 193              	AMux_DisconnectAll:
 194              	.LFB3:
 156:Generated_Source\PSoC5/AMux.c **** #endif
 157:Generated_Source\PSoC5/AMux.c **** 
 158:Generated_Source\PSoC5/AMux.c **** #if (AMux_ATMOSTONE)
 159:Generated_Source\PSoC5/AMux.c **** /*******************************************************************************
 160:Generated_Source\PSoC5/AMux.c **** * Function Name: AMux_DisconnectAll
 161:Generated_Source\PSoC5/AMux.c **** ********************************************************************************
 162:Generated_Source\PSoC5/AMux.c **** * Summary:
 163:Generated_Source\PSoC5/AMux.c **** *  This function disconnects all channels.
 164:Generated_Source\PSoC5/AMux.c **** *
 165:Generated_Source\PSoC5/AMux.c **** * Parameters:
 166:Generated_Source\PSoC5/AMux.c **** *  void
 167:Generated_Source\PSoC5/AMux.c **** *
 168:Generated_Source\PSoC5/AMux.c **** * Return:
 169:Generated_Source\PSoC5/AMux.c **** *  void
 170:Generated_Source\PSoC5/AMux.c **** *
 171:Generated_Source\PSoC5/AMux.c **** *******************************************************************************/
 172:Generated_Source\PSoC5/AMux.c **** void AMux_DisconnectAll(void) 
 173:Generated_Source\PSoC5/AMux.c **** {
 195              		.loc 1 173 0
 196              		.cfi_startproc
 197              		@ args = 0, pretend = 0, frame = 0
 198              		@ frame_needed = 1, uses_anonymous_args = 0
 199 0000 80B5     		push	{r7, lr}
 200              		.cfi_def_cfa_offset 8
 201              		.cfi_offset 7, -8
 202              		.cfi_offset 14, -4
 203 0002 00AF     		add	r7, sp, #0
 204              		.cfi_def_cfa_register 7
 174:Generated_Source\PSoC5/AMux.c ****     if(AMux_lastChannel != AMux_NULL_CHANNEL) 
 205              		.loc 1 174 0
 206 0004 064B     		ldr	r3, .L14
 207 0006 1B78     		ldrb	r3, [r3]	@ zero_extendqisi2
 208 0008 FF2B     		cmp	r3, #255
 209 000a 07D0     		beq	.L13
 175:Generated_Source\PSoC5/AMux.c ****     {
 176:Generated_Source\PSoC5/AMux.c ****         AMux_Disconnect(AMux_lastChannel);
 210              		.loc 1 176 0
 211 000c 044B     		ldr	r3, .L14
 212 000e 1B78     		ldrb	r3, [r3]	@ zero_extendqisi2
 213 0010 1846     		mov	r0, r3
 214 0012 FFF7FEFF 		bl	AMux_Disconnect
 177:Generated_Source\PSoC5/AMux.c ****         AMux_lastChannel = AMux_NULL_CHANNEL;
 215              		.loc 1 177 0
 216 0016 024B     		ldr	r3, .L14
 217 0018 FF22     		movs	r2, #255
 218 001a 1A70     		strb	r2, [r3]
 219              	.L13:
 178:Generated_Source\PSoC5/AMux.c ****     }
ARM GAS  C:\Users\JEFFSN~1\AppData\Local\Temp\ccH9Odmk.s 			page 8


 179:Generated_Source\PSoC5/AMux.c **** }
 220              		.loc 1 179 0
 221 001c 00BF     		nop
 222 001e 80BD     		pop	{r7, pc}
 223              	.L15:
 224              		.align	2
 225              	.L14:
 226 0020 00000000 		.word	AMux_lastChannel
 227              		.cfi_endproc
 228              	.LFE3:
 229              		.size	AMux_DisconnectAll, .-AMux_DisconnectAll
 230              		.text
 231              	.Letext0:
 232              		.file 2 "Generated_Source\\PSoC5\\cytypes.h"