ARM GAS  C:\Users\JEFFSN~1\AppData\Local\Temp\ccTeBEbx.s 			page 1


   1              		.syntax unified
   2              		.cpu cortex-m3
   3              		.fpu softvfp
   4              		.eabi_attribute 20, 1
   5              		.eabi_attribute 21, 1
   6              		.eabi_attribute 23, 3
   7              		.eabi_attribute 24, 1
   8              		.eabi_attribute 25, 1
   9              		.eabi_attribute 26, 1
  10              		.eabi_attribute 30, 6
  11              		.eabi_attribute 34, 1
  12              		.eabi_attribute 18, 4
  13              		.thumb
  14              		.syntax unified
  15              		.file	"AMuxSeq_2.c"
  16              		.text
  17              	.Ltext0:
  18              		.cfi_sections	.debug_frame
  19              		.global	AMuxSeq_2_initVar
  20              		.bss
  21              		.type	AMuxSeq_2_initVar, %object
  22              		.size	AMuxSeq_2_initVar, 1
  23              	AMuxSeq_2_initVar:
  24 0000 00       		.space	1
  25              		.section	.text.AMuxSeq_2_Start,"ax",%progbits
  26              		.align	2
  27              		.global	AMuxSeq_2_Start
  28              		.thumb
  29              		.thumb_func
  30              		.type	AMuxSeq_2_Start, %function
  31              	AMuxSeq_2_Start:
  32              	.LFB0:
  33              		.file 1 "Generated_Source\\PSoC5\\AMuxSeq_2.c"
   1:Generated_Source\PSoC5/AMuxSeq_2.c **** /*******************************************************************************
   2:Generated_Source\PSoC5/AMuxSeq_2.c **** * File Name: AMuxSeq_2.c
   3:Generated_Source\PSoC5/AMuxSeq_2.c **** * Version 1.80
   4:Generated_Source\PSoC5/AMuxSeq_2.c **** *
   5:Generated_Source\PSoC5/AMuxSeq_2.c **** *  Description:
   6:Generated_Source\PSoC5/AMuxSeq_2.c **** *    This file contains functions for the AMuxSeq.
   7:Generated_Source\PSoC5/AMuxSeq_2.c **** *
   8:Generated_Source\PSoC5/AMuxSeq_2.c **** *   Note:
   9:Generated_Source\PSoC5/AMuxSeq_2.c **** *
  10:Generated_Source\PSoC5/AMuxSeq_2.c **** *******************************************************************************
  11:Generated_Source\PSoC5/AMuxSeq_2.c **** * Copyright 2008-2010, Cypress Semiconductor Corporation.  All rights reserved.
  12:Generated_Source\PSoC5/AMuxSeq_2.c **** * You may use this file only in accordance with the license, terms, conditions, 
  13:Generated_Source\PSoC5/AMuxSeq_2.c **** * disclaimers, and limitations in the end user license agreement accompanying 
  14:Generated_Source\PSoC5/AMuxSeq_2.c **** * the software package with which this file was provided.
  15:Generated_Source\PSoC5/AMuxSeq_2.c **** ********************************************************************************/
  16:Generated_Source\PSoC5/AMuxSeq_2.c **** 
  17:Generated_Source\PSoC5/AMuxSeq_2.c **** #include "AMuxSeq_2.h"
  18:Generated_Source\PSoC5/AMuxSeq_2.c **** 
  19:Generated_Source\PSoC5/AMuxSeq_2.c **** uint8 AMuxSeq_2_initVar = 0u;
  20:Generated_Source\PSoC5/AMuxSeq_2.c **** 
  21:Generated_Source\PSoC5/AMuxSeq_2.c **** 
  22:Generated_Source\PSoC5/AMuxSeq_2.c **** /*******************************************************************************
  23:Generated_Source\PSoC5/AMuxSeq_2.c **** * Function Name: AMuxSeq_2_Start
  24:Generated_Source\PSoC5/AMuxSeq_2.c **** ********************************************************************************
ARM GAS  C:\Users\JEFFSN~1\AppData\Local\Temp\ccTeBEbx.s 			page 2


  25:Generated_Source\PSoC5/AMuxSeq_2.c **** * Summary:
  26:Generated_Source\PSoC5/AMuxSeq_2.c **** *  Disconnect all channels. The next time Next is called, channel 0 will be
  27:Generated_Source\PSoC5/AMuxSeq_2.c **** *  connected.
  28:Generated_Source\PSoC5/AMuxSeq_2.c **** *
  29:Generated_Source\PSoC5/AMuxSeq_2.c **** * Parameters:
  30:Generated_Source\PSoC5/AMuxSeq_2.c **** *  void
  31:Generated_Source\PSoC5/AMuxSeq_2.c **** *
  32:Generated_Source\PSoC5/AMuxSeq_2.c **** * Return:
  33:Generated_Source\PSoC5/AMuxSeq_2.c **** *  void
  34:Generated_Source\PSoC5/AMuxSeq_2.c **** *
  35:Generated_Source\PSoC5/AMuxSeq_2.c **** *******************************************************************************/
  36:Generated_Source\PSoC5/AMuxSeq_2.c **** void AMuxSeq_2_Start(void)
  37:Generated_Source\PSoC5/AMuxSeq_2.c **** {
  34              		.loc 1 37 0
  35              		.cfi_startproc
  36              		@ args = 0, pretend = 0, frame = 0
  37              		@ frame_needed = 1, uses_anonymous_args = 0
  38 0000 80B5     		push	{r7, lr}
  39              		.cfi_def_cfa_offset 8
  40              		.cfi_offset 7, -8
  41              		.cfi_offset 14, -4
  42 0002 00AF     		add	r7, sp, #0
  43              		.cfi_def_cfa_register 7
  38:Generated_Source\PSoC5/AMuxSeq_2.c ****     AMuxSeq_2_DisconnectAll();
  44              		.loc 1 38 0
  45 0004 FFF7FEFF 		bl	AMuxSeq_2_DisconnectAll
  39:Generated_Source\PSoC5/AMuxSeq_2.c ****     AMuxSeq_2_initVar = 1u;
  46              		.loc 1 39 0
  47 0008 024B     		ldr	r3, .L2
  48 000a 0122     		movs	r2, #1
  49 000c 1A70     		strb	r2, [r3]
  40:Generated_Source\PSoC5/AMuxSeq_2.c **** }
  50              		.loc 1 40 0
  51 000e 00BF     		nop
  52 0010 80BD     		pop	{r7, pc}
  53              	.L3:
  54 0012 00BF     		.align	2
  55              	.L2:
  56 0014 00000000 		.word	AMuxSeq_2_initVar
  57              		.cfi_endproc
  58              	.LFE0:
  59              		.size	AMuxSeq_2_Start, .-AMuxSeq_2_Start
  60              		.section	.text.AMuxSeq_2_Init,"ax",%progbits
  61              		.align	2
  62              		.global	AMuxSeq_2_Init
  63              		.thumb
  64              		.thumb_func
  65              		.type	AMuxSeq_2_Init, %function
  66              	AMuxSeq_2_Init:
  67              	.LFB1:
  41:Generated_Source\PSoC5/AMuxSeq_2.c **** 
  42:Generated_Source\PSoC5/AMuxSeq_2.c **** 
  43:Generated_Source\PSoC5/AMuxSeq_2.c **** /*******************************************************************************
  44:Generated_Source\PSoC5/AMuxSeq_2.c **** * Function Name: AMuxSeq_2_Init
  45:Generated_Source\PSoC5/AMuxSeq_2.c **** ********************************************************************************
  46:Generated_Source\PSoC5/AMuxSeq_2.c **** * Summary:
  47:Generated_Source\PSoC5/AMuxSeq_2.c **** *  Disconnect all channels. The next time Next is called, channel 0 will be
ARM GAS  C:\Users\JEFFSN~1\AppData\Local\Temp\ccTeBEbx.s 			page 3


  48:Generated_Source\PSoC5/AMuxSeq_2.c **** *  connected.
  49:Generated_Source\PSoC5/AMuxSeq_2.c **** *
  50:Generated_Source\PSoC5/AMuxSeq_2.c **** * Parameters:
  51:Generated_Source\PSoC5/AMuxSeq_2.c **** *  void
  52:Generated_Source\PSoC5/AMuxSeq_2.c **** *
  53:Generated_Source\PSoC5/AMuxSeq_2.c **** * Return:
  54:Generated_Source\PSoC5/AMuxSeq_2.c **** *  void
  55:Generated_Source\PSoC5/AMuxSeq_2.c **** *
  56:Generated_Source\PSoC5/AMuxSeq_2.c **** *******************************************************************************/
  57:Generated_Source\PSoC5/AMuxSeq_2.c **** void AMuxSeq_2_Init(void)
  58:Generated_Source\PSoC5/AMuxSeq_2.c **** {
  68              		.loc 1 58 0
  69              		.cfi_startproc
  70              		@ args = 0, pretend = 0, frame = 0
  71              		@ frame_needed = 1, uses_anonymous_args = 0
  72 0000 80B5     		push	{r7, lr}
  73              		.cfi_def_cfa_offset 8
  74              		.cfi_offset 7, -8
  75              		.cfi_offset 14, -4
  76 0002 00AF     		add	r7, sp, #0
  77              		.cfi_def_cfa_register 7
  59:Generated_Source\PSoC5/AMuxSeq_2.c ****     AMuxSeq_2_DisconnectAll();
  78              		.loc 1 59 0
  79 0004 FFF7FEFF 		bl	AMuxSeq_2_DisconnectAll
  60:Generated_Source\PSoC5/AMuxSeq_2.c **** }
  80              		.loc 1 60 0
  81 0008 00BF     		nop
  82 000a 80BD     		pop	{r7, pc}
  83              		.cfi_endproc
  84              	.LFE1:
  85              		.size	AMuxSeq_2_Init, .-AMuxSeq_2_Init
  86              		.section	.text.AMuxSeq_2_Stop,"ax",%progbits
  87              		.align	2
  88              		.global	AMuxSeq_2_Stop
  89              		.thumb
  90              		.thumb_func
  91              		.type	AMuxSeq_2_Stop, %function
  92              	AMuxSeq_2_Stop:
  93              	.LFB2:
  61:Generated_Source\PSoC5/AMuxSeq_2.c **** 
  62:Generated_Source\PSoC5/AMuxSeq_2.c **** 
  63:Generated_Source\PSoC5/AMuxSeq_2.c **** /*******************************************************************************
  64:Generated_Source\PSoC5/AMuxSeq_2.c **** * Function Name: AMuxSeq_2_Stop
  65:Generated_Source\PSoC5/AMuxSeq_2.c **** ********************************************************************************
  66:Generated_Source\PSoC5/AMuxSeq_2.c **** * Summary:
  67:Generated_Source\PSoC5/AMuxSeq_2.c **** *  Disconnect all channels. The next time Next is called, channel 0 will be
  68:Generated_Source\PSoC5/AMuxSeq_2.c **** *  connected.
  69:Generated_Source\PSoC5/AMuxSeq_2.c **** *
  70:Generated_Source\PSoC5/AMuxSeq_2.c **** * Parameters:
  71:Generated_Source\PSoC5/AMuxSeq_2.c **** *  void
  72:Generated_Source\PSoC5/AMuxSeq_2.c **** *
  73:Generated_Source\PSoC5/AMuxSeq_2.c **** * Return:
  74:Generated_Source\PSoC5/AMuxSeq_2.c **** *  void
  75:Generated_Source\PSoC5/AMuxSeq_2.c **** *
  76:Generated_Source\PSoC5/AMuxSeq_2.c **** *******************************************************************************/
  77:Generated_Source\PSoC5/AMuxSeq_2.c **** void AMuxSeq_2_Stop(void)
  78:Generated_Source\PSoC5/AMuxSeq_2.c **** {
ARM GAS  C:\Users\JEFFSN~1\AppData\Local\Temp\ccTeBEbx.s 			page 4


  94              		.loc 1 78 0
  95              		.cfi_startproc
  96              		@ args = 0, pretend = 0, frame = 0
  97              		@ frame_needed = 1, uses_anonymous_args = 0
  98 0000 80B5     		push	{r7, lr}
  99              		.cfi_def_cfa_offset 8
 100              		.cfi_offset 7, -8
 101              		.cfi_offset 14, -4
 102 0002 00AF     		add	r7, sp, #0
 103              		.cfi_def_cfa_register 7
  79:Generated_Source\PSoC5/AMuxSeq_2.c ****     AMuxSeq_2_DisconnectAll();
 104              		.loc 1 79 0
 105 0004 FFF7FEFF 		bl	AMuxSeq_2_DisconnectAll
  80:Generated_Source\PSoC5/AMuxSeq_2.c **** }
 106              		.loc 1 80 0
 107 0008 00BF     		nop
 108 000a 80BD     		pop	{r7, pc}
 109              		.cfi_endproc
 110              	.LFE2:
 111              		.size	AMuxSeq_2_Stop, .-AMuxSeq_2_Stop
 112              		.section	.text.AMuxSeq_2_Next,"ax",%progbits
 113              		.align	2
 114              		.global	AMuxSeq_2_Next
 115              		.thumb
 116              		.thumb_func
 117              		.type	AMuxSeq_2_Next, %function
 118              	AMuxSeq_2_Next:
 119              	.LFB3:
  81:Generated_Source\PSoC5/AMuxSeq_2.c **** 
  82:Generated_Source\PSoC5/AMuxSeq_2.c **** #if (AMuxSeq_2_MUXTYPE == AMuxSeq_2_MUX_DIFF)
  83:Generated_Source\PSoC5/AMuxSeq_2.c **** 
  84:Generated_Source\PSoC5/AMuxSeq_2.c **** /*******************************************************************************
  85:Generated_Source\PSoC5/AMuxSeq_2.c **** * Function Name: AMuxSeq_2_Next
  86:Generated_Source\PSoC5/AMuxSeq_2.c **** ********************************************************************************
  87:Generated_Source\PSoC5/AMuxSeq_2.c **** * Summary:
  88:Generated_Source\PSoC5/AMuxSeq_2.c **** *  Disconnects the previous channel and connects the next one in the sequence.
  89:Generated_Source\PSoC5/AMuxSeq_2.c **** *  When Next is called for the first time after Init, Start, Enable, Stop, or
  90:Generated_Source\PSoC5/AMuxSeq_2.c **** *  DisconnectAll, it connects channel 0.
  91:Generated_Source\PSoC5/AMuxSeq_2.c **** *
  92:Generated_Source\PSoC5/AMuxSeq_2.c **** * Parameters:
  93:Generated_Source\PSoC5/AMuxSeq_2.c **** *  void
  94:Generated_Source\PSoC5/AMuxSeq_2.c **** *
  95:Generated_Source\PSoC5/AMuxSeq_2.c **** * Return:
  96:Generated_Source\PSoC5/AMuxSeq_2.c **** *  void
  97:Generated_Source\PSoC5/AMuxSeq_2.c **** *
  98:Generated_Source\PSoC5/AMuxSeq_2.c **** *******************************************************************************/
  99:Generated_Source\PSoC5/AMuxSeq_2.c **** void AMuxSeq_2_Next(void)
 100:Generated_Source\PSoC5/AMuxSeq_2.c **** {
 120              		.loc 1 100 0
 121              		.cfi_startproc
 122              		@ args = 0, pretend = 0, frame = 0
 123              		@ frame_needed = 1, uses_anonymous_args = 0
 124 0000 80B5     		push	{r7, lr}
 125              		.cfi_def_cfa_offset 8
 126              		.cfi_offset 7, -8
 127              		.cfi_offset 14, -4
 128 0002 00AF     		add	r7, sp, #0
ARM GAS  C:\Users\JEFFSN~1\AppData\Local\Temp\ccTeBEbx.s 			page 5


 129              		.cfi_def_cfa_register 7
 101:Generated_Source\PSoC5/AMuxSeq_2.c ****     AMuxSeq_2_CYAMUXSIDE_A_Next();
 130              		.loc 1 101 0
 131 0004 FFF7FEFF 		bl	AMuxSeq_2_CYAMUXSIDE_A_Next
 102:Generated_Source\PSoC5/AMuxSeq_2.c ****     AMuxSeq_2_CYAMUXSIDE_B_Next();
 132              		.loc 1 102 0
 133 0008 FFF7FEFF 		bl	AMuxSeq_2_CYAMUXSIDE_B_Next
 103:Generated_Source\PSoC5/AMuxSeq_2.c **** }
 134              		.loc 1 103 0
 135 000c 00BF     		nop
 136 000e 80BD     		pop	{r7, pc}
 137              		.cfi_endproc
 138              	.LFE3:
 139              		.size	AMuxSeq_2_Next, .-AMuxSeq_2_Next
 140              		.section	.text.AMuxSeq_2_DisconnectAll,"ax",%progbits
 141              		.align	2
 142              		.global	AMuxSeq_2_DisconnectAll
 143              		.thumb
 144              		.thumb_func
 145              		.type	AMuxSeq_2_DisconnectAll, %function
 146              	AMuxSeq_2_DisconnectAll:
 147              	.LFB4:
 104:Generated_Source\PSoC5/AMuxSeq_2.c **** 
 105:Generated_Source\PSoC5/AMuxSeq_2.c **** 
 106:Generated_Source\PSoC5/AMuxSeq_2.c **** /*******************************************************************************
 107:Generated_Source\PSoC5/AMuxSeq_2.c **** * Function Name: AMuxSeq_2_DisconnectAll
 108:Generated_Source\PSoC5/AMuxSeq_2.c **** ********************************************************************************
 109:Generated_Source\PSoC5/AMuxSeq_2.c **** * Summary:
 110:Generated_Source\PSoC5/AMuxSeq_2.c **** *  This function disconnects all channels. The next time Next is called, channel
 111:Generated_Source\PSoC5/AMuxSeq_2.c **** *  0 will be connected.
 112:Generated_Source\PSoC5/AMuxSeq_2.c **** *
 113:Generated_Source\PSoC5/AMuxSeq_2.c **** * Parameters:
 114:Generated_Source\PSoC5/AMuxSeq_2.c **** *  void
 115:Generated_Source\PSoC5/AMuxSeq_2.c **** *
 116:Generated_Source\PSoC5/AMuxSeq_2.c **** * Return:
 117:Generated_Source\PSoC5/AMuxSeq_2.c **** *  void
 118:Generated_Source\PSoC5/AMuxSeq_2.c **** *
 119:Generated_Source\PSoC5/AMuxSeq_2.c **** *******************************************************************************/
 120:Generated_Source\PSoC5/AMuxSeq_2.c **** void AMuxSeq_2_DisconnectAll(void)
 121:Generated_Source\PSoC5/AMuxSeq_2.c **** {
 148              		.loc 1 121 0
 149              		.cfi_startproc
 150              		@ args = 0, pretend = 0, frame = 0
 151              		@ frame_needed = 1, uses_anonymous_args = 0
 152 0000 80B5     		push	{r7, lr}
 153              		.cfi_def_cfa_offset 8
 154              		.cfi_offset 7, -8
 155              		.cfi_offset 14, -4
 156 0002 00AF     		add	r7, sp, #0
 157              		.cfi_def_cfa_register 7
 122:Generated_Source\PSoC5/AMuxSeq_2.c ****     AMuxSeq_2_CYAMUXSIDE_A_DisconnectAll();
 158              		.loc 1 122 0
 159 0004 FFF7FEFF 		bl	AMuxSeq_2_CYAMUXSIDE_A_DisconnectAll
 123:Generated_Source\PSoC5/AMuxSeq_2.c ****     AMuxSeq_2_CYAMUXSIDE_B_DisconnectAll();
 160              		.loc 1 123 0
 161 0008 FFF7FEFF 		bl	AMuxSeq_2_CYAMUXSIDE_B_DisconnectAll
 124:Generated_Source\PSoC5/AMuxSeq_2.c **** }
ARM GAS  C:\Users\JEFFSN~1\AppData\Local\Temp\ccTeBEbx.s 			page 6


 162              		.loc 1 124 0
 163 000c 00BF     		nop
 164 000e 80BD     		pop	{r7, pc}
 165              		.cfi_endproc
 166              	.LFE4:
 167              		.size	AMuxSeq_2_DisconnectAll, .-AMuxSeq_2_DisconnectAll
 168              		.section	.text.AMuxSeq_2_GetChannel,"ax",%progbits
 169              		.align	2
 170              		.global	AMuxSeq_2_GetChannel
 171              		.thumb
 172              		.thumb_func
 173              		.type	AMuxSeq_2_GetChannel, %function
 174              	AMuxSeq_2_GetChannel:
 175              	.LFB5:
 125:Generated_Source\PSoC5/AMuxSeq_2.c **** 
 126:Generated_Source\PSoC5/AMuxSeq_2.c **** 
 127:Generated_Source\PSoC5/AMuxSeq_2.c **** /*******************************************************************************
 128:Generated_Source\PSoC5/AMuxSeq_2.c **** * Function Name: AMuxSeq_2_GetChannel
 129:Generated_Source\PSoC5/AMuxSeq_2.c **** ********************************************************************************
 130:Generated_Source\PSoC5/AMuxSeq_2.c **** * Summary:
 131:Generated_Source\PSoC5/AMuxSeq_2.c **** *  The currently connected channel is retuned. If no channel is connected
 132:Generated_Source\PSoC5/AMuxSeq_2.c **** *  returns -1.
 133:Generated_Source\PSoC5/AMuxSeq_2.c **** *
 134:Generated_Source\PSoC5/AMuxSeq_2.c **** * Parameters:
 135:Generated_Source\PSoC5/AMuxSeq_2.c **** *  void
 136:Generated_Source\PSoC5/AMuxSeq_2.c **** *
 137:Generated_Source\PSoC5/AMuxSeq_2.c **** * Return:
 138:Generated_Source\PSoC5/AMuxSeq_2.c **** *  The current channel or -1.
 139:Generated_Source\PSoC5/AMuxSeq_2.c **** *
 140:Generated_Source\PSoC5/AMuxSeq_2.c **** *******************************************************************************/
 141:Generated_Source\PSoC5/AMuxSeq_2.c **** int8 AMuxSeq_2_GetChannel(void)
 142:Generated_Source\PSoC5/AMuxSeq_2.c **** {
 176              		.loc 1 142 0
 177              		.cfi_startproc
 178              		@ args = 0, pretend = 0, frame = 0
 179              		@ frame_needed = 1, uses_anonymous_args = 0
 180              		@ link register save eliminated.
 181 0000 80B4     		push	{r7}
 182              		.cfi_def_cfa_offset 4
 183              		.cfi_offset 7, -4
 184 0002 00AF     		add	r7, sp, #0
 185              		.cfi_def_cfa_register 7
 143:Generated_Source\PSoC5/AMuxSeq_2.c ****     return AMuxSeq_2_CYAMUXSIDE_A_curChannel;
 186              		.loc 1 143 0
 187 0004 034B     		ldr	r3, .L10
 188 0006 93F90030 		ldrsb	r3, [r3]
 144:Generated_Source\PSoC5/AMuxSeq_2.c **** }
 189              		.loc 1 144 0
 190 000a 1846     		mov	r0, r3
 191 000c BD46     		mov	sp, r7
 192              		.cfi_def_cfa_register 13
 193              		@ sp needed
 194 000e 80BC     		pop	{r7}
 195              		.cfi_restore 7
 196              		.cfi_def_cfa_offset 0
 197 0010 7047     		bx	lr
 198              	.L11:
ARM GAS  C:\Users\JEFFSN~1\AppData\Local\Temp\ccTeBEbx.s 			page 7


 199 0012 00BF     		.align	2
 200              	.L10:
 201 0014 00000000 		.word	AMuxSeq_2_CYAMUXSIDE_A_curChannel
 202              		.cfi_endproc
 203              	.LFE5:
 204              		.size	AMuxSeq_2_GetChannel, .-AMuxSeq_2_GetChannel
 205              		.text
 206              	.Letext0:
 207              		.file 2 "Generated_Source\\PSoC5\\cytypes.h"
 208              		.file 3 "Generated_Source\\PSoC5\\cyfitter_cfg.h"