ARM GAS  C:\Users\JEFFSN~1\AppData\Local\Temp\ccb2kxKi.s 			page 1


   1              		.syntax unified
   2              		.cpu cortex-m3
   3              		.fpu softvfp
   4              		.eabi_attribute 20, 1
   5              		.eabi_attribute 21, 1
   6              		.eabi_attribute 23, 3
   7              		.eabi_attribute 24, 1
   8              		.eabi_attribute 25, 1
   9              		.eabi_attribute 26, 1
  10              		.eabi_attribute 30, 6
  11              		.eabi_attribute 34, 1
  12              		.eabi_attribute 18, 4
  13              		.thumb
  14              		.syntax unified
  15              		.file	"AMuxSeq_1.c"
  16              		.text
  17              	.Ltext0:
  18              		.cfi_sections	.debug_frame
  19              		.global	AMuxSeq_1_initVar
  20              		.bss
  21              		.type	AMuxSeq_1_initVar, %object
  22              		.size	AMuxSeq_1_initVar, 1
  23              	AMuxSeq_1_initVar:
  24 0000 00       		.space	1
  25              		.section	.text.AMuxSeq_1_Start,"ax",%progbits
  26              		.align	2
  27              		.global	AMuxSeq_1_Start
  28              		.thumb
  29              		.thumb_func
  30              		.type	AMuxSeq_1_Start, %function
  31              	AMuxSeq_1_Start:
  32              	.LFB0:
  33              		.file 1 "Generated_Source\\PSoC5\\AMuxSeq_1.c"
   1:Generated_Source\PSoC5/AMuxSeq_1.c **** /*******************************************************************************
   2:Generated_Source\PSoC5/AMuxSeq_1.c **** * File Name: AMuxSeq_1.c
   3:Generated_Source\PSoC5/AMuxSeq_1.c **** * Version 1.80
   4:Generated_Source\PSoC5/AMuxSeq_1.c **** *
   5:Generated_Source\PSoC5/AMuxSeq_1.c **** *  Description:
   6:Generated_Source\PSoC5/AMuxSeq_1.c **** *    This file contains functions for the AMuxSeq.
   7:Generated_Source\PSoC5/AMuxSeq_1.c **** *
   8:Generated_Source\PSoC5/AMuxSeq_1.c **** *   Note:
   9:Generated_Source\PSoC5/AMuxSeq_1.c **** *
  10:Generated_Source\PSoC5/AMuxSeq_1.c **** *******************************************************************************
  11:Generated_Source\PSoC5/AMuxSeq_1.c **** * Copyright 2008-2010, Cypress Semiconductor Corporation.  All rights reserved.
  12:Generated_Source\PSoC5/AMuxSeq_1.c **** * You may use this file only in accordance with the license, terms, conditions, 
  13:Generated_Source\PSoC5/AMuxSeq_1.c **** * disclaimers, and limitations in the end user license agreement accompanying 
  14:Generated_Source\PSoC5/AMuxSeq_1.c **** * the software package with which this file was provided.
  15:Generated_Source\PSoC5/AMuxSeq_1.c **** ********************************************************************************/
  16:Generated_Source\PSoC5/AMuxSeq_1.c **** 
  17:Generated_Source\PSoC5/AMuxSeq_1.c **** #include "AMuxSeq_1.h"
  18:Generated_Source\PSoC5/AMuxSeq_1.c **** 
  19:Generated_Source\PSoC5/AMuxSeq_1.c **** uint8 AMuxSeq_1_initVar = 0u;
  20:Generated_Source\PSoC5/AMuxSeq_1.c **** 
  21:Generated_Source\PSoC5/AMuxSeq_1.c **** 
  22:Generated_Source\PSoC5/AMuxSeq_1.c **** /*******************************************************************************
  23:Generated_Source\PSoC5/AMuxSeq_1.c **** * Function Name: AMuxSeq_1_Start
  24:Generated_Source\PSoC5/AMuxSeq_1.c **** ********************************************************************************
ARM GAS  C:\Users\JEFFSN~1\AppData\Local\Temp\ccb2kxKi.s 			page 2


  25:Generated_Source\PSoC5/AMuxSeq_1.c **** * Summary:
  26:Generated_Source\PSoC5/AMuxSeq_1.c **** *  Disconnect all channels. The next time Next is called, channel 0 will be
  27:Generated_Source\PSoC5/AMuxSeq_1.c **** *  connected.
  28:Generated_Source\PSoC5/AMuxSeq_1.c **** *
  29:Generated_Source\PSoC5/AMuxSeq_1.c **** * Parameters:
  30:Generated_Source\PSoC5/AMuxSeq_1.c **** *  void
  31:Generated_Source\PSoC5/AMuxSeq_1.c **** *
  32:Generated_Source\PSoC5/AMuxSeq_1.c **** * Return:
  33:Generated_Source\PSoC5/AMuxSeq_1.c **** *  void
  34:Generated_Source\PSoC5/AMuxSeq_1.c **** *
  35:Generated_Source\PSoC5/AMuxSeq_1.c **** *******************************************************************************/
  36:Generated_Source\PSoC5/AMuxSeq_1.c **** void AMuxSeq_1_Start(void)
  37:Generated_Source\PSoC5/AMuxSeq_1.c **** {
  34              		.loc 1 37 0
  35              		.cfi_startproc
  36              		@ args = 0, pretend = 0, frame = 0
  37              		@ frame_needed = 1, uses_anonymous_args = 0
  38 0000 80B5     		push	{r7, lr}
  39              		.cfi_def_cfa_offset 8
  40              		.cfi_offset 7, -8
  41              		.cfi_offset 14, -4
  42 0002 00AF     		add	r7, sp, #0
  43              		.cfi_def_cfa_register 7
  38:Generated_Source\PSoC5/AMuxSeq_1.c ****     AMuxSeq_1_DisconnectAll();
  44              		.loc 1 38 0
  45 0004 FFF7FEFF 		bl	AMuxSeq_1_DisconnectAll
  39:Generated_Source\PSoC5/AMuxSeq_1.c ****     AMuxSeq_1_initVar = 1u;
  46              		.loc 1 39 0
  47 0008 024B     		ldr	r3, .L2
  48 000a 0122     		movs	r2, #1
  49 000c 1A70     		strb	r2, [r3]
  40:Generated_Source\PSoC5/AMuxSeq_1.c **** }
  50              		.loc 1 40 0
  51 000e 00BF     		nop
  52 0010 80BD     		pop	{r7, pc}
  53              	.L3:
  54 0012 00BF     		.align	2
  55              	.L2:
  56 0014 00000000 		.word	AMuxSeq_1_initVar
  57              		.cfi_endproc
  58              	.LFE0:
  59              		.size	AMuxSeq_1_Start, .-AMuxSeq_1_Start
  60              		.section	.text.AMuxSeq_1_Init,"ax",%progbits
  61              		.align	2
  62              		.global	AMuxSeq_1_Init
  63              		.thumb
  64              		.thumb_func
  65              		.type	AMuxSeq_1_Init, %function
  66              	AMuxSeq_1_Init:
  67              	.LFB1:
  41:Generated_Source\PSoC5/AMuxSeq_1.c **** 
  42:Generated_Source\PSoC5/AMuxSeq_1.c **** 
  43:Generated_Source\PSoC5/AMuxSeq_1.c **** /*******************************************************************************
  44:Generated_Source\PSoC5/AMuxSeq_1.c **** * Function Name: AMuxSeq_1_Init
  45:Generated_Source\PSoC5/AMuxSeq_1.c **** ********************************************************************************
  46:Generated_Source\PSoC5/AMuxSeq_1.c **** * Summary:
  47:Generated_Source\PSoC5/AMuxSeq_1.c **** *  Disconnect all channels. The next time Next is called, channel 0 will be
ARM GAS  C:\Users\JEFFSN~1\AppData\Local\Temp\ccb2kxKi.s 			page 3


  48:Generated_Source\PSoC5/AMuxSeq_1.c **** *  connected.
  49:Generated_Source\PSoC5/AMuxSeq_1.c **** *
  50:Generated_Source\PSoC5/AMuxSeq_1.c **** * Parameters:
  51:Generated_Source\PSoC5/AMuxSeq_1.c **** *  void
  52:Generated_Source\PSoC5/AMuxSeq_1.c **** *
  53:Generated_Source\PSoC5/AMuxSeq_1.c **** * Return:
  54:Generated_Source\PSoC5/AMuxSeq_1.c **** *  void
  55:Generated_Source\PSoC5/AMuxSeq_1.c **** *
  56:Generated_Source\PSoC5/AMuxSeq_1.c **** *******************************************************************************/
  57:Generated_Source\PSoC5/AMuxSeq_1.c **** void AMuxSeq_1_Init(void)
  58:Generated_Source\PSoC5/AMuxSeq_1.c **** {
  68              		.loc 1 58 0
  69              		.cfi_startproc
  70              		@ args = 0, pretend = 0, frame = 0
  71              		@ frame_needed = 1, uses_anonymous_args = 0
  72 0000 80B5     		push	{r7, lr}
  73              		.cfi_def_cfa_offset 8
  74              		.cfi_offset 7, -8
  75              		.cfi_offset 14, -4
  76 0002 00AF     		add	r7, sp, #0
  77              		.cfi_def_cfa_register 7
  59:Generated_Source\PSoC5/AMuxSeq_1.c ****     AMuxSeq_1_DisconnectAll();
  78              		.loc 1 59 0
  79 0004 FFF7FEFF 		bl	AMuxSeq_1_DisconnectAll
  60:Generated_Source\PSoC5/AMuxSeq_1.c **** }
  80              		.loc 1 60 0
  81 0008 00BF     		nop
  82 000a 80BD     		pop	{r7, pc}
  83              		.cfi_endproc
  84              	.LFE1:
  85              		.size	AMuxSeq_1_Init, .-AMuxSeq_1_Init
  86              		.section	.text.AMuxSeq_1_Stop,"ax",%progbits
  87              		.align	2
  88              		.global	AMuxSeq_1_Stop
  89              		.thumb
  90              		.thumb_func
  91              		.type	AMuxSeq_1_Stop, %function
  92              	AMuxSeq_1_Stop:
  93              	.LFB2:
  61:Generated_Source\PSoC5/AMuxSeq_1.c **** 
  62:Generated_Source\PSoC5/AMuxSeq_1.c **** 
  63:Generated_Source\PSoC5/AMuxSeq_1.c **** /*******************************************************************************
  64:Generated_Source\PSoC5/AMuxSeq_1.c **** * Function Name: AMuxSeq_1_Stop
  65:Generated_Source\PSoC5/AMuxSeq_1.c **** ********************************************************************************
  66:Generated_Source\PSoC5/AMuxSeq_1.c **** * Summary:
  67:Generated_Source\PSoC5/AMuxSeq_1.c **** *  Disconnect all channels. The next time Next is called, channel 0 will be
  68:Generated_Source\PSoC5/AMuxSeq_1.c **** *  connected.
  69:Generated_Source\PSoC5/AMuxSeq_1.c **** *
  70:Generated_Source\PSoC5/AMuxSeq_1.c **** * Parameters:
  71:Generated_Source\PSoC5/AMuxSeq_1.c **** *  void
  72:Generated_Source\PSoC5/AMuxSeq_1.c **** *
  73:Generated_Source\PSoC5/AMuxSeq_1.c **** * Return:
  74:Generated_Source\PSoC5/AMuxSeq_1.c **** *  void
  75:Generated_Source\PSoC5/AMuxSeq_1.c **** *
  76:Generated_Source\PSoC5/AMuxSeq_1.c **** *******************************************************************************/
  77:Generated_Source\PSoC5/AMuxSeq_1.c **** void AMuxSeq_1_Stop(void)
  78:Generated_Source\PSoC5/AMuxSeq_1.c **** {
ARM GAS  C:\Users\JEFFSN~1\AppData\Local\Temp\ccb2kxKi.s 			page 4


  94              		.loc 1 78 0
  95              		.cfi_startproc
  96              		@ args = 0, pretend = 0, frame = 0
  97              		@ frame_needed = 1, uses_anonymous_args = 0
  98 0000 80B5     		push	{r7, lr}
  99              		.cfi_def_cfa_offset 8
 100              		.cfi_offset 7, -8
 101              		.cfi_offset 14, -4
 102 0002 00AF     		add	r7, sp, #0
 103              		.cfi_def_cfa_register 7
  79:Generated_Source\PSoC5/AMuxSeq_1.c ****     AMuxSeq_1_DisconnectAll();
 104              		.loc 1 79 0
 105 0004 FFF7FEFF 		bl	AMuxSeq_1_DisconnectAll
  80:Generated_Source\PSoC5/AMuxSeq_1.c **** }
 106              		.loc 1 80 0
 107 0008 00BF     		nop
 108 000a 80BD     		pop	{r7, pc}
 109              		.cfi_endproc
 110              	.LFE2:
 111              		.size	AMuxSeq_1_Stop, .-AMuxSeq_1_Stop
 112              		.section	.text.AMuxSeq_1_GetChannel,"ax",%progbits
 113              		.align	2
 114              		.global	AMuxSeq_1_GetChannel
 115              		.thumb
 116              		.thumb_func
 117              		.type	AMuxSeq_1_GetChannel, %function
 118              	AMuxSeq_1_GetChannel:
 119              	.LFB3:
  81:Generated_Source\PSoC5/AMuxSeq_1.c **** 
  82:Generated_Source\PSoC5/AMuxSeq_1.c **** #if (AMuxSeq_1_MUXTYPE == AMuxSeq_1_MUX_DIFF)
  83:Generated_Source\PSoC5/AMuxSeq_1.c **** 
  84:Generated_Source\PSoC5/AMuxSeq_1.c **** /*******************************************************************************
  85:Generated_Source\PSoC5/AMuxSeq_1.c **** * Function Name: AMuxSeq_1_Next
  86:Generated_Source\PSoC5/AMuxSeq_1.c **** ********************************************************************************
  87:Generated_Source\PSoC5/AMuxSeq_1.c **** * Summary:
  88:Generated_Source\PSoC5/AMuxSeq_1.c **** *  Disconnects the previous channel and connects the next one in the sequence.
  89:Generated_Source\PSoC5/AMuxSeq_1.c **** *  When Next is called for the first time after Init, Start, Enable, Stop, or
  90:Generated_Source\PSoC5/AMuxSeq_1.c **** *  DisconnectAll, it connects channel 0.
  91:Generated_Source\PSoC5/AMuxSeq_1.c **** *
  92:Generated_Source\PSoC5/AMuxSeq_1.c **** * Parameters:
  93:Generated_Source\PSoC5/AMuxSeq_1.c **** *  void
  94:Generated_Source\PSoC5/AMuxSeq_1.c **** *
  95:Generated_Source\PSoC5/AMuxSeq_1.c **** * Return:
  96:Generated_Source\PSoC5/AMuxSeq_1.c **** *  void
  97:Generated_Source\PSoC5/AMuxSeq_1.c **** *
  98:Generated_Source\PSoC5/AMuxSeq_1.c **** *******************************************************************************/
  99:Generated_Source\PSoC5/AMuxSeq_1.c **** void AMuxSeq_1_Next(void)
 100:Generated_Source\PSoC5/AMuxSeq_1.c **** {
 101:Generated_Source\PSoC5/AMuxSeq_1.c ****     AMuxSeq_1_CYAMUXSIDE_A_Next();
 102:Generated_Source\PSoC5/AMuxSeq_1.c ****     AMuxSeq_1_CYAMUXSIDE_B_Next();
 103:Generated_Source\PSoC5/AMuxSeq_1.c **** }
 104:Generated_Source\PSoC5/AMuxSeq_1.c **** 
 105:Generated_Source\PSoC5/AMuxSeq_1.c **** 
 106:Generated_Source\PSoC5/AMuxSeq_1.c **** /*******************************************************************************
 107:Generated_Source\PSoC5/AMuxSeq_1.c **** * Function Name: AMuxSeq_1_DisconnectAll
 108:Generated_Source\PSoC5/AMuxSeq_1.c **** ********************************************************************************
 109:Generated_Source\PSoC5/AMuxSeq_1.c **** * Summary:
ARM GAS  C:\Users\JEFFSN~1\AppData\Local\Temp\ccb2kxKi.s 			page 5


 110:Generated_Source\PSoC5/AMuxSeq_1.c **** *  This function disconnects all channels. The next time Next is called, channel
 111:Generated_Source\PSoC5/AMuxSeq_1.c **** *  0 will be connected.
 112:Generated_Source\PSoC5/AMuxSeq_1.c **** *
 113:Generated_Source\PSoC5/AMuxSeq_1.c **** * Parameters:
 114:Generated_Source\PSoC5/AMuxSeq_1.c **** *  void
 115:Generated_Source\PSoC5/AMuxSeq_1.c **** *
 116:Generated_Source\PSoC5/AMuxSeq_1.c **** * Return:
 117:Generated_Source\PSoC5/AMuxSeq_1.c **** *  void
 118:Generated_Source\PSoC5/AMuxSeq_1.c **** *
 119:Generated_Source\PSoC5/AMuxSeq_1.c **** *******************************************************************************/
 120:Generated_Source\PSoC5/AMuxSeq_1.c **** void AMuxSeq_1_DisconnectAll(void)
 121:Generated_Source\PSoC5/AMuxSeq_1.c **** {
 122:Generated_Source\PSoC5/AMuxSeq_1.c ****     AMuxSeq_1_CYAMUXSIDE_A_DisconnectAll();
 123:Generated_Source\PSoC5/AMuxSeq_1.c ****     AMuxSeq_1_CYAMUXSIDE_B_DisconnectAll();
 124:Generated_Source\PSoC5/AMuxSeq_1.c **** }
 125:Generated_Source\PSoC5/AMuxSeq_1.c **** 
 126:Generated_Source\PSoC5/AMuxSeq_1.c **** 
 127:Generated_Source\PSoC5/AMuxSeq_1.c **** /*******************************************************************************
 128:Generated_Source\PSoC5/AMuxSeq_1.c **** * Function Name: AMuxSeq_1_GetChannel
 129:Generated_Source\PSoC5/AMuxSeq_1.c **** ********************************************************************************
 130:Generated_Source\PSoC5/AMuxSeq_1.c **** * Summary:
 131:Generated_Source\PSoC5/AMuxSeq_1.c **** *  The currently connected channel is retuned. If no channel is connected
 132:Generated_Source\PSoC5/AMuxSeq_1.c **** *  returns -1.
 133:Generated_Source\PSoC5/AMuxSeq_1.c **** *
 134:Generated_Source\PSoC5/AMuxSeq_1.c **** * Parameters:
 135:Generated_Source\PSoC5/AMuxSeq_1.c **** *  void
 136:Generated_Source\PSoC5/AMuxSeq_1.c **** *
 137:Generated_Source\PSoC5/AMuxSeq_1.c **** * Return:
 138:Generated_Source\PSoC5/AMuxSeq_1.c **** *  The current channel or -1.
 139:Generated_Source\PSoC5/AMuxSeq_1.c **** *
 140:Generated_Source\PSoC5/AMuxSeq_1.c **** *******************************************************************************/
 141:Generated_Source\PSoC5/AMuxSeq_1.c **** int8 AMuxSeq_1_GetChannel(void)
 142:Generated_Source\PSoC5/AMuxSeq_1.c **** {
 143:Generated_Source\PSoC5/AMuxSeq_1.c ****     return AMuxSeq_1_CYAMUXSIDE_A_curChannel;
 144:Generated_Source\PSoC5/AMuxSeq_1.c **** }
 145:Generated_Source\PSoC5/AMuxSeq_1.c **** 
 146:Generated_Source\PSoC5/AMuxSeq_1.c **** #else
 147:Generated_Source\PSoC5/AMuxSeq_1.c **** 
 148:Generated_Source\PSoC5/AMuxSeq_1.c **** /*******************************************************************************
 149:Generated_Source\PSoC5/AMuxSeq_1.c **** * Function Name: AMuxSeq_1_GetChannel
 150:Generated_Source\PSoC5/AMuxSeq_1.c **** ********************************************************************************
 151:Generated_Source\PSoC5/AMuxSeq_1.c **** * Summary:
 152:Generated_Source\PSoC5/AMuxSeq_1.c **** *  The currently connected channel is retuned. If no channel is connected
 153:Generated_Source\PSoC5/AMuxSeq_1.c **** *  returns -1.
 154:Generated_Source\PSoC5/AMuxSeq_1.c **** *
 155:Generated_Source\PSoC5/AMuxSeq_1.c **** * Parameters:
 156:Generated_Source\PSoC5/AMuxSeq_1.c **** *  void
 157:Generated_Source\PSoC5/AMuxSeq_1.c **** *
 158:Generated_Source\PSoC5/AMuxSeq_1.c **** * Return:
 159:Generated_Source\PSoC5/AMuxSeq_1.c **** *  The current channel or -1.
 160:Generated_Source\PSoC5/AMuxSeq_1.c **** *
 161:Generated_Source\PSoC5/AMuxSeq_1.c **** *******************************************************************************/
 162:Generated_Source\PSoC5/AMuxSeq_1.c **** int8 AMuxSeq_1_GetChannel(void)
 163:Generated_Source\PSoC5/AMuxSeq_1.c **** {
 120              		.loc 1 163 0
 121              		.cfi_startproc
 122              		@ args = 0, pretend = 0, frame = 0
ARM GAS  C:\Users\JEFFSN~1\AppData\Local\Temp\ccb2kxKi.s 			page 6


 123              		@ frame_needed = 1, uses_anonymous_args = 0
 124              		@ link register save eliminated.
 125 0000 80B4     		push	{r7}
 126              		.cfi_def_cfa_offset 4
 127              		.cfi_offset 7, -4
 128 0002 00AF     		add	r7, sp, #0
 129              		.cfi_def_cfa_register 7
 164:Generated_Source\PSoC5/AMuxSeq_1.c ****     return AMuxSeq_1_curChannel;
 130              		.loc 1 164 0
 131 0004 034B     		ldr	r3, .L8
 132 0006 93F90030 		ldrsb	r3, [r3]
 165:Generated_Source\PSoC5/AMuxSeq_1.c **** }
 133              		.loc 1 165 0
 134 000a 1846     		mov	r0, r3
 135 000c BD46     		mov	sp, r7
 136              		.cfi_def_cfa_register 13
 137              		@ sp needed
 138 000e 80BC     		pop	{r7}
 139              		.cfi_restore 7
 140              		.cfi_def_cfa_offset 0
 141 0010 7047     		bx	lr
 142              	.L9:
 143 0012 00BF     		.align	2
 144              	.L8:
 145 0014 00000000 		.word	AMuxSeq_1_curChannel
 146              		.cfi_endproc
 147              	.LFE3:
 148              		.size	AMuxSeq_1_GetChannel, .-AMuxSeq_1_GetChannel
 149              		.text
 150              	.Letext0:
 151              		.file 2 "Generated_Source\\PSoC5\\cytypes.h"
 152              		.file 3 "Generated_Source\\PSoC5\\cyfitter_cfg.h"