ARM GAS  C:\Users\JEFFSN~1\AppData\Local\Temp\ccuEuQhg.s 			page 1


   1              		.syntax unified
   2              		.cpu cortex-m3
   3              		.fpu softvfp
   4              		.eabi_attribute 20, 1
   5              		.eabi_attribute 21, 1
   6              		.eabi_attribute 23, 3
   7              		.eabi_attribute 24, 1
   8              		.eabi_attribute 25, 1
   9              		.eabi_attribute 26, 1
  10              		.eabi_attribute 30, 6
  11              		.eabi_attribute 34, 1
  12              		.eabi_attribute 18, 4
  13              		.thumb
  14              		.syntax unified
  15              		.file	"cyfitter_cfg.c"
  16              		.text
  17              	.Ltext0:
  18              		.cfi_sections	.debug_frame
  19              		.section	.text.CYMEMZERO,"ax",%progbits
  20              		.align	2
  21              		.thumb
  22              		.thumb_func
  23              		.type	CYMEMZERO, %function
  24              	CYMEMZERO:
  25              	.LFB0:
  26              		.file 1 "Generated_Source\\PSoC5\\cyfitter_cfg.c"
   1:Generated_Source\PSoC5/cyfitter_cfg.c **** 
   2:Generated_Source\PSoC5/cyfitter_cfg.c **** /*******************************************************************************
   3:Generated_Source\PSoC5/cyfitter_cfg.c **** * File Name: cyfitter_cfg.c
   4:Generated_Source\PSoC5/cyfitter_cfg.c **** * 
   5:Generated_Source\PSoC5/cyfitter_cfg.c **** * PSoC Creator  4.4
   6:Generated_Source\PSoC5/cyfitter_cfg.c **** *
   7:Generated_Source\PSoC5/cyfitter_cfg.c **** * Description:
   8:Generated_Source\PSoC5/cyfitter_cfg.c **** * This file contains device initialization code.
   9:Generated_Source\PSoC5/cyfitter_cfg.c **** * Except for the user defined sections in CyClockStartupError(), this file should not be modified.
  10:Generated_Source\PSoC5/cyfitter_cfg.c **** * This file is automatically generated by PSoC Creator.
  11:Generated_Source\PSoC5/cyfitter_cfg.c **** *
  12:Generated_Source\PSoC5/cyfitter_cfg.c **** ********************************************************************************
  13:Generated_Source\PSoC5/cyfitter_cfg.c **** * Copyright (c) 2007-2020 Cypress Semiconductor.  All rights reserved.
  14:Generated_Source\PSoC5/cyfitter_cfg.c **** * You may use this file only in accordance with the license, terms, conditions, 
  15:Generated_Source\PSoC5/cyfitter_cfg.c **** * disclaimers, and limitations in the end user license agreement accompanying 
  16:Generated_Source\PSoC5/cyfitter_cfg.c **** * the software package with which this file was provided.
  17:Generated_Source\PSoC5/cyfitter_cfg.c **** ********************************************************************************/
  18:Generated_Source\PSoC5/cyfitter_cfg.c **** 
  19:Generated_Source\PSoC5/cyfitter_cfg.c **** #include <string.h>
  20:Generated_Source\PSoC5/cyfitter_cfg.c **** #include "cytypes.h"
  21:Generated_Source\PSoC5/cyfitter_cfg.c **** #include "cydevice_trm.h"
  22:Generated_Source\PSoC5/cyfitter_cfg.c **** #include "cyfitter.h"
  23:Generated_Source\PSoC5/cyfitter_cfg.c **** #include "CyLib.h"
  24:Generated_Source\PSoC5/cyfitter_cfg.c **** #include "cyfitter_cfg.h"
  25:Generated_Source\PSoC5/cyfitter_cfg.c **** 
  26:Generated_Source\PSoC5/cyfitter_cfg.c **** #define CY_NEED_CYCLOCKSTARTUPERROR 1
  27:Generated_Source\PSoC5/cyfitter_cfg.c **** 
  28:Generated_Source\PSoC5/cyfitter_cfg.c **** 
  29:Generated_Source\PSoC5/cyfitter_cfg.c **** #if defined(__GNUC__) || defined(__ARMCC_VERSION)
  30:Generated_Source\PSoC5/cyfitter_cfg.c ****     #define CYPACKED 
  31:Generated_Source\PSoC5/cyfitter_cfg.c ****     #define CYPACKED_ATTR __attribute__ ((packed))
ARM GAS  C:\Users\JEFFSN~1\AppData\Local\Temp\ccuEuQhg.s 			page 2


  32:Generated_Source\PSoC5/cyfitter_cfg.c ****     #define CYALIGNED __attribute__ ((aligned))
  33:Generated_Source\PSoC5/cyfitter_cfg.c ****     #define CY_CFG_UNUSED __attribute__ ((unused))
  34:Generated_Source\PSoC5/cyfitter_cfg.c ****     #ifndef CY_CFG_SECTION
  35:Generated_Source\PSoC5/cyfitter_cfg.c ****         #define CY_CFG_SECTION __attribute__ ((section(".psocinit")))
  36:Generated_Source\PSoC5/cyfitter_cfg.c ****     #endif
  37:Generated_Source\PSoC5/cyfitter_cfg.c ****     
  38:Generated_Source\PSoC5/cyfitter_cfg.c ****     #if CYDEV_CONFIGURATION_DMA
  39:Generated_Source\PSoC5/cyfitter_cfg.c ****         #if (defined(__ARMCC_VERSION) || defined(__GNUC__))
  40:Generated_Source\PSoC5/cyfitter_cfg.c ****             #ifndef DMAINITSEC
  41:Generated_Source\PSoC5/cyfitter_cfg.c ****                 #define DMAINITSEC __attribute__ ((section(".dma_init")))
  42:Generated_Source\PSoC5/cyfitter_cfg.c ****             #endif
  43:Generated_Source\PSoC5/cyfitter_cfg.c ****         #elif defined(__ICCARM__)
  44:Generated_Source\PSoC5/cyfitter_cfg.c ****             #define DMAINITSEC _Pragma("location=\".dma_init\"")
  45:Generated_Source\PSoC5/cyfitter_cfg.c ****         #endif
  46:Generated_Source\PSoC5/cyfitter_cfg.c ****     #else
  47:Generated_Source\PSoC5/cyfitter_cfg.c ****         #define DMAINITSEC
  48:Generated_Source\PSoC5/cyfitter_cfg.c ****     #endif
  49:Generated_Source\PSoC5/cyfitter_cfg.c **** 
  50:Generated_Source\PSoC5/cyfitter_cfg.c ****     #if defined(__ARMCC_VERSION)
  51:Generated_Source\PSoC5/cyfitter_cfg.c ****         #define CY_CFG_MEMORY_BARRIER() __memory_changed()
  52:Generated_Source\PSoC5/cyfitter_cfg.c ****     #else
  53:Generated_Source\PSoC5/cyfitter_cfg.c ****         #define CY_CFG_MEMORY_BARRIER() __sync_synchronize()
  54:Generated_Source\PSoC5/cyfitter_cfg.c ****     #endif
  55:Generated_Source\PSoC5/cyfitter_cfg.c ****     
  56:Generated_Source\PSoC5/cyfitter_cfg.c **** #elif defined(__ICCARM__)
  57:Generated_Source\PSoC5/cyfitter_cfg.c ****     #include <intrinsics.h>
  58:Generated_Source\PSoC5/cyfitter_cfg.c **** 
  59:Generated_Source\PSoC5/cyfitter_cfg.c ****     #define CYPACKED __packed
  60:Generated_Source\PSoC5/cyfitter_cfg.c ****     #define CYPACKED_ATTR 
  61:Generated_Source\PSoC5/cyfitter_cfg.c ****     #define CYALIGNED _Pragma("data_alignment=4")
  62:Generated_Source\PSoC5/cyfitter_cfg.c ****     #define CY_CFG_UNUSED _Pragma("diag_suppress=Pe177")
  63:Generated_Source\PSoC5/cyfitter_cfg.c ****     #define CY_CFG_SECTION _Pragma("location=\".psocinit\"")
  64:Generated_Source\PSoC5/cyfitter_cfg.c ****     
  65:Generated_Source\PSoC5/cyfitter_cfg.c ****     #if CYDEV_CONFIGURATION_DMA
  66:Generated_Source\PSoC5/cyfitter_cfg.c ****         #if (defined(__ARMCC_VERSION) || defined(__GNUC__))
  67:Generated_Source\PSoC5/cyfitter_cfg.c ****             #ifndef DMAINITSEC
  68:Generated_Source\PSoC5/cyfitter_cfg.c ****                 #define DMAINITSEC __attribute__ ((section(".dma_init")))
  69:Generated_Source\PSoC5/cyfitter_cfg.c ****             #endif
  70:Generated_Source\PSoC5/cyfitter_cfg.c ****         #elif defined(__ICCARM__)
  71:Generated_Source\PSoC5/cyfitter_cfg.c ****             #define DMAINITSEC _Pragma("location=\".dma_init\"")
  72:Generated_Source\PSoC5/cyfitter_cfg.c ****         #endif
  73:Generated_Source\PSoC5/cyfitter_cfg.c ****     #else
  74:Generated_Source\PSoC5/cyfitter_cfg.c ****         #define DMAINITSEC
  75:Generated_Source\PSoC5/cyfitter_cfg.c ****     #endif
  76:Generated_Source\PSoC5/cyfitter_cfg.c **** 
  77:Generated_Source\PSoC5/cyfitter_cfg.c ****     #define CY_CFG_MEMORY_BARRIER() __DMB()
  78:Generated_Source\PSoC5/cyfitter_cfg.c ****     
  79:Generated_Source\PSoC5/cyfitter_cfg.c **** #else
  80:Generated_Source\PSoC5/cyfitter_cfg.c ****     #error Unsupported toolchain
  81:Generated_Source\PSoC5/cyfitter_cfg.c **** #endif
  82:Generated_Source\PSoC5/cyfitter_cfg.c **** 
  83:Generated_Source\PSoC5/cyfitter_cfg.c **** #ifndef CYCODE
  84:Generated_Source\PSoC5/cyfitter_cfg.c ****     #define CYCODE
  85:Generated_Source\PSoC5/cyfitter_cfg.c **** #endif
  86:Generated_Source\PSoC5/cyfitter_cfg.c **** #ifndef CYDATA
  87:Generated_Source\PSoC5/cyfitter_cfg.c ****     #define CYDATA
  88:Generated_Source\PSoC5/cyfitter_cfg.c **** #endif
ARM GAS  C:\Users\JEFFSN~1\AppData\Local\Temp\ccuEuQhg.s 			page 3


  89:Generated_Source\PSoC5/cyfitter_cfg.c **** #ifndef CYFAR
  90:Generated_Source\PSoC5/cyfitter_cfg.c ****     #define CYFAR
  91:Generated_Source\PSoC5/cyfitter_cfg.c **** #endif
  92:Generated_Source\PSoC5/cyfitter_cfg.c **** #ifndef CYXDATA
  93:Generated_Source\PSoC5/cyfitter_cfg.c ****     #define CYXDATA
  94:Generated_Source\PSoC5/cyfitter_cfg.c **** #endif
  95:Generated_Source\PSoC5/cyfitter_cfg.c **** 
  96:Generated_Source\PSoC5/cyfitter_cfg.c **** 
  97:Generated_Source\PSoC5/cyfitter_cfg.c **** CY_CFG_UNUSED
  98:Generated_Source\PSoC5/cyfitter_cfg.c **** static void CYMEMZERO(void *s, size_t n);
  99:Generated_Source\PSoC5/cyfitter_cfg.c **** CY_CFG_UNUSED
 100:Generated_Source\PSoC5/cyfitter_cfg.c **** static void CYMEMZERO(void *s, size_t n)
 101:Generated_Source\PSoC5/cyfitter_cfg.c **** {
  27              		.loc 1 101 0
  28              		.cfi_startproc
  29              		@ args = 0, pretend = 0, frame = 8
  30              		@ frame_needed = 1, uses_anonymous_args = 0
  31 0000 80B5     		push	{r7, lr}
  32              		.cfi_def_cfa_offset 8
  33              		.cfi_offset 7, -8
  34              		.cfi_offset 14, -4
  35 0002 82B0     		sub	sp, sp, #8
  36              		.cfi_def_cfa_offset 16
  37 0004 00AF     		add	r7, sp, #0
  38              		.cfi_def_cfa_register 7
  39 0006 7860     		str	r0, [r7, #4]
  40 0008 3960     		str	r1, [r7]
 102:Generated_Source\PSoC5/cyfitter_cfg.c **** 	(void)memset(s, 0, n);
  41              		.loc 1 102 0
  42 000a 3A68     		ldr	r2, [r7]
  43 000c 0021     		movs	r1, #0
  44 000e 7868     		ldr	r0, [r7, #4]
  45 0010 FFF7FEFF 		bl	memset
 103:Generated_Source\PSoC5/cyfitter_cfg.c **** }
  46              		.loc 1 103 0
  47 0014 00BF     		nop
  48 0016 0837     		adds	r7, r7, #8
  49              		.cfi_def_cfa_offset 8
  50 0018 BD46     		mov	sp, r7
  51              		.cfi_def_cfa_register 13
  52              		@ sp needed
  53 001a 80BD     		pop	{r7, pc}
  54              		.cfi_endproc
  55              	.LFE0:
  56              		.size	CYMEMZERO, .-CYMEMZERO
  57              		.section	.text.CYCONFIGCPY,"ax",%progbits
  58              		.align	2
  59              		.thumb
  60              		.thumb_func
  61              		.type	CYCONFIGCPY, %function
  62              	CYCONFIGCPY:
  63              	.LFB1:
 104:Generated_Source\PSoC5/cyfitter_cfg.c **** CY_CFG_UNUSED
 105:Generated_Source\PSoC5/cyfitter_cfg.c **** static void CYCONFIGCPY(void *dest, const void *src, size_t n);
 106:Generated_Source\PSoC5/cyfitter_cfg.c **** CY_CFG_UNUSED
 107:Generated_Source\PSoC5/cyfitter_cfg.c **** static void CYCONFIGCPY(void *dest, const void *src, size_t n)
 108:Generated_Source\PSoC5/cyfitter_cfg.c **** {
ARM GAS  C:\Users\JEFFSN~1\AppData\Local\Temp\ccuEuQhg.s 			page 4


  64              		.loc 1 108 0
  65              		.cfi_startproc
  66              		@ args = 0, pretend = 0, frame = 16
  67              		@ frame_needed = 1, uses_anonymous_args = 0
  68 0000 80B5     		push	{r7, lr}
  69              		.cfi_def_cfa_offset 8
  70              		.cfi_offset 7, -8
  71              		.cfi_offset 14, -4
  72 0002 84B0     		sub	sp, sp, #16
  73              		.cfi_def_cfa_offset 24
  74 0004 00AF     		add	r7, sp, #0
  75              		.cfi_def_cfa_register 7
  76 0006 F860     		str	r0, [r7, #12]
  77 0008 B960     		str	r1, [r7, #8]
  78 000a 7A60     		str	r2, [r7, #4]
 109:Generated_Source\PSoC5/cyfitter_cfg.c **** 	(void)memcpy(dest, src, n);
  79              		.loc 1 109 0
  80 000c 7A68     		ldr	r2, [r7, #4]
  81 000e B968     		ldr	r1, [r7, #8]
  82 0010 F868     		ldr	r0, [r7, #12]
  83 0012 FFF7FEFF 		bl	memcpy
 110:Generated_Source\PSoC5/cyfitter_cfg.c **** }
  84              		.loc 1 110 0
  85 0016 00BF     		nop
  86 0018 1037     		adds	r7, r7, #16
  87              		.cfi_def_cfa_offset 8
  88 001a BD46     		mov	sp, r7
  89              		.cfi_def_cfa_register 13
  90              		@ sp needed
  91 001c 80BD     		pop	{r7, pc}
  92              		.cfi_endproc
  93              	.LFE1:
  94              		.size	CYCONFIGCPY, .-CYCONFIGCPY
  95 001e 00BF     		.section	.text.CYCONFIGCPYCODE,"ax",%progbits
  96              		.align	2
  97              		.thumb
  98              		.thumb_func
  99              		.type	CYCONFIGCPYCODE, %function
 100              	CYCONFIGCPYCODE:
 101              	.LFB2:
 111:Generated_Source\PSoC5/cyfitter_cfg.c **** CY_CFG_UNUSED
 112:Generated_Source\PSoC5/cyfitter_cfg.c **** static void CYCONFIGCPYCODE(void *dest, const void *src, size_t n);
 113:Generated_Source\PSoC5/cyfitter_cfg.c **** CY_CFG_UNUSED
 114:Generated_Source\PSoC5/cyfitter_cfg.c **** static void CYCONFIGCPYCODE(void *dest, const void *src, size_t n)
 115:Generated_Source\PSoC5/cyfitter_cfg.c **** {
 102              		.loc 1 115 0
 103              		.cfi_startproc
 104              		@ args = 0, pretend = 0, frame = 16
 105              		@ frame_needed = 1, uses_anonymous_args = 0
 106 0000 80B5     		push	{r7, lr}
 107              		.cfi_def_cfa_offset 8
 108              		.cfi_offset 7, -8
 109              		.cfi_offset 14, -4
 110 0002 84B0     		sub	sp, sp, #16
 111              		.cfi_def_cfa_offset 24
 112 0004 00AF     		add	r7, sp, #0
 113              		.cfi_def_cfa_register 7
ARM GAS  C:\Users\JEFFSN~1\AppData\Local\Temp\ccuEuQhg.s 			page 5


 114 0006 F860     		str	r0, [r7, #12]
 115 0008 B960     		str	r1, [r7, #8]
 116 000a 7A60     		str	r2, [r7, #4]
 116:Generated_Source\PSoC5/cyfitter_cfg.c **** 	(void)memcpy(dest, src, n);
 117              		.loc 1 116 0
 118 000c 7A68     		ldr	r2, [r7, #4]
 119 000e B968     		ldr	r1, [r7, #8]
 120 0010 F868     		ldr	r0, [r7, #12]
 121 0012 FFF7FEFF 		bl	memcpy
 117:Generated_Source\PSoC5/cyfitter_cfg.c **** }
 122              		.loc 1 117 0
 123 0016 00BF     		nop
 124 0018 1037     		adds	r7, r7, #16
 125              		.cfi_def_cfa_offset 8
 126 001a BD46     		mov	sp, r7
 127              		.cfi_def_cfa_register 13
 128              		@ sp needed
 129 001c 80BD     		pop	{r7, pc}
 130              		.cfi_endproc
 131              	.LFE2:
 132              		.size	CYCONFIGCPYCODE, .-CYCONFIGCPYCODE
 133 001e 00BF     		.section	.text.CyClockStartupError,"ax",%progbits
 134              		.align	2
 135              		.thumb
 136              		.thumb_func
 137              		.type	CyClockStartupError, %function
 138              	CyClockStartupError:
 139              	.LFB3:
 118:Generated_Source\PSoC5/cyfitter_cfg.c **** 
 119:Generated_Source\PSoC5/cyfitter_cfg.c **** 
 120:Generated_Source\PSoC5/cyfitter_cfg.c **** 
 121:Generated_Source\PSoC5/cyfitter_cfg.c **** 
 122:Generated_Source\PSoC5/cyfitter_cfg.c **** /* Clock startup error codes                                                   */
 123:Generated_Source\PSoC5/cyfitter_cfg.c **** #define CYCLOCKSTART_NO_ERROR    0u
 124:Generated_Source\PSoC5/cyfitter_cfg.c **** #define CYCLOCKSTART_XTAL_ERROR  1u
 125:Generated_Source\PSoC5/cyfitter_cfg.c **** #define CYCLOCKSTART_32KHZ_ERROR 2u
 126:Generated_Source\PSoC5/cyfitter_cfg.c **** #define CYCLOCKSTART_PLL_ERROR   3u
 127:Generated_Source\PSoC5/cyfitter_cfg.c **** #define CYCLOCKSTART_FLL_ERROR   4u
 128:Generated_Source\PSoC5/cyfitter_cfg.c **** #define CYCLOCKSTART_WCO_ERROR   5u
 129:Generated_Source\PSoC5/cyfitter_cfg.c **** 
 130:Generated_Source\PSoC5/cyfitter_cfg.c **** 
 131:Generated_Source\PSoC5/cyfitter_cfg.c **** #ifdef CY_NEED_CYCLOCKSTARTUPERROR
 132:Generated_Source\PSoC5/cyfitter_cfg.c **** /*******************************************************************************
 133:Generated_Source\PSoC5/cyfitter_cfg.c **** * Function Name: CyClockStartupError
 134:Generated_Source\PSoC5/cyfitter_cfg.c **** ********************************************************************************
 135:Generated_Source\PSoC5/cyfitter_cfg.c **** * Summary:
 136:Generated_Source\PSoC5/cyfitter_cfg.c **** *  If an error is encountered during clock configuration (crystal startup error,
 137:Generated_Source\PSoC5/cyfitter_cfg.c **** *  PLL lock error, etc.), the system will end up here.  Unless reimplemented by
 138:Generated_Source\PSoC5/cyfitter_cfg.c **** *  the customer, this function will stop in an infinite loop.
 139:Generated_Source\PSoC5/cyfitter_cfg.c **** *
 140:Generated_Source\PSoC5/cyfitter_cfg.c **** * Parameters:
 141:Generated_Source\PSoC5/cyfitter_cfg.c **** *   void
 142:Generated_Source\PSoC5/cyfitter_cfg.c **** *
 143:Generated_Source\PSoC5/cyfitter_cfg.c **** * Return:
 144:Generated_Source\PSoC5/cyfitter_cfg.c **** *   void
 145:Generated_Source\PSoC5/cyfitter_cfg.c **** *
 146:Generated_Source\PSoC5/cyfitter_cfg.c **** *******************************************************************************/
ARM GAS  C:\Users\JEFFSN~1\AppData\Local\Temp\ccuEuQhg.s 			page 6


 147:Generated_Source\PSoC5/cyfitter_cfg.c **** CY_CFG_UNUSED
 148:Generated_Source\PSoC5/cyfitter_cfg.c **** static void CyClockStartupError(uint8 errorCode);
 149:Generated_Source\PSoC5/cyfitter_cfg.c **** CY_CFG_UNUSED
 150:Generated_Source\PSoC5/cyfitter_cfg.c **** static void CyClockStartupError(uint8 errorCode)
 151:Generated_Source\PSoC5/cyfitter_cfg.c **** {
 140              		.loc 1 151 0
 141              		.cfi_startproc
 142              		@ args = 0, pretend = 0, frame = 8
 143              		@ frame_needed = 1, uses_anonymous_args = 0
 144              		@ link register save eliminated.
 145 0000 80B4     		push	{r7}
 146              		.cfi_def_cfa_offset 4
 147              		.cfi_offset 7, -4
 148 0002 83B0     		sub	sp, sp, #12
 149              		.cfi_def_cfa_offset 16
 150 0004 00AF     		add	r7, sp, #0
 151              		.cfi_def_cfa_register 7
 152 0006 0346     		mov	r3, r0
 153 0008 FB71     		strb	r3, [r7, #7]
 154              	.L5:
 152:Generated_Source\PSoC5/cyfitter_cfg.c ****     /* To remove the compiler warning if errorCode not used.                */
 153:Generated_Source\PSoC5/cyfitter_cfg.c ****     errorCode = errorCode;
 154:Generated_Source\PSoC5/cyfitter_cfg.c **** 
 155:Generated_Source\PSoC5/cyfitter_cfg.c ****     /* If we have a clock startup error (bad MHz crystal, PLL lock, etc.),  */
 156:Generated_Source\PSoC5/cyfitter_cfg.c ****     /* we will end up here to allow the customer to implement something to  */
 157:Generated_Source\PSoC5/cyfitter_cfg.c ****     /* deal with the clock condition.                                       */
 158:Generated_Source\PSoC5/cyfitter_cfg.c **** 
 159:Generated_Source\PSoC5/cyfitter_cfg.c **** #ifdef CY_CFG_CLOCK_STARTUP_ERROR_CALLBACK
 160:Generated_Source\PSoC5/cyfitter_cfg.c ****     CY_CFG_Clock_Startup_ErrorCallback();
 161:Generated_Source\PSoC5/cyfitter_cfg.c **** #else
 162:Generated_Source\PSoC5/cyfitter_cfg.c ****     /*  If not using CY_CFG_CLOCK_STARTUP_ERROR_CALLBACK, place your clock startup code here. */
 163:Generated_Source\PSoC5/cyfitter_cfg.c ****     /* `#START CyClockStartupError` */
 164:Generated_Source\PSoC5/cyfitter_cfg.c **** 
 165:Generated_Source\PSoC5/cyfitter_cfg.c **** 
 166:Generated_Source\PSoC5/cyfitter_cfg.c **** 
 167:Generated_Source\PSoC5/cyfitter_cfg.c ****     /* `#END` */
 168:Generated_Source\PSoC5/cyfitter_cfg.c **** 
 169:Generated_Source\PSoC5/cyfitter_cfg.c ****     while(1) {}
 155              		.loc 1 169 0 discriminator 1
 156 000a FEE7     		b	.L5
 157              		.cfi_endproc
 158              	.LFE3:
 159              		.size	CyClockStartupError, .-CyClockStartupError
 160              		.section	.dma_init,"a",%progbits
 161              		.align	2
 162              		.type	CH1_ADDR_DATA0.5000, %object
 163              		.size	CH1_ADDR_DATA0.5000, 8
 164              	CH1_ADDR_DATA0.5000:
 165 0000 01       		.byte	1
 166 0001 00       		.byte	0
 167 0002 00       		.byte	0
 168 0003 00       		.byte	0
 169 0004 00       		.byte	0
 170 0005 20       		.byte	32
 171 0006 00       		.byte	0
 172 0007 40       		.byte	64
 173              		.align	2
ARM GAS  C:\Users\JEFFSN~1\AppData\Local\Temp\ccuEuQhg.s 			page 7


 174              		.type	CH2_ADDR_DATA0.5001, %object
 175              		.size	CH2_ADDR_DATA0.5001, 8
 176              	CH2_ADDR_DATA0.5001:
 177 0008 01       		.byte	1
 178 0009 00       		.byte	0
 179 000a 00       		.byte	0
 180 000b 00       		.byte	0
 181 000c 00       		.byte	0
 182 000d 20       		.byte	32
 183 000e 01       		.byte	1
 184 000f 40       		.byte	64
 185              		.align	2
 186              		.type	CH5_ADDR_DATA0.5002, %object
 187              		.size	CH5_ADDR_DATA0.5002, 8
 188              	CH5_ADDR_DATA0.5002:
 189 0010 01       		.byte	1
 190 0011 00       		.byte	0
 191 0012 00       		.byte	0
 192 0013 00       		.byte	0
 193 0014 00       		.byte	0
 194 0015 48       		.byte	72
 195 0016 00       		.byte	0
 196 0017 40       		.byte	64
 197              		.align	2
 198              		.type	CH6_ADDR_DATA0.5003, %object
 199              		.size	CH6_ADDR_DATA0.5003, 8
 200              	CH6_ADDR_DATA0.5003:
 201 0018 01       		.byte	1
 202 0019 00       		.byte	0
 203 001a 00       		.byte	0
 204 001b 00       		.byte	0
 205 001c 00       		.byte	0
 206 001d 48       		.byte	72
 207 001e 01       		.byte	1
 208 001f 40       		.byte	64
 209              		.align	2
 210              		.type	DMA_TD_START_CMD.5004, %object
 211              		.size	DMA_TD_START_CMD.5004, 5
 212              	DMA_TD_START_CMD.5004:
 213 0020 01       		.byte	1
 214 0021 00       		.byte	0
 215 0022 00       		.byte	0
 216 0023 00       		.byte	0
 217 0024 01       		.byte	1
 218 0025 000000   		.align	2
 219              		.type	CFG_TD_LIST0.5006, %object
 220              		.size	CFG_TD_LIST0.5006, 728
 221              	CFG_TD_LIST0.5006:
 222 0028 0800     		.short	8
 223 002a 02       		.byte	2
 224 002b 23       		.byte	35
 225 002c 0000     		.short	0
 226 002e 0876     		.short	30216
 227 0030 0800     		.short	8
 228 0032 03       		.byte	3
 229 0033 23       		.byte	35
 230 0034 0000     		.short	0
ARM GAS  C:\Users\JEFFSN~1\AppData\Local\Temp\ccuEuQhg.s 			page 8


 231 0036 1076     		.short	30224
 232 0038 0800     		.short	8
 233 003a 04       		.byte	4
 234 003b 23       		.byte	35
 235 003c 0000     		.short	0
 236 003e 2876     		.short	30248
 237 0040 0800     		.short	8
 238 0042 05       		.byte	5
 239 0043 23       		.byte	35
 240 0044 0000     		.short	0
 241 0046 3076     		.short	30256
 242 0048 0500     		.short	5
 243 004a 06       		.byte	6
 244 004b 23       		.byte	35
 245 004c 0000     		.short	0
 246 004e 2070     		.short	28704
 247 0050 0500     		.short	5
 248 0052 07       		.byte	7
 249 0053 23       		.byte	35
 250 0054 0000     		.short	0
 251 0056 3070     		.short	28720
 252 0058 0500     		.short	5
 253 005a 08       		.byte	8
 254 005b 23       		.byte	35
 255 005c 0000     		.short	0
 256 005e 6070     		.short	28768
 257 0060 0500     		.short	5
 258 0062 FE       		.byte	-2
 259 0063 23       		.byte	35
 260 0064 0000     		.short	0
 261 0066 7070     		.short	28784
 262 0068 1000     		.short	16
 263 006a FE       		.byte	-2
 264 006b 22       		.byte	34
 265 006c 0000     		.short	0
 266 006e C051     		.short	20928
 267 0070 0002     		.short	512
 268 0072 0B       		.byte	11
 269 0073 22       		.byte	34
 270 0074 0000     		.short	0
 271 0076 0000     		.short	0
 272 0078 8000     		.short	128
 273 007a 0C       		.byte	12
 274 007b 22       		.byte	34
 275 007c 0000     		.short	0
 276 007e 800E     		.short	3712
 277 0080 8000     		.short	128
 278 0082 0D       		.byte	13
 279 0083 22       		.byte	34
 280 0084 0000     		.short	0
 281 0086 0042     		.short	16896
 282 0088 8000     		.short	128
 283 008a 0E       		.byte	14
 284 008b 22       		.byte	34
 285 008c 0000     		.short	0
 286 008e 0043     		.short	17152
 287 0090 8000     		.short	128
ARM GAS  C:\Users\JEFFSN~1\AppData\Local\Temp\ccuEuQhg.s 			page 9


 288 0092 FE       		.byte	-2
 289 0093 22       		.byte	34
 290 0094 0000     		.short	0
 291 0096 0047     		.short	18176
 292 0098 0700     		.short	7
 293 009a 10       		.byte	16
 294 009b 23       		.byte	35
 295 009c 0000     		.short	0
 296 009e 0052     		.short	20992
 297 00a0 0700     		.short	7
 298 00a2 11       		.byte	17
 299 00a3 23       		.byte	35
 300 00a4 0000     		.short	0
 301 00a6 0852     		.short	21000
 302 00a8 0700     		.short	7
 303 00aa 12       		.byte	18
 304 00ab 23       		.byte	35
 305 00ac 0000     		.short	0
 306 00ae 1052     		.short	21008
 307 00b0 0700     		.short	7
 308 00b2 13       		.byte	19
 309 00b3 23       		.byte	35
 310 00b4 0000     		.short	0
 311 00b6 2052     		.short	21024
 312 00b8 0700     		.short	7
 313 00ba 14       		.byte	20
 314 00bb 23       		.byte	35
 315 00bc 0000     		.short	0
 316 00be 2852     		.short	21032
 317 00c0 0700     		.short	7
 318 00c2 15       		.byte	21
 319 00c3 23       		.byte	35
 320 00c4 0000     		.short	0
 321 00c6 3052     		.short	21040
 322 00c8 0800     		.short	8
 323 00ca 16       		.byte	22
 324 00cb 23       		.byte	35
 325 00cc 0000     		.short	0
 326 00ce 285B     		.short	23336
 327 00d0 4000     		.short	64
 328 00d2 17       		.byte	23
 329 00d3 23       		.byte	35
 330 00d4 0000     		.short	0
 331 00d6 0064     		.short	25600
 332 00d8 2000     		.short	32
 333 00da 18       		.byte	24
 334 00db 23       		.byte	35
 335 00dc 0000     		.short	0
 336 00de 7064     		.short	25712
 337 00e0 2000     		.short	32
 338 00e2 FE       		.byte	-2
 339 00e3 23       		.byte	35
 340 00e4 0000     		.short	0
 341 00e6 7065     		.short	25968
 342 00e8 0800     		.short	8
 343 00ea 1A       		.byte	26
 344 00eb 23       		.byte	35
ARM GAS  C:\Users\JEFFSN~1\AppData\Local\Temp\ccuEuQhg.s 			page 10


 345 00ec 0000     		.short	0
 346 00ee 0051     		.short	20736
 347 00f0 8000     		.short	128
 348 00f2 1B       		.byte	27
 349 00f3 23       		.byte	35
 350 00f4 0000     		.short	0
 351 00f6 0002     		.short	512
 352 00f8 8000     		.short	128
 353 00fa 1C       		.byte	28
 354 00fb 23       		.byte	35
 355 00fc 0000     		.short	0
 356 00fe 8002     		.short	640
 357 0100 8000     		.short	128
 358 0102 1D       		.byte	29
 359 0103 23       		.byte	35
 360 0104 0000     		.short	0
 361 0106 0004     		.short	1024
 362 0108 8000     		.short	128
 363 010a 1E       		.byte	30
 364 010b 23       		.byte	35
 365 010c 0000     		.short	0
 366 010e 8004     		.short	1152
 367 0110 8000     		.short	128
 368 0112 1F       		.byte	31
 369 0113 23       		.byte	35
 370 0114 0000     		.short	0
 371 0116 0006     		.short	1536
 372 0118 8000     		.short	128
 373 011a 20       		.byte	32
 374 011b 23       		.byte	35
 375 011c 0000     		.short	0
 376 011e 8006     		.short	1664
 377 0120 8000     		.short	128
 378 0122 21       		.byte	33
 379 0123 23       		.byte	35
 380 0124 0000     		.short	0
 381 0126 0008     		.short	2048
 382 0128 8000     		.short	128
 383 012a 22       		.byte	34
 384 012b 23       		.byte	35
 385 012c 0000     		.short	0
 386 012e 8008     		.short	2176
 387 0130 8000     		.short	128
 388 0132 23       		.byte	35
 389 0133 23       		.byte	35
 390 0134 0000     		.short	0
 391 0136 000A     		.short	2560
 392 0138 8000     		.short	128
 393 013a 24       		.byte	36
 394 013b 23       		.byte	35
 395 013c 0000     		.short	0
 396 013e 800A     		.short	2688
 397 0140 8000     		.short	128
 398 0142 25       		.byte	37
 399 0143 23       		.byte	35
 400 0144 0000     		.short	0
 401 0146 000C     		.short	3072
ARM GAS  C:\Users\JEFFSN~1\AppData\Local\Temp\ccuEuQhg.s 			page 11


 402 0148 8000     		.short	128
 403 014a 26       		.byte	38
 404 014b 23       		.byte	35
 405 014c 0000     		.short	0
 406 014e 800C     		.short	3200
 407 0150 8000     		.short	128
 408 0152 27       		.byte	39
 409 0153 23       		.byte	35
 410 0154 0000     		.short	0
 411 0156 000E     		.short	3584
 412 0158 8000     		.short	128
 413 015a 28       		.byte	40
 414 015b 23       		.byte	35
 415 015c 0000     		.short	0
 416 015e 0014     		.short	5120
 417 0160 8000     		.short	128
 418 0162 29       		.byte	41
 419 0163 23       		.byte	35
 420 0164 0000     		.short	0
 421 0166 8014     		.short	5248
 422 0168 8000     		.short	128
 423 016a 2A       		.byte	42
 424 016b 23       		.byte	35
 425 016c 0000     		.short	0
 426 016e 0016     		.short	5632
 427 0170 8000     		.short	128
 428 0172 2B       		.byte	43
 429 0173 23       		.byte	35
 430 0174 0000     		.short	0
 431 0176 8016     		.short	5760
 432 0178 8000     		.short	128
 433 017a 2C       		.byte	44
 434 017b 23       		.byte	35
 435 017c 0000     		.short	0
 436 017e 0018     		.short	6144
 437 0180 8000     		.short	128
 438 0182 2D       		.byte	45
 439 0183 23       		.byte	35
 440 0184 0000     		.short	0
 441 0186 8018     		.short	6272
 442 0188 8000     		.short	128
 443 018a 2E       		.byte	46
 444 018b 23       		.byte	35
 445 018c 0000     		.short	0
 446 018e 001A     		.short	6656
 447 0190 8000     		.short	128
 448 0192 2F       		.byte	47
 449 0193 23       		.byte	35
 450 0194 0000     		.short	0
 451 0196 801A     		.short	6784
 452 0198 1000     		.short	16
 453 019a 30       		.byte	48
 454 019b 23       		.byte	35
 455 019c 0000     		.short	0
 456 019e 1050     		.short	20496
 457 01a0 1000     		.short	16
 458 01a2 31       		.byte	49
ARM GAS  C:\Users\JEFFSN~1\AppData\Local\Temp\ccuEuQhg.s 			page 12


 459 01a3 23       		.byte	35
 460 01a4 0000     		.short	0
 461 01a6 0050     		.short	20480
 462 01a8 8000     		.short	128
 463 01aa 32       		.byte	50
 464 01ab 23       		.byte	35
 465 01ac 0000     		.short	0
 466 01ae 004D     		.short	19712
 467 01b0 8000     		.short	128
 468 01b2 33       		.byte	51
 469 01b3 23       		.byte	35
 470 01b4 0000     		.short	0
 471 01b6 804D     		.short	19840
 472 01b8 8000     		.short	128
 473 01ba 34       		.byte	52
 474 01bb 23       		.byte	35
 475 01bc 0000     		.short	0
 476 01be 004C     		.short	19456
 477 01c0 8000     		.short	128
 478 01c2 35       		.byte	53
 479 01c3 23       		.byte	35
 480 01c4 0000     		.short	0
 481 01c6 804C     		.short	19584
 482 01c8 8000     		.short	128
 483 01ca 36       		.byte	54
 484 01cb 23       		.byte	35
 485 01cc 0000     		.short	0
 486 01ce 8047     		.short	18304
 487 01d0 8000     		.short	128
 488 01d2 37       		.byte	55
 489 01d3 23       		.byte	35
 490 01d4 0000     		.short	0
 491 01d6 0046     		.short	17920
 492 01d8 8000     		.short	128
 493 01da 38       		.byte	56
 494 01db 23       		.byte	35
 495 01dc 0000     		.short	0
 496 01de 8046     		.short	18048
 497 01e0 8000     		.short	128
 498 01e2 39       		.byte	57
 499 01e3 23       		.byte	35
 500 01e4 0000     		.short	0
 501 01e6 0045     		.short	17664
 502 01e8 8000     		.short	128
 503 01ea 3A       		.byte	58
 504 01eb 23       		.byte	35
 505 01ec 0000     		.short	0
 506 01ee 8045     		.short	17792
 507 01f0 8000     		.short	128
 508 01f2 3B       		.byte	59
 509 01f3 23       		.byte	35
 510 01f4 0000     		.short	0
 511 01f6 0044     		.short	17408
 512 01f8 8000     		.short	128
 513 01fa 3C       		.byte	60
 514 01fb 23       		.byte	35
 515 01fc 0000     		.short	0
ARM GAS  C:\Users\JEFFSN~1\AppData\Local\Temp\ccuEuQhg.s 			page 13


 516 01fe 8044     		.short	17536
 517 0200 8000     		.short	128
 518 0202 3D       		.byte	61
 519 0203 23       		.byte	35
 520 0204 0000     		.short	0
 521 0206 001B     		.short	6912
 522 0208 8000     		.short	128
 523 020a 3E       		.byte	62
 524 020b 23       		.byte	35
 525 020c 0000     		.short	0
 526 020e 801B     		.short	7040
 527 0210 8000     		.short	128
 528 0212 3F       		.byte	63
 529 0213 23       		.byte	35
 530 0214 0000     		.short	0
 531 0216 0015     		.short	5376
 532 0218 8000     		.short	128
 533 021a 40       		.byte	64
 534 021b 23       		.byte	35
 535 021c 0000     		.short	0
 536 021e 8015     		.short	5504
 537 0220 8000     		.short	128
 538 0222 41       		.byte	65
 539 0223 23       		.byte	35
 540 0224 0000     		.short	0
 541 0226 0019     		.short	6400
 542 0228 8000     		.short	128
 543 022a 42       		.byte	66
 544 022b 23       		.byte	35
 545 022c 0000     		.short	0
 546 022e 8019     		.short	6528
 547 0230 8000     		.short	128
 548 0232 43       		.byte	67
 549 0233 23       		.byte	35
 550 0234 0000     		.short	0
 551 0236 0017     		.short	5888
 552 0238 8000     		.short	128
 553 023a 44       		.byte	68
 554 023b 23       		.byte	35
 555 023c 0000     		.short	0
 556 023e 8017     		.short	6016
 557 0240 8000     		.short	128
 558 0242 45       		.byte	69
 559 0243 23       		.byte	35
 560 0244 0000     		.short	0
 561 0246 0009     		.short	2304
 562 0248 8000     		.short	128
 563 024a 46       		.byte	70
 564 024b 23       		.byte	35
 565 024c 0000     		.short	0
 566 024e 8009     		.short	2432
 567 0250 8000     		.short	128
 568 0252 47       		.byte	71
 569 0253 23       		.byte	35
 570 0254 0000     		.short	0
 571 0256 0007     		.short	1792
 572 0258 8000     		.short	128
ARM GAS  C:\Users\JEFFSN~1\AppData\Local\Temp\ccuEuQhg.s 			page 14


 573 025a 48       		.byte	72
 574 025b 23       		.byte	35
 575 025c 0000     		.short	0
 576 025e 8007     		.short	1920
 577 0260 8000     		.short	128
 578 0262 49       		.byte	73
 579 0263 23       		.byte	35
 580 0264 0000     		.short	0
 581 0266 000B     		.short	2816
 582 0268 8000     		.short	128
 583 026a 4A       		.byte	74
 584 026b 23       		.byte	35
 585 026c 0000     		.short	0
 586 026e 800B     		.short	2944
 587 0270 8000     		.short	128
 588 0272 4B       		.byte	75
 589 0273 23       		.byte	35
 590 0274 0000     		.short	0
 591 0276 0005     		.short	1280
 592 0278 8000     		.short	128
 593 027a 4C       		.byte	76
 594 027b 23       		.byte	35
 595 027c 0000     		.short	0
 596 027e 8005     		.short	1408
 597 0280 8000     		.short	128
 598 0282 4D       		.byte	77
 599 0283 23       		.byte	35
 600 0284 0000     		.short	0
 601 0286 000D     		.short	3328
 602 0288 8000     		.short	128
 603 028a 4E       		.byte	78
 604 028b 23       		.byte	35
 605 028c 0000     		.short	0
 606 028e 800D     		.short	3456
 607 0290 8000     		.short	128
 608 0292 4F       		.byte	79
 609 0293 23       		.byte	35
 610 0294 0000     		.short	0
 611 0296 0003     		.short	768
 612 0298 8000     		.short	128
 613 029a 50       		.byte	80
 614 029b 23       		.byte	35
 615 029c 0000     		.short	0
 616 029e 8003     		.short	896
 617 02a0 8000     		.short	128
 618 02a2 51       		.byte	81
 619 02a3 23       		.byte	35
 620 02a4 0000     		.short	0
 621 02a6 000F     		.short	3840
 622 02a8 8000     		.short	128
 623 02aa 52       		.byte	82
 624 02ab 23       		.byte	35
 625 02ac 0000     		.short	0
 626 02ae 800F     		.short	3968
 627 02b0 8000     		.short	128
 628 02b2 53       		.byte	83
 629 02b3 23       		.byte	35
ARM GAS  C:\Users\JEFFSN~1\AppData\Local\Temp\ccuEuQhg.s 			page 15


 630 02b4 0000     		.short	0
 631 02b6 0049     		.short	18688
 632 02b8 8000     		.short	128
 633 02ba 54       		.byte	84
 634 02bb 23       		.byte	35
 635 02bc 0000     		.short	0
 636 02be 8049     		.short	18816
 637 02c0 8000     		.short	128
 638 02c2 55       		.byte	85
 639 02c3 23       		.byte	35
 640 02c4 0000     		.short	0
 641 02c6 0048     		.short	18432
 642 02c8 8000     		.short	128
 643 02ca 56       		.byte	86
 644 02cb 23       		.byte	35
 645 02cc 0000     		.short	0
 646 02ce 8048     		.short	18560
 647 02d0 8000     		.short	128
 648 02d2 57       		.byte	87
 649 02d3 23       		.byte	35
 650 02d4 0000     		.short	0
 651 02d6 8043     		.short	17280
 652 02d8 8000     		.short	128
 653 02da 58       		.byte	88
 654 02db 23       		.byte	35
 655 02dc 0000     		.short	0
 656 02de 8042     		.short	17024
 657 02e0 8000     		.short	128
 658 02e2 59       		.byte	89
 659 02e3 23       		.byte	35
 660 02e4 0000     		.short	0
 661 02e6 0041     		.short	16640
 662 02e8 8000     		.short	128
 663 02ea 5A       		.byte	90
 664 02eb 23       		.byte	35
 665 02ec 0000     		.short	0
 666 02ee 8041     		.short	16768
 667 02f0 8000     		.short	128
 668 02f2 5B       		.byte	91
 669 02f3 23       		.byte	35
 670 02f4 0000     		.short	0
 671 02f6 0040     		.short	16384
 672 02f8 8000     		.short	128
 673 02fa FE       		.byte	-2
 674 02fb 23       		.byte	35
 675 02fc 0000     		.short	0
 676 02fe 8040     		.short	16512
 677              		.section	.text.cfg_dma_init,"ax",%progbits
 678              		.align	2
 679              		.thumb
 680              		.thumb_func
 681              		.type	cfg_dma_init, %function
 682              	cfg_dma_init:
 683              	.LFB4:
 170:Generated_Source\PSoC5/cyfitter_cfg.c **** #endif /* CY_CFG_CLOCK_STARTUP_ERROR_CALLBACK */
 171:Generated_Source\PSoC5/cyfitter_cfg.c **** }
 172:Generated_Source\PSoC5/cyfitter_cfg.c **** #endif
ARM GAS  C:\Users\JEFFSN~1\AppData\Local\Temp\ccuEuQhg.s 			page 16


 173:Generated_Source\PSoC5/cyfitter_cfg.c **** 
 174:Generated_Source\PSoC5/cyfitter_cfg.c **** /* IDMUX Address: CYREG_IDMUX_DRQ_CTL0 Size (bytes): 6 */
 175:Generated_Source\PSoC5/cyfitter_cfg.c **** #define BS_IDMUX_VAL ((const uint8 CYFAR *)0x48000000u)
 176:Generated_Source\PSoC5/cyfitter_cfg.c **** 
 177:Generated_Source\PSoC5/cyfitter_cfg.c **** /* IOPORT_0 Address: CYDEV_PRTDSI_PRT0_BASE Size (bytes): 7 */
 178:Generated_Source\PSoC5/cyfitter_cfg.c **** #define BS_IOPORT_0_VAL ((const uint8 CYFAR *)0x48000008u)
 179:Generated_Source\PSoC5/cyfitter_cfg.c **** 
 180:Generated_Source\PSoC5/cyfitter_cfg.c **** /* IOPORT_1 Address: CYDEV_PRTDSI_PRT1_BASE Size (bytes): 7 */
 181:Generated_Source\PSoC5/cyfitter_cfg.c **** #define BS_IOPORT_1_VAL ((const uint8 CYFAR *)0x48000010u)
 182:Generated_Source\PSoC5/cyfitter_cfg.c **** 
 183:Generated_Source\PSoC5/cyfitter_cfg.c **** /* IOPORT_2 Address: CYDEV_PRTDSI_PRT2_BASE Size (bytes): 7 */
 184:Generated_Source\PSoC5/cyfitter_cfg.c **** #define BS_IOPORT_2_VAL ((const uint8 CYFAR *)0x48000018u)
 185:Generated_Source\PSoC5/cyfitter_cfg.c **** 
 186:Generated_Source\PSoC5/cyfitter_cfg.c **** /* IOPORT_4 Address: CYDEV_PRTDSI_PRT4_BASE Size (bytes): 7 */
 187:Generated_Source\PSoC5/cyfitter_cfg.c **** #define BS_IOPORT_4_VAL ((const uint8 CYFAR *)0x48000020u)
 188:Generated_Source\PSoC5/cyfitter_cfg.c **** 
 189:Generated_Source\PSoC5/cyfitter_cfg.c **** /* IOPORT_5 Address: CYDEV_PRTDSI_PRT5_BASE Size (bytes): 7 */
 190:Generated_Source\PSoC5/cyfitter_cfg.c **** #define BS_IOPORT_5_VAL ((const uint8 CYFAR *)0x48000028u)
 191:Generated_Source\PSoC5/cyfitter_cfg.c **** 
 192:Generated_Source\PSoC5/cyfitter_cfg.c **** /* IOPORT_6 Address: CYDEV_PRTDSI_PRT6_BASE Size (bytes): 7 */
 193:Generated_Source\PSoC5/cyfitter_cfg.c **** #define BS_IOPORT_6_VAL ((const uint8 CYFAR *)0x48000030u)
 194:Generated_Source\PSoC5/cyfitter_cfg.c **** 
 195:Generated_Source\PSoC5/cyfitter_cfg.c **** /* IDMUX_IRQ Address: CYREG_IDMUX_IRQ_CTL0 Size (bytes): 8 */
 196:Generated_Source\PSoC5/cyfitter_cfg.c **** #define BS_IDMUX_IRQ_VAL ((const uint8 CYFAR *)0x48000038u)
 197:Generated_Source\PSoC5/cyfitter_cfg.c **** 
 198:Generated_Source\PSoC5/cyfitter_cfg.c **** /* SAR1 Address: CYREG_SAR1_SW0 Size (bytes): 8 */
 199:Generated_Source\PSoC5/cyfitter_cfg.c **** #define BS_SAR1_VAL ((const uint8 CYFAR *)0x48000040u)
 200:Generated_Source\PSoC5/cyfitter_cfg.c **** 
 201:Generated_Source\PSoC5/cyfitter_cfg.c **** /* UDB_1_4_1_CONFIG Address: CYDEV_UCFG_B0_P1_U0_BASE Size (bytes): 128 */
 202:Generated_Source\PSoC5/cyfitter_cfg.c **** #define BS_UDB_1_4_1_CONFIG_VAL ((const uint8 CYFAR *)0x48000048u)
 203:Generated_Source\PSoC5/cyfitter_cfg.c **** 
 204:Generated_Source\PSoC5/cyfitter_cfg.c **** /* UDB_1_4_0_CONFIG Address: CYDEV_UCFG_B0_P1_U1_BASE Size (bytes): 128 */
 205:Generated_Source\PSoC5/cyfitter_cfg.c **** #define BS_UDB_1_4_0_CONFIG_VAL ((const uint8 CYFAR *)0x480000C8u)
 206:Generated_Source\PSoC5/cyfitter_cfg.c **** 
 207:Generated_Source\PSoC5/cyfitter_cfg.c **** /* UDB_1_3_0_CONFIG Address: CYDEV_UCFG_B0_P2_U0_BASE Size (bytes): 128 */
 208:Generated_Source\PSoC5/cyfitter_cfg.c **** #define BS_UDB_1_3_0_CONFIG_VAL ((const uint8 CYFAR *)0x48000148u)
 209:Generated_Source\PSoC5/cyfitter_cfg.c **** 
 210:Generated_Source\PSoC5/cyfitter_cfg.c **** /* UDB_1_3_1_CONFIG Address: CYDEV_UCFG_B0_P2_U1_BASE Size (bytes): 128 */
 211:Generated_Source\PSoC5/cyfitter_cfg.c **** #define BS_UDB_1_3_1_CONFIG_VAL ((const uint8 CYFAR *)0x480001C8u)
 212:Generated_Source\PSoC5/cyfitter_cfg.c **** 
 213:Generated_Source\PSoC5/cyfitter_cfg.c **** /* UDB_1_2_1_CONFIG Address: CYDEV_UCFG_B0_P3_U0_BASE Size (bytes): 128 */
 214:Generated_Source\PSoC5/cyfitter_cfg.c **** #define BS_UDB_1_2_1_CONFIG_VAL ((const uint8 CYFAR *)0x48000248u)
 215:Generated_Source\PSoC5/cyfitter_cfg.c **** 
 216:Generated_Source\PSoC5/cyfitter_cfg.c **** /* UDB_1_2_0_CONFIG Address: CYDEV_UCFG_B0_P3_U1_BASE Size (bytes): 128 */
 217:Generated_Source\PSoC5/cyfitter_cfg.c **** #define BS_UDB_1_2_0_CONFIG_VAL ((const uint8 CYFAR *)0x480002C8u)
 218:Generated_Source\PSoC5/cyfitter_cfg.c **** 
 219:Generated_Source\PSoC5/cyfitter_cfg.c **** /* UDB_0_2_1_CONFIG Address: CYDEV_UCFG_B0_P4_U0_BASE Size (bytes): 128 */
 220:Generated_Source\PSoC5/cyfitter_cfg.c **** #define BS_UDB_0_2_1_CONFIG_VAL ((const uint8 CYFAR *)0x48000348u)
 221:Generated_Source\PSoC5/cyfitter_cfg.c **** 
 222:Generated_Source\PSoC5/cyfitter_cfg.c **** /* UDB_0_2_0_CONFIG Address: CYDEV_UCFG_B0_P4_U1_BASE Size (bytes): 128 */
 223:Generated_Source\PSoC5/cyfitter_cfg.c **** #define BS_UDB_0_2_0_CONFIG_VAL ((const uint8 CYFAR *)0x480003C8u)
 224:Generated_Source\PSoC5/cyfitter_cfg.c **** 
 225:Generated_Source\PSoC5/cyfitter_cfg.c **** /* UDB_0_3_0_CONFIG Address: CYDEV_UCFG_B0_P5_U0_BASE Size (bytes): 128 */
 226:Generated_Source\PSoC5/cyfitter_cfg.c **** #define BS_UDB_0_3_0_CONFIG_VAL ((const uint8 CYFAR *)0x48000448u)
 227:Generated_Source\PSoC5/cyfitter_cfg.c **** 
 228:Generated_Source\PSoC5/cyfitter_cfg.c **** /* UDB_0_3_1_CONFIG Address: CYDEV_UCFG_B0_P5_U1_BASE Size (bytes): 128 */
 229:Generated_Source\PSoC5/cyfitter_cfg.c **** #define BS_UDB_0_3_1_CONFIG_VAL ((const uint8 CYFAR *)0x480004C8u)
ARM GAS  C:\Users\JEFFSN~1\AppData\Local\Temp\ccuEuQhg.s 			page 17


 230:Generated_Source\PSoC5/cyfitter_cfg.c **** 
 231:Generated_Source\PSoC5/cyfitter_cfg.c **** /* UDB_0_4_1_CONFIG Address: CYDEV_UCFG_B0_P6_U0_BASE Size (bytes): 128 */
 232:Generated_Source\PSoC5/cyfitter_cfg.c **** #define BS_UDB_0_4_1_CONFIG_VAL ((const uint8 CYFAR *)0x48000548u)
 233:Generated_Source\PSoC5/cyfitter_cfg.c **** 
 234:Generated_Source\PSoC5/cyfitter_cfg.c **** /* UDB_0_4_0_CONFIG Address: CYDEV_UCFG_B0_P6_U1_BASE Size (bytes): 128 */
 235:Generated_Source\PSoC5/cyfitter_cfg.c **** #define BS_UDB_0_4_0_CONFIG_VAL ((const uint8 CYFAR *)0x480005C8u)
 236:Generated_Source\PSoC5/cyfitter_cfg.c **** 
 237:Generated_Source\PSoC5/cyfitter_cfg.c **** /* UDB_0_5_0_CONFIG Address: CYDEV_UCFG_B0_P7_U0_BASE Size (bytes): 128 */
 238:Generated_Source\PSoC5/cyfitter_cfg.c **** #define BS_UDB_0_5_0_CONFIG_VAL ((const uint8 CYFAR *)0x48000648u)
 239:Generated_Source\PSoC5/cyfitter_cfg.c **** 
 240:Generated_Source\PSoC5/cyfitter_cfg.c **** /* UDB_1_0_0_CONFIG Address: CYDEV_UCFG_B1_P2_U0_BASE Size (bytes): 128 */
 241:Generated_Source\PSoC5/cyfitter_cfg.c **** #define BS_UDB_1_0_0_CONFIG_VAL ((const uint8 CYFAR *)0x480006C8u)
 242:Generated_Source\PSoC5/cyfitter_cfg.c **** 
 243:Generated_Source\PSoC5/cyfitter_cfg.c **** /* UDB_1_0_1_CONFIG Address: CYDEV_UCFG_B1_P2_U1_BASE Size (bytes): 128 */
 244:Generated_Source\PSoC5/cyfitter_cfg.c **** #define BS_UDB_1_0_1_CONFIG_VAL ((const uint8 CYFAR *)0x48000748u)
 245:Generated_Source\PSoC5/cyfitter_cfg.c **** 
 246:Generated_Source\PSoC5/cyfitter_cfg.c **** /* UDB_1_1_1_CONFIG Address: CYDEV_UCFG_B1_P3_U0_BASE Size (bytes): 128 */
 247:Generated_Source\PSoC5/cyfitter_cfg.c **** #define BS_UDB_1_1_1_CONFIG_VAL ((const uint8 CYFAR *)0x480007C8u)
 248:Generated_Source\PSoC5/cyfitter_cfg.c **** 
 249:Generated_Source\PSoC5/cyfitter_cfg.c **** /* UDB_1_1_0_CONFIG Address: CYDEV_UCFG_B1_P3_U1_BASE Size (bytes): 128 */
 250:Generated_Source\PSoC5/cyfitter_cfg.c **** #define BS_UDB_1_1_0_CONFIG_VAL ((const uint8 CYFAR *)0x48000848u)
 251:Generated_Source\PSoC5/cyfitter_cfg.c **** 
 252:Generated_Source\PSoC5/cyfitter_cfg.c **** /* UDB_0_1_1_CONFIG Address: CYDEV_UCFG_B1_P4_U0_BASE Size (bytes): 128 */
 253:Generated_Source\PSoC5/cyfitter_cfg.c **** #define BS_UDB_0_1_1_CONFIG_VAL ((const uint8 CYFAR *)0x480008C8u)
 254:Generated_Source\PSoC5/cyfitter_cfg.c **** 
 255:Generated_Source\PSoC5/cyfitter_cfg.c **** /* UDB_0_1_0_CONFIG Address: CYDEV_UCFG_B1_P4_U1_BASE Size (bytes): 128 */
 256:Generated_Source\PSoC5/cyfitter_cfg.c **** #define BS_UDB_0_1_0_CONFIG_VAL ((const uint8 CYFAR *)0x48000948u)
 257:Generated_Source\PSoC5/cyfitter_cfg.c **** 
 258:Generated_Source\PSoC5/cyfitter_cfg.c **** /* UDB_0_0_0_CONFIG Address: CYDEV_UCFG_B1_P5_U0_BASE Size (bytes): 128 */
 259:Generated_Source\PSoC5/cyfitter_cfg.c **** #define BS_UDB_0_0_0_CONFIG_VAL ((const uint8 CYFAR *)0x480009C8u)
 260:Generated_Source\PSoC5/cyfitter_cfg.c **** 
 261:Generated_Source\PSoC5/cyfitter_cfg.c **** /* UDB_0_0_1_CONFIG Address: CYDEV_UCFG_B1_P5_U1_BASE Size (bytes): 128 */
 262:Generated_Source\PSoC5/cyfitter_cfg.c **** #define BS_UDB_0_0_1_CONFIG_VAL ((const uint8 CYFAR *)0x48000A48u)
 263:Generated_Source\PSoC5/cyfitter_cfg.c **** 
 264:Generated_Source\PSoC5/cyfitter_cfg.c **** /* UWRK_B0_WRK_DP_BITS Address: CYDEV_UWRK_UWRK8_B0_BASE Size (bytes): 64 */
 265:Generated_Source\PSoC5/cyfitter_cfg.c **** #define BS_UWRK_B0_WRK_DP_BITS_VAL ((const uint8 CYFAR *)0x48000AC8u)
 266:Generated_Source\PSoC5/cyfitter_cfg.c **** 
 267:Generated_Source\PSoC5/cyfitter_cfg.c **** /* UWRK_B0_WRK_STATCTL_BITS Address: CYDEV_UWRK_UWRK8_B0_BASE + 0x00000070u Size (bytes): 32 */
 268:Generated_Source\PSoC5/cyfitter_cfg.c **** #define BS_UWRK_B0_WRK_STATCTL_BITS_VAL ((const uint8 CYFAR *)0x48000B08u)
 269:Generated_Source\PSoC5/cyfitter_cfg.c **** 
 270:Generated_Source\PSoC5/cyfitter_cfg.c **** /* UWRK_B1_WRK_STATCTL_BITS Address: CYDEV_UWRK_UWRK8_B1_BASE + 0x00000070u Size (bytes): 32 */
 271:Generated_Source\PSoC5/cyfitter_cfg.c **** #define BS_UWRK_B1_WRK_STATCTL_BITS_VAL ((const uint8 CYFAR *)0x48000B28u)
 272:Generated_Source\PSoC5/cyfitter_cfg.c **** 
 273:Generated_Source\PSoC5/cyfitter_cfg.c **** /* UCFG_BCTL1 Address: CYREG_BCTL1_MDCLK_EN Size (bytes): 16 */
 274:Generated_Source\PSoC5/cyfitter_cfg.c **** #define BS_UCFG_BCTL1_VAL ((const uint8 CYFAR *)0x48000B48u)
 275:Generated_Source\PSoC5/cyfitter_cfg.c **** 
 276:Generated_Source\PSoC5/cyfitter_cfg.c **** /* UCFG_BCTL0 Address: CYREG_BCTL0_MDCLK_EN Size (bytes): 16 */
 277:Generated_Source\PSoC5/cyfitter_cfg.c **** #define BS_UCFG_BCTL0_VAL ((const uint8 CYFAR *)0x48000B58u)
 278:Generated_Source\PSoC5/cyfitter_cfg.c **** 
 279:Generated_Source\PSoC5/cyfitter_cfg.c **** /* DSISWITCH_0_0 Address: CYDEV_UCFG_DSI13_BASE Size (bytes): 128 */
 280:Generated_Source\PSoC5/cyfitter_cfg.c **** #define BS_DSISWITCH_0_0_VAL ((const uint8 CYFAR *)0x48000B68u)
 281:Generated_Source\PSoC5/cyfitter_cfg.c **** 
 282:Generated_Source\PSoC5/cyfitter_cfg.c **** /* DSI0_0_HV_ROUTING Address: CYDEV_UCFG_DSI13_BASE + 0x00000080u Size (bytes): 128 */
 283:Generated_Source\PSoC5/cyfitter_cfg.c **** #define BS_DSI0_0_HV_ROUTING_VAL ((const uint8 CYFAR *)0x48000BE8u)
 284:Generated_Source\PSoC5/cyfitter_cfg.c **** 
 285:Generated_Source\PSoC5/cyfitter_cfg.c **** /* DSISWITCH_0_1 Address: CYDEV_UCFG_DSI12_BASE Size (bytes): 128 */
 286:Generated_Source\PSoC5/cyfitter_cfg.c **** #define BS_DSISWITCH_0_1_VAL ((const uint8 CYFAR *)0x48000C68u)
ARM GAS  C:\Users\JEFFSN~1\AppData\Local\Temp\ccuEuQhg.s 			page 18


 287:Generated_Source\PSoC5/cyfitter_cfg.c **** 
 288:Generated_Source\PSoC5/cyfitter_cfg.c **** /* DSI0_1_HV_ROUTING Address: CYDEV_UCFG_DSI12_BASE + 0x00000080u Size (bytes): 128 */
 289:Generated_Source\PSoC5/cyfitter_cfg.c **** #define BS_DSI0_1_HV_ROUTING_VAL ((const uint8 CYFAR *)0x48000CE8u)
 290:Generated_Source\PSoC5/cyfitter_cfg.c **** 
 291:Generated_Source\PSoC5/cyfitter_cfg.c **** /* DSI0_2_HV_ROUTING Address: CYDEV_UCFG_DSI7_BASE + 0x00000080u Size (bytes): 128 */
 292:Generated_Source\PSoC5/cyfitter_cfg.c **** #define BS_DSI0_2_HV_ROUTING_VAL ((const uint8 CYFAR *)0x48000D68u)
 293:Generated_Source\PSoC5/cyfitter_cfg.c **** 
 294:Generated_Source\PSoC5/cyfitter_cfg.c **** /* DSISWITCH_0_3 Address: CYDEV_UCFG_DSI6_BASE Size (bytes): 128 */
 295:Generated_Source\PSoC5/cyfitter_cfg.c **** #define BS_DSISWITCH_0_3_VAL ((const uint8 CYFAR *)0x48000DE8u)
 296:Generated_Source\PSoC5/cyfitter_cfg.c **** 
 297:Generated_Source\PSoC5/cyfitter_cfg.c **** /* DSI0_3_HV_ROUTING Address: CYDEV_UCFG_DSI6_BASE + 0x00000080u Size (bytes): 128 */
 298:Generated_Source\PSoC5/cyfitter_cfg.c **** #define BS_DSI0_3_HV_ROUTING_VAL ((const uint8 CYFAR *)0x48000E68u)
 299:Generated_Source\PSoC5/cyfitter_cfg.c **** 
 300:Generated_Source\PSoC5/cyfitter_cfg.c **** /* DSISWITCH_0_4 Address: CYDEV_UCFG_DSI5_BASE Size (bytes): 128 */
 301:Generated_Source\PSoC5/cyfitter_cfg.c **** #define BS_DSISWITCH_0_4_VAL ((const uint8 CYFAR *)0x48000EE8u)
 302:Generated_Source\PSoC5/cyfitter_cfg.c **** 
 303:Generated_Source\PSoC5/cyfitter_cfg.c **** /* DSI0_4_HV_ROUTING Address: CYDEV_UCFG_DSI5_BASE + 0x00000080u Size (bytes): 128 */
 304:Generated_Source\PSoC5/cyfitter_cfg.c **** #define BS_DSI0_4_HV_ROUTING_VAL ((const uint8 CYFAR *)0x48000F68u)
 305:Generated_Source\PSoC5/cyfitter_cfg.c **** 
 306:Generated_Source\PSoC5/cyfitter_cfg.c **** /* DSISWITCH_0_5 Address: CYDEV_UCFG_DSI4_BASE Size (bytes): 128 */
 307:Generated_Source\PSoC5/cyfitter_cfg.c **** #define BS_DSISWITCH_0_5_VAL ((const uint8 CYFAR *)0x48000FE8u)
 308:Generated_Source\PSoC5/cyfitter_cfg.c **** 
 309:Generated_Source\PSoC5/cyfitter_cfg.c **** /* DSI0_5_HV_ROUTING Address: CYDEV_UCFG_DSI4_BASE + 0x00000080u Size (bytes): 128 */
 310:Generated_Source\PSoC5/cyfitter_cfg.c **** #define BS_DSI0_5_HV_ROUTING_VAL ((const uint8 CYFAR *)0x48001068u)
 311:Generated_Source\PSoC5/cyfitter_cfg.c **** 
 312:Generated_Source\PSoC5/cyfitter_cfg.c **** /* UDBSWITCH_0_0 Address: CYDEV_UCFG_B1_P5_ROUTE_BASE Size (bytes): 128 */
 313:Generated_Source\PSoC5/cyfitter_cfg.c **** #define BS_UDBSWITCH_0_0_VAL ((const uint8 CYFAR *)0x480010E8u)
 314:Generated_Source\PSoC5/cyfitter_cfg.c **** 
 315:Generated_Source\PSoC5/cyfitter_cfg.c **** /* UDB_1_0_HV_ROUTING Address: CYDEV_UCFG_B1_P5_ROUTE_BASE + 0x00000080u Size (bytes): 128 */
 316:Generated_Source\PSoC5/cyfitter_cfg.c **** #define BS_UDB_1_0_HV_ROUTING_VAL ((const uint8 CYFAR *)0x48001168u)
 317:Generated_Source\PSoC5/cyfitter_cfg.c **** 
 318:Generated_Source\PSoC5/cyfitter_cfg.c **** /* UDBSWITCH_1_0 Address: CYDEV_UCFG_B1_P2_ROUTE_BASE Size (bytes): 128 */
 319:Generated_Source\PSoC5/cyfitter_cfg.c **** #define BS_UDBSWITCH_1_0_VAL ((const uint8 CYFAR *)0x480011E8u)
 320:Generated_Source\PSoC5/cyfitter_cfg.c **** 
 321:Generated_Source\PSoC5/cyfitter_cfg.c **** /* UDB_2_0_HV_ROUTING Address: CYDEV_UCFG_B1_P2_ROUTE_BASE + 0x00000080u Size (bytes): 128 */
 322:Generated_Source\PSoC5/cyfitter_cfg.c **** #define BS_UDB_2_0_HV_ROUTING_VAL ((const uint8 CYFAR *)0x48001268u)
 323:Generated_Source\PSoC5/cyfitter_cfg.c **** 
 324:Generated_Source\PSoC5/cyfitter_cfg.c **** /* UDBSWITCH_0_1 Address: CYDEV_UCFG_B1_P4_ROUTE_BASE Size (bytes): 128 */
 325:Generated_Source\PSoC5/cyfitter_cfg.c **** #define BS_UDBSWITCH_0_1_VAL ((const uint8 CYFAR *)0x480012E8u)
 326:Generated_Source\PSoC5/cyfitter_cfg.c **** 
 327:Generated_Source\PSoC5/cyfitter_cfg.c **** /* UDB_1_1_HV_ROUTING Address: CYDEV_UCFG_B1_P4_ROUTE_BASE + 0x00000080u Size (bytes): 128 */
 328:Generated_Source\PSoC5/cyfitter_cfg.c **** #define BS_UDB_1_1_HV_ROUTING_VAL ((const uint8 CYFAR *)0x48001368u)
 329:Generated_Source\PSoC5/cyfitter_cfg.c **** 
 330:Generated_Source\PSoC5/cyfitter_cfg.c **** /* UDBSWITCH_1_1 Address: CYDEV_UCFG_B1_P3_ROUTE_BASE Size (bytes): 128 */
 331:Generated_Source\PSoC5/cyfitter_cfg.c **** #define BS_UDBSWITCH_1_1_VAL ((const uint8 CYFAR *)0x480013E8u)
 332:Generated_Source\PSoC5/cyfitter_cfg.c **** 
 333:Generated_Source\PSoC5/cyfitter_cfg.c **** /* UDB_2_1_HV_ROUTING Address: CYDEV_UCFG_B1_P3_ROUTE_BASE + 0x00000080u Size (bytes): 128 */
 334:Generated_Source\PSoC5/cyfitter_cfg.c **** #define BS_UDB_2_1_HV_ROUTING_VAL ((const uint8 CYFAR *)0x48001468u)
 335:Generated_Source\PSoC5/cyfitter_cfg.c **** 
 336:Generated_Source\PSoC5/cyfitter_cfg.c **** /* UDBSWITCH_0_2 Address: CYDEV_UCFG_B0_P4_ROUTE_BASE Size (bytes): 128 */
 337:Generated_Source\PSoC5/cyfitter_cfg.c **** #define BS_UDBSWITCH_0_2_VAL ((const uint8 CYFAR *)0x480014E8u)
 338:Generated_Source\PSoC5/cyfitter_cfg.c **** 
 339:Generated_Source\PSoC5/cyfitter_cfg.c **** /* UDB_1_2_HV_ROUTING Address: CYDEV_UCFG_B0_P4_ROUTE_BASE + 0x00000080u Size (bytes): 128 */
 340:Generated_Source\PSoC5/cyfitter_cfg.c **** #define BS_UDB_1_2_HV_ROUTING_VAL ((const uint8 CYFAR *)0x48001568u)
 341:Generated_Source\PSoC5/cyfitter_cfg.c **** 
 342:Generated_Source\PSoC5/cyfitter_cfg.c **** /* UDBSWITCH_1_2 Address: CYDEV_UCFG_B0_P3_ROUTE_BASE Size (bytes): 128 */
 343:Generated_Source\PSoC5/cyfitter_cfg.c **** #define BS_UDBSWITCH_1_2_VAL ((const uint8 CYFAR *)0x480015E8u)
ARM GAS  C:\Users\JEFFSN~1\AppData\Local\Temp\ccuEuQhg.s 			page 19


 344:Generated_Source\PSoC5/cyfitter_cfg.c **** 
 345:Generated_Source\PSoC5/cyfitter_cfg.c **** /* UDB_2_2_HV_ROUTING Address: CYDEV_UCFG_B0_P3_ROUTE_BASE + 0x00000080u Size (bytes): 128 */
 346:Generated_Source\PSoC5/cyfitter_cfg.c **** #define BS_UDB_2_2_HV_ROUTING_VAL ((const uint8 CYFAR *)0x48001668u)
 347:Generated_Source\PSoC5/cyfitter_cfg.c **** 
 348:Generated_Source\PSoC5/cyfitter_cfg.c **** /* UDBSWITCH_0_3 Address: CYDEV_UCFG_B0_P5_ROUTE_BASE Size (bytes): 128 */
 349:Generated_Source\PSoC5/cyfitter_cfg.c **** #define BS_UDBSWITCH_0_3_VAL ((const uint8 CYFAR *)0x480016E8u)
 350:Generated_Source\PSoC5/cyfitter_cfg.c **** 
 351:Generated_Source\PSoC5/cyfitter_cfg.c **** /* UDB_1_3_HV_ROUTING Address: CYDEV_UCFG_B0_P5_ROUTE_BASE + 0x00000080u Size (bytes): 128 */
 352:Generated_Source\PSoC5/cyfitter_cfg.c **** #define BS_UDB_1_3_HV_ROUTING_VAL ((const uint8 CYFAR *)0x48001768u)
 353:Generated_Source\PSoC5/cyfitter_cfg.c **** 
 354:Generated_Source\PSoC5/cyfitter_cfg.c **** /* UDBSWITCH_1_3 Address: CYDEV_UCFG_B0_P2_ROUTE_BASE Size (bytes): 128 */
 355:Generated_Source\PSoC5/cyfitter_cfg.c **** #define BS_UDBSWITCH_1_3_VAL ((const uint8 CYFAR *)0x480017E8u)
 356:Generated_Source\PSoC5/cyfitter_cfg.c **** 
 357:Generated_Source\PSoC5/cyfitter_cfg.c **** /* UDB_2_3_HV_ROUTING Address: CYDEV_UCFG_B0_P2_ROUTE_BASE + 0x00000080u Size (bytes): 128 */
 358:Generated_Source\PSoC5/cyfitter_cfg.c **** #define BS_UDB_2_3_HV_ROUTING_VAL ((const uint8 CYFAR *)0x48001868u)
 359:Generated_Source\PSoC5/cyfitter_cfg.c **** 
 360:Generated_Source\PSoC5/cyfitter_cfg.c **** /* UDBSWITCH_0_4 Address: CYDEV_UCFG_B0_P6_ROUTE_BASE Size (bytes): 128 */
 361:Generated_Source\PSoC5/cyfitter_cfg.c **** #define BS_UDBSWITCH_0_4_VAL ((const uint8 CYFAR *)0x480018E8u)
 362:Generated_Source\PSoC5/cyfitter_cfg.c **** 
 363:Generated_Source\PSoC5/cyfitter_cfg.c **** /* UDB_1_4_HV_ROUTING Address: CYDEV_UCFG_B0_P6_ROUTE_BASE + 0x00000080u Size (bytes): 128 */
 364:Generated_Source\PSoC5/cyfitter_cfg.c **** #define BS_UDB_1_4_HV_ROUTING_VAL ((const uint8 CYFAR *)0x48001968u)
 365:Generated_Source\PSoC5/cyfitter_cfg.c **** 
 366:Generated_Source\PSoC5/cyfitter_cfg.c **** /* UDBSWITCH_1_4 Address: CYDEV_UCFG_B0_P1_ROUTE_BASE Size (bytes): 128 */
 367:Generated_Source\PSoC5/cyfitter_cfg.c **** #define BS_UDBSWITCH_1_4_VAL ((const uint8 CYFAR *)0x480019E8u)
 368:Generated_Source\PSoC5/cyfitter_cfg.c **** 
 369:Generated_Source\PSoC5/cyfitter_cfg.c **** /* UDB_2_4_HV_ROUTING Address: CYDEV_UCFG_B0_P1_ROUTE_BASE + 0x00000080u Size (bytes): 128 */
 370:Generated_Source\PSoC5/cyfitter_cfg.c **** #define BS_UDB_2_4_HV_ROUTING_VAL ((const uint8 CYFAR *)0x48001A68u)
 371:Generated_Source\PSoC5/cyfitter_cfg.c **** 
 372:Generated_Source\PSoC5/cyfitter_cfg.c **** /* UDBSWITCH_0_5 Address: CYDEV_UCFG_B0_P7_ROUTE_BASE Size (bytes): 128 */
 373:Generated_Source\PSoC5/cyfitter_cfg.c **** #define BS_UDBSWITCH_0_5_VAL ((const uint8 CYFAR *)0x48001AE8u)
 374:Generated_Source\PSoC5/cyfitter_cfg.c **** 
 375:Generated_Source\PSoC5/cyfitter_cfg.c **** /* UDB_1_5_HV_ROUTING Address: CYDEV_UCFG_B0_P7_ROUTE_BASE + 0x00000080u Size (bytes): 128 */
 376:Generated_Source\PSoC5/cyfitter_cfg.c **** #define BS_UDB_1_5_HV_ROUTING_VAL ((const uint8 CYFAR *)0x48001B68u)
 377:Generated_Source\PSoC5/cyfitter_cfg.c **** 
 378:Generated_Source\PSoC5/cyfitter_cfg.c **** /* DSISWITCH_1_0 Address: CYDEV_UCFG_DSI9_BASE Size (bytes): 128 */
 379:Generated_Source\PSoC5/cyfitter_cfg.c **** #define BS_DSISWITCH_1_0_VAL ((const uint8 CYFAR *)0x48001BE8u)
 380:Generated_Source\PSoC5/cyfitter_cfg.c **** 
 381:Generated_Source\PSoC5/cyfitter_cfg.c **** /* DSI3_0_HV_ROUTING Address: CYDEV_UCFG_DSI9_BASE + 0x00000080u Size (bytes): 128 */
 382:Generated_Source\PSoC5/cyfitter_cfg.c **** #define BS_DSI3_0_HV_ROUTING_VAL ((const uint8 CYFAR *)0x48001C68u)
 383:Generated_Source\PSoC5/cyfitter_cfg.c **** 
 384:Generated_Source\PSoC5/cyfitter_cfg.c **** /* DSISWITCH_1_1 Address: CYDEV_UCFG_DSI8_BASE Size (bytes): 128 */
 385:Generated_Source\PSoC5/cyfitter_cfg.c **** #define BS_DSISWITCH_1_1_VAL ((const uint8 CYFAR *)0x48001CE8u)
 386:Generated_Source\PSoC5/cyfitter_cfg.c **** 
 387:Generated_Source\PSoC5/cyfitter_cfg.c **** /* DSI3_1_HV_ROUTING Address: CYDEV_UCFG_DSI8_BASE + 0x00000080u Size (bytes): 128 */
 388:Generated_Source\PSoC5/cyfitter_cfg.c **** #define BS_DSI3_1_HV_ROUTING_VAL ((const uint8 CYFAR *)0x48001D68u)
 389:Generated_Source\PSoC5/cyfitter_cfg.c **** 
 390:Generated_Source\PSoC5/cyfitter_cfg.c **** /* DSI3_2_HV_ROUTING Address: CYDEV_UCFG_DSI3_BASE + 0x00000080u Size (bytes): 128 */
 391:Generated_Source\PSoC5/cyfitter_cfg.c **** #define BS_DSI3_2_HV_ROUTING_VAL ((const uint8 CYFAR *)0x48001DE8u)
 392:Generated_Source\PSoC5/cyfitter_cfg.c **** 
 393:Generated_Source\PSoC5/cyfitter_cfg.c **** /* DSI3_3_HV_ROUTING Address: CYDEV_UCFG_DSI2_BASE + 0x00000080u Size (bytes): 128 */
 394:Generated_Source\PSoC5/cyfitter_cfg.c **** #define BS_DSI3_3_HV_ROUTING_VAL ((const uint8 CYFAR *)0x48001E68u)
 395:Generated_Source\PSoC5/cyfitter_cfg.c **** 
 396:Generated_Source\PSoC5/cyfitter_cfg.c **** /* DSISWITCH_1_4 Address: CYDEV_UCFG_DSI1_BASE Size (bytes): 128 */
 397:Generated_Source\PSoC5/cyfitter_cfg.c **** #define BS_DSISWITCH_1_4_VAL ((const uint8 CYFAR *)0x48001EE8u)
 398:Generated_Source\PSoC5/cyfitter_cfg.c **** 
 399:Generated_Source\PSoC5/cyfitter_cfg.c **** /* DSI3_4_HV_ROUTING Address: CYDEV_UCFG_DSI1_BASE + 0x00000080u Size (bytes): 128 */
 400:Generated_Source\PSoC5/cyfitter_cfg.c **** #define BS_DSI3_4_HV_ROUTING_VAL ((const uint8 CYFAR *)0x48001F68u)
ARM GAS  C:\Users\JEFFSN~1\AppData\Local\Temp\ccuEuQhg.s 			page 20


 401:Generated_Source\PSoC5/cyfitter_cfg.c **** 
 402:Generated_Source\PSoC5/cyfitter_cfg.c **** /* DSISWITCH_1_5 Address: CYDEV_UCFG_DSI0_BASE Size (bytes): 128 */
 403:Generated_Source\PSoC5/cyfitter_cfg.c **** #define BS_DSISWITCH_1_5_VAL ((const uint8 CYFAR *)0x48001FE8u)
 404:Generated_Source\PSoC5/cyfitter_cfg.c **** 
 405:Generated_Source\PSoC5/cyfitter_cfg.c **** /* DSI3_5_HV_ROUTING Address: CYDEV_UCFG_DSI0_BASE + 0x00000080u Size (bytes): 128 */
 406:Generated_Source\PSoC5/cyfitter_cfg.c **** #define BS_DSI3_5_HV_ROUTING_VAL ((const uint8 CYFAR *)0x48002068u)
 407:Generated_Source\PSoC5/cyfitter_cfg.c **** 
 408:Generated_Source\PSoC5/cyfitter_cfg.c **** /* IOPINS0_0 Address: CYREG_PRT0_DM0 Size (bytes): 8 */
 409:Generated_Source\PSoC5/cyfitter_cfg.c **** #define BS_IOPINS0_0_VAL ((const uint8 CYFAR *)0x480020E8u)
 410:Generated_Source\PSoC5/cyfitter_cfg.c **** 
 411:Generated_Source\PSoC5/cyfitter_cfg.c **** /* IOPINS0_8 Address: CYREG_PRT15_DM0 Size (bytes): 8 */
 412:Generated_Source\PSoC5/cyfitter_cfg.c **** #define BS_IOPINS0_8_VAL ((const uint8 CYFAR *)0x480020F0u)
 413:Generated_Source\PSoC5/cyfitter_cfg.c **** 
 414:Generated_Source\PSoC5/cyfitter_cfg.c **** /* IOPINS0_1 Address: CYREG_PRT1_DM0 Size (bytes): 8 */
 415:Generated_Source\PSoC5/cyfitter_cfg.c **** #define BS_IOPINS0_1_VAL ((const uint8 CYFAR *)0x480020F8u)
 416:Generated_Source\PSoC5/cyfitter_cfg.c **** 
 417:Generated_Source\PSoC5/cyfitter_cfg.c **** /* IOPINS0_2 Address: CYREG_PRT2_DM0 Size (bytes): 8 */
 418:Generated_Source\PSoC5/cyfitter_cfg.c **** #define BS_IOPINS0_2_VAL ((const uint8 CYFAR *)0x48002100u)
 419:Generated_Source\PSoC5/cyfitter_cfg.c **** 
 420:Generated_Source\PSoC5/cyfitter_cfg.c **** /* IOPINS0_3 Address: CYREG_PRT3_DM0 Size (bytes): 8 */
 421:Generated_Source\PSoC5/cyfitter_cfg.c **** #define BS_IOPINS0_3_VAL ((const uint8 CYFAR *)0x48002108u)
 422:Generated_Source\PSoC5/cyfitter_cfg.c **** 
 423:Generated_Source\PSoC5/cyfitter_cfg.c **** /* IOPINS0_4 Address: CYREG_PRT4_DM0 Size (bytes): 8 */
 424:Generated_Source\PSoC5/cyfitter_cfg.c **** #define BS_IOPINS0_4_VAL ((const uint8 CYFAR *)0x48002110u)
 425:Generated_Source\PSoC5/cyfitter_cfg.c **** 
 426:Generated_Source\PSoC5/cyfitter_cfg.c **** /* IOPINS0_5 Address: CYREG_PRT5_DM0 Size (bytes): 8 */
 427:Generated_Source\PSoC5/cyfitter_cfg.c **** #define BS_IOPINS0_5_VAL ((const uint8 CYFAR *)0x48002118u)
 428:Generated_Source\PSoC5/cyfitter_cfg.c **** 
 429:Generated_Source\PSoC5/cyfitter_cfg.c **** /* IOPINS0_6 Address: CYREG_PRT6_DM0 Size (bytes): 8 */
 430:Generated_Source\PSoC5/cyfitter_cfg.c **** #define BS_IOPINS0_6_VAL ((const uint8 CYFAR *)0x48002120u)
 431:Generated_Source\PSoC5/cyfitter_cfg.c **** 
 432:Generated_Source\PSoC5/cyfitter_cfg.c **** /* CYDEV_CLKDIST_ACFG0_CFG0 Address: CYREG_CLKDIST_ACFG0_CFG0 Size (bytes): 4 */
 433:Generated_Source\PSoC5/cyfitter_cfg.c **** #define BS_CYDEV_CLKDIST_ACFG0_CFG0_VAL ((const uint8 CYFAR *)0x48002128u)
 434:Generated_Source\PSoC5/cyfitter_cfg.c **** 
 435:Generated_Source\PSoC5/cyfitter_cfg.c **** /* PHUB_CFGMEM1 Address: CYREG_PHUB_CFGMEM1_CFG0 Size (bytes): 4 */
 436:Generated_Source\PSoC5/cyfitter_cfg.c **** #define BS_PHUB_CFGMEM1_VAL ((const uint8 CYFAR *)0x4800212Cu)
 437:Generated_Source\PSoC5/cyfitter_cfg.c **** 
 438:Generated_Source\PSoC5/cyfitter_cfg.c **** 
 439:Generated_Source\PSoC5/cyfitter_cfg.c **** /*******************************************************************************
 440:Generated_Source\PSoC5/cyfitter_cfg.c **** * Function Name: cfg_dma_init
 441:Generated_Source\PSoC5/cyfitter_cfg.c **** ********************************************************************************
 442:Generated_Source\PSoC5/cyfitter_cfg.c **** * Summary:
 443:Generated_Source\PSoC5/cyfitter_cfg.c **** *  This function is used to copy device configuration data from constant values
 444:Generated_Source\PSoC5/cyfitter_cfg.c **** *  stored in memory into the proper chip configuration registers using DMA.  It
 445:Generated_Source\PSoC5/cyfitter_cfg.c **** *  pulls data out of the CFG_TD_LISTs to know exactly how/what to configure.
 446:Generated_Source\PSoC5/cyfitter_cfg.c **** *
 447:Generated_Source\PSoC5/cyfitter_cfg.c **** * Parameters:  
 448:Generated_Source\PSoC5/cyfitter_cfg.c **** *   void
 449:Generated_Source\PSoC5/cyfitter_cfg.c **** *
 450:Generated_Source\PSoC5/cyfitter_cfg.c **** * Return:
 451:Generated_Source\PSoC5/cyfitter_cfg.c **** *   void
 452:Generated_Source\PSoC5/cyfitter_cfg.c **** *
 453:Generated_Source\PSoC5/cyfitter_cfg.c **** *******************************************************************************/
 454:Generated_Source\PSoC5/cyfitter_cfg.c **** static void cfg_dma_init(void);
 455:Generated_Source\PSoC5/cyfitter_cfg.c **** static void cfg_dma_init(void)
 456:Generated_Source\PSoC5/cyfitter_cfg.c **** {
 684              		.loc 1 456 0
ARM GAS  C:\Users\JEFFSN~1\AppData\Local\Temp\ccuEuQhg.s 			page 21


 685              		.cfi_startproc
 686              		@ args = 0, pretend = 0, frame = 8
 687              		@ frame_needed = 1, uses_anonymous_args = 0
 688 0000 80B5     		push	{r7, lr}
 689              		.cfi_def_cfa_offset 8
 690              		.cfi_offset 7, -8
 691              		.cfi_offset 14, -4
 692 0002 82B0     		sub	sp, sp, #8
 693              		.cfi_def_cfa_offset 16
 694 0004 00AF     		add	r7, sp, #0
 695              		.cfi_def_cfa_register 7
 457:Generated_Source\PSoC5/cyfitter_cfg.c **** 	/* TD structure for little-endian systems. Does not require endian swap */
 458:Generated_Source\PSoC5/cyfitter_cfg.c **** 	CYPACKED struct td_t {
 459:Generated_Source\PSoC5/cyfitter_cfg.c **** 		uint16 size;
 460:Generated_Source\PSoC5/cyfitter_cfg.c **** 		uint8 next_td_ptr;
 461:Generated_Source\PSoC5/cyfitter_cfg.c **** 		uint8 flags;
 462:Generated_Source\PSoC5/cyfitter_cfg.c **** 		uint16 src;
 463:Generated_Source\PSoC5/cyfitter_cfg.c **** 		uint16 dest;
 464:Generated_Source\PSoC5/cyfitter_cfg.c **** 	} CYPACKED_ATTR;
 465:Generated_Source\PSoC5/cyfitter_cfg.c **** 
 466:Generated_Source\PSoC5/cyfitter_cfg.c **** 	/* PHUB_CH1_CFGMEM_CFG0/1 initialization data */
 467:Generated_Source\PSoC5/cyfitter_cfg.c **** 	DMAINITSEC static const uint8 CYCODE CH1_ADDR_DATA0[] = { 0x01u, 0x00u, 0x00u, 0x00u, 0x00u, 0x20u
 468:Generated_Source\PSoC5/cyfitter_cfg.c **** 
 469:Generated_Source\PSoC5/cyfitter_cfg.c **** 	/* PHUB_CH2_CFGMEM_CFG0/1 initialization data */
 470:Generated_Source\PSoC5/cyfitter_cfg.c **** 	DMAINITSEC static const uint8 CYCODE CH2_ADDR_DATA0[] = { 0x01u, 0x00u, 0x00u, 0x00u, 0x00u, 0x20u
 471:Generated_Source\PSoC5/cyfitter_cfg.c **** 
 472:Generated_Source\PSoC5/cyfitter_cfg.c **** 	/* PHUB_CH5_CFGMEM_CFG0/1 initialization data */
 473:Generated_Source\PSoC5/cyfitter_cfg.c **** 	DMAINITSEC static const uint8 CYCODE CH5_ADDR_DATA0[] = { 0x01u, 0x00u, 0x00u, 0x00u, 0x00u, 0x48u
 474:Generated_Source\PSoC5/cyfitter_cfg.c **** 
 475:Generated_Source\PSoC5/cyfitter_cfg.c **** 	/* PHUB_CH6_CFGMEM_CFG0/1 initialization data */
 476:Generated_Source\PSoC5/cyfitter_cfg.c **** 	DMAINITSEC static const uint8 CYCODE CH6_ADDR_DATA0[] = { 0x01u, 0x00u, 0x00u, 0x00u, 0x00u, 0x48u
 477:Generated_Source\PSoC5/cyfitter_cfg.c **** 
 478:Generated_Source\PSoC5/cyfitter_cfg.c **** 	/* Initialization data for each DMA channel's TD registers */
 479:Generated_Source\PSoC5/cyfitter_cfg.c **** 	DMAINITSEC static const uint8 CYCODE DMA_TD_START_CMD[] = { 0x01u, 0x00u, 0x00u, 0x00u, 0x01u };
 480:Generated_Source\PSoC5/cyfitter_cfg.c **** 
 481:Generated_Source\PSoC5/cyfitter_cfg.c **** 	CYALIGNED static uint32 CYXDATA DMA_ZERO_VAL;
 482:Generated_Source\PSoC5/cyfitter_cfg.c **** 
 483:Generated_Source\PSoC5/cyfitter_cfg.c **** 	/* This table holds all of the initialization data necessary for the DMA
 484:Generated_Source\PSoC5/cyfitter_cfg.c **** 	   process to transfer data from the source location to the destination. */
 485:Generated_Source\PSoC5/cyfitter_cfg.c **** 	/* Source addresses can be relocated, but only when in 32bit addresses.
 486:Generated_Source\PSoC5/cyfitter_cfg.c **** 	   Because the standard TD table only has 16bit addresses, we generate a
 487:Generated_Source\PSoC5/cyfitter_cfg.c **** 	   separate CFG_TD_ADDR table for the source addresses that supports 32bit
 488:Generated_Source\PSoC5/cyfitter_cfg.c **** 	   addresses. */
 489:Generated_Source\PSoC5/cyfitter_cfg.c **** 	DMAINITSEC static const struct td_t CYCODE CFG_TD_LIST0[] = {
 490:Generated_Source\PSoC5/cyfitter_cfg.c **** 		/* Size, Next, Flags, Source, Destination */
 491:Generated_Source\PSoC5/cyfitter_cfg.c **** 		{ 8u, 0x02u, 0x23u, (uint16)(uint32)(0u), (uint16)(CYREG_PHUB_CFGMEM1_CFG0) },	/* TD 1 */
 492:Generated_Source\PSoC5/cyfitter_cfg.c **** 		{ 8u, 0x03u, 0x23u, (uint16)(uint32)(0u), (uint16)(CYREG_PHUB_CFGMEM2_CFG0) },	/* TD 2 */
 493:Generated_Source\PSoC5/cyfitter_cfg.c **** 		{ 8u, 0x04u, 0x23u, (uint16)(uint32)(0u), (uint16)(CYREG_PHUB_CFGMEM5_CFG0) },	/* TD 3 */
 494:Generated_Source\PSoC5/cyfitter_cfg.c **** 		{ 8u, 0x05u, 0x23u, (uint16)(uint32)(0u), (uint16)(CYREG_PHUB_CFGMEM6_CFG0) },	/* TD 4 */
 495:Generated_Source\PSoC5/cyfitter_cfg.c **** 		{ 5u, 0x06u, 0x23u, (uint16)(uint32)(0u), (uint16)(CYREG_PHUB_CH1_BASIC_CFG) },	/* TD 5 */
 496:Generated_Source\PSoC5/cyfitter_cfg.c **** 		{ 5u, 0x07u, 0x23u, (uint16)(uint32)(0u), (uint16)(CYREG_PHUB_CH2_BASIC_CFG) },	/* TD 6 */
 497:Generated_Source\PSoC5/cyfitter_cfg.c **** 		{ 5u, 0x08u, 0x23u, (uint16)(uint32)(0u), (uint16)(CYREG_PHUB_CH5_BASIC_CFG) },	/* TD 7 */
 498:Generated_Source\PSoC5/cyfitter_cfg.c **** 		{ 5u, 0xFEu, 0x23u, (uint16)(uint32)(0u), (uint16)(CYREG_PHUB_CH6_BASIC_CFG) },	/* TD 8 */
 499:Generated_Source\PSoC5/cyfitter_cfg.c **** 		{ 16u, 0xFEu, 0x22u, (uint16)(uint32)(0u), (uint16)(CYREG_PRT12_DR) },	/* TD 9 */
 500:Generated_Source\PSoC5/cyfitter_cfg.c **** 		{ 512u, 0x0Bu, 0x22u, (uint16)(uint32)(0u), (uint16)(CYDEV_UCFG_B0_P0_U0_BASE) },	/* TD 10 */
 501:Generated_Source\PSoC5/cyfitter_cfg.c **** 		{ 128u, 0x0Cu, 0x22u, (uint16)(uint32)(0u), (uint16)(CYDEV_UCFG_B0_P7_U1_BASE) },	/* TD 11 */
 502:Generated_Source\PSoC5/cyfitter_cfg.c **** 		{ 128u, 0x0Du, 0x22u, (uint16)(uint32)(0u), (uint16)(CYDEV_UCFG_DSI2_BASE) },	/* TD 12 */
ARM GAS  C:\Users\JEFFSN~1\AppData\Local\Temp\ccuEuQhg.s 			page 22


 503:Generated_Source\PSoC5/cyfitter_cfg.c **** 		{ 128u, 0x0Eu, 0x22u, (uint16)(uint32)(0u), (uint16)(CYDEV_UCFG_DSI3_BASE) },	/* TD 13 */
 504:Generated_Source\PSoC5/cyfitter_cfg.c **** 		{ 128u, 0xFEu, 0x22u, (uint16)(uint32)(0u), (uint16)(CYDEV_UCFG_DSI7_BASE) },	/* TD 14 */
 505:Generated_Source\PSoC5/cyfitter_cfg.c **** 		{ 7u, 0x10u, 0x23u, (uint16)(uint32)(0u), (uint16)(CYDEV_PRTDSI_PRT0_BASE) },	/* TD 15 */
 506:Generated_Source\PSoC5/cyfitter_cfg.c **** 		{ 7u, 0x11u, 0x23u, (uint16)(uint32)(0u), (uint16)(CYDEV_PRTDSI_PRT1_BASE) },	/* TD 16 */
 507:Generated_Source\PSoC5/cyfitter_cfg.c **** 		{ 7u, 0x12u, 0x23u, (uint16)(uint32)(0u), (uint16)(CYDEV_PRTDSI_PRT2_BASE) },	/* TD 17 */
 508:Generated_Source\PSoC5/cyfitter_cfg.c **** 		{ 7u, 0x13u, 0x23u, (uint16)(uint32)(0u), (uint16)(CYDEV_PRTDSI_PRT4_BASE) },	/* TD 18 */
 509:Generated_Source\PSoC5/cyfitter_cfg.c **** 		{ 7u, 0x14u, 0x23u, (uint16)(uint32)(0u), (uint16)(CYDEV_PRTDSI_PRT5_BASE) },	/* TD 19 */
 510:Generated_Source\PSoC5/cyfitter_cfg.c **** 		{ 7u, 0x15u, 0x23u, (uint16)(uint32)(0u), (uint16)(CYDEV_PRTDSI_PRT6_BASE) },	/* TD 20 */
 511:Generated_Source\PSoC5/cyfitter_cfg.c **** 		{ 8u, 0x16u, 0x23u, (uint16)(uint32)(0u), (uint16)(CYREG_SAR1_SW0) },	/* TD 21 */
 512:Generated_Source\PSoC5/cyfitter_cfg.c **** 		{ 64u, 0x17u, 0x23u, (uint16)(uint32)(0u), (uint16)(CYDEV_UWRK_UWRK8_B0_BASE) },	/* TD 22 */
 513:Generated_Source\PSoC5/cyfitter_cfg.c **** 		{ 32u, 0x18u, 0x23u, (uint16)(uint32)(0u), (uint16)(CYDEV_UWRK_UWRK8_B0_BASE + 0x00000070u) },	/*
 514:Generated_Source\PSoC5/cyfitter_cfg.c **** 		{ 32u, 0xFEu, 0x23u, (uint16)(uint32)(0u), (uint16)(CYDEV_UWRK_UWRK8_B1_BASE + 0x00000070u) },	/*
 515:Generated_Source\PSoC5/cyfitter_cfg.c **** 		{ 8u, 0x1Au, 0x23u, (uint16)(uint32)(0u), (uint16)(CYREG_IDMUX_IRQ_CTL0) },	/* TD 25 */
 516:Generated_Source\PSoC5/cyfitter_cfg.c **** 		{ 128u, 0x1Bu, 0x23u, (uint16)(uint32)(0u), (uint16)(CYDEV_UCFG_B0_P1_U0_BASE) },	/* TD 26 */
 517:Generated_Source\PSoC5/cyfitter_cfg.c **** 		{ 128u, 0x1Cu, 0x23u, (uint16)(uint32)(0u), (uint16)(CYDEV_UCFG_B0_P1_U1_BASE) },	/* TD 27 */
 518:Generated_Source\PSoC5/cyfitter_cfg.c **** 		{ 128u, 0x1Du, 0x23u, (uint16)(uint32)(0u), (uint16)(CYDEV_UCFG_B0_P2_U0_BASE) },	/* TD 28 */
 519:Generated_Source\PSoC5/cyfitter_cfg.c **** 		{ 128u, 0x1Eu, 0x23u, (uint16)(uint32)(0u), (uint16)(CYDEV_UCFG_B0_P2_U1_BASE) },	/* TD 29 */
 520:Generated_Source\PSoC5/cyfitter_cfg.c **** 		{ 128u, 0x1Fu, 0x23u, (uint16)(uint32)(0u), (uint16)(CYDEV_UCFG_B0_P3_U0_BASE) },	/* TD 30 */
 521:Generated_Source\PSoC5/cyfitter_cfg.c **** 		{ 128u, 0x20u, 0x23u, (uint16)(uint32)(0u), (uint16)(CYDEV_UCFG_B0_P3_U1_BASE) },	/* TD 31 */
 522:Generated_Source\PSoC5/cyfitter_cfg.c **** 		{ 128u, 0x21u, 0x23u, (uint16)(uint32)(0u), (uint16)(CYDEV_UCFG_B0_P4_U0_BASE) },	/* TD 32 */
 523:Generated_Source\PSoC5/cyfitter_cfg.c **** 		{ 128u, 0x22u, 0x23u, (uint16)(uint32)(0u), (uint16)(CYDEV_UCFG_B0_P4_U1_BASE) },	/* TD 33 */
 524:Generated_Source\PSoC5/cyfitter_cfg.c **** 		{ 128u, 0x23u, 0x23u, (uint16)(uint32)(0u), (uint16)(CYDEV_UCFG_B0_P5_U0_BASE) },	/* TD 34 */
 525:Generated_Source\PSoC5/cyfitter_cfg.c **** 		{ 128u, 0x24u, 0x23u, (uint16)(uint32)(0u), (uint16)(CYDEV_UCFG_B0_P5_U1_BASE) },	/* TD 35 */
 526:Generated_Source\PSoC5/cyfitter_cfg.c **** 		{ 128u, 0x25u, 0x23u, (uint16)(uint32)(0u), (uint16)(CYDEV_UCFG_B0_P6_U0_BASE) },	/* TD 36 */
 527:Generated_Source\PSoC5/cyfitter_cfg.c **** 		{ 128u, 0x26u, 0x23u, (uint16)(uint32)(0u), (uint16)(CYDEV_UCFG_B0_P6_U1_BASE) },	/* TD 37 */
 528:Generated_Source\PSoC5/cyfitter_cfg.c **** 		{ 128u, 0x27u, 0x23u, (uint16)(uint32)(0u), (uint16)(CYDEV_UCFG_B0_P7_U0_BASE) },	/* TD 38 */
 529:Generated_Source\PSoC5/cyfitter_cfg.c **** 		{ 128u, 0x28u, 0x23u, (uint16)(uint32)(0u), (uint16)(CYDEV_UCFG_B1_P2_U0_BASE) },	/* TD 39 */
 530:Generated_Source\PSoC5/cyfitter_cfg.c **** 		{ 128u, 0x29u, 0x23u, (uint16)(uint32)(0u), (uint16)(CYDEV_UCFG_B1_P2_U1_BASE) },	/* TD 40 */
 531:Generated_Source\PSoC5/cyfitter_cfg.c **** 		{ 128u, 0x2Au, 0x23u, (uint16)(uint32)(0u), (uint16)(CYDEV_UCFG_B1_P3_U0_BASE) },	/* TD 41 */
 532:Generated_Source\PSoC5/cyfitter_cfg.c **** 		{ 128u, 0x2Bu, 0x23u, (uint16)(uint32)(0u), (uint16)(CYDEV_UCFG_B1_P3_U1_BASE) },	/* TD 42 */
 533:Generated_Source\PSoC5/cyfitter_cfg.c **** 		{ 128u, 0x2Cu, 0x23u, (uint16)(uint32)(0u), (uint16)(CYDEV_UCFG_B1_P4_U0_BASE) },	/* TD 43 */
 534:Generated_Source\PSoC5/cyfitter_cfg.c **** 		{ 128u, 0x2Du, 0x23u, (uint16)(uint32)(0u), (uint16)(CYDEV_UCFG_B1_P4_U1_BASE) },	/* TD 44 */
 535:Generated_Source\PSoC5/cyfitter_cfg.c **** 		{ 128u, 0x2Eu, 0x23u, (uint16)(uint32)(0u), (uint16)(CYDEV_UCFG_B1_P5_U0_BASE) },	/* TD 45 */
 536:Generated_Source\PSoC5/cyfitter_cfg.c **** 		{ 128u, 0x2Fu, 0x23u, (uint16)(uint32)(0u), (uint16)(CYDEV_UCFG_B1_P5_U1_BASE) },	/* TD 46 */
 537:Generated_Source\PSoC5/cyfitter_cfg.c **** 		{ 16u, 0x30u, 0x23u, (uint16)(uint32)(0u), (uint16)(CYREG_BCTL1_MDCLK_EN) },	/* TD 47 */
 538:Generated_Source\PSoC5/cyfitter_cfg.c **** 		{ 16u, 0x31u, 0x23u, (uint16)(uint32)(0u), (uint16)(CYREG_BCTL0_MDCLK_EN) },	/* TD 48 */
 539:Generated_Source\PSoC5/cyfitter_cfg.c **** 		{ 128u, 0x32u, 0x23u, (uint16)(uint32)(0u), (uint16)(CYDEV_UCFG_DSI13_BASE) },	/* TD 49 */
 540:Generated_Source\PSoC5/cyfitter_cfg.c **** 		{ 128u, 0x33u, 0x23u, (uint16)(uint32)(0u), (uint16)(CYDEV_UCFG_DSI13_BASE + 0x00000080u) },	/* T
 541:Generated_Source\PSoC5/cyfitter_cfg.c **** 		{ 128u, 0x34u, 0x23u, (uint16)(uint32)(0u), (uint16)(CYDEV_UCFG_DSI12_BASE) },	/* TD 51 */
 542:Generated_Source\PSoC5/cyfitter_cfg.c **** 		{ 128u, 0x35u, 0x23u, (uint16)(uint32)(0u), (uint16)(CYDEV_UCFG_DSI12_BASE + 0x00000080u) },	/* T
 543:Generated_Source\PSoC5/cyfitter_cfg.c **** 		{ 128u, 0x36u, 0x23u, (uint16)(uint32)(0u), (uint16)(CYDEV_UCFG_DSI7_BASE + 0x00000080u) },	/* TD
 544:Generated_Source\PSoC5/cyfitter_cfg.c **** 		{ 128u, 0x37u, 0x23u, (uint16)(uint32)(0u), (uint16)(CYDEV_UCFG_DSI6_BASE) },	/* TD 54 */
 545:Generated_Source\PSoC5/cyfitter_cfg.c **** 		{ 128u, 0x38u, 0x23u, (uint16)(uint32)(0u), (uint16)(CYDEV_UCFG_DSI6_BASE + 0x00000080u) },	/* TD
 546:Generated_Source\PSoC5/cyfitter_cfg.c **** 		{ 128u, 0x39u, 0x23u, (uint16)(uint32)(0u), (uint16)(CYDEV_UCFG_DSI5_BASE) },	/* TD 56 */
 547:Generated_Source\PSoC5/cyfitter_cfg.c **** 		{ 128u, 0x3Au, 0x23u, (uint16)(uint32)(0u), (uint16)(CYDEV_UCFG_DSI5_BASE + 0x00000080u) },	/* TD
 548:Generated_Source\PSoC5/cyfitter_cfg.c **** 		{ 128u, 0x3Bu, 0x23u, (uint16)(uint32)(0u), (uint16)(CYDEV_UCFG_DSI4_BASE) },	/* TD 58 */
 549:Generated_Source\PSoC5/cyfitter_cfg.c **** 		{ 128u, 0x3Cu, 0x23u, (uint16)(uint32)(0u), (uint16)(CYDEV_UCFG_DSI4_BASE + 0x00000080u) },	/* TD
 550:Generated_Source\PSoC5/cyfitter_cfg.c **** 		{ 128u, 0x3Du, 0x23u, (uint16)(uint32)(0u), (uint16)(CYDEV_UCFG_B1_P5_ROUTE_BASE) },	/* TD 60 */
 551:Generated_Source\PSoC5/cyfitter_cfg.c **** 		{ 128u, 0x3Eu, 0x23u, (uint16)(uint32)(0u), (uint16)(CYDEV_UCFG_B1_P5_ROUTE_BASE + 0x00000080u) }
 552:Generated_Source\PSoC5/cyfitter_cfg.c **** 		{ 128u, 0x3Fu, 0x23u, (uint16)(uint32)(0u), (uint16)(CYDEV_UCFG_B1_P2_ROUTE_BASE) },	/* TD 62 */
 553:Generated_Source\PSoC5/cyfitter_cfg.c **** 		{ 128u, 0x40u, 0x23u, (uint16)(uint32)(0u), (uint16)(CYDEV_UCFG_B1_P2_ROUTE_BASE + 0x00000080u) }
 554:Generated_Source\PSoC5/cyfitter_cfg.c **** 		{ 128u, 0x41u, 0x23u, (uint16)(uint32)(0u), (uint16)(CYDEV_UCFG_B1_P4_ROUTE_BASE) },	/* TD 64 */
 555:Generated_Source\PSoC5/cyfitter_cfg.c **** 		{ 128u, 0x42u, 0x23u, (uint16)(uint32)(0u), (uint16)(CYDEV_UCFG_B1_P4_ROUTE_BASE + 0x00000080u) }
 556:Generated_Source\PSoC5/cyfitter_cfg.c **** 		{ 128u, 0x43u, 0x23u, (uint16)(uint32)(0u), (uint16)(CYDEV_UCFG_B1_P3_ROUTE_BASE) },	/* TD 66 */
 557:Generated_Source\PSoC5/cyfitter_cfg.c **** 		{ 128u, 0x44u, 0x23u, (uint16)(uint32)(0u), (uint16)(CYDEV_UCFG_B1_P3_ROUTE_BASE + 0x00000080u) }
 558:Generated_Source\PSoC5/cyfitter_cfg.c **** 		{ 128u, 0x45u, 0x23u, (uint16)(uint32)(0u), (uint16)(CYDEV_UCFG_B0_P4_ROUTE_BASE) },	/* TD 68 */
 559:Generated_Source\PSoC5/cyfitter_cfg.c **** 		{ 128u, 0x46u, 0x23u, (uint16)(uint32)(0u), (uint16)(CYDEV_UCFG_B0_P4_ROUTE_BASE + 0x00000080u) }
ARM GAS  C:\Users\JEFFSN~1\AppData\Local\Temp\ccuEuQhg.s 			page 23


 560:Generated_Source\PSoC5/cyfitter_cfg.c **** 		{ 128u, 0x47u, 0x23u, (uint16)(uint32)(0u), (uint16)(CYDEV_UCFG_B0_P3_ROUTE_BASE) },	/* TD 70 */
 561:Generated_Source\PSoC5/cyfitter_cfg.c **** 		{ 128u, 0x48u, 0x23u, (uint16)(uint32)(0u), (uint16)(CYDEV_UCFG_B0_P3_ROUTE_BASE + 0x00000080u) }
 562:Generated_Source\PSoC5/cyfitter_cfg.c **** 		{ 128u, 0x49u, 0x23u, (uint16)(uint32)(0u), (uint16)(CYDEV_UCFG_B0_P5_ROUTE_BASE) },	/* TD 72 */
 563:Generated_Source\PSoC5/cyfitter_cfg.c **** 		{ 128u, 0x4Au, 0x23u, (uint16)(uint32)(0u), (uint16)(CYDEV_UCFG_B0_P5_ROUTE_BASE + 0x00000080u) }
 564:Generated_Source\PSoC5/cyfitter_cfg.c **** 		{ 128u, 0x4Bu, 0x23u, (uint16)(uint32)(0u), (uint16)(CYDEV_UCFG_B0_P2_ROUTE_BASE) },	/* TD 74 */
 565:Generated_Source\PSoC5/cyfitter_cfg.c **** 		{ 128u, 0x4Cu, 0x23u, (uint16)(uint32)(0u), (uint16)(CYDEV_UCFG_B0_P2_ROUTE_BASE + 0x00000080u) }
 566:Generated_Source\PSoC5/cyfitter_cfg.c **** 		{ 128u, 0x4Du, 0x23u, (uint16)(uint32)(0u), (uint16)(CYDEV_UCFG_B0_P6_ROUTE_BASE) },	/* TD 76 */
 567:Generated_Source\PSoC5/cyfitter_cfg.c **** 		{ 128u, 0x4Eu, 0x23u, (uint16)(uint32)(0u), (uint16)(CYDEV_UCFG_B0_P6_ROUTE_BASE + 0x00000080u) }
 568:Generated_Source\PSoC5/cyfitter_cfg.c **** 		{ 128u, 0x4Fu, 0x23u, (uint16)(uint32)(0u), (uint16)(CYDEV_UCFG_B0_P1_ROUTE_BASE) },	/* TD 78 */
 569:Generated_Source\PSoC5/cyfitter_cfg.c **** 		{ 128u, 0x50u, 0x23u, (uint16)(uint32)(0u), (uint16)(CYDEV_UCFG_B0_P1_ROUTE_BASE + 0x00000080u) }
 570:Generated_Source\PSoC5/cyfitter_cfg.c **** 		{ 128u, 0x51u, 0x23u, (uint16)(uint32)(0u), (uint16)(CYDEV_UCFG_B0_P7_ROUTE_BASE) },	/* TD 80 */
 571:Generated_Source\PSoC5/cyfitter_cfg.c **** 		{ 128u, 0x52u, 0x23u, (uint16)(uint32)(0u), (uint16)(CYDEV_UCFG_B0_P7_ROUTE_BASE + 0x00000080u) }
 572:Generated_Source\PSoC5/cyfitter_cfg.c **** 		{ 128u, 0x53u, 0x23u, (uint16)(uint32)(0u), (uint16)(CYDEV_UCFG_DSI9_BASE) },	/* TD 82 */
 573:Generated_Source\PSoC5/cyfitter_cfg.c **** 		{ 128u, 0x54u, 0x23u, (uint16)(uint32)(0u), (uint16)(CYDEV_UCFG_DSI9_BASE + 0x00000080u) },	/* TD
 574:Generated_Source\PSoC5/cyfitter_cfg.c **** 		{ 128u, 0x55u, 0x23u, (uint16)(uint32)(0u), (uint16)(CYDEV_UCFG_DSI8_BASE) },	/* TD 84 */
 575:Generated_Source\PSoC5/cyfitter_cfg.c **** 		{ 128u, 0x56u, 0x23u, (uint16)(uint32)(0u), (uint16)(CYDEV_UCFG_DSI8_BASE + 0x00000080u) },	/* TD
 576:Generated_Source\PSoC5/cyfitter_cfg.c **** 		{ 128u, 0x57u, 0x23u, (uint16)(uint32)(0u), (uint16)(CYDEV_UCFG_DSI3_BASE + 0x00000080u) },	/* TD
 577:Generated_Source\PSoC5/cyfitter_cfg.c **** 		{ 128u, 0x58u, 0x23u, (uint16)(uint32)(0u), (uint16)(CYDEV_UCFG_DSI2_BASE + 0x00000080u) },	/* TD
 578:Generated_Source\PSoC5/cyfitter_cfg.c **** 		{ 128u, 0x59u, 0x23u, (uint16)(uint32)(0u), (uint16)(CYDEV_UCFG_DSI1_BASE) },	/* TD 88 */
 579:Generated_Source\PSoC5/cyfitter_cfg.c **** 		{ 128u, 0x5Au, 0x23u, (uint16)(uint32)(0u), (uint16)(CYDEV_UCFG_DSI1_BASE + 0x00000080u) },	/* TD
 580:Generated_Source\PSoC5/cyfitter_cfg.c **** 		{ 128u, 0x5Bu, 0x23u, (uint16)(uint32)(0u), (uint16)(CYDEV_UCFG_DSI0_BASE) },	/* TD 90 */
 581:Generated_Source\PSoC5/cyfitter_cfg.c **** 		{ 128u, 0xFEu, 0x23u, (uint16)(uint32)(0u), (uint16)(CYDEV_UCFG_DSI0_BASE + 0x00000080u) },	/* TD
 582:Generated_Source\PSoC5/cyfitter_cfg.c **** 	};
 583:Generated_Source\PSoC5/cyfitter_cfg.c **** 
 584:Generated_Source\PSoC5/cyfitter_cfg.c **** 	/* Source addresses can be relocated, but only when in 32bit addresses.
 585:Generated_Source\PSoC5/cyfitter_cfg.c **** 	   Because the standard TD table only has 16bit addresses, we generate a
 586:Generated_Source\PSoC5/cyfitter_cfg.c **** 	   separate table for the source addresses that does use 32bit addresses. This
 587:Generated_Source\PSoC5/cyfitter_cfg.c **** 	   table will be re-merged with the corresponding CFG_TD_LIST table during
 588:Generated_Source\PSoC5/cyfitter_cfg.c **** 	   initialization. */
 589:Generated_Source\PSoC5/cyfitter_cfg.c **** 	static const void * const CFG_TD_ADDR0[] = {
 590:Generated_Source\PSoC5/cyfitter_cfg.c **** 		(const void *)(CH1_ADDR_DATA0),	/* TD 1 */
 591:Generated_Source\PSoC5/cyfitter_cfg.c **** 		(const void *)(CH2_ADDR_DATA0),	/* TD 2 */
 592:Generated_Source\PSoC5/cyfitter_cfg.c **** 		(const void *)(CH5_ADDR_DATA0),	/* TD 3 */
 593:Generated_Source\PSoC5/cyfitter_cfg.c **** 		(const void *)(CH6_ADDR_DATA0),	/* TD 4 */
 594:Generated_Source\PSoC5/cyfitter_cfg.c **** 		(const void *)(DMA_TD_START_CMD),	/* TD 5 */
 595:Generated_Source\PSoC5/cyfitter_cfg.c **** 		(const void *)(DMA_TD_START_CMD),	/* TD 6 */
 596:Generated_Source\PSoC5/cyfitter_cfg.c **** 		(const void *)(DMA_TD_START_CMD),	/* TD 7 */
 597:Generated_Source\PSoC5/cyfitter_cfg.c **** 		(const void *)(DMA_TD_START_CMD),	/* TD 8 */
 598:Generated_Source\PSoC5/cyfitter_cfg.c **** 		(const void *)(&DMA_ZERO_VAL),	/* TD 9 */
 599:Generated_Source\PSoC5/cyfitter_cfg.c **** 		(const void *)(&DMA_ZERO_VAL),	/* TD 10 */
 600:Generated_Source\PSoC5/cyfitter_cfg.c **** 		(const void *)(&DMA_ZERO_VAL),	/* TD 11 */
 601:Generated_Source\PSoC5/cyfitter_cfg.c **** 		(const void *)(&DMA_ZERO_VAL),	/* TD 12 */
 602:Generated_Source\PSoC5/cyfitter_cfg.c **** 		(const void *)(&DMA_ZERO_VAL),	/* TD 13 */
 603:Generated_Source\PSoC5/cyfitter_cfg.c **** 		(const void *)(&DMA_ZERO_VAL),	/* TD 14 */
 604:Generated_Source\PSoC5/cyfitter_cfg.c **** 		(const void *)(BS_IOPORT_0_VAL),	/* TD 15 */
 605:Generated_Source\PSoC5/cyfitter_cfg.c **** 		(const void *)(BS_IOPORT_1_VAL),	/* TD 16 */
 606:Generated_Source\PSoC5/cyfitter_cfg.c **** 		(const void *)(BS_IOPORT_2_VAL),	/* TD 17 */
 607:Generated_Source\PSoC5/cyfitter_cfg.c **** 		(const void *)(BS_IOPORT_4_VAL),	/* TD 18 */
 608:Generated_Source\PSoC5/cyfitter_cfg.c **** 		(const void *)(BS_IOPORT_5_VAL),	/* TD 19 */
 609:Generated_Source\PSoC5/cyfitter_cfg.c **** 		(const void *)(BS_IOPORT_6_VAL),	/* TD 20 */
 610:Generated_Source\PSoC5/cyfitter_cfg.c **** 		(const void *)(BS_SAR1_VAL),	/* TD 21 */
 611:Generated_Source\PSoC5/cyfitter_cfg.c **** 		(const void *)(BS_UWRK_B0_WRK_DP_BITS_VAL),	/* TD 22 */
 612:Generated_Source\PSoC5/cyfitter_cfg.c **** 		(const void *)(BS_UWRK_B0_WRK_STATCTL_BITS_VAL),	/* TD 23 */
 613:Generated_Source\PSoC5/cyfitter_cfg.c **** 		(const void *)(BS_UWRK_B1_WRK_STATCTL_BITS_VAL),	/* TD 24 */
 614:Generated_Source\PSoC5/cyfitter_cfg.c **** 		(const void *)(BS_IDMUX_IRQ_VAL),	/* TD 25 */
 615:Generated_Source\PSoC5/cyfitter_cfg.c **** 		(const void *)(BS_UDB_1_4_1_CONFIG_VAL),	/* TD 26 */
 616:Generated_Source\PSoC5/cyfitter_cfg.c **** 		(const void *)(BS_UDB_1_4_0_CONFIG_VAL),	/* TD 27 */
ARM GAS  C:\Users\JEFFSN~1\AppData\Local\Temp\ccuEuQhg.s 			page 24


 617:Generated_Source\PSoC5/cyfitter_cfg.c **** 		(const void *)(BS_UDB_1_3_0_CONFIG_VAL),	/* TD 28 */
 618:Generated_Source\PSoC5/cyfitter_cfg.c **** 		(const void *)(BS_UDB_1_3_1_CONFIG_VAL),	/* TD 29 */
 619:Generated_Source\PSoC5/cyfitter_cfg.c **** 		(const void *)(BS_UDB_1_2_1_CONFIG_VAL),	/* TD 30 */
 620:Generated_Source\PSoC5/cyfitter_cfg.c **** 		(const void *)(BS_UDB_1_2_0_CONFIG_VAL),	/* TD 31 */
 621:Generated_Source\PSoC5/cyfitter_cfg.c **** 		(const void *)(BS_UDB_0_2_1_CONFIG_VAL),	/* TD 32 */
 622:Generated_Source\PSoC5/cyfitter_cfg.c **** 		(const void *)(BS_UDB_0_2_0_CONFIG_VAL),	/* TD 33 */
 623:Generated_Source\PSoC5/cyfitter_cfg.c **** 		(const void *)(BS_UDB_0_3_0_CONFIG_VAL),	/* TD 34 */
 624:Generated_Source\PSoC5/cyfitter_cfg.c **** 		(const void *)(BS_UDB_0_3_1_CONFIG_VAL),	/* TD 35 */
 625:Generated_Source\PSoC5/cyfitter_cfg.c **** 		(const void *)(BS_UDB_0_4_1_CONFIG_VAL),	/* TD 36 */
 626:Generated_Source\PSoC5/cyfitter_cfg.c **** 		(const void *)(BS_UDB_0_4_0_CONFIG_VAL),	/* TD 37 */
 627:Generated_Source\PSoC5/cyfitter_cfg.c **** 		(const void *)(BS_UDB_0_5_0_CONFIG_VAL),	/* TD 38 */
 628:Generated_Source\PSoC5/cyfitter_cfg.c **** 		(const void *)(BS_UDB_1_0_0_CONFIG_VAL),	/* TD 39 */
 629:Generated_Source\PSoC5/cyfitter_cfg.c **** 		(const void *)(BS_UDB_1_0_1_CONFIG_VAL),	/* TD 40 */
 630:Generated_Source\PSoC5/cyfitter_cfg.c **** 		(const void *)(BS_UDB_1_1_1_CONFIG_VAL),	/* TD 41 */
 631:Generated_Source\PSoC5/cyfitter_cfg.c **** 		(const void *)(BS_UDB_1_1_0_CONFIG_VAL),	/* TD 42 */
 632:Generated_Source\PSoC5/cyfitter_cfg.c **** 		(const void *)(BS_UDB_0_1_1_CONFIG_VAL),	/* TD 43 */
 633:Generated_Source\PSoC5/cyfitter_cfg.c **** 		(const void *)(BS_UDB_0_1_0_CONFIG_VAL),	/* TD 44 */
 634:Generated_Source\PSoC5/cyfitter_cfg.c **** 		(const void *)(BS_UDB_0_0_0_CONFIG_VAL),	/* TD 45 */
 635:Generated_Source\PSoC5/cyfitter_cfg.c **** 		(const void *)(BS_UDB_0_0_1_CONFIG_VAL),	/* TD 46 */
 636:Generated_Source\PSoC5/cyfitter_cfg.c **** 		(const void *)(BS_UCFG_BCTL1_VAL),	/* TD 47 */
 637:Generated_Source\PSoC5/cyfitter_cfg.c **** 		(const void *)(BS_UCFG_BCTL0_VAL),	/* TD 48 */
 638:Generated_Source\PSoC5/cyfitter_cfg.c **** 		(const void *)(BS_DSISWITCH_0_0_VAL),	/* TD 49 */
 639:Generated_Source\PSoC5/cyfitter_cfg.c **** 		(const void *)(BS_DSI0_0_HV_ROUTING_VAL),	/* TD 50 */
 640:Generated_Source\PSoC5/cyfitter_cfg.c **** 		(const void *)(BS_DSISWITCH_0_1_VAL),	/* TD 51 */
 641:Generated_Source\PSoC5/cyfitter_cfg.c **** 		(const void *)(BS_DSI0_1_HV_ROUTING_VAL),	/* TD 52 */
 642:Generated_Source\PSoC5/cyfitter_cfg.c **** 		(const void *)(BS_DSI0_2_HV_ROUTING_VAL),	/* TD 53 */
 643:Generated_Source\PSoC5/cyfitter_cfg.c **** 		(const void *)(BS_DSISWITCH_0_3_VAL),	/* TD 54 */
 644:Generated_Source\PSoC5/cyfitter_cfg.c **** 		(const void *)(BS_DSI0_3_HV_ROUTING_VAL),	/* TD 55 */
 645:Generated_Source\PSoC5/cyfitter_cfg.c **** 		(const void *)(BS_DSISWITCH_0_4_VAL),	/* TD 56 */
 646:Generated_Source\PSoC5/cyfitter_cfg.c **** 		(const void *)(BS_DSI0_4_HV_ROUTING_VAL),	/* TD 57 */
 647:Generated_Source\PSoC5/cyfitter_cfg.c **** 		(const void *)(BS_DSISWITCH_0_5_VAL),	/* TD 58 */
 648:Generated_Source\PSoC5/cyfitter_cfg.c **** 		(const void *)(BS_DSI0_5_HV_ROUTING_VAL),	/* TD 59 */
 649:Generated_Source\PSoC5/cyfitter_cfg.c **** 		(const void *)(BS_UDBSWITCH_0_0_VAL),	/* TD 60 */
 650:Generated_Source\PSoC5/cyfitter_cfg.c **** 		(const void *)(BS_UDB_1_0_HV_ROUTING_VAL),	/* TD 61 */
 651:Generated_Source\PSoC5/cyfitter_cfg.c **** 		(const void *)(BS_UDBSWITCH_1_0_VAL),	/* TD 62 */
 652:Generated_Source\PSoC5/cyfitter_cfg.c **** 		(const void *)(BS_UDB_2_0_HV_ROUTING_VAL),	/* TD 63 */
 653:Generated_Source\PSoC5/cyfitter_cfg.c **** 		(const void *)(BS_UDBSWITCH_0_1_VAL),	/* TD 64 */
 654:Generated_Source\PSoC5/cyfitter_cfg.c **** 		(const void *)(BS_UDB_1_1_HV_ROUTING_VAL),	/* TD 65 */
 655:Generated_Source\PSoC5/cyfitter_cfg.c **** 		(const void *)(BS_UDBSWITCH_1_1_VAL),	/* TD 66 */
 656:Generated_Source\PSoC5/cyfitter_cfg.c **** 		(const void *)(BS_UDB_2_1_HV_ROUTING_VAL),	/* TD 67 */
 657:Generated_Source\PSoC5/cyfitter_cfg.c **** 		(const void *)(BS_UDBSWITCH_0_2_VAL),	/* TD 68 */
 658:Generated_Source\PSoC5/cyfitter_cfg.c **** 		(const void *)(BS_UDB_1_2_HV_ROUTING_VAL),	/* TD 69 */
 659:Generated_Source\PSoC5/cyfitter_cfg.c **** 		(const void *)(BS_UDBSWITCH_1_2_VAL),	/* TD 70 */
 660:Generated_Source\PSoC5/cyfitter_cfg.c **** 		(const void *)(BS_UDB_2_2_HV_ROUTING_VAL),	/* TD 71 */
 661:Generated_Source\PSoC5/cyfitter_cfg.c **** 		(const void *)(BS_UDBSWITCH_0_3_VAL),	/* TD 72 */
 662:Generated_Source\PSoC5/cyfitter_cfg.c **** 		(const void *)(BS_UDB_1_3_HV_ROUTING_VAL),	/* TD 73 */
 663:Generated_Source\PSoC5/cyfitter_cfg.c **** 		(const void *)(BS_UDBSWITCH_1_3_VAL),	/* TD 74 */
 664:Generated_Source\PSoC5/cyfitter_cfg.c **** 		(const void *)(BS_UDB_2_3_HV_ROUTING_VAL),	/* TD 75 */
 665:Generated_Source\PSoC5/cyfitter_cfg.c **** 		(const void *)(BS_UDBSWITCH_0_4_VAL),	/* TD 76 */
 666:Generated_Source\PSoC5/cyfitter_cfg.c **** 		(const void *)(BS_UDB_1_4_HV_ROUTING_VAL),	/* TD 77 */
 667:Generated_Source\PSoC5/cyfitter_cfg.c **** 		(const void *)(BS_UDBSWITCH_1_4_VAL),	/* TD 78 */
 668:Generated_Source\PSoC5/cyfitter_cfg.c **** 		(const void *)(BS_UDB_2_4_HV_ROUTING_VAL),	/* TD 79 */
 669:Generated_Source\PSoC5/cyfitter_cfg.c **** 		(const void *)(BS_UDBSWITCH_0_5_VAL),	/* TD 80 */
 670:Generated_Source\PSoC5/cyfitter_cfg.c **** 		(const void *)(BS_UDB_1_5_HV_ROUTING_VAL),	/* TD 81 */
 671:Generated_Source\PSoC5/cyfitter_cfg.c **** 		(const void *)(BS_DSISWITCH_1_0_VAL),	/* TD 82 */
 672:Generated_Source\PSoC5/cyfitter_cfg.c **** 		(const void *)(BS_DSI3_0_HV_ROUTING_VAL),	/* TD 83 */
 673:Generated_Source\PSoC5/cyfitter_cfg.c **** 		(const void *)(BS_DSISWITCH_1_1_VAL),	/* TD 84 */
ARM GAS  C:\Users\JEFFSN~1\AppData\Local\Temp\ccuEuQhg.s 			page 25


 674:Generated_Source\PSoC5/cyfitter_cfg.c **** 		(const void *)(BS_DSI3_1_HV_ROUTING_VAL),	/* TD 85 */
 675:Generated_Source\PSoC5/cyfitter_cfg.c **** 		(const void *)(BS_DSI3_2_HV_ROUTING_VAL),	/* TD 86 */
 676:Generated_Source\PSoC5/cyfitter_cfg.c **** 		(const void *)(BS_DSI3_3_HV_ROUTING_VAL),	/* TD 87 */
 677:Generated_Source\PSoC5/cyfitter_cfg.c **** 		(const void *)(BS_DSISWITCH_1_4_VAL),	/* TD 88 */
 678:Generated_Source\PSoC5/cyfitter_cfg.c **** 		(const void *)(BS_DSI3_4_HV_ROUTING_VAL),	/* TD 89 */
 679:Generated_Source\PSoC5/cyfitter_cfg.c **** 		(const void *)(BS_DSISWITCH_1_5_VAL),	/* TD 90 */
 680:Generated_Source\PSoC5/cyfitter_cfg.c **** 		(const void *)(BS_DSI3_5_HV_ROUTING_VAL),	/* TD 91 */
 681:Generated_Source\PSoC5/cyfitter_cfg.c **** 	};
 682:Generated_Source\PSoC5/cyfitter_cfg.c **** 
 683:Generated_Source\PSoC5/cyfitter_cfg.c **** 
 684:Generated_Source\PSoC5/cyfitter_cfg.c **** 	uint32 i;
 685:Generated_Source\PSoC5/cyfitter_cfg.c **** 
 686:Generated_Source\PSoC5/cyfitter_cfg.c **** 	DMA_ZERO_VAL = 0u;
 696              		.loc 1 686 0
 697 0006 454B     		ldr	r3, .L15
 698 0008 0022     		movs	r2, #0
 699 000a 1A60     		str	r2, [r3]
 687:Generated_Source\PSoC5/cyfitter_cfg.c **** 	CY_SET_REG8((void CYXDATA *)CYREG_PHUB_CFGMEM0_CFG0, 0x10u);	/* set burstcnt */
 700              		.loc 1 687 0
 701 000c 444B     		ldr	r3, .L15+4
 702 000e 1022     		movs	r2, #16
 703 0010 1A70     		strb	r2, [r3]
 688:Generated_Source\PSoC5/cyfitter_cfg.c **** 	CY_SET_REG8((void CYXDATA *)CYREG_PHUB_CH0_BASIC_CFG, 0x01u);	/* enable ch0 */
 704              		.loc 1 688 0
 705 0012 444B     		ldr	r3, .L15+8
 706 0014 0122     		movs	r2, #1
 707 0016 1A70     		strb	r2, [r3]
 689:Generated_Source\PSoC5/cyfitter_cfg.c **** 	CY_SET_REG8((void CYXDATA *)(CYREG_PHUB_CH0_BASIC_STATUS+1u), 0x00u);	/* set first TD to 0 */
 708              		.loc 1 689 0
 709 0018 434B     		ldr	r3, .L15+12
 710 001a 0022     		movs	r2, #0
 711 001c 1A70     		strb	r2, [r3]
 690:Generated_Source\PSoC5/cyfitter_cfg.c **** 	CY_SET_REG16((void CYXDATA *)CYREG_PHUB_TDMEM0_ORIG_TD0, 91u*8u);	/* transfer size */
 712              		.loc 1 690 0
 713 001e 434B     		ldr	r3, .L15+16
 714 0020 4FF43672 		mov	r2, #728
 715 0024 1A80     		strh	r2, [r3]	@ movhi
 691:Generated_Source\PSoC5/cyfitter_cfg.c **** 	CY_SET_REG8((void CYXDATA *)(CYREG_PHUB_TDMEM0_ORIG_TD0+2u), 0x01u);	/* set next TD to 1 */
 716              		.loc 1 691 0
 717 0026 424B     		ldr	r3, .L15+20
 718 0028 0122     		movs	r2, #1
 719 002a 1A70     		strb	r2, [r3]
 692:Generated_Source\PSoC5/cyfitter_cfg.c **** 	CY_SET_REG8((void CYXDATA *)(CYREG_PHUB_TDMEM0_ORIG_TD0+3u), 0x03u);	/* set TD flags */
 720              		.loc 1 692 0
 721 002c 414B     		ldr	r3, .L15+24
 722 002e 0322     		movs	r2, #3
 723 0030 1A70     		strb	r2, [r3]
 693:Generated_Source\PSoC5/cyfitter_cfg.c **** 	CY_SET_REG16((void CYXDATA *)CYREG_PHUB_TDMEM0_ORIG_TD1, (uint16)((uint32)CFG_TD_LIST0 & 0x0000FFF
 724              		.loc 1 693 0
 725 0032 414B     		ldr	r3, .L15+28
 726 0034 414A     		ldr	r2, .L15+32
 727 0036 92B2     		uxth	r2, r2
 728 0038 1A80     		strh	r2, [r3]	@ movhi
 694:Generated_Source\PSoC5/cyfitter_cfg.c **** 	CY_SET_REG16((void CYXDATA *)(CYREG_PHUB_TDMEM0_ORIG_TD1+2u), CYDEV_PHUB_TDMEM1_BASE);	/* set td0'
 729              		.loc 1 694 0
 730 003a 414B     		ldr	r3, .L15+36
 731 003c 47F60802 		movw	r2, #30728
ARM GAS  C:\Users\JEFFSN~1\AppData\Local\Temp\ccuEuQhg.s 			page 26


 732 0040 1A80     		strh	r2, [r3]	@ movhi
 695:Generated_Source\PSoC5/cyfitter_cfg.c **** 	CY_SET_REG16((void CYXDATA *)CYREG_PHUB_CFGMEM0_CFG1, (uint16)(CYDEV_FLASH_BASE >> 16));	/* set ch
 733              		.loc 1 695 0
 734 0042 404B     		ldr	r3, .L15+40
 735 0044 0022     		movs	r2, #0
 736 0046 1A80     		strh	r2, [r3]	@ movhi
 696:Generated_Source\PSoC5/cyfitter_cfg.c **** 	CY_SET_REG16((void CYXDATA *)(CYREG_PHUB_CFGMEM0_CFG1+2u), (uint16)(CYDEV_PHUB_TDMEM1_BASE >> 16))
 737              		.loc 1 696 0
 738 0048 3F4B     		ldr	r3, .L15+44
 739 004a 4FF48042 		mov	r2, #16384
 740 004e 1A80     		strh	r2, [r3]	@ movhi
 697:Generated_Source\PSoC5/cyfitter_cfg.c **** 	CY_SET_REG8((void CYXDATA *)(CYREG_PHUB_CH1_BASIC_STATUS+1u), 0x09u);	/* ch1 first TD: 9 */
 741              		.loc 1 697 0
 742 0050 3E4B     		ldr	r3, .L15+48
 743 0052 0922     		movs	r2, #9
 744 0054 1A70     		strb	r2, [r3]
 698:Generated_Source\PSoC5/cyfitter_cfg.c **** 	CY_SET_REG8((void CYXDATA *)(CYREG_PHUB_CH2_BASIC_STATUS+1u), 0x0Au);	/* ch2 first TD: 10 */
 745              		.loc 1 698 0
 746 0056 3E4B     		ldr	r3, .L15+52
 747 0058 0A22     		movs	r2, #10
 748 005a 1A70     		strb	r2, [r3]
 699:Generated_Source\PSoC5/cyfitter_cfg.c **** 	CY_SET_REG8((void CYXDATA *)(CYREG_PHUB_CH5_BASIC_STATUS+1u), 0x0Fu);	/* ch5 first TD: 15 */
 749              		.loc 1 699 0
 750 005c 3D4B     		ldr	r3, .L15+56
 751 005e 0F22     		movs	r2, #15
 752 0060 1A70     		strb	r2, [r3]
 700:Generated_Source\PSoC5/cyfitter_cfg.c **** 	CY_SET_REG8((void CYXDATA *)(CYREG_PHUB_CH6_BASIC_STATUS+1u), 0x19u);	/* ch6 first TD: 25 */
 753              		.loc 1 700 0
 754 0062 3D4B     		ldr	r3, .L15+60
 755 0064 1922     		movs	r2, #25
 756 0066 1A70     		strb	r2, [r3]
 701:Generated_Source\PSoC5/cyfitter_cfg.c **** 
 702:Generated_Source\PSoC5/cyfitter_cfg.c **** 	CY_CFG_MEMORY_BARRIER();
 757              		.loc 1 702 0
 758 0068 BFF35F8F 		dmb	sy
 703:Generated_Source\PSoC5/cyfitter_cfg.c **** 	CY_SET_REG8((void CYXDATA *)CYREG_PHUB_CH0_ACTION, 0x01u); /* cpu_req */
 759              		.loc 1 703 0
 760 006c 3B4B     		ldr	r3, .L15+64
 761 006e 0122     		movs	r2, #1
 762 0070 1A70     		strb	r2, [r3]
 704:Generated_Source\PSoC5/cyfitter_cfg.c **** 	CY_CFG_MEMORY_BARRIER();
 763              		.loc 1 704 0
 764 0072 BFF35F8F 		dmb	sy
 705:Generated_Source\PSoC5/cyfitter_cfg.c **** 
 706:Generated_Source\PSoC5/cyfitter_cfg.c **** 	/* Wait for TDs to be copied into TDMEM */
 707:Generated_Source\PSoC5/cyfitter_cfg.c **** 	while (CY_GET_REG16((void CYXDATA *)CYREG_PHUB_TDMEM0_ORIG_TD0) != 0u) { }
 765              		.loc 1 707 0
 766 0076 00BF     		nop
 767              	.L7:
 768              		.loc 1 707 0 is_stmt 0 discriminator 1
 769 0078 2C4B     		ldr	r3, .L15+16
 770 007a 1B88     		ldrh	r3, [r3]	@ movhi
 771 007c 9BB2     		uxth	r3, r3
 772 007e 002B     		cmp	r3, #0
 773 0080 FAD1     		bne	.L7
 708:Generated_Source\PSoC5/cyfitter_cfg.c **** 
 709:Generated_Source\PSoC5/cyfitter_cfg.c **** 	/* Recombine TD source table (CFG_TD_ADDR0) with full TD table (CFG_TD_LIST0) */
ARM GAS  C:\Users\JEFFSN~1\AppData\Local\Temp\ccuEuQhg.s 			page 27


 710:Generated_Source\PSoC5/cyfitter_cfg.c **** 	for (i = 0u; i < 91u; i++)
 774              		.loc 1 710 0 is_stmt 1
 775 0082 0023     		movs	r3, #0
 776 0084 7B60     		str	r3, [r7, #4]
 777 0086 0DE0     		b	.L8
 778              	.L9:
 711:Generated_Source\PSoC5/cyfitter_cfg.c **** 	{
 712:Generated_Source\PSoC5/cyfitter_cfg.c **** 		CY_SET_REG16((void CYXDATA *)(CYREG_PHUB_TDMEM1_ORIG_TD1 + (sizeof(struct td_t)*i)), (uint16)(uin
 779              		.loc 1 712 0 discriminator 3
 780 0088 7B68     		ldr	r3, [r7, #4]
 781 008a DA00     		lsls	r2, r3, #3
 782 008c 344B     		ldr	r3, .L15+68
 783 008e 1344     		add	r3, r3, r2
 784 0090 1946     		mov	r1, r3
 785 0092 344A     		ldr	r2, .L15+72
 786 0094 7B68     		ldr	r3, [r7, #4]
 787 0096 52F82330 		ldr	r3, [r2, r3, lsl #2]
 788 009a 9BB2     		uxth	r3, r3
 789 009c 0B80     		strh	r3, [r1]	@ movhi
 710:Generated_Source\PSoC5/cyfitter_cfg.c **** 	{
 790              		.loc 1 710 0 discriminator 3
 791 009e 7B68     		ldr	r3, [r7, #4]
 792 00a0 0133     		adds	r3, r3, #1
 793 00a2 7B60     		str	r3, [r7, #4]
 794              	.L8:
 710:Generated_Source\PSoC5/cyfitter_cfg.c **** 	{
 795              		.loc 1 710 0 is_stmt 0 discriminator 1
 796 00a4 7B68     		ldr	r3, [r7, #4]
 797 00a6 5A2B     		cmp	r3, #90
 798 00a8 EED9     		bls	.L9
 713:Generated_Source\PSoC5/cyfitter_cfg.c **** 	}
 714:Generated_Source\PSoC5/cyfitter_cfg.c **** 
 715:Generated_Source\PSoC5/cyfitter_cfg.c **** 	CY_CFG_MEMORY_BARRIER();
 799              		.loc 1 715 0 is_stmt 1
 800 00aa BFF35F8F 		dmb	sy
 716:Generated_Source\PSoC5/cyfitter_cfg.c **** 	CY_SET_REG8((void CYXDATA *)CYREG_PHUB_CH0_ACTION, 0x01u); /* cpu_req */
 801              		.loc 1 716 0
 802 00ae 2B4B     		ldr	r3, .L15+64
 803 00b0 0122     		movs	r2, #1
 804 00b2 1A70     		strb	r2, [r3]
 717:Generated_Source\PSoC5/cyfitter_cfg.c **** 	CY_CFG_MEMORY_BARRIER();
 805              		.loc 1 717 0
 806 00b4 BFF35F8F 		dmb	sy
 718:Generated_Source\PSoC5/cyfitter_cfg.c **** 
 719:Generated_Source\PSoC5/cyfitter_cfg.c **** 	/* Wait for all DMA transfers to complete */
 720:Generated_Source\PSoC5/cyfitter_cfg.c **** 	while(0u != (CY_GET_REG8((void CYXDATA *)CYREG_PHUB_CH0_BASIC_STATUS) & 0x01u)){}
 807              		.loc 1 720 0
 808 00b8 00BF     		nop
 809              	.L10:
 810              		.loc 1 720 0 is_stmt 0 discriminator 1
 811 00ba 2B4B     		ldr	r3, .L15+76
 812 00bc 1B78     		ldrb	r3, [r3]
 813 00be DBB2     		uxtb	r3, r3
 814 00c0 03F00103 		and	r3, r3, #1
 815 00c4 002B     		cmp	r3, #0
 816 00c6 F8D1     		bne	.L10
 721:Generated_Source\PSoC5/cyfitter_cfg.c **** 	while(0u != (CY_GET_REG8((void CYXDATA *)CYREG_PHUB_CH1_BASIC_STATUS) & 0x01u)){}
ARM GAS  C:\Users\JEFFSN~1\AppData\Local\Temp\ccuEuQhg.s 			page 28


 817              		.loc 1 721 0 is_stmt 1
 818 00c8 00BF     		nop
 819              	.L11:
 820              		.loc 1 721 0 is_stmt 0 discriminator 1
 821 00ca 284B     		ldr	r3, .L15+80
 822 00cc 1B78     		ldrb	r3, [r3]
 823 00ce DBB2     		uxtb	r3, r3
 824 00d0 03F00103 		and	r3, r3, #1
 825 00d4 002B     		cmp	r3, #0
 826 00d6 F8D1     		bne	.L11
 722:Generated_Source\PSoC5/cyfitter_cfg.c **** 	while(0u != (CY_GET_REG8((void CYXDATA *)CYREG_PHUB_CH2_BASIC_STATUS) & 0x01u)){}
 827              		.loc 1 722 0 is_stmt 1
 828 00d8 00BF     		nop
 829              	.L12:
 830              		.loc 1 722 0 is_stmt 0 discriminator 1
 831 00da 254B     		ldr	r3, .L15+84
 832 00dc 1B78     		ldrb	r3, [r3]
 833 00de DBB2     		uxtb	r3, r3
 834 00e0 03F00103 		and	r3, r3, #1
 835 00e4 002B     		cmp	r3, #0
 836 00e6 F8D1     		bne	.L12
 723:Generated_Source\PSoC5/cyfitter_cfg.c **** 	while(0u != (CY_GET_REG8((void CYXDATA *)CYREG_PHUB_CH5_BASIC_STATUS) & 0x01u)){}
 837              		.loc 1 723 0 is_stmt 1
 838 00e8 00BF     		nop
 839              	.L13:
 840              		.loc 1 723 0 is_stmt 0 discriminator 1
 841 00ea 224B     		ldr	r3, .L15+88
 842 00ec 1B78     		ldrb	r3, [r3]
 843 00ee DBB2     		uxtb	r3, r3
 844 00f0 03F00103 		and	r3, r3, #1
 845 00f4 002B     		cmp	r3, #0
 846 00f6 F8D1     		bne	.L13
 724:Generated_Source\PSoC5/cyfitter_cfg.c **** 	while(0u != (CY_GET_REG8((void CYXDATA *)CYREG_PHUB_CH6_BASIC_STATUS) & 0x01u)){}
 847              		.loc 1 724 0 is_stmt 1
 848 00f8 00BF     		nop
 849              	.L14:
 850              		.loc 1 724 0 is_stmt 0 discriminator 1
 851 00fa 1F4B     		ldr	r3, .L15+92
 852 00fc 1B78     		ldrb	r3, [r3]
 853 00fe DBB2     		uxtb	r3, r3
 854 0100 03F00103 		and	r3, r3, #1
 855 0104 002B     		cmp	r3, #0
 856 0106 F8D1     		bne	.L14
 725:Generated_Source\PSoC5/cyfitter_cfg.c **** 
 726:Generated_Source\PSoC5/cyfitter_cfg.c **** 
 727:Generated_Source\PSoC5/cyfitter_cfg.c **** 	CYCONFIGCPY((void CYFAR *)(CYREG_IDMUX_DRQ_CTL0), (const void CYFAR *)(BS_IDMUX_VAL), 6u);
 857              		.loc 1 727 0 is_stmt 1
 858 0108 0622     		movs	r2, #6
 859 010a 4FF09041 		mov	r1, #1207959552
 860 010e 1B48     		ldr	r0, .L15+96
 861 0110 FFF7FEFF 		bl	CYCONFIGCPY
 728:Generated_Source\PSoC5/cyfitter_cfg.c **** 
 729:Generated_Source\PSoC5/cyfitter_cfg.c **** }
 862              		.loc 1 729 0
 863 0114 00BF     		nop
 864 0116 0837     		adds	r7, r7, #8
 865              		.cfi_def_cfa_offset 8
ARM GAS  C:\Users\JEFFSN~1\AppData\Local\Temp\ccuEuQhg.s 			page 29


 866 0118 BD46     		mov	sp, r7
 867              		.cfi_def_cfa_register 13
 868              		@ sp needed
 869 011a 80BD     		pop	{r7, pc}
 870              	.L16:
 871              		.align	2
 872              	.L15:
 873 011c 10000000 		.word	DMA_ZERO_VAL.5005
 874 0120 00760040 		.word	1073772032
 875 0124 10700040 		.word	1073770512
 876 0128 19700040 		.word	1073770521
 877 012c 00780040 		.word	1073772544
 878 0130 02780040 		.word	1073772546
 879 0134 03780040 		.word	1073772547
 880 0138 04780040 		.word	1073772548
 881 013c 28000000 		.word	CFG_TD_LIST0.5006
 882 0140 06780040 		.word	1073772550
 883 0144 04760040 		.word	1073772036
 884 0148 06760040 		.word	1073772038
 885 014c 29700040 		.word	1073770537
 886 0150 39700040 		.word	1073770553
 887 0154 69700040 		.word	1073770601
 888 0158 79700040 		.word	1073770617
 889 015c 14700040 		.word	1073770516
 890 0160 0C780040 		.word	1073772556
 891 0164 C0000000 		.word	CFG_TD_ADDR0.5007
 892 0168 18700040 		.word	1073770520
 893 016c 28700040 		.word	1073770536
 894 0170 38700040 		.word	1073770552
 895 0174 68700040 		.word	1073770600
 896 0178 78700040 		.word	1073770616
 897 017c 10510140 		.word	1073828112
 898              		.cfi_endproc
 899              	.LFE4:
 900              		.size	cfg_dma_init, .-cfg_dma_init
 901              		.section	.text.ClockSetup,"ax",%progbits
 902              		.align	2
 903              		.thumb
 904              		.thumb_func
 905              		.type	ClockSetup, %function
 906              	ClockSetup:
 907              	.LFB5:
 730:Generated_Source\PSoC5/cyfitter_cfg.c **** /*******************************************************************************
 731:Generated_Source\PSoC5/cyfitter_cfg.c **** * Function Name: ClockSetup
 732:Generated_Source\PSoC5/cyfitter_cfg.c **** ********************************************************************************
 733:Generated_Source\PSoC5/cyfitter_cfg.c **** *
 734:Generated_Source\PSoC5/cyfitter_cfg.c **** * Summary:
 735:Generated_Source\PSoC5/cyfitter_cfg.c **** *  Performs the initialization of all of the clocks in the device based on the
 736:Generated_Source\PSoC5/cyfitter_cfg.c **** *  settings in the Clock tab of the DWR.  This includes enabling the requested
 737:Generated_Source\PSoC5/cyfitter_cfg.c **** *  clocks and setting the necessary dividers to produce the desired frequency. 
 738:Generated_Source\PSoC5/cyfitter_cfg.c **** *
 739:Generated_Source\PSoC5/cyfitter_cfg.c **** * Parameters:
 740:Generated_Source\PSoC5/cyfitter_cfg.c **** *  void
 741:Generated_Source\PSoC5/cyfitter_cfg.c **** *
 742:Generated_Source\PSoC5/cyfitter_cfg.c **** * Return:
 743:Generated_Source\PSoC5/cyfitter_cfg.c **** *  void
 744:Generated_Source\PSoC5/cyfitter_cfg.c **** *
ARM GAS  C:\Users\JEFFSN~1\AppData\Local\Temp\ccuEuQhg.s 			page 30


 745:Generated_Source\PSoC5/cyfitter_cfg.c **** *******************************************************************************/
 746:Generated_Source\PSoC5/cyfitter_cfg.c **** static void ClockSetup(void);
 747:Generated_Source\PSoC5/cyfitter_cfg.c **** static void ClockSetup(void)
 748:Generated_Source\PSoC5/cyfitter_cfg.c **** {
 908              		.loc 1 748 0
 909              		.cfi_startproc
 910              		@ args = 0, pretend = 0, frame = 8
 911              		@ frame_needed = 1, uses_anonymous_args = 0
 912 0000 80B5     		push	{r7, lr}
 913              		.cfi_def_cfa_offset 8
 914              		.cfi_offset 7, -8
 915              		.cfi_offset 14, -4
 916 0002 82B0     		sub	sp, sp, #8
 917              		.cfi_def_cfa_offset 16
 918 0004 00AF     		add	r7, sp, #0
 919              		.cfi_def_cfa_register 7
 749:Generated_Source\PSoC5/cyfitter_cfg.c **** 	uint32 timeout;
 750:Generated_Source\PSoC5/cyfitter_cfg.c **** 	uint8 pllLock;
 751:Generated_Source\PSoC5/cyfitter_cfg.c **** 
 752:Generated_Source\PSoC5/cyfitter_cfg.c **** 
 753:Generated_Source\PSoC5/cyfitter_cfg.c **** 	/* Configure Digital Clocks based on settings from Clock DWR */
 754:Generated_Source\PSoC5/cyfitter_cfg.c **** 	CY_SET_XTND_REG16((void CYFAR *)(CYREG_CLKDIST_DCFG0_CFG0), 0x0000u);
 920              		.loc 1 754 0
 921 0006 484B     		ldr	r3, .L22
 922 0008 0022     		movs	r2, #0
 923 000a 1A80     		strh	r2, [r3]	@ movhi
 755:Generated_Source\PSoC5/cyfitter_cfg.c **** 	CY_SET_XTND_REG8((void CYFAR *)(CYREG_CLKDIST_DCFG0_CFG0 + 0x2u), 0x50u);
 924              		.loc 1 755 0
 925 000c 474B     		ldr	r3, .L22+4
 926 000e 5022     		movs	r2, #80
 927 0010 1A70     		strb	r2, [r3]
 756:Generated_Source\PSoC5/cyfitter_cfg.c **** 	CY_SET_XTND_REG16((void CYFAR *)(CYREG_CLKDIST_DCFG1_CFG0), 0x0000u);
 928              		.loc 1 756 0
 929 0012 474B     		ldr	r3, .L22+8
 930 0014 0022     		movs	r2, #0
 931 0016 1A80     		strh	r2, [r3]	@ movhi
 757:Generated_Source\PSoC5/cyfitter_cfg.c **** 	CY_SET_XTND_REG8((void CYFAR *)(CYREG_CLKDIST_DCFG1_CFG0 + 0x2u), 0x19u);
 932              		.loc 1 757 0
 933 0018 464B     		ldr	r3, .L22+12
 934 001a 1922     		movs	r2, #25
 935 001c 1A70     		strb	r2, [r3]
 758:Generated_Source\PSoC5/cyfitter_cfg.c **** 	CY_SET_XTND_REG16((void CYFAR *)(CYREG_CLKDIST_DCFG2_CFG0), 0x0006u);
 936              		.loc 1 758 0
 937 001e 464B     		ldr	r3, .L22+16
 938 0020 0622     		movs	r2, #6
 939 0022 1A80     		strh	r2, [r3]	@ movhi
 759:Generated_Source\PSoC5/cyfitter_cfg.c **** 	CY_SET_XTND_REG8((void CYFAR *)(CYREG_CLKDIST_DCFG2_CFG0 + 0x2u), 0x1Cu);
 940              		.loc 1 759 0
 941 0024 454B     		ldr	r3, .L22+20
 942 0026 1C22     		movs	r2, #28
 943 0028 1A70     		strb	r2, [r3]
 760:Generated_Source\PSoC5/cyfitter_cfg.c **** 	CY_SET_XTND_REG16((void CYFAR *)(CYREG_CLKDIST_DCFG3_CFG0), 0x0006u);
 944              		.loc 1 760 0
 945 002a 454B     		ldr	r3, .L22+24
 946 002c 0622     		movs	r2, #6
 947 002e 1A80     		strh	r2, [r3]	@ movhi
 761:Generated_Source\PSoC5/cyfitter_cfg.c **** 	CY_SET_XTND_REG8((void CYFAR *)(CYREG_CLKDIST_DCFG3_CFG0 + 0x2u), 0x1Cu);
ARM GAS  C:\Users\JEFFSN~1\AppData\Local\Temp\ccuEuQhg.s 			page 31


 948              		.loc 1 761 0
 949 0030 444B     		ldr	r3, .L22+28
 950 0032 1C22     		movs	r2, #28
 951 0034 1A70     		strb	r2, [r3]
 762:Generated_Source\PSoC5/cyfitter_cfg.c **** 	CY_SET_XTND_REG16((void CYFAR *)(CYREG_CLKDIST_DCFG4_CFG0), 0x0041u);
 952              		.loc 1 762 0
 953 0036 444B     		ldr	r3, .L22+32
 954 0038 4122     		movs	r2, #65
 955 003a 1A80     		strh	r2, [r3]	@ movhi
 763:Generated_Source\PSoC5/cyfitter_cfg.c **** 	CY_SET_XTND_REG8((void CYFAR *)(CYREG_CLKDIST_DCFG4_CFG0 + 0x2u), 0x18u);
 956              		.loc 1 763 0
 957 003c 434B     		ldr	r3, .L22+36
 958 003e 1822     		movs	r2, #24
 959 0040 1A70     		strb	r2, [r3]
 764:Generated_Source\PSoC5/cyfitter_cfg.c **** 
 765:Generated_Source\PSoC5/cyfitter_cfg.c **** 	/* Configure Analog Clocks based on settings from Clock DWR */
 766:Generated_Source\PSoC5/cyfitter_cfg.c **** 	CYCONFIGCPY((void CYFAR *)(CYREG_CLKDIST_ACFG0_CFG0), (const void CYFAR *)(BS_CYDEV_CLKDIST_ACFG0_
 960              		.loc 1 766 0
 961 0042 0422     		movs	r2, #4
 962 0044 4249     		ldr	r1, .L22+40
 963 0046 4348     		ldr	r0, .L22+44
 964 0048 FFF7FEFF 		bl	CYCONFIGCPY
 767:Generated_Source\PSoC5/cyfitter_cfg.c **** 
 768:Generated_Source\PSoC5/cyfitter_cfg.c **** 	/* Configure ILO based on settings from Clock DWR */
 769:Generated_Source\PSoC5/cyfitter_cfg.c **** 	CY_SET_XTND_REG8((void CYFAR *)(CYREG_SLOWCLK_ILO_CR0), 0x06u);
 965              		.loc 1 769 0
 966 004c 424B     		ldr	r3, .L22+48
 967 004e 0622     		movs	r2, #6
 968 0050 1A70     		strb	r2, [r3]
 770:Generated_Source\PSoC5/cyfitter_cfg.c **** 
 771:Generated_Source\PSoC5/cyfitter_cfg.c **** 	/* Configure IMO based on settings from Clock DWR */
 772:Generated_Source\PSoC5/cyfitter_cfg.c **** 	CY_SET_XTND_REG8((void CYFAR *)(CYREG_IMO_TR1), (CY_GET_XTND_REG8((void CYFAR *)CYREG_FLSHID_CUST_
 969              		.loc 1 772 0
 970 0052 424B     		ldr	r3, .L22+52
 971 0054 424A     		ldr	r2, .L22+56
 972 0056 1278     		ldrb	r2, [r2]
 973 0058 D2B2     		uxtb	r2, r2
 974 005a 1A70     		strb	r2, [r3]
 773:Generated_Source\PSoC5/cyfitter_cfg.c **** 	CY_SET_XTND_REG8((void CYFAR *)(CYREG_FASTCLK_IMO_CR), 0x52u);
 975              		.loc 1 773 0
 976 005c 414B     		ldr	r3, .L22+60
 977 005e 5222     		movs	r2, #82
 978 0060 1A70     		strb	r2, [r3]
 774:Generated_Source\PSoC5/cyfitter_cfg.c **** 
 775:Generated_Source\PSoC5/cyfitter_cfg.c **** 	/* Configure PLL based on settings from Clock DWR */
 776:Generated_Source\PSoC5/cyfitter_cfg.c **** 	CY_SET_XTND_REG16((void CYFAR *)(CYREG_FASTCLK_PLL_P), 0x0B21u);
 979              		.loc 1 776 0
 980 0062 414B     		ldr	r3, .L22+64
 981 0064 40F62132 		movw	r2, #2849
 982 0068 1A80     		strh	r2, [r3]	@ movhi
 777:Generated_Source\PSoC5/cyfitter_cfg.c **** 	CY_SET_XTND_REG16((void CYFAR *)(CYREG_FASTCLK_PLL_CFG0), 0x1251u);
 983              		.loc 1 777 0
 984 006a 404B     		ldr	r3, .L22+68
 985 006c 41F25122 		movw	r2, #4689
 986 0070 1A80     		strh	r2, [r3]	@ movhi
 778:Generated_Source\PSoC5/cyfitter_cfg.c **** 	/* Wait up to 250us for the PLL to lock */
 779:Generated_Source\PSoC5/cyfitter_cfg.c **** 	pllLock = 0u;
ARM GAS  C:\Users\JEFFSN~1\AppData\Local\Temp\ccuEuQhg.s 			page 32


 987              		.loc 1 779 0
 988 0072 0023     		movs	r3, #0
 989 0074 FB70     		strb	r3, [r7, #3]
 780:Generated_Source\PSoC5/cyfitter_cfg.c **** 	for (timeout = 250u / 10u; (timeout > 0u) && (pllLock != 0x03u); timeout--)
 990              		.loc 1 780 0
 991 0076 1923     		movs	r3, #25
 992 0078 7B60     		str	r3, [r7, #4]
 993 007a 13E0     		b	.L18
 994              	.L20:
 781:Generated_Source\PSoC5/cyfitter_cfg.c **** 	{ 
 782:Generated_Source\PSoC5/cyfitter_cfg.c **** 		pllLock = 0x03u & ((uint8)((uint8)pllLock << 1) | ((CY_GET_XTND_REG8((void CYFAR *)CYREG_FASTCLK_
 995              		.loc 1 782 0 discriminator 4
 996 007c FB78     		ldrb	r3, [r7, #3]
 997 007e 5B00     		lsls	r3, r3, #1
 998 0080 DAB2     		uxtb	r2, r3
 999 0082 3B4B     		ldr	r3, .L22+72
 1000 0084 1B78     		ldrb	r3, [r3]
 1001 0086 DBB2     		uxtb	r3, r3
 1002 0088 03F00103 		and	r3, r3, #1
 1003 008c DBB2     		uxtb	r3, r3
 1004 008e 1343     		orrs	r3, r3, r2
 1005 0090 DBB2     		uxtb	r3, r3
 1006 0092 03F00303 		and	r3, r3, #3
 1007 0096 FB70     		strb	r3, [r7, #3]
 783:Generated_Source\PSoC5/cyfitter_cfg.c **** 		CyDelayCycles(10u * 12u); /* Delay 10us based on 12MHz clock */
 1008              		.loc 1 783 0 discriminator 4
 1009 0098 7820     		movs	r0, #120
 1010 009a FFF7FEFF 		bl	CyDelayCycles
 780:Generated_Source\PSoC5/cyfitter_cfg.c **** 	for (timeout = 250u / 10u; (timeout > 0u) && (pllLock != 0x03u); timeout--)
 1011              		.loc 1 780 0 discriminator 4
 1012 009e 7B68     		ldr	r3, [r7, #4]
 1013 00a0 013B     		subs	r3, r3, #1
 1014 00a2 7B60     		str	r3, [r7, #4]
 1015              	.L18:
 780:Generated_Source\PSoC5/cyfitter_cfg.c **** 	for (timeout = 250u / 10u; (timeout > 0u) && (pllLock != 0x03u); timeout--)
 1016              		.loc 1 780 0 is_stmt 0 discriminator 1
 1017 00a4 7B68     		ldr	r3, [r7, #4]
 1018 00a6 002B     		cmp	r3, #0
 1019 00a8 02D0     		beq	.L19
 780:Generated_Source\PSoC5/cyfitter_cfg.c **** 	for (timeout = 250u / 10u; (timeout > 0u) && (pllLock != 0x03u); timeout--)
 1020              		.loc 1 780 0 discriminator 3
 1021 00aa FB78     		ldrb	r3, [r7, #3]	@ zero_extendqisi2
 1022 00ac 032B     		cmp	r3, #3
 1023 00ae E5D1     		bne	.L20
 1024              	.L19:
 784:Generated_Source\PSoC5/cyfitter_cfg.c **** 	}
 785:Generated_Source\PSoC5/cyfitter_cfg.c **** 	/* If we ran out of time the PLL didn't lock so go to the error function */
 786:Generated_Source\PSoC5/cyfitter_cfg.c **** 	if (timeout == 0u)
 1025              		.loc 1 786 0 is_stmt 1
 1026 00b0 7B68     		ldr	r3, [r7, #4]
 1027 00b2 002B     		cmp	r3, #0
 1028 00b4 02D1     		bne	.L21
 787:Generated_Source\PSoC5/cyfitter_cfg.c **** 	{
 788:Generated_Source\PSoC5/cyfitter_cfg.c **** 		CyClockStartupError(CYCLOCKSTART_PLL_ERROR);
 1029              		.loc 1 788 0
 1030 00b6 0320     		movs	r0, #3
 1031 00b8 FFF7FEFF 		bl	CyClockStartupError
ARM GAS  C:\Users\JEFFSN~1\AppData\Local\Temp\ccuEuQhg.s 			page 33


 1032              	.L21:
 789:Generated_Source\PSoC5/cyfitter_cfg.c **** 	}
 790:Generated_Source\PSoC5/cyfitter_cfg.c **** 
 791:Generated_Source\PSoC5/cyfitter_cfg.c **** 	/* Configure Bus/Master Clock based on settings from Clock DWR */
 792:Generated_Source\PSoC5/cyfitter_cfg.c **** 	CY_SET_XTND_REG16((void CYFAR *)(CYREG_CLKDIST_MSTR0), 0x0100u);
 1033              		.loc 1 792 0
 1034 00bc 2D4B     		ldr	r3, .L22+76
 1035 00be 4FF48072 		mov	r2, #256
 1036 00c2 1A80     		strh	r2, [r3]	@ movhi
 793:Generated_Source\PSoC5/cyfitter_cfg.c **** 	CY_SET_XTND_REG8((void CYFAR *)(CYREG_CLKDIST_MSTR0), 0x07u);
 1037              		.loc 1 793 0
 1038 00c4 2B4B     		ldr	r3, .L22+76
 1039 00c6 0722     		movs	r2, #7
 1040 00c8 1A70     		strb	r2, [r3]
 794:Generated_Source\PSoC5/cyfitter_cfg.c **** 	CY_SET_XTND_REG8((void CYFAR *)(CYREG_CLKDIST_BCFG0), 0x00u);
 1041              		.loc 1 794 0
 1042 00ca 2B4B     		ldr	r3, .L22+80
 1043 00cc 0022     		movs	r2, #0
 1044 00ce 1A70     		strb	r2, [r3]
 795:Generated_Source\PSoC5/cyfitter_cfg.c **** 	CY_SET_XTND_REG8((void CYFAR *)(CYREG_CLKDIST_BCFG2), 0x48u);
 1045              		.loc 1 795 0
 1046 00d0 2A4B     		ldr	r3, .L22+84
 1047 00d2 4822     		movs	r2, #72
 1048 00d4 1A70     		strb	r2, [r3]
 796:Generated_Source\PSoC5/cyfitter_cfg.c **** 	CY_SET_XTND_REG8((void CYFAR *)(CYREG_CLKDIST_MSTR0), 0x00u);
 1049              		.loc 1 796 0
 1050 00d6 274B     		ldr	r3, .L22+76
 1051 00d8 0022     		movs	r2, #0
 1052 00da 1A70     		strb	r2, [r3]
 797:Generated_Source\PSoC5/cyfitter_cfg.c **** 
 798:Generated_Source\PSoC5/cyfitter_cfg.c **** 	/* Configure USB Clock based on settings from Clock DWR */
 799:Generated_Source\PSoC5/cyfitter_cfg.c **** 	CY_SET_XTND_REG8((void CYFAR *)(CYREG_CLKDIST_UCFG), 0x00u);
 1053              		.loc 1 799 0
 1054 00dc 284B     		ldr	r3, .L22+88
 1055 00de 0022     		movs	r2, #0
 1056 00e0 1A70     		strb	r2, [r3]
 800:Generated_Source\PSoC5/cyfitter_cfg.c **** 	CY_SET_XTND_REG8((void CYFAR *)(CYREG_CLKDIST_LD), 0x02u);
 1057              		.loc 1 800 0
 1058 00e2 284B     		ldr	r3, .L22+92
 1059 00e4 0222     		movs	r2, #2
 1060 00e6 1A70     		strb	r2, [r3]
 801:Generated_Source\PSoC5/cyfitter_cfg.c **** 	CY_SET_XTND_REG8((void CYFAR *)(CYREG_CLKDIST_DLY1), 0x04u);
 1061              		.loc 1 801 0
 1062 00e8 274B     		ldr	r3, .L22+96
 1063 00ea 0422     		movs	r2, #4
 1064 00ec 1A70     		strb	r2, [r3]
 802:Generated_Source\PSoC5/cyfitter_cfg.c **** 
 803:Generated_Source\PSoC5/cyfitter_cfg.c **** 	CY_SET_XTND_REG8((void CYFAR *)(CYREG_PM_ACT_CFG2), ((CY_GET_XTND_REG8((void CYFAR *)CYREG_PM_ACT_
 1065              		.loc 1 803 0
 1066 00ee 274A     		ldr	r2, .L22+100
 1067 00f0 264B     		ldr	r3, .L22+100
 1068 00f2 1B78     		ldrb	r3, [r3]
 1069 00f4 DBB2     		uxtb	r3, r3
 1070 00f6 43F01F03 		orr	r3, r3, #31
 1071 00fa DBB2     		uxtb	r3, r3
 1072 00fc 1370     		strb	r3, [r2]
 804:Generated_Source\PSoC5/cyfitter_cfg.c **** 	CY_SET_XTND_REG8((void CYFAR *)(CYREG_PM_ACT_CFG1), ((CY_GET_XTND_REG8((void CYFAR *)CYREG_PM_ACT_
ARM GAS  C:\Users\JEFFSN~1\AppData\Local\Temp\ccuEuQhg.s 			page 34


 1073              		.loc 1 804 0
 1074 00fe 244A     		ldr	r2, .L22+104
 1075 0100 234B     		ldr	r3, .L22+104
 1076 0102 1B78     		ldrb	r3, [r3]
 1077 0104 DBB2     		uxtb	r3, r3
 1078 0106 43F00103 		orr	r3, r3, #1
 1079 010a DBB2     		uxtb	r3, r3
 1080 010c 1370     		strb	r3, [r2]
 805:Generated_Source\PSoC5/cyfitter_cfg.c **** 	CY_SET_XTND_REG8((void CYFAR *)(CYREG_PM_ACT_CFG0), ((CY_GET_XTND_REG8((void CYFAR *)CYREG_PM_ACT_
 1081              		.loc 1 805 0
 1082 010e 214A     		ldr	r2, .L22+108
 1083 0110 204B     		ldr	r3, .L22+108
 1084 0112 1B78     		ldrb	r3, [r3]
 1085 0114 DBB2     		uxtb	r3, r3
 1086 0116 63F07F03 		orn	r3, r3, #127
 1087 011a DBB2     		uxtb	r3, r3
 1088 011c 1370     		strb	r3, [r2]
 806:Generated_Source\PSoC5/cyfitter_cfg.c **** }
 1089              		.loc 1 806 0
 1090 011e 00BF     		nop
 1091 0120 0837     		adds	r7, r7, #8
 1092              		.cfi_def_cfa_offset 8
 1093 0122 BD46     		mov	sp, r7
 1094              		.cfi_def_cfa_register 13
 1095              		@ sp needed
 1096 0124 80BD     		pop	{r7, pc}
 1097              	.L23:
 1098 0126 00BF     		.align	2
 1099              	.L22:
 1100 0128 80400040 		.word	1073758336
 1101 012c 82400040 		.word	1073758338
 1102 0130 84400040 		.word	1073758340
 1103 0134 86400040 		.word	1073758342
 1104 0138 88400040 		.word	1073758344
 1105 013c 8A400040 		.word	1073758346
 1106 0140 8C400040 		.word	1073758348
 1107 0144 8E400040 		.word	1073758350
 1108 0148 90400040 		.word	1073758352
 1109 014c 92400040 		.word	1073758354
 1110 0150 28210048 		.word	1207968040
 1111 0154 00410040 		.word	1073758464
 1112 0158 00430040 		.word	1073758976
 1113 015c A1460040 		.word	1073759905
 1114 0160 0F010049 		.word	1224737039
 1115 0164 00420040 		.word	1073758720
 1116 0168 22420040 		.word	1073758754
 1117 016c 20420040 		.word	1073758752
 1118 0170 25420040 		.word	1073758757
 1119 0174 04400040 		.word	1073758212
 1120 0178 06400040 		.word	1073758214
 1121 017c 08400040 		.word	1073758216
 1122 0180 09400040 		.word	1073758217
 1123 0184 01400040 		.word	1073758209
 1124 0188 0B400040 		.word	1073758219
 1125 018c A2430040 		.word	1073759138
 1126 0190 A1430040 		.word	1073759137
 1127 0194 A0430040 		.word	1073759136
ARM GAS  C:\Users\JEFFSN~1\AppData\Local\Temp\ccuEuQhg.s 			page 35


 1128              		.cfi_endproc
 1129              	.LFE5:
 1130              		.size	ClockSetup, .-ClockSetup
 1131              		.section	.text.AnalogSetDefault,"ax",%progbits
 1132              		.align	2
 1133              		.thumb
 1134              		.thumb_func
 1135              		.type	AnalogSetDefault, %function
 1136              	AnalogSetDefault:
 1137              	.LFB6:
 807:Generated_Source\PSoC5/cyfitter_cfg.c **** 
 808:Generated_Source\PSoC5/cyfitter_cfg.c **** 
 809:Generated_Source\PSoC5/cyfitter_cfg.c **** /* Analog API Functions */
 810:Generated_Source\PSoC5/cyfitter_cfg.c **** 
 811:Generated_Source\PSoC5/cyfitter_cfg.c **** 
 812:Generated_Source\PSoC5/cyfitter_cfg.c **** /*******************************************************************************
 813:Generated_Source\PSoC5/cyfitter_cfg.c **** * Function Name: AnalogSetDefault
 814:Generated_Source\PSoC5/cyfitter_cfg.c **** ********************************************************************************
 815:Generated_Source\PSoC5/cyfitter_cfg.c **** *
 816:Generated_Source\PSoC5/cyfitter_cfg.c **** * Summary:
 817:Generated_Source\PSoC5/cyfitter_cfg.c **** *  Sets up the analog portions of the chip to default values based on chip
 818:Generated_Source\PSoC5/cyfitter_cfg.c **** *  configuration options from the project.
 819:Generated_Source\PSoC5/cyfitter_cfg.c **** *
 820:Generated_Source\PSoC5/cyfitter_cfg.c **** * Parameters:
 821:Generated_Source\PSoC5/cyfitter_cfg.c **** *  void
 822:Generated_Source\PSoC5/cyfitter_cfg.c **** *
 823:Generated_Source\PSoC5/cyfitter_cfg.c **** * Return:
 824:Generated_Source\PSoC5/cyfitter_cfg.c **** *  void
 825:Generated_Source\PSoC5/cyfitter_cfg.c **** *
 826:Generated_Source\PSoC5/cyfitter_cfg.c **** *******************************************************************************/
 827:Generated_Source\PSoC5/cyfitter_cfg.c **** static void AnalogSetDefault(void);
 828:Generated_Source\PSoC5/cyfitter_cfg.c **** static void AnalogSetDefault(void)
 829:Generated_Source\PSoC5/cyfitter_cfg.c **** {
 1138              		.loc 1 829 0
 1139              		.cfi_startproc
 1140              		@ args = 0, pretend = 0, frame = 8
 1141              		@ frame_needed = 1, uses_anonymous_args = 0
 1142 0000 80B5     		push	{r7, lr}
 1143              		.cfi_def_cfa_offset 8
 1144              		.cfi_offset 7, -8
 1145              		.cfi_offset 14, -4
 1146 0002 82B0     		sub	sp, sp, #8
 1147              		.cfi_def_cfa_offset 16
 1148 0004 00AF     		add	r7, sp, #0
 1149              		.cfi_def_cfa_register 7
 830:Generated_Source\PSoC5/cyfitter_cfg.c **** 	uint8 bg_xover_inl_trim = CY_GET_XTND_REG8((void CYFAR *)(CYREG_FLSHID_MFG_CFG_BG_XOVER_INL_TRIM +
 1150              		.loc 1 830 0
 1151 0006 354B     		ldr	r3, .L25
 1152 0008 1B78     		ldrb	r3, [r3]
 1153 000a FB71     		strb	r3, [r7, #7]
 831:Generated_Source\PSoC5/cyfitter_cfg.c **** 	uint8 cr4 = CY_GET_XTND_REG8((void CYFAR *)(CYREG_RESET_CR4));
 1154              		.loc 1 831 0
 1155 000c 344B     		ldr	r3, .L25+4
 1156 000e 1B78     		ldrb	r3, [r3]
 1157 0010 BB71     		strb	r3, [r7, #6]
 832:Generated_Source\PSoC5/cyfitter_cfg.c **** 	uint8 cr5 = CY_GET_XTND_REG8((void CYFAR *)(CYREG_RESET_CR5));
 1158              		.loc 1 832 0
ARM GAS  C:\Users\JEFFSN~1\AppData\Local\Temp\ccuEuQhg.s 			page 36


 1159 0012 344B     		ldr	r3, .L25+8
 1160 0014 1B78     		ldrb	r3, [r3]
 1161 0016 7B71     		strb	r3, [r7, #5]
 833:Generated_Source\PSoC5/cyfitter_cfg.c **** 	CY_SET_XTND_REG8((void CYFAR *)(CYREG_BG_DFT0), (bg_xover_inl_trim & 0x07u));
 1162              		.loc 1 833 0
 1163 0018 334A     		ldr	r2, .L25+12
 1164 001a FB79     		ldrb	r3, [r7, #7]
 1165 001c 03F00703 		and	r3, r3, #7
 1166 0020 DBB2     		uxtb	r3, r3
 1167 0022 1370     		strb	r3, [r2]
 834:Generated_Source\PSoC5/cyfitter_cfg.c **** 	CY_SET_XTND_REG8((void CYFAR *)(CYREG_BG_DFT1), ((bg_xover_inl_trim >> 4) & 0x0Fu));
 1168              		.loc 1 834 0
 1169 0024 314A     		ldr	r2, .L25+16
 1170 0026 FB79     		ldrb	r3, [r7, #7]	@ zero_extendqisi2
 1171 0028 1B09     		lsrs	r3, r3, #4
 1172 002a DBB2     		uxtb	r3, r3
 1173 002c 1370     		strb	r3, [r2]
 835:Generated_Source\PSoC5/cyfitter_cfg.c **** 	/* Disable PRES while setting up SAR voltage reference */
 836:Generated_Source\PSoC5/cyfitter_cfg.c **** 	CY_SET_XTND_REG8((void CYFAR *)(CYREG_RESET_CR4), (cr4 | 0x03u));
 1174              		.loc 1 836 0
 1175 002e 2C4A     		ldr	r2, .L25+4
 1176 0030 BB79     		ldrb	r3, [r7, #6]
 1177 0032 43F00303 		orr	r3, r3, #3
 1178 0036 DBB2     		uxtb	r3, r3
 1179 0038 1370     		strb	r3, [r2]
 837:Generated_Source\PSoC5/cyfitter_cfg.c **** 	CY_SET_XTND_REG8((void CYFAR *)(CYREG_RESET_CR5), (cr5 | 0x03u));
 1180              		.loc 1 837 0
 1181 003a 2A4A     		ldr	r2, .L25+8
 1182 003c 7B79     		ldrb	r3, [r7, #5]
 1183 003e 43F00303 		orr	r3, r3, #3
 1184 0042 DBB2     		uxtb	r3, r3
 1185 0044 1370     		strb	r3, [r2]
 838:Generated_Source\PSoC5/cyfitter_cfg.c **** 	CY_SET_XTND_REG8((void CYFAR *)CYREG_PRT0_AG, 0x29u);
 1186              		.loc 1 838 0
 1187 0046 2A4B     		ldr	r3, .L25+20
 1188 0048 2922     		movs	r2, #41
 1189 004a 1A70     		strb	r2, [r3]
 839:Generated_Source\PSoC5/cyfitter_cfg.c **** 	CY_SET_XTND_REG8((void CYFAR *)CYREG_PRT3_AG, 0x02u);
 1190              		.loc 1 839 0
 1191 004c 294B     		ldr	r3, .L25+24
 1192 004e 0222     		movs	r2, #2
 1193 0050 1A70     		strb	r2, [r3]
 840:Generated_Source\PSoC5/cyfitter_cfg.c **** 	CY_SET_XTND_REG8((void CYFAR *)CYREG_PRT4_AG, 0x24u);
 1194              		.loc 1 840 0
 1195 0052 294B     		ldr	r3, .L25+28
 1196 0054 2422     		movs	r2, #36
 1197 0056 1A70     		strb	r2, [r3]
 841:Generated_Source\PSoC5/cyfitter_cfg.c **** 	CY_SET_XTND_REG8((void CYFAR *)CYREG_PRT15_AG, 0x10u);
 1198              		.loc 1 841 0
 1199 0058 284B     		ldr	r3, .L25+32
 1200 005a 1022     		movs	r2, #16
 1201 005c 1A70     		strb	r2, [r3]
 842:Generated_Source\PSoC5/cyfitter_cfg.c **** 	CY_SET_XTND_REG8((void CYFAR *)CYREG_CAPSL_CFG0, 0x00u);
 1202              		.loc 1 842 0
 1203 005e 284B     		ldr	r3, .L25+36
 1204 0060 0022     		movs	r2, #0
 1205 0062 1A70     		strb	r2, [r3]
ARM GAS  C:\Users\JEFFSN~1\AppData\Local\Temp\ccuEuQhg.s 			page 37


 843:Generated_Source\PSoC5/cyfitter_cfg.c **** 	CY_SET_XTND_REG8((void CYFAR *)CYREG_SAR1_CSR1, 0x80u);
 1206              		.loc 1 843 0
 1207 0064 274B     		ldr	r3, .L25+40
 1208 0066 8022     		movs	r2, #128
 1209 0068 1A70     		strb	r2, [r3]
 844:Generated_Source\PSoC5/cyfitter_cfg.c **** 	CY_SET_XTND_REG8((void CYFAR *)CYREG_SC1_SW0, 0x42u);
 1210              		.loc 1 844 0
 1211 006a 274B     		ldr	r3, .L25+44
 1212 006c 4222     		movs	r2, #66
 1213 006e 1A70     		strb	r2, [r3]
 845:Generated_Source\PSoC5/cyfitter_cfg.c **** 	CY_SET_XTND_REG8((void CYFAR *)CYREG_DAC2_SW0, 0x20u);
 1214              		.loc 1 845 0
 1215 0070 264B     		ldr	r3, .L25+48
 1216 0072 2022     		movs	r2, #32
 1217 0074 1A70     		strb	r2, [r3]
 846:Generated_Source\PSoC5/cyfitter_cfg.c **** 	CY_SET_XTND_REG8((void CYFAR *)CYREG_DAC2_SW2, 0x01u);
 1218              		.loc 1 846 0
 1219 0076 264B     		ldr	r3, .L25+52
 1220 0078 0122     		movs	r2, #1
 1221 007a 1A70     		strb	r2, [r3]
 847:Generated_Source\PSoC5/cyfitter_cfg.c **** 	CY_SET_XTND_REG8((void CYFAR *)CYREG_CMP0_SW3, 0x40u);
 1222              		.loc 1 847 0
 1223 007c 254B     		ldr	r3, .L25+56
 1224 007e 4022     		movs	r2, #64
 1225 0080 1A70     		strb	r2, [r3]
 848:Generated_Source\PSoC5/cyfitter_cfg.c **** 	CY_SET_XTND_REG8((void CYFAR *)CYREG_CMP0_SW4, 0x40u);
 1226              		.loc 1 848 0
 1227 0082 254B     		ldr	r3, .L25+60
 1228 0084 4022     		movs	r2, #64
 1229 0086 1A70     		strb	r2, [r3]
 849:Generated_Source\PSoC5/cyfitter_cfg.c **** 	CY_SET_XTND_REG8((void CYFAR *)CYREG_CMP2_SW3, 0x20u);
 1230              		.loc 1 849 0
 1231 0088 244B     		ldr	r3, .L25+64
 1232 008a 2022     		movs	r2, #32
 1233 008c 1A70     		strb	r2, [r3]
 850:Generated_Source\PSoC5/cyfitter_cfg.c **** 	CY_SET_XTND_REG8((void CYFAR *)CYREG_CMP3_SW3, 0x40u);
 1234              		.loc 1 850 0
 1235 008e 244B     		ldr	r3, .L25+68
 1236 0090 4022     		movs	r2, #64
 1237 0092 1A70     		strb	r2, [r3]
 851:Generated_Source\PSoC5/cyfitter_cfg.c **** 	CY_SET_XTND_REG8((void CYFAR *)CYREG_CMP3_SW4, 0x20u);
 1238              		.loc 1 851 0
 1239 0094 234B     		ldr	r3, .L25+72
 1240 0096 2022     		movs	r2, #32
 1241 0098 1A70     		strb	r2, [r3]
 852:Generated_Source\PSoC5/cyfitter_cfg.c **** 	CY_SET_XTND_REG16((void CYFAR *)CYREG_SAR1_SW2, 0x2001u);
 1242              		.loc 1 852 0
 1243 009a 234B     		ldr	r3, .L25+76
 1244 009c 42F20102 		movw	r2, #8193
 1245 00a0 1A80     		strh	r2, [r3]	@ movhi
 853:Generated_Source\PSoC5/cyfitter_cfg.c **** 	CY_SET_XTND_REG16((void CYFAR *)CYREG_OPAMP0_MX, 0x0404u);
 1246              		.loc 1 853 0
 1247 00a2 224B     		ldr	r3, .L25+80
 1248 00a4 40F20442 		movw	r2, #1028
 1249 00a8 1A80     		strh	r2, [r3]	@ movhi
 854:Generated_Source\PSoC5/cyfitter_cfg.c **** 	CY_SET_XTND_REG8((void CYFAR *)CYREG_OPAMP1_MX, 0x10u);
 1250              		.loc 1 854 0
ARM GAS  C:\Users\JEFFSN~1\AppData\Local\Temp\ccuEuQhg.s 			page 38


 1251 00aa 214B     		ldr	r3, .L25+84
 1252 00ac 1022     		movs	r2, #16
 1253 00ae 1A70     		strb	r2, [r3]
 855:Generated_Source\PSoC5/cyfitter_cfg.c **** 	CY_SET_XTND_REG8((void CYFAR *)CYREG_BUS_SW0, 0x02u);
 1254              		.loc 1 855 0
 1255 00b0 204B     		ldr	r3, .L25+88
 1256 00b2 0222     		movs	r2, #2
 1257 00b4 1A70     		strb	r2, [r3]
 856:Generated_Source\PSoC5/cyfitter_cfg.c **** 	CY_SET_XTND_REG8((void CYFAR *)CYREG_BUS_SW2, 0x01u);
 1258              		.loc 1 856 0
 1259 00b6 204B     		ldr	r3, .L25+92
 1260 00b8 0122     		movs	r2, #1
 1261 00ba 1A70     		strb	r2, [r3]
 857:Generated_Source\PSoC5/cyfitter_cfg.c **** 	CyDelayUs(10u); /* Allow vref to settle before re-enabling PRES */
 1262              		.loc 1 857 0
 1263 00bc 0A20     		movs	r0, #10
 1264 00be FFF7FEFF 		bl	CyDelayUs
 858:Generated_Source\PSoC5/cyfitter_cfg.c **** 	CY_SET_XTND_REG8((void CYFAR *)(CYREG_RESET_CR5), (cr5));
 1265              		.loc 1 858 0
 1266 00c2 084A     		ldr	r2, .L25+8
 1267 00c4 7B79     		ldrb	r3, [r7, #5]
 1268 00c6 1370     		strb	r3, [r2]
 859:Generated_Source\PSoC5/cyfitter_cfg.c **** 	CY_SET_XTND_REG8((void CYFAR *)(CYREG_RESET_CR4), (cr4));
 1269              		.loc 1 859 0
 1270 00c8 054A     		ldr	r2, .L25+4
 1271 00ca BB79     		ldrb	r3, [r7, #6]
 1272 00cc 1370     		strb	r3, [r2]
 860:Generated_Source\PSoC5/cyfitter_cfg.c **** 	CY_SET_XTND_REG8((void CYFAR *)CYREG_PUMP_CR0, 0x66u);
 1273              		.loc 1 860 0
 1274 00ce 1B4B     		ldr	r3, .L25+96
 1275 00d0 6622     		movs	r2, #102
 1276 00d2 1A70     		strb	r2, [r3]
 861:Generated_Source\PSoC5/cyfitter_cfg.c **** }
 1277              		.loc 1 861 0
 1278 00d4 00BF     		nop
 1279 00d6 0837     		adds	r7, r7, #8
 1280              		.cfi_def_cfa_offset 8
 1281 00d8 BD46     		mov	sp, r7
 1282              		.cfi_def_cfa_register 13
 1283              		@ sp needed
 1284 00da 80BD     		pop	{r7, pc}
 1285              	.L26:
 1286              		.align	2
 1287              	.L25:
 1288 00dc CF010049 		.word	1224737231
 1289 00e0 F8460040 		.word	1073759992
 1290 00e4 F9460040 		.word	1073759993
 1291 00e8 6E580040 		.word	1073764462
 1292 00ec 6F580040 		.word	1073764463
 1293 00f0 0D510040 		.word	1073762573
 1294 00f4 3D510040 		.word	1073762621
 1295 00f8 4D510040 		.word	1073762637
 1296 00fc FD510040 		.word	1073762813
 1297 0100 70580040 		.word	1073764464
 1298 0104 09590040 		.word	1073764617
 1299 0108 105A0040 		.word	1073764880
 1300 010c 905A0040 		.word	1073765008
ARM GAS  C:\Users\JEFFSN~1\AppData\Local\Temp\ccuEuQhg.s 			page 39


 1301 0110 925A0040 		.word	1073765010
 1302 0114 C35A0040 		.word	1073765059
 1303 0118 C45A0040 		.word	1073765060
 1304 011c D35A0040 		.word	1073765075
 1305 0120 DB5A0040 		.word	1073765083
 1306 0124 DC5A0040 		.word	1073765084
 1307 0128 2A5B0040 		.word	1073765162
 1308 012c 405B0040 		.word	1073765184
 1309 0130 425B0040 		.word	1073765186
 1310 0134 585B0040 		.word	1073765208
 1311 0138 5A5B0040 		.word	1073765210
 1312 013c 76580040 		.word	1073764470
 1313              		.cfi_endproc
 1314              	.LFE6:
 1315              		.size	AnalogSetDefault, .-AnalogSetDefault
 1316              		.section	.text.SetAnalogRoutingPumps,"ax",%progbits
 1317              		.align	2
 1318              		.global	SetAnalogRoutingPumps
 1319              		.thumb
 1320              		.thumb_func
 1321              		.type	SetAnalogRoutingPumps, %function
 1322              	SetAnalogRoutingPumps:
 1323              	.LFB7:
 862:Generated_Source\PSoC5/cyfitter_cfg.c **** 
 863:Generated_Source\PSoC5/cyfitter_cfg.c **** 
 864:Generated_Source\PSoC5/cyfitter_cfg.c **** /*******************************************************************************
 865:Generated_Source\PSoC5/cyfitter_cfg.c **** * Function Name: SetAnalogRoutingPumps
 866:Generated_Source\PSoC5/cyfitter_cfg.c **** ********************************************************************************
 867:Generated_Source\PSoC5/cyfitter_cfg.c **** *
 868:Generated_Source\PSoC5/cyfitter_cfg.c **** * Summary:
 869:Generated_Source\PSoC5/cyfitter_cfg.c **** * Enables or disables the analog pumps feeding analog routing switches.
 870:Generated_Source\PSoC5/cyfitter_cfg.c **** * Intended to be called at startup, based on the Vdda system configuration;
 871:Generated_Source\PSoC5/cyfitter_cfg.c **** * may be called during operation when the user informs us that the Vdda voltage
 872:Generated_Source\PSoC5/cyfitter_cfg.c **** * crossed the pump threshold.
 873:Generated_Source\PSoC5/cyfitter_cfg.c **** *
 874:Generated_Source\PSoC5/cyfitter_cfg.c **** * Parameters:
 875:Generated_Source\PSoC5/cyfitter_cfg.c **** *  enabled - 1 to enable the pumps, 0 to disable the pumps
 876:Generated_Source\PSoC5/cyfitter_cfg.c **** *
 877:Generated_Source\PSoC5/cyfitter_cfg.c **** * Return:
 878:Generated_Source\PSoC5/cyfitter_cfg.c **** *  void
 879:Generated_Source\PSoC5/cyfitter_cfg.c **** *
 880:Generated_Source\PSoC5/cyfitter_cfg.c **** *******************************************************************************/
 881:Generated_Source\PSoC5/cyfitter_cfg.c **** void SetAnalogRoutingPumps(uint8 enabled)
 882:Generated_Source\PSoC5/cyfitter_cfg.c **** {
 1324              		.loc 1 882 0
 1325              		.cfi_startproc
 1326              		@ args = 0, pretend = 0, frame = 16
 1327              		@ frame_needed = 1, uses_anonymous_args = 0
 1328              		@ link register save eliminated.
 1329 0000 80B4     		push	{r7}
 1330              		.cfi_def_cfa_offset 4
 1331              		.cfi_offset 7, -4
 1332 0002 85B0     		sub	sp, sp, #20
 1333              		.cfi_def_cfa_offset 24
 1334 0004 00AF     		add	r7, sp, #0
 1335              		.cfi_def_cfa_register 7
 1336 0006 0346     		mov	r3, r0
ARM GAS  C:\Users\JEFFSN~1\AppData\Local\Temp\ccuEuQhg.s 			page 40


 1337 0008 FB71     		strb	r3, [r7, #7]
 883:Generated_Source\PSoC5/cyfitter_cfg.c **** 	uint8 regValue = CY_GET_XTND_REG8((void CYFAR *)CYREG_PUMP_CR0);
 1338              		.loc 1 883 0
 1339 000a 0B4B     		ldr	r3, .L30
 1340 000c 1B78     		ldrb	r3, [r3]
 1341 000e FB73     		strb	r3, [r7, #15]
 884:Generated_Source\PSoC5/cyfitter_cfg.c **** 	if (enabled != 0u)
 1342              		.loc 1 884 0
 1343 0010 FB79     		ldrb	r3, [r7, #7]	@ zero_extendqisi2
 1344 0012 002B     		cmp	r3, #0
 1345 0014 04D0     		beq	.L28
 885:Generated_Source\PSoC5/cyfitter_cfg.c **** 	{
 886:Generated_Source\PSoC5/cyfitter_cfg.c **** 		regValue |= 0x22u;
 1346              		.loc 1 886 0
 1347 0016 FB7B     		ldrb	r3, [r7, #15]
 1348 0018 43F02203 		orr	r3, r3, #34
 1349 001c FB73     		strb	r3, [r7, #15]
 1350 001e 03E0     		b	.L29
 1351              	.L28:
 887:Generated_Source\PSoC5/cyfitter_cfg.c **** 	}
 888:Generated_Source\PSoC5/cyfitter_cfg.c **** 	else
 889:Generated_Source\PSoC5/cyfitter_cfg.c **** 	{
 890:Generated_Source\PSoC5/cyfitter_cfg.c **** 		regValue &= (uint8)~0x22u;
 1352              		.loc 1 890 0
 1353 0020 FB7B     		ldrb	r3, [r7, #15]
 1354 0022 23F02203 		bic	r3, r3, #34
 1355 0026 FB73     		strb	r3, [r7, #15]
 1356              	.L29:
 891:Generated_Source\PSoC5/cyfitter_cfg.c **** 	}
 892:Generated_Source\PSoC5/cyfitter_cfg.c **** 	CY_SET_XTND_REG8((void CYFAR *)CYREG_PUMP_CR0, regValue);
 1357              		.loc 1 892 0
 1358 0028 034A     		ldr	r2, .L30
 1359 002a FB7B     		ldrb	r3, [r7, #15]
 1360 002c 1370     		strb	r3, [r2]
 893:Generated_Source\PSoC5/cyfitter_cfg.c **** }
 1361              		.loc 1 893 0
 1362 002e 00BF     		nop
 1363 0030 1437     		adds	r7, r7, #20
 1364              		.cfi_def_cfa_offset 4
 1365 0032 BD46     		mov	sp, r7
 1366              		.cfi_def_cfa_register 13
 1367              		@ sp needed
 1368 0034 80BC     		pop	{r7}
 1369              		.cfi_restore 7
 1370              		.cfi_def_cfa_offset 0
 1371 0036 7047     		bx	lr
 1372              	.L31:
 1373              		.align	2
 1374              	.L30:
 1375 0038 76580040 		.word	1073764470
 1376              		.cfi_endproc
 1377              	.LFE7:
 1378              		.size	SetAnalogRoutingPumps, .-SetAnalogRoutingPumps
 1379              		.section	.rodata
 1380              		.align	2
 1381              		.type	AMux_1_CYAMUXSIDE_A__outerAddr, %object
 1382              		.size	AMux_1_CYAMUXSIDE_A__outerAddr, 16
ARM GAS  C:\Users\JEFFSN~1\AppData\Local\Temp\ccuEuQhg.s 			page 41


 1383              	AMux_1_CYAMUXSIDE_A__outerAddr:
 1384 0000 3D510040 		.word	1073762621
 1385 0004 585B0040 		.word	1073765208
 1386 0008 005B0040 		.word	1073765120
 1387 000c 005B0040 		.word	1073765120
 1388              		.align	2
 1389              		.type	AMux_1_CYAMUXSIDE_A__outerMask, %object
 1390              		.size	AMux_1_CYAMUXSIDE_A__outerMask, 4
 1391              	AMux_1_CYAMUXSIDE_A__outerMask:
 1392 0010 40       		.byte	64
 1393 0011 40       		.byte	64
 1394 0012 10       		.byte	16
 1395 0013 80       		.byte	-128
 1396              		.align	2
 1397              		.type	AMux_1_CYAMUXSIDE_A__innerAddr, %object
 1398              		.size	AMux_1_CYAMUXSIDE_A__innerAddr, 8
 1399              	AMux_1_CYAMUXSIDE_A__innerAddr:
 1400 0014 005B0040 		.word	1073765120
 1401 0018 24430040 		.word	1073759012
 1402              		.align	2
 1403              		.type	AMux_1_CYAMUXSIDE_A__innerMask, %object
 1404              		.size	AMux_1_CYAMUXSIDE_A__innerMask, 2
 1405              	AMux_1_CYAMUXSIDE_A__innerMask:
 1406 001c 02       		.byte	2
 1407 001d 00       		.byte	0
 1408 001e 0000     		.align	2
 1409              		.type	AMux_1_CYAMUXSIDE_A__innerMap, %object
 1410              		.size	AMux_1_CYAMUXSIDE_A__innerMap, 4
 1411              	AMux_1_CYAMUXSIDE_A__innerMap:
 1412 0020 00       		.byte	0
 1413 0021 00       		.byte	0
 1414 0022 01       		.byte	1
 1415 0023 01       		.byte	1
 1416              		.bss
 1417              	AMux_1_CYAMUXSIDE_A__armsEnabled:
 1418 0000 00       		.space	1
 1419 0001 000000   		.align	2
 1420              	AMux_1_CYAMUXSIDE_A__refCnt:
 1421 0004 0000     		.space	2
 1422              		.section	.text.AMux_1_CYAMUXSIDE_A_Set,"ax",%progbits
 1423              		.align	2
 1424              		.global	AMux_1_CYAMUXSIDE_A_Set
 1425              		.thumb
 1426              		.thumb_func
 1427              		.type	AMux_1_CYAMUXSIDE_A_Set, %function
 1428              	AMux_1_CYAMUXSIDE_A_Set:
 1429              	.LFB8:
 894:Generated_Source\PSoC5/cyfitter_cfg.c **** 
 895:Generated_Source\PSoC5/cyfitter_cfg.c **** 
 896:Generated_Source\PSoC5/cyfitter_cfg.c **** #define CY_AMUX_UNUSED CYREG_BOOST_SR
 897:Generated_Source\PSoC5/cyfitter_cfg.c **** static uint8 CYXDATA * const CYCODE AMux_1_CYAMUXSIDE_A__outerAddr[4] = {
 898:Generated_Source\PSoC5/cyfitter_cfg.c **** 	(uint8 CYXDATA *)CYREG_PRT3_AG, 
 899:Generated_Source\PSoC5/cyfitter_cfg.c **** 	(uint8 CYXDATA *)CYREG_BUS_SW0, 
 900:Generated_Source\PSoC5/cyfitter_cfg.c **** 	(uint8 CYXDATA *)CYREG_DSM0_SW0, 
 901:Generated_Source\PSoC5/cyfitter_cfg.c **** 	(uint8 CYXDATA *)CYREG_DSM0_SW0, 
 902:Generated_Source\PSoC5/cyfitter_cfg.c **** };
 903:Generated_Source\PSoC5/cyfitter_cfg.c **** 
ARM GAS  C:\Users\JEFFSN~1\AppData\Local\Temp\ccuEuQhg.s 			page 42


 904:Generated_Source\PSoC5/cyfitter_cfg.c **** static const uint8 CYCODE AMux_1_CYAMUXSIDE_A__outerMask[4] = {
 905:Generated_Source\PSoC5/cyfitter_cfg.c **** 	0x40u, 
 906:Generated_Source\PSoC5/cyfitter_cfg.c **** 	0x40u, 
 907:Generated_Source\PSoC5/cyfitter_cfg.c **** 	0x10u, 
 908:Generated_Source\PSoC5/cyfitter_cfg.c **** 	0x80u, 
 909:Generated_Source\PSoC5/cyfitter_cfg.c **** };
 910:Generated_Source\PSoC5/cyfitter_cfg.c **** 
 911:Generated_Source\PSoC5/cyfitter_cfg.c **** static uint8 CYXDATA * const CYCODE AMux_1_CYAMUXSIDE_A__innerAddr[2] = {
 912:Generated_Source\PSoC5/cyfitter_cfg.c **** 	(uint8 CYXDATA *)CYREG_DSM0_SW0, 
 913:Generated_Source\PSoC5/cyfitter_cfg.c **** 	(uint8 CYXDATA *)CY_AMUX_UNUSED, 
 914:Generated_Source\PSoC5/cyfitter_cfg.c **** };
 915:Generated_Source\PSoC5/cyfitter_cfg.c **** 
 916:Generated_Source\PSoC5/cyfitter_cfg.c **** static const uint8 CYCODE AMux_1_CYAMUXSIDE_A__innerMask[2] = {
 917:Generated_Source\PSoC5/cyfitter_cfg.c **** 	0x02u, 
 918:Generated_Source\PSoC5/cyfitter_cfg.c **** 	0x00u, 
 919:Generated_Source\PSoC5/cyfitter_cfg.c **** };
 920:Generated_Source\PSoC5/cyfitter_cfg.c **** 
 921:Generated_Source\PSoC5/cyfitter_cfg.c **** static const uint8 CYCODE AMux_1_CYAMUXSIDE_A__innerMap[4] = {
 922:Generated_Source\PSoC5/cyfitter_cfg.c **** 	0u, 
 923:Generated_Source\PSoC5/cyfitter_cfg.c **** 	0u, 
 924:Generated_Source\PSoC5/cyfitter_cfg.c **** 	1u, 
 925:Generated_Source\PSoC5/cyfitter_cfg.c **** 	1u, 
 926:Generated_Source\PSoC5/cyfitter_cfg.c **** };
 927:Generated_Source\PSoC5/cyfitter_cfg.c **** 
 928:Generated_Source\PSoC5/cyfitter_cfg.c **** static uint8 AMux_1_CYAMUXSIDE_A__armsEnabled = 0u;
 929:Generated_Source\PSoC5/cyfitter_cfg.c **** static uint8 AMux_1_CYAMUXSIDE_A__refCnt[] = {0u, 0u};
 930:Generated_Source\PSoC5/cyfitter_cfg.c **** 
 931:Generated_Source\PSoC5/cyfitter_cfg.c **** /*******************************************************************************
 932:Generated_Source\PSoC5/cyfitter_cfg.c **** * Function Name: AMux_1_CYAMUXSIDE_A_Set
 933:Generated_Source\PSoC5/cyfitter_cfg.c **** ********************************************************************************
 934:Generated_Source\PSoC5/cyfitter_cfg.c **** * Summary:
 935:Generated_Source\PSoC5/cyfitter_cfg.c **** *  This function is used to set a particular channel as active on the AMux.
 936:Generated_Source\PSoC5/cyfitter_cfg.c **** *
 937:Generated_Source\PSoC5/cyfitter_cfg.c **** * Parameters:  
 938:Generated_Source\PSoC5/cyfitter_cfg.c **** *   channel - The mux channel input to set as active
 939:Generated_Source\PSoC5/cyfitter_cfg.c **** *
 940:Generated_Source\PSoC5/cyfitter_cfg.c **** * Return:
 941:Generated_Source\PSoC5/cyfitter_cfg.c **** *   void
 942:Generated_Source\PSoC5/cyfitter_cfg.c **** *
 943:Generated_Source\PSoC5/cyfitter_cfg.c **** *******************************************************************************/
 944:Generated_Source\PSoC5/cyfitter_cfg.c **** void AMux_1_CYAMUXSIDE_A_Set(uint8 channel)
 945:Generated_Source\PSoC5/cyfitter_cfg.c **** {
 1430              		.loc 1 945 0
 1431              		.cfi_startproc
 1432              		@ args = 0, pretend = 0, frame = 16
 1433              		@ frame_needed = 1, uses_anonymous_args = 0
 1434              		@ link register save eliminated.
 1435 0000 80B4     		push	{r7}
 1436              		.cfi_def_cfa_offset 4
 1437              		.cfi_offset 7, -4
 1438 0002 85B0     		sub	sp, sp, #20
 1439              		.cfi_def_cfa_offset 24
 1440 0004 00AF     		add	r7, sp, #0
 1441              		.cfi_def_cfa_register 7
 1442 0006 0346     		mov	r3, r0
 1443 0008 FB71     		strb	r3, [r7, #7]
 946:Generated_Source\PSoC5/cyfitter_cfg.c **** 	uint8 i;
ARM GAS  C:\Users\JEFFSN~1\AppData\Local\Temp\ccuEuQhg.s 			page 43


 947:Generated_Source\PSoC5/cyfitter_cfg.c **** 	uint8 channelMask = (1UL << channel);
 1444              		.loc 1 947 0
 1445 000a FB79     		ldrb	r3, [r7, #7]	@ zero_extendqisi2
 1446 000c 0122     		movs	r2, #1
 1447 000e 02FA03F3 		lsl	r3, r2, r3
 1448 0012 FB73     		strb	r3, [r7, #15]
 948:Generated_Source\PSoC5/cyfitter_cfg.c **** 	if ((channel < 4u) && ((AMux_1_CYAMUXSIDE_A__armsEnabled & channelMask) == ((uint32)0u)))
 1449              		.loc 1 948 0
 1450 0014 FB79     		ldrb	r3, [r7, #7]	@ zero_extendqisi2
 1451 0016 032B     		cmp	r3, #3
 1452 0018 3BD8     		bhi	.L35
 1453              		.loc 1 948 0 is_stmt 0 discriminator 1
 1454 001a 204B     		ldr	r3, .L36
 1455 001c 1A78     		ldrb	r2, [r3]	@ zero_extendqisi2
 1456 001e FB7B     		ldrb	r3, [r7, #15]
 1457 0020 1340     		ands	r3, r3, r2
 1458 0022 DBB2     		uxtb	r3, r3
 1459 0024 002B     		cmp	r3, #0
 1460 0026 34D1     		bne	.L35
 949:Generated_Source\PSoC5/cyfitter_cfg.c **** 	{
 950:Generated_Source\PSoC5/cyfitter_cfg.c **** 		AMux_1_CYAMUXSIDE_A__armsEnabled |= channelMask;
 1461              		.loc 1 950 0 is_stmt 1
 1462 0028 1C4B     		ldr	r3, .L36
 1463 002a 1A78     		ldrb	r2, [r3]	@ zero_extendqisi2
 1464 002c FB7B     		ldrb	r3, [r7, #15]
 1465 002e 1343     		orrs	r3, r3, r2
 1466 0030 DAB2     		uxtb	r2, r3
 1467 0032 1A4B     		ldr	r3, .L36
 1468 0034 1A70     		strb	r2, [r3]
 951:Generated_Source\PSoC5/cyfitter_cfg.c **** 		*AMux_1_CYAMUXSIDE_A__outerAddr[channel] |= AMux_1_CYAMUXSIDE_A__outerMask[channel];
 1469              		.loc 1 951 0
 1470 0036 FB79     		ldrb	r3, [r7, #7]	@ zero_extendqisi2
 1471 0038 194A     		ldr	r2, .L36+4
 1472 003a 52F82330 		ldr	r3, [r2, r3, lsl #2]
 1473 003e FA79     		ldrb	r2, [r7, #7]	@ zero_extendqisi2
 1474 0040 1749     		ldr	r1, .L36+4
 1475 0042 51F82220 		ldr	r2, [r1, r2, lsl #2]
 1476 0046 1178     		ldrb	r1, [r2]	@ zero_extendqisi2
 1477 0048 FA79     		ldrb	r2, [r7, #7]	@ zero_extendqisi2
 1478 004a 1648     		ldr	r0, .L36+8
 1479 004c 825C     		ldrb	r2, [r0, r2]	@ zero_extendqisi2
 1480 004e 0A43     		orrs	r2, r2, r1
 1481 0050 D2B2     		uxtb	r2, r2
 1482 0052 1A70     		strb	r2, [r3]
 952:Generated_Source\PSoC5/cyfitter_cfg.c **** 		i = AMux_1_CYAMUXSIDE_A__innerMap[channel];
 1483              		.loc 1 952 0
 1484 0054 FB79     		ldrb	r3, [r7, #7]	@ zero_extendqisi2
 1485 0056 144A     		ldr	r2, .L36+12
 1486 0058 D35C     		ldrb	r3, [r2, r3]
 1487 005a BB73     		strb	r3, [r7, #14]
 953:Generated_Source\PSoC5/cyfitter_cfg.c **** 		if (AMux_1_CYAMUXSIDE_A__refCnt[i] == 0u)
 1488              		.loc 1 953 0
 1489 005c BB7B     		ldrb	r3, [r7, #14]	@ zero_extendqisi2
 1490 005e 134A     		ldr	r2, .L36+16
 1491 0060 D35C     		ldrb	r3, [r2, r3]	@ zero_extendqisi2
 1492 0062 002B     		cmp	r3, #0
 1493 0064 0ED1     		bne	.L34
ARM GAS  C:\Users\JEFFSN~1\AppData\Local\Temp\ccuEuQhg.s 			page 44


 954:Generated_Source\PSoC5/cyfitter_cfg.c **** 		{
 955:Generated_Source\PSoC5/cyfitter_cfg.c **** 			*AMux_1_CYAMUXSIDE_A__innerAddr[i] |= AMux_1_CYAMUXSIDE_A__innerMask[i];
 1494              		.loc 1 955 0
 1495 0066 BB7B     		ldrb	r3, [r7, #14]	@ zero_extendqisi2
 1496 0068 114A     		ldr	r2, .L36+20
 1497 006a 52F82330 		ldr	r3, [r2, r3, lsl #2]
 1498 006e BA7B     		ldrb	r2, [r7, #14]	@ zero_extendqisi2
 1499 0070 0F49     		ldr	r1, .L36+20
 1500 0072 51F82220 		ldr	r2, [r1, r2, lsl #2]
 1501 0076 1178     		ldrb	r1, [r2]	@ zero_extendqisi2
 1502 0078 BA7B     		ldrb	r2, [r7, #14]	@ zero_extendqisi2
 1503 007a 0E48     		ldr	r0, .L36+24
 1504 007c 825C     		ldrb	r2, [r0, r2]	@ zero_extendqisi2
 1505 007e 0A43     		orrs	r2, r2, r1
 1506 0080 D2B2     		uxtb	r2, r2
 1507 0082 1A70     		strb	r2, [r3]
 1508              	.L34:
 956:Generated_Source\PSoC5/cyfitter_cfg.c **** 		}
 957:Generated_Source\PSoC5/cyfitter_cfg.c **** 		AMux_1_CYAMUXSIDE_A__refCnt[i]++;
 1509              		.loc 1 957 0
 1510 0084 BB7B     		ldrb	r3, [r7, #14]	@ zero_extendqisi2
 1511 0086 094A     		ldr	r2, .L36+16
 1512 0088 D25C     		ldrb	r2, [r2, r3]	@ zero_extendqisi2
 1513 008a 0132     		adds	r2, r2, #1
 1514 008c D1B2     		uxtb	r1, r2
 1515 008e 074A     		ldr	r2, .L36+16
 1516 0090 D154     		strb	r1, [r2, r3]
 1517              	.L35:
 958:Generated_Source\PSoC5/cyfitter_cfg.c **** 	}
 959:Generated_Source\PSoC5/cyfitter_cfg.c **** }
 1518              		.loc 1 959 0
 1519 0092 00BF     		nop
 1520 0094 1437     		adds	r7, r7, #20
 1521              		.cfi_def_cfa_offset 4
 1522 0096 BD46     		mov	sp, r7
 1523              		.cfi_def_cfa_register 13
 1524              		@ sp needed
 1525 0098 80BC     		pop	{r7}
 1526              		.cfi_restore 7
 1527              		.cfi_def_cfa_offset 0
 1528 009a 7047     		bx	lr
 1529              	.L37:
 1530              		.align	2
 1531              	.L36:
 1532 009c 00000000 		.word	AMux_1_CYAMUXSIDE_A__armsEnabled
 1533 00a0 00000000 		.word	AMux_1_CYAMUXSIDE_A__outerAddr
 1534 00a4 10000000 		.word	AMux_1_CYAMUXSIDE_A__outerMask
 1535 00a8 20000000 		.word	AMux_1_CYAMUXSIDE_A__innerMap
 1536 00ac 04000000 		.word	AMux_1_CYAMUXSIDE_A__refCnt
 1537 00b0 14000000 		.word	AMux_1_CYAMUXSIDE_A__innerAddr
 1538 00b4 1C000000 		.word	AMux_1_CYAMUXSIDE_A__innerMask
 1539              		.cfi_endproc
 1540              	.LFE8:
 1541              		.size	AMux_1_CYAMUXSIDE_A_Set, .-AMux_1_CYAMUXSIDE_A_Set
 1542              		.section	.text.AMux_1_CYAMUXSIDE_A_Unset,"ax",%progbits
 1543              		.align	2
 1544              		.global	AMux_1_CYAMUXSIDE_A_Unset
ARM GAS  C:\Users\JEFFSN~1\AppData\Local\Temp\ccuEuQhg.s 			page 45


 1545              		.thumb
 1546              		.thumb_func
 1547              		.type	AMux_1_CYAMUXSIDE_A_Unset, %function
 1548              	AMux_1_CYAMUXSIDE_A_Unset:
 1549              	.LFB9:
 960:Generated_Source\PSoC5/cyfitter_cfg.c **** 
 961:Generated_Source\PSoC5/cyfitter_cfg.c **** /*******************************************************************************
 962:Generated_Source\PSoC5/cyfitter_cfg.c **** * Function Name: AMux_1_CYAMUXSIDE_A_Unset
 963:Generated_Source\PSoC5/cyfitter_cfg.c **** ********************************************************************************
 964:Generated_Source\PSoC5/cyfitter_cfg.c **** * Summary:
 965:Generated_Source\PSoC5/cyfitter_cfg.c **** *  This function is used to clear a particular channel from being active on the
 966:Generated_Source\PSoC5/cyfitter_cfg.c **** *  AMux.
 967:Generated_Source\PSoC5/cyfitter_cfg.c **** *
 968:Generated_Source\PSoC5/cyfitter_cfg.c **** * Parameters:  
 969:Generated_Source\PSoC5/cyfitter_cfg.c **** *   channel - The mux channel input to mark inactive
 970:Generated_Source\PSoC5/cyfitter_cfg.c **** *
 971:Generated_Source\PSoC5/cyfitter_cfg.c **** * Return:
 972:Generated_Source\PSoC5/cyfitter_cfg.c **** *   void
 973:Generated_Source\PSoC5/cyfitter_cfg.c **** *
 974:Generated_Source\PSoC5/cyfitter_cfg.c **** *******************************************************************************/
 975:Generated_Source\PSoC5/cyfitter_cfg.c **** void AMux_1_CYAMUXSIDE_A_Unset(uint8 channel)
 976:Generated_Source\PSoC5/cyfitter_cfg.c **** {
 1550              		.loc 1 976 0
 1551              		.cfi_startproc
 1552              		@ args = 0, pretend = 0, frame = 16
 1553              		@ frame_needed = 1, uses_anonymous_args = 0
 1554              		@ link register save eliminated.
 1555 0000 80B4     		push	{r7}
 1556              		.cfi_def_cfa_offset 4
 1557              		.cfi_offset 7, -4
 1558 0002 85B0     		sub	sp, sp, #20
 1559              		.cfi_def_cfa_offset 24
 1560 0004 00AF     		add	r7, sp, #0
 1561              		.cfi_def_cfa_register 7
 1562 0006 0346     		mov	r3, r0
 1563 0008 FB71     		strb	r3, [r7, #7]
 977:Generated_Source\PSoC5/cyfitter_cfg.c **** 	uint8 i;
 978:Generated_Source\PSoC5/cyfitter_cfg.c **** 	uint8 channelMask = (1UL << channel);
 1564              		.loc 1 978 0
 1565 000a FB79     		ldrb	r3, [r7, #7]	@ zero_extendqisi2
 1566 000c 0122     		movs	r2, #1
 1567 000e 02FA03F3 		lsl	r3, r2, r3
 1568 0012 FB73     		strb	r3, [r7, #15]
 979:Generated_Source\PSoC5/cyfitter_cfg.c **** 	if ((channel < 4u) && ((AMux_1_CYAMUXSIDE_A__armsEnabled & channelMask) != ((uint32)0u)))
 1569              		.loc 1 979 0
 1570 0014 FB79     		ldrb	r3, [r7, #7]	@ zero_extendqisi2
 1571 0016 032B     		cmp	r3, #3
 1572 0018 41D8     		bhi	.L40
 1573              		.loc 1 979 0 is_stmt 0 discriminator 1
 1574 001a 234B     		ldr	r3, .L41
 1575 001c 1A78     		ldrb	r2, [r3]	@ zero_extendqisi2
 1576 001e FB7B     		ldrb	r3, [r7, #15]
 1577 0020 1340     		ands	r3, r3, r2
 1578 0022 DBB2     		uxtb	r3, r3
 1579 0024 002B     		cmp	r3, #0
 1580 0026 3AD0     		beq	.L40
 980:Generated_Source\PSoC5/cyfitter_cfg.c **** 	{
ARM GAS  C:\Users\JEFFSN~1\AppData\Local\Temp\ccuEuQhg.s 			page 46


 981:Generated_Source\PSoC5/cyfitter_cfg.c **** 		AMux_1_CYAMUXSIDE_A__armsEnabled &= (uint8)~channelMask;
 1581              		.loc 1 981 0 is_stmt 1
 1582 0028 FB7B     		ldrb	r3, [r7, #15]
 1583 002a DB43     		mvns	r3, r3
 1584 002c DAB2     		uxtb	r2, r3
 1585 002e 1E4B     		ldr	r3, .L41
 1586 0030 1B78     		ldrb	r3, [r3]	@ zero_extendqisi2
 1587 0032 1340     		ands	r3, r3, r2
 1588 0034 DAB2     		uxtb	r2, r3
 1589 0036 1C4B     		ldr	r3, .L41
 1590 0038 1A70     		strb	r2, [r3]
 982:Generated_Source\PSoC5/cyfitter_cfg.c **** 		*AMux_1_CYAMUXSIDE_A__outerAddr[channel] &= (uint8)~AMux_1_CYAMUXSIDE_A__outerMask[channel];
 1591              		.loc 1 982 0
 1592 003a FB79     		ldrb	r3, [r7, #7]	@ zero_extendqisi2
 1593 003c 1B4A     		ldr	r2, .L41+4
 1594 003e 52F82330 		ldr	r3, [r2, r3, lsl #2]
 1595 0042 FA79     		ldrb	r2, [r7, #7]	@ zero_extendqisi2
 1596 0044 1949     		ldr	r1, .L41+4
 1597 0046 51F82220 		ldr	r2, [r1, r2, lsl #2]
 1598 004a 1178     		ldrb	r1, [r2]	@ zero_extendqisi2
 1599 004c FA79     		ldrb	r2, [r7, #7]	@ zero_extendqisi2
 1600 004e 1848     		ldr	r0, .L41+8
 1601 0050 825C     		ldrb	r2, [r0, r2]	@ zero_extendqisi2
 1602 0052 D243     		mvns	r2, r2
 1603 0054 D2B2     		uxtb	r2, r2
 1604 0056 0A40     		ands	r2, r2, r1
 1605 0058 D2B2     		uxtb	r2, r2
 1606 005a 1A70     		strb	r2, [r3]
 983:Generated_Source\PSoC5/cyfitter_cfg.c **** 		i = AMux_1_CYAMUXSIDE_A__innerMap[channel];
 1607              		.loc 1 983 0
 1608 005c FB79     		ldrb	r3, [r7, #7]	@ zero_extendqisi2
 1609 005e 154A     		ldr	r2, .L41+12
 1610 0060 D35C     		ldrb	r3, [r2, r3]
 1611 0062 BB73     		strb	r3, [r7, #14]
 984:Generated_Source\PSoC5/cyfitter_cfg.c **** 		AMux_1_CYAMUXSIDE_A__refCnt[i]--;
 1612              		.loc 1 984 0
 1613 0064 BB7B     		ldrb	r3, [r7, #14]	@ zero_extendqisi2
 1614 0066 144A     		ldr	r2, .L41+16
 1615 0068 D25C     		ldrb	r2, [r2, r3]	@ zero_extendqisi2
 1616 006a 013A     		subs	r2, r2, #1
 1617 006c D1B2     		uxtb	r1, r2
 1618 006e 124A     		ldr	r2, .L41+16
 1619 0070 D154     		strb	r1, [r2, r3]
 985:Generated_Source\PSoC5/cyfitter_cfg.c **** 		if (AMux_1_CYAMUXSIDE_A__refCnt[i] == 0)
 1620              		.loc 1 985 0
 1621 0072 BB7B     		ldrb	r3, [r7, #14]	@ zero_extendqisi2
 1622 0074 104A     		ldr	r2, .L41+16
 1623 0076 D35C     		ldrb	r3, [r2, r3]	@ zero_extendqisi2
 1624 0078 002B     		cmp	r3, #0
 1625 007a 10D1     		bne	.L40
 986:Generated_Source\PSoC5/cyfitter_cfg.c **** 		{
 987:Generated_Source\PSoC5/cyfitter_cfg.c **** 			*AMux_1_CYAMUXSIDE_A__innerAddr[i] &= (uint8)~AMux_1_CYAMUXSIDE_A__innerMask[i];
 1626              		.loc 1 987 0
 1627 007c BB7B     		ldrb	r3, [r7, #14]	@ zero_extendqisi2
 1628 007e 0F4A     		ldr	r2, .L41+20
 1629 0080 52F82330 		ldr	r3, [r2, r3, lsl #2]
 1630 0084 BA7B     		ldrb	r2, [r7, #14]	@ zero_extendqisi2
ARM GAS  C:\Users\JEFFSN~1\AppData\Local\Temp\ccuEuQhg.s 			page 47


 1631 0086 0D49     		ldr	r1, .L41+20
 1632 0088 51F82220 		ldr	r2, [r1, r2, lsl #2]
 1633 008c 1178     		ldrb	r1, [r2]	@ zero_extendqisi2
 1634 008e BA7B     		ldrb	r2, [r7, #14]	@ zero_extendqisi2
 1635 0090 0B48     		ldr	r0, .L41+24
 1636 0092 825C     		ldrb	r2, [r0, r2]	@ zero_extendqisi2
 1637 0094 D243     		mvns	r2, r2
 1638 0096 D2B2     		uxtb	r2, r2
 1639 0098 0A40     		ands	r2, r2, r1
 1640 009a D2B2     		uxtb	r2, r2
 1641 009c 1A70     		strb	r2, [r3]
 1642              	.L40:
 988:Generated_Source\PSoC5/cyfitter_cfg.c **** 		}
 989:Generated_Source\PSoC5/cyfitter_cfg.c **** 	}
 990:Generated_Source\PSoC5/cyfitter_cfg.c **** }
 1643              		.loc 1 990 0
 1644 009e 00BF     		nop
 1645 00a0 1437     		adds	r7, r7, #20
 1646              		.cfi_def_cfa_offset 4
 1647 00a2 BD46     		mov	sp, r7
 1648              		.cfi_def_cfa_register 13
 1649              		@ sp needed
 1650 00a4 80BC     		pop	{r7}
 1651              		.cfi_restore 7
 1652              		.cfi_def_cfa_offset 0
 1653 00a6 7047     		bx	lr
 1654              	.L42:
 1655              		.align	2
 1656              	.L41:
 1657 00a8 00000000 		.word	AMux_1_CYAMUXSIDE_A__armsEnabled
 1658 00ac 00000000 		.word	AMux_1_CYAMUXSIDE_A__outerAddr
 1659 00b0 10000000 		.word	AMux_1_CYAMUXSIDE_A__outerMask
 1660 00b4 20000000 		.word	AMux_1_CYAMUXSIDE_A__innerMap
 1661 00b8 04000000 		.word	AMux_1_CYAMUXSIDE_A__refCnt
 1662 00bc 14000000 		.word	AMux_1_CYAMUXSIDE_A__innerAddr
 1663 00c0 1C000000 		.word	AMux_1_CYAMUXSIDE_A__innerMask
 1664              		.cfi_endproc
 1665              	.LFE9:
 1666              		.size	AMux_1_CYAMUXSIDE_A_Unset, .-AMux_1_CYAMUXSIDE_A_Unset
 1667              		.global	AMux_1_CYAMUXSIDE_B__addrTable
 1668              		.section	.rodata
 1669              		.align	2
 1670              		.type	AMux_1_CYAMUXSIDE_B__addrTable, %object
 1671              		.size	AMux_1_CYAMUXSIDE_B__addrTable, 32
 1672              	AMux_1_CYAMUXSIDE_B__addrTable:
 1673 0024 C65A0040 		.word	1073765062
 1674 0028 065B0040 		.word	1073765126
 1675 002c 035B0040 		.word	1073765123
 1676 0030 24430040 		.word	1073759012
 1677 0034 045B0040 		.word	1073765124
 1678 0038 24430040 		.word	1073759012
 1679 003c 035B0040 		.word	1073765123
 1680 0040 24430040 		.word	1073759012
 1681              		.global	AMux_1_CYAMUXSIDE_B__maskTable
 1682              		.align	2
 1683              		.type	AMux_1_CYAMUXSIDE_B__maskTable, %object
 1684              		.size	AMux_1_CYAMUXSIDE_B__maskTable, 8
ARM GAS  C:\Users\JEFFSN~1\AppData\Local\Temp\ccuEuQhg.s 			page 48


 1685              	AMux_1_CYAMUXSIDE_B__maskTable:
 1686 0044 08       		.byte	8
 1687 0045 08       		.byte	8
 1688 0046 40       		.byte	64
 1689 0047 00       		.byte	0
 1690 0048 80       		.byte	-128
 1691 0049 00       		.byte	0
 1692 004a 40       		.byte	64
 1693 004b 00       		.byte	0
 1694              		.section	.text.AMux_1_CYAMUXSIDE_B_Set,"ax",%progbits
 1695              		.align	2
 1696              		.global	AMux_1_CYAMUXSIDE_B_Set
 1697              		.thumb
 1698              		.thumb_func
 1699              		.type	AMux_1_CYAMUXSIDE_B_Set, %function
 1700              	AMux_1_CYAMUXSIDE_B_Set:
 1701              	.LFB10:
 991:Generated_Source\PSoC5/cyfitter_cfg.c **** 
 992:Generated_Source\PSoC5/cyfitter_cfg.c **** /* This is an implementation detail of the AMux. Code that depends on it may be
 993:Generated_Source\PSoC5/cyfitter_cfg.c ****    incompatible with other versions of PSoC Creator. */
 994:Generated_Source\PSoC5/cyfitter_cfg.c **** uint8 CYXDATA * const CYCODE AMux_1_CYAMUXSIDE_B__addrTable[8] = {
 995:Generated_Source\PSoC5/cyfitter_cfg.c **** 	(uint8 CYXDATA *)CYREG_CMP0_SW6, (uint8 CYXDATA *)CYREG_DSM0_SW6, 
 996:Generated_Source\PSoC5/cyfitter_cfg.c **** 	(uint8 CYXDATA *)CYREG_DSM0_SW3, (uint8 CYXDATA *)CY_AMUX_UNUSED, 
 997:Generated_Source\PSoC5/cyfitter_cfg.c **** 	(uint8 CYXDATA *)CYREG_DSM0_SW4, (uint8 CYXDATA *)CY_AMUX_UNUSED, 
 998:Generated_Source\PSoC5/cyfitter_cfg.c **** 	(uint8 CYXDATA *)CYREG_DSM0_SW3, (uint8 CYXDATA *)CY_AMUX_UNUSED, 
 999:Generated_Source\PSoC5/cyfitter_cfg.c **** };
1000:Generated_Source\PSoC5/cyfitter_cfg.c **** 
1001:Generated_Source\PSoC5/cyfitter_cfg.c **** /* This is an implementation detail of the AMux. Code that depends on it may be
1002:Generated_Source\PSoC5/cyfitter_cfg.c ****    incompatible with other versions of PSoC Creator. */
1003:Generated_Source\PSoC5/cyfitter_cfg.c **** const uint8 CYCODE AMux_1_CYAMUXSIDE_B__maskTable[8] = {
1004:Generated_Source\PSoC5/cyfitter_cfg.c **** 	0x08u, 0x08u, 
1005:Generated_Source\PSoC5/cyfitter_cfg.c **** 	0x40u, 0x00u, 
1006:Generated_Source\PSoC5/cyfitter_cfg.c **** 	0x80u, 0x00u, 
1007:Generated_Source\PSoC5/cyfitter_cfg.c **** 	0x40u, 0x00u, 
1008:Generated_Source\PSoC5/cyfitter_cfg.c **** };
1009:Generated_Source\PSoC5/cyfitter_cfg.c **** 
1010:Generated_Source\PSoC5/cyfitter_cfg.c **** /*******************************************************************************
1011:Generated_Source\PSoC5/cyfitter_cfg.c **** * Function Name: AMux_1_CYAMUXSIDE_B_Set
1012:Generated_Source\PSoC5/cyfitter_cfg.c **** ********************************************************************************
1013:Generated_Source\PSoC5/cyfitter_cfg.c **** * Summary:
1014:Generated_Source\PSoC5/cyfitter_cfg.c **** *  This function is used to set a particular channel as active on the AMux.
1015:Generated_Source\PSoC5/cyfitter_cfg.c **** *
1016:Generated_Source\PSoC5/cyfitter_cfg.c **** * Parameters:  
1017:Generated_Source\PSoC5/cyfitter_cfg.c **** *   channel - The mux channel input to set as active
1018:Generated_Source\PSoC5/cyfitter_cfg.c **** *
1019:Generated_Source\PSoC5/cyfitter_cfg.c **** * Return:
1020:Generated_Source\PSoC5/cyfitter_cfg.c **** *   void
1021:Generated_Source\PSoC5/cyfitter_cfg.c **** *
1022:Generated_Source\PSoC5/cyfitter_cfg.c **** *******************************************************************************/
1023:Generated_Source\PSoC5/cyfitter_cfg.c **** void AMux_1_CYAMUXSIDE_B_Set(uint8 channel)
1024:Generated_Source\PSoC5/cyfitter_cfg.c **** {
 1702              		.loc 1 1024 0
 1703              		.cfi_startproc
 1704              		@ args = 0, pretend = 0, frame = 8
 1705              		@ frame_needed = 1, uses_anonymous_args = 0
 1706              		@ link register save eliminated.
 1707 0000 80B4     		push	{r7}
ARM GAS  C:\Users\JEFFSN~1\AppData\Local\Temp\ccuEuQhg.s 			page 49


 1708              		.cfi_def_cfa_offset 4
 1709              		.cfi_offset 7, -4
 1710 0002 83B0     		sub	sp, sp, #12
 1711              		.cfi_def_cfa_offset 16
 1712 0004 00AF     		add	r7, sp, #0
 1713              		.cfi_def_cfa_register 7
 1714 0006 0346     		mov	r3, r0
 1715 0008 FB71     		strb	r3, [r7, #7]
1025:Generated_Source\PSoC5/cyfitter_cfg.c **** 	if (channel < 4)
 1716              		.loc 1 1025 0
 1717 000a FB79     		ldrb	r3, [r7, #7]	@ zero_extendqisi2
 1718 000c 032B     		cmp	r3, #3
 1719 000e 24D8     		bhi	.L45
1026:Generated_Source\PSoC5/cyfitter_cfg.c **** 	{
1027:Generated_Source\PSoC5/cyfitter_cfg.c **** 		channel += channel;
 1720              		.loc 1 1027 0
 1721 0010 FA79     		ldrb	r2, [r7, #7]
 1722 0012 FB79     		ldrb	r3, [r7, #7]
 1723 0014 1344     		add	r3, r3, r2
 1724 0016 FB71     		strb	r3, [r7, #7]
1028:Generated_Source\PSoC5/cyfitter_cfg.c **** 		*AMux_1_CYAMUXSIDE_B__addrTable[channel] |= AMux_1_CYAMUXSIDE_B__maskTable[channel];
 1725              		.loc 1 1028 0
 1726 0018 FB79     		ldrb	r3, [r7, #7]	@ zero_extendqisi2
 1727 001a 124A     		ldr	r2, .L46
 1728 001c 52F82330 		ldr	r3, [r2, r3, lsl #2]
 1729 0020 FA79     		ldrb	r2, [r7, #7]	@ zero_extendqisi2
 1730 0022 1049     		ldr	r1, .L46
 1731 0024 51F82220 		ldr	r2, [r1, r2, lsl #2]
 1732 0028 1178     		ldrb	r1, [r2]	@ zero_extendqisi2
 1733 002a FA79     		ldrb	r2, [r7, #7]	@ zero_extendqisi2
 1734 002c 0E48     		ldr	r0, .L46+4
 1735 002e 825C     		ldrb	r2, [r0, r2]	@ zero_extendqisi2
 1736 0030 0A43     		orrs	r2, r2, r1
 1737 0032 D2B2     		uxtb	r2, r2
 1738 0034 1A70     		strb	r2, [r3]
1029:Generated_Source\PSoC5/cyfitter_cfg.c **** 		channel++;
 1739              		.loc 1 1029 0
 1740 0036 FB79     		ldrb	r3, [r7, #7]	@ zero_extendqisi2
 1741 0038 0133     		adds	r3, r3, #1
 1742 003a FB71     		strb	r3, [r7, #7]
1030:Generated_Source\PSoC5/cyfitter_cfg.c **** 		*AMux_1_CYAMUXSIDE_B__addrTable[channel] |= AMux_1_CYAMUXSIDE_B__maskTable[channel];
 1743              		.loc 1 1030 0
 1744 003c FB79     		ldrb	r3, [r7, #7]	@ zero_extendqisi2
 1745 003e 094A     		ldr	r2, .L46
 1746 0040 52F82330 		ldr	r3, [r2, r3, lsl #2]
 1747 0044 FA79     		ldrb	r2, [r7, #7]	@ zero_extendqisi2
 1748 0046 0749     		ldr	r1, .L46
 1749 0048 51F82220 		ldr	r2, [r1, r2, lsl #2]
 1750 004c 1178     		ldrb	r1, [r2]	@ zero_extendqisi2
 1751 004e FA79     		ldrb	r2, [r7, #7]	@ zero_extendqisi2
 1752 0050 0548     		ldr	r0, .L46+4
 1753 0052 825C     		ldrb	r2, [r0, r2]	@ zero_extendqisi2
 1754 0054 0A43     		orrs	r2, r2, r1
 1755 0056 D2B2     		uxtb	r2, r2
 1756 0058 1A70     		strb	r2, [r3]
 1757              	.L45:
1031:Generated_Source\PSoC5/cyfitter_cfg.c **** 	}
ARM GAS  C:\Users\JEFFSN~1\AppData\Local\Temp\ccuEuQhg.s 			page 50


1032:Generated_Source\PSoC5/cyfitter_cfg.c **** }
 1758              		.loc 1 1032 0
 1759 005a 00BF     		nop
 1760 005c 0C37     		adds	r7, r7, #12
 1761              		.cfi_def_cfa_offset 4
 1762 005e BD46     		mov	sp, r7
 1763              		.cfi_def_cfa_register 13
 1764              		@ sp needed
 1765 0060 80BC     		pop	{r7}
 1766              		.cfi_restore 7
 1767              		.cfi_def_cfa_offset 0
 1768 0062 7047     		bx	lr
 1769              	.L47:
 1770              		.align	2
 1771              	.L46:
 1772 0064 00000000 		.word	AMux_1_CYAMUXSIDE_B__addrTable
 1773 0068 00000000 		.word	AMux_1_CYAMUXSIDE_B__maskTable
 1774              		.cfi_endproc
 1775              	.LFE10:
 1776              		.size	AMux_1_CYAMUXSIDE_B_Set, .-AMux_1_CYAMUXSIDE_B_Set
 1777              		.section	.text.AMux_1_CYAMUXSIDE_B_Unset,"ax",%progbits
 1778              		.align	2
 1779              		.global	AMux_1_CYAMUXSIDE_B_Unset
 1780              		.thumb
 1781              		.thumb_func
 1782              		.type	AMux_1_CYAMUXSIDE_B_Unset, %function
 1783              	AMux_1_CYAMUXSIDE_B_Unset:
 1784              	.LFB11:
1033:Generated_Source\PSoC5/cyfitter_cfg.c **** 
1034:Generated_Source\PSoC5/cyfitter_cfg.c **** /*******************************************************************************
1035:Generated_Source\PSoC5/cyfitter_cfg.c **** * Function Name: AMux_1_CYAMUXSIDE_B_Unset
1036:Generated_Source\PSoC5/cyfitter_cfg.c **** ********************************************************************************
1037:Generated_Source\PSoC5/cyfitter_cfg.c **** * Summary:
1038:Generated_Source\PSoC5/cyfitter_cfg.c **** *  This function is used to clear a particular channel from being active on the
1039:Generated_Source\PSoC5/cyfitter_cfg.c **** *  AMux.
1040:Generated_Source\PSoC5/cyfitter_cfg.c **** *
1041:Generated_Source\PSoC5/cyfitter_cfg.c **** * Parameters:  
1042:Generated_Source\PSoC5/cyfitter_cfg.c **** *   channel - The mux channel input to mark inactive
1043:Generated_Source\PSoC5/cyfitter_cfg.c **** *
1044:Generated_Source\PSoC5/cyfitter_cfg.c **** * Return:
1045:Generated_Source\PSoC5/cyfitter_cfg.c **** *   void
1046:Generated_Source\PSoC5/cyfitter_cfg.c **** *
1047:Generated_Source\PSoC5/cyfitter_cfg.c **** *******************************************************************************/
1048:Generated_Source\PSoC5/cyfitter_cfg.c **** void AMux_1_CYAMUXSIDE_B_Unset(uint8 channel)
1049:Generated_Source\PSoC5/cyfitter_cfg.c **** {
 1785              		.loc 1 1049 0
 1786              		.cfi_startproc
 1787              		@ args = 0, pretend = 0, frame = 8
 1788              		@ frame_needed = 1, uses_anonymous_args = 0
 1789              		@ link register save eliminated.
 1790 0000 80B4     		push	{r7}
 1791              		.cfi_def_cfa_offset 4
 1792              		.cfi_offset 7, -4
 1793 0002 83B0     		sub	sp, sp, #12
 1794              		.cfi_def_cfa_offset 16
 1795 0004 00AF     		add	r7, sp, #0
 1796              		.cfi_def_cfa_register 7
ARM GAS  C:\Users\JEFFSN~1\AppData\Local\Temp\ccuEuQhg.s 			page 51


 1797 0006 0346     		mov	r3, r0
 1798 0008 FB71     		strb	r3, [r7, #7]
1050:Generated_Source\PSoC5/cyfitter_cfg.c **** 	if (channel < 4)
 1799              		.loc 1 1050 0
 1800 000a FB79     		ldrb	r3, [r7, #7]	@ zero_extendqisi2
 1801 000c 032B     		cmp	r3, #3
 1802 000e 28D8     		bhi	.L50
1051:Generated_Source\PSoC5/cyfitter_cfg.c **** 	{
1052:Generated_Source\PSoC5/cyfitter_cfg.c **** 		channel += channel;
 1803              		.loc 1 1052 0
 1804 0010 FA79     		ldrb	r2, [r7, #7]
 1805 0012 FB79     		ldrb	r3, [r7, #7]
 1806 0014 1344     		add	r3, r3, r2
 1807 0016 FB71     		strb	r3, [r7, #7]
1053:Generated_Source\PSoC5/cyfitter_cfg.c **** 		*AMux_1_CYAMUXSIDE_B__addrTable[channel] &= (uint8)~AMux_1_CYAMUXSIDE_B__maskTable[channel];
 1808              		.loc 1 1053 0
 1809 0018 FB79     		ldrb	r3, [r7, #7]	@ zero_extendqisi2
 1810 001a 144A     		ldr	r2, .L51
 1811 001c 52F82330 		ldr	r3, [r2, r3, lsl #2]
 1812 0020 FA79     		ldrb	r2, [r7, #7]	@ zero_extendqisi2
 1813 0022 1249     		ldr	r1, .L51
 1814 0024 51F82220 		ldr	r2, [r1, r2, lsl #2]
 1815 0028 1178     		ldrb	r1, [r2]	@ zero_extendqisi2
 1816 002a FA79     		ldrb	r2, [r7, #7]	@ zero_extendqisi2
 1817 002c 1048     		ldr	r0, .L51+4
 1818 002e 825C     		ldrb	r2, [r0, r2]	@ zero_extendqisi2
 1819 0030 D243     		mvns	r2, r2
 1820 0032 D2B2     		uxtb	r2, r2
 1821 0034 0A40     		ands	r2, r2, r1
 1822 0036 D2B2     		uxtb	r2, r2
 1823 0038 1A70     		strb	r2, [r3]
1054:Generated_Source\PSoC5/cyfitter_cfg.c **** 		channel++;
 1824              		.loc 1 1054 0
 1825 003a FB79     		ldrb	r3, [r7, #7]	@ zero_extendqisi2
 1826 003c 0133     		adds	r3, r3, #1
 1827 003e FB71     		strb	r3, [r7, #7]
1055:Generated_Source\PSoC5/cyfitter_cfg.c **** 		*AMux_1_CYAMUXSIDE_B__addrTable[channel] &= (uint8)~AMux_1_CYAMUXSIDE_B__maskTable[channel];
 1828              		.loc 1 1055 0
 1829 0040 FB79     		ldrb	r3, [r7, #7]	@ zero_extendqisi2
 1830 0042 0A4A     		ldr	r2, .L51
 1831 0044 52F82330 		ldr	r3, [r2, r3, lsl #2]
 1832 0048 FA79     		ldrb	r2, [r7, #7]	@ zero_extendqisi2
 1833 004a 0849     		ldr	r1, .L51
 1834 004c 51F82220 		ldr	r2, [r1, r2, lsl #2]
 1835 0050 1178     		ldrb	r1, [r2]	@ zero_extendqisi2
 1836 0052 FA79     		ldrb	r2, [r7, #7]	@ zero_extendqisi2
 1837 0054 0648     		ldr	r0, .L51+4
 1838 0056 825C     		ldrb	r2, [r0, r2]	@ zero_extendqisi2
 1839 0058 D243     		mvns	r2, r2
 1840 005a D2B2     		uxtb	r2, r2
 1841 005c 0A40     		ands	r2, r2, r1
 1842 005e D2B2     		uxtb	r2, r2
 1843 0060 1A70     		strb	r2, [r3]
 1844              	.L50:
1056:Generated_Source\PSoC5/cyfitter_cfg.c **** 	}
1057:Generated_Source\PSoC5/cyfitter_cfg.c **** }
 1845              		.loc 1 1057 0
ARM GAS  C:\Users\JEFFSN~1\AppData\Local\Temp\ccuEuQhg.s 			page 52


 1846 0062 00BF     		nop
 1847 0064 0C37     		adds	r7, r7, #12
 1848              		.cfi_def_cfa_offset 4
 1849 0066 BD46     		mov	sp, r7
 1850              		.cfi_def_cfa_register 13
 1851              		@ sp needed
 1852 0068 80BC     		pop	{r7}
 1853              		.cfi_restore 7
 1854              		.cfi_def_cfa_offset 0
 1855 006a 7047     		bx	lr
 1856              	.L52:
 1857              		.align	2
 1858              	.L51:
 1859 006c 00000000 		.word	AMux_1_CYAMUXSIDE_B__addrTable
 1860 0070 00000000 		.word	AMux_1_CYAMUXSIDE_B__maskTable
 1861              		.cfi_endproc
 1862              	.LFE11:
 1863              		.size	AMux_1_CYAMUXSIDE_B_Unset, .-AMux_1_CYAMUXSIDE_B_Unset
 1864              		.section	.rodata
 1865              		.align	2
 1866              		.type	AMux_2__outerAddr, %object
 1867              		.size	AMux_2__outerAddr, 8
 1868              	AMux_2__outerAddr:
 1869 004c 435B0040 		.word	1073765187
 1870 0050 585B0040 		.word	1073765208
 1871              		.align	2
 1872              		.type	AMux_2__outerMask, %object
 1873              		.size	AMux_2__outerMask, 2
 1874              	AMux_2__outerMask:
 1875 0054 01       		.byte	1
 1876 0055 10       		.byte	16
 1877 0056 0000     		.align	2
 1878              		.type	AMux_2__innerAddr, %object
 1879              		.size	AMux_2__innerAddr, 4
 1880              	AMux_2__innerAddr:
 1881 0058 9C5A0040 		.word	1073765020
 1882              		.align	2
 1883              		.type	AMux_2__innerMask, %object
 1884              		.size	AMux_2__innerMask, 1
 1885              	AMux_2__innerMask:
 1886 005c 10       		.byte	16
 1887 005d 000000   		.align	2
 1888              		.type	AMux_2__innerMap, %object
 1889              		.size	AMux_2__innerMap, 2
 1890              	AMux_2__innerMap:
 1891 0060 0000     		.space	2
 1892              		.bss
 1893              	AMux_2__armsEnabled:
 1894 0006 00       		.space	1
 1895 0007 00       		.align	2
 1896              	AMux_2__refCnt:
 1897 0008 00       		.space	1
 1898              		.section	.text.AMux_2_Set,"ax",%progbits
 1899              		.align	2
 1900              		.global	AMux_2_Set
 1901              		.thumb
 1902              		.thumb_func
ARM GAS  C:\Users\JEFFSN~1\AppData\Local\Temp\ccuEuQhg.s 			page 53


 1903              		.type	AMux_2_Set, %function
 1904              	AMux_2_Set:
 1905              	.LFB12:
1058:Generated_Source\PSoC5/cyfitter_cfg.c **** 
1059:Generated_Source\PSoC5/cyfitter_cfg.c **** static uint8 CYXDATA * const CYCODE AMux_2__outerAddr[2] = {
1060:Generated_Source\PSoC5/cyfitter_cfg.c **** 	(uint8 CYXDATA *)CYREG_OPAMP1_SW, 
1061:Generated_Source\PSoC5/cyfitter_cfg.c **** 	(uint8 CYXDATA *)CYREG_BUS_SW0, 
1062:Generated_Source\PSoC5/cyfitter_cfg.c **** };
1063:Generated_Source\PSoC5/cyfitter_cfg.c **** 
1064:Generated_Source\PSoC5/cyfitter_cfg.c **** static const uint8 CYCODE AMux_2__outerMask[2] = {
1065:Generated_Source\PSoC5/cyfitter_cfg.c **** 	0x01u, 
1066:Generated_Source\PSoC5/cyfitter_cfg.c **** 	0x10u, 
1067:Generated_Source\PSoC5/cyfitter_cfg.c **** };
1068:Generated_Source\PSoC5/cyfitter_cfg.c **** 
1069:Generated_Source\PSoC5/cyfitter_cfg.c **** static uint8 CYXDATA * const CYCODE AMux_2__innerAddr[1] = {
1070:Generated_Source\PSoC5/cyfitter_cfg.c **** 	(uint8 CYXDATA *)CYREG_DAC3_SW4, 
1071:Generated_Source\PSoC5/cyfitter_cfg.c **** };
1072:Generated_Source\PSoC5/cyfitter_cfg.c **** 
1073:Generated_Source\PSoC5/cyfitter_cfg.c **** static const uint8 CYCODE AMux_2__innerMask[1] = {
1074:Generated_Source\PSoC5/cyfitter_cfg.c **** 	0x10u, 
1075:Generated_Source\PSoC5/cyfitter_cfg.c **** };
1076:Generated_Source\PSoC5/cyfitter_cfg.c **** 
1077:Generated_Source\PSoC5/cyfitter_cfg.c **** static const uint8 CYCODE AMux_2__innerMap[2] = {
1078:Generated_Source\PSoC5/cyfitter_cfg.c **** 	0u, 
1079:Generated_Source\PSoC5/cyfitter_cfg.c **** 	0u, 
1080:Generated_Source\PSoC5/cyfitter_cfg.c **** };
1081:Generated_Source\PSoC5/cyfitter_cfg.c **** 
1082:Generated_Source\PSoC5/cyfitter_cfg.c **** static uint8 AMux_2__armsEnabled = 0u;
1083:Generated_Source\PSoC5/cyfitter_cfg.c **** static uint8 AMux_2__refCnt[] = {0u};
1084:Generated_Source\PSoC5/cyfitter_cfg.c **** 
1085:Generated_Source\PSoC5/cyfitter_cfg.c **** /*******************************************************************************
1086:Generated_Source\PSoC5/cyfitter_cfg.c **** * Function Name: AMux_2_Set
1087:Generated_Source\PSoC5/cyfitter_cfg.c **** ********************************************************************************
1088:Generated_Source\PSoC5/cyfitter_cfg.c **** * Summary:
1089:Generated_Source\PSoC5/cyfitter_cfg.c **** *  This function is used to set a particular channel as active on the AMux.
1090:Generated_Source\PSoC5/cyfitter_cfg.c **** *
1091:Generated_Source\PSoC5/cyfitter_cfg.c **** * Parameters:  
1092:Generated_Source\PSoC5/cyfitter_cfg.c **** *   channel - The mux channel input to set as active
1093:Generated_Source\PSoC5/cyfitter_cfg.c **** *
1094:Generated_Source\PSoC5/cyfitter_cfg.c **** * Return:
1095:Generated_Source\PSoC5/cyfitter_cfg.c **** *   void
1096:Generated_Source\PSoC5/cyfitter_cfg.c **** *
1097:Generated_Source\PSoC5/cyfitter_cfg.c **** *******************************************************************************/
1098:Generated_Source\PSoC5/cyfitter_cfg.c **** void AMux_2_Set(uint8 channel)
1099:Generated_Source\PSoC5/cyfitter_cfg.c **** {
 1906              		.loc 1 1099 0
 1907              		.cfi_startproc
 1908              		@ args = 0, pretend = 0, frame = 16
 1909              		@ frame_needed = 1, uses_anonymous_args = 0
 1910              		@ link register save eliminated.
 1911 0000 80B4     		push	{r7}
 1912              		.cfi_def_cfa_offset 4
 1913              		.cfi_offset 7, -4
 1914 0002 85B0     		sub	sp, sp, #20
 1915              		.cfi_def_cfa_offset 24
 1916 0004 00AF     		add	r7, sp, #0
 1917              		.cfi_def_cfa_register 7
ARM GAS  C:\Users\JEFFSN~1\AppData\Local\Temp\ccuEuQhg.s 			page 54


 1918 0006 0346     		mov	r3, r0
 1919 0008 FB71     		strb	r3, [r7, #7]
1100:Generated_Source\PSoC5/cyfitter_cfg.c **** 	uint8 i;
1101:Generated_Source\PSoC5/cyfitter_cfg.c **** 	uint8 channelMask = (1UL << channel);
 1920              		.loc 1 1101 0
 1921 000a FB79     		ldrb	r3, [r7, #7]	@ zero_extendqisi2
 1922 000c 0122     		movs	r2, #1
 1923 000e 02FA03F3 		lsl	r3, r2, r3
 1924 0012 FB73     		strb	r3, [r7, #15]
1102:Generated_Source\PSoC5/cyfitter_cfg.c **** 	if ((channel < 2u) && ((AMux_2__armsEnabled & channelMask) == ((uint32)0u)))
 1925              		.loc 1 1102 0
 1926 0014 FB79     		ldrb	r3, [r7, #7]	@ zero_extendqisi2
 1927 0016 012B     		cmp	r3, #1
 1928 0018 33D8     		bhi	.L56
 1929              		.loc 1 1102 0 is_stmt 0 discriminator 1
 1930 001a 1C4B     		ldr	r3, .L57
 1931 001c 1A78     		ldrb	r2, [r3]	@ zero_extendqisi2
 1932 001e FB7B     		ldrb	r3, [r7, #15]
 1933 0020 1340     		ands	r3, r3, r2
 1934 0022 DBB2     		uxtb	r3, r3
 1935 0024 002B     		cmp	r3, #0
 1936 0026 2CD1     		bne	.L56
1103:Generated_Source\PSoC5/cyfitter_cfg.c **** 	{
1104:Generated_Source\PSoC5/cyfitter_cfg.c **** 		AMux_2__armsEnabled |= channelMask;
 1937              		.loc 1 1104 0 is_stmt 1
 1938 0028 184B     		ldr	r3, .L57
 1939 002a 1A78     		ldrb	r2, [r3]	@ zero_extendqisi2
 1940 002c FB7B     		ldrb	r3, [r7, #15]
 1941 002e 1343     		orrs	r3, r3, r2
 1942 0030 DAB2     		uxtb	r2, r3
 1943 0032 164B     		ldr	r3, .L57
 1944 0034 1A70     		strb	r2, [r3]
1105:Generated_Source\PSoC5/cyfitter_cfg.c **** 		*AMux_2__outerAddr[channel] |= AMux_2__outerMask[channel];
 1945              		.loc 1 1105 0
 1946 0036 FB79     		ldrb	r3, [r7, #7]	@ zero_extendqisi2
 1947 0038 154A     		ldr	r2, .L57+4
 1948 003a 52F82330 		ldr	r3, [r2, r3, lsl #2]
 1949 003e FA79     		ldrb	r2, [r7, #7]	@ zero_extendqisi2
 1950 0040 1349     		ldr	r1, .L57+4
 1951 0042 51F82220 		ldr	r2, [r1, r2, lsl #2]
 1952 0046 1178     		ldrb	r1, [r2]	@ zero_extendqisi2
 1953 0048 FA79     		ldrb	r2, [r7, #7]	@ zero_extendqisi2
 1954 004a 1248     		ldr	r0, .L57+8
 1955 004c 825C     		ldrb	r2, [r0, r2]	@ zero_extendqisi2
 1956 004e 0A43     		orrs	r2, r2, r1
 1957 0050 D2B2     		uxtb	r2, r2
 1958 0052 1A70     		strb	r2, [r3]
1106:Generated_Source\PSoC5/cyfitter_cfg.c **** 		i = AMux_2__innerMap[channel];
 1959              		.loc 1 1106 0
 1960 0054 FB79     		ldrb	r3, [r7, #7]	@ zero_extendqisi2
 1961 0056 104A     		ldr	r2, .L57+12
 1962 0058 D35C     		ldrb	r3, [r2, r3]
 1963 005a BB73     		strb	r3, [r7, #14]
1107:Generated_Source\PSoC5/cyfitter_cfg.c **** 		if (AMux_2__refCnt[i] == 0u)
 1964              		.loc 1 1107 0
 1965 005c BB7B     		ldrb	r3, [r7, #14]	@ zero_extendqisi2
 1966 005e 0F4A     		ldr	r2, .L57+16
ARM GAS  C:\Users\JEFFSN~1\AppData\Local\Temp\ccuEuQhg.s 			page 55


 1967 0060 D35C     		ldrb	r3, [r2, r3]	@ zero_extendqisi2
 1968 0062 002B     		cmp	r3, #0
 1969 0064 06D1     		bne	.L55
1108:Generated_Source\PSoC5/cyfitter_cfg.c **** 		{
1109:Generated_Source\PSoC5/cyfitter_cfg.c **** 			*AMux_2__innerAddr[i] |= AMux_2__innerMask[i];
 1970              		.loc 1 1109 0
 1971 0066 0E4A     		ldr	r2, .L57+20
 1972 0068 0D4B     		ldr	r3, .L57+20
 1973 006a 1B78     		ldrb	r3, [r3]	@ zero_extendqisi2
 1974 006c 1021     		movs	r1, #16
 1975 006e 0B43     		orrs	r3, r3, r1
 1976 0070 DBB2     		uxtb	r3, r3
 1977 0072 1370     		strb	r3, [r2]
 1978              	.L55:
1110:Generated_Source\PSoC5/cyfitter_cfg.c **** 		}
1111:Generated_Source\PSoC5/cyfitter_cfg.c **** 		AMux_2__refCnt[i]++;
 1979              		.loc 1 1111 0
 1980 0074 BB7B     		ldrb	r3, [r7, #14]	@ zero_extendqisi2
 1981 0076 094A     		ldr	r2, .L57+16
 1982 0078 D25C     		ldrb	r2, [r2, r3]	@ zero_extendqisi2
 1983 007a 0132     		adds	r2, r2, #1
 1984 007c D1B2     		uxtb	r1, r2
 1985 007e 074A     		ldr	r2, .L57+16
 1986 0080 D154     		strb	r1, [r2, r3]
 1987              	.L56:
1112:Generated_Source\PSoC5/cyfitter_cfg.c **** 	}
1113:Generated_Source\PSoC5/cyfitter_cfg.c **** }
 1988              		.loc 1 1113 0
 1989 0082 00BF     		nop
 1990 0084 1437     		adds	r7, r7, #20
 1991              		.cfi_def_cfa_offset 4
 1992 0086 BD46     		mov	sp, r7
 1993              		.cfi_def_cfa_register 13
 1994              		@ sp needed
 1995 0088 80BC     		pop	{r7}
 1996              		.cfi_restore 7
 1997              		.cfi_def_cfa_offset 0
 1998 008a 7047     		bx	lr
 1999              	.L58:
 2000              		.align	2
 2001              	.L57:
 2002 008c 06000000 		.word	AMux_2__armsEnabled
 2003 0090 4C000000 		.word	AMux_2__outerAddr
 2004 0094 54000000 		.word	AMux_2__outerMask
 2005 0098 60000000 		.word	AMux_2__innerMap
 2006 009c 08000000 		.word	AMux_2__refCnt
 2007 00a0 9C5A0040 		.word	1073765020
 2008              		.cfi_endproc
 2009              	.LFE12:
 2010              		.size	AMux_2_Set, .-AMux_2_Set
 2011              		.section	.text.AMux_2_Unset,"ax",%progbits
 2012              		.align	2
 2013              		.global	AMux_2_Unset
 2014              		.thumb
 2015              		.thumb_func
 2016              		.type	AMux_2_Unset, %function
 2017              	AMux_2_Unset:
ARM GAS  C:\Users\JEFFSN~1\AppData\Local\Temp\ccuEuQhg.s 			page 56


 2018              	.LFB13:
1114:Generated_Source\PSoC5/cyfitter_cfg.c **** 
1115:Generated_Source\PSoC5/cyfitter_cfg.c **** /*******************************************************************************
1116:Generated_Source\PSoC5/cyfitter_cfg.c **** * Function Name: AMux_2_Unset
1117:Generated_Source\PSoC5/cyfitter_cfg.c **** ********************************************************************************
1118:Generated_Source\PSoC5/cyfitter_cfg.c **** * Summary:
1119:Generated_Source\PSoC5/cyfitter_cfg.c **** *  This function is used to clear a particular channel from being active on the
1120:Generated_Source\PSoC5/cyfitter_cfg.c **** *  AMux.
1121:Generated_Source\PSoC5/cyfitter_cfg.c **** *
1122:Generated_Source\PSoC5/cyfitter_cfg.c **** * Parameters:  
1123:Generated_Source\PSoC5/cyfitter_cfg.c **** *   channel - The mux channel input to mark inactive
1124:Generated_Source\PSoC5/cyfitter_cfg.c **** *
1125:Generated_Source\PSoC5/cyfitter_cfg.c **** * Return:
1126:Generated_Source\PSoC5/cyfitter_cfg.c **** *   void
1127:Generated_Source\PSoC5/cyfitter_cfg.c **** *
1128:Generated_Source\PSoC5/cyfitter_cfg.c **** *******************************************************************************/
1129:Generated_Source\PSoC5/cyfitter_cfg.c **** void AMux_2_Unset(uint8 channel)
1130:Generated_Source\PSoC5/cyfitter_cfg.c **** {
 2019              		.loc 1 1130 0
 2020              		.cfi_startproc
 2021              		@ args = 0, pretend = 0, frame = 16
 2022              		@ frame_needed = 1, uses_anonymous_args = 0
 2023              		@ link register save eliminated.
 2024 0000 80B4     		push	{r7}
 2025              		.cfi_def_cfa_offset 4
 2026              		.cfi_offset 7, -4
 2027 0002 85B0     		sub	sp, sp, #20
 2028              		.cfi_def_cfa_offset 24
 2029 0004 00AF     		add	r7, sp, #0
 2030              		.cfi_def_cfa_register 7
 2031 0006 0346     		mov	r3, r0
 2032 0008 FB71     		strb	r3, [r7, #7]
1131:Generated_Source\PSoC5/cyfitter_cfg.c **** 	uint8 i;
1132:Generated_Source\PSoC5/cyfitter_cfg.c **** 	uint8 channelMask = (1UL << channel);
 2033              		.loc 1 1132 0
 2034 000a FB79     		ldrb	r3, [r7, #7]	@ zero_extendqisi2
 2035 000c 0122     		movs	r2, #1
 2036 000e 02FA03F3 		lsl	r3, r2, r3
 2037 0012 FB73     		strb	r3, [r7, #15]
1133:Generated_Source\PSoC5/cyfitter_cfg.c **** 	if ((channel < 2u) && ((AMux_2__armsEnabled & channelMask) != ((uint32)0u)))
 2038              		.loc 1 1133 0
 2039 0014 FB79     		ldrb	r3, [r7, #7]	@ zero_extendqisi2
 2040 0016 012B     		cmp	r3, #1
 2041 0018 39D8     		bhi	.L61
 2042              		.loc 1 1133 0 is_stmt 0 discriminator 1
 2043 001a 1F4B     		ldr	r3, .L62
 2044 001c 1A78     		ldrb	r2, [r3]	@ zero_extendqisi2
 2045 001e FB7B     		ldrb	r3, [r7, #15]
 2046 0020 1340     		ands	r3, r3, r2
 2047 0022 DBB2     		uxtb	r3, r3
 2048 0024 002B     		cmp	r3, #0
 2049 0026 32D0     		beq	.L61
1134:Generated_Source\PSoC5/cyfitter_cfg.c **** 	{
1135:Generated_Source\PSoC5/cyfitter_cfg.c **** 		AMux_2__armsEnabled &= (uint8)~channelMask;
 2050              		.loc 1 1135 0 is_stmt 1
 2051 0028 FB7B     		ldrb	r3, [r7, #15]
 2052 002a DB43     		mvns	r3, r3
ARM GAS  C:\Users\JEFFSN~1\AppData\Local\Temp\ccuEuQhg.s 			page 57


 2053 002c DAB2     		uxtb	r2, r3
 2054 002e 1A4B     		ldr	r3, .L62
 2055 0030 1B78     		ldrb	r3, [r3]	@ zero_extendqisi2
 2056 0032 1340     		ands	r3, r3, r2
 2057 0034 DAB2     		uxtb	r2, r3
 2058 0036 184B     		ldr	r3, .L62
 2059 0038 1A70     		strb	r2, [r3]
1136:Generated_Source\PSoC5/cyfitter_cfg.c **** 		*AMux_2__outerAddr[channel] &= (uint8)~AMux_2__outerMask[channel];
 2060              		.loc 1 1136 0
 2061 003a FB79     		ldrb	r3, [r7, #7]	@ zero_extendqisi2
 2062 003c 174A     		ldr	r2, .L62+4
 2063 003e 52F82330 		ldr	r3, [r2, r3, lsl #2]
 2064 0042 FA79     		ldrb	r2, [r7, #7]	@ zero_extendqisi2
 2065 0044 1549     		ldr	r1, .L62+4
 2066 0046 51F82220 		ldr	r2, [r1, r2, lsl #2]
 2067 004a 1178     		ldrb	r1, [r2]	@ zero_extendqisi2
 2068 004c FA79     		ldrb	r2, [r7, #7]	@ zero_extendqisi2
 2069 004e 1448     		ldr	r0, .L62+8
 2070 0050 825C     		ldrb	r2, [r0, r2]	@ zero_extendqisi2
 2071 0052 D243     		mvns	r2, r2
 2072 0054 D2B2     		uxtb	r2, r2
 2073 0056 0A40     		ands	r2, r2, r1
 2074 0058 D2B2     		uxtb	r2, r2
 2075 005a 1A70     		strb	r2, [r3]
1137:Generated_Source\PSoC5/cyfitter_cfg.c **** 		i = AMux_2__innerMap[channel];
 2076              		.loc 1 1137 0
 2077 005c FB79     		ldrb	r3, [r7, #7]	@ zero_extendqisi2
 2078 005e 114A     		ldr	r2, .L62+12
 2079 0060 D35C     		ldrb	r3, [r2, r3]
 2080 0062 BB73     		strb	r3, [r7, #14]
1138:Generated_Source\PSoC5/cyfitter_cfg.c **** 		AMux_2__refCnt[i]--;
 2081              		.loc 1 1138 0
 2082 0064 BB7B     		ldrb	r3, [r7, #14]	@ zero_extendqisi2
 2083 0066 104A     		ldr	r2, .L62+16
 2084 0068 D25C     		ldrb	r2, [r2, r3]	@ zero_extendqisi2
 2085 006a 013A     		subs	r2, r2, #1
 2086 006c D1B2     		uxtb	r1, r2
 2087 006e 0E4A     		ldr	r2, .L62+16
 2088 0070 D154     		strb	r1, [r2, r3]
1139:Generated_Source\PSoC5/cyfitter_cfg.c **** 		if (AMux_2__refCnt[i] == 0)
 2089              		.loc 1 1139 0
 2090 0072 BB7B     		ldrb	r3, [r7, #14]	@ zero_extendqisi2
 2091 0074 0C4A     		ldr	r2, .L62+16
 2092 0076 D35C     		ldrb	r3, [r2, r3]	@ zero_extendqisi2
 2093 0078 002B     		cmp	r3, #0
 2094 007a 08D1     		bne	.L61
1140:Generated_Source\PSoC5/cyfitter_cfg.c **** 		{
1141:Generated_Source\PSoC5/cyfitter_cfg.c **** 			*AMux_2__innerAddr[i] &= (uint8)~AMux_2__innerMask[i];
 2095              		.loc 1 1141 0
 2096 007c 0B49     		ldr	r1, .L62+20
 2097 007e 0B4B     		ldr	r3, .L62+20
 2098 0080 1A78     		ldrb	r2, [r3]	@ zero_extendqisi2
 2099 0082 1023     		movs	r3, #16
 2100 0084 DB43     		mvns	r3, r3
 2101 0086 DBB2     		uxtb	r3, r3
 2102 0088 1340     		ands	r3, r3, r2
 2103 008a DBB2     		uxtb	r3, r3
ARM GAS  C:\Users\JEFFSN~1\AppData\Local\Temp\ccuEuQhg.s 			page 58


 2104 008c 0B70     		strb	r3, [r1]
 2105              	.L61:
1142:Generated_Source\PSoC5/cyfitter_cfg.c **** 		}
1143:Generated_Source\PSoC5/cyfitter_cfg.c **** 	}
1144:Generated_Source\PSoC5/cyfitter_cfg.c **** }
 2106              		.loc 1 1144 0
 2107 008e 00BF     		nop
 2108 0090 1437     		adds	r7, r7, #20
 2109              		.cfi_def_cfa_offset 4
 2110 0092 BD46     		mov	sp, r7
 2111              		.cfi_def_cfa_register 13
 2112              		@ sp needed
 2113 0094 80BC     		pop	{r7}
 2114              		.cfi_restore 7
 2115              		.cfi_def_cfa_offset 0
 2116 0096 7047     		bx	lr
 2117              	.L63:
 2118              		.align	2
 2119              	.L62:
 2120 0098 06000000 		.word	AMux_2__armsEnabled
 2121 009c 4C000000 		.word	AMux_2__outerAddr
 2122 00a0 54000000 		.word	AMux_2__outerMask
 2123 00a4 60000000 		.word	AMux_2__innerMap
 2124 00a8 08000000 		.word	AMux_2__refCnt
 2125 00ac 9C5A0040 		.word	1073765020
 2126              		.cfi_endproc
 2127              	.LFE13:
 2128              		.size	AMux_2_Unset, .-AMux_2_Unset
 2129              		.section	.rodata
 2130 0062 0000     		.align	2
 2131              		.type	AMux_3__outerAddr, %object
 2132              		.size	AMux_3__outerAddr, 8
 2133              	AMux_3__outerAddr:
 2134 0064 5C510040 		.word	1073762652
 2135 0068 5C510040 		.word	1073762652
 2136              		.align	2
 2137              		.type	AMux_3__outerMask, %object
 2138              		.size	AMux_3__outerMask, 2
 2139              	AMux_3__outerMask:
 2140 006c 04       		.byte	4
 2141 006d 08       		.byte	8
 2142 006e 0000     		.align	2
 2143              		.type	AMux_3__innerAddr, %object
 2144              		.size	AMux_3__innerAddr, 4
 2145              	AMux_3__innerAddr:
 2146 0070 8B5A0040 		.word	1073765003
 2147              		.align	2
 2148              		.type	AMux_3__innerMask, %object
 2149              		.size	AMux_3__innerMask, 1
 2150              	AMux_3__innerMask:
 2151 0074 10       		.byte	16
 2152 0075 000000   		.align	2
 2153              		.type	AMux_3__innerMap, %object
 2154              		.size	AMux_3__innerMap, 2
 2155              	AMux_3__innerMap:
 2156 0078 0000     		.space	2
 2157              		.bss
ARM GAS  C:\Users\JEFFSN~1\AppData\Local\Temp\ccuEuQhg.s 			page 59


 2158              	AMux_3__armsEnabled:
 2159 0009 00       		.space	1
 2160 000a 0000     		.align	2
 2161              	AMux_3__refCnt:
 2162 000c 00       		.space	1
 2163              		.section	.text.AMux_3_Set,"ax",%progbits
 2164              		.align	2
 2165              		.global	AMux_3_Set
 2166              		.thumb
 2167              		.thumb_func
 2168              		.type	AMux_3_Set, %function
 2169              	AMux_3_Set:
 2170              	.LFB14:
1145:Generated_Source\PSoC5/cyfitter_cfg.c **** 
1146:Generated_Source\PSoC5/cyfitter_cfg.c **** static uint8 CYXDATA * const CYCODE AMux_3__outerAddr[2] = {
1147:Generated_Source\PSoC5/cyfitter_cfg.c **** 	(uint8 CYXDATA *)CYREG_PRT5_AMUX, 
1148:Generated_Source\PSoC5/cyfitter_cfg.c **** 	(uint8 CYXDATA *)CYREG_PRT5_AMUX, 
1149:Generated_Source\PSoC5/cyfitter_cfg.c **** };
1150:Generated_Source\PSoC5/cyfitter_cfg.c **** 
1151:Generated_Source\PSoC5/cyfitter_cfg.c **** static const uint8 CYCODE AMux_3__outerMask[2] = {
1152:Generated_Source\PSoC5/cyfitter_cfg.c **** 	0x04u, 
1153:Generated_Source\PSoC5/cyfitter_cfg.c **** 	0x08u, 
1154:Generated_Source\PSoC5/cyfitter_cfg.c **** };
1155:Generated_Source\PSoC5/cyfitter_cfg.c **** 
1156:Generated_Source\PSoC5/cyfitter_cfg.c **** static uint8 CYXDATA * const CYCODE AMux_3__innerAddr[1] = {
1157:Generated_Source\PSoC5/cyfitter_cfg.c **** 	(uint8 CYXDATA *)CYREG_DAC1_SW3, 
1158:Generated_Source\PSoC5/cyfitter_cfg.c **** };
1159:Generated_Source\PSoC5/cyfitter_cfg.c **** 
1160:Generated_Source\PSoC5/cyfitter_cfg.c **** static const uint8 CYCODE AMux_3__innerMask[1] = {
1161:Generated_Source\PSoC5/cyfitter_cfg.c **** 	0x10u, 
1162:Generated_Source\PSoC5/cyfitter_cfg.c **** };
1163:Generated_Source\PSoC5/cyfitter_cfg.c **** 
1164:Generated_Source\PSoC5/cyfitter_cfg.c **** static const uint8 CYCODE AMux_3__innerMap[2] = {
1165:Generated_Source\PSoC5/cyfitter_cfg.c **** 	0u, 
1166:Generated_Source\PSoC5/cyfitter_cfg.c **** 	0u, 
1167:Generated_Source\PSoC5/cyfitter_cfg.c **** };
1168:Generated_Source\PSoC5/cyfitter_cfg.c **** 
1169:Generated_Source\PSoC5/cyfitter_cfg.c **** static uint8 AMux_3__armsEnabled = 0u;
1170:Generated_Source\PSoC5/cyfitter_cfg.c **** static uint8 AMux_3__refCnt[] = {0u};
1171:Generated_Source\PSoC5/cyfitter_cfg.c **** 
1172:Generated_Source\PSoC5/cyfitter_cfg.c **** /*******************************************************************************
1173:Generated_Source\PSoC5/cyfitter_cfg.c **** * Function Name: AMux_3_Set
1174:Generated_Source\PSoC5/cyfitter_cfg.c **** ********************************************************************************
1175:Generated_Source\PSoC5/cyfitter_cfg.c **** * Summary:
1176:Generated_Source\PSoC5/cyfitter_cfg.c **** *  This function is used to set a particular channel as active on the AMux.
1177:Generated_Source\PSoC5/cyfitter_cfg.c **** *
1178:Generated_Source\PSoC5/cyfitter_cfg.c **** * Parameters:  
1179:Generated_Source\PSoC5/cyfitter_cfg.c **** *   channel - The mux channel input to set as active
1180:Generated_Source\PSoC5/cyfitter_cfg.c **** *
1181:Generated_Source\PSoC5/cyfitter_cfg.c **** * Return:
1182:Generated_Source\PSoC5/cyfitter_cfg.c **** *   void
1183:Generated_Source\PSoC5/cyfitter_cfg.c **** *
1184:Generated_Source\PSoC5/cyfitter_cfg.c **** *******************************************************************************/
1185:Generated_Source\PSoC5/cyfitter_cfg.c **** void AMux_3_Set(uint8 channel)
1186:Generated_Source\PSoC5/cyfitter_cfg.c **** {
 2171              		.loc 1 1186 0
 2172              		.cfi_startproc
ARM GAS  C:\Users\JEFFSN~1\AppData\Local\Temp\ccuEuQhg.s 			page 60


 2173              		@ args = 0, pretend = 0, frame = 16
 2174              		@ frame_needed = 1, uses_anonymous_args = 0
 2175              		@ link register save eliminated.
 2176 0000 80B4     		push	{r7}
 2177              		.cfi_def_cfa_offset 4
 2178              		.cfi_offset 7, -4
 2179 0002 85B0     		sub	sp, sp, #20
 2180              		.cfi_def_cfa_offset 24
 2181 0004 00AF     		add	r7, sp, #0
 2182              		.cfi_def_cfa_register 7
 2183 0006 0346     		mov	r3, r0
 2184 0008 FB71     		strb	r3, [r7, #7]
1187:Generated_Source\PSoC5/cyfitter_cfg.c **** 	uint8 i;
1188:Generated_Source\PSoC5/cyfitter_cfg.c **** 	uint8 channelMask = (1UL << channel);
 2185              		.loc 1 1188 0
 2186 000a FB79     		ldrb	r3, [r7, #7]	@ zero_extendqisi2
 2187 000c 0122     		movs	r2, #1
 2188 000e 02FA03F3 		lsl	r3, r2, r3
 2189 0012 FB73     		strb	r3, [r7, #15]
1189:Generated_Source\PSoC5/cyfitter_cfg.c **** 	if ((channel < 2u) && ((AMux_3__armsEnabled & channelMask) == ((uint32)0u)))
 2190              		.loc 1 1189 0
 2191 0014 FB79     		ldrb	r3, [r7, #7]	@ zero_extendqisi2
 2192 0016 012B     		cmp	r3, #1
 2193 0018 33D8     		bhi	.L67
 2194              		.loc 1 1189 0 is_stmt 0 discriminator 1
 2195 001a 1C4B     		ldr	r3, .L68
 2196 001c 1A78     		ldrb	r2, [r3]	@ zero_extendqisi2
 2197 001e FB7B     		ldrb	r3, [r7, #15]
 2198 0020 1340     		ands	r3, r3, r2
 2199 0022 DBB2     		uxtb	r3, r3
 2200 0024 002B     		cmp	r3, #0
 2201 0026 2CD1     		bne	.L67
1190:Generated_Source\PSoC5/cyfitter_cfg.c **** 	{
1191:Generated_Source\PSoC5/cyfitter_cfg.c **** 		AMux_3__armsEnabled |= channelMask;
 2202              		.loc 1 1191 0 is_stmt 1
 2203 0028 184B     		ldr	r3, .L68
 2204 002a 1A78     		ldrb	r2, [r3]	@ zero_extendqisi2
 2205 002c FB7B     		ldrb	r3, [r7, #15]
 2206 002e 1343     		orrs	r3, r3, r2
 2207 0030 DAB2     		uxtb	r2, r3
 2208 0032 164B     		ldr	r3, .L68
 2209 0034 1A70     		strb	r2, [r3]
1192:Generated_Source\PSoC5/cyfitter_cfg.c **** 		*AMux_3__outerAddr[channel] |= AMux_3__outerMask[channel];
 2210              		.loc 1 1192 0
 2211 0036 FB79     		ldrb	r3, [r7, #7]	@ zero_extendqisi2
 2212 0038 154A     		ldr	r2, .L68+4
 2213 003a 52F82330 		ldr	r3, [r2, r3, lsl #2]
 2214 003e FA79     		ldrb	r2, [r7, #7]	@ zero_extendqisi2
 2215 0040 1349     		ldr	r1, .L68+4
 2216 0042 51F82220 		ldr	r2, [r1, r2, lsl #2]
 2217 0046 1178     		ldrb	r1, [r2]	@ zero_extendqisi2
 2218 0048 FA79     		ldrb	r2, [r7, #7]	@ zero_extendqisi2
 2219 004a 1248     		ldr	r0, .L68+8
 2220 004c 825C     		ldrb	r2, [r0, r2]	@ zero_extendqisi2
 2221 004e 0A43     		orrs	r2, r2, r1
 2222 0050 D2B2     		uxtb	r2, r2
 2223 0052 1A70     		strb	r2, [r3]
ARM GAS  C:\Users\JEFFSN~1\AppData\Local\Temp\ccuEuQhg.s 			page 61


1193:Generated_Source\PSoC5/cyfitter_cfg.c **** 		i = AMux_3__innerMap[channel];
 2224              		.loc 1 1193 0
 2225 0054 FB79     		ldrb	r3, [r7, #7]	@ zero_extendqisi2
 2226 0056 104A     		ldr	r2, .L68+12
 2227 0058 D35C     		ldrb	r3, [r2, r3]
 2228 005a BB73     		strb	r3, [r7, #14]
1194:Generated_Source\PSoC5/cyfitter_cfg.c **** 		if (AMux_3__refCnt[i] == 0u)
 2229              		.loc 1 1194 0
 2230 005c BB7B     		ldrb	r3, [r7, #14]	@ zero_extendqisi2
 2231 005e 0F4A     		ldr	r2, .L68+16
 2232 0060 D35C     		ldrb	r3, [r2, r3]	@ zero_extendqisi2
 2233 0062 002B     		cmp	r3, #0
 2234 0064 06D1     		bne	.L66
1195:Generated_Source\PSoC5/cyfitter_cfg.c **** 		{
1196:Generated_Source\PSoC5/cyfitter_cfg.c **** 			*AMux_3__innerAddr[i] |= AMux_3__innerMask[i];
 2235              		.loc 1 1196 0
 2236 0066 0E4A     		ldr	r2, .L68+20
 2237 0068 0D4B     		ldr	r3, .L68+20
 2238 006a 1B78     		ldrb	r3, [r3]	@ zero_extendqisi2
 2239 006c 1021     		movs	r1, #16
 2240 006e 0B43     		orrs	r3, r3, r1
 2241 0070 DBB2     		uxtb	r3, r3
 2242 0072 1370     		strb	r3, [r2]
 2243              	.L66:
1197:Generated_Source\PSoC5/cyfitter_cfg.c **** 		}
1198:Generated_Source\PSoC5/cyfitter_cfg.c **** 		AMux_3__refCnt[i]++;
 2244              		.loc 1 1198 0
 2245 0074 BB7B     		ldrb	r3, [r7, #14]	@ zero_extendqisi2
 2246 0076 094A     		ldr	r2, .L68+16
 2247 0078 D25C     		ldrb	r2, [r2, r3]	@ zero_extendqisi2
 2248 007a 0132     		adds	r2, r2, #1
 2249 007c D1B2     		uxtb	r1, r2
 2250 007e 074A     		ldr	r2, .L68+16
 2251 0080 D154     		strb	r1, [r2, r3]
 2252              	.L67:
1199:Generated_Source\PSoC5/cyfitter_cfg.c **** 	}
1200:Generated_Source\PSoC5/cyfitter_cfg.c **** }
 2253              		.loc 1 1200 0
 2254 0082 00BF     		nop
 2255 0084 1437     		adds	r7, r7, #20
 2256              		.cfi_def_cfa_offset 4
 2257 0086 BD46     		mov	sp, r7
 2258              		.cfi_def_cfa_register 13
 2259              		@ sp needed
 2260 0088 80BC     		pop	{r7}
 2261              		.cfi_restore 7
 2262              		.cfi_def_cfa_offset 0
 2263 008a 7047     		bx	lr
 2264              	.L69:
 2265              		.align	2
 2266              	.L68:
 2267 008c 09000000 		.word	AMux_3__armsEnabled
 2268 0090 64000000 		.word	AMux_3__outerAddr
 2269 0094 6C000000 		.word	AMux_3__outerMask
 2270 0098 78000000 		.word	AMux_3__innerMap
 2271 009c 0C000000 		.word	AMux_3__refCnt
 2272 00a0 8B5A0040 		.word	1073765003
ARM GAS  C:\Users\JEFFSN~1\AppData\Local\Temp\ccuEuQhg.s 			page 62


 2273              		.cfi_endproc
 2274              	.LFE14:
 2275              		.size	AMux_3_Set, .-AMux_3_Set
 2276              		.section	.text.AMux_3_Unset,"ax",%progbits
 2277              		.align	2
 2278              		.global	AMux_3_Unset
 2279              		.thumb
 2280              		.thumb_func
 2281              		.type	AMux_3_Unset, %function
 2282              	AMux_3_Unset:
 2283              	.LFB15:
1201:Generated_Source\PSoC5/cyfitter_cfg.c **** 
1202:Generated_Source\PSoC5/cyfitter_cfg.c **** /*******************************************************************************
1203:Generated_Source\PSoC5/cyfitter_cfg.c **** * Function Name: AMux_3_Unset
1204:Generated_Source\PSoC5/cyfitter_cfg.c **** ********************************************************************************
1205:Generated_Source\PSoC5/cyfitter_cfg.c **** * Summary:
1206:Generated_Source\PSoC5/cyfitter_cfg.c **** *  This function is used to clear a particular channel from being active on the
1207:Generated_Source\PSoC5/cyfitter_cfg.c **** *  AMux.
1208:Generated_Source\PSoC5/cyfitter_cfg.c **** *
1209:Generated_Source\PSoC5/cyfitter_cfg.c **** * Parameters:  
1210:Generated_Source\PSoC5/cyfitter_cfg.c **** *   channel - The mux channel input to mark inactive
1211:Generated_Source\PSoC5/cyfitter_cfg.c **** *
1212:Generated_Source\PSoC5/cyfitter_cfg.c **** * Return:
1213:Generated_Source\PSoC5/cyfitter_cfg.c **** *   void
1214:Generated_Source\PSoC5/cyfitter_cfg.c **** *
1215:Generated_Source\PSoC5/cyfitter_cfg.c **** *******************************************************************************/
1216:Generated_Source\PSoC5/cyfitter_cfg.c **** void AMux_3_Unset(uint8 channel)
1217:Generated_Source\PSoC5/cyfitter_cfg.c **** {
 2284              		.loc 1 1217 0
 2285              		.cfi_startproc
 2286              		@ args = 0, pretend = 0, frame = 16
 2287              		@ frame_needed = 1, uses_anonymous_args = 0
 2288              		@ link register save eliminated.
 2289 0000 80B4     		push	{r7}
 2290              		.cfi_def_cfa_offset 4
 2291              		.cfi_offset 7, -4
 2292 0002 85B0     		sub	sp, sp, #20
 2293              		.cfi_def_cfa_offset 24
 2294 0004 00AF     		add	r7, sp, #0
 2295              		.cfi_def_cfa_register 7
 2296 0006 0346     		mov	r3, r0
 2297 0008 FB71     		strb	r3, [r7, #7]
1218:Generated_Source\PSoC5/cyfitter_cfg.c **** 	uint8 i;
1219:Generated_Source\PSoC5/cyfitter_cfg.c **** 	uint8 channelMask = (1UL << channel);
 2298              		.loc 1 1219 0
 2299 000a FB79     		ldrb	r3, [r7, #7]	@ zero_extendqisi2
 2300 000c 0122     		movs	r2, #1
 2301 000e 02FA03F3 		lsl	r3, r2, r3
 2302 0012 FB73     		strb	r3, [r7, #15]
1220:Generated_Source\PSoC5/cyfitter_cfg.c **** 	if ((channel < 2u) && ((AMux_3__armsEnabled & channelMask) != ((uint32)0u)))
 2303              		.loc 1 1220 0
 2304 0014 FB79     		ldrb	r3, [r7, #7]	@ zero_extendqisi2
 2305 0016 012B     		cmp	r3, #1
 2306 0018 39D8     		bhi	.L72
 2307              		.loc 1 1220 0 is_stmt 0 discriminator 1
 2308 001a 1F4B     		ldr	r3, .L73
 2309 001c 1A78     		ldrb	r2, [r3]	@ zero_extendqisi2
ARM GAS  C:\Users\JEFFSN~1\AppData\Local\Temp\ccuEuQhg.s 			page 63


 2310 001e FB7B     		ldrb	r3, [r7, #15]
 2311 0020 1340     		ands	r3, r3, r2
 2312 0022 DBB2     		uxtb	r3, r3
 2313 0024 002B     		cmp	r3, #0
 2314 0026 32D0     		beq	.L72
1221:Generated_Source\PSoC5/cyfitter_cfg.c **** 	{
1222:Generated_Source\PSoC5/cyfitter_cfg.c **** 		AMux_3__armsEnabled &= (uint8)~channelMask;
 2315              		.loc 1 1222 0 is_stmt 1
 2316 0028 FB7B     		ldrb	r3, [r7, #15]
 2317 002a DB43     		mvns	r3, r3
 2318 002c DAB2     		uxtb	r2, r3
 2319 002e 1A4B     		ldr	r3, .L73
 2320 0030 1B78     		ldrb	r3, [r3]	@ zero_extendqisi2
 2321 0032 1340     		ands	r3, r3, r2
 2322 0034 DAB2     		uxtb	r2, r3
 2323 0036 184B     		ldr	r3, .L73
 2324 0038 1A70     		strb	r2, [r3]
1223:Generated_Source\PSoC5/cyfitter_cfg.c **** 		*AMux_3__outerAddr[channel] &= (uint8)~AMux_3__outerMask[channel];
 2325              		.loc 1 1223 0
 2326 003a FB79     		ldrb	r3, [r7, #7]	@ zero_extendqisi2
 2327 003c 174A     		ldr	r2, .L73+4
 2328 003e 52F82330 		ldr	r3, [r2, r3, lsl #2]
 2329 0042 FA79     		ldrb	r2, [r7, #7]	@ zero_extendqisi2
 2330 0044 1549     		ldr	r1, .L73+4
 2331 0046 51F82220 		ldr	r2, [r1, r2, lsl #2]
 2332 004a 1178     		ldrb	r1, [r2]	@ zero_extendqisi2
 2333 004c FA79     		ldrb	r2, [r7, #7]	@ zero_extendqisi2
 2334 004e 1448     		ldr	r0, .L73+8
 2335 0050 825C     		ldrb	r2, [r0, r2]	@ zero_extendqisi2
 2336 0052 D243     		mvns	r2, r2
 2337 0054 D2B2     		uxtb	r2, r2
 2338 0056 0A40     		ands	r2, r2, r1
 2339 0058 D2B2     		uxtb	r2, r2
 2340 005a 1A70     		strb	r2, [r3]
1224:Generated_Source\PSoC5/cyfitter_cfg.c **** 		i = AMux_3__innerMap[channel];
 2341              		.loc 1 1224 0
 2342 005c FB79     		ldrb	r3, [r7, #7]	@ zero_extendqisi2
 2343 005e 114A     		ldr	r2, .L73+12
 2344 0060 D35C     		ldrb	r3, [r2, r3]
 2345 0062 BB73     		strb	r3, [r7, #14]
1225:Generated_Source\PSoC5/cyfitter_cfg.c **** 		AMux_3__refCnt[i]--;
 2346              		.loc 1 1225 0
 2347 0064 BB7B     		ldrb	r3, [r7, #14]	@ zero_extendqisi2
 2348 0066 104A     		ldr	r2, .L73+16
 2349 0068 D25C     		ldrb	r2, [r2, r3]	@ zero_extendqisi2
 2350 006a 013A     		subs	r2, r2, #1
 2351 006c D1B2     		uxtb	r1, r2
 2352 006e 0E4A     		ldr	r2, .L73+16
 2353 0070 D154     		strb	r1, [r2, r3]
1226:Generated_Source\PSoC5/cyfitter_cfg.c **** 		if (AMux_3__refCnt[i] == 0)
 2354              		.loc 1 1226 0
 2355 0072 BB7B     		ldrb	r3, [r7, #14]	@ zero_extendqisi2
 2356 0074 0C4A     		ldr	r2, .L73+16
 2357 0076 D35C     		ldrb	r3, [r2, r3]	@ zero_extendqisi2
 2358 0078 002B     		cmp	r3, #0
 2359 007a 08D1     		bne	.L72
1227:Generated_Source\PSoC5/cyfitter_cfg.c **** 		{
ARM GAS  C:\Users\JEFFSN~1\AppData\Local\Temp\ccuEuQhg.s 			page 64


1228:Generated_Source\PSoC5/cyfitter_cfg.c **** 			*AMux_3__innerAddr[i] &= (uint8)~AMux_3__innerMask[i];
 2360              		.loc 1 1228 0
 2361 007c 0B49     		ldr	r1, .L73+20
 2362 007e 0B4B     		ldr	r3, .L73+20
 2363 0080 1A78     		ldrb	r2, [r3]	@ zero_extendqisi2
 2364 0082 1023     		movs	r3, #16
 2365 0084 DB43     		mvns	r3, r3
 2366 0086 DBB2     		uxtb	r3, r3
 2367 0088 1340     		ands	r3, r3, r2
 2368 008a DBB2     		uxtb	r3, r3
 2369 008c 0B70     		strb	r3, [r1]
 2370              	.L72:
1229:Generated_Source\PSoC5/cyfitter_cfg.c **** 		}
1230:Generated_Source\PSoC5/cyfitter_cfg.c **** 	}
1231:Generated_Source\PSoC5/cyfitter_cfg.c **** }
 2371              		.loc 1 1231 0
 2372 008e 00BF     		nop
 2373 0090 1437     		adds	r7, r7, #20
 2374              		.cfi_def_cfa_offset 4
 2375 0092 BD46     		mov	sp, r7
 2376              		.cfi_def_cfa_register 13
 2377              		@ sp needed
 2378 0094 80BC     		pop	{r7}
 2379              		.cfi_restore 7
 2380              		.cfi_def_cfa_offset 0
 2381 0096 7047     		bx	lr
 2382              	.L74:
 2383              		.align	2
 2384              	.L73:
 2385 0098 09000000 		.word	AMux_3__armsEnabled
 2386 009c 64000000 		.word	AMux_3__outerAddr
 2387 00a0 6C000000 		.word	AMux_3__outerMask
 2388 00a4 78000000 		.word	AMux_3__innerMap
 2389 00a8 0C000000 		.word	AMux_3__refCnt
 2390 00ac 8B5A0040 		.word	1073765003
 2391              		.cfi_endproc
 2392              	.LFE15:
 2393              		.size	AMux_3_Unset, .-AMux_3_Unset
 2394              		.global	CapSense_AMuxCH0__addrTable
 2395              		.section	.rodata
 2396 007a 0000     		.align	2
 2397              		.type	CapSense_AMuxCH0__addrTable, %object
 2398              		.size	CapSense_AMuxCH0__addrTable, 52
 2399              	CapSense_AMuxCH0__addrTable:
 2400 007c 2C510040 		.word	1073762604
 2401 0080 2C510040 		.word	1073762604
 2402 0084 2C510040 		.word	1073762604
 2403 0088 2C510040 		.word	1073762604
 2404 008c 2C510040 		.word	1073762604
 2405 0090 6C510040 		.word	1073762668
 2406 0094 6C510040 		.word	1073762668
 2407 0098 6C510040 		.word	1073762668
 2408 009c 6C510040 		.word	1073762668
 2409 00a0 2C510040 		.word	1073762604
 2410 00a4 FC510040 		.word	1073762812
 2411 00a8 D35A0040 		.word	1073765075
 2412 00ac 835A0040 		.word	1073764995
ARM GAS  C:\Users\JEFFSN~1\AppData\Local\Temp\ccuEuQhg.s 			page 65


 2413              		.global	CapSense_AMuxCH0__maskTable
 2414              		.align	2
 2415              		.type	CapSense_AMuxCH0__maskTable, %object
 2416              		.size	CapSense_AMuxCH0__maskTable, 13
 2417              	CapSense_AMuxCH0__maskTable:
 2418 00b0 80       		.byte	-128
 2419 00b1 40       		.byte	64
 2420 00b2 20       		.byte	32
 2421 00b3 10       		.byte	16
 2422 00b4 08       		.byte	8
 2423 00b5 10       		.byte	16
 2424 00b6 20       		.byte	32
 2425 00b7 40       		.byte	64
 2426 00b8 80       		.byte	-128
 2427 00b9 01       		.byte	1
 2428 00ba 10       		.byte	16
 2429 00bb 01       		.byte	1
 2430 00bc 10       		.byte	16
 2431              		.section	.text.CapSense_AMuxCH0_Set,"ax",%progbits
 2432              		.align	2
 2433              		.global	CapSense_AMuxCH0_Set
 2434              		.thumb
 2435              		.thumb_func
 2436              		.type	CapSense_AMuxCH0_Set, %function
 2437              	CapSense_AMuxCH0_Set:
 2438              	.LFB16:
1232:Generated_Source\PSoC5/cyfitter_cfg.c **** 
1233:Generated_Source\PSoC5/cyfitter_cfg.c **** /* This is an implementation detail of the AMux. Code that depends on it may be
1234:Generated_Source\PSoC5/cyfitter_cfg.c ****    incompatible with other versions of PSoC Creator. */
1235:Generated_Source\PSoC5/cyfitter_cfg.c **** uint8 CYXDATA * const CYCODE CapSense_AMuxCH0__addrTable[13] = {
1236:Generated_Source\PSoC5/cyfitter_cfg.c **** 	(uint8 CYXDATA *)CYREG_PRT2_AMUX, 
1237:Generated_Source\PSoC5/cyfitter_cfg.c **** 	(uint8 CYXDATA *)CYREG_PRT2_AMUX, 
1238:Generated_Source\PSoC5/cyfitter_cfg.c **** 	(uint8 CYXDATA *)CYREG_PRT2_AMUX, 
1239:Generated_Source\PSoC5/cyfitter_cfg.c **** 	(uint8 CYXDATA *)CYREG_PRT2_AMUX, 
1240:Generated_Source\PSoC5/cyfitter_cfg.c **** 	(uint8 CYXDATA *)CYREG_PRT2_AMUX, 
1241:Generated_Source\PSoC5/cyfitter_cfg.c **** 	(uint8 CYXDATA *)CYREG_PRT6_AMUX, 
1242:Generated_Source\PSoC5/cyfitter_cfg.c **** 	(uint8 CYXDATA *)CYREG_PRT6_AMUX, 
1243:Generated_Source\PSoC5/cyfitter_cfg.c **** 	(uint8 CYXDATA *)CYREG_PRT6_AMUX, 
1244:Generated_Source\PSoC5/cyfitter_cfg.c **** 	(uint8 CYXDATA *)CYREG_PRT6_AMUX, 
1245:Generated_Source\PSoC5/cyfitter_cfg.c **** 	(uint8 CYXDATA *)CYREG_PRT2_AMUX, 
1246:Generated_Source\PSoC5/cyfitter_cfg.c **** 	(uint8 CYXDATA *)CYREG_PRT15_AMUX, 
1247:Generated_Source\PSoC5/cyfitter_cfg.c **** 	(uint8 CYXDATA *)CYREG_CMP2_SW3, 
1248:Generated_Source\PSoC5/cyfitter_cfg.c **** 	(uint8 CYXDATA *)CYREG_DAC0_SW3, 
1249:Generated_Source\PSoC5/cyfitter_cfg.c **** };
1250:Generated_Source\PSoC5/cyfitter_cfg.c **** 
1251:Generated_Source\PSoC5/cyfitter_cfg.c **** /* This is an implementation detail of the AMux. Code that depends on it may be
1252:Generated_Source\PSoC5/cyfitter_cfg.c ****    incompatible with other versions of PSoC Creator. */
1253:Generated_Source\PSoC5/cyfitter_cfg.c **** const uint8 CYCODE CapSense_AMuxCH0__maskTable[13] = {
1254:Generated_Source\PSoC5/cyfitter_cfg.c **** 	0x80u, 
1255:Generated_Source\PSoC5/cyfitter_cfg.c **** 	0x40u, 
1256:Generated_Source\PSoC5/cyfitter_cfg.c **** 	0x20u, 
1257:Generated_Source\PSoC5/cyfitter_cfg.c **** 	0x10u, 
1258:Generated_Source\PSoC5/cyfitter_cfg.c **** 	0x08u, 
1259:Generated_Source\PSoC5/cyfitter_cfg.c **** 	0x10u, 
1260:Generated_Source\PSoC5/cyfitter_cfg.c **** 	0x20u, 
1261:Generated_Source\PSoC5/cyfitter_cfg.c **** 	0x40u, 
1262:Generated_Source\PSoC5/cyfitter_cfg.c **** 	0x80u, 
ARM GAS  C:\Users\JEFFSN~1\AppData\Local\Temp\ccuEuQhg.s 			page 66


1263:Generated_Source\PSoC5/cyfitter_cfg.c **** 	0x01u, 
1264:Generated_Source\PSoC5/cyfitter_cfg.c **** 	0x10u, 
1265:Generated_Source\PSoC5/cyfitter_cfg.c **** 	0x01u, 
1266:Generated_Source\PSoC5/cyfitter_cfg.c **** 	0x10u, 
1267:Generated_Source\PSoC5/cyfitter_cfg.c **** };
1268:Generated_Source\PSoC5/cyfitter_cfg.c **** 
1269:Generated_Source\PSoC5/cyfitter_cfg.c **** /*******************************************************************************
1270:Generated_Source\PSoC5/cyfitter_cfg.c **** * Function Name: CapSense_AMuxCH0_Set
1271:Generated_Source\PSoC5/cyfitter_cfg.c **** ********************************************************************************
1272:Generated_Source\PSoC5/cyfitter_cfg.c **** * Summary:
1273:Generated_Source\PSoC5/cyfitter_cfg.c **** *  This function is used to set a particular channel as active on the AMux.
1274:Generated_Source\PSoC5/cyfitter_cfg.c **** *
1275:Generated_Source\PSoC5/cyfitter_cfg.c **** * Parameters:  
1276:Generated_Source\PSoC5/cyfitter_cfg.c **** *   channel - The mux channel input to set as active
1277:Generated_Source\PSoC5/cyfitter_cfg.c **** *
1278:Generated_Source\PSoC5/cyfitter_cfg.c **** * Return:
1279:Generated_Source\PSoC5/cyfitter_cfg.c **** *   void
1280:Generated_Source\PSoC5/cyfitter_cfg.c **** *
1281:Generated_Source\PSoC5/cyfitter_cfg.c **** *******************************************************************************/
1282:Generated_Source\PSoC5/cyfitter_cfg.c **** void CapSense_AMuxCH0_Set(uint8 channel)
1283:Generated_Source\PSoC5/cyfitter_cfg.c **** {
 2439              		.loc 1 1283 0
 2440              		.cfi_startproc
 2441              		@ args = 0, pretend = 0, frame = 8
 2442              		@ frame_needed = 1, uses_anonymous_args = 0
 2443              		@ link register save eliminated.
 2444 0000 80B4     		push	{r7}
 2445              		.cfi_def_cfa_offset 4
 2446              		.cfi_offset 7, -4
 2447 0002 83B0     		sub	sp, sp, #12
 2448              		.cfi_def_cfa_offset 16
 2449 0004 00AF     		add	r7, sp, #0
 2450              		.cfi_def_cfa_register 7
 2451 0006 0346     		mov	r3, r0
 2452 0008 FB71     		strb	r3, [r7, #7]
1284:Generated_Source\PSoC5/cyfitter_cfg.c **** 	if (channel < 13)
 2453              		.loc 1 1284 0
 2454 000a FB79     		ldrb	r3, [r7, #7]	@ zero_extendqisi2
 2455 000c 0C2B     		cmp	r3, #12
 2456 000e 0ED8     		bhi	.L77
1285:Generated_Source\PSoC5/cyfitter_cfg.c **** 	{
1286:Generated_Source\PSoC5/cyfitter_cfg.c **** 		*CapSense_AMuxCH0__addrTable[channel] |= CapSense_AMuxCH0__maskTable[channel];
 2457              		.loc 1 1286 0
 2458 0010 FB79     		ldrb	r3, [r7, #7]	@ zero_extendqisi2
 2459 0012 094A     		ldr	r2, .L78
 2460 0014 52F82330 		ldr	r3, [r2, r3, lsl #2]
 2461 0018 FA79     		ldrb	r2, [r7, #7]	@ zero_extendqisi2
 2462 001a 0749     		ldr	r1, .L78
 2463 001c 51F82220 		ldr	r2, [r1, r2, lsl #2]
 2464 0020 1178     		ldrb	r1, [r2]	@ zero_extendqisi2
 2465 0022 FA79     		ldrb	r2, [r7, #7]	@ zero_extendqisi2
 2466 0024 0548     		ldr	r0, .L78+4
 2467 0026 825C     		ldrb	r2, [r0, r2]	@ zero_extendqisi2
 2468 0028 0A43     		orrs	r2, r2, r1
 2469 002a D2B2     		uxtb	r2, r2
 2470 002c 1A70     		strb	r2, [r3]
 2471              	.L77:
ARM GAS  C:\Users\JEFFSN~1\AppData\Local\Temp\ccuEuQhg.s 			page 67


1287:Generated_Source\PSoC5/cyfitter_cfg.c **** 	}
1288:Generated_Source\PSoC5/cyfitter_cfg.c **** }
 2472              		.loc 1 1288 0
 2473 002e 00BF     		nop
 2474 0030 0C37     		adds	r7, r7, #12
 2475              		.cfi_def_cfa_offset 4
 2476 0032 BD46     		mov	sp, r7
 2477              		.cfi_def_cfa_register 13
 2478              		@ sp needed
 2479 0034 80BC     		pop	{r7}
 2480              		.cfi_restore 7
 2481              		.cfi_def_cfa_offset 0
 2482 0036 7047     		bx	lr
 2483              	.L79:
 2484              		.align	2
 2485              	.L78:
 2486 0038 00000000 		.word	CapSense_AMuxCH0__addrTable
 2487 003c 00000000 		.word	CapSense_AMuxCH0__maskTable
 2488              		.cfi_endproc
 2489              	.LFE16:
 2490              		.size	CapSense_AMuxCH0_Set, .-CapSense_AMuxCH0_Set
 2491              		.section	.text.CapSense_AMuxCH0_Unset,"ax",%progbits
 2492              		.align	2
 2493              		.global	CapSense_AMuxCH0_Unset
 2494              		.thumb
 2495              		.thumb_func
 2496              		.type	CapSense_AMuxCH0_Unset, %function
 2497              	CapSense_AMuxCH0_Unset:
 2498              	.LFB17:
1289:Generated_Source\PSoC5/cyfitter_cfg.c **** 
1290:Generated_Source\PSoC5/cyfitter_cfg.c **** /*******************************************************************************
1291:Generated_Source\PSoC5/cyfitter_cfg.c **** * Function Name: CapSense_AMuxCH0_Unset
1292:Generated_Source\PSoC5/cyfitter_cfg.c **** ********************************************************************************
1293:Generated_Source\PSoC5/cyfitter_cfg.c **** * Summary:
1294:Generated_Source\PSoC5/cyfitter_cfg.c **** *  This function is used to clear a particular channel from being active on the
1295:Generated_Source\PSoC5/cyfitter_cfg.c **** *  AMux.
1296:Generated_Source\PSoC5/cyfitter_cfg.c **** *
1297:Generated_Source\PSoC5/cyfitter_cfg.c **** * Parameters:  
1298:Generated_Source\PSoC5/cyfitter_cfg.c **** *   channel - The mux channel input to mark inactive
1299:Generated_Source\PSoC5/cyfitter_cfg.c **** *
1300:Generated_Source\PSoC5/cyfitter_cfg.c **** * Return:
1301:Generated_Source\PSoC5/cyfitter_cfg.c **** *   void
1302:Generated_Source\PSoC5/cyfitter_cfg.c **** *
1303:Generated_Source\PSoC5/cyfitter_cfg.c **** *******************************************************************************/
1304:Generated_Source\PSoC5/cyfitter_cfg.c **** void CapSense_AMuxCH0_Unset(uint8 channel)
1305:Generated_Source\PSoC5/cyfitter_cfg.c **** {
 2499              		.loc 1 1305 0
 2500              		.cfi_startproc
 2501              		@ args = 0, pretend = 0, frame = 8
 2502              		@ frame_needed = 1, uses_anonymous_args = 0
 2503              		@ link register save eliminated.
 2504 0000 80B4     		push	{r7}
 2505              		.cfi_def_cfa_offset 4
 2506              		.cfi_offset 7, -4
 2507 0002 83B0     		sub	sp, sp, #12
 2508              		.cfi_def_cfa_offset 16
 2509 0004 00AF     		add	r7, sp, #0
ARM GAS  C:\Users\JEFFSN~1\AppData\Local\Temp\ccuEuQhg.s 			page 68


 2510              		.cfi_def_cfa_register 7
 2511 0006 0346     		mov	r3, r0
 2512 0008 FB71     		strb	r3, [r7, #7]
1306:Generated_Source\PSoC5/cyfitter_cfg.c **** 	if (channel < 13)
 2513              		.loc 1 1306 0
 2514 000a FB79     		ldrb	r3, [r7, #7]	@ zero_extendqisi2
 2515 000c 0C2B     		cmp	r3, #12
 2516 000e 10D8     		bhi	.L82
1307:Generated_Source\PSoC5/cyfitter_cfg.c **** 	{
1308:Generated_Source\PSoC5/cyfitter_cfg.c **** 		*CapSense_AMuxCH0__addrTable[channel] &= (uint8)~CapSense_AMuxCH0__maskTable[channel];
 2517              		.loc 1 1308 0
 2518 0010 FB79     		ldrb	r3, [r7, #7]	@ zero_extendqisi2
 2519 0012 0A4A     		ldr	r2, .L83
 2520 0014 52F82330 		ldr	r3, [r2, r3, lsl #2]
 2521 0018 FA79     		ldrb	r2, [r7, #7]	@ zero_extendqisi2
 2522 001a 0849     		ldr	r1, .L83
 2523 001c 51F82220 		ldr	r2, [r1, r2, lsl #2]
 2524 0020 1178     		ldrb	r1, [r2]	@ zero_extendqisi2
 2525 0022 FA79     		ldrb	r2, [r7, #7]	@ zero_extendqisi2
 2526 0024 0648     		ldr	r0, .L83+4
 2527 0026 825C     		ldrb	r2, [r0, r2]	@ zero_extendqisi2
 2528 0028 D243     		mvns	r2, r2
 2529 002a D2B2     		uxtb	r2, r2
 2530 002c 0A40     		ands	r2, r2, r1
 2531 002e D2B2     		uxtb	r2, r2
 2532 0030 1A70     		strb	r2, [r3]
 2533              	.L82:
1309:Generated_Source\PSoC5/cyfitter_cfg.c **** 	}
1310:Generated_Source\PSoC5/cyfitter_cfg.c **** }
 2534              		.loc 1 1310 0
 2535 0032 00BF     		nop
 2536 0034 0C37     		adds	r7, r7, #12
 2537              		.cfi_def_cfa_offset 4
 2538 0036 BD46     		mov	sp, r7
 2539              		.cfi_def_cfa_register 13
 2540              		@ sp needed
 2541 0038 80BC     		pop	{r7}
 2542              		.cfi_restore 7
 2543              		.cfi_def_cfa_offset 0
 2544 003a 7047     		bx	lr
 2545              	.L84:
 2546              		.align	2
 2547              	.L83:
 2548 003c 00000000 		.word	CapSense_AMuxCH0__addrTable
 2549 0040 00000000 		.word	CapSense_AMuxCH0__maskTable
 2550              		.cfi_endproc
 2551              	.LFE17:
 2552              		.size	CapSense_AMuxCH0_Unset, .-CapSense_AMuxCH0_Unset
 2553              		.section	.text.cyfitter_cfg,"ax",%progbits
 2554              		.align	2
 2555              		.global	cyfitter_cfg
 2556              		.thumb
 2557              		.thumb_func
 2558              		.type	cyfitter_cfg, %function
 2559              	cyfitter_cfg:
 2560              	.LFB18:
1311:Generated_Source\PSoC5/cyfitter_cfg.c **** 
ARM GAS  C:\Users\JEFFSN~1\AppData\Local\Temp\ccuEuQhg.s 			page 69


1312:Generated_Source\PSoC5/cyfitter_cfg.c **** 
1313:Generated_Source\PSoC5/cyfitter_cfg.c **** 
1314:Generated_Source\PSoC5/cyfitter_cfg.c **** /*******************************************************************************
1315:Generated_Source\PSoC5/cyfitter_cfg.c **** * Function Name: cyfitter_cfg
1316:Generated_Source\PSoC5/cyfitter_cfg.c **** ********************************************************************************
1317:Generated_Source\PSoC5/cyfitter_cfg.c **** * Summary:
1318:Generated_Source\PSoC5/cyfitter_cfg.c **** *  This function is called by the start-up code for the selected device. It
1319:Generated_Source\PSoC5/cyfitter_cfg.c **** *  performs all of the necessary device configuration based on the design
1320:Generated_Source\PSoC5/cyfitter_cfg.c **** *  settings.  This includes settings from the Design Wide Resources (DWR) such
1321:Generated_Source\PSoC5/cyfitter_cfg.c **** *  as Clocks and Pins as well as any component configuration that is necessary.
1322:Generated_Source\PSoC5/cyfitter_cfg.c **** *
1323:Generated_Source\PSoC5/cyfitter_cfg.c **** * Parameters:
1324:Generated_Source\PSoC5/cyfitter_cfg.c **** *   void
1325:Generated_Source\PSoC5/cyfitter_cfg.c **** *
1326:Generated_Source\PSoC5/cyfitter_cfg.c **** * Return:
1327:Generated_Source\PSoC5/cyfitter_cfg.c **** *   void
1328:Generated_Source\PSoC5/cyfitter_cfg.c **** *
1329:Generated_Source\PSoC5/cyfitter_cfg.c **** *******************************************************************************/
1330:Generated_Source\PSoC5/cyfitter_cfg.c **** 
1331:Generated_Source\PSoC5/cyfitter_cfg.c **** void cyfitter_cfg(void)
1332:Generated_Source\PSoC5/cyfitter_cfg.c **** {
 2561              		.loc 1 1332 0
 2562              		.cfi_startproc
 2563              		@ args = 0, pretend = 0, frame = 0
 2564              		@ frame_needed = 1, uses_anonymous_args = 0
 2565 0000 80B5     		push	{r7, lr}
 2566              		.cfi_def_cfa_offset 8
 2567              		.cfi_offset 7, -8
 2568              		.cfi_offset 14, -4
 2569 0002 00AF     		add	r7, sp, #0
 2570              		.cfi_def_cfa_register 7
1333:Generated_Source\PSoC5/cyfitter_cfg.c **** #ifdef CYGlobalIntDisable
1334:Generated_Source\PSoC5/cyfitter_cfg.c **** 	/* Disable interrupts by default. Let user enable if/when they want. */
1335:Generated_Source\PSoC5/cyfitter_cfg.c **** 	CYGlobalIntDisable
 2571              		.loc 1 1335 0
 2572              		.syntax unified
 2573              	@ 1335 "Generated_Source\PSoC5\cyfitter_cfg.c" 1
 2574 0004 72B6     		CPSID   i
 2575              	@ 0 "" 2
1336:Generated_Source\PSoC5/cyfitter_cfg.c **** #endif
1337:Generated_Source\PSoC5/cyfitter_cfg.c **** 
1338:Generated_Source\PSoC5/cyfitter_cfg.c **** 
1339:Generated_Source\PSoC5/cyfitter_cfg.c **** 	/* Set Flash Cycles based on max possible frequency in case a glitch occurs during ClockSetup(). *
1340:Generated_Source\PSoC5/cyfitter_cfg.c **** 	CY_SET_XTND_REG8((void CYFAR *)(CYREG_CACHE_CC_CTL), (((CYDEV_INSTRUCT_CACHE_ENABLED) != 0) ? 0x61
 2576              		.loc 1 1340 0
 2577              		.thumb
 2578              		.syntax unified
 2579 0006 3D4B     		ldr	r3, .L86
 2580 0008 6122     		movs	r2, #97
 2581 000a 1A70     		strb	r2, [r3]
1341:Generated_Source\PSoC5/cyfitter_cfg.c **** 	/* Setup clocks based on selections from Clock DWR */
1342:Generated_Source\PSoC5/cyfitter_cfg.c **** 	ClockSetup();
 2582              		.loc 1 1342 0
 2583 000c FFF7FEFF 		bl	ClockSetup
1343:Generated_Source\PSoC5/cyfitter_cfg.c **** 	/* Set Flash Cycles based on newly configured 66.00MHz Bus Clock. */
1344:Generated_Source\PSoC5/cyfitter_cfg.c **** 	CY_SET_XTND_REG8((void CYFAR *)(CYREG_CACHE_CC_CTL), (((CYDEV_INSTRUCT_CACHE_ENABLED) != 0) ? 0x01
 2584              		.loc 1 1344 0
ARM GAS  C:\Users\JEFFSN~1\AppData\Local\Temp\ccuEuQhg.s 			page 70


 2585 0010 3A4B     		ldr	r3, .L86
 2586 0012 0122     		movs	r2, #1
 2587 0014 1A70     		strb	r2, [r3]
1345:Generated_Source\PSoC5/cyfitter_cfg.c **** 	{
1346:Generated_Source\PSoC5/cyfitter_cfg.c **** 		cfg_dma_init();
 2588              		.loc 1 1346 0
 2589 0016 FFF7FEFF 		bl	cfg_dma_init
1347:Generated_Source\PSoC5/cyfitter_cfg.c **** 
1348:Generated_Source\PSoC5/cyfitter_cfg.c **** 		/* Perform normal device configuration. Order is not critical for these items. */
1349:Generated_Source\PSoC5/cyfitter_cfg.c **** 		CY_SET_XTND_REG16((void CYFAR *)(CYREG_CAPSL_CFG0), 0x0300u);
 2590              		.loc 1 1349 0
 2591 001a 394B     		ldr	r3, .L86+4
 2592 001c 4FF44072 		mov	r2, #768
 2593 0020 1A80     		strh	r2, [r3]	@ movhi
1350:Generated_Source\PSoC5/cyfitter_cfg.c **** 		CY_SET_XTND_REG8((void CYFAR *)(CYREG_DSM0_CR3), 0x0Au);
 2594              		.loc 1 1350 0
 2595 0022 384B     		ldr	r3, .L86+8
 2596 0024 0A22     		movs	r2, #10
 2597 0026 1A70     		strb	r2, [r3]
1351:Generated_Source\PSoC5/cyfitter_cfg.c **** 		CY_SET_XTND_REG16((void CYFAR *)(CYREG_LUT2_CR), 0x0203u);
 2598              		.loc 1 1351 0
 2599 0028 374B     		ldr	r3, .L86+12
 2600 002a 40F20322 		movw	r2, #515
 2601 002e 1A80     		strh	r2, [r3]	@ movhi
1352:Generated_Source\PSoC5/cyfitter_cfg.c **** 		CYMEMZERO((void CYFAR *)(CYREG_PHUB_CFGMEM0_CFG0), 4u);
 2602              		.loc 1 1352 0
 2603 0030 0421     		movs	r1, #4
 2604 0032 3648     		ldr	r0, .L86+16
 2605 0034 FFF7FEFF 		bl	CYMEMZERO
1353:Generated_Source\PSoC5/cyfitter_cfg.c **** 		CYCONFIGCPY((void CYFAR *)(CYREG_PHUB_CFGMEM1_CFG0), (const void CYFAR *)(BS_PHUB_CFGMEM1_VAL), 4
 2606              		.loc 1 1353 0
 2607 0038 0422     		movs	r2, #4
 2608 003a 3549     		ldr	r1, .L86+20
 2609 003c 3548     		ldr	r0, .L86+24
 2610 003e FFF7FEFF 		bl	CYCONFIGCPY
1354:Generated_Source\PSoC5/cyfitter_cfg.c **** 
1355:Generated_Source\PSoC5/cyfitter_cfg.c **** 		/* B0_P4_U0_CFG24 Starting address: CYDEV_UCFG_B0_P4_U0_CFG24 */
1356:Generated_Source\PSoC5/cyfitter_cfg.c **** 		CY_SET_XTND_REG32((void CYFAR *)(CYREG_B0_P4_U0_CFG24), 0x84000404u);
 2611              		.loc 1 1356 0
 2612 0042 354B     		ldr	r3, .L86+28
 2613 0044 354A     		ldr	r2, .L86+32
 2614 0046 1A60     		str	r2, [r3]
1357:Generated_Source\PSoC5/cyfitter_cfg.c **** 
1358:Generated_Source\PSoC5/cyfitter_cfg.c **** 		/* Enable digital routing */
1359:Generated_Source\PSoC5/cyfitter_cfg.c **** 		CY_SET_XTND_REG8((void CYFAR *)CYREG_BCTL0_BANK_CTL, CY_GET_XTND_REG8((void CYFAR *)CYREG_BCTL0_B
 2615              		.loc 1 1359 0
 2616 0048 354A     		ldr	r2, .L86+36
 2617 004a 354B     		ldr	r3, .L86+36
 2618 004c 1B78     		ldrb	r3, [r3]
 2619 004e DBB2     		uxtb	r3, r3
 2620 0050 43F00203 		orr	r3, r3, #2
 2621 0054 DBB2     		uxtb	r3, r3
 2622 0056 1370     		strb	r3, [r2]
1360:Generated_Source\PSoC5/cyfitter_cfg.c **** 		CY_SET_XTND_REG8((void CYFAR *)CYREG_BCTL1_BANK_CTL, CY_GET_XTND_REG8((void CYFAR *)CYREG_BCTL1_B
 2623              		.loc 1 1360 0
 2624 0058 324A     		ldr	r2, .L86+40
 2625 005a 324B     		ldr	r3, .L86+40
ARM GAS  C:\Users\JEFFSN~1\AppData\Local\Temp\ccuEuQhg.s 			page 71


 2626 005c 1B78     		ldrb	r3, [r3]
 2627 005e DBB2     		uxtb	r3, r3
 2628 0060 43F00203 		orr	r3, r3, #2
 2629 0064 DBB2     		uxtb	r3, r3
 2630 0066 1370     		strb	r3, [r2]
1361:Generated_Source\PSoC5/cyfitter_cfg.c **** 
1362:Generated_Source\PSoC5/cyfitter_cfg.c **** 		/* Enable UDB array */
1363:Generated_Source\PSoC5/cyfitter_cfg.c **** 		CY_SET_XTND_REG8((void CYFAR *)CYREG_PM_ACT_CFG0, CY_GET_XTND_REG8((void CYFAR *)CYREG_PM_ACT_CFG
 2631              		.loc 1 1363 0
 2632 0068 2F4A     		ldr	r2, .L86+44
 2633 006a 2F4B     		ldr	r3, .L86+44
 2634 006c 1B78     		ldrb	r3, [r3]
 2635 006e DBB2     		uxtb	r3, r3
 2636 0070 43F04003 		orr	r3, r3, #64
 2637 0074 DBB2     		uxtb	r3, r3
 2638 0076 1370     		strb	r3, [r2]
1364:Generated_Source\PSoC5/cyfitter_cfg.c **** 		CY_SET_XTND_REG8((void CYFAR *)CYREG_PM_AVAIL_CR2, CY_GET_XTND_REG8((void CYFAR *)CYREG_PM_AVAIL_
 2639              		.loc 1 1364 0
 2640 0078 2C4A     		ldr	r2, .L86+48
 2641 007a 2C4B     		ldr	r3, .L86+48
 2642 007c 1B78     		ldrb	r3, [r3]
 2643 007e DBB2     		uxtb	r3, r3
 2644 0080 43F01003 		orr	r3, r3, #16
 2645 0084 DBB2     		uxtb	r3, r3
 2646 0086 1370     		strb	r3, [r2]
1365:Generated_Source\PSoC5/cyfitter_cfg.c **** 	}
1366:Generated_Source\PSoC5/cyfitter_cfg.c **** 
1367:Generated_Source\PSoC5/cyfitter_cfg.c **** 
1368:Generated_Source\PSoC5/cyfitter_cfg.c **** 	/* Perform second pass device configuration. These items must be configured in specific order afte
1369:Generated_Source\PSoC5/cyfitter_cfg.c **** 	CYCONFIGCPY((void CYFAR *)(CYREG_PRT0_DM0), (const void CYFAR *)(BS_IOPINS0_0_VAL), 8u);
 2647              		.loc 1 1369 0
 2648 0088 0822     		movs	r2, #8
 2649 008a 2949     		ldr	r1, .L86+52
 2650 008c 2948     		ldr	r0, .L86+56
 2651 008e FFF7FEFF 		bl	CYCONFIGCPY
1370:Generated_Source\PSoC5/cyfitter_cfg.c **** 	CYCONFIGCPY((void CYFAR *)(CYREG_PRT15_DM0), (const void CYFAR *)(BS_IOPINS0_8_VAL), 8u);
 2652              		.loc 1 1370 0
 2653 0092 0822     		movs	r2, #8
 2654 0094 2849     		ldr	r1, .L86+60
 2655 0096 2948     		ldr	r0, .L86+64
 2656 0098 FFF7FEFF 		bl	CYCONFIGCPY
1371:Generated_Source\PSoC5/cyfitter_cfg.c **** 	CYCONFIGCPY((void CYFAR *)(CYREG_PRT1_DM0), (const void CYFAR *)(BS_IOPINS0_1_VAL), 8u);
 2657              		.loc 1 1371 0
 2658 009c 0822     		movs	r2, #8
 2659 009e 2849     		ldr	r1, .L86+68
 2660 00a0 2848     		ldr	r0, .L86+72
 2661 00a2 FFF7FEFF 		bl	CYCONFIGCPY
1372:Generated_Source\PSoC5/cyfitter_cfg.c **** 	CYCONFIGCPY((void CYFAR *)(CYREG_PRT2_DM0), (const void CYFAR *)(BS_IOPINS0_2_VAL), 8u);
 2662              		.loc 1 1372 0
 2663 00a6 0822     		movs	r2, #8
 2664 00a8 2749     		ldr	r1, .L86+76
 2665 00aa 2848     		ldr	r0, .L86+80
 2666 00ac FFF7FEFF 		bl	CYCONFIGCPY
1373:Generated_Source\PSoC5/cyfitter_cfg.c **** 	CYCONFIGCPY((void CYFAR *)(CYREG_PRT3_DM0), (const void CYFAR *)(BS_IOPINS0_3_VAL), 8u);
 2667              		.loc 1 1373 0
 2668 00b0 0822     		movs	r2, #8
 2669 00b2 2749     		ldr	r1, .L86+84
ARM GAS  C:\Users\JEFFSN~1\AppData\Local\Temp\ccuEuQhg.s 			page 72


 2670 00b4 2748     		ldr	r0, .L86+88
 2671 00b6 FFF7FEFF 		bl	CYCONFIGCPY
1374:Generated_Source\PSoC5/cyfitter_cfg.c **** 	CYCONFIGCPY((void CYFAR *)(CYREG_PRT4_DM0), (const void CYFAR *)(BS_IOPINS0_4_VAL), 8u);
 2672              		.loc 1 1374 0
 2673 00ba 0822     		movs	r2, #8
 2674 00bc 2649     		ldr	r1, .L86+92
 2675 00be 2748     		ldr	r0, .L86+96
 2676 00c0 FFF7FEFF 		bl	CYCONFIGCPY
1375:Generated_Source\PSoC5/cyfitter_cfg.c **** 	CYCONFIGCPY((void CYFAR *)(CYREG_PRT5_DM0), (const void CYFAR *)(BS_IOPINS0_5_VAL), 8u);
 2677              		.loc 1 1375 0
 2678 00c4 0822     		movs	r2, #8
 2679 00c6 2649     		ldr	r1, .L86+100
 2680 00c8 2648     		ldr	r0, .L86+104
 2681 00ca FFF7FEFF 		bl	CYCONFIGCPY
1376:Generated_Source\PSoC5/cyfitter_cfg.c **** 	CYCONFIGCPY((void CYFAR *)(CYREG_PRT6_DM0), (const void CYFAR *)(BS_IOPINS0_6_VAL), 8u);
 2682              		.loc 1 1376 0
 2683 00ce 0822     		movs	r2, #8
 2684 00d0 2549     		ldr	r1, .L86+108
 2685 00d2 2648     		ldr	r0, .L86+112
 2686 00d4 FFF7FEFF 		bl	CYCONFIGCPY
1377:Generated_Source\PSoC5/cyfitter_cfg.c **** 	/* Switch Boost to the precision bandgap reference from its internal reference */
1378:Generated_Source\PSoC5/cyfitter_cfg.c **** 	CY_SET_REG8((void CYXDATA *)CYREG_BOOST_CR2, (CY_GET_REG8((void CYXDATA *)CYREG_BOOST_CR2) | 0x08u
 2687              		.loc 1 1378 0
 2688 00d8 254A     		ldr	r2, .L86+116
 2689 00da 254B     		ldr	r3, .L86+116
 2690 00dc 1B78     		ldrb	r3, [r3]
 2691 00de DBB2     		uxtb	r3, r3
 2692 00e0 43F00803 		orr	r3, r3, #8
 2693 00e4 DBB2     		uxtb	r3, r3
 2694 00e6 1370     		strb	r3, [r2]
1379:Generated_Source\PSoC5/cyfitter_cfg.c **** 
1380:Generated_Source\PSoC5/cyfitter_cfg.c **** 	/* Perform basic analog initialization to defaults */
1381:Generated_Source\PSoC5/cyfitter_cfg.c **** 	AnalogSetDefault();
 2695              		.loc 1 1381 0
 2696 00e8 FFF7FEFF 		bl	AnalogSetDefault
1382:Generated_Source\PSoC5/cyfitter_cfg.c **** 
1383:Generated_Source\PSoC5/cyfitter_cfg.c **** 	/* Configure alternate active mode */
1384:Generated_Source\PSoC5/cyfitter_cfg.c **** 	CYCONFIGCPY((void CYFAR *)CYDEV_PM_STBY_BASE, (const void CYFAR *)CYDEV_PM_ACT_BASE, 14u);
 2697              		.loc 1 1384 0
 2698 00ec 0E22     		movs	r2, #14
 2699 00ee 0E49     		ldr	r1, .L86+44
 2700 00f0 2048     		ldr	r0, .L86+120
 2701 00f2 FFF7FEFF 		bl	CYCONFIGCPY
1385:Generated_Source\PSoC5/cyfitter_cfg.c **** }
 2702              		.loc 1 1385 0
 2703 00f6 00BF     		nop
 2704 00f8 80BD     		pop	{r7, pc}
 2705              	.L87:
 2706 00fa 00BF     		.align	2
 2707              	.L86:
 2708 00fc 00480040 		.word	1073760256
 2709 0100 70580040 		.word	1073764464
 2710 0104 83580040 		.word	1073764483
 2711 0108 4C580040 		.word	1073764428
 2712 010c 00760040 		.word	1073772032
 2713 0110 2C210048 		.word	1207968044
 2714 0114 08760040 		.word	1073772040
ARM GAS  C:\Users\JEFFSN~1\AppData\Local\Temp\ccuEuQhg.s 			page 73


 2715 0118 58080140 		.word	1073809496
 2716 011c 04040084 		.word	-2080373756
 2717 0120 03500140 		.word	1073827843
 2718 0124 13500140 		.word	1073827859
 2719 0128 A0430040 		.word	1073759136
 2720 012c C2430040 		.word	1073759170
 2721 0130 E8200048 		.word	1207967976
 2722 0134 02510040 		.word	1073762562
 2723 0138 F0200048 		.word	1207967984
 2724 013c F2510040 		.word	1073762802
 2725 0140 F8200048 		.word	1207967992
 2726 0144 12510040 		.word	1073762578
 2727 0148 00210048 		.word	1207968000
 2728 014c 22510040 		.word	1073762594
 2729 0150 08210048 		.word	1207968008
 2730 0154 32510040 		.word	1073762610
 2731 0158 10210048 		.word	1207968016
 2732 015c 42510040 		.word	1073762626
 2733 0160 18210048 		.word	1207968024
 2734 0164 52510040 		.word	1073762642
 2735 0168 20210048 		.word	1207968032
 2736 016c 62510040 		.word	1073762658
 2737 0170 22430040 		.word	1073759010
 2738 0174 B0430040 		.word	1073759152
 2739              		.cfi_endproc
 2740              	.LFE18:
 2741              		.size	cyfitter_cfg, .-cyfitter_cfg
 2742              		.bss
 2743 000d 000000   		.align	3
 2744              	DMA_ZERO_VAL.5005:
 2745 0010 00000000 		.space	4
 2746              		.section	.rodata
 2747 00bd 000000   		.align	2
 2748              		.type	CFG_TD_ADDR0.5007, %object
 2749              		.size	CFG_TD_ADDR0.5007, 364
 2750              	CFG_TD_ADDR0.5007:
 2751 00c0 00000000 		.word	CH1_ADDR_DATA0.5000
 2752 00c4 08000000 		.word	CH2_ADDR_DATA0.5001
 2753 00c8 10000000 		.word	CH5_ADDR_DATA0.5002
 2754 00cc 18000000 		.word	CH6_ADDR_DATA0.5003
 2755 00d0 20000000 		.word	DMA_TD_START_CMD.5004
 2756 00d4 20000000 		.word	DMA_TD_START_CMD.5004
 2757 00d8 20000000 		.word	DMA_TD_START_CMD.5004
 2758 00dc 20000000 		.word	DMA_TD_START_CMD.5004
 2759 00e0 10000000 		.word	DMA_ZERO_VAL.5005
 2760 00e4 10000000 		.word	DMA_ZERO_VAL.5005
 2761 00e8 10000000 		.word	DMA_ZERO_VAL.5005
 2762 00ec 10000000 		.word	DMA_ZERO_VAL.5005
 2763 00f0 10000000 		.word	DMA_ZERO_VAL.5005
 2764 00f4 10000000 		.word	DMA_ZERO_VAL.5005
 2765 00f8 08000048 		.word	1207959560
 2766 00fc 10000048 		.word	1207959568
 2767 0100 18000048 		.word	1207959576
 2768 0104 20000048 		.word	1207959584
 2769 0108 28000048 		.word	1207959592
 2770 010c 30000048 		.word	1207959600
 2771 0110 40000048 		.word	1207959616
ARM GAS  C:\Users\JEFFSN~1\AppData\Local\Temp\ccuEuQhg.s 			page 74


 2772 0114 C80A0048 		.word	1207962312
 2773 0118 080B0048 		.word	1207962376
 2774 011c 280B0048 		.word	1207962408
 2775 0120 38000048 		.word	1207959608
 2776 0124 48000048 		.word	1207959624
 2777 0128 C8000048 		.word	1207959752
 2778 012c 48010048 		.word	1207959880
 2779 0130 C8010048 		.word	1207960008
 2780 0134 48020048 		.word	1207960136
 2781 0138 C8020048 		.word	1207960264
 2782 013c 48030048 		.word	1207960392
 2783 0140 C8030048 		.word	1207960520
 2784 0144 48040048 		.word	1207960648
 2785 0148 C8040048 		.word	1207960776
 2786 014c 48050048 		.word	1207960904
 2787 0150 C8050048 		.word	1207961032
 2788 0154 48060048 		.word	1207961160
 2789 0158 C8060048 		.word	1207961288
 2790 015c 48070048 		.word	1207961416
 2791 0160 C8070048 		.word	1207961544
 2792 0164 48080048 		.word	1207961672
 2793 0168 C8080048 		.word	1207961800
 2794 016c 48090048 		.word	1207961928
 2795 0170 C8090048 		.word	1207962056
 2796 0174 480A0048 		.word	1207962184
 2797 0178 480B0048 		.word	1207962440
 2798 017c 580B0048 		.word	1207962456
 2799 0180 680B0048 		.word	1207962472
 2800 0184 E80B0048 		.word	1207962600
 2801 0188 680C0048 		.word	1207962728
 2802 018c E80C0048 		.word	1207962856
 2803 0190 680D0048 		.word	1207962984
 2804 0194 E80D0048 		.word	1207963112
 2805 0198 680E0048 		.word	1207963240
 2806 019c E80E0048 		.word	1207963368
 2807 01a0 680F0048 		.word	1207963496
 2808 01a4 E80F0048 		.word	1207963624
 2809 01a8 68100048 		.word	1207963752
 2810 01ac E8100048 		.word	1207963880
 2811 01b0 68110048 		.word	1207964008
 2812 01b4 E8110048 		.word	1207964136
 2813 01b8 68120048 		.word	1207964264
 2814 01bc E8120048 		.word	1207964392
 2815 01c0 68130048 		.word	1207964520
 2816 01c4 E8130048 		.word	1207964648
 2817 01c8 68140048 		.word	1207964776
 2818 01cc E8140048 		.word	1207964904
 2819 01d0 68150048 		.word	1207965032
 2820 01d4 E8150048 		.word	1207965160
 2821 01d8 68160048 		.word	1207965288
 2822 01dc E8160048 		.word	1207965416
 2823 01e0 68170048 		.word	1207965544
 2824 01e4 E8170048 		.word	1207965672
 2825 01e8 68180048 		.word	1207965800
 2826 01ec E8180048 		.word	1207965928
 2827 01f0 68190048 		.word	1207966056
 2828 01f4 E8190048 		.word	1207966184
ARM GAS  C:\Users\JEFFSN~1\AppData\Local\Temp\ccuEuQhg.s 			page 75


 2829 01f8 681A0048 		.word	1207966312
 2830 01fc E81A0048 		.word	1207966440
 2831 0200 681B0048 		.word	1207966568
 2832 0204 E81B0048 		.word	1207966696
 2833 0208 681C0048 		.word	1207966824
 2834 020c E81C0048 		.word	1207966952
 2835 0210 681D0048 		.word	1207967080
 2836 0214 E81D0048 		.word	1207967208
 2837 0218 681E0048 		.word	1207967336
 2838 021c E81E0048 		.word	1207967464
 2839 0220 681F0048 		.word	1207967592
 2840 0224 E81F0048 		.word	1207967720
 2841 0228 68200048 		.word	1207967848
 2842              		.text
 2843              	.Letext0:
 2844              		.file 2 "c:\\program files (x86)\\cypress\\psoc creator\\4.4\\psoc creator\\import\\gnu\\arm\\5.4.
 2845              		.file 3 "Generated_Source\\PSoC5\\cytypes.h"
 2846              		.section	.debug_info,"",%progbits
 2847              	.Ldebug_info0:
 2848 0000 F9080000 		.4byte	0x8f9
 2849 0004 0400     		.2byte	0x4
 2850 0006 00000000 		.4byte	.Ldebug_abbrev0
 2851 000a 04       		.byte	0x4
 2852 000b 01       		.uleb128 0x1
 2853 000c 46000000 		.4byte	.LASF84
 2854 0010 0C       		.byte	0xc
 2855 0011 D9050000 		.4byte	.LASF85
 2856 0015 59020000 		.4byte	.LASF86
 2857 0019 00000000 		.4byte	.Ldebug_ranges0+0
 2858 001d 00000000 		.4byte	0
 2859 0021 00000000 		.4byte	.Ldebug_line0
 2860 0025 02       		.uleb128 0x2
 2861 0026 04       		.byte	0x4
 2862 0027 05       		.byte	0x5
 2863 0028 696E7400 		.ascii	"int\000"
 2864 002c 03       		.uleb128 0x3
 2865 002d 19000000 		.4byte	.LASF12
 2866 0031 02       		.byte	0x2
 2867 0032 D8       		.byte	0xd8
 2868 0033 37000000 		.4byte	0x37
 2869 0037 04       		.uleb128 0x4
 2870 0038 04       		.byte	0x4
 2871 0039 07       		.byte	0x7
 2872 003a E3020000 		.4byte	.LASF0
 2873 003e 04       		.uleb128 0x4
 2874 003f 08       		.byte	0x8
 2875 0040 05       		.byte	0x5
 2876 0041 44010000 		.4byte	.LASF1
 2877 0045 04       		.uleb128 0x4
 2878 0046 08       		.byte	0x8
 2879 0047 04       		.byte	0x4
 2880 0048 BE030000 		.4byte	.LASF2
 2881 004c 04       		.uleb128 0x4
 2882 004d 01       		.byte	0x1
 2883 004e 06       		.byte	0x6
 2884 004f 52010000 		.4byte	.LASF3
 2885 0053 04       		.uleb128 0x4
ARM GAS  C:\Users\JEFFSN~1\AppData\Local\Temp\ccuEuQhg.s 			page 76


 2886 0054 01       		.byte	0x1
 2887 0055 08       		.byte	0x8
 2888 0056 86040000 		.4byte	.LASF4
 2889 005a 04       		.uleb128 0x4
 2890 005b 02       		.byte	0x2
 2891 005c 05       		.byte	0x5
 2892 005d 99040000 		.4byte	.LASF5
 2893 0061 04       		.uleb128 0x4
 2894 0062 02       		.byte	0x2
 2895 0063 07       		.byte	0x7
 2896 0064 7D030000 		.4byte	.LASF6
 2897 0068 04       		.uleb128 0x4
 2898 0069 04       		.byte	0x4
 2899 006a 05       		.byte	0x5
 2900 006b B8010000 		.4byte	.LASF7
 2901 006f 04       		.uleb128 0x4
 2902 0070 04       		.byte	0x4
 2903 0071 07       		.byte	0x7
 2904 0072 27030000 		.4byte	.LASF8
 2905 0076 04       		.uleb128 0x4
 2906 0077 08       		.byte	0x8
 2907 0078 07       		.byte	0x7
 2908 0079 D4000000 		.4byte	.LASF9
 2909 007d 04       		.uleb128 0x4
 2910 007e 04       		.byte	0x4
 2911 007f 07       		.byte	0x7
 2912 0080 B5030000 		.4byte	.LASF10
 2913 0084 05       		.uleb128 0x5
 2914 0085 04       		.byte	0x4
 2915 0086 04       		.uleb128 0x4
 2916 0087 01       		.byte	0x1
 2917 0088 08       		.byte	0x8
 2918 0089 4B050000 		.4byte	.LASF11
 2919 008d 06       		.uleb128 0x6
 2920 008e D6010000 		.4byte	.LASF13
 2921 0092 03       		.byte	0x3
 2922 0093 E901     		.2byte	0x1e9
 2923 0095 53000000 		.4byte	0x53
 2924 0099 06       		.uleb128 0x6
 2925 009a 12000000 		.4byte	.LASF14
 2926 009e 03       		.byte	0x3
 2927 009f EA01     		.2byte	0x1ea
 2928 00a1 61000000 		.4byte	0x61
 2929 00a5 06       		.uleb128 0x6
 2930 00a6 1D020000 		.4byte	.LASF15
 2931 00aa 03       		.byte	0x3
 2932 00ab EB01     		.2byte	0x1eb
 2933 00ad 6F000000 		.4byte	0x6f
 2934 00b1 04       		.uleb128 0x4
 2935 00b2 04       		.byte	0x4
 2936 00b3 04       		.byte	0x4
 2937 00b4 42040000 		.4byte	.LASF16
 2938 00b8 04       		.uleb128 0x4
 2939 00b9 08       		.byte	0x8
 2940 00ba 04       		.byte	0x4
 2941 00bb FA010000 		.4byte	.LASF17
 2942 00bf 06       		.uleb128 0x6
ARM GAS  C:\Users\JEFFSN~1\AppData\Local\Temp\ccuEuQhg.s 			page 77


 2943 00c0 81040000 		.4byte	.LASF18
 2944 00c4 03       		.byte	0x3
 2945 00c5 9302     		.2byte	0x293
 2946 00c7 CB000000 		.4byte	0xcb
 2947 00cb 07       		.uleb128 0x7
 2948 00cc 8D000000 		.4byte	0x8d
 2949 00d0 06       		.uleb128 0x6
 2950 00d1 D0010000 		.4byte	.LASF19
 2951 00d5 03       		.byte	0x3
 2952 00d6 9402     		.2byte	0x294
 2953 00d8 DC000000 		.4byte	0xdc
 2954 00dc 07       		.uleb128 0x7
 2955 00dd 99000000 		.4byte	0x99
 2956 00e1 06       		.uleb128 0x6
 2957 00e2 9F030000 		.4byte	.LASF20
 2958 00e6 03       		.byte	0x3
 2959 00e7 9502     		.2byte	0x295
 2960 00e9 ED000000 		.4byte	0xed
 2961 00ed 07       		.uleb128 0x7
 2962 00ee A5000000 		.4byte	0xa5
 2963 00f2 08       		.uleb128 0x8
 2964 00f3 6F010000 		.4byte	.LASF21
 2965 00f7 01       		.byte	0x1
 2966 00f8 64       		.byte	0x64
 2967 00f9 00000000 		.4byte	.LFB0
 2968 00fd 1C000000 		.4byte	.LFE0-.LFB0
 2969 0101 01       		.uleb128 0x1
 2970 0102 9C       		.byte	0x9c
 2971 0103 20010000 		.4byte	0x120
 2972 0107 09       		.uleb128 0x9
 2973 0108 7300     		.ascii	"s\000"
 2974 010a 01       		.byte	0x1
 2975 010b 64       		.byte	0x64
 2976 010c 84000000 		.4byte	0x84
 2977 0110 02       		.uleb128 0x2
 2978 0111 91       		.byte	0x91
 2979 0112 74       		.sleb128 -12
 2980 0113 09       		.uleb128 0x9
 2981 0114 6E00     		.ascii	"n\000"
 2982 0116 01       		.byte	0x1
 2983 0117 64       		.byte	0x64
 2984 0118 2C000000 		.4byte	0x2c
 2985 011c 02       		.uleb128 0x2
 2986 011d 91       		.byte	0x91
 2987 011e 70       		.sleb128 -16
 2988 011f 00       		.byte	0
 2989 0120 08       		.uleb128 0x8
 2990 0121 B1050000 		.4byte	.LASF22
 2991 0125 01       		.byte	0x1
 2992 0126 6B       		.byte	0x6b
 2993 0127 00000000 		.4byte	.LFB1
 2994 012b 1E000000 		.4byte	.LFE1-.LFB1
 2995 012f 01       		.uleb128 0x1
 2996 0130 9C       		.byte	0x9c
 2997 0131 5E010000 		.4byte	0x15e
 2998 0135 0A       		.uleb128 0xa
 2999 0136 1E040000 		.4byte	.LASF23
ARM GAS  C:\Users\JEFFSN~1\AppData\Local\Temp\ccuEuQhg.s 			page 78


 3000 013a 01       		.byte	0x1
 3001 013b 6B       		.byte	0x6b
 3002 013c 84000000 		.4byte	0x84
 3003 0140 02       		.uleb128 0x2
 3004 0141 91       		.byte	0x91
 3005 0142 74       		.sleb128 -12
 3006 0143 09       		.uleb128 0x9
 3007 0144 73726300 		.ascii	"src\000"
 3008 0148 01       		.byte	0x1
 3009 0149 6B       		.byte	0x6b
 3010 014a 5E010000 		.4byte	0x15e
 3011 014e 02       		.uleb128 0x2
 3012 014f 91       		.byte	0x91
 3013 0150 70       		.sleb128 -16
 3014 0151 09       		.uleb128 0x9
 3015 0152 6E00     		.ascii	"n\000"
 3016 0154 01       		.byte	0x1
 3017 0155 6B       		.byte	0x6b
 3018 0156 2C000000 		.4byte	0x2c
 3019 015a 02       		.uleb128 0x2
 3020 015b 91       		.byte	0x91
 3021 015c 6C       		.sleb128 -20
 3022 015d 00       		.byte	0
 3023 015e 0B       		.uleb128 0xb
 3024 015f 04       		.byte	0x4
 3025 0160 64010000 		.4byte	0x164
 3026 0164 0C       		.uleb128 0xc
 3027 0165 08       		.uleb128 0x8
 3028 0166 A5030000 		.4byte	.LASF24
 3029 016a 01       		.byte	0x1
 3030 016b 72       		.byte	0x72
 3031 016c 00000000 		.4byte	.LFB2
 3032 0170 1E000000 		.4byte	.LFE2-.LFB2
 3033 0174 01       		.uleb128 0x1
 3034 0175 9C       		.byte	0x9c
 3035 0176 A3010000 		.4byte	0x1a3
 3036 017a 0A       		.uleb128 0xa
 3037 017b 1E040000 		.4byte	.LASF23
 3038 017f 01       		.byte	0x1
 3039 0180 72       		.byte	0x72
 3040 0181 84000000 		.4byte	0x84
 3041 0185 02       		.uleb128 0x2
 3042 0186 91       		.byte	0x91
 3043 0187 74       		.sleb128 -12
 3044 0188 09       		.uleb128 0x9
 3045 0189 73726300 		.ascii	"src\000"
 3046 018d 01       		.byte	0x1
 3047 018e 72       		.byte	0x72
 3048 018f 5E010000 		.4byte	0x15e
 3049 0193 02       		.uleb128 0x2
 3050 0194 91       		.byte	0x91
 3051 0195 70       		.sleb128 -16
 3052 0196 09       		.uleb128 0x9
 3053 0197 6E00     		.ascii	"n\000"
 3054 0199 01       		.byte	0x1
 3055 019a 72       		.byte	0x72
 3056 019b 2C000000 		.4byte	0x2c
ARM GAS  C:\Users\JEFFSN~1\AppData\Local\Temp\ccuEuQhg.s 			page 79


 3057 019f 02       		.uleb128 0x2
 3058 01a0 91       		.byte	0x91
 3059 01a1 6C       		.sleb128 -20
 3060 01a2 00       		.byte	0
 3061 01a3 0D       		.uleb128 0xd
 3062 01a4 20000000 		.4byte	.LASF25
 3063 01a8 01       		.byte	0x1
 3064 01a9 96       		.byte	0x96
 3065 01aa 00000000 		.4byte	.LFB3
 3066 01ae 0C000000 		.4byte	.LFE3-.LFB3
 3067 01b2 01       		.uleb128 0x1
 3068 01b3 9C       		.byte	0x9c
 3069 01b4 C7010000 		.4byte	0x1c7
 3070 01b8 0A       		.uleb128 0xa
 3071 01b9 AE010000 		.4byte	.LASF26
 3072 01bd 01       		.byte	0x1
 3073 01be 96       		.byte	0x96
 3074 01bf 8D000000 		.4byte	0x8d
 3075 01c3 02       		.uleb128 0x2
 3076 01c4 91       		.byte	0x91
 3077 01c5 77       		.sleb128 -9
 3078 01c6 00       		.byte	0
 3079 01c7 0E       		.uleb128 0xe
 3080 01c8 EB000000 		.4byte	.LASF27
 3081 01cc 01       		.byte	0x1
 3082 01cd C701     		.2byte	0x1c7
 3083 01cf 00000000 		.4byte	.LFB4
 3084 01d3 80010000 		.4byte	.LFE4-.LFB4
 3085 01d7 01       		.uleb128 0x1
 3086 01d8 9C       		.byte	0x9c
 3087 01d9 CF020000 		.4byte	0x2cf
 3088 01dd 0F       		.uleb128 0xf
 3089 01de 94040000 		.4byte	.LASF87
 3090 01e2 08       		.byte	0x8
 3091 01e3 01       		.byte	0x1
 3092 01e4 CA01     		.2byte	0x1ca
 3093 01e6 2C020000 		.4byte	0x22c
 3094 01ea 10       		.uleb128 0x10
 3095 01eb 78030000 		.4byte	.LASF28
 3096 01ef 01       		.byte	0x1
 3097 01f0 CB01     		.2byte	0x1cb
 3098 01f2 99000000 		.4byte	0x99
 3099 01f6 00       		.byte	0
 3100 01f7 10       		.uleb128 0x10
 3101 01f8 EE010000 		.4byte	.LASF29
 3102 01fc 01       		.byte	0x1
 3103 01fd CC01     		.2byte	0x1cc
 3104 01ff 8D000000 		.4byte	0x8d
 3105 0203 02       		.byte	0x2
 3106 0204 10       		.uleb128 0x10
 3107 0205 FF050000 		.4byte	.LASF30
 3108 0209 01       		.byte	0x1
 3109 020a CD01     		.2byte	0x1cd
 3110 020c 8D000000 		.4byte	0x8d
 3111 0210 03       		.byte	0x3
 3112 0211 11       		.uleb128 0x11
 3113 0212 73726300 		.ascii	"src\000"
ARM GAS  C:\Users\JEFFSN~1\AppData\Local\Temp\ccuEuQhg.s 			page 80


 3114 0216 01       		.byte	0x1
 3115 0217 CE01     		.2byte	0x1ce
 3116 0219 99000000 		.4byte	0x99
 3117 021d 04       		.byte	0x4
 3118 021e 10       		.uleb128 0x10
 3119 021f 1E040000 		.4byte	.LASF23
 3120 0223 01       		.byte	0x1
 3121 0224 CF01     		.2byte	0x1cf
 3122 0226 99000000 		.4byte	0x99
 3123 022a 06       		.byte	0x6
 3124 022b 00       		.byte	0
 3125 022c 12       		.uleb128 0x12
 3126 022d A3040000 		.4byte	.LASF31
 3127 0231 01       		.byte	0x1
 3128 0232 D301     		.2byte	0x1d3
 3129 0234 E4020000 		.4byte	0x2e4
 3130 0238 05       		.uleb128 0x5
 3131 0239 03       		.byte	0x3
 3132 023a 00000000 		.4byte	CH1_ADDR_DATA0.5000
 3133 023e 12       		.uleb128 0x12
 3134 023f 11050000 		.4byte	.LASF32
 3135 0243 01       		.byte	0x1
 3136 0244 D601     		.2byte	0x1d6
 3137 0246 E9020000 		.4byte	0x2e9
 3138 024a 05       		.uleb128 0x5
 3139 024b 03       		.byte	0x3
 3140 024c 08000000 		.4byte	CH2_ADDR_DATA0.5001
 3141 0250 12       		.uleb128 0x12
 3142 0251 A2050000 		.4byte	.LASF33
 3143 0255 01       		.byte	0x1
 3144 0256 D901     		.2byte	0x1d9
 3145 0258 EE020000 		.4byte	0x2ee
 3146 025c 05       		.uleb128 0x5
 3147 025d 03       		.byte	0x3
 3148 025e 10000000 		.4byte	CH5_ADDR_DATA0.5002
 3149 0262 12       		.uleb128 0x12
 3150 0263 C1010000 		.4byte	.LASF34
 3151 0267 01       		.byte	0x1
 3152 0268 DC01     		.2byte	0x1dc
 3153 026a F3020000 		.4byte	0x2f3
 3154 026e 05       		.uleb128 0x5
 3155 026f 03       		.byte	0x3
 3156 0270 18000000 		.4byte	CH6_ADDR_DATA0.5003
 3157 0274 12       		.uleb128 0x12
 3158 0275 67030000 		.4byte	.LASF35
 3159 0279 01       		.byte	0x1
 3160 027a DF01     		.2byte	0x1df
 3161 027c 08030000 		.4byte	0x308
 3162 0280 05       		.uleb128 0x5
 3163 0281 03       		.byte	0x3
 3164 0282 20000000 		.4byte	DMA_TD_START_CMD.5004
 3165 0286 12       		.uleb128 0x12
 3166 0287 21060000 		.4byte	.LASF36
 3167 028b 01       		.byte	0x1
 3168 028c E101     		.2byte	0x1e1
 3169 028e A5000000 		.4byte	0xa5
 3170 0292 05       		.uleb128 0x5
ARM GAS  C:\Users\JEFFSN~1\AppData\Local\Temp\ccuEuQhg.s 			page 81


 3171 0293 03       		.byte	0x3
 3172 0294 10000000 		.4byte	DMA_ZERO_VAL.5005
 3173 0298 13       		.uleb128 0x13
 3174 0299 DD010000 		.4byte	0x1dd
 3175 029d 12       		.uleb128 0x12
 3176 029e 8B010000 		.4byte	.LASF37
 3177 02a2 01       		.byte	0x1
 3178 02a3 E901     		.2byte	0x1e9
 3179 02a5 1D030000 		.4byte	0x31d
 3180 02a9 05       		.uleb128 0x5
 3181 02aa 03       		.byte	0x3
 3182 02ab 28000000 		.4byte	CFG_TD_LIST0.5006
 3183 02af 12       		.uleb128 0x12
 3184 02b0 10020000 		.4byte	.LASF38
 3185 02b4 01       		.byte	0x1
 3186 02b5 4D02     		.2byte	0x24d
 3187 02b7 37030000 		.4byte	0x337
 3188 02bb 05       		.uleb128 0x5
 3189 02bc 03       		.byte	0x3
 3190 02bd C0000000 		.4byte	CFG_TD_ADDR0.5007
 3191 02c1 14       		.uleb128 0x14
 3192 02c2 6900     		.ascii	"i\000"
 3193 02c4 01       		.byte	0x1
 3194 02c5 AC02     		.2byte	0x2ac
 3195 02c7 A5000000 		.4byte	0xa5
 3196 02cb 02       		.uleb128 0x2
 3197 02cc 91       		.byte	0x91
 3198 02cd 74       		.sleb128 -12
 3199 02ce 00       		.byte	0
 3200 02cf 15       		.uleb128 0x15
 3201 02d0 DF020000 		.4byte	0x2df
 3202 02d4 DF020000 		.4byte	0x2df
 3203 02d8 16       		.uleb128 0x16
 3204 02d9 7D000000 		.4byte	0x7d
 3205 02dd 07       		.byte	0x7
 3206 02de 00       		.byte	0
 3207 02df 13       		.uleb128 0x13
 3208 02e0 8D000000 		.4byte	0x8d
 3209 02e4 13       		.uleb128 0x13
 3210 02e5 CF020000 		.4byte	0x2cf
 3211 02e9 13       		.uleb128 0x13
 3212 02ea CF020000 		.4byte	0x2cf
 3213 02ee 13       		.uleb128 0x13
 3214 02ef CF020000 		.4byte	0x2cf
 3215 02f3 13       		.uleb128 0x13
 3216 02f4 CF020000 		.4byte	0x2cf
 3217 02f8 15       		.uleb128 0x15
 3218 02f9 DF020000 		.4byte	0x2df
 3219 02fd 08030000 		.4byte	0x308
 3220 0301 16       		.uleb128 0x16
 3221 0302 7D000000 		.4byte	0x7d
 3222 0306 04       		.byte	0x4
 3223 0307 00       		.byte	0
 3224 0308 13       		.uleb128 0x13
 3225 0309 F8020000 		.4byte	0x2f8
 3226 030d 15       		.uleb128 0x15
 3227 030e 98020000 		.4byte	0x298
ARM GAS  C:\Users\JEFFSN~1\AppData\Local\Temp\ccuEuQhg.s 			page 82


 3228 0312 1D030000 		.4byte	0x31d
 3229 0316 16       		.uleb128 0x16
 3230 0317 7D000000 		.4byte	0x7d
 3231 031b 5A       		.byte	0x5a
 3232 031c 00       		.byte	0
 3233 031d 13       		.uleb128 0x13
 3234 031e 0D030000 		.4byte	0x30d
 3235 0322 15       		.uleb128 0x15
 3236 0323 32030000 		.4byte	0x332
 3237 0327 32030000 		.4byte	0x332
 3238 032b 16       		.uleb128 0x16
 3239 032c 7D000000 		.4byte	0x7d
 3240 0330 5A       		.byte	0x5a
 3241 0331 00       		.byte	0
 3242 0332 13       		.uleb128 0x13
 3243 0333 5E010000 		.4byte	0x15e
 3244 0337 13       		.uleb128 0x13
 3245 0338 22030000 		.4byte	0x322
 3246 033c 0E       		.uleb128 0xe
 3247 033d 98010000 		.4byte	.LASF39
 3248 0341 01       		.byte	0x1
 3249 0342 EB02     		.2byte	0x2eb
 3250 0344 00000000 		.4byte	.LFB5
 3251 0348 98010000 		.4byte	.LFE5-.LFB5
 3252 034c 01       		.uleb128 0x1
 3253 034d 9C       		.byte	0x9c
 3254 034e 71030000 		.4byte	0x371
 3255 0352 12       		.uleb128 0x12
 3256 0353 4B030000 		.4byte	.LASF40
 3257 0357 01       		.byte	0x1
 3258 0358 ED02     		.2byte	0x2ed
 3259 035a A5000000 		.4byte	0xa5
 3260 035e 02       		.uleb128 0x2
 3261 035f 91       		.byte	0x91
 3262 0360 74       		.sleb128 -12
 3263 0361 12       		.uleb128 0x12
 3264 0362 D0040000 		.4byte	.LASF41
 3265 0366 01       		.byte	0x1
 3266 0367 EE02     		.2byte	0x2ee
 3267 0369 8D000000 		.4byte	0x8d
 3268 036d 02       		.uleb128 0x2
 3269 036e 91       		.byte	0x91
 3270 036f 73       		.sleb128 -13
 3271 0370 00       		.byte	0
 3272 0371 0E       		.uleb128 0xe
 3273 0372 12010000 		.4byte	.LASF42
 3274 0376 01       		.byte	0x1
 3275 0377 3C03     		.2byte	0x33c
 3276 0379 00000000 		.4byte	.LFB6
 3277 037d 40010000 		.4byte	.LFE6-.LFB6
 3278 0381 01       		.uleb128 0x1
 3279 0382 9C       		.byte	0x9c
 3280 0383 B5030000 		.4byte	0x3b5
 3281 0387 12       		.uleb128 0x12
 3282 0388 DE030000 		.4byte	.LASF43
 3283 038c 01       		.byte	0x1
 3284 038d 3E03     		.2byte	0x33e
ARM GAS  C:\Users\JEFFSN~1\AppData\Local\Temp\ccuEuQhg.s 			page 83


 3285 038f 8D000000 		.4byte	0x8d
 3286 0393 02       		.uleb128 0x2
 3287 0394 91       		.byte	0x91
 3288 0395 77       		.sleb128 -9
 3289 0396 14       		.uleb128 0x14
 3290 0397 63723400 		.ascii	"cr4\000"
 3291 039b 01       		.byte	0x1
 3292 039c 3F03     		.2byte	0x33f
 3293 039e 8D000000 		.4byte	0x8d
 3294 03a2 02       		.uleb128 0x2
 3295 03a3 91       		.byte	0x91
 3296 03a4 76       		.sleb128 -10
 3297 03a5 14       		.uleb128 0x14
 3298 03a6 63723500 		.ascii	"cr5\000"
 3299 03aa 01       		.byte	0x1
 3300 03ab 4003     		.2byte	0x340
 3301 03ad 8D000000 		.4byte	0x8d
 3302 03b1 02       		.uleb128 0x2
 3303 03b2 91       		.byte	0x91
 3304 03b3 75       		.sleb128 -11
 3305 03b4 00       		.byte	0
 3306 03b5 17       		.uleb128 0x17
 3307 03b6 6F050000 		.4byte	.LASF46
 3308 03ba 01       		.byte	0x1
 3309 03bb 7103     		.2byte	0x371
 3310 03bd 00000000 		.4byte	.LFB7
 3311 03c1 3C000000 		.4byte	.LFE7-.LFB7
 3312 03c5 01       		.uleb128 0x1
 3313 03c6 9C       		.byte	0x9c
 3314 03c7 EA030000 		.4byte	0x3ea
 3315 03cb 18       		.uleb128 0x18
 3316 03cc 9A050000 		.4byte	.LASF44
 3317 03d0 01       		.byte	0x1
 3318 03d1 7103     		.2byte	0x371
 3319 03d3 8D000000 		.4byte	0x8d
 3320 03d7 02       		.uleb128 0x2
 3321 03d8 91       		.byte	0x91
 3322 03d9 6F       		.sleb128 -17
 3323 03da 12       		.uleb128 0x12
 3324 03db 43020000 		.4byte	.LASF45
 3325 03df 01       		.byte	0x1
 3326 03e0 7303     		.2byte	0x373
 3327 03e2 8D000000 		.4byte	0x8d
 3328 03e6 02       		.uleb128 0x2
 3329 03e7 91       		.byte	0x91
 3330 03e8 77       		.sleb128 -9
 3331 03e9 00       		.byte	0
 3332 03ea 17       		.uleb128 0x17
 3333 03eb 0F030000 		.4byte	.LASF47
 3334 03ef 01       		.byte	0x1
 3335 03f0 B003     		.2byte	0x3b0
 3336 03f2 00000000 		.4byte	.LFB8
 3337 03f6 B8000000 		.4byte	.LFE8-.LFB8
 3338 03fa 01       		.uleb128 0x1
 3339 03fb 9C       		.byte	0x9c
 3340 03fc 2C040000 		.4byte	0x42c
 3341 0400 18       		.uleb128 0x18
ARM GAS  C:\Users\JEFFSN~1\AppData\Local\Temp\ccuEuQhg.s 			page 84


 3342 0401 D8040000 		.4byte	.LASF48
 3343 0405 01       		.byte	0x1
 3344 0406 B003     		.2byte	0x3b0
 3345 0408 8D000000 		.4byte	0x8d
 3346 040c 02       		.uleb128 0x2
 3347 040d 91       		.byte	0x91
 3348 040e 6F       		.sleb128 -17
 3349 040f 14       		.uleb128 0x14
 3350 0410 6900     		.ascii	"i\000"
 3351 0412 01       		.byte	0x1
 3352 0413 B203     		.2byte	0x3b2
 3353 0415 8D000000 		.4byte	0x8d
 3354 0419 02       		.uleb128 0x2
 3355 041a 91       		.byte	0x91
 3356 041b 76       		.sleb128 -10
 3357 041c 12       		.uleb128 0x12
 3358 041d 20050000 		.4byte	.LASF49
 3359 0421 01       		.byte	0x1
 3360 0422 B303     		.2byte	0x3b3
 3361 0424 8D000000 		.4byte	0x8d
 3362 0428 02       		.uleb128 0x2
 3363 0429 91       		.byte	0x91
 3364 042a 77       		.sleb128 -9
 3365 042b 00       		.byte	0
 3366 042c 17       		.uleb128 0x17
 3367 042d F8000000 		.4byte	.LASF50
 3368 0431 01       		.byte	0x1
 3369 0432 CF03     		.2byte	0x3cf
 3370 0434 00000000 		.4byte	.LFB9
 3371 0438 C4000000 		.4byte	.LFE9-.LFB9
 3372 043c 01       		.uleb128 0x1
 3373 043d 9C       		.byte	0x9c
 3374 043e 6E040000 		.4byte	0x46e
 3375 0442 18       		.uleb128 0x18
 3376 0443 D8040000 		.4byte	.LASF48
 3377 0447 01       		.byte	0x1
 3378 0448 CF03     		.2byte	0x3cf
 3379 044a 8D000000 		.4byte	0x8d
 3380 044e 02       		.uleb128 0x2
 3381 044f 91       		.byte	0x91
 3382 0450 6F       		.sleb128 -17
 3383 0451 14       		.uleb128 0x14
 3384 0452 6900     		.ascii	"i\000"
 3385 0454 01       		.byte	0x1
 3386 0455 D103     		.2byte	0x3d1
 3387 0457 8D000000 		.4byte	0x8d
 3388 045b 02       		.uleb128 0x2
 3389 045c 91       		.byte	0x91
 3390 045d 76       		.sleb128 -10
 3391 045e 12       		.uleb128 0x12
 3392 045f 20050000 		.4byte	.LASF49
 3393 0463 01       		.byte	0x1
 3394 0464 D203     		.2byte	0x3d2
 3395 0466 8D000000 		.4byte	0x8d
 3396 046a 02       		.uleb128 0x2
 3397 046b 91       		.byte	0x91
 3398 046c 77       		.sleb128 -9
ARM GAS  C:\Users\JEFFSN~1\AppData\Local\Temp\ccuEuQhg.s 			page 85


 3399 046d 00       		.byte	0
 3400 046e 17       		.uleb128 0x17
 3401 046f 4A060000 		.4byte	.LASF51
 3402 0473 01       		.byte	0x1
 3403 0474 FF03     		.2byte	0x3ff
 3404 0476 00000000 		.4byte	.LFB10
 3405 047a 6C000000 		.4byte	.LFE10-.LFB10
 3406 047e 01       		.uleb128 0x1
 3407 047f 9C       		.byte	0x9c
 3408 0480 94040000 		.4byte	0x494
 3409 0484 18       		.uleb128 0x18
 3410 0485 D8040000 		.4byte	.LASF48
 3411 0489 01       		.byte	0x1
 3412 048a FF03     		.2byte	0x3ff
 3413 048c 8D000000 		.4byte	0x8d
 3414 0490 02       		.uleb128 0x2
 3415 0491 91       		.byte	0x91
 3416 0492 77       		.sleb128 -9
 3417 0493 00       		.byte	0
 3418 0494 17       		.uleb128 0x17
 3419 0495 67040000 		.4byte	.LASF52
 3420 0499 01       		.byte	0x1
 3421 049a 1804     		.2byte	0x418
 3422 049c 00000000 		.4byte	.LFB11
 3423 04a0 74000000 		.4byte	.LFE11-.LFB11
 3424 04a4 01       		.uleb128 0x1
 3425 04a5 9C       		.byte	0x9c
 3426 04a6 BA040000 		.4byte	0x4ba
 3427 04aa 18       		.uleb128 0x18
 3428 04ab D8040000 		.4byte	.LASF48
 3429 04af 01       		.byte	0x1
 3430 04b0 1804     		.2byte	0x418
 3431 04b2 8D000000 		.4byte	0x8d
 3432 04b6 02       		.uleb128 0x2
 3433 04b7 91       		.byte	0x91
 3434 04b8 77       		.sleb128 -9
 3435 04b9 00       		.byte	0
 3436 04ba 17       		.uleb128 0x17
 3437 04bb 02040000 		.4byte	.LASF53
 3438 04bf 01       		.byte	0x1
 3439 04c0 4A04     		.2byte	0x44a
 3440 04c2 00000000 		.4byte	.LFB12
 3441 04c6 A4000000 		.4byte	.LFE12-.LFB12
 3442 04ca 01       		.uleb128 0x1
 3443 04cb 9C       		.byte	0x9c
 3444 04cc FC040000 		.4byte	0x4fc
 3445 04d0 18       		.uleb128 0x18
 3446 04d1 D8040000 		.4byte	.LASF48
 3447 04d5 01       		.byte	0x1
 3448 04d6 4A04     		.2byte	0x44a
 3449 04d8 8D000000 		.4byte	0x8d
 3450 04dc 02       		.uleb128 0x2
 3451 04dd 91       		.byte	0x91
 3452 04de 6F       		.sleb128 -17
 3453 04df 14       		.uleb128 0x14
 3454 04e0 6900     		.ascii	"i\000"
 3455 04e2 01       		.byte	0x1
ARM GAS  C:\Users\JEFFSN~1\AppData\Local\Temp\ccuEuQhg.s 			page 86


 3456 04e3 4C04     		.2byte	0x44c
 3457 04e5 8D000000 		.4byte	0x8d
 3458 04e9 02       		.uleb128 0x2
 3459 04ea 91       		.byte	0x91
 3460 04eb 76       		.sleb128 -10
 3461 04ec 12       		.uleb128 0x12
 3462 04ed 20050000 		.4byte	.LASF49
 3463 04f1 01       		.byte	0x1
 3464 04f2 4D04     		.2byte	0x44d
 3465 04f4 8D000000 		.4byte	0x8d
 3466 04f8 02       		.uleb128 0x2
 3467 04f9 91       		.byte	0x91
 3468 04fa 77       		.sleb128 -9
 3469 04fb 00       		.byte	0
 3470 04fc 17       		.uleb128 0x17
 3471 04fd 50050000 		.4byte	.LASF54
 3472 0501 01       		.byte	0x1
 3473 0502 6904     		.2byte	0x469
 3474 0504 00000000 		.4byte	.LFB13
 3475 0508 B0000000 		.4byte	.LFE13-.LFB13
 3476 050c 01       		.uleb128 0x1
 3477 050d 9C       		.byte	0x9c
 3478 050e 3E050000 		.4byte	0x53e
 3479 0512 18       		.uleb128 0x18
 3480 0513 D8040000 		.4byte	.LASF48
 3481 0517 01       		.byte	0x1
 3482 0518 6904     		.2byte	0x469
 3483 051a 8D000000 		.4byte	0x8d
 3484 051e 02       		.uleb128 0x2
 3485 051f 91       		.byte	0x91
 3486 0520 6F       		.sleb128 -17
 3487 0521 14       		.uleb128 0x14
 3488 0522 6900     		.ascii	"i\000"
 3489 0524 01       		.byte	0x1
 3490 0525 6B04     		.2byte	0x46b
 3491 0527 8D000000 		.4byte	0x8d
 3492 052b 02       		.uleb128 0x2
 3493 052c 91       		.byte	0x91
 3494 052d 76       		.sleb128 -10
 3495 052e 12       		.uleb128 0x12
 3496 052f 20050000 		.4byte	.LASF49
 3497 0533 01       		.byte	0x1
 3498 0534 6C04     		.2byte	0x46c
 3499 0536 8D000000 		.4byte	0x8d
 3500 053a 02       		.uleb128 0x2
 3501 053b 91       		.byte	0x91
 3502 053c 77       		.sleb128 -9
 3503 053d 00       		.byte	0
 3504 053e 17       		.uleb128 0x17
 3505 053f A3010000 		.4byte	.LASF55
 3506 0543 01       		.byte	0x1
 3507 0544 A104     		.2byte	0x4a1
 3508 0546 00000000 		.4byte	.LFB14
 3509 054a A4000000 		.4byte	.LFE14-.LFB14
 3510 054e 01       		.uleb128 0x1
 3511 054f 9C       		.byte	0x9c
 3512 0550 80050000 		.4byte	0x580
ARM GAS  C:\Users\JEFFSN~1\AppData\Local\Temp\ccuEuQhg.s 			page 87


 3513 0554 18       		.uleb128 0x18
 3514 0555 D8040000 		.4byte	.LASF48
 3515 0559 01       		.byte	0x1
 3516 055a A104     		.2byte	0x4a1
 3517 055c 8D000000 		.4byte	0x8d
 3518 0560 02       		.uleb128 0x2
 3519 0561 91       		.byte	0x91
 3520 0562 6F       		.sleb128 -17
 3521 0563 14       		.uleb128 0x14
 3522 0564 6900     		.ascii	"i\000"
 3523 0566 01       		.byte	0x1
 3524 0567 A304     		.2byte	0x4a3
 3525 0569 8D000000 		.4byte	0x8d
 3526 056d 02       		.uleb128 0x2
 3527 056e 91       		.byte	0x91
 3528 056f 76       		.sleb128 -10
 3529 0570 12       		.uleb128 0x12
 3530 0571 20050000 		.4byte	.LASF49
 3531 0575 01       		.byte	0x1
 3532 0576 A404     		.2byte	0x4a4
 3533 0578 8D000000 		.4byte	0x8d
 3534 057c 02       		.uleb128 0x2
 3535 057d 91       		.byte	0x91
 3536 057e 77       		.sleb128 -9
 3537 057f 00       		.byte	0
 3538 0580 17       		.uleb128 0x17
 3539 0581 4C020000 		.4byte	.LASF56
 3540 0585 01       		.byte	0x1
 3541 0586 C004     		.2byte	0x4c0
 3542 0588 00000000 		.4byte	.LFB15
 3543 058c B0000000 		.4byte	.LFE15-.LFB15
 3544 0590 01       		.uleb128 0x1
 3545 0591 9C       		.byte	0x9c
 3546 0592 C2050000 		.4byte	0x5c2
 3547 0596 18       		.uleb128 0x18
 3548 0597 D8040000 		.4byte	.LASF48
 3549 059b 01       		.byte	0x1
 3550 059c C004     		.2byte	0x4c0
 3551 059e 8D000000 		.4byte	0x8d
 3552 05a2 02       		.uleb128 0x2
 3553 05a3 91       		.byte	0x91
 3554 05a4 6F       		.sleb128 -17
 3555 05a5 14       		.uleb128 0x14
 3556 05a6 6900     		.ascii	"i\000"
 3557 05a8 01       		.byte	0x1
 3558 05a9 C204     		.2byte	0x4c2
 3559 05ab 8D000000 		.4byte	0x8d
 3560 05af 02       		.uleb128 0x2
 3561 05b0 91       		.byte	0x91
 3562 05b1 76       		.sleb128 -10
 3563 05b2 12       		.uleb128 0x12
 3564 05b3 20050000 		.4byte	.LASF49
 3565 05b7 01       		.byte	0x1
 3566 05b8 C304     		.2byte	0x4c3
 3567 05ba 8D000000 		.4byte	0x8d
 3568 05be 02       		.uleb128 0x2
 3569 05bf 91       		.byte	0x91
ARM GAS  C:\Users\JEFFSN~1\AppData\Local\Temp\ccuEuQhg.s 			page 88


 3570 05c0 77       		.sleb128 -9
 3571 05c1 00       		.byte	0
 3572 05c2 17       		.uleb128 0x17
 3573 05c3 85050000 		.4byte	.LASF57
 3574 05c7 01       		.byte	0x1
 3575 05c8 0205     		.2byte	0x502
 3576 05ca 00000000 		.4byte	.LFB16
 3577 05ce 40000000 		.4byte	.LFE16-.LFB16
 3578 05d2 01       		.uleb128 0x1
 3579 05d3 9C       		.byte	0x9c
 3580 05d4 E8050000 		.4byte	0x5e8
 3581 05d8 18       		.uleb128 0x18
 3582 05d9 D8040000 		.4byte	.LASF48
 3583 05dd 01       		.byte	0x1
 3584 05de 0205     		.2byte	0x502
 3585 05e0 8D000000 		.4byte	0x8d
 3586 05e4 02       		.uleb128 0x2
 3587 05e5 91       		.byte	0x91
 3588 05e6 77       		.sleb128 -9
 3589 05e7 00       		.byte	0
 3590 05e8 17       		.uleb128 0x17
 3591 05e9 62060000 		.4byte	.LASF58
 3592 05ed 01       		.byte	0x1
 3593 05ee 1805     		.2byte	0x518
 3594 05f0 00000000 		.4byte	.LFB17
 3595 05f4 44000000 		.4byte	.LFE17-.LFB17
 3596 05f8 01       		.uleb128 0x1
 3597 05f9 9C       		.byte	0x9c
 3598 05fa 0E060000 		.4byte	0x60e
 3599 05fe 18       		.uleb128 0x18
 3600 05ff D8040000 		.4byte	.LASF48
 3601 0603 01       		.byte	0x1
 3602 0604 1805     		.2byte	0x518
 3603 0606 8D000000 		.4byte	0x8d
 3604 060a 02       		.uleb128 0x2
 3605 060b 91       		.byte	0x91
 3606 060c 77       		.sleb128 -9
 3607 060d 00       		.byte	0
 3608 060e 19       		.uleb128 0x19
 3609 060f 79060000 		.4byte	.LASF88
 3610 0613 01       		.byte	0x1
 3611 0614 3305     		.2byte	0x533
 3612 0616 00000000 		.4byte	.LFB18
 3613 061a 78010000 		.4byte	.LFE18-.LFB18
 3614 061e 01       		.uleb128 0x1
 3615 061f 9C       		.byte	0x9c
 3616 0620 15       		.uleb128 0x15
 3617 0621 36060000 		.4byte	0x636
 3618 0625 30060000 		.4byte	0x630
 3619 0629 16       		.uleb128 0x16
 3620 062a 7D000000 		.4byte	0x7d
 3621 062e 03       		.byte	0x3
 3622 062f 00       		.byte	0
 3623 0630 0B       		.uleb128 0xb
 3624 0631 04       		.byte	0x4
 3625 0632 8D000000 		.4byte	0x8d
 3626 0636 13       		.uleb128 0x13
ARM GAS  C:\Users\JEFFSN~1\AppData\Local\Temp\ccuEuQhg.s 			page 89


 3627 0637 30060000 		.4byte	0x630
 3628 063b 12       		.uleb128 0x12
 3629 063c 23040000 		.4byte	.LASF59
 3630 0640 01       		.byte	0x1
 3631 0641 8103     		.2byte	0x381
 3632 0643 4D060000 		.4byte	0x64d
 3633 0647 05       		.uleb128 0x5
 3634 0648 03       		.byte	0x3
 3635 0649 00000000 		.4byte	AMux_1_CYAMUXSIDE_A__outerAddr
 3636 064d 13       		.uleb128 0x13
 3637 064e 20060000 		.4byte	0x620
 3638 0652 15       		.uleb128 0x15
 3639 0653 DF020000 		.4byte	0x2df
 3640 0657 62060000 		.4byte	0x662
 3641 065b 16       		.uleb128 0x16
 3642 065c 7D000000 		.4byte	0x7d
 3643 0660 03       		.byte	0x3
 3644 0661 00       		.byte	0
 3645 0662 12       		.uleb128 0x12
 3646 0663 2C050000 		.4byte	.LASF60
 3647 0667 01       		.byte	0x1
 3648 0668 8803     		.2byte	0x388
 3649 066a 74060000 		.4byte	0x674
 3650 066e 05       		.uleb128 0x5
 3651 066f 03       		.byte	0x3
 3652 0670 10000000 		.4byte	AMux_1_CYAMUXSIDE_A__outerMask
 3653 0674 13       		.uleb128 0x13
 3654 0675 52060000 		.4byte	0x652
 3655 0679 15       		.uleb128 0x15
 3656 067a 36060000 		.4byte	0x636
 3657 067e 89060000 		.4byte	0x689
 3658 0682 16       		.uleb128 0x16
 3659 0683 7D000000 		.4byte	0x7d
 3660 0687 01       		.byte	0x1
 3661 0688 00       		.byte	0
 3662 0689 12       		.uleb128 0x12
 3663 068a F2040000 		.4byte	.LASF61
 3664 068e 01       		.byte	0x1
 3665 068f 8F03     		.2byte	0x38f
 3666 0691 9B060000 		.4byte	0x69b
 3667 0695 05       		.uleb128 0x5
 3668 0696 03       		.byte	0x3
 3669 0697 14000000 		.4byte	AMux_1_CYAMUXSIDE_A__innerAddr
 3670 069b 13       		.uleb128 0x13
 3671 069c 79060000 		.4byte	0x679
 3672 06a0 15       		.uleb128 0x15
 3673 06a1 DF020000 		.4byte	0x2df
 3674 06a5 B0060000 		.4byte	0x6b0
 3675 06a9 16       		.uleb128 0x16
 3676 06aa 7D000000 		.4byte	0x7d
 3677 06ae 01       		.byte	0x1
 3678 06af 00       		.byte	0
 3679 06b0 12       		.uleb128 0x12
 3680 06b1 24020000 		.4byte	.LASF62
 3681 06b5 01       		.byte	0x1
 3682 06b6 9403     		.2byte	0x394
 3683 06b8 C2060000 		.4byte	0x6c2
ARM GAS  C:\Users\JEFFSN~1\AppData\Local\Temp\ccuEuQhg.s 			page 90


 3684 06bc 05       		.uleb128 0x5
 3685 06bd 03       		.byte	0x3
 3686 06be 1C000000 		.4byte	AMux_1_CYAMUXSIDE_A__innerMask
 3687 06c2 13       		.uleb128 0x13
 3688 06c3 A0060000 		.4byte	0x6a0
 3689 06c7 12       		.uleb128 0x12
 3690 06c8 B2040000 		.4byte	.LASF63
 3691 06cc 01       		.byte	0x1
 3692 06cd 9903     		.2byte	0x399
 3693 06cf D9060000 		.4byte	0x6d9
 3694 06d3 05       		.uleb128 0x5
 3695 06d4 03       		.byte	0x3
 3696 06d5 20000000 		.4byte	AMux_1_CYAMUXSIDE_A__innerMap
 3697 06d9 13       		.uleb128 0x13
 3698 06da 52060000 		.4byte	0x652
 3699 06de 12       		.uleb128 0x12
 3700 06df 23010000 		.4byte	.LASF64
 3701 06e3 01       		.byte	0x1
 3702 06e4 A003     		.2byte	0x3a0
 3703 06e6 8D000000 		.4byte	0x8d
 3704 06ea 05       		.uleb128 0x5
 3705 06eb 03       		.byte	0x3
 3706 06ec 00000000 		.4byte	AMux_1_CYAMUXSIDE_A__armsEnabled
 3707 06f0 15       		.uleb128 0x15
 3708 06f1 8D000000 		.4byte	0x8d
 3709 06f5 00070000 		.4byte	0x700
 3710 06f9 16       		.uleb128 0x16
 3711 06fa 7D000000 		.4byte	0x7d
 3712 06fe 01       		.byte	0x1
 3713 06ff 00       		.byte	0
 3714 0700 12       		.uleb128 0x12
 3715 0701 2E060000 		.4byte	.LASF65
 3716 0705 01       		.byte	0x1
 3717 0706 A103     		.2byte	0x3a1
 3718 0708 F0060000 		.4byte	0x6f0
 3719 070c 05       		.uleb128 0x5
 3720 070d 03       		.byte	0x3
 3721 070e 04000000 		.4byte	AMux_1_CYAMUXSIDE_A__refCnt
 3722 0712 12       		.uleb128 0x12
 3723 0713 79010000 		.4byte	.LASF66
 3724 0717 01       		.byte	0x1
 3725 0718 2304     		.2byte	0x423
 3726 071a 24070000 		.4byte	0x724
 3727 071e 05       		.uleb128 0x5
 3728 071f 03       		.byte	0x3
 3729 0720 4C000000 		.4byte	AMux_2__outerAddr
 3730 0724 13       		.uleb128 0x13
 3731 0725 79060000 		.4byte	0x679
 3732 0729 12       		.uleb128 0x12
 3733 072a 39030000 		.4byte	.LASF67
 3734 072e 01       		.byte	0x1
 3735 072f 2804     		.2byte	0x428
 3736 0731 3B070000 		.4byte	0x73b
 3737 0735 05       		.uleb128 0x5
 3738 0736 03       		.byte	0x3
 3739 0737 54000000 		.4byte	AMux_2__outerMask
 3740 073b 13       		.uleb128 0x13
ARM GAS  C:\Users\JEFFSN~1\AppData\Local\Temp\ccuEuQhg.s 			page 91


 3741 073c A0060000 		.4byte	0x6a0
 3742 0740 15       		.uleb128 0x15
 3743 0741 36060000 		.4byte	0x636
 3744 0745 50070000 		.4byte	0x750
 3745 0749 16       		.uleb128 0x16
 3746 074a 7D000000 		.4byte	0x7d
 3747 074e 00       		.byte	0
 3748 074f 00       		.byte	0
 3749 0750 12       		.uleb128 0x12
 3750 0751 00000000 		.4byte	.LASF68
 3751 0755 01       		.byte	0x1
 3752 0756 2D04     		.2byte	0x42d
 3753 0758 62070000 		.4byte	0x762
 3754 075c 05       		.uleb128 0x5
 3755 075d 03       		.byte	0x3
 3756 075e 58000000 		.4byte	AMux_2__innerAddr
 3757 0762 13       		.uleb128 0x13
 3758 0763 40070000 		.4byte	0x740
 3759 0767 15       		.uleb128 0x15
 3760 0768 DF020000 		.4byte	0x2df
 3761 076c 77070000 		.4byte	0x777
 3762 0770 16       		.uleb128 0x16
 3763 0771 7D000000 		.4byte	0x7d
 3764 0775 00       		.byte	0
 3765 0776 00       		.byte	0
 3766 0777 12       		.uleb128 0x12
 3767 0778 5D050000 		.4byte	.LASF69
 3768 077c 01       		.byte	0x1
 3769 077d 3104     		.2byte	0x431
 3770 077f 89070000 		.4byte	0x789
 3771 0783 05       		.uleb128 0x5
 3772 0784 03       		.byte	0x3
 3773 0785 5C000000 		.4byte	AMux_2__innerMask
 3774 0789 13       		.uleb128 0x13
 3775 078a 67070000 		.4byte	0x767
 3776 078e 12       		.uleb128 0x12
 3777 078f 0D040000 		.4byte	.LASF70
 3778 0793 01       		.byte	0x1
 3779 0794 3504     		.2byte	0x435
 3780 0796 A0070000 		.4byte	0x7a0
 3781 079a 05       		.uleb128 0x5
 3782 079b 03       		.byte	0x3
 3783 079c 60000000 		.4byte	AMux_2__innerMap
 3784 07a0 13       		.uleb128 0x13
 3785 07a1 A0060000 		.4byte	0x6a0
 3786 07a5 12       		.uleb128 0x12
 3787 07a6 CA030000 		.4byte	.LASF71
 3788 07aa 01       		.byte	0x1
 3789 07ab 3A04     		.2byte	0x43a
 3790 07ad 8D000000 		.4byte	0x8d
 3791 07b1 05       		.uleb128 0x5
 3792 07b2 03       		.byte	0x3
 3793 07b3 06000000 		.4byte	AMux_2__armsEnabled
 3794 07b7 15       		.uleb128 0x15
 3795 07b8 8D000000 		.4byte	0x8d
 3796 07bc C7070000 		.4byte	0x7c7
 3797 07c0 16       		.uleb128 0x16
ARM GAS  C:\Users\JEFFSN~1\AppData\Local\Temp\ccuEuQhg.s 			page 92


 3798 07c1 7D000000 		.4byte	0x7d
 3799 07c5 00       		.byte	0
 3800 07c6 00       		.byte	0
 3801 07c7 12       		.uleb128 0x12
 3802 07c8 01020000 		.4byte	.LASF72
 3803 07cc 01       		.byte	0x1
 3804 07cd 3B04     		.2byte	0x43b
 3805 07cf B7070000 		.4byte	0x7b7
 3806 07d3 05       		.uleb128 0x5
 3807 07d4 03       		.byte	0x3
 3808 07d5 08000000 		.4byte	AMux_2__refCnt
 3809 07d9 12       		.uleb128 0x12
 3810 07da F0030000 		.4byte	.LASF73
 3811 07de 01       		.byte	0x1
 3812 07df 7A04     		.2byte	0x47a
 3813 07e1 EB070000 		.4byte	0x7eb
 3814 07e5 05       		.uleb128 0x5
 3815 07e6 03       		.byte	0x3
 3816 07e7 64000000 		.4byte	AMux_3__outerAddr
 3817 07eb 13       		.uleb128 0x13
 3818 07ec 79060000 		.4byte	0x679
 3819 07f0 12       		.uleb128 0x12
 3820 07f1 E0040000 		.4byte	.LASF74
 3821 07f5 01       		.byte	0x1
 3822 07f6 7F04     		.2byte	0x47f
 3823 07f8 02080000 		.4byte	0x802
 3824 07fc 05       		.uleb128 0x5
 3825 07fd 03       		.byte	0x3
 3826 07fe 6C000000 		.4byte	AMux_3__outerMask
 3827 0802 13       		.uleb128 0x13
 3828 0803 A0060000 		.4byte	0x6a0
 3829 0807 12       		.uleb128 0x12
 3830 0808 34000000 		.4byte	.LASF75
 3831 080c 01       		.byte	0x1
 3832 080d 8404     		.2byte	0x484
 3833 080f 19080000 		.4byte	0x819
 3834 0813 05       		.uleb128 0x5
 3835 0814 03       		.byte	0x3
 3836 0815 70000000 		.4byte	AMux_3__innerAddr
 3837 0819 13       		.uleb128 0x13
 3838 081a 40070000 		.4byte	0x740
 3839 081e 12       		.uleb128 0x12
 3840 081f DC010000 		.4byte	.LASF76
 3841 0823 01       		.byte	0x1
 3842 0824 8804     		.2byte	0x488
 3843 0826 30080000 		.4byte	0x830
 3844 082a 05       		.uleb128 0x5
 3845 082b 03       		.byte	0x3
 3846 082c 74000000 		.4byte	AMux_3__innerMask
 3847 0830 13       		.uleb128 0x13
 3848 0831 67070000 		.4byte	0x767
 3849 0835 12       		.uleb128 0x12
 3850 0836 5E010000 		.4byte	.LASF77
 3851 083a 01       		.byte	0x1
 3852 083b 8C04     		.2byte	0x48c
 3853 083d 47080000 		.4byte	0x847
 3854 0841 05       		.uleb128 0x5
ARM GAS  C:\Users\JEFFSN~1\AppData\Local\Temp\ccuEuQhg.s 			page 93


 3855 0842 03       		.byte	0x3
 3856 0843 78000000 		.4byte	AMux_3__innerMap
 3857 0847 13       		.uleb128 0x13
 3858 0848 A0060000 		.4byte	0x6a0
 3859 084c 12       		.uleb128 0x12
 3860 084d 53030000 		.4byte	.LASF78
 3861 0851 01       		.byte	0x1
 3862 0852 9104     		.2byte	0x491
 3863 0854 8D000000 		.4byte	0x8d
 3864 0858 05       		.uleb128 0x5
 3865 0859 03       		.byte	0x3
 3866 085a 09000000 		.4byte	AMux_3__armsEnabled
 3867 085e 12       		.uleb128 0x12
 3868 085f 90030000 		.4byte	.LASF79
 3869 0863 01       		.byte	0x1
 3870 0864 9204     		.2byte	0x492
 3871 0866 B7070000 		.4byte	0x7b7
 3872 086a 05       		.uleb128 0x5
 3873 086b 03       		.byte	0x3
 3874 086c 0C000000 		.4byte	AMux_3__refCnt
 3875 0870 15       		.uleb128 0x15
 3876 0871 36060000 		.4byte	0x636
 3877 0875 80080000 		.4byte	0x880
 3878 0879 16       		.uleb128 0x16
 3879 087a 7D000000 		.4byte	0x7d
 3880 087e 07       		.byte	0x7
 3881 087f 00       		.byte	0
 3882 0880 1A       		.uleb128 0x1a
 3883 0881 F0020000 		.4byte	.LASF80
 3884 0885 01       		.byte	0x1
 3885 0886 E203     		.2byte	0x3e2
 3886 0888 92080000 		.4byte	0x892
 3887 088c 05       		.uleb128 0x5
 3888 088d 03       		.byte	0x3
 3889 088e 00000000 		.4byte	AMux_1_CYAMUXSIDE_B__addrTable
 3890 0892 13       		.uleb128 0x13
 3891 0893 70080000 		.4byte	0x870
 3892 0897 1A       		.uleb128 0x1a
 3893 0898 48040000 		.4byte	.LASF81
 3894 089c 01       		.byte	0x1
 3895 089d EB03     		.2byte	0x3eb
 3896 089f A9080000 		.4byte	0x8a9
 3897 08a3 05       		.uleb128 0x5
 3898 08a4 03       		.byte	0x3
 3899 08a5 00000000 		.4byte	AMux_1_CYAMUXSIDE_B__maskTable
 3900 08a9 13       		.uleb128 0x13
 3901 08aa CF020000 		.4byte	0x2cf
 3902 08ae 15       		.uleb128 0x15
 3903 08af 36060000 		.4byte	0x636
 3904 08b3 BE080000 		.4byte	0x8be
 3905 08b7 16       		.uleb128 0x16
 3906 08b8 7D000000 		.4byte	0x7d
 3907 08bc 0C       		.byte	0xc
 3908 08bd 00       		.byte	0
 3909 08be 1A       		.uleb128 0x1a
 3910 08bf 05060000 		.4byte	.LASF82
 3911 08c3 01       		.byte	0x1
ARM GAS  C:\Users\JEFFSN~1\AppData\Local\Temp\ccuEuQhg.s 			page 94


 3912 08c4 D304     		.2byte	0x4d3
 3913 08c6 D0080000 		.4byte	0x8d0
 3914 08ca 05       		.uleb128 0x5
 3915 08cb 03       		.byte	0x3
 3916 08cc 00000000 		.4byte	CapSense_AMuxCH0__addrTable
 3917 08d0 13       		.uleb128 0x13
 3918 08d1 AE080000 		.4byte	0x8ae
 3919 08d5 15       		.uleb128 0x15
 3920 08d6 DF020000 		.4byte	0x2df
 3921 08da E5080000 		.4byte	0x8e5
 3922 08de 16       		.uleb128 0x16
 3923 08df 7D000000 		.4byte	0x7d
 3924 08e3 0C       		.byte	0xc
 3925 08e4 00       		.byte	0
 3926 08e5 1A       		.uleb128 0x1a
 3927 08e6 BD050000 		.4byte	.LASF83
 3928 08ea 01       		.byte	0x1
 3929 08eb E504     		.2byte	0x4e5
 3930 08ed F7080000 		.4byte	0x8f7
 3931 08f1 05       		.uleb128 0x5
 3932 08f2 03       		.byte	0x3
 3933 08f3 00000000 		.4byte	CapSense_AMuxCH0__maskTable
 3934 08f7 13       		.uleb128 0x13
 3935 08f8 D5080000 		.4byte	0x8d5
 3936 08fc 00       		.byte	0
 3937              		.section	.debug_abbrev,"",%progbits
 3938              	.Ldebug_abbrev0:
 3939 0000 01       		.uleb128 0x1
 3940 0001 11       		.uleb128 0x11
 3941 0002 01       		.byte	0x1
 3942 0003 25       		.uleb128 0x25
 3943 0004 0E       		.uleb128 0xe
 3944 0005 13       		.uleb128 0x13
 3945 0006 0B       		.uleb128 0xb
 3946 0007 03       		.uleb128 0x3
 3947 0008 0E       		.uleb128 0xe
 3948 0009 1B       		.uleb128 0x1b
 3949 000a 0E       		.uleb128 0xe
 3950 000b 55       		.uleb128 0x55
 3951 000c 17       		.uleb128 0x17
 3952 000d 11       		.uleb128 0x11
 3953 000e 01       		.uleb128 0x1
 3954 000f 10       		.uleb128 0x10
 3955 0010 17       		.uleb128 0x17
 3956 0011 00       		.byte	0
 3957 0012 00       		.byte	0
 3958 0013 02       		.uleb128 0x2
 3959 0014 24       		.uleb128 0x24
 3960 0015 00       		.byte	0
 3961 0016 0B       		.uleb128 0xb
 3962 0017 0B       		.uleb128 0xb
 3963 0018 3E       		.uleb128 0x3e
 3964 0019 0B       		.uleb128 0xb
 3965 001a 03       		.uleb128 0x3
 3966 001b 08       		.uleb128 0x8
 3967 001c 00       		.byte	0
 3968 001d 00       		.byte	0
ARM GAS  C:\Users\JEFFSN~1\AppData\Local\Temp\ccuEuQhg.s 			page 95


 3969 001e 03       		.uleb128 0x3
 3970 001f 16       		.uleb128 0x16
 3971 0020 00       		.byte	0
 3972 0021 03       		.uleb128 0x3
 3973 0022 0E       		.uleb128 0xe
 3974 0023 3A       		.uleb128 0x3a
 3975 0024 0B       		.uleb128 0xb
 3976 0025 3B       		.uleb128 0x3b
 3977 0026 0B       		.uleb128 0xb
 3978 0027 49       		.uleb128 0x49
 3979 0028 13       		.uleb128 0x13
 3980 0029 00       		.byte	0
 3981 002a 00       		.byte	0
 3982 002b 04       		.uleb128 0x4
 3983 002c 24       		.uleb128 0x24
 3984 002d 00       		.byte	0
 3985 002e 0B       		.uleb128 0xb
 3986 002f 0B       		.uleb128 0xb
 3987 0030 3E       		.uleb128 0x3e
 3988 0031 0B       		.uleb128 0xb
 3989 0032 03       		.uleb128 0x3
 3990 0033 0E       		.uleb128 0xe
 3991 0034 00       		.byte	0
 3992 0035 00       		.byte	0
 3993 0036 05       		.uleb128 0x5
 3994 0037 0F       		.uleb128 0xf
 3995 0038 00       		.byte	0
 3996 0039 0B       		.uleb128 0xb
 3997 003a 0B       		.uleb128 0xb
 3998 003b 00       		.byte	0
 3999 003c 00       		.byte	0
 4000 003d 06       		.uleb128 0x6
 4001 003e 16       		.uleb128 0x16
 4002 003f 00       		.byte	0
 4003 0040 03       		.uleb128 0x3
 4004 0041 0E       		.uleb128 0xe
 4005 0042 3A       		.uleb128 0x3a
 4006 0043 0B       		.uleb128 0xb
 4007 0044 3B       		.uleb128 0x3b
 4008 0045 05       		.uleb128 0x5
 4009 0046 49       		.uleb128 0x49
 4010 0047 13       		.uleb128 0x13
 4011 0048 00       		.byte	0
 4012 0049 00       		.byte	0
 4013 004a 07       		.uleb128 0x7
 4014 004b 35       		.uleb128 0x35
 4015 004c 00       		.byte	0
 4016 004d 49       		.uleb128 0x49
 4017 004e 13       		.uleb128 0x13
 4018 004f 00       		.byte	0
 4019 0050 00       		.byte	0
 4020 0051 08       		.uleb128 0x8
 4021 0052 2E       		.uleb128 0x2e
 4022 0053 01       		.byte	0x1
 4023 0054 03       		.uleb128 0x3
 4024 0055 0E       		.uleb128 0xe
 4025 0056 3A       		.uleb128 0x3a
ARM GAS  C:\Users\JEFFSN~1\AppData\Local\Temp\ccuEuQhg.s 			page 96


 4026 0057 0B       		.uleb128 0xb
 4027 0058 3B       		.uleb128 0x3b
 4028 0059 0B       		.uleb128 0xb
 4029 005a 27       		.uleb128 0x27
 4030 005b 19       		.uleb128 0x19
 4031 005c 11       		.uleb128 0x11
 4032 005d 01       		.uleb128 0x1
 4033 005e 12       		.uleb128 0x12
 4034 005f 06       		.uleb128 0x6
 4035 0060 40       		.uleb128 0x40
 4036 0061 18       		.uleb128 0x18
 4037 0062 9642     		.uleb128 0x2116
 4038 0064 19       		.uleb128 0x19
 4039 0065 01       		.uleb128 0x1
 4040 0066 13       		.uleb128 0x13
 4041 0067 00       		.byte	0
 4042 0068 00       		.byte	0
 4043 0069 09       		.uleb128 0x9
 4044 006a 05       		.uleb128 0x5
 4045 006b 00       		.byte	0
 4046 006c 03       		.uleb128 0x3
 4047 006d 08       		.uleb128 0x8
 4048 006e 3A       		.uleb128 0x3a
 4049 006f 0B       		.uleb128 0xb
 4050 0070 3B       		.uleb128 0x3b
 4051 0071 0B       		.uleb128 0xb
 4052 0072 49       		.uleb128 0x49
 4053 0073 13       		.uleb128 0x13
 4054 0074 02       		.uleb128 0x2
 4055 0075 18       		.uleb128 0x18
 4056 0076 00       		.byte	0
 4057 0077 00       		.byte	0
 4058 0078 0A       		.uleb128 0xa
 4059 0079 05       		.uleb128 0x5
 4060 007a 00       		.byte	0
 4061 007b 03       		.uleb128 0x3
 4062 007c 0E       		.uleb128 0xe
 4063 007d 3A       		.uleb128 0x3a
 4064 007e 0B       		.uleb128 0xb
 4065 007f 3B       		.uleb128 0x3b
 4066 0080 0B       		.uleb128 0xb
 4067 0081 49       		.uleb128 0x49
 4068 0082 13       		.uleb128 0x13
 4069 0083 02       		.uleb128 0x2
 4070 0084 18       		.uleb128 0x18
 4071 0085 00       		.byte	0
 4072 0086 00       		.byte	0
 4073 0087 0B       		.uleb128 0xb
 4074 0088 0F       		.uleb128 0xf
 4075 0089 00       		.byte	0
 4076 008a 0B       		.uleb128 0xb
 4077 008b 0B       		.uleb128 0xb
 4078 008c 49       		.uleb128 0x49
 4079 008d 13       		.uleb128 0x13
 4080 008e 00       		.byte	0
 4081 008f 00       		.byte	0
 4082 0090 0C       		.uleb128 0xc
ARM GAS  C:\Users\JEFFSN~1\AppData\Local\Temp\ccuEuQhg.s 			page 97


 4083 0091 26       		.uleb128 0x26
 4084 0092 00       		.byte	0
 4085 0093 00       		.byte	0
 4086 0094 00       		.byte	0
 4087 0095 0D       		.uleb128 0xd
 4088 0096 2E       		.uleb128 0x2e
 4089 0097 01       		.byte	0x1
 4090 0098 03       		.uleb128 0x3
 4091 0099 0E       		.uleb128 0xe
 4092 009a 3A       		.uleb128 0x3a
 4093 009b 0B       		.uleb128 0xb
 4094 009c 3B       		.uleb128 0x3b
 4095 009d 0B       		.uleb128 0xb
 4096 009e 27       		.uleb128 0x27
 4097 009f 19       		.uleb128 0x19
 4098 00a0 11       		.uleb128 0x11
 4099 00a1 01       		.uleb128 0x1
 4100 00a2 12       		.uleb128 0x12
 4101 00a3 06       		.uleb128 0x6
 4102 00a4 40       		.uleb128 0x40
 4103 00a5 18       		.uleb128 0x18
 4104 00a6 9742     		.uleb128 0x2117
 4105 00a8 19       		.uleb128 0x19
 4106 00a9 01       		.uleb128 0x1
 4107 00aa 13       		.uleb128 0x13
 4108 00ab 00       		.byte	0
 4109 00ac 00       		.byte	0
 4110 00ad 0E       		.uleb128 0xe
 4111 00ae 2E       		.uleb128 0x2e
 4112 00af 01       		.byte	0x1
 4113 00b0 03       		.uleb128 0x3
 4114 00b1 0E       		.uleb128 0xe
 4115 00b2 3A       		.uleb128 0x3a
 4116 00b3 0B       		.uleb128 0xb
 4117 00b4 3B       		.uleb128 0x3b
 4118 00b5 05       		.uleb128 0x5
 4119 00b6 27       		.uleb128 0x27
 4120 00b7 19       		.uleb128 0x19
 4121 00b8 11       		.uleb128 0x11
 4122 00b9 01       		.uleb128 0x1
 4123 00ba 12       		.uleb128 0x12
 4124 00bb 06       		.uleb128 0x6
 4125 00bc 40       		.uleb128 0x40
 4126 00bd 18       		.uleb128 0x18
 4127 00be 9642     		.uleb128 0x2116
 4128 00c0 19       		.uleb128 0x19
 4129 00c1 01       		.uleb128 0x1
 4130 00c2 13       		.uleb128 0x13
 4131 00c3 00       		.byte	0
 4132 00c4 00       		.byte	0
 4133 00c5 0F       		.uleb128 0xf
 4134 00c6 13       		.uleb128 0x13
 4135 00c7 01       		.byte	0x1
 4136 00c8 03       		.uleb128 0x3
 4137 00c9 0E       		.uleb128 0xe
 4138 00ca 0B       		.uleb128 0xb
 4139 00cb 0B       		.uleb128 0xb
ARM GAS  C:\Users\JEFFSN~1\AppData\Local\Temp\ccuEuQhg.s 			page 98


 4140 00cc 3A       		.uleb128 0x3a
 4141 00cd 0B       		.uleb128 0xb
 4142 00ce 3B       		.uleb128 0x3b
 4143 00cf 05       		.uleb128 0x5
 4144 00d0 01       		.uleb128 0x1
 4145 00d1 13       		.uleb128 0x13
 4146 00d2 00       		.byte	0
 4147 00d3 00       		.byte	0
 4148 00d4 10       		.uleb128 0x10
 4149 00d5 0D       		.uleb128 0xd
 4150 00d6 00       		.byte	0
 4151 00d7 03       		.uleb128 0x3
 4152 00d8 0E       		.uleb128 0xe
 4153 00d9 3A       		.uleb128 0x3a
 4154 00da 0B       		.uleb128 0xb
 4155 00db 3B       		.uleb128 0x3b
 4156 00dc 05       		.uleb128 0x5
 4157 00dd 49       		.uleb128 0x49
 4158 00de 13       		.uleb128 0x13
 4159 00df 38       		.uleb128 0x38
 4160 00e0 0B       		.uleb128 0xb
 4161 00e1 00       		.byte	0
 4162 00e2 00       		.byte	0
 4163 00e3 11       		.uleb128 0x11
 4164 00e4 0D       		.uleb128 0xd
 4165 00e5 00       		.byte	0
 4166 00e6 03       		.uleb128 0x3
 4167 00e7 08       		.uleb128 0x8
 4168 00e8 3A       		.uleb128 0x3a
 4169 00e9 0B       		.uleb128 0xb
 4170 00ea 3B       		.uleb128 0x3b
 4171 00eb 05       		.uleb128 0x5
 4172 00ec 49       		.uleb128 0x49
 4173 00ed 13       		.uleb128 0x13
 4174 00ee 38       		.uleb128 0x38
 4175 00ef 0B       		.uleb128 0xb
 4176 00f0 00       		.byte	0
 4177 00f1 00       		.byte	0
 4178 00f2 12       		.uleb128 0x12
 4179 00f3 34       		.uleb128 0x34
 4180 00f4 00       		.byte	0
 4181 00f5 03       		.uleb128 0x3
 4182 00f6 0E       		.uleb128 0xe
 4183 00f7 3A       		.uleb128 0x3a
 4184 00f8 0B       		.uleb128 0xb
 4185 00f9 3B       		.uleb128 0x3b
 4186 00fa 05       		.uleb128 0x5
 4187 00fb 49       		.uleb128 0x49
 4188 00fc 13       		.uleb128 0x13
 4189 00fd 02       		.uleb128 0x2
 4190 00fe 18       		.uleb128 0x18
 4191 00ff 00       		.byte	0
 4192 0100 00       		.byte	0
 4193 0101 13       		.uleb128 0x13
 4194 0102 26       		.uleb128 0x26
 4195 0103 00       		.byte	0
 4196 0104 49       		.uleb128 0x49
ARM GAS  C:\Users\JEFFSN~1\AppData\Local\Temp\ccuEuQhg.s 			page 99


 4197 0105 13       		.uleb128 0x13
 4198 0106 00       		.byte	0
 4199 0107 00       		.byte	0
 4200 0108 14       		.uleb128 0x14
 4201 0109 34       		.uleb128 0x34
 4202 010a 00       		.byte	0
 4203 010b 03       		.uleb128 0x3
 4204 010c 08       		.uleb128 0x8
 4205 010d 3A       		.uleb128 0x3a
 4206 010e 0B       		.uleb128 0xb
 4207 010f 3B       		.uleb128 0x3b
 4208 0110 05       		.uleb128 0x5
 4209 0111 49       		.uleb128 0x49
 4210 0112 13       		.uleb128 0x13
 4211 0113 02       		.uleb128 0x2
 4212 0114 18       		.uleb128 0x18
 4213 0115 00       		.byte	0
 4214 0116 00       		.byte	0
 4215 0117 15       		.uleb128 0x15
 4216 0118 01       		.uleb128 0x1
 4217 0119 01       		.byte	0x1
 4218 011a 49       		.uleb128 0x49
 4219 011b 13       		.uleb128 0x13
 4220 011c 01       		.uleb128 0x1
 4221 011d 13       		.uleb128 0x13
 4222 011e 00       		.byte	0
 4223 011f 00       		.byte	0
 4224 0120 16       		.uleb128 0x16
 4225 0121 21       		.uleb128 0x21
 4226 0122 00       		.byte	0
 4227 0123 49       		.uleb128 0x49
 4228 0124 13       		.uleb128 0x13
 4229 0125 2F       		.uleb128 0x2f
 4230 0126 0B       		.uleb128 0xb
 4231 0127 00       		.byte	0
 4232 0128 00       		.byte	0
 4233 0129 17       		.uleb128 0x17
 4234 012a 2E       		.uleb128 0x2e
 4235 012b 01       		.byte	0x1
 4236 012c 3F       		.uleb128 0x3f
 4237 012d 19       		.uleb128 0x19
 4238 012e 03       		.uleb128 0x3
 4239 012f 0E       		.uleb128 0xe
 4240 0130 3A       		.uleb128 0x3a
 4241 0131 0B       		.uleb128 0xb
 4242 0132 3B       		.uleb128 0x3b
 4243 0133 05       		.uleb128 0x5
 4244 0134 27       		.uleb128 0x27
 4245 0135 19       		.uleb128 0x19
 4246 0136 11       		.uleb128 0x11
 4247 0137 01       		.uleb128 0x1
 4248 0138 12       		.uleb128 0x12
 4249 0139 06       		.uleb128 0x6
 4250 013a 40       		.uleb128 0x40
 4251 013b 18       		.uleb128 0x18
 4252 013c 9742     		.uleb128 0x2117
 4253 013e 19       		.uleb128 0x19
ARM GAS  C:\Users\JEFFSN~1\AppData\Local\Temp\ccuEuQhg.s 			page 100


 4254 013f 01       		.uleb128 0x1
 4255 0140 13       		.uleb128 0x13
 4256 0141 00       		.byte	0
 4257 0142 00       		.byte	0
 4258 0143 18       		.uleb128 0x18
 4259 0144 05       		.uleb128 0x5
 4260 0145 00       		.byte	0
 4261 0146 03       		.uleb128 0x3
 4262 0147 0E       		.uleb128 0xe
 4263 0148 3A       		.uleb128 0x3a
 4264 0149 0B       		.uleb128 0xb
 4265 014a 3B       		.uleb128 0x3b
 4266 014b 05       		.uleb128 0x5
 4267 014c 49       		.uleb128 0x49
 4268 014d 13       		.uleb128 0x13
 4269 014e 02       		.uleb128 0x2
 4270 014f 18       		.uleb128 0x18
 4271 0150 00       		.byte	0
 4272 0151 00       		.byte	0
 4273 0152 19       		.uleb128 0x19
 4274 0153 2E       		.uleb128 0x2e
 4275 0154 00       		.byte	0
 4276 0155 3F       		.uleb128 0x3f
 4277 0156 19       		.uleb128 0x19
 4278 0157 03       		.uleb128 0x3
 4279 0158 0E       		.uleb128 0xe
 4280 0159 3A       		.uleb128 0x3a
 4281 015a 0B       		.uleb128 0xb
 4282 015b 3B       		.uleb128 0x3b
 4283 015c 05       		.uleb128 0x5
 4284 015d 27       		.uleb128 0x27
 4285 015e 19       		.uleb128 0x19
 4286 015f 11       		.uleb128 0x11
 4287 0160 01       		.uleb128 0x1
 4288 0161 12       		.uleb128 0x12
 4289 0162 06       		.uleb128 0x6
 4290 0163 40       		.uleb128 0x40
 4291 0164 18       		.uleb128 0x18
 4292 0165 9642     		.uleb128 0x2116
 4293 0167 19       		.uleb128 0x19
 4294 0168 00       		.byte	0
 4295 0169 00       		.byte	0
 4296 016a 1A       		.uleb128 0x1a
 4297 016b 34       		.uleb128 0x34
 4298 016c 00       		.byte	0
 4299 016d 03       		.uleb128 0x3
 4300 016e 0E       		.uleb128 0xe
 4301 016f 3A       		.uleb128 0x3a
 4302 0170 0B       		.uleb128 0xb
 4303 0171 3B       		.uleb128 0x3b
 4304 0172 05       		.uleb128 0x5
 4305 0173 49       		.uleb128 0x49
 4306 0174 13       		.uleb128 0x13
 4307 0175 3F       		.uleb128 0x3f
 4308 0176 19       		.uleb128 0x19
 4309 0177 02       		.uleb128 0x2
 4310 0178 18       		.uleb128 0x18
ARM GAS  C:\Users\JEFFSN~1\AppData\Local\Temp\ccuEuQhg.s 			page 101


 4311 0179 00       		.byte	0
 4312 017a 00       		.byte	0
 4313 017b 00       		.byte	0
 4314              		.section	.debug_aranges,"",%progbits
 4315 0000 AC000000 		.4byte	0xac
 4316 0004 0200     		.2byte	0x2
 4317 0006 00000000 		.4byte	.Ldebug_info0
 4318 000a 04       		.byte	0x4
 4319 000b 00       		.byte	0
 4320 000c 0000     		.2byte	0
 4321 000e 0000     		.2byte	0
 4322 0010 00000000 		.4byte	.LFB0
 4323 0014 1C000000 		.4byte	.LFE0-.LFB0
 4324 0018 00000000 		.4byte	.LFB1
 4325 001c 1E000000 		.4byte	.LFE1-.LFB1
 4326 0020 00000000 		.4byte	.LFB2
 4327 0024 1E000000 		.4byte	.LFE2-.LFB2
 4328 0028 00000000 		.4byte	.LFB3
 4329 002c 0C000000 		.4byte	.LFE3-.LFB3
 4330 0030 00000000 		.4byte	.LFB4
 4331 0034 80010000 		.4byte	.LFE4-.LFB4
 4332 0038 00000000 		.4byte	.LFB5
 4333 003c 98010000 		.4byte	.LFE5-.LFB5
 4334 0040 00000000 		.4byte	.LFB6
 4335 0044 40010000 		.4byte	.LFE6-.LFB6
 4336 0048 00000000 		.4byte	.LFB7
 4337 004c 3C000000 		.4byte	.LFE7-.LFB7
 4338 0050 00000000 		.4byte	.LFB8
 4339 0054 B8000000 		.4byte	.LFE8-.LFB8
 4340 0058 00000000 		.4byte	.LFB9
 4341 005c C4000000 		.4byte	.LFE9-.LFB9
 4342 0060 00000000 		.4byte	.LFB10
 4343 0064 6C000000 		.4byte	.LFE10-.LFB10
 4344 0068 00000000 		.4byte	.LFB11
 4345 006c 74000000 		.4byte	.LFE11-.LFB11
 4346 0070 00000000 		.4byte	.LFB12
 4347 0074 A4000000 		.4byte	.LFE12-.LFB12
 4348 0078 00000000 		.4byte	.LFB13
 4349 007c B0000000 		.4byte	.LFE13-.LFB13
 4350 0080 00000000 		.4byte	.LFB14
 4351 0084 A4000000 		.4byte	.LFE14-.LFB14
 4352 0088 00000000 		.4byte	.LFB15
 4353 008c B0000000 		.4byte	.LFE15-.LFB15
 4354 0090 00000000 		.4byte	.LFB16
 4355 0094 40000000 		.4byte	.LFE16-.LFB16
 4356 0098 00000000 		.4byte	.LFB17
 4357 009c 44000000 		.4byte	.LFE17-.LFB17
 4358 00a0 00000000 		.4byte	.LFB18
 4359 00a4 78010000 		.4byte	.LFE18-.LFB18
 4360 00a8 00000000 		.4byte	0
 4361 00ac 00000000 		.4byte	0
 4362              		.section	.debug_ranges,"",%progbits
 4363              	.Ldebug_ranges0:
 4364 0000 00000000 		.4byte	.LFB0
 4365 0004 1C000000 		.4byte	.LFE0
 4366 0008 00000000 		.4byte	.LFB1
 4367 000c 1E000000 		.4byte	.LFE1
ARM GAS  C:\Users\JEFFSN~1\AppData\Local\Temp\ccuEuQhg.s 			page 102


 4368 0010 00000000 		.4byte	.LFB2
 4369 0014 1E000000 		.4byte	.LFE2
 4370 0018 00000000 		.4byte	.LFB3
 4371 001c 0C000000 		.4byte	.LFE3
 4372 0020 00000000 		.4byte	.LFB4
 4373 0024 80010000 		.4byte	.LFE4
 4374 0028 00000000 		.4byte	.LFB5
 4375 002c 98010000 		.4byte	.LFE5
 4376 0030 00000000 		.4byte	.LFB6
 4377 0034 40010000 		.4byte	.LFE6
 4378 0038 00000000 		.4byte	.LFB7
 4379 003c 3C000000 		.4byte	.LFE7
 4380 0040 00000000 		.4byte	.LFB8
 4381 0044 B8000000 		.4byte	.LFE8
 4382 0048 00000000 		.4byte	.LFB9
 4383 004c C4000000 		.4byte	.LFE9
 4384 0050 00000000 		.4byte	.LFB10
 4385 0054 6C000000 		.4byte	.LFE10
 4386 0058 00000000 		.4byte	.LFB11
 4387 005c 74000000 		.4byte	.LFE11
 4388 0060 00000000 		.4byte	.LFB12
 4389 0064 A4000000 		.4byte	.LFE12
 4390 0068 00000000 		.4byte	.LFB13
 4391 006c B0000000 		.4byte	.LFE13
 4392 0070 00000000 		.4byte	.LFB14
 4393 0074 A4000000 		.4byte	.LFE14
 4394 0078 00000000 		.4byte	.LFB15
 4395 007c B0000000 		.4byte	.LFE15
 4396 0080 00000000 		.4byte	.LFB16
 4397 0084 40000000 		.4byte	.LFE16
 4398 0088 00000000 		.4byte	.LFB17
 4399 008c 44000000 		.4byte	.LFE17
 4400 0090 00000000 		.4byte	.LFB18
 4401 0094 78010000 		.4byte	.LFE18
 4402 0098 00000000 		.4byte	0
 4403 009c 00000000 		.4byte	0
 4404              		.section	.debug_line,"",%progbits
 4405              	.Ldebug_line0:
 4406 0000 5A030000 		.section	.debug_str,"MS",%progbits,1
 4406      0200CB00 
 4406      00000201 
 4406      FB0E0D00 
 4406      01010101 
 4407              	.LASF68:
 4408 0000 414D7578 		.ascii	"AMux_2__innerAddr\000"
 4408      5F325F5F 
 4408      696E6E65 
 4408      72416464 
 4408      7200
 4409              	.LASF14:
 4410 0012 75696E74 		.ascii	"uint16\000"
 4410      313600
 4411              	.LASF12:
 4412 0019 73697A65 		.ascii	"size_t\000"
 4412      5F7400
 4413              	.LASF25:
 4414 0020 4379436C 		.ascii	"CyClockStartupError\000"
ARM GAS  C:\Users\JEFFSN~1\AppData\Local\Temp\ccuEuQhg.s 			page 103


 4414      6F636B53 
 4414      74617274 
 4414      75704572 
 4414      726F7200 
 4415              	.LASF75:
 4416 0034 414D7578 		.ascii	"AMux_3__innerAddr\000"
 4416      5F335F5F 
 4416      696E6E65 
 4416      72416464 
 4416      7200
 4417              	.LASF84:
 4418 0046 474E5520 		.ascii	"GNU C11 5.4.1 20160609 (release) [ARM/embedded-5-br"
 4418      43313120 
 4418      352E342E 
 4418      31203230 
 4418      31363036 
 4419 0079 616E6368 		.ascii	"anch revision 237715] -mcpu=cortex-m3 -mthumb -g -O"
 4419      20726576 
 4419      6973696F 
 4419      6E203233 
 4419      37373135 
 4420 00ac 30202D66 		.ascii	"0 -ffunction-sections -ffat-lto-objects\000"
 4420      66756E63 
 4420      74696F6E 
 4420      2D736563 
 4420      74696F6E 
 4421              	.LASF9:
 4422 00d4 6C6F6E67 		.ascii	"long long unsigned int\000"
 4422      206C6F6E 
 4422      6720756E 
 4422      7369676E 
 4422      65642069 
 4423              	.LASF27:
 4424 00eb 6366675F 		.ascii	"cfg_dma_init\000"
 4424      646D615F 
 4424      696E6974 
 4424      00
 4425              	.LASF50:
 4426 00f8 414D7578 		.ascii	"AMux_1_CYAMUXSIDE_A_Unset\000"
 4426      5F315F43 
 4426      59414D55 
 4426      58534944 
 4426      455F415F 
 4427              	.LASF42:
 4428 0112 416E616C 		.ascii	"AnalogSetDefault\000"
 4428      6F675365 
 4428      74446566 
 4428      61756C74 
 4428      00
 4429              	.LASF64:
 4430 0123 414D7578 		.ascii	"AMux_1_CYAMUXSIDE_A__armsEnabled\000"
 4430      5F315F43 
 4430      59414D55 
 4430      58534944 
 4430      455F415F 
 4431              	.LASF1:
 4432 0144 6C6F6E67 		.ascii	"long long int\000"
ARM GAS  C:\Users\JEFFSN~1\AppData\Local\Temp\ccuEuQhg.s 			page 104


 4432      206C6F6E 
 4432      6720696E 
 4432      7400
 4433              	.LASF3:
 4434 0152 7369676E 		.ascii	"signed char\000"
 4434      65642063 
 4434      68617200 
 4435              	.LASF77:
 4436 015e 414D7578 		.ascii	"AMux_3__innerMap\000"
 4436      5F335F5F 
 4436      696E6E65 
 4436      724D6170 
 4436      00
 4437              	.LASF21:
 4438 016f 43594D45 		.ascii	"CYMEMZERO\000"
 4438      4D5A4552 
 4438      4F00
 4439              	.LASF66:
 4440 0179 414D7578 		.ascii	"AMux_2__outerAddr\000"
 4440      5F325F5F 
 4440      6F757465 
 4440      72416464 
 4440      7200
 4441              	.LASF37:
 4442 018b 4346475F 		.ascii	"CFG_TD_LIST0\000"
 4442      54445F4C 
 4442      49535430 
 4442      00
 4443              	.LASF39:
 4444 0198 436C6F63 		.ascii	"ClockSetup\000"
 4444      6B536574 
 4444      757000
 4445              	.LASF55:
 4446 01a3 414D7578 		.ascii	"AMux_3_Set\000"
 4446      5F335F53 
 4446      657400
 4447              	.LASF26:
 4448 01ae 6572726F 		.ascii	"errorCode\000"
 4448      72436F64 
 4448      6500
 4449              	.LASF7:
 4450 01b8 6C6F6E67 		.ascii	"long int\000"
 4450      20696E74 
 4450      00
 4451              	.LASF34:
 4452 01c1 4348365F 		.ascii	"CH6_ADDR_DATA0\000"
 4452      41444452 
 4452      5F444154 
 4452      413000
 4453              	.LASF19:
 4454 01d0 72656731 		.ascii	"reg16\000"
 4454      3600
 4455              	.LASF13:
 4456 01d6 75696E74 		.ascii	"uint8\000"
 4456      3800
 4457              	.LASF76:
 4458 01dc 414D7578 		.ascii	"AMux_3__innerMask\000"
ARM GAS  C:\Users\JEFFSN~1\AppData\Local\Temp\ccuEuQhg.s 			page 105


 4458      5F335F5F 
 4458      696E6E65 
 4458      724D6173 
 4458      6B00
 4459              	.LASF29:
 4460 01ee 6E657874 		.ascii	"next_td_ptr\000"
 4460      5F74645F 
 4460      70747200 
 4461              	.LASF17:
 4462 01fa 646F7562 		.ascii	"double\000"
 4462      6C6500
 4463              	.LASF72:
 4464 0201 414D7578 		.ascii	"AMux_2__refCnt\000"
 4464      5F325F5F 
 4464      72656643 
 4464      6E7400
 4465              	.LASF38:
 4466 0210 4346475F 		.ascii	"CFG_TD_ADDR0\000"
 4466      54445F41 
 4466      44445230 
 4466      00
 4467              	.LASF15:
 4468 021d 75696E74 		.ascii	"uint32\000"
 4468      333200
 4469              	.LASF62:
 4470 0224 414D7578 		.ascii	"AMux_1_CYAMUXSIDE_A__innerMask\000"
 4470      5F315F43 
 4470      59414D55 
 4470      58534944 
 4470      455F415F 
 4471              	.LASF45:
 4472 0243 72656756 		.ascii	"regValue\000"
 4472      616C7565 
 4472      00
 4473              	.LASF56:
 4474 024c 414D7578 		.ascii	"AMux_3_Unset\000"
 4474      5F335F55 
 4474      6E736574 
 4474      00
 4475              	.LASF86:
 4476 0259 433A5C55 		.ascii	"C:\\Users\\JeffSnyder\\dev\\Electrosteel_embedded\\"
 4476      73657273 
 4476      5C4A6566 
 4476      66536E79 
 4476      6465725C 
 4477 0287 50534F43 		.ascii	"PSOC5_electrosteel_stringsensors_newpcbtryingglitch"
 4477      355F656C 
 4477      65637472 
 4477      6F737465 
 4477      656C5F73 
 4478 02ba 64657465 		.ascii	"detect\\CE210514_PSOC3_5_Thermistor.cydsn\000"
 4478      63745C43 
 4478      45323130 
 4478      3531345F 
 4478      50534F43 
 4479              	.LASF0:
 4480 02e3 756E7369 		.ascii	"unsigned int\000"
ARM GAS  C:\Users\JEFFSN~1\AppData\Local\Temp\ccuEuQhg.s 			page 106


 4480      676E6564 
 4480      20696E74 
 4480      00
 4481              	.LASF80:
 4482 02f0 414D7578 		.ascii	"AMux_1_CYAMUXSIDE_B__addrTable\000"
 4482      5F315F43 
 4482      59414D55 
 4482      58534944 
 4482      455F425F 
 4483              	.LASF47:
 4484 030f 414D7578 		.ascii	"AMux_1_CYAMUXSIDE_A_Set\000"
 4484      5F315F43 
 4484      59414D55 
 4484      58534944 
 4484      455F415F 
 4485              	.LASF8:
 4486 0327 6C6F6E67 		.ascii	"long unsigned int\000"
 4486      20756E73 
 4486      69676E65 
 4486      6420696E 
 4486      7400
 4487              	.LASF67:
 4488 0339 414D7578 		.ascii	"AMux_2__outerMask\000"
 4488      5F325F5F 
 4488      6F757465 
 4488      724D6173 
 4488      6B00
 4489              	.LASF40:
 4490 034b 74696D65 		.ascii	"timeout\000"
 4490      6F757400 
 4491              	.LASF78:
 4492 0353 414D7578 		.ascii	"AMux_3__armsEnabled\000"
 4492      5F335F5F 
 4492      61726D73 
 4492      456E6162 
 4492      6C656400 
 4493              	.LASF35:
 4494 0367 444D415F 		.ascii	"DMA_TD_START_CMD\000"
 4494      54445F53 
 4494      54415254 
 4494      5F434D44 
 4494      00
 4495              	.LASF28:
 4496 0378 73697A65 		.ascii	"size\000"
 4496      00
 4497              	.LASF6:
 4498 037d 73686F72 		.ascii	"short unsigned int\000"
 4498      7420756E 
 4498      7369676E 
 4498      65642069 
 4498      6E7400
 4499              	.LASF79:
 4500 0390 414D7578 		.ascii	"AMux_3__refCnt\000"
 4500      5F335F5F 
 4500      72656643 
 4500      6E7400
 4501              	.LASF20:
ARM GAS  C:\Users\JEFFSN~1\AppData\Local\Temp\ccuEuQhg.s 			page 107


 4502 039f 72656733 		.ascii	"reg32\000"
 4502      3200
 4503              	.LASF24:
 4504 03a5 4359434F 		.ascii	"CYCONFIGCPYCODE\000"
 4504      4E464947 
 4504      43505943 
 4504      4F444500 
 4505              	.LASF10:
 4506 03b5 73697A65 		.ascii	"sizetype\000"
 4506      74797065 
 4506      00
 4507              	.LASF2:
 4508 03be 6C6F6E67 		.ascii	"long double\000"
 4508      20646F75 
 4508      626C6500 
 4509              	.LASF71:
 4510 03ca 414D7578 		.ascii	"AMux_2__armsEnabled\000"
 4510      5F325F5F 
 4510      61726D73 
 4510      456E6162 
 4510      6C656400 
 4511              	.LASF43:
 4512 03de 62675F78 		.ascii	"bg_xover_inl_trim\000"
 4512      6F766572 
 4512      5F696E6C 
 4512      5F747269 
 4512      6D00
 4513              	.LASF73:
 4514 03f0 414D7578 		.ascii	"AMux_3__outerAddr\000"
 4514      5F335F5F 
 4514      6F757465 
 4514      72416464 
 4514      7200
 4515              	.LASF53:
 4516 0402 414D7578 		.ascii	"AMux_2_Set\000"
 4516      5F325F53 
 4516      657400
 4517              	.LASF70:
 4518 040d 414D7578 		.ascii	"AMux_2__innerMap\000"
 4518      5F325F5F 
 4518      696E6E65 
 4518      724D6170 
 4518      00
 4519              	.LASF23:
 4520 041e 64657374 		.ascii	"dest\000"
 4520      00
 4521              	.LASF59:
 4522 0423 414D7578 		.ascii	"AMux_1_CYAMUXSIDE_A__outerAddr\000"
 4522      5F315F43 
 4522      59414D55 
 4522      58534944 
 4522      455F415F 
 4523              	.LASF16:
 4524 0442 666C6F61 		.ascii	"float\000"
 4524      7400
 4525              	.LASF81:
 4526 0448 414D7578 		.ascii	"AMux_1_CYAMUXSIDE_B__maskTable\000"
ARM GAS  C:\Users\JEFFSN~1\AppData\Local\Temp\ccuEuQhg.s 			page 108


 4526      5F315F43 
 4526      59414D55 
 4526      58534944 
 4526      455F425F 
 4527              	.LASF52:
 4528 0467 414D7578 		.ascii	"AMux_1_CYAMUXSIDE_B_Unset\000"
 4528      5F315F43 
 4528      59414D55 
 4528      58534944 
 4528      455F425F 
 4529              	.LASF18:
 4530 0481 72656738 		.ascii	"reg8\000"
 4530      00
 4531              	.LASF4:
 4532 0486 756E7369 		.ascii	"unsigned char\000"
 4532      676E6564 
 4532      20636861 
 4532      7200
 4533              	.LASF87:
 4534 0494 74645F74 		.ascii	"td_t\000"
 4534      00
 4535              	.LASF5:
 4536 0499 73686F72 		.ascii	"short int\000"
 4536      7420696E 
 4536      7400
 4537              	.LASF31:
 4538 04a3 4348315F 		.ascii	"CH1_ADDR_DATA0\000"
 4538      41444452 
 4538      5F444154 
 4538      413000
 4539              	.LASF63:
 4540 04b2 414D7578 		.ascii	"AMux_1_CYAMUXSIDE_A__innerMap\000"
 4540      5F315F43 
 4540      59414D55 
 4540      58534944 
 4540      455F415F 
 4541              	.LASF41:
 4542 04d0 706C6C4C 		.ascii	"pllLock\000"
 4542      6F636B00 
 4543              	.LASF48:
 4544 04d8 6368616E 		.ascii	"channel\000"
 4544      6E656C00 
 4545              	.LASF74:
 4546 04e0 414D7578 		.ascii	"AMux_3__outerMask\000"
 4546      5F335F5F 
 4546      6F757465 
 4546      724D6173 
 4546      6B00
 4547              	.LASF61:
 4548 04f2 414D7578 		.ascii	"AMux_1_CYAMUXSIDE_A__innerAddr\000"
 4548      5F315F43 
 4548      59414D55 
 4548      58534944 
 4548      455F415F 
 4549              	.LASF32:
 4550 0511 4348325F 		.ascii	"CH2_ADDR_DATA0\000"
 4550      41444452 
ARM GAS  C:\Users\JEFFSN~1\AppData\Local\Temp\ccuEuQhg.s 			page 109


 4550      5F444154 
 4550      413000
 4551              	.LASF49:
 4552 0520 6368616E 		.ascii	"channelMask\000"
 4552      6E656C4D 
 4552      61736B00 
 4553              	.LASF60:
 4554 052c 414D7578 		.ascii	"AMux_1_CYAMUXSIDE_A__outerMask\000"
 4554      5F315F43 
 4554      59414D55 
 4554      58534944 
 4554      455F415F 
 4555              	.LASF11:
 4556 054b 63686172 		.ascii	"char\000"
 4556      00
 4557              	.LASF54:
 4558 0550 414D7578 		.ascii	"AMux_2_Unset\000"
 4558      5F325F55 
 4558      6E736574 
 4558      00
 4559              	.LASF69:
 4560 055d 414D7578 		.ascii	"AMux_2__innerMask\000"
 4560      5F325F5F 
 4560      696E6E65 
 4560      724D6173 
 4560      6B00
 4561              	.LASF46:
 4562 056f 53657441 		.ascii	"SetAnalogRoutingPumps\000"
 4562      6E616C6F 
 4562      67526F75 
 4562      74696E67 
 4562      50756D70 
 4563              	.LASF57:
 4564 0585 43617053 		.ascii	"CapSense_AMuxCH0_Set\000"
 4564      656E7365 
 4564      5F414D75 
 4564      78434830 
 4564      5F536574 
 4565              	.LASF44:
 4566 059a 656E6162 		.ascii	"enabled\000"
 4566      6C656400 
 4567              	.LASF33:
 4568 05a2 4348355F 		.ascii	"CH5_ADDR_DATA0\000"
 4568      41444452 
 4568      5F444154 
 4568      413000
 4569              	.LASF22:
 4570 05b1 4359434F 		.ascii	"CYCONFIGCPY\000"
 4570      4E464947 
 4570      43505900 
 4571              	.LASF83:
 4572 05bd 43617053 		.ascii	"CapSense_AMuxCH0__maskTable\000"
 4572      656E7365 
 4572      5F414D75 
 4572      78434830 
 4572      5F5F6D61 
 4573              	.LASF85:
ARM GAS  C:\Users\JEFFSN~1\AppData\Local\Temp\ccuEuQhg.s 			page 110


 4574 05d9 47656E65 		.ascii	"Generated_Source\\PSoC5\\cyfitter_cfg.c\000"
 4574      72617465 
 4574      645F536F 
 4574      75726365 
 4574      5C50536F 
 4575              	.LASF30:
 4576 05ff 666C6167 		.ascii	"flags\000"
 4576      7300
 4577              	.LASF82:
 4578 0605 43617053 		.ascii	"CapSense_AMuxCH0__addrTable\000"
 4578      656E7365 
 4578      5F414D75 
 4578      78434830 
 4578      5F5F6164 
 4579              	.LASF36:
 4580 0621 444D415F 		.ascii	"DMA_ZERO_VAL\000"
 4580      5A45524F 
 4580      5F56414C 
 4580      00
 4581              	.LASF65:
 4582 062e 414D7578 		.ascii	"AMux_1_CYAMUXSIDE_A__refCnt\000"
 4582      5F315F43 
 4582      59414D55 
 4582      58534944 
 4582      455F415F 
 4583              	.LASF51:
 4584 064a 414D7578 		.ascii	"AMux_1_CYAMUXSIDE_B_Set\000"
 4584      5F315F43 
 4584      59414D55 
 4584      58534944 
 4584      455F425F 
 4585              	.LASF58:
 4586 0662 43617053 		.ascii	"CapSense_AMuxCH0_Unset\000"
 4586      656E7365 
 4586      5F414D75 
 4586      78434830 
 4586      5F556E73 
 4587              	.LASF88:
 4588 0679 63796669 		.ascii	"cyfitter_cfg\000"
 4588      74746572 
 4588      5F636667 
 4588      00
 4589              		.ident	"GCC: (GNU Tools for ARM Embedded Processors) 5.4.1 20160609 (release) [ARM/embedded-5-bran
