ARM GAS  C:\Users\JEFFSN~1\AppData\Local\Temp\ccrFXvMu.s 			page 1


   1              		.syntax unified
   2              		.cpu cortex-m3
   3              		.fpu softvfp
   4              		.eabi_attribute 20, 1
   5              		.eabi_attribute 21, 1
   6              		.eabi_attribute 23, 3
   7              		.eabi_attribute 24, 1
   8              		.eabi_attribute 25, 1
   9              		.eabi_attribute 26, 1
  10              		.eabi_attribute 30, 6
  11              		.eabi_attribute 34, 1
  12              		.eabi_attribute 18, 4
  13              		.thumb
  14              		.syntax unified
  15              		.file	"main.c"
  16              		.text
  17              	.Ltext0:
  18              		.cfi_sections	.debug_frame
  19              		.comm	stringCapSensorsOnOff,1,4
  20              		.comm	stringCapSensorsRaw,16,4
  21              		.global	thresholdArray
  22              		.data
  23              		.align	2
  24              		.type	thresholdArray, %object
  25              		.size	thresholdArray, 12
  26              	thresholdArray:
  27 0000 0F       		.byte	15
  28 0001 0F       		.byte	15
  29 0002 0F       		.byte	15
  30 0003 0F       		.byte	15
  31 0004 0F       		.byte	15
  32 0005 0F       		.byte	15
  33 0006 0F       		.byte	15
  34 0007 0F       		.byte	15
  35 0008 0F       		.byte	15
  36 0009 0F       		.byte	15
  37 000a 0F       		.byte	15
  38 000b 0F       		.byte	15
  39              		.comm	barArray,8,4
  40              		.comm	touchArray,4,4
  41              		.comm	linearPotValue32Bit,8,4
  42              		.global	i
  43              		.bss
  44              		.type	i, %object
  45              		.size	i, 1
  46              	i:
  47 0000 00       		.space	1
  48              		.global	counter
  49              		.type	counter, %object
  50              		.size	counter, 1
  51              	counter:
  52 0001 00       		.space	1
  53              		.comm	temper,4,4
  54              		.section	.text.button_press_ISR,"ax",%progbits
  55              		.align	2
  56              		.global	button_press_ISR
  57              		.thumb
ARM GAS  C:\Users\JEFFSN~1\AppData\Local\Temp\ccrFXvMu.s 			page 2


  58              		.thumb_func
  59              		.type	button_press_ISR, %function
  60              	button_press_ISR:
  61              	.LFB64:
  62              		.file 1 "main.c"
   1:main.c        **** /*****************************************************************************
   2:main.c        **** * File Name: main.c
   3:main.c        **** *
   4:main.c        **** * Version: 3.0
   5:main.c        **** *
   6:main.c        **** * Description:
   7:main.c        **** *   
   8:main.c        **** * 
   9:main.c        **** * Note:
  10:main.c        **** * 	The main project includes the ADC and other components required for the
  11:main.c        **** *   temperature measurement. The Thermistor component is a complete firmware component
  12:main.c        **** *   as decribed in the component datahseet and application note
  13:main.c        **** ******************************************************************************
  14:main.c        **** * Copyright (C) 2015, Cypress Semiconductor Corporation.
  15:main.c        **** ******************************************************************************
  16:main.c        **** * This software is owned by Cypress Semiconductor Corporation (Cypress) and is
  17:main.c        **** * protected by and subject to worldwide patent protection (United States and
  18:main.c        **** * foreign), United States copyright laws and international treaty provisions.
  19:main.c        **** * Cypress hereby grants to licensee a personal, non-exclusive, non-transferable
  20:main.c        **** * license to copy, use, modify, create derivative works of, and compile the
  21:main.c        **** * Cypress Source Code and derivative works for the sole purpose of creating
  22:main.c        **** * custom software in support of licensee product to be used only in conjunction
  23:main.c        **** * with a Cypress integrated circuit as specified in the applicable agreement.
  24:main.c        **** * Any reproduction, modification, translation, compilation, or representation of
  25:main.c        **** * this software except as specified above is prohibited without the express
  26:main.c        **** * written permission of Cypress.
  27:main.c        **** *
  28:main.c        **** * Disclaimer: CYPRESS MAKES NO WARRANTY OF ANY KIND, EXPRESS OR IMPLIED, WITH
  29:main.c        **** * REGARD TO THIS MATERIAL, INCLUDING, BUT NOT LIMITED TO, THE IMPLIED
  30:main.c        **** * WARRANTIES OF MERCHANTABILITY AND FITNESS FOR A PARTICULAR PURPOSE.
  31:main.c        **** * Cypress reserves the right to make changes without further notice to the
  32:main.c        **** * materials described herein. Cypress does not assume any liability arising out
  33:main.c        **** * of the application or use of any product or circuit described herein. Cypress
  34:main.c        **** * does not authorize its products for use as critical components in life-support
  35:main.c        **** * systems where a malfunction or failure may reasonably be expected to result in
  36:main.c        **** * significant injury to the user. The inclusion of Cypress' product in a life-
  37:main.c        **** * support systems application implies that the manufacturer assumes all risk of
  38:main.c        **** * such use and in doing so indemnifies Cypress against all charges. Use may be
  39:main.c        **** * limited by and subject to the applicable Cypress software license agreement.
  40:main.c        **** *****************************************************************************/
  41:main.c        **** #include <device.h>
  42:main.c        **** #include "removeOffsetNoise.h"
  43:main.c        **** #include "measurement.h"
  44:main.c        **** #include <stdio.h>
  45:main.c        **** 
  46:main.c        **** #define barBufferSize 8
  47:main.c        **** #define touchBufferSize 4
  48:main.c        **** 
  49:main.c        **** 
  50:main.c        **** 
  51:main.c        **** uint8_t stringCapSensorsOnOff[1];
  52:main.c        **** uint8_t stringCapSensorsRaw[16];
ARM GAS  C:\Users\JEFFSN~1\AppData\Local\Temp\ccrFXvMu.s 			page 3


  53:main.c        **** uint8_t thresholdArray[12] = {15, 15, 15, 15, 15, 15, 15, 15, 15, 15, 15, 15};
  54:main.c        **** uint8 barArray[barBufferSize];
  55:main.c        **** uint8 touchArray[touchBufferSize];
  56:main.c        **** int32_t linearPotValue32Bit[2];
  57:main.c        **** uint8_t i = 0;
  58:main.c        **** uint8_t counter = 0;
  59:main.c        **** int32_t temper;
  60:main.c        **** void scanLinearResistor(uint8_t channel);
  61:main.c        **** 
  62:main.c        **** 
  63:main.c        **** CY_ISR(button_press_ISR) {     /* No need to clear any interrupt source; interrupt component should
  63              		.loc 1 63 0
  64              		.cfi_startproc
  65              		@ args = 0, pretend = 0, frame = 0
  66              		@ frame_needed = 1, uses_anonymous_args = 0
  67              		@ link register save eliminated.
  68 0000 80B4     		push	{r7}
  69              		.cfi_def_cfa_offset 4
  70              		.cfi_offset 7, -4
  71 0002 00AF     		add	r7, sp, #0
  72              		.cfi_def_cfa_register 7
  64:main.c        ****  //FiltReg_Read(); 
  65:main.c        ****     //
  66:main.c        **** }
  73              		.loc 1 66 0
  74 0004 00BF     		nop
  75 0006 BD46     		mov	sp, r7
  76              		.cfi_def_cfa_register 13
  77              		@ sp needed
  78 0008 80BC     		pop	{r7}
  79              		.cfi_restore 7
  80              		.cfi_def_cfa_offset 0
  81 000a 7047     		bx	lr
  82              		.cfi_endproc
  83              	.LFE64:
  84              		.size	button_press_ISR, .-button_press_ISR
  85              		.comm	ADC_values,24,4
  86              		.section	.text.main,"ax",%progbits
  87              		.align	2
  88              		.global	main
  89              		.thumb
  90              		.thumb_func
  91              		.type	main, %function
  92              	main:
  93              	.LFB65:
  67:main.c        **** 
  68:main.c        **** uint16_t ADC_values[12];
  69:main.c        **** 
  70:main.c        **** int main(void)
  71:main.c        **** {
  94              		.loc 1 71 0
  95              		.cfi_startproc
  96              		@ args = 0, pretend = 0, frame = 40
  97              		@ frame_needed = 1, uses_anonymous_args = 0
  98 0000 80B5     		push	{r7, lr}
  99              		.cfi_def_cfa_offset 8
 100              		.cfi_offset 7, -8
ARM GAS  C:\Users\JEFFSN~1\AppData\Local\Temp\ccrFXvMu.s 			page 4


 101              		.cfi_offset 14, -4
 102 0002 8AB0     		sub	sp, sp, #40
 103              		.cfi_def_cfa_offset 48
 104 0004 00AF     		add	r7, sp, #0
 105              		.cfi_def_cfa_register 7
  72:main.c        ****     
  73:main.c        **** 	char printBuf[16]={'\0'};
 106              		.loc 1 73 0
 107 0006 3B46     		mov	r3, r7
 108 0008 0022     		movs	r2, #0
 109 000a 1A60     		str	r2, [r3]
 110 000c 5A60     		str	r2, [r3, #4]
 111 000e 9A60     		str	r2, [r3, #8]
 112 0010 DA60     		str	r2, [r3, #12]
  74:main.c        **** 
  75:main.c        **** 
  76:main.c        **** 	CYGlobalIntEnable; 
 113              		.loc 1 76 0
 114              		.syntax unified
 115              	@ 76 "main.c" 1
 116 0012 62B6     		CPSIE   i
 117              	@ 0 "" 2
  77:main.c        ****     IDAC8_1_Start();
 118              		.loc 1 77 0
 119              		.thumb
 120              		.syntax unified
 121 0014 FFF7FEFF 		bl	IDAC8_1_Start
  78:main.c        ****     IDAC8_2_Start();
 122              		.loc 1 78 0
 123 0018 FFF7FEFF 		bl	IDAC8_2_Start
  79:main.c        **** 	ADC_1_Start();
 124              		.loc 1 79 0
 125 001c FFF7FEFF 		bl	ADC_1_Start
  80:main.c        **** 	AMux_1_Start();
 126              		.loc 1 80 0
 127 0020 FFF7FEFF 		bl	AMux_1_Start
  81:main.c        ****     AMux_2_Start();
 128              		.loc 1 81 0
 129 0024 FFF7FEFF 		bl	AMux_2_Start
  82:main.c        ****     AMux_3_Start();
 130              		.loc 1 82 0
 131 0028 FFF7FEFF 		bl	AMux_3_Start
  83:main.c        ****     ADC_SAR_Seq_1_Start();
 132              		.loc 1 83 0
 133 002c FFF7FEFF 		bl	ADC_SAR_Seq_1_Start
  84:main.c        **** 
  85:main.c        ****     SPIM_1_Start();
 134              		.loc 1 85 0
 135 0030 FFF7FEFF 		bl	SPIM_1_Start
  86:main.c        ****     SPIM_2_Start();
 136              		.loc 1 86 0
 137 0034 FFF7FEFF 		bl	SPIM_2_Start
  87:main.c        ****     
  88:main.c        ****     CyDelay(500);
 138              		.loc 1 88 0
 139 0038 4FF4FA70 		mov	r0, #500
 140 003c FFF7FEFF 		bl	CyDelay
ARM GAS  C:\Users\JEFFSN~1\AppData\Local\Temp\ccrFXvMu.s 			page 5


  89:main.c        ****     CapSense_Start();     
 141              		.loc 1 89 0
 142 0040 FFF7FEFF 		bl	CapSense_Start
  90:main.c        ****     
  91:main.c        ****     CyDelay(500);
 143              		.loc 1 91 0
 144 0044 4FF4FA70 		mov	r0, #500
 145 0048 FFF7FEFF 		bl	CyDelay
  92:main.c        ****     CapSense_InitializeAllBaselines();
 146              		.loc 1 92 0
 147 004c FFF7FEFF 		bl	CapSense_InitializeAllBaselines
  93:main.c        ****     uint8_t myArrayCounter = 0;
 148              		.loc 1 93 0
 149 0050 0023     		movs	r3, #0
 150 0052 FB77     		strb	r3, [r7, #31]
  94:main.c        ****     
  95:main.c        ****     CapSense_ScanEnabledWidgets();  
 151              		.loc 1 95 0
 152 0054 FFF7FEFF 		bl	CapSense_ScanEnabledWidgets
 153              	.L16:
 154              	.LBB2:
  96:main.c        **** 
  97:main.c        **** 
  98:main.c        **** 	for(;;)
  99:main.c        ****     {
 100:main.c        ****         CapSense_ClearSensors();
 155              		.loc 1 100 0
 156 0058 FFF7FEFF 		bl	CapSense_ClearSensors
 101:main.c        ****         
 102:main.c        ****         for (i = 0; i < 2; i++)
 157              		.loc 1 102 0
 158 005c 8F4B     		ldr	r3, .L17
 159 005e 0022     		movs	r2, #0
 160 0060 1A70     		strb	r2, [r3]
 161 0062 0AE0     		b	.L3
 162              	.L4:
 103:main.c        ****         {
 104:main.c        ****            scanLinearResistor(i);
 163              		.loc 1 104 0 discriminator 3
 164 0064 8D4B     		ldr	r3, .L17
 165 0066 1B78     		ldrb	r3, [r3]	@ zero_extendqisi2
 166 0068 1846     		mov	r0, r3
 167 006a FFF7FEFF 		bl	scanLinearResistor
 102:main.c        ****         {
 168              		.loc 1 102 0 discriminator 3
 169 006e 8B4B     		ldr	r3, .L17
 170 0070 1B78     		ldrb	r3, [r3]	@ zero_extendqisi2
 171 0072 0133     		adds	r3, r3, #1
 172 0074 DAB2     		uxtb	r2, r3
 173 0076 894B     		ldr	r3, .L17
 174 0078 1A70     		strb	r2, [r3]
 175              	.L3:
 102:main.c        ****         {
 176              		.loc 1 102 0 is_stmt 0 discriminator 1
 177 007a 884B     		ldr	r3, .L17
 178 007c 1B78     		ldrb	r3, [r3]	@ zero_extendqisi2
 179 007e 012B     		cmp	r3, #1
ARM GAS  C:\Users\JEFFSN~1\AppData\Local\Temp\ccrFXvMu.s 			page 6


 180 0080 F0D9     		bls	.L4
 105:main.c        ****         }
 106:main.c        **** 
 107:main.c        **** 
 108:main.c        ****         uint8_t byteCounter = 0;
 181              		.loc 1 108 0 is_stmt 1
 182 0082 0023     		movs	r3, #0
 183 0084 BB77     		strb	r3, [r7, #30]
 109:main.c        **** 
 110:main.c        ****         CapSense_UpdateEnabledBaselines();
 184              		.loc 1 110 0
 185 0086 FFF7FEFF 		bl	CapSense_UpdateEnabledBaselines
 111:main.c        ****         CapSense_ScanEnabledWidgets();  
 186              		.loc 1 111 0
 187 008a FFF7FEFF 		bl	CapSense_ScanEnabledWidgets
 112:main.c        ****         
 113:main.c        ****         int isSensorOn1 = (CapSense_sensorRaw[9] - CapSense_sensorBaseline[9]) > thresholdArray[9];
 188              		.loc 1 113 0
 189 008e 844B     		ldr	r3, .L17+4
 190 0090 5B8A     		ldrh	r3, [r3, #18]
 191 0092 1A46     		mov	r2, r3
 192 0094 834B     		ldr	r3, .L17+8
 193 0096 5B8A     		ldrh	r3, [r3, #18]
 194 0098 D31A     		subs	r3, r2, r3
 195 009a 834A     		ldr	r2, .L17+12
 196 009c 527A     		ldrb	r2, [r2, #9]	@ zero_extendqisi2
 197 009e 9342     		cmp	r3, r2
 198 00a0 CCBF     		ite	gt
 199 00a2 0123     		movgt	r3, #1
 200 00a4 0023     		movle	r3, #0
 201 00a6 DBB2     		uxtb	r3, r3
 202 00a8 BB61     		str	r3, [r7, #24]
 114:main.c        ****         if (isSensorOn1)
 115:main.c        ****         {
 116:main.c        ****             //LED_Write(1);
 117:main.c        ****         }
 118:main.c        ****         else
 119:main.c        ****         {
 120:main.c        ****            // LED_Write(0);
 121:main.c        ****         }
 122:main.c        **** 
 123:main.c        ****         counter = 0;
 203              		.loc 1 123 0
 204 00aa 804B     		ldr	r3, .L17+16
 205 00ac 0022     		movs	r2, #0
 206 00ae 1A70     		strb	r2, [r3]
 124:main.c        ****         
 125:main.c        ****         for (i = 0; i < 2; i++)
 207              		.loc 1 125 0
 208 00b0 7A4B     		ldr	r3, .L17
 209 00b2 0022     		movs	r2, #0
 210 00b4 1A70     		strb	r2, [r3]
 211 00b6 26E0     		b	.L5
 212              	.L6:
 126:main.c        ****         {
 127:main.c        ****             barArray[counter++] = ((uint16_t) linearPotValue32Bit[i]) >> 8;
 213              		.loc 1 127 0 discriminator 3
ARM GAS  C:\Users\JEFFSN~1\AppData\Local\Temp\ccrFXvMu.s 			page 7


 214 00b8 7C4B     		ldr	r3, .L17+16
 215 00ba 1B78     		ldrb	r3, [r3]	@ zero_extendqisi2
 216 00bc 5A1C     		adds	r2, r3, #1
 217 00be D1B2     		uxtb	r1, r2
 218 00c0 7A4A     		ldr	r2, .L17+16
 219 00c2 1170     		strb	r1, [r2]
 220 00c4 1A46     		mov	r2, r3
 221 00c6 754B     		ldr	r3, .L17
 222 00c8 1B78     		ldrb	r3, [r3]	@ zero_extendqisi2
 223 00ca 1946     		mov	r1, r3
 224 00cc 784B     		ldr	r3, .L17+20
 225 00ce 53F82130 		ldr	r3, [r3, r1, lsl #2]
 226 00d2 1B12     		asrs	r3, r3, #8
 227 00d4 D9B2     		uxtb	r1, r3
 228 00d6 774B     		ldr	r3, .L17+24
 229 00d8 9954     		strb	r1, [r3, r2]
 128:main.c        ****             barArray[counter++] = ((uint16_t) linearPotValue32Bit[i]) & 0xff;
 230              		.loc 1 128 0 discriminator 3
 231 00da 744B     		ldr	r3, .L17+16
 232 00dc 1B78     		ldrb	r3, [r3]	@ zero_extendqisi2
 233 00de 5A1C     		adds	r2, r3, #1
 234 00e0 D1B2     		uxtb	r1, r2
 235 00e2 724A     		ldr	r2, .L17+16
 236 00e4 1170     		strb	r1, [r2]
 237 00e6 1A46     		mov	r2, r3
 238 00e8 6C4B     		ldr	r3, .L17
 239 00ea 1B78     		ldrb	r3, [r3]	@ zero_extendqisi2
 240 00ec 1946     		mov	r1, r3
 241 00ee 704B     		ldr	r3, .L17+20
 242 00f0 53F82130 		ldr	r3, [r3, r1, lsl #2]
 243 00f4 D9B2     		uxtb	r1, r3
 244 00f6 6F4B     		ldr	r3, .L17+24
 245 00f8 9954     		strb	r1, [r3, r2]
 125:main.c        ****         {
 246              		.loc 1 125 0 discriminator 3
 247 00fa 684B     		ldr	r3, .L17
 248 00fc 1B78     		ldrb	r3, [r3]	@ zero_extendqisi2
 249 00fe 0133     		adds	r3, r3, #1
 250 0100 DAB2     		uxtb	r2, r3
 251 0102 664B     		ldr	r3, .L17
 252 0104 1A70     		strb	r2, [r3]
 253              	.L5:
 125:main.c        ****         {
 254              		.loc 1 125 0 is_stmt 0 discriminator 1
 255 0106 654B     		ldr	r3, .L17
 256 0108 1B78     		ldrb	r3, [r3]	@ zero_extendqisi2
 257 010a 012B     		cmp	r3, #1
 258 010c D4D9     		bls	.L6
 129:main.c        ****         }
 130:main.c        **** 
 131:main.c        **** 
 132:main.c        **** 
 133:main.c        ****         barArray[4] = 0;
 259              		.loc 1 133 0 is_stmt 1
 260 010e 694B     		ldr	r3, .L17+24
 261 0110 0022     		movs	r2, #0
 262 0112 1A71     		strb	r2, [r3, #4]
ARM GAS  C:\Users\JEFFSN~1\AppData\Local\Temp\ccrFXvMu.s 			page 8


 134:main.c        ****         barArray[5] = 0;
 263              		.loc 1 134 0
 264 0114 674B     		ldr	r3, .L17+24
 265 0116 0022     		movs	r2, #0
 266 0118 5A71     		strb	r2, [r3, #5]
 135:main.c        ****         barArray[6] = 254;
 267              		.loc 1 135 0
 268 011a 664B     		ldr	r3, .L17+24
 269 011c FE22     		movs	r2, #254
 270 011e 9A71     		strb	r2, [r3, #6]
 136:main.c        ****         barArray[7] = 253;
 271              		.loc 1 136 0
 272 0120 644B     		ldr	r3, .L17+24
 273 0122 FD22     		movs	r2, #253
 274 0124 DA71     		strb	r2, [r3, #7]
 137:main.c        ****         
 138:main.c        ****         touchArray[0] = 0;
 275              		.loc 1 138 0
 276 0126 644B     		ldr	r3, .L17+28
 277 0128 0022     		movs	r2, #0
 278 012a 1A70     		strb	r2, [r3]
 139:main.c        ****         touchArray[1] = 0;
 279              		.loc 1 139 0
 280 012c 624B     		ldr	r3, .L17+28
 281 012e 0022     		movs	r2, #0
 282 0130 5A70     		strb	r2, [r3, #1]
 140:main.c        ****         touchArray[2] = 254;
 283              		.loc 1 140 0
 284 0132 614B     		ldr	r3, .L17+28
 285 0134 FE22     		movs	r2, #254
 286 0136 9A70     		strb	r2, [r3, #2]
 141:main.c        ****         touchArray[3] = 253;
 287              		.loc 1 141 0
 288 0138 5F4B     		ldr	r3, .L17+28
 289 013a FD22     		movs	r2, #253
 290 013c DA70     		strb	r2, [r3, #3]
 142:main.c        **** 
 143:main.c        ****         
 144:main.c        ****         while(CapSense_IsBusy() != 0)  
 291              		.loc 1 144 0
 292 013e 00BF     		nop
 293              	.L7:
 294              		.loc 1 144 0 is_stmt 0 discriminator 1
 295 0140 FFF7FEFF 		bl	CapSense_IsBusy
 296 0144 0346     		mov	r3, r0
 297 0146 002B     		cmp	r3, #0
 298 0148 FAD1     		bne	.L7
 145:main.c        ****         {
 146:main.c        ****             ;//wait until scan is complete
 147:main.c        ****         }  
 148:main.c        ****         for (i = 0; i < 8; i++)
 299              		.loc 1 148 0 is_stmt 1
 300 014a 544B     		ldr	r3, .L17
 301 014c 0022     		movs	r2, #0
 302 014e 1A70     		strb	r2, [r3]
 303 0150 3AE0     		b	.L8
 304              	.L9:
ARM GAS  C:\Users\JEFFSN~1\AppData\Local\Temp\ccrFXvMu.s 			page 9


 305              	.LBB3:
 149:main.c        ****         {
 150:main.c        ****            int isSensorOn = (CapSense_sensorRaw[i] - CapSense_sensorBaseline[i]) > thresholdArray[i
 306              		.loc 1 150 0 discriminator 3
 307 0152 524B     		ldr	r3, .L17
 308 0154 1B78     		ldrb	r3, [r3]	@ zero_extendqisi2
 309 0156 1A46     		mov	r2, r3
 310 0158 514B     		ldr	r3, .L17+4
 311 015a 33F81230 		ldrh	r3, [r3, r2, lsl #1]
 312 015e 1A46     		mov	r2, r3
 313 0160 4E4B     		ldr	r3, .L17
 314 0162 1B78     		ldrb	r3, [r3]	@ zero_extendqisi2
 315 0164 1946     		mov	r1, r3
 316 0166 4F4B     		ldr	r3, .L17+8
 317 0168 33F81130 		ldrh	r3, [r3, r1, lsl #1]
 318 016c D31A     		subs	r3, r2, r3
 319 016e 4B4A     		ldr	r2, .L17
 320 0170 1278     		ldrb	r2, [r2]	@ zero_extendqisi2
 321 0172 1146     		mov	r1, r2
 322 0174 4C4A     		ldr	r2, .L17+12
 323 0176 525C     		ldrb	r2, [r2, r1]	@ zero_extendqisi2
 324 0178 9342     		cmp	r3, r2
 325 017a CCBF     		ite	gt
 326 017c 0123     		movgt	r3, #1
 327 017e 0023     		movle	r3, #0
 328 0180 DBB2     		uxtb	r3, r3
 329 0182 7B61     		str	r3, [r7, #20]
 151:main.c        ****             touchArray[0] |= (isSensorOn << i);
 330              		.loc 1 151 0 discriminator 3
 331 0184 4C4B     		ldr	r3, .L17+28
 332 0186 1B78     		ldrb	r3, [r3]	@ zero_extendqisi2
 333 0188 5AB2     		sxtb	r2, r3
 334 018a 444B     		ldr	r3, .L17
 335 018c 1B78     		ldrb	r3, [r3]	@ zero_extendqisi2
 336 018e 1946     		mov	r1, r3
 337 0190 7B69     		ldr	r3, [r7, #20]
 338 0192 8B40     		lsls	r3, r3, r1
 339 0194 5BB2     		sxtb	r3, r3
 340 0196 1343     		orrs	r3, r3, r2
 341 0198 5BB2     		sxtb	r3, r3
 342 019a DAB2     		uxtb	r2, r3
 343 019c 464B     		ldr	r3, .L17+28
 344 019e 1A70     		strb	r2, [r3]
 152:main.c        ****             barArray[4] |= (isSensorOn << i);
 345              		.loc 1 152 0 discriminator 3
 346 01a0 444B     		ldr	r3, .L17+24
 347 01a2 1B79     		ldrb	r3, [r3, #4]	@ zero_extendqisi2
 348 01a4 5AB2     		sxtb	r2, r3
 349 01a6 3D4B     		ldr	r3, .L17
 350 01a8 1B78     		ldrb	r3, [r3]	@ zero_extendqisi2
 351 01aa 1946     		mov	r1, r3
 352 01ac 7B69     		ldr	r3, [r7, #20]
 353 01ae 8B40     		lsls	r3, r3, r1
 354 01b0 5BB2     		sxtb	r3, r3
 355 01b2 1343     		orrs	r3, r3, r2
 356 01b4 5BB2     		sxtb	r3, r3
 357 01b6 DAB2     		uxtb	r2, r3
ARM GAS  C:\Users\JEFFSN~1\AppData\Local\Temp\ccrFXvMu.s 			page 10


 358 01b8 3E4B     		ldr	r3, .L17+24
 359 01ba 1A71     		strb	r2, [r3, #4]
 360              	.LBE3:
 148:main.c        ****         {
 361              		.loc 1 148 0 discriminator 3
 362 01bc 374B     		ldr	r3, .L17
 363 01be 1B78     		ldrb	r3, [r3]	@ zero_extendqisi2
 364 01c0 0133     		adds	r3, r3, #1
 365 01c2 DAB2     		uxtb	r2, r3
 366 01c4 354B     		ldr	r3, .L17
 367 01c6 1A70     		strb	r2, [r3]
 368              	.L8:
 148:main.c        ****         {
 369              		.loc 1 148 0 is_stmt 0 discriminator 1
 370 01c8 344B     		ldr	r3, .L17
 371 01ca 1B78     		ldrb	r3, [r3]	@ zero_extendqisi2
 372 01cc 072B     		cmp	r3, #7
 373 01ce C0D9     		bls	.L9
 153:main.c        **** 
 154:main.c        ****         }
 155:main.c        ****         for (i = 8; i < 10; i++)
 374              		.loc 1 155 0 is_stmt 1
 375 01d0 324B     		ldr	r3, .L17
 376 01d2 0822     		movs	r2, #8
 377 01d4 1A70     		strb	r2, [r3]
 378 01d6 3CE0     		b	.L10
 379              	.L11:
 380              	.LBB4:
 156:main.c        ****         {
 157:main.c        ****            int isSensorOn = (CapSense_sensorRaw[i] - CapSense_sensorBaseline[i]) > thresholdArray[i
 381              		.loc 1 157 0 discriminator 3
 382 01d8 304B     		ldr	r3, .L17
 383 01da 1B78     		ldrb	r3, [r3]	@ zero_extendqisi2
 384 01dc 1A46     		mov	r2, r3
 385 01de 304B     		ldr	r3, .L17+4
 386 01e0 33F81230 		ldrh	r3, [r3, r2, lsl #1]
 387 01e4 1A46     		mov	r2, r3
 388 01e6 2D4B     		ldr	r3, .L17
 389 01e8 1B78     		ldrb	r3, [r3]	@ zero_extendqisi2
 390 01ea 1946     		mov	r1, r3
 391 01ec 2D4B     		ldr	r3, .L17+8
 392 01ee 33F81130 		ldrh	r3, [r3, r1, lsl #1]
 393 01f2 D31A     		subs	r3, r2, r3
 394 01f4 294A     		ldr	r2, .L17
 395 01f6 1278     		ldrb	r2, [r2]	@ zero_extendqisi2
 396 01f8 1146     		mov	r1, r2
 397 01fa 2B4A     		ldr	r2, .L17+12
 398 01fc 525C     		ldrb	r2, [r2, r1]	@ zero_extendqisi2
 399 01fe 9342     		cmp	r3, r2
 400 0200 CCBF     		ite	gt
 401 0202 0123     		movgt	r3, #1
 402 0204 0023     		movle	r3, #0
 403 0206 DBB2     		uxtb	r3, r3
 404 0208 3B61     		str	r3, [r7, #16]
 158:main.c        ****             touchArray[1] |= (isSensorOn << (i - 8));
 405              		.loc 1 158 0 discriminator 3
 406 020a 2B4B     		ldr	r3, .L17+28
ARM GAS  C:\Users\JEFFSN~1\AppData\Local\Temp\ccrFXvMu.s 			page 11


 407 020c 5B78     		ldrb	r3, [r3, #1]	@ zero_extendqisi2
 408 020e 5AB2     		sxtb	r2, r3
 409 0210 224B     		ldr	r3, .L17
 410 0212 1B78     		ldrb	r3, [r3]	@ zero_extendqisi2
 411 0214 083B     		subs	r3, r3, #8
 412 0216 3969     		ldr	r1, [r7, #16]
 413 0218 01FA03F3 		lsl	r3, r1, r3
 414 021c 5BB2     		sxtb	r3, r3
 415 021e 1343     		orrs	r3, r3, r2
 416 0220 5BB2     		sxtb	r3, r3
 417 0222 DAB2     		uxtb	r2, r3
 418 0224 244B     		ldr	r3, .L17+28
 419 0226 5A70     		strb	r2, [r3, #1]
 159:main.c        ****             barArray[5] |= (isSensorOn << (i - 8));
 420              		.loc 1 159 0 discriminator 3
 421 0228 224B     		ldr	r3, .L17+24
 422 022a 5B79     		ldrb	r3, [r3, #5]	@ zero_extendqisi2
 423 022c 5AB2     		sxtb	r2, r3
 424 022e 1B4B     		ldr	r3, .L17
 425 0230 1B78     		ldrb	r3, [r3]	@ zero_extendqisi2
 426 0232 083B     		subs	r3, r3, #8
 427 0234 3969     		ldr	r1, [r7, #16]
 428 0236 01FA03F3 		lsl	r3, r1, r3
 429 023a 5BB2     		sxtb	r3, r3
 430 023c 1343     		orrs	r3, r3, r2
 431 023e 5BB2     		sxtb	r3, r3
 432 0240 DAB2     		uxtb	r2, r3
 433 0242 1C4B     		ldr	r3, .L17+24
 434 0244 5A71     		strb	r2, [r3, #5]
 435              	.LBE4:
 155:main.c        ****         {
 436              		.loc 1 155 0 discriminator 3
 437 0246 154B     		ldr	r3, .L17
 438 0248 1B78     		ldrb	r3, [r3]	@ zero_extendqisi2
 439 024a 0133     		adds	r3, r3, #1
 440 024c DAB2     		uxtb	r2, r3
 441 024e 134B     		ldr	r3, .L17
 442 0250 1A70     		strb	r2, [r3]
 443              	.L10:
 155:main.c        ****         {
 444              		.loc 1 155 0 is_stmt 0 discriminator 1
 445 0252 124B     		ldr	r3, .L17
 446 0254 1B78     		ldrb	r3, [r3]	@ zero_extendqisi2
 447 0256 092B     		cmp	r3, #9
 448 0258 BED9     		bls	.L11
 449              	.LBB5:
 160:main.c        ****         }        
 161:main.c        ****         
 162:main.c        ****         //send data over SPI to pluck detector boards
 163:main.c        ****          for (int i = 0; i < touchBufferSize; i++)
 450              		.loc 1 163 0 is_stmt 1
 451 025a 0023     		movs	r3, #0
 452 025c 7B62     		str	r3, [r7, #36]
 453 025e 09E0     		b	.L12
 454              	.L13:
 164:main.c        ****         {         
 165:main.c        **** 
ARM GAS  C:\Users\JEFFSN~1\AppData\Local\Temp\ccrFXvMu.s 			page 12


 166:main.c        ****             SPIM_1_WriteTxData(touchArray[i]);
 455              		.loc 1 166 0 discriminator 3
 456 0260 154A     		ldr	r2, .L17+28
 457 0262 7B6A     		ldr	r3, [r7, #36]
 458 0264 1344     		add	r3, r3, r2
 459 0266 1B78     		ldrb	r3, [r3]	@ zero_extendqisi2
 460 0268 1846     		mov	r0, r3
 461 026a FFF7FEFF 		bl	SPIM_1_WriteTxData
 163:main.c        ****         {         
 462              		.loc 1 163 0 discriminator 3
 463 026e 7B6A     		ldr	r3, [r7, #36]
 464 0270 0133     		adds	r3, r3, #1
 465 0272 7B62     		str	r3, [r7, #36]
 466              	.L12:
 163:main.c        ****         {         
 467              		.loc 1 163 0 is_stmt 0 discriminator 1
 468 0274 7B6A     		ldr	r3, [r7, #36]
 469 0276 032B     		cmp	r3, #3
 470 0278 F2DD     		ble	.L13
 471              	.LBE5:
 472              	.LBB6:
 167:main.c        **** 
 168:main.c        ****         }
 169:main.c        ****         
 170:main.c        ****         //send data over SPI to brain and synth boards
 171:main.c        ****          for (int i = 0; i < barBufferSize; i++)
 473              		.loc 1 171 0 is_stmt 1
 474 027a 0023     		movs	r3, #0
 475 027c 3B62     		str	r3, [r7, #32]
 476 027e 09E0     		b	.L14
 477              	.L15:
 172:main.c        ****         {         
 173:main.c        ****             SPIM_2_WriteTxData(barArray[i]);
 478              		.loc 1 173 0 discriminator 3
 479 0280 0C4A     		ldr	r2, .L17+24
 480 0282 3B6A     		ldr	r3, [r7, #32]
 481 0284 1344     		add	r3, r3, r2
 482 0286 1B78     		ldrb	r3, [r3]	@ zero_extendqisi2
 483 0288 1846     		mov	r0, r3
 484 028a FFF7FEFF 		bl	SPIM_2_WriteTxData
 171:main.c        ****         {         
 485              		.loc 1 171 0 discriminator 3
 486 028e 3B6A     		ldr	r3, [r7, #32]
 487 0290 0133     		adds	r3, r3, #1
 488 0292 3B62     		str	r3, [r7, #32]
 489              	.L14:
 171:main.c        ****         {         
 490              		.loc 1 171 0 is_stmt 0 discriminator 1
 491 0294 3B6A     		ldr	r3, [r7, #32]
 492 0296 072B     		cmp	r3, #7
 493 0298 F2DD     		ble	.L15
 494              	.LBE6:
 495              	.LBE2:
 174:main.c        ****         }
 175:main.c        ****     }
 496              		.loc 1 175 0 is_stmt 1
 497 029a DDE6     		b	.L16
ARM GAS  C:\Users\JEFFSN~1\AppData\Local\Temp\ccrFXvMu.s 			page 13


 498              	.L18:
 499              		.align	2
 500              	.L17:
 501 029c 00000000 		.word	i
 502 02a0 00000000 		.word	CapSense_sensorRaw
 503 02a4 00000000 		.word	CapSense_sensorBaseline
 504 02a8 00000000 		.word	thresholdArray
 505 02ac 00000000 		.word	counter
 506 02b0 00000000 		.word	linearPotValue32Bit
 507 02b4 00000000 		.word	barArray
 508 02b8 00000000 		.word	touchArray
 509              		.cfi_endproc
 510              	.LFE65:
 511              		.size	main, .-main
 512              		.comm	resistorRatio,8,4
 513              		.global	currentPast
 514              		.bss
 515              		.type	currentPast, %object
 516              		.size	currentPast, 1
 517              	currentPast:
 518 0002 00       		.space	1
 519              		.comm	resistorPast,360,4
 520              		.comm	pastValueMain,8,4
 521              		.comm	pastValueOtherSide,8,4
 522              		.global	__aeabi_i2f
 523              		.global	__aeabi_fdiv
 524              		.global	__aeabi_fmul
 525              		.global	__aeabi_f2iz
 526              		.section	.text.scanLinearResistor,"ax",%progbits
 527              		.align	2
 528              		.global	scanLinearResistor
 529              		.thumb
 530              		.thumb_func
 531              		.type	scanLinearResistor, %function
 532              	scanLinearResistor:
 533              	.LFB66:
 176:main.c        **** }
 177:main.c        **** float resistorRatio[2];
 178:main.c        **** int8_t currentPast = 0;
 179:main.c        **** int32_t resistorPast[30][3];
 180:main.c        **** int32_t pastValueMain[2];
 181:main.c        **** int32_t pastValueOtherSide[2];
 182:main.c        **** 
 183:main.c        **** void scanLinearResistor(uint8_t channel)
 184:main.c        **** {  
 534              		.loc 1 184 0
 535              		.cfi_startproc
 536              		@ args = 0, pretend = 0, frame = 32
 537              		@ frame_needed = 1, uses_anonymous_args = 0
 538 0000 B0B5     		push	{r4, r5, r7, lr}
 539              		.cfi_def_cfa_offset 16
 540              		.cfi_offset 4, -16
 541              		.cfi_offset 5, -12
 542              		.cfi_offset 7, -8
 543              		.cfi_offset 14, -4
 544 0002 88B0     		sub	sp, sp, #32
 545              		.cfi_def_cfa_offset 48
ARM GAS  C:\Users\JEFFSN~1\AppData\Local\Temp\ccrFXvMu.s 			page 14


 546 0004 00AF     		add	r7, sp, #0
 547              		.cfi_def_cfa_register 7
 548 0006 0346     		mov	r3, r0
 549 0008 FB71     		strb	r3, [r7, #7]
 185:main.c        ****         int32 iVtherm = 0;
 550              		.loc 1 185 0
 551 000a 0023     		movs	r3, #0
 552 000c 7B61     		str	r3, [r7, #20]
 186:main.c        ****         int32 iVref = 0;
 553              		.loc 1 186 0
 554 000e 0023     		movs	r3, #0
 555 0010 3B61     		str	r3, [r7, #16]
 187:main.c        ****         int32 iRes = 0;
 556              		.loc 1 187 0
 557 0012 0023     		movs	r3, #0
 558 0014 FB61     		str	r3, [r7, #28]
 188:main.c        ****         int32 offset = 0;
 559              		.loc 1 188 0
 560 0016 0023     		movs	r3, #0
 561 0018 FB60     		str	r3, [r7, #12]
 189:main.c        ****        // IDAC8_2_Stop();
 190:main.c        ****        // IDAC8_1_Start();
 191:main.c        ****         //connect the iout pin to the correct resistor channel
 192:main.c        ****         AMux_2_FastSelect(channel);
 562              		.loc 1 192 0
 563 001a FB79     		ldrb	r3, [r7, #7]	@ zero_extendqisi2
 564 001c 1846     		mov	r0, r3
 565 001e FFF7FEFF 		bl	AMux_2_FastSelect
 193:main.c        ****     
 194:main.c        ****         //select the wiper pins
 195:main.c        ****         AMux_1_FastSelect(channel * 2);
 566              		.loc 1 195 0
 567 0022 FB79     		ldrb	r3, [r7, #7]
 568 0024 5B00     		lsls	r3, r3, #1
 569 0026 DBB2     		uxtb	r3, r3
 570 0028 1846     		mov	r0, r3
 571 002a FFF7FEFF 		bl	AMux_1_FastSelect
 196:main.c        ****         CyDelayUs(500); 
 572              		.loc 1 196 0
 573 002e 4FF4FA70 		mov	r0, #500
 574 0032 FFF7FEFF 		bl	CyDelayUs
 197:main.c        **** 
 198:main.c        ****        
 199:main.c        ****         ADC_1_StartConvert();
 575              		.loc 1 199 0
 576 0036 FFF7FEFF 		bl	ADC_1_StartConvert
 200:main.c        ****         ADC_1_IsEndConversion(ADC_1_WAIT_FOR_RESULT);
 577              		.loc 1 200 0
 578 003a 0020     		movs	r0, #0
 579 003c FFF7FEFF 		bl	ADC_1_IsEndConversion
 201:main.c        ****         iVtherm = ADC_1_GetResult32();
 580              		.loc 1 201 0
 581 0040 FFF7FEFF 		bl	ADC_1_GetResult32
 582 0044 7861     		str	r0, [r7, #20]
 202:main.c        ****         AMux_1_FastSelect((channel * 2) + 1);
 583              		.loc 1 202 0
 584 0046 FB79     		ldrb	r3, [r7, #7]
ARM GAS  C:\Users\JEFFSN~1\AppData\Local\Temp\ccrFXvMu.s 			page 15


 585 0048 5B00     		lsls	r3, r3, #1
 586 004a DBB2     		uxtb	r3, r3
 587 004c 0133     		adds	r3, r3, #1
 588 004e DBB2     		uxtb	r3, r3
 589 0050 1846     		mov	r0, r3
 590 0052 FFF7FEFF 		bl	AMux_1_FastSelect
 203:main.c        ****         CyDelayUs(500); 
 591              		.loc 1 203 0
 592 0056 4FF4FA70 		mov	r0, #500
 593 005a FFF7FEFF 		bl	CyDelayUs
 204:main.c        ****         ADC_1_StartConvert();
 594              		.loc 1 204 0
 595 005e FFF7FEFF 		bl	ADC_1_StartConvert
 205:main.c        ****         ADC_1_IsEndConversion(ADC_1_WAIT_FOR_RESULT);
 596              		.loc 1 205 0
 597 0062 0020     		movs	r0, #0
 598 0064 FFF7FEFF 		bl	ADC_1_IsEndConversion
 206:main.c        ****         iVref = ADC_1_GetResult32();
 599              		.loc 1 206 0
 600 0068 FFF7FEFF 		bl	ADC_1_GetResult32
 601 006c 3861     		str	r0, [r7, #16]
 207:main.c        ****         
 208:main.c        ****         //IDAC8_1_Stop();
 209:main.c        ****         //IDAC8_2_Start();
 210:main.c        ****         AMux_1_Disconnect(channel);
 602              		.loc 1 210 0
 603 006e FB79     		ldrb	r3, [r7, #7]	@ zero_extendqisi2
 604 0070 1846     		mov	r0, r3
 605 0072 FFF7FEFF 		bl	AMux_1_Disconnect
 211:main.c        ****         AMux_2_Disconnect(channel);
 606              		.loc 1 211 0
 607 0076 FB79     		ldrb	r3, [r7, #7]	@ zero_extendqisi2
 608 0078 1846     		mov	r0, r3
 609 007a FFF7FEFF 		bl	AMux_2_Unset
 212:main.c        ****         
 213:main.c        ****         //iRes = Thermistor_GetResistance(iVtherm, iVref); //check if more efficient than my versio
 214:main.c        ****         if ((iVref > 100) && (iVtherm < 100))
 610              		.loc 1 214 0
 611 007e 3B69     		ldr	r3, [r7, #16]
 612 0080 642B     		cmp	r3, #100
 613 0082 06DD     		ble	.L20
 614              		.loc 1 214 0 is_stmt 0 discriminator 1
 615 0084 7B69     		ldr	r3, [r7, #20]
 616 0086 632B     		cmp	r3, #99
 617 0088 03DC     		bgt	.L20
 215:main.c        ****         {
 216:main.c        ****             iRes = 65535;
 618              		.loc 1 216 0 is_stmt 1
 619 008a 4FF6FF73 		movw	r3, #65535
 620 008e FB61     		str	r3, [r7, #28]
 621 0090 28E0     		b	.L21
 622              	.L20:
 217:main.c        ****         }
 218:main.c        ****         else
 219:main.c        ****         {          
 220:main.c        ****             resistorRatio[channel] = ((float)iVref / (float)iVtherm);
 623              		.loc 1 220 0
ARM GAS  C:\Users\JEFFSN~1\AppData\Local\Temp\ccrFXvMu.s 			page 16


 624 0092 FC79     		ldrb	r4, [r7, #7]	@ zero_extendqisi2
 625 0094 3869     		ldr	r0, [r7, #16]
 626 0096 FFF7FEFF 		bl	__aeabi_i2f
 627 009a 0546     		mov	r5, r0
 628 009c 7869     		ldr	r0, [r7, #20]
 629 009e FFF7FEFF 		bl	__aeabi_i2f
 630 00a2 0346     		mov	r3, r0
 631 00a4 1946     		mov	r1, r3
 632 00a6 2846     		mov	r0, r5
 633 00a8 FFF7FEFF 		bl	__aeabi_fdiv
 634 00ac 0346     		mov	r3, r0
 635 00ae 1A46     		mov	r2, r3
 636 00b0 3A4B     		ldr	r3, .L28
 637 00b2 43F82420 		str	r2, [r3, r4, lsl #2]	@ float
 221:main.c        ****             iRes = (int32)(((float)iVref / (float)iVtherm) * 32000.0f);
 638              		.loc 1 221 0
 639 00b6 3869     		ldr	r0, [r7, #16]
 640 00b8 FFF7FEFF 		bl	__aeabi_i2f
 641 00bc 0446     		mov	r4, r0
 642 00be 7869     		ldr	r0, [r7, #20]
 643 00c0 FFF7FEFF 		bl	__aeabi_i2f
 644 00c4 0346     		mov	r3, r0
 645 00c6 1946     		mov	r1, r3
 646 00c8 2046     		mov	r0, r4
 647 00ca FFF7FEFF 		bl	__aeabi_fdiv
 648 00ce 0346     		mov	r3, r0
 649 00d0 3349     		ldr	r1, .L28+4
 650 00d2 1846     		mov	r0, r3
 651 00d4 FFF7FEFF 		bl	__aeabi_fmul
 652 00d8 0346     		mov	r3, r0
 653 00da 1846     		mov	r0, r3
 654 00dc FFF7FEFF 		bl	__aeabi_f2iz
 655 00e0 0346     		mov	r3, r0
 656 00e2 FB61     		str	r3, [r7, #28]
 657              	.L21:
 222:main.c        ****         }
 223:main.c        ****         if (iRes < 0)
 658              		.loc 1 223 0
 659 00e4 FB69     		ldr	r3, [r7, #28]
 660 00e6 002B     		cmp	r3, #0
 661 00e8 01DA     		bge	.L22
 224:main.c        ****         {
 225:main.c        ****             iRes = 0;
 662              		.loc 1 225 0
 663 00ea 0023     		movs	r3, #0
 664 00ec FB61     		str	r3, [r7, #28]
 665              	.L22:
 226:main.c        ****         }
 227:main.c        ****         if (iRes > 65535)
 666              		.loc 1 227 0
 667 00ee FB69     		ldr	r3, [r7, #28]
 668 00f0 B3F5803F 		cmp	r3, #65536
 669 00f4 02DB     		blt	.L23
 228:main.c        ****         {
 229:main.c        ****             iRes = 65535;
 670              		.loc 1 229 0
 671 00f6 4FF6FF73 		movw	r3, #65535
ARM GAS  C:\Users\JEFFSN~1\AppData\Local\Temp\ccrFXvMu.s 			page 17


 672 00fa FB61     		str	r3, [r7, #28]
 673              	.L23:
 230:main.c        ****         }
 231:main.c        **** 
 232:main.c        ****         uint32_t up = 0;
 674              		.loc 1 232 0
 675 00fc 0023     		movs	r3, #0
 676 00fe BB61     		str	r3, [r7, #24]
 233:main.c        ****         if (iRes > (pastValueMain[channel] + 100))
 677              		.loc 1 233 0
 678 0100 FB79     		ldrb	r3, [r7, #7]	@ zero_extendqisi2
 679 0102 284A     		ldr	r2, .L28+8
 680 0104 52F82330 		ldr	r3, [r2, r3, lsl #2]
 681 0108 03F16402 		add	r2, r3, #100
 682 010c FB69     		ldr	r3, [r7, #28]
 683 010e 9A42     		cmp	r2, r3
 684 0110 02DA     		bge	.L24
 234:main.c        ****         {
 235:main.c        ****             up++;
 685              		.loc 1 235 0
 686 0112 BB69     		ldr	r3, [r7, #24]
 687 0114 0133     		adds	r3, r3, #1
 688 0116 BB61     		str	r3, [r7, #24]
 689              	.L24:
 236:main.c        ****         }
 237:main.c        **** 
 238:main.c        ****         AMux_3_FastSelect(channel);  
 690              		.loc 1 238 0
 691 0118 FB79     		ldrb	r3, [r7, #7]	@ zero_extendqisi2
 692 011a 1846     		mov	r0, r3
 693 011c FFF7FEFF 		bl	AMux_3_FastSelect
 239:main.c        ****         CyDelayUs(500); 
 694              		.loc 1 239 0
 695 0120 4FF4FA70 		mov	r0, #500
 696 0124 FFF7FEFF 		bl	CyDelayUs
 240:main.c        ****         ADC_SAR_Seq_1_StartConvert();
 697              		.loc 1 240 0
 698 0128 FFF7FEFF 		bl	ADC_SAR_Seq_1_StartConvert
 241:main.c        ****         ADC_SAR_Seq_1_IsEndConversion(ADC_SAR_Seq_1_WAIT_FOR_RESULT);
 699              		.loc 1 241 0
 700 012c 0020     		movs	r0, #0
 701 012e FFF7FEFF 		bl	ADC_SAR_Seq_1_IsEndConversion
 242:main.c        ****         int32_t result = ADC_SAR_Seq_1_GetResult16(channel);
 702              		.loc 1 242 0
 703 0132 FB79     		ldrb	r3, [r7, #7]	@ zero_extendqisi2
 704 0134 9BB2     		uxth	r3, r3
 705 0136 1846     		mov	r0, r3
 706 0138 FFF7FEFF 		bl	ADC_SAR_Seq_1_GetResult16
 707 013c 0346     		mov	r3, r0
 708 013e BB60     		str	r3, [r7, #8]
 243:main.c        ****         AMux_3_Disconnect(channel); 
 709              		.loc 1 243 0
 710 0140 FB79     		ldrb	r3, [r7, #7]	@ zero_extendqisi2
 711 0142 1846     		mov	r0, r3
 712 0144 FFF7FEFF 		bl	AMux_3_Unset
 244:main.c        ****         if (result > (pastValueOtherSide[channel] + 20))
 713              		.loc 1 244 0
ARM GAS  C:\Users\JEFFSN~1\AppData\Local\Temp\ccrFXvMu.s 			page 18


 714 0148 FB79     		ldrb	r3, [r7, #7]	@ zero_extendqisi2
 715 014a 174A     		ldr	r2, .L28+12
 716 014c 52F82330 		ldr	r3, [r2, r3, lsl #2]
 717 0150 03F11402 		add	r2, r3, #20
 718 0154 BB68     		ldr	r3, [r7, #8]
 719 0156 9A42     		cmp	r2, r3
 720 0158 02DA     		bge	.L25
 245:main.c        ****         {
 246:main.c        ****             up++;
 721              		.loc 1 246 0
 722 015a BB69     		ldr	r3, [r7, #24]
 723 015c 0133     		adds	r3, r3, #1
 724 015e BB61     		str	r3, [r7, #24]
 725              	.L25:
 247:main.c        ****         }
 248:main.c        ****         
 249:main.c        ****         if (up < 2)
 726              		.loc 1 249 0
 727 0160 BB69     		ldr	r3, [r7, #24]
 728 0162 012B     		cmp	r3, #1
 729 0164 08D8     		bhi	.L26
 250:main.c        ****         {
 251:main.c        ****             linearPotValue32Bit[channel] = iRes;
 730              		.loc 1 251 0
 731 0166 FB79     		ldrb	r3, [r7, #7]	@ zero_extendqisi2
 732 0168 1049     		ldr	r1, .L28+16
 733 016a FA69     		ldr	r2, [r7, #28]
 734 016c 41F82320 		str	r2, [r1, r3, lsl #2]
 252:main.c        ****             LED_Write(0);
 735              		.loc 1 252 0
 736 0170 0020     		movs	r0, #0
 737 0172 FFF7FEFF 		bl	LED_Write
 738 0176 02E0     		b	.L27
 739              	.L26:
 253:main.c        ****         }
 254:main.c        ****         else
 255:main.c        ****         {
 256:main.c        ****             LED_Write(1);
 740              		.loc 1 256 0
 741 0178 0120     		movs	r0, #1
 742 017a FFF7FEFF 		bl	LED_Write
 743              	.L27:
 257:main.c        ****         }
 258:main.c        ****         pastValueMain[channel] = iRes;
 744              		.loc 1 258 0
 745 017e FB79     		ldrb	r3, [r7, #7]	@ zero_extendqisi2
 746 0180 0849     		ldr	r1, .L28+8
 747 0182 FA69     		ldr	r2, [r7, #28]
 748 0184 41F82320 		str	r2, [r1, r3, lsl #2]
 259:main.c        ****         pastValueOtherSide[channel] = result;
 749              		.loc 1 259 0
 750 0188 FB79     		ldrb	r3, [r7, #7]	@ zero_extendqisi2
 751 018a 0749     		ldr	r1, .L28+12
 752 018c BA68     		ldr	r2, [r7, #8]
 753 018e 41F82320 		str	r2, [r1, r3, lsl #2]
 260:main.c        **** }
 754              		.loc 1 260 0
ARM GAS  C:\Users\JEFFSN~1\AppData\Local\Temp\ccrFXvMu.s 			page 19


 755 0192 00BF     		nop
 756 0194 2037     		adds	r7, r7, #32
 757              		.cfi_def_cfa_offset 16
 758 0196 BD46     		mov	sp, r7
 759              		.cfi_def_cfa_register 13
 760              		@ sp needed
 761 0198 B0BD     		pop	{r4, r5, r7, pc}
 762              	.L29:
 763 019a 00BF     		.align	2
 764              	.L28:
 765 019c 00000000 		.word	resistorRatio
 766 01a0 0000FA46 		.word	1190789120
 767 01a4 00000000 		.word	pastValueMain
 768 01a8 00000000 		.word	pastValueOtherSide
 769 01ac 00000000 		.word	linearPotValue32Bit
 770              		.cfi_endproc
 771              	.LFE66:
 772              		.size	scanLinearResistor, .-scanLinearResistor
 773              		.text
 774              	.Letext0:
 775              		.file 2 "c:\\program files (x86)\\cypress\\psoc creator\\4.4\\psoc creator\\import\\gnu\\arm\\5.4.
 776              		.file 3 "c:\\program files (x86)\\cypress\\psoc creator\\4.4\\psoc creator\\import\\gnu\\arm\\5.4.
 777              		.file 4 "Generated_Source\\PSoC5/cytypes.h"
 778              		.file 5 "Generated_Source\\PSoC5/CapSense.h"
 779              		.file 6 "Generated_Source\\PSoC5/CapSense_CSHL.h"
 780              		.file 7 "Generated_Source\\PSoC5/core_cm3.h"