ARM GAS  C:\Users\JEFFSN~1\AppData\Local\Temp\cc8qYcnw.s 			page 1


   1              		.syntax unified
   2              		.cpu cortex-m3
   3              		.fpu softvfp
   4              		.eabi_attribute 20, 1
   5              		.eabi_attribute 21, 1
   6              		.eabi_attribute 23, 3
   7              		.eabi_attribute 24, 1
   8              		.eabi_attribute 25, 1
   9              		.eabi_attribute 26, 1
  10              		.eabi_attribute 30, 1
  11              		.eabi_attribute 34, 1
  12              		.eabi_attribute 18, 4
  13              		.thumb
  14              		.syntax unified
  15              		.file	"cyfitter_cfg.c"
  16              		.text
  17              	.Ltext0:
  18              		.cfi_sections	.debug_frame
  19              		.section	.text.CyClockStartupError,"ax",%progbits
  20              		.align	2
  21              		.thumb
  22              		.thumb_func
  23              		.type	CyClockStartupError, %function
  24              	CyClockStartupError:
  25              	.LFB3:
  26              		.file 1 "Generated_Source\\PSoC5\\cyfitter_cfg.c"
   1:Generated_Source\PSoC5/cyfitter_cfg.c **** 
   2:Generated_Source\PSoC5/cyfitter_cfg.c **** /*******************************************************************************
   3:Generated_Source\PSoC5/cyfitter_cfg.c **** * File Name: cyfitter_cfg.c
   4:Generated_Source\PSoC5/cyfitter_cfg.c **** * 
   5:Generated_Source\PSoC5/cyfitter_cfg.c **** * PSoC Creator  4.4
   6:Generated_Source\PSoC5/cyfitter_cfg.c **** *
   7:Generated_Source\PSoC5/cyfitter_cfg.c **** * Description:
   8:Generated_Source\PSoC5/cyfitter_cfg.c **** * This file contains device initialization code.
   9:Generated_Source\PSoC5/cyfitter_cfg.c **** * Except for the user defined sections in CyClockStartupError(), this file should not be modified.
  10:Generated_Source\PSoC5/cyfitter_cfg.c **** * This file is automatically generated by PSoC Creator.
  11:Generated_Source\PSoC5/cyfitter_cfg.c **** *
  12:Generated_Source\PSoC5/cyfitter_cfg.c **** ********************************************************************************
  13:Generated_Source\PSoC5/cyfitter_cfg.c **** * Copyright (c) 2007-2020 Cypress Semiconductor.  All rights reserved.
  14:Generated_Source\PSoC5/cyfitter_cfg.c **** * You may use this file only in accordance with the license, terms, conditions, 
  15:Generated_Source\PSoC5/cyfitter_cfg.c **** * disclaimers, and limitations in the end user license agreement accompanying 
  16:Generated_Source\PSoC5/cyfitter_cfg.c **** * the software package with which this file was provided.
  17:Generated_Source\PSoC5/cyfitter_cfg.c **** ********************************************************************************/
  18:Generated_Source\PSoC5/cyfitter_cfg.c **** 
  19:Generated_Source\PSoC5/cyfitter_cfg.c **** #include <string.h>
  20:Generated_Source\PSoC5/cyfitter_cfg.c **** #include "cytypes.h"
  21:Generated_Source\PSoC5/cyfitter_cfg.c **** #include "cydevice_trm.h"
  22:Generated_Source\PSoC5/cyfitter_cfg.c **** #include "cyfitter.h"
  23:Generated_Source\PSoC5/cyfitter_cfg.c **** #include "CyLib.h"
  24:Generated_Source\PSoC5/cyfitter_cfg.c **** #include "cyfitter_cfg.h"
  25:Generated_Source\PSoC5/cyfitter_cfg.c **** #include "cyapicallbacks.h"
  26:Generated_Source\PSoC5/cyfitter_cfg.c **** 
  27:Generated_Source\PSoC5/cyfitter_cfg.c **** #define CY_NEED_CYCLOCKSTARTUPERROR 1
  28:Generated_Source\PSoC5/cyfitter_cfg.c **** 
  29:Generated_Source\PSoC5/cyfitter_cfg.c **** 
  30:Generated_Source\PSoC5/cyfitter_cfg.c **** #if defined(__GNUC__) || defined(__ARMCC_VERSION)
  31:Generated_Source\PSoC5/cyfitter_cfg.c ****     #define CYPACKED 
ARM GAS  C:\Users\JEFFSN~1\AppData\Local\Temp\cc8qYcnw.s 			page 2


  32:Generated_Source\PSoC5/cyfitter_cfg.c ****     #define CYPACKED_ATTR __attribute__ ((packed))
  33:Generated_Source\PSoC5/cyfitter_cfg.c ****     #define CYALIGNED __attribute__ ((aligned))
  34:Generated_Source\PSoC5/cyfitter_cfg.c ****     #define CY_CFG_UNUSED __attribute__ ((unused))
  35:Generated_Source\PSoC5/cyfitter_cfg.c ****     #ifndef CY_CFG_SECTION
  36:Generated_Source\PSoC5/cyfitter_cfg.c ****         #define CY_CFG_SECTION __attribute__ ((section(".psocinit")))
  37:Generated_Source\PSoC5/cyfitter_cfg.c ****     #endif
  38:Generated_Source\PSoC5/cyfitter_cfg.c ****     
  39:Generated_Source\PSoC5/cyfitter_cfg.c ****     #if defined(__ARMCC_VERSION)
  40:Generated_Source\PSoC5/cyfitter_cfg.c ****         #define CY_CFG_MEMORY_BARRIER() __memory_changed()
  41:Generated_Source\PSoC5/cyfitter_cfg.c ****     #else
  42:Generated_Source\PSoC5/cyfitter_cfg.c ****         #define CY_CFG_MEMORY_BARRIER() __sync_synchronize()
  43:Generated_Source\PSoC5/cyfitter_cfg.c ****     #endif
  44:Generated_Source\PSoC5/cyfitter_cfg.c ****     
  45:Generated_Source\PSoC5/cyfitter_cfg.c **** #elif defined(__ICCARM__)
  46:Generated_Source\PSoC5/cyfitter_cfg.c ****     #include <intrinsics.h>
  47:Generated_Source\PSoC5/cyfitter_cfg.c **** 
  48:Generated_Source\PSoC5/cyfitter_cfg.c ****     #define CYPACKED __packed
  49:Generated_Source\PSoC5/cyfitter_cfg.c ****     #define CYPACKED_ATTR 
  50:Generated_Source\PSoC5/cyfitter_cfg.c ****     #define CYALIGNED _Pragma("data_alignment=4")
  51:Generated_Source\PSoC5/cyfitter_cfg.c ****     #define CY_CFG_UNUSED _Pragma("diag_suppress=Pe177")
  52:Generated_Source\PSoC5/cyfitter_cfg.c ****     #define CY_CFG_SECTION _Pragma("location=\".psocinit\"")
  53:Generated_Source\PSoC5/cyfitter_cfg.c ****     
  54:Generated_Source\PSoC5/cyfitter_cfg.c ****     #define CY_CFG_MEMORY_BARRIER() __DMB()
  55:Generated_Source\PSoC5/cyfitter_cfg.c ****     
  56:Generated_Source\PSoC5/cyfitter_cfg.c **** #else
  57:Generated_Source\PSoC5/cyfitter_cfg.c ****     #error Unsupported toolchain
  58:Generated_Source\PSoC5/cyfitter_cfg.c **** #endif
  59:Generated_Source\PSoC5/cyfitter_cfg.c **** 
  60:Generated_Source\PSoC5/cyfitter_cfg.c **** #ifndef CYCODE
  61:Generated_Source\PSoC5/cyfitter_cfg.c ****     #define CYCODE
  62:Generated_Source\PSoC5/cyfitter_cfg.c **** #endif
  63:Generated_Source\PSoC5/cyfitter_cfg.c **** #ifndef CYDATA
  64:Generated_Source\PSoC5/cyfitter_cfg.c ****     #define CYDATA
  65:Generated_Source\PSoC5/cyfitter_cfg.c **** #endif
  66:Generated_Source\PSoC5/cyfitter_cfg.c **** #ifndef CYFAR
  67:Generated_Source\PSoC5/cyfitter_cfg.c ****     #define CYFAR
  68:Generated_Source\PSoC5/cyfitter_cfg.c **** #endif
  69:Generated_Source\PSoC5/cyfitter_cfg.c **** #ifndef CYXDATA
  70:Generated_Source\PSoC5/cyfitter_cfg.c ****     #define CYXDATA
  71:Generated_Source\PSoC5/cyfitter_cfg.c **** #endif
  72:Generated_Source\PSoC5/cyfitter_cfg.c **** 
  73:Generated_Source\PSoC5/cyfitter_cfg.c **** 
  74:Generated_Source\PSoC5/cyfitter_cfg.c **** CY_CFG_UNUSED
  75:Generated_Source\PSoC5/cyfitter_cfg.c **** static void CYMEMZERO(void *s, size_t n);
  76:Generated_Source\PSoC5/cyfitter_cfg.c **** CY_CFG_UNUSED
  77:Generated_Source\PSoC5/cyfitter_cfg.c **** static void CYMEMZERO(void *s, size_t n)
  78:Generated_Source\PSoC5/cyfitter_cfg.c **** {
  79:Generated_Source\PSoC5/cyfitter_cfg.c **** 	(void)memset(s, 0, n);
  80:Generated_Source\PSoC5/cyfitter_cfg.c **** }
  81:Generated_Source\PSoC5/cyfitter_cfg.c **** CY_CFG_UNUSED
  82:Generated_Source\PSoC5/cyfitter_cfg.c **** static void CYCONFIGCPY(void *dest, const void *src, size_t n);
  83:Generated_Source\PSoC5/cyfitter_cfg.c **** CY_CFG_UNUSED
  84:Generated_Source\PSoC5/cyfitter_cfg.c **** static void CYCONFIGCPY(void *dest, const void *src, size_t n)
  85:Generated_Source\PSoC5/cyfitter_cfg.c **** {
  86:Generated_Source\PSoC5/cyfitter_cfg.c **** 	(void)memcpy(dest, src, n);
  87:Generated_Source\PSoC5/cyfitter_cfg.c **** }
  88:Generated_Source\PSoC5/cyfitter_cfg.c **** CY_CFG_UNUSED
ARM GAS  C:\Users\JEFFSN~1\AppData\Local\Temp\cc8qYcnw.s 			page 3


  89:Generated_Source\PSoC5/cyfitter_cfg.c **** static void CYCONFIGCPYCODE(void *dest, const void *src, size_t n);
  90:Generated_Source\PSoC5/cyfitter_cfg.c **** CY_CFG_UNUSED
  91:Generated_Source\PSoC5/cyfitter_cfg.c **** static void CYCONFIGCPYCODE(void *dest, const void *src, size_t n)
  92:Generated_Source\PSoC5/cyfitter_cfg.c **** {
  93:Generated_Source\PSoC5/cyfitter_cfg.c **** 	(void)memcpy(dest, src, n);
  94:Generated_Source\PSoC5/cyfitter_cfg.c **** }
  95:Generated_Source\PSoC5/cyfitter_cfg.c **** 
  96:Generated_Source\PSoC5/cyfitter_cfg.c **** 
  97:Generated_Source\PSoC5/cyfitter_cfg.c **** 
  98:Generated_Source\PSoC5/cyfitter_cfg.c **** 
  99:Generated_Source\PSoC5/cyfitter_cfg.c **** /* Clock startup error codes                                                   */
 100:Generated_Source\PSoC5/cyfitter_cfg.c **** #define CYCLOCKSTART_NO_ERROR    0u
 101:Generated_Source\PSoC5/cyfitter_cfg.c **** #define CYCLOCKSTART_XTAL_ERROR  1u
 102:Generated_Source\PSoC5/cyfitter_cfg.c **** #define CYCLOCKSTART_32KHZ_ERROR 2u
 103:Generated_Source\PSoC5/cyfitter_cfg.c **** #define CYCLOCKSTART_PLL_ERROR   3u
 104:Generated_Source\PSoC5/cyfitter_cfg.c **** #define CYCLOCKSTART_FLL_ERROR   4u
 105:Generated_Source\PSoC5/cyfitter_cfg.c **** #define CYCLOCKSTART_WCO_ERROR   5u
 106:Generated_Source\PSoC5/cyfitter_cfg.c **** 
 107:Generated_Source\PSoC5/cyfitter_cfg.c **** 
 108:Generated_Source\PSoC5/cyfitter_cfg.c **** #ifdef CY_NEED_CYCLOCKSTARTUPERROR
 109:Generated_Source\PSoC5/cyfitter_cfg.c **** /*******************************************************************************
 110:Generated_Source\PSoC5/cyfitter_cfg.c **** * Function Name: CyClockStartupError
 111:Generated_Source\PSoC5/cyfitter_cfg.c **** ********************************************************************************
 112:Generated_Source\PSoC5/cyfitter_cfg.c **** * Summary:
 113:Generated_Source\PSoC5/cyfitter_cfg.c **** *  If an error is encountered during clock configuration (crystal startup error,
 114:Generated_Source\PSoC5/cyfitter_cfg.c **** *  PLL lock error, etc.), the system will end up here.  Unless reimplemented by
 115:Generated_Source\PSoC5/cyfitter_cfg.c **** *  the customer, this function will stop in an infinite loop.
 116:Generated_Source\PSoC5/cyfitter_cfg.c **** *
 117:Generated_Source\PSoC5/cyfitter_cfg.c **** * Parameters:
 118:Generated_Source\PSoC5/cyfitter_cfg.c **** *   void
 119:Generated_Source\PSoC5/cyfitter_cfg.c **** *
 120:Generated_Source\PSoC5/cyfitter_cfg.c **** * Return:
 121:Generated_Source\PSoC5/cyfitter_cfg.c **** *   void
 122:Generated_Source\PSoC5/cyfitter_cfg.c **** *
 123:Generated_Source\PSoC5/cyfitter_cfg.c **** *******************************************************************************/
 124:Generated_Source\PSoC5/cyfitter_cfg.c **** CY_CFG_UNUSED
 125:Generated_Source\PSoC5/cyfitter_cfg.c **** static void CyClockStartupError(uint8 errorCode);
 126:Generated_Source\PSoC5/cyfitter_cfg.c **** CY_CFG_UNUSED
 127:Generated_Source\PSoC5/cyfitter_cfg.c **** static void CyClockStartupError(uint8 errorCode)
 128:Generated_Source\PSoC5/cyfitter_cfg.c **** {
  27              		.loc 1 128 0
  28              		.cfi_startproc
  29              		@ Volatile: function does not return.
  30              		@ args = 0, pretend = 0, frame = 0
  31              		@ frame_needed = 0, uses_anonymous_args = 0
  32              		@ link register save eliminated.
  33              	.LVL0:
  34              	.L2:
  35 0000 FEE7     		b	.L2
  36              		.cfi_endproc
  37              	.LFE3:
  38              		.size	CyClockStartupError, .-CyClockStartupError
  39 0002 00BF     		.section	.text.cfg_write_bytes32,"ax",%progbits
  40              		.align	2
  41              		.thumb
  42              		.thumb_func
  43              		.type	cfg_write_bytes32, %function
ARM GAS  C:\Users\JEFFSN~1\AppData\Local\Temp\cc8qYcnw.s 			page 4


  44              	cfg_write_bytes32:
  45              	.LFB4:
 129:Generated_Source\PSoC5/cyfitter_cfg.c ****     /* To remove the compiler warning if errorCode not used.                */
 130:Generated_Source\PSoC5/cyfitter_cfg.c ****     errorCode = errorCode;
 131:Generated_Source\PSoC5/cyfitter_cfg.c **** 
 132:Generated_Source\PSoC5/cyfitter_cfg.c ****     /* If we have a clock startup error (bad MHz crystal, PLL lock, etc.),  */
 133:Generated_Source\PSoC5/cyfitter_cfg.c ****     /* we will end up here to allow the customer to implement something to  */
 134:Generated_Source\PSoC5/cyfitter_cfg.c ****     /* deal with the clock condition.                                       */
 135:Generated_Source\PSoC5/cyfitter_cfg.c **** 
 136:Generated_Source\PSoC5/cyfitter_cfg.c **** #ifdef CY_CFG_CLOCK_STARTUP_ERROR_CALLBACK
 137:Generated_Source\PSoC5/cyfitter_cfg.c ****     CY_CFG_Clock_Startup_ErrorCallback();
 138:Generated_Source\PSoC5/cyfitter_cfg.c **** #else
 139:Generated_Source\PSoC5/cyfitter_cfg.c ****     /*  If not using CY_CFG_CLOCK_STARTUP_ERROR_CALLBACK, place your clock startup code here. */
 140:Generated_Source\PSoC5/cyfitter_cfg.c ****     /* `#START CyClockStartupError` */
 141:Generated_Source\PSoC5/cyfitter_cfg.c **** 
 142:Generated_Source\PSoC5/cyfitter_cfg.c **** 
 143:Generated_Source\PSoC5/cyfitter_cfg.c **** 
 144:Generated_Source\PSoC5/cyfitter_cfg.c ****     /* `#END` */
 145:Generated_Source\PSoC5/cyfitter_cfg.c **** 
 146:Generated_Source\PSoC5/cyfitter_cfg.c ****     while(1) {}
 147:Generated_Source\PSoC5/cyfitter_cfg.c **** #endif /* CY_CFG_CLOCK_STARTUP_ERROR_CALLBACK */
 148:Generated_Source\PSoC5/cyfitter_cfg.c **** }
 149:Generated_Source\PSoC5/cyfitter_cfg.c **** #endif
 150:Generated_Source\PSoC5/cyfitter_cfg.c **** 
 151:Generated_Source\PSoC5/cyfitter_cfg.c **** #define CY_CFG_BASE_ADDR_COUNT 14u
 152:Generated_Source\PSoC5/cyfitter_cfg.c **** CYPACKED typedef struct
 153:Generated_Source\PSoC5/cyfitter_cfg.c **** {
 154:Generated_Source\PSoC5/cyfitter_cfg.c **** 	uint8 offset;
 155:Generated_Source\PSoC5/cyfitter_cfg.c **** 	uint8 value;
 156:Generated_Source\PSoC5/cyfitter_cfg.c **** } CYPACKED_ATTR cy_cfg_addrvalue_t;
 157:Generated_Source\PSoC5/cyfitter_cfg.c **** 
 158:Generated_Source\PSoC5/cyfitter_cfg.c **** 
 159:Generated_Source\PSoC5/cyfitter_cfg.c **** 
 160:Generated_Source\PSoC5/cyfitter_cfg.c **** /*******************************************************************************
 161:Generated_Source\PSoC5/cyfitter_cfg.c **** * Function Name: cfg_write_bytes32
 162:Generated_Source\PSoC5/cyfitter_cfg.c **** ********************************************************************************
 163:Generated_Source\PSoC5/cyfitter_cfg.c **** * Summary:
 164:Generated_Source\PSoC5/cyfitter_cfg.c **** *  This function is used for setting up the chip configuration areas that
 165:Generated_Source\PSoC5/cyfitter_cfg.c **** *  contain relatively sparse data.
 166:Generated_Source\PSoC5/cyfitter_cfg.c **** *
 167:Generated_Source\PSoC5/cyfitter_cfg.c **** * Parameters:
 168:Generated_Source\PSoC5/cyfitter_cfg.c **** *   void
 169:Generated_Source\PSoC5/cyfitter_cfg.c **** *
 170:Generated_Source\PSoC5/cyfitter_cfg.c **** * Return:
 171:Generated_Source\PSoC5/cyfitter_cfg.c **** *   void
 172:Generated_Source\PSoC5/cyfitter_cfg.c **** *
 173:Generated_Source\PSoC5/cyfitter_cfg.c **** *******************************************************************************/
 174:Generated_Source\PSoC5/cyfitter_cfg.c **** static void cfg_write_bytes32(const uint32 addr_table[], const cy_cfg_addrvalue_t data_table[]);
 175:Generated_Source\PSoC5/cyfitter_cfg.c **** static void cfg_write_bytes32(const uint32 addr_table[], const cy_cfg_addrvalue_t data_table[])
 176:Generated_Source\PSoC5/cyfitter_cfg.c **** {
  46              		.loc 1 176 0
  47              		.cfi_startproc
  48              		@ args = 0, pretend = 0, frame = 0
  49              		@ frame_needed = 0, uses_anonymous_args = 0
  50              		@ link register save eliminated.
  51              	.LVL1:
  52              		.loc 1 176 0
ARM GAS  C:\Users\JEFFSN~1\AppData\Local\Temp\cc8qYcnw.s 			page 5


  53 0000 F0B4     		push	{r4, r5, r6, r7}
  54              		.cfi_def_cfa_offset 16
  55              		.cfi_offset 4, -16
  56              		.cfi_offset 5, -12
  57              		.cfi_offset 6, -8
  58              		.cfi_offset 7, -4
  59              	.LVL2:
 177:Generated_Source\PSoC5/cyfitter_cfg.c **** 	/* For 32-bit little-endian architectures */
 178:Generated_Source\PSoC5/cyfitter_cfg.c **** 	uint32 i, j = 0u;
  60              		.loc 1 178 0
  61 0002 0022     		movs	r2, #0
 179:Generated_Source\PSoC5/cyfitter_cfg.c **** 	for (i = 0u; i < CY_CFG_BASE_ADDR_COUNT; i++)
  62              		.loc 1 179 0
  63 0004 1746     		mov	r7, r2
  64 0006 11E0     		b	.L4
  65              	.LVL3:
  66              	.L7:
  67              	.LBB2:
 180:Generated_Source\PSoC5/cyfitter_cfg.c **** 	{
 181:Generated_Source\PSoC5/cyfitter_cfg.c **** 		uint32 baseAddr = addr_table[i];
  68              		.loc 1 181 0
  69 0008 50F82760 		ldr	r6, [r0, r7, lsl #2]
  70              	.LVL4:
 182:Generated_Source\PSoC5/cyfitter_cfg.c **** 		uint8 count = (uint8)baseAddr;
  71              		.loc 1 182 0
  72 000c F3B2     		uxtb	r3, r6
  73              	.LVL5:
 183:Generated_Source\PSoC5/cyfitter_cfg.c **** 		baseAddr &= 0xFFFFFF00u;
  74              		.loc 1 183 0
  75 000e 26F0FF06 		bic	r6, r6, #255
  76              	.LVL6:
 184:Generated_Source\PSoC5/cyfitter_cfg.c **** 		while (count != 0u)
  77              		.loc 1 184 0
  78 0012 08E0     		b	.L5
  79              	.L6:
 185:Generated_Source\PSoC5/cyfitter_cfg.c **** 		{
 186:Generated_Source\PSoC5/cyfitter_cfg.c **** 			CY_SET_REG8((void *)(baseAddr + data_table[j].offset), data_table[j].value);
  80              		.loc 1 186 0
  81 0014 01EB4205 		add	r5, r1, r2, lsl #1
  82 0018 11F81240 		ldrb	r4, [r1, r2, lsl #1]	@ zero_extendqisi2
  83 001c 6D78     		ldrb	r5, [r5, #1]	@ zero_extendqisi2
  84 001e A555     		strb	r5, [r4, r6]
 187:Generated_Source\PSoC5/cyfitter_cfg.c **** 			j++;
  85              		.loc 1 187 0
  86 0020 0132     		adds	r2, r2, #1
  87              	.LVL7:
 188:Generated_Source\PSoC5/cyfitter_cfg.c **** 			count--;
  88              		.loc 1 188 0
  89 0022 013B     		subs	r3, r3, #1
  90              	.LVL8:
  91 0024 DBB2     		uxtb	r3, r3
  92              	.LVL9:
  93              	.L5:
 184:Generated_Source\PSoC5/cyfitter_cfg.c **** 		{
  94              		.loc 1 184 0
  95 0026 002B     		cmp	r3, #0
  96 0028 F4D1     		bne	.L6
ARM GAS  C:\Users\JEFFSN~1\AppData\Local\Temp\cc8qYcnw.s 			page 6


  97              	.LBE2:
 179:Generated_Source\PSoC5/cyfitter_cfg.c **** 	{
  98              		.loc 1 179 0 discriminator 2
  99 002a 0137     		adds	r7, r7, #1
 100              	.LVL10:
 101              	.L4:
 179:Generated_Source\PSoC5/cyfitter_cfg.c **** 	{
 102              		.loc 1 179 0 is_stmt 0 discriminator 1
 103 002c 0D2F     		cmp	r7, #13
 104 002e EBD9     		bls	.L7
 189:Generated_Source\PSoC5/cyfitter_cfg.c **** 		}
 190:Generated_Source\PSoC5/cyfitter_cfg.c **** 	}
 191:Generated_Source\PSoC5/cyfitter_cfg.c **** }
 105              		.loc 1 191 0 is_stmt 1
 106 0030 F0BC     		pop	{r4, r5, r6, r7}
 107              		.cfi_restore 7
 108              		.cfi_restore 6
 109              		.cfi_restore 5
 110              		.cfi_restore 4
 111              		.cfi_def_cfa_offset 0
 112              	.LVL11:
 113 0032 7047     		bx	lr
 114              		.cfi_endproc
 115              	.LFE4:
 116              		.size	cfg_write_bytes32, .-cfg_write_bytes32
 117              		.section	.text.AnalogSetDefault,"ax",%progbits
 118              		.align	2
 119              		.thumb
 120              		.thumb_func
 121              		.type	AnalogSetDefault, %function
 122              	AnalogSetDefault:
 123              	.LFB6:
 192:Generated_Source\PSoC5/cyfitter_cfg.c **** 
 193:Generated_Source\PSoC5/cyfitter_cfg.c **** /*******************************************************************************
 194:Generated_Source\PSoC5/cyfitter_cfg.c **** * Function Name: ClockSetup
 195:Generated_Source\PSoC5/cyfitter_cfg.c **** ********************************************************************************
 196:Generated_Source\PSoC5/cyfitter_cfg.c **** *
 197:Generated_Source\PSoC5/cyfitter_cfg.c **** * Summary:
 198:Generated_Source\PSoC5/cyfitter_cfg.c **** *  Performs the initialization of all of the clocks in the device based on the
 199:Generated_Source\PSoC5/cyfitter_cfg.c **** *  settings in the Clock tab of the DWR.  This includes enabling the requested
 200:Generated_Source\PSoC5/cyfitter_cfg.c **** *  clocks and setting the necessary dividers to produce the desired frequency. 
 201:Generated_Source\PSoC5/cyfitter_cfg.c **** *
 202:Generated_Source\PSoC5/cyfitter_cfg.c **** * Parameters:
 203:Generated_Source\PSoC5/cyfitter_cfg.c **** *  void
 204:Generated_Source\PSoC5/cyfitter_cfg.c **** *
 205:Generated_Source\PSoC5/cyfitter_cfg.c **** * Return:
 206:Generated_Source\PSoC5/cyfitter_cfg.c **** *  void
 207:Generated_Source\PSoC5/cyfitter_cfg.c **** *
 208:Generated_Source\PSoC5/cyfitter_cfg.c **** *******************************************************************************/
 209:Generated_Source\PSoC5/cyfitter_cfg.c **** static void ClockSetup(void);
 210:Generated_Source\PSoC5/cyfitter_cfg.c **** static void ClockSetup(void)
 211:Generated_Source\PSoC5/cyfitter_cfg.c **** {
 212:Generated_Source\PSoC5/cyfitter_cfg.c **** 	uint32 timeout;
 213:Generated_Source\PSoC5/cyfitter_cfg.c **** 	uint8 pllLock;
 214:Generated_Source\PSoC5/cyfitter_cfg.c **** 
 215:Generated_Source\PSoC5/cyfitter_cfg.c **** 
 216:Generated_Source\PSoC5/cyfitter_cfg.c **** 	/* Configure Digital Clocks based on settings from Clock DWR */
ARM GAS  C:\Users\JEFFSN~1\AppData\Local\Temp\cc8qYcnw.s 			page 7


 217:Generated_Source\PSoC5/cyfitter_cfg.c **** 	CY_SET_XTND_REG16((void CYFAR *)(CYREG_CLKDIST_DCFG0_CFG0), 0x000Bu);
 218:Generated_Source\PSoC5/cyfitter_cfg.c **** 	CY_SET_XTND_REG8((void CYFAR *)(CYREG_CLKDIST_DCFG0_CFG0 + 0x2u), 0x18u);
 219:Generated_Source\PSoC5/cyfitter_cfg.c **** 
 220:Generated_Source\PSoC5/cyfitter_cfg.c **** 	/* Configure ILO based on settings from Clock DWR */
 221:Generated_Source\PSoC5/cyfitter_cfg.c **** 	CY_SET_XTND_REG8((void CYFAR *)(CYREG_SLOWCLK_ILO_CR0), 0x02u);
 222:Generated_Source\PSoC5/cyfitter_cfg.c **** 	CY_SET_XTND_REG8((void CYFAR *)(CYREG_CLKDIST_CR), 0x08u);
 223:Generated_Source\PSoC5/cyfitter_cfg.c **** 
 224:Generated_Source\PSoC5/cyfitter_cfg.c **** 	/* Configure IMO based on settings from Clock DWR */
 225:Generated_Source\PSoC5/cyfitter_cfg.c **** 	CY_SET_XTND_REG8((void CYFAR *)(CYREG_FASTCLK_IMO_CR), 0x03u);
 226:Generated_Source\PSoC5/cyfitter_cfg.c **** 	CY_SET_XTND_REG8((void CYFAR *)(CYREG_IMO_TR1), (CY_GET_XTND_REG8((void CYFAR *)CYREG_FLSHID_CUST_
 227:Generated_Source\PSoC5/cyfitter_cfg.c **** 
 228:Generated_Source\PSoC5/cyfitter_cfg.c **** 	/* Configure PLL based on settings from Clock DWR */
 229:Generated_Source\PSoC5/cyfitter_cfg.c **** 	CY_SET_XTND_REG16((void CYFAR *)(CYREG_FASTCLK_PLL_P), 0x0008u);
 230:Generated_Source\PSoC5/cyfitter_cfg.c **** 	CY_SET_XTND_REG16((void CYFAR *)(CYREG_FASTCLK_PLL_CFG0), 0x1251u);
 231:Generated_Source\PSoC5/cyfitter_cfg.c **** 	/* Wait up to 250us for the PLL to lock */
 232:Generated_Source\PSoC5/cyfitter_cfg.c **** 	pllLock = 0u;
 233:Generated_Source\PSoC5/cyfitter_cfg.c **** 	for (timeout = 250u / 10u; (timeout > 0u) && (pllLock != 0x03u); timeout--)
 234:Generated_Source\PSoC5/cyfitter_cfg.c **** 	{ 
 235:Generated_Source\PSoC5/cyfitter_cfg.c **** 		pllLock = 0x03u & ((uint8)((uint8)pllLock << 1) | ((CY_GET_XTND_REG8((void CYFAR *)CYREG_FASTCLK_
 236:Generated_Source\PSoC5/cyfitter_cfg.c **** 		CyDelayCycles(10u * 48u); /* Delay 10us based on 48MHz clock */
 237:Generated_Source\PSoC5/cyfitter_cfg.c **** 	}
 238:Generated_Source\PSoC5/cyfitter_cfg.c **** 	/* If we ran out of time the PLL didn't lock so go to the error function */
 239:Generated_Source\PSoC5/cyfitter_cfg.c **** 	if (timeout == 0u)
 240:Generated_Source\PSoC5/cyfitter_cfg.c **** 	{
 241:Generated_Source\PSoC5/cyfitter_cfg.c **** 		CyClockStartupError(CYCLOCKSTART_PLL_ERROR);
 242:Generated_Source\PSoC5/cyfitter_cfg.c **** 	}
 243:Generated_Source\PSoC5/cyfitter_cfg.c **** 
 244:Generated_Source\PSoC5/cyfitter_cfg.c **** 	/* Configure Bus/Master Clock based on settings from Clock DWR */
 245:Generated_Source\PSoC5/cyfitter_cfg.c **** 	CY_SET_XTND_REG16((void CYFAR *)(CYREG_CLKDIST_MSTR0), 0x0100u);
 246:Generated_Source\PSoC5/cyfitter_cfg.c **** 	CY_SET_XTND_REG8((void CYFAR *)(CYREG_CLKDIST_MSTR0), 0x07u);
 247:Generated_Source\PSoC5/cyfitter_cfg.c **** 	CY_SET_XTND_REG8((void CYFAR *)(CYREG_CLKDIST_BCFG0), 0x00u);
 248:Generated_Source\PSoC5/cyfitter_cfg.c **** 	CY_SET_XTND_REG8((void CYFAR *)(CYREG_CLKDIST_BCFG2), 0x48u);
 249:Generated_Source\PSoC5/cyfitter_cfg.c **** 	CY_SET_XTND_REG8((void CYFAR *)(CYREG_CLKDIST_MSTR0), 0x00u);
 250:Generated_Source\PSoC5/cyfitter_cfg.c **** 	CY_SET_XTND_REG8((void CYFAR *)(CYREG_CLKDIST_LD), 0x02u);
 251:Generated_Source\PSoC5/cyfitter_cfg.c **** 
 252:Generated_Source\PSoC5/cyfitter_cfg.c **** 	CY_SET_XTND_REG8((void CYFAR *)(CYREG_PM_ACT_CFG2), ((CY_GET_XTND_REG8((void CYFAR *)CYREG_PM_ACT_
 253:Generated_Source\PSoC5/cyfitter_cfg.c **** }
 254:Generated_Source\PSoC5/cyfitter_cfg.c **** 
 255:Generated_Source\PSoC5/cyfitter_cfg.c **** 
 256:Generated_Source\PSoC5/cyfitter_cfg.c **** /* Analog API Functions */
 257:Generated_Source\PSoC5/cyfitter_cfg.c **** 
 258:Generated_Source\PSoC5/cyfitter_cfg.c **** 
 259:Generated_Source\PSoC5/cyfitter_cfg.c **** /*******************************************************************************
 260:Generated_Source\PSoC5/cyfitter_cfg.c **** * Function Name: AnalogSetDefault
 261:Generated_Source\PSoC5/cyfitter_cfg.c **** ********************************************************************************
 262:Generated_Source\PSoC5/cyfitter_cfg.c **** *
 263:Generated_Source\PSoC5/cyfitter_cfg.c **** * Summary:
 264:Generated_Source\PSoC5/cyfitter_cfg.c **** *  Sets up the analog portions of the chip to default values based on chip
 265:Generated_Source\PSoC5/cyfitter_cfg.c **** *  configuration options from the project.
 266:Generated_Source\PSoC5/cyfitter_cfg.c **** *
 267:Generated_Source\PSoC5/cyfitter_cfg.c **** * Parameters:
 268:Generated_Source\PSoC5/cyfitter_cfg.c **** *  void
 269:Generated_Source\PSoC5/cyfitter_cfg.c **** *
 270:Generated_Source\PSoC5/cyfitter_cfg.c **** * Return:
 271:Generated_Source\PSoC5/cyfitter_cfg.c **** *  void
 272:Generated_Source\PSoC5/cyfitter_cfg.c **** *
 273:Generated_Source\PSoC5/cyfitter_cfg.c **** *******************************************************************************/
ARM GAS  C:\Users\JEFFSN~1\AppData\Local\Temp\cc8qYcnw.s 			page 8


 274:Generated_Source\PSoC5/cyfitter_cfg.c **** static void AnalogSetDefault(void);
 275:Generated_Source\PSoC5/cyfitter_cfg.c **** static void AnalogSetDefault(void)
 276:Generated_Source\PSoC5/cyfitter_cfg.c **** {
 124              		.loc 1 276 0
 125              		.cfi_startproc
 126              		@ args = 0, pretend = 0, frame = 0
 127              		@ frame_needed = 0, uses_anonymous_args = 0
 128              		@ link register save eliminated.
 277:Generated_Source\PSoC5/cyfitter_cfg.c **** 	uint8 bg_xover_inl_trim = CY_GET_XTND_REG8((void CYFAR *)(CYREG_FLSHID_MFG_CFG_BG_XOVER_INL_TRIM +
 129              		.loc 1 277 0
 130 0000 064B     		ldr	r3, .L10
 131 0002 1B78     		ldrb	r3, [r3]	@ zero_extendqisi2
 132 0004 DBB2     		uxtb	r3, r3
 133              	.LVL12:
 278:Generated_Source\PSoC5/cyfitter_cfg.c **** 	CY_SET_XTND_REG8((void CYFAR *)(CYREG_BG_DFT0), (bg_xover_inl_trim & 0x07u));
 134              		.loc 1 278 0
 135 0006 03F00701 		and	r1, r3, #7
 136 000a 054A     		ldr	r2, .L10+4
 137 000c 1170     		strb	r1, [r2]
 279:Generated_Source\PSoC5/cyfitter_cfg.c **** 	CY_SET_XTND_REG8((void CYFAR *)(CYREG_BG_DFT1), ((bg_xover_inl_trim >> 4) & 0x0Fu));
 138              		.loc 1 279 0
 139 000e 1B09     		lsrs	r3, r3, #4
 140              	.LVL13:
 141 0010 0132     		adds	r2, r2, #1
 142 0012 1370     		strb	r3, [r2]
 280:Generated_Source\PSoC5/cyfitter_cfg.c **** 	CY_SET_XTND_REG8((void CYFAR *)CYREG_PUMP_CR0, 0x44u);
 143              		.loc 1 280 0
 144 0014 4422     		movs	r2, #68
 145 0016 034B     		ldr	r3, .L10+8
 146 0018 1A70     		strb	r2, [r3]
 147 001a 7047     		bx	lr
 148              	.L11:
 149              		.align	2
 150              	.L10:
 151 001c CF010049 		.word	1224737231
 152 0020 6E580040 		.word	1073764462
 153 0024 76580040 		.word	1073764470
 154              		.cfi_endproc
 155              	.LFE6:
 156              		.size	AnalogSetDefault, .-AnalogSetDefault
 157              		.section	.text.CYMEMZERO,"ax",%progbits
 158              		.align	2
 159              		.thumb
 160              		.thumb_func
 161              		.type	CYMEMZERO, %function
 162              	CYMEMZERO:
 163              	.LFB0:
  78:Generated_Source\PSoC5/cyfitter_cfg.c **** 	(void)memset(s, 0, n);
 164              		.loc 1 78 0
 165              		.cfi_startproc
 166              		@ args = 0, pretend = 0, frame = 0
 167              		@ frame_needed = 0, uses_anonymous_args = 0
 168              	.LVL14:
 169 0000 08B5     		push	{r3, lr}
 170              		.cfi_def_cfa_offset 8
 171              		.cfi_offset 3, -8
 172              		.cfi_offset 14, -4
ARM GAS  C:\Users\JEFFSN~1\AppData\Local\Temp\cc8qYcnw.s 			page 9


  79:Generated_Source\PSoC5/cyfitter_cfg.c **** }
 173              		.loc 1 79 0
 174 0002 0A46     		mov	r2, r1
 175 0004 0021     		movs	r1, #0
 176              	.LVL15:
 177 0006 FFF7FEFF 		bl	memset
 178              	.LVL16:
 179 000a 08BD     		pop	{r3, pc}
 180              		.cfi_endproc
 181              	.LFE0:
 182              		.size	CYMEMZERO, .-CYMEMZERO
 183              		.section	.text.CYCONFIGCPYCODE,"ax",%progbits
 184              		.align	2
 185              		.thumb
 186              		.thumb_func
 187              		.type	CYCONFIGCPYCODE, %function
 188              	CYCONFIGCPYCODE:
 189              	.LFB2:
  92:Generated_Source\PSoC5/cyfitter_cfg.c **** 	(void)memcpy(dest, src, n);
 190              		.loc 1 92 0
 191              		.cfi_startproc
 192              		@ args = 0, pretend = 0, frame = 0
 193              		@ frame_needed = 0, uses_anonymous_args = 0
 194              	.LVL17:
 195 0000 08B5     		push	{r3, lr}
 196              		.cfi_def_cfa_offset 8
 197              		.cfi_offset 3, -8
 198              		.cfi_offset 14, -4
  93:Generated_Source\PSoC5/cyfitter_cfg.c **** }
 199              		.loc 1 93 0
 200 0002 FFF7FEFF 		bl	memcpy
 201              	.LVL18:
 202 0006 08BD     		pop	{r3, pc}
 203              		.cfi_endproc
 204              	.LFE2:
 205              		.size	CYCONFIGCPYCODE, .-CYCONFIGCPYCODE
 206              		.section	.text.CYCONFIGCPY,"ax",%progbits
 207              		.align	2
 208              		.thumb
 209              		.thumb_func
 210              		.type	CYCONFIGCPY, %function
 211              	CYCONFIGCPY:
 212              	.LFB1:
  85:Generated_Source\PSoC5/cyfitter_cfg.c **** 	(void)memcpy(dest, src, n);
 213              		.loc 1 85 0
 214              		.cfi_startproc
 215              		@ args = 0, pretend = 0, frame = 0
 216              		@ frame_needed = 0, uses_anonymous_args = 0
 217              	.LVL19:
 218 0000 08B5     		push	{r3, lr}
 219              		.cfi_def_cfa_offset 8
 220              		.cfi_offset 3, -8
 221              		.cfi_offset 14, -4
  86:Generated_Source\PSoC5/cyfitter_cfg.c **** }
 222              		.loc 1 86 0
 223 0002 FFF7FEFF 		bl	memcpy
 224              	.LVL20:
ARM GAS  C:\Users\JEFFSN~1\AppData\Local\Temp\cc8qYcnw.s 			page 10


 225 0006 08BD     		pop	{r3, pc}
 226              		.cfi_endproc
 227              	.LFE1:
 228              		.size	CYCONFIGCPY, .-CYCONFIGCPY
 229              		.section	.text.ClockSetup,"ax",%progbits
 230              		.align	2
 231              		.thumb
 232              		.thumb_func
 233              		.type	ClockSetup, %function
 234              	ClockSetup:
 235              	.LFB5:
 211:Generated_Source\PSoC5/cyfitter_cfg.c **** 	uint32 timeout;
 236              		.loc 1 211 0
 237              		.cfi_startproc
 238              		@ args = 0, pretend = 0, frame = 0
 239              		@ frame_needed = 0, uses_anonymous_args = 0
 240 0000 38B5     		push	{r3, r4, r5, lr}
 241              		.cfi_def_cfa_offset 16
 242              		.cfi_offset 3, -16
 243              		.cfi_offset 4, -12
 244              		.cfi_offset 5, -8
 245              		.cfi_offset 14, -4
 217:Generated_Source\PSoC5/cyfitter_cfg.c **** 	CY_SET_XTND_REG8((void CYFAR *)(CYREG_CLKDIST_DCFG0_CFG0 + 0x2u), 0x18u);
 246              		.loc 1 217 0
 247 0002 0B22     		movs	r2, #11
 248 0004 244B     		ldr	r3, .L24
 249 0006 1A80     		strh	r2, [r3]	@ movhi
 218:Generated_Source\PSoC5/cyfitter_cfg.c **** 
 250              		.loc 1 218 0
 251 0008 1822     		movs	r2, #24
 252 000a 0233     		adds	r3, r3, #2
 253 000c 1A70     		strb	r2, [r3]
 221:Generated_Source\PSoC5/cyfitter_cfg.c **** 	CY_SET_XTND_REG8((void CYFAR *)(CYREG_CLKDIST_CR), 0x08u);
 254              		.loc 1 221 0
 255 000e 0222     		movs	r2, #2
 256 0010 03F27E23 		addw	r3, r3, #638
 257 0014 1A70     		strb	r2, [r3]
 222:Generated_Source\PSoC5/cyfitter_cfg.c **** 
 258              		.loc 1 222 0
 259 0016 0822     		movs	r2, #8
 260 0018 4FF04023 		mov	r3, #1073758208
 261 001c 1A70     		strb	r2, [r3]
 225:Generated_Source\PSoC5/cyfitter_cfg.c **** 	CY_SET_XTND_REG8((void CYFAR *)(CYREG_IMO_TR1), (CY_GET_XTND_REG8((void CYFAR *)CYREG_FLSHID_CUST_
 262              		.loc 1 225 0
 263 001e 0321     		movs	r1, #3
 264 0020 03F50073 		add	r3, r3, #512
 265 0024 1970     		strb	r1, [r3]
 226:Generated_Source\PSoC5/cyfitter_cfg.c **** 
 266              		.loc 1 226 0
 267 0026 1D4B     		ldr	r3, .L24+4
 268 0028 1B78     		ldrb	r3, [r3]	@ zero_extendqisi2
 269 002a DBB2     		uxtb	r3, r3
 270 002c 1C49     		ldr	r1, .L24+8
 271 002e 0B70     		strb	r3, [r1]
 229:Generated_Source\PSoC5/cyfitter_cfg.c **** 	CY_SET_XTND_REG16((void CYFAR *)(CYREG_FASTCLK_PLL_CFG0), 0x1251u);
 272              		.loc 1 229 0
 273 0030 1C4B     		ldr	r3, .L24+12
ARM GAS  C:\Users\JEFFSN~1\AppData\Local\Temp\cc8qYcnw.s 			page 11


 274 0032 1A80     		strh	r2, [r3]	@ movhi
 230:Generated_Source\PSoC5/cyfitter_cfg.c **** 	/* Wait up to 250us for the PLL to lock */
 275              		.loc 1 230 0
 276 0034 41F25122 		movw	r2, #4689
 277 0038 023B     		subs	r3, r3, #2
 278 003a 1A80     		strh	r2, [r3]	@ movhi
 279              	.LVL21:
 232:Generated_Source\PSoC5/cyfitter_cfg.c **** 	for (timeout = 250u / 10u; (timeout > 0u) && (pllLock != 0x03u); timeout--)
 280              		.loc 1 232 0
 281 003c 0024     		movs	r4, #0
 233:Generated_Source\PSoC5/cyfitter_cfg.c **** 	{ 
 282              		.loc 1 233 0
 283 003e 1925     		movs	r5, #25
 284 0040 0CE0     		b	.L19
 285              	.LVL22:
 286              	.L21:
 235:Generated_Source\PSoC5/cyfitter_cfg.c **** 		CyDelayCycles(10u * 48u); /* Delay 10us based on 48MHz clock */
 287              		.loc 1 235 0 discriminator 4
 288 0042 194B     		ldr	r3, .L24+16
 289 0044 1B78     		ldrb	r3, [r3]	@ zero_extendqisi2
 290 0046 03F00103 		and	r3, r3, #1
 291 004a 43EA4404 		orr	r4, r3, r4, lsl #1
 292              	.LVL23:
 293 004e 04F00304 		and	r4, r4, #3
 294              	.LVL24:
 236:Generated_Source\PSoC5/cyfitter_cfg.c **** 	}
 295              		.loc 1 236 0 discriminator 4
 296 0052 4FF4F070 		mov	r0, #480
 297 0056 FFF7FEFF 		bl	CyDelayCycles
 298              	.LVL25:
 233:Generated_Source\PSoC5/cyfitter_cfg.c **** 	{ 
 299              		.loc 1 233 0 discriminator 4
 300 005a 013D     		subs	r5, r5, #1
 301              	.LVL26:
 302              	.L19:
 233:Generated_Source\PSoC5/cyfitter_cfg.c **** 	{ 
 303              		.loc 1 233 0 is_stmt 0 discriminator 1
 304 005c 0DB1     		cbz	r5, .L20
 233:Generated_Source\PSoC5/cyfitter_cfg.c **** 	{ 
 305              		.loc 1 233 0 discriminator 3
 306 005e 032C     		cmp	r4, #3
 307 0060 EFD1     		bne	.L21
 308              	.L20:
 239:Generated_Source\PSoC5/cyfitter_cfg.c **** 	{
 309              		.loc 1 239 0 is_stmt 1
 310 0062 15B9     		cbnz	r5, .L22
 241:Generated_Source\PSoC5/cyfitter_cfg.c **** 	}
 311              		.loc 1 241 0
 312 0064 0320     		movs	r0, #3
 313 0066 FFF7FEFF 		bl	CyClockStartupError
 314              	.LVL27:
 315              	.L22:
 245:Generated_Source\PSoC5/cyfitter_cfg.c **** 	CY_SET_XTND_REG8((void CYFAR *)(CYREG_CLKDIST_MSTR0), 0x07u);
 316              		.loc 1 245 0
 317 006a 104B     		ldr	r3, .L24+20
 318 006c 4FF48072 		mov	r2, #256
 319 0070 1A80     		strh	r2, [r3]	@ movhi
ARM GAS  C:\Users\JEFFSN~1\AppData\Local\Temp\cc8qYcnw.s 			page 12


 246:Generated_Source\PSoC5/cyfitter_cfg.c **** 	CY_SET_XTND_REG8((void CYFAR *)(CYREG_CLKDIST_BCFG0), 0x00u);
 320              		.loc 1 246 0
 321 0072 0722     		movs	r2, #7
 322 0074 1A70     		strb	r2, [r3]
 247:Generated_Source\PSoC5/cyfitter_cfg.c **** 	CY_SET_XTND_REG8((void CYFAR *)(CYREG_CLKDIST_BCFG2), 0x48u);
 323              		.loc 1 247 0
 324 0076 0022     		movs	r2, #0
 325 0078 0D49     		ldr	r1, .L24+24
 326 007a 0A70     		strb	r2, [r1]
 248:Generated_Source\PSoC5/cyfitter_cfg.c **** 	CY_SET_XTND_REG8((void CYFAR *)(CYREG_CLKDIST_MSTR0), 0x00u);
 327              		.loc 1 248 0
 328 007c 4820     		movs	r0, #72
 329 007e 0231     		adds	r1, r1, #2
 330 0080 0870     		strb	r0, [r1]
 249:Generated_Source\PSoC5/cyfitter_cfg.c **** 	CY_SET_XTND_REG8((void CYFAR *)(CYREG_CLKDIST_LD), 0x02u);
 331              		.loc 1 249 0
 332 0082 1A70     		strb	r2, [r3]
 250:Generated_Source\PSoC5/cyfitter_cfg.c **** 
 333              		.loc 1 250 0
 334 0084 0222     		movs	r2, #2
 335 0086 033B     		subs	r3, r3, #3
 336 0088 1A70     		strb	r2, [r3]
 252:Generated_Source\PSoC5/cyfitter_cfg.c **** }
 337              		.loc 1 252 0
 338 008a 0A4A     		ldr	r2, .L24+28
 339 008c 1378     		ldrb	r3, [r2]	@ zero_extendqisi2
 340 008e 43F00103 		orr	r3, r3, #1
 341 0092 1370     		strb	r3, [r2]
 342 0094 38BD     		pop	{r3, r4, r5, pc}
 343              	.LVL28:
 344              	.L25:
 345 0096 00BF     		.align	2
 346              	.L24:
 347 0098 80400040 		.word	1073758336
 348 009c 08010049 		.word	1224737032
 349 00a0 A1460040 		.word	1073759905
 350 00a4 22420040 		.word	1073758754
 351 00a8 25420040 		.word	1073758757
 352 00ac 04400040 		.word	1073758212
 353 00b0 06400040 		.word	1073758214
 354 00b4 A2430040 		.word	1073759138
 355              		.cfi_endproc
 356              	.LFE5:
 357              		.size	ClockSetup, .-ClockSetup
 358              		.section	.text.SetAnalogRoutingPumps,"ax",%progbits
 359              		.align	2
 360              		.global	SetAnalogRoutingPumps
 361              		.thumb
 362              		.thumb_func
 363              		.type	SetAnalogRoutingPumps, %function
 364              	SetAnalogRoutingPumps:
 365              	.LFB7:
 281:Generated_Source\PSoC5/cyfitter_cfg.c **** }
 282:Generated_Source\PSoC5/cyfitter_cfg.c **** 
 283:Generated_Source\PSoC5/cyfitter_cfg.c **** 
 284:Generated_Source\PSoC5/cyfitter_cfg.c **** /*******************************************************************************
 285:Generated_Source\PSoC5/cyfitter_cfg.c **** * Function Name: SetAnalogRoutingPumps
ARM GAS  C:\Users\JEFFSN~1\AppData\Local\Temp\cc8qYcnw.s 			page 13


 286:Generated_Source\PSoC5/cyfitter_cfg.c **** ********************************************************************************
 287:Generated_Source\PSoC5/cyfitter_cfg.c **** *
 288:Generated_Source\PSoC5/cyfitter_cfg.c **** * Summary:
 289:Generated_Source\PSoC5/cyfitter_cfg.c **** * Enables or disables the analog pumps feeding analog routing switches.
 290:Generated_Source\PSoC5/cyfitter_cfg.c **** * Intended to be called at startup, based on the Vdda system configuration;
 291:Generated_Source\PSoC5/cyfitter_cfg.c **** * may be called during operation when the user informs us that the Vdda voltage
 292:Generated_Source\PSoC5/cyfitter_cfg.c **** * crossed the pump threshold.
 293:Generated_Source\PSoC5/cyfitter_cfg.c **** *
 294:Generated_Source\PSoC5/cyfitter_cfg.c **** * Parameters:
 295:Generated_Source\PSoC5/cyfitter_cfg.c **** *  enabled - 1 to enable the pumps, 0 to disable the pumps
 296:Generated_Source\PSoC5/cyfitter_cfg.c **** *
 297:Generated_Source\PSoC5/cyfitter_cfg.c **** * Return:
 298:Generated_Source\PSoC5/cyfitter_cfg.c **** *  void
 299:Generated_Source\PSoC5/cyfitter_cfg.c **** *
 300:Generated_Source\PSoC5/cyfitter_cfg.c **** *******************************************************************************/
 301:Generated_Source\PSoC5/cyfitter_cfg.c **** void SetAnalogRoutingPumps(uint8 enabled)
 302:Generated_Source\PSoC5/cyfitter_cfg.c **** {
 366              		.loc 1 302 0
 367              		.cfi_startproc
 368              		@ args = 0, pretend = 0, frame = 0
 369              		@ frame_needed = 0, uses_anonymous_args = 0
 370              		@ link register save eliminated.
 371              	.LVL29:
 303:Generated_Source\PSoC5/cyfitter_cfg.c **** 	uint8 regValue = CY_GET_XTND_REG8((void CYFAR *)CYREG_PUMP_CR0);
 372              		.loc 1 303 0
 373 0000 024A     		ldr	r2, .L27
 374 0002 1378     		ldrb	r3, [r2]	@ zero_extendqisi2
 375 0004 DBB2     		uxtb	r3, r3
 376              	.LVL30:
 304:Generated_Source\PSoC5/cyfitter_cfg.c **** 	if (enabled != 0u)
 305:Generated_Source\PSoC5/cyfitter_cfg.c **** 	{
 306:Generated_Source\PSoC5/cyfitter_cfg.c **** 		regValue |= 0x00u;
 307:Generated_Source\PSoC5/cyfitter_cfg.c **** 	}
 308:Generated_Source\PSoC5/cyfitter_cfg.c **** 	else
 309:Generated_Source\PSoC5/cyfitter_cfg.c **** 	{
 310:Generated_Source\PSoC5/cyfitter_cfg.c **** 		regValue &= (uint8)~0x00u;
 311:Generated_Source\PSoC5/cyfitter_cfg.c **** 	}
 312:Generated_Source\PSoC5/cyfitter_cfg.c **** 	CY_SET_XTND_REG8((void CYFAR *)CYREG_PUMP_CR0, regValue);
 377              		.loc 1 312 0
 378 0006 1370     		strb	r3, [r2]
 379 0008 7047     		bx	lr
 380              	.L28:
 381 000a 00BF     		.align	2
 382              	.L27:
 383 000c 76580040 		.word	1073764470
 384              		.cfi_endproc
 385              	.LFE7:
 386              		.size	SetAnalogRoutingPumps, .-SetAnalogRoutingPumps
 387              		.section	.text.cyfitter_cfg,"ax",%progbits
 388              		.align	2
 389              		.global	cyfitter_cfg
 390              		.thumb
 391              		.thumb_func
 392              		.type	cyfitter_cfg, %function
 393              	cyfitter_cfg:
 394              	.LFB8:
 313:Generated_Source\PSoC5/cyfitter_cfg.c **** }
ARM GAS  C:\Users\JEFFSN~1\AppData\Local\Temp\cc8qYcnw.s 			page 14


 314:Generated_Source\PSoC5/cyfitter_cfg.c **** 
 315:Generated_Source\PSoC5/cyfitter_cfg.c **** 
 316:Generated_Source\PSoC5/cyfitter_cfg.c **** 
 317:Generated_Source\PSoC5/cyfitter_cfg.c **** 
 318:Generated_Source\PSoC5/cyfitter_cfg.c **** /*******************************************************************************
 319:Generated_Source\PSoC5/cyfitter_cfg.c **** * Function Name: cyfitter_cfg
 320:Generated_Source\PSoC5/cyfitter_cfg.c **** ********************************************************************************
 321:Generated_Source\PSoC5/cyfitter_cfg.c **** * Summary:
 322:Generated_Source\PSoC5/cyfitter_cfg.c **** *  This function is called by the start-up code for the selected device. It
 323:Generated_Source\PSoC5/cyfitter_cfg.c **** *  performs all of the necessary device configuration based on the design
 324:Generated_Source\PSoC5/cyfitter_cfg.c **** *  settings.  This includes settings from the Design Wide Resources (DWR) such
 325:Generated_Source\PSoC5/cyfitter_cfg.c **** *  as Clocks and Pins as well as any component configuration that is necessary.
 326:Generated_Source\PSoC5/cyfitter_cfg.c **** *
 327:Generated_Source\PSoC5/cyfitter_cfg.c **** * Parameters:
 328:Generated_Source\PSoC5/cyfitter_cfg.c **** *   void
 329:Generated_Source\PSoC5/cyfitter_cfg.c **** *
 330:Generated_Source\PSoC5/cyfitter_cfg.c **** * Return:
 331:Generated_Source\PSoC5/cyfitter_cfg.c **** *   void
 332:Generated_Source\PSoC5/cyfitter_cfg.c **** *
 333:Generated_Source\PSoC5/cyfitter_cfg.c **** *******************************************************************************/
 334:Generated_Source\PSoC5/cyfitter_cfg.c **** 
 335:Generated_Source\PSoC5/cyfitter_cfg.c **** void cyfitter_cfg(void)
 336:Generated_Source\PSoC5/cyfitter_cfg.c **** {
 395              		.loc 1 336 0
 396              		.cfi_startproc
 397              		@ args = 0, pretend = 0, frame = 0
 398              		@ frame_needed = 0, uses_anonymous_args = 0
 399 0000 38B5     		push	{r3, r4, r5, lr}
 400              		.cfi_def_cfa_offset 16
 401              		.cfi_offset 3, -16
 402              		.cfi_offset 4, -12
 403              		.cfi_offset 5, -8
 404              		.cfi_offset 14, -4
 337:Generated_Source\PSoC5/cyfitter_cfg.c **** 	/* IOPINS0_7 Address: CYREG_PRT12_DM0 Size (bytes): 8 */
 338:Generated_Source\PSoC5/cyfitter_cfg.c **** 	static const uint8 CYCODE BS_IOPINS0_7_VAL[] = {
 339:Generated_Source\PSoC5/cyfitter_cfg.c **** 		0x00u, 0x0Fu, 0x0Fu, 0x00u, 0x00u, 0x00u, 0x00u, 0x00u};
 340:Generated_Source\PSoC5/cyfitter_cfg.c **** 
 341:Generated_Source\PSoC5/cyfitter_cfg.c **** 	/* IOPINS0_8 Address: CYREG_PRT15_DM0 Size (bytes): 8 */
 342:Generated_Source\PSoC5/cyfitter_cfg.c **** 	static const uint8 CYCODE BS_IOPINS0_8_VAL[] = {
 343:Generated_Source\PSoC5/cyfitter_cfg.c **** 		0x01u, 0x02u, 0x02u, 0x00u, 0x02u, 0x00u, 0x00u, 0x00u};
 344:Generated_Source\PSoC5/cyfitter_cfg.c **** 
 345:Generated_Source\PSoC5/cyfitter_cfg.c **** 	/* IOPINS0_1 Address: CYREG_PRT1_DM0 Size (bytes): 8 */
 346:Generated_Source\PSoC5/cyfitter_cfg.c **** 	static const uint8 CYCODE BS_IOPINS0_1_VAL[] = {
 347:Generated_Source\PSoC5/cyfitter_cfg.c **** 		0x00u, 0x0Bu, 0x0Bu, 0x00u, 0x00u, 0x00u, 0x00u, 0x00u};
 348:Generated_Source\PSoC5/cyfitter_cfg.c **** 
 349:Generated_Source\PSoC5/cyfitter_cfg.c **** 	/* IOPINS0_3 Address: CYREG_PRT3_DM0 Size (bytes): 8 */
 350:Generated_Source\PSoC5/cyfitter_cfg.c **** 	static const uint8 CYCODE BS_IOPINS0_3_VAL[] = {
 351:Generated_Source\PSoC5/cyfitter_cfg.c **** 		0x00u, 0xC3u, 0xC3u, 0x00u, 0x03u, 0x00u, 0x00u, 0x00u};
 352:Generated_Source\PSoC5/cyfitter_cfg.c **** 
 353:Generated_Source\PSoC5/cyfitter_cfg.c **** 	/* IOPINS0_4 Address: CYREG_PRT4_DM0 Size (bytes): 8 */
 354:Generated_Source\PSoC5/cyfitter_cfg.c **** 	static const uint8 CYCODE BS_IOPINS0_4_VAL[] = {
 355:Generated_Source\PSoC5/cyfitter_cfg.c **** 		0x00u, 0x03u, 0x03u, 0x00u, 0x00u, 0x00u, 0x00u, 0x00u};
 356:Generated_Source\PSoC5/cyfitter_cfg.c **** 
 357:Generated_Source\PSoC5/cyfitter_cfg.c **** #ifdef CYGlobalIntDisable
 358:Generated_Source\PSoC5/cyfitter_cfg.c **** 	/* Disable interrupts by default. Let user enable if/when they want. */
 359:Generated_Source\PSoC5/cyfitter_cfg.c **** 	CYGlobalIntDisable
 405              		.loc 1 359 0
ARM GAS  C:\Users\JEFFSN~1\AppData\Local\Temp\cc8qYcnw.s 			page 15


 406              		.syntax unified
 407              	@ 359 "Generated_Source\PSoC5\cyfitter_cfg.c" 1
 408 0002 72B6     		CPSID   i
 409              	@ 0 "" 2
 360:Generated_Source\PSoC5/cyfitter_cfg.c **** #endif
 361:Generated_Source\PSoC5/cyfitter_cfg.c **** 
 362:Generated_Source\PSoC5/cyfitter_cfg.c **** 	/* Enable/Disable Debug functionality based on settings from System DWR */
 363:Generated_Source\PSoC5/cyfitter_cfg.c **** 	CY_SET_XTND_REG8((void CYFAR *)CYREG_MLOGIC_DEBUG, (CY_GET_XTND_REG8((void CYFAR *)CYREG_MLOGIC_DE
 410              		.loc 1 363 0
 411              		.thumb
 412              		.syntax unified
 413 0004 3B4A     		ldr	r2, .L35
 414 0006 1378     		ldrb	r3, [r2]	@ zero_extendqisi2
 415 0008 43F00403 		orr	r3, r3, #4
 416 000c 1370     		strb	r3, [r2]
 417              	.LVL31:
 418              	.LBB3:
 364:Generated_Source\PSoC5/cyfitter_cfg.c **** 
 365:Generated_Source\PSoC5/cyfitter_cfg.c **** 	{
 366:Generated_Source\PSoC5/cyfitter_cfg.c **** 		static const uint32 CYCODE cy_cfg_addr_table[] = {
 367:Generated_Source\PSoC5/cyfitter_cfg.c **** 			0x40005203u, /* Base address: 0x40005200 Count: 3 */
 368:Generated_Source\PSoC5/cyfitter_cfg.c **** 			0x40006501u, /* Base address: 0x40006500 Count: 1 */
 369:Generated_Source\PSoC5/cyfitter_cfg.c **** 			0x40011435u, /* Base address: 0x40011400 Count: 53 */
 370:Generated_Source\PSoC5/cyfitter_cfg.c **** 			0x4001153Fu, /* Base address: 0x40011500 Count: 63 */
 371:Generated_Source\PSoC5/cyfitter_cfg.c **** 			0x4001160Au, /* Base address: 0x40011600 Count: 10 */
 372:Generated_Source\PSoC5/cyfitter_cfg.c **** 			0x40011730u, /* Base address: 0x40011700 Count: 48 */
 373:Generated_Source\PSoC5/cyfitter_cfg.c **** 			0x40014003u, /* Base address: 0x40014000 Count: 3 */
 374:Generated_Source\PSoC5/cyfitter_cfg.c **** 			0x40014102u, /* Base address: 0x40014100 Count: 2 */
 375:Generated_Source\PSoC5/cyfitter_cfg.c **** 			0x40014202u, /* Base address: 0x40014200 Count: 2 */
 376:Generated_Source\PSoC5/cyfitter_cfg.c **** 			0x40014302u, /* Base address: 0x40014300 Count: 2 */
 377:Generated_Source\PSoC5/cyfitter_cfg.c **** 			0x40014806u, /* Base address: 0x40014800 Count: 6 */
 378:Generated_Source\PSoC5/cyfitter_cfg.c **** 			0x4001490Cu, /* Base address: 0x40014900 Count: 12 */
 379:Generated_Source\PSoC5/cyfitter_cfg.c **** 			0x40015002u, /* Base address: 0x40015000 Count: 2 */
 380:Generated_Source\PSoC5/cyfitter_cfg.c **** 			0x40015101u, /* Base address: 0x40015100 Count: 1 */
 381:Generated_Source\PSoC5/cyfitter_cfg.c **** 		};
 382:Generated_Source\PSoC5/cyfitter_cfg.c **** 
 383:Generated_Source\PSoC5/cyfitter_cfg.c **** 		static const cy_cfg_addrvalue_t CYCODE cy_cfg_data_table[] = {
 384:Generated_Source\PSoC5/cyfitter_cfg.c **** 			{0x18u, 0x01u},
 385:Generated_Source\PSoC5/cyfitter_cfg.c **** 			{0x19u, 0x02u},
 386:Generated_Source\PSoC5/cyfitter_cfg.c **** 			{0x79u, 0x02u},
 387:Generated_Source\PSoC5/cyfitter_cfg.c **** 			{0x86u, 0x0Fu},
 388:Generated_Source\PSoC5/cyfitter_cfg.c **** 			{0x00u, 0x04u},
 389:Generated_Source\PSoC5/cyfitter_cfg.c **** 			{0x02u, 0x09u},
 390:Generated_Source\PSoC5/cyfitter_cfg.c **** 			{0x0Cu, 0x0Eu},
 391:Generated_Source\PSoC5/cyfitter_cfg.c **** 			{0x10u, 0x05u},
 392:Generated_Source\PSoC5/cyfitter_cfg.c **** 			{0x12u, 0x0Au},
 393:Generated_Source\PSoC5/cyfitter_cfg.c **** 			{0x24u, 0x03u},
 394:Generated_Source\PSoC5/cyfitter_cfg.c **** 			{0x26u, 0x04u},
 395:Generated_Source\PSoC5/cyfitter_cfg.c **** 			{0x30u, 0x0Fu},
 396:Generated_Source\PSoC5/cyfitter_cfg.c **** 			{0x38u, 0x02u},
 397:Generated_Source\PSoC5/cyfitter_cfg.c **** 			{0x54u, 0x40u},
 398:Generated_Source\PSoC5/cyfitter_cfg.c **** 			{0x56u, 0x04u},
 399:Generated_Source\PSoC5/cyfitter_cfg.c **** 			{0x58u, 0x04u},
 400:Generated_Source\PSoC5/cyfitter_cfg.c **** 			{0x5Bu, 0x04u},
 401:Generated_Source\PSoC5/cyfitter_cfg.c **** 			{0x5Fu, 0x01u},
 402:Generated_Source\PSoC5/cyfitter_cfg.c **** 			{0x80u, 0x56u},
 403:Generated_Source\PSoC5/cyfitter_cfg.c **** 			{0x81u, 0x09u},
ARM GAS  C:\Users\JEFFSN~1\AppData\Local\Temp\cc8qYcnw.s 			page 16


 404:Generated_Source\PSoC5/cyfitter_cfg.c **** 			{0x82u, 0x09u},
 405:Generated_Source\PSoC5/cyfitter_cfg.c **** 			{0x83u, 0x36u},
 406:Generated_Source\PSoC5/cyfitter_cfg.c **** 			{0x86u, 0x80u},
 407:Generated_Source\PSoC5/cyfitter_cfg.c **** 			{0x87u, 0x10u},
 408:Generated_Source\PSoC5/cyfitter_cfg.c **** 			{0x88u, 0x07u},
 409:Generated_Source\PSoC5/cyfitter_cfg.c **** 			{0x8Au, 0x38u},
 410:Generated_Source\PSoC5/cyfitter_cfg.c **** 			{0x8Cu, 0x60u},
 411:Generated_Source\PSoC5/cyfitter_cfg.c **** 			{0x90u, 0x04u},
 412:Generated_Source\PSoC5/cyfitter_cfg.c **** 			{0x91u, 0x05u},
 413:Generated_Source\PSoC5/cyfitter_cfg.c **** 			{0x92u, 0x80u},
 414:Generated_Source\PSoC5/cyfitter_cfg.c **** 			{0x93u, 0x3Au},
 415:Generated_Source\PSoC5/cyfitter_cfg.c **** 			{0x94u, 0x04u},
 416:Generated_Source\PSoC5/cyfitter_cfg.c **** 			{0x95u, 0x23u},
 417:Generated_Source\PSoC5/cyfitter_cfg.c **** 			{0x97u, 0x0Cu},
 418:Generated_Source\PSoC5/cyfitter_cfg.c **** 			{0x98u, 0x01u},
 419:Generated_Source\PSoC5/cyfitter_cfg.c **** 			{0x99u, 0x02u},
 420:Generated_Source\PSoC5/cyfitter_cfg.c **** 			{0x9Bu, 0x0Du},
 421:Generated_Source\PSoC5/cyfitter_cfg.c **** 			{0x9Cu, 0x0Au},
 422:Generated_Source\PSoC5/cyfitter_cfg.c **** 			{0x9Eu, 0x10u},
 423:Generated_Source\PSoC5/cyfitter_cfg.c **** 			{0xA0u, 0x84u},
 424:Generated_Source\PSoC5/cyfitter_cfg.c **** 			{0xA4u, 0x80u},
 425:Generated_Source\PSoC5/cyfitter_cfg.c **** 			{0xA6u, 0x04u},
 426:Generated_Source\PSoC5/cyfitter_cfg.c **** 			{0xA8u, 0x84u},
 427:Generated_Source\PSoC5/cyfitter_cfg.c **** 			{0xACu, 0x84u},
 428:Generated_Source\PSoC5/cyfitter_cfg.c **** 			{0xB2u, 0x80u},
 429:Generated_Source\PSoC5/cyfitter_cfg.c **** 			{0xB3u, 0x30u},
 430:Generated_Source\PSoC5/cyfitter_cfg.c **** 			{0xB4u, 0x7Fu},
 431:Generated_Source\PSoC5/cyfitter_cfg.c **** 			{0xB5u, 0x0Fu},
 432:Generated_Source\PSoC5/cyfitter_cfg.c **** 			{0xB8u, 0x20u},
 433:Generated_Source\PSoC5/cyfitter_cfg.c **** 			{0xBBu, 0x20u},
 434:Generated_Source\PSoC5/cyfitter_cfg.c **** 			{0xBEu, 0x04u},
 435:Generated_Source\PSoC5/cyfitter_cfg.c **** 			{0xD4u, 0x09u},
 436:Generated_Source\PSoC5/cyfitter_cfg.c **** 			{0xD6u, 0x04u},
 437:Generated_Source\PSoC5/cyfitter_cfg.c **** 			{0xD8u, 0x04u},
 438:Generated_Source\PSoC5/cyfitter_cfg.c **** 			{0xD9u, 0x04u},
 439:Generated_Source\PSoC5/cyfitter_cfg.c **** 			{0xDBu, 0x04u},
 440:Generated_Source\PSoC5/cyfitter_cfg.c **** 			{0xDFu, 0x01u},
 441:Generated_Source\PSoC5/cyfitter_cfg.c **** 			{0x00u, 0x41u},
 442:Generated_Source\PSoC5/cyfitter_cfg.c **** 			{0x04u, 0x02u},
 443:Generated_Source\PSoC5/cyfitter_cfg.c **** 			{0x05u, 0x04u},
 444:Generated_Source\PSoC5/cyfitter_cfg.c **** 			{0x06u, 0x11u},
 445:Generated_Source\PSoC5/cyfitter_cfg.c **** 			{0x07u, 0x08u},
 446:Generated_Source\PSoC5/cyfitter_cfg.c **** 			{0x09u, 0x02u},
 447:Generated_Source\PSoC5/cyfitter_cfg.c **** 			{0x0Cu, 0x02u},
 448:Generated_Source\PSoC5/cyfitter_cfg.c **** 			{0x0Du, 0x08u},
 449:Generated_Source\PSoC5/cyfitter_cfg.c **** 			{0x0Eu, 0x0Au},
 450:Generated_Source\PSoC5/cyfitter_cfg.c **** 			{0x13u, 0x08u},
 451:Generated_Source\PSoC5/cyfitter_cfg.c **** 			{0x15u, 0x01u},
 452:Generated_Source\PSoC5/cyfitter_cfg.c **** 			{0x16u, 0x02u},
 453:Generated_Source\PSoC5/cyfitter_cfg.c **** 			{0x17u, 0x14u},
 454:Generated_Source\PSoC5/cyfitter_cfg.c **** 			{0x18u, 0x40u},
 455:Generated_Source\PSoC5/cyfitter_cfg.c **** 			{0x1Cu, 0x10u},
 456:Generated_Source\PSoC5/cyfitter_cfg.c **** 			{0x1Eu, 0x08u},
 457:Generated_Source\PSoC5/cyfitter_cfg.c **** 			{0x25u, 0x24u},
 458:Generated_Source\PSoC5/cyfitter_cfg.c **** 			{0x26u, 0x28u},
 459:Generated_Source\PSoC5/cyfitter_cfg.c **** 			{0x36u, 0x21u},
 460:Generated_Source\PSoC5/cyfitter_cfg.c **** 			{0x37u, 0x08u},
ARM GAS  C:\Users\JEFFSN~1\AppData\Local\Temp\cc8qYcnw.s 			page 17


 461:Generated_Source\PSoC5/cyfitter_cfg.c **** 			{0x3Cu, 0x01u},
 462:Generated_Source\PSoC5/cyfitter_cfg.c **** 			{0x3Du, 0x08u},
 463:Generated_Source\PSoC5/cyfitter_cfg.c **** 			{0x45u, 0x20u},
 464:Generated_Source\PSoC5/cyfitter_cfg.c **** 			{0x46u, 0x08u},
 465:Generated_Source\PSoC5/cyfitter_cfg.c **** 			{0x5Eu, 0x41u},
 466:Generated_Source\PSoC5/cyfitter_cfg.c **** 			{0x5Fu, 0x14u},
 467:Generated_Source\PSoC5/cyfitter_cfg.c **** 			{0x60u, 0x90u},
 468:Generated_Source\PSoC5/cyfitter_cfg.c **** 			{0x61u, 0x80u},
 469:Generated_Source\PSoC5/cyfitter_cfg.c **** 			{0x63u, 0x08u},
 470:Generated_Source\PSoC5/cyfitter_cfg.c **** 			{0x66u, 0x40u},
 471:Generated_Source\PSoC5/cyfitter_cfg.c **** 			{0x67u, 0x40u},
 472:Generated_Source\PSoC5/cyfitter_cfg.c **** 			{0x84u, 0x80u},
 473:Generated_Source\PSoC5/cyfitter_cfg.c **** 			{0x88u, 0x80u},
 474:Generated_Source\PSoC5/cyfitter_cfg.c **** 			{0x8Bu, 0x50u},
 475:Generated_Source\PSoC5/cyfitter_cfg.c **** 			{0x8Cu, 0x40u},
 476:Generated_Source\PSoC5/cyfitter_cfg.c **** 			{0x8Du, 0x84u},
 477:Generated_Source\PSoC5/cyfitter_cfg.c **** 			{0x8Eu, 0x08u},
 478:Generated_Source\PSoC5/cyfitter_cfg.c **** 			{0x90u, 0x03u},
 479:Generated_Source\PSoC5/cyfitter_cfg.c **** 			{0x91u, 0x01u},
 480:Generated_Source\PSoC5/cyfitter_cfg.c **** 			{0x92u, 0x41u},
 481:Generated_Source\PSoC5/cyfitter_cfg.c **** 			{0x93u, 0x04u},
 482:Generated_Source\PSoC5/cyfitter_cfg.c **** 			{0x9Au, 0x53u},
 483:Generated_Source\PSoC5/cyfitter_cfg.c **** 			{0x9Bu, 0x1Cu},
 484:Generated_Source\PSoC5/cyfitter_cfg.c **** 			{0x9Eu, 0x08u},
 485:Generated_Source\PSoC5/cyfitter_cfg.c **** 			{0xA0u, 0x82u},
 486:Generated_Source\PSoC5/cyfitter_cfg.c **** 			{0xA1u, 0x0Au},
 487:Generated_Source\PSoC5/cyfitter_cfg.c **** 			{0xA2u, 0x01u},
 488:Generated_Source\PSoC5/cyfitter_cfg.c **** 			{0xA3u, 0x04u},
 489:Generated_Source\PSoC5/cyfitter_cfg.c **** 			{0xA6u, 0x04u},
 490:Generated_Source\PSoC5/cyfitter_cfg.c **** 			{0xB1u, 0x20u},
 491:Generated_Source\PSoC5/cyfitter_cfg.c **** 			{0xB2u, 0x44u},
 492:Generated_Source\PSoC5/cyfitter_cfg.c **** 			{0xB6u, 0x04u},
 493:Generated_Source\PSoC5/cyfitter_cfg.c **** 			{0xC0u, 0xF9u},
 494:Generated_Source\PSoC5/cyfitter_cfg.c **** 			{0xC2u, 0xF8u},
 495:Generated_Source\PSoC5/cyfitter_cfg.c **** 			{0xC4u, 0xF4u},
 496:Generated_Source\PSoC5/cyfitter_cfg.c **** 			{0xCCu, 0xE0u},
 497:Generated_Source\PSoC5/cyfitter_cfg.c **** 			{0xCEu, 0xC0u},
 498:Generated_Source\PSoC5/cyfitter_cfg.c **** 			{0xD6u, 0xF0u},
 499:Generated_Source\PSoC5/cyfitter_cfg.c **** 			{0xD8u, 0x9Fu},
 500:Generated_Source\PSoC5/cyfitter_cfg.c **** 			{0xE2u, 0x60u},
 501:Generated_Source\PSoC5/cyfitter_cfg.c **** 			{0xE6u, 0x40u},
 502:Generated_Source\PSoC5/cyfitter_cfg.c **** 			{0xE8u, 0x80u},
 503:Generated_Source\PSoC5/cyfitter_cfg.c **** 			{0xEAu, 0x40u},
 504:Generated_Source\PSoC5/cyfitter_cfg.c **** 			{0x80u, 0x04u},
 505:Generated_Source\PSoC5/cyfitter_cfg.c **** 			{0x90u, 0x06u},
 506:Generated_Source\PSoC5/cyfitter_cfg.c **** 			{0x92u, 0x01u},
 507:Generated_Source\PSoC5/cyfitter_cfg.c **** 			{0xA0u, 0x04u},
 508:Generated_Source\PSoC5/cyfitter_cfg.c **** 			{0xA4u, 0x01u},
 509:Generated_Source\PSoC5/cyfitter_cfg.c **** 			{0xA6u, 0x02u},
 510:Generated_Source\PSoC5/cyfitter_cfg.c **** 			{0xB6u, 0x07u},
 511:Generated_Source\PSoC5/cyfitter_cfg.c **** 			{0xBAu, 0x80u},
 512:Generated_Source\PSoC5/cyfitter_cfg.c **** 			{0xD8u, 0x04u},
 513:Generated_Source\PSoC5/cyfitter_cfg.c **** 			{0xDFu, 0x01u},
 514:Generated_Source\PSoC5/cyfitter_cfg.c **** 			{0x00u, 0x01u},
 515:Generated_Source\PSoC5/cyfitter_cfg.c **** 			{0x04u, 0x02u},
 516:Generated_Source\PSoC5/cyfitter_cfg.c **** 			{0x07u, 0x09u},
 517:Generated_Source\PSoC5/cyfitter_cfg.c **** 			{0x09u, 0x02u},
ARM GAS  C:\Users\JEFFSN~1\AppData\Local\Temp\cc8qYcnw.s 			page 18


 518:Generated_Source\PSoC5/cyfitter_cfg.c **** 			{0x0Cu, 0x02u},
 519:Generated_Source\PSoC5/cyfitter_cfg.c **** 			{0x0Eu, 0x12u},
 520:Generated_Source\PSoC5/cyfitter_cfg.c **** 			{0x10u, 0x80u},
 521:Generated_Source\PSoC5/cyfitter_cfg.c **** 			{0x13u, 0x08u},
 522:Generated_Source\PSoC5/cyfitter_cfg.c **** 			{0x15u, 0x01u},
 523:Generated_Source\PSoC5/cyfitter_cfg.c **** 			{0x17u, 0x14u},
 524:Generated_Source\PSoC5/cyfitter_cfg.c **** 			{0x18u, 0x03u},
 525:Generated_Source\PSoC5/cyfitter_cfg.c **** 			{0x19u, 0x80u},
 526:Generated_Source\PSoC5/cyfitter_cfg.c **** 			{0x1Du, 0xA0u},
 527:Generated_Source\PSoC5/cyfitter_cfg.c **** 			{0x1Eu, 0x51u},
 528:Generated_Source\PSoC5/cyfitter_cfg.c **** 			{0x24u, 0x10u},
 529:Generated_Source\PSoC5/cyfitter_cfg.c **** 			{0x25u, 0x0Au},
 530:Generated_Source\PSoC5/cyfitter_cfg.c **** 			{0x26u, 0x01u},
 531:Generated_Source\PSoC5/cyfitter_cfg.c **** 			{0x27u, 0x08u},
 532:Generated_Source\PSoC5/cyfitter_cfg.c **** 			{0x2Du, 0x81u},
 533:Generated_Source\PSoC5/cyfitter_cfg.c **** 			{0x36u, 0x51u},
 534:Generated_Source\PSoC5/cyfitter_cfg.c **** 			{0x37u, 0x08u},
 535:Generated_Source\PSoC5/cyfitter_cfg.c **** 			{0x3Cu, 0x10u},
 536:Generated_Source\PSoC5/cyfitter_cfg.c **** 			{0x3Eu, 0x06u},
 537:Generated_Source\PSoC5/cyfitter_cfg.c **** 			{0x3Fu, 0x80u},
 538:Generated_Source\PSoC5/cyfitter_cfg.c **** 			{0x45u, 0x82u},
 539:Generated_Source\PSoC5/cyfitter_cfg.c **** 			{0x47u, 0x08u},
 540:Generated_Source\PSoC5/cyfitter_cfg.c **** 			{0x4Cu, 0x01u},
 541:Generated_Source\PSoC5/cyfitter_cfg.c **** 			{0x4Eu, 0x04u},
 542:Generated_Source\PSoC5/cyfitter_cfg.c **** 			{0x4Fu, 0x04u},
 543:Generated_Source\PSoC5/cyfitter_cfg.c **** 			{0x54u, 0x80u},
 544:Generated_Source\PSoC5/cyfitter_cfg.c **** 			{0x56u, 0x11u},
 545:Generated_Source\PSoC5/cyfitter_cfg.c **** 			{0x57u, 0x44u},
 546:Generated_Source\PSoC5/cyfitter_cfg.c **** 			{0x66u, 0x08u},
 547:Generated_Source\PSoC5/cyfitter_cfg.c **** 			{0x6Cu, 0x02u},
 548:Generated_Source\PSoC5/cyfitter_cfg.c **** 			{0x6Du, 0x01u},
 549:Generated_Source\PSoC5/cyfitter_cfg.c **** 			{0x6Eu, 0xA4u},
 550:Generated_Source\PSoC5/cyfitter_cfg.c **** 			{0x6Fu, 0x14u},
 551:Generated_Source\PSoC5/cyfitter_cfg.c **** 			{0x76u, 0x02u},
 552:Generated_Source\PSoC5/cyfitter_cfg.c **** 			{0x77u, 0x01u},
 553:Generated_Source\PSoC5/cyfitter_cfg.c **** 			{0xC0u, 0xD8u},
 554:Generated_Source\PSoC5/cyfitter_cfg.c **** 			{0xC2u, 0xB8u},
 555:Generated_Source\PSoC5/cyfitter_cfg.c **** 			{0xC4u, 0x7Cu},
 556:Generated_Source\PSoC5/cyfitter_cfg.c **** 			{0xCAu, 0x90u},
 557:Generated_Source\PSoC5/cyfitter_cfg.c **** 			{0xCCu, 0xF0u},
 558:Generated_Source\PSoC5/cyfitter_cfg.c **** 			{0xCEu, 0xF0u},
 559:Generated_Source\PSoC5/cyfitter_cfg.c **** 			{0xD0u, 0xD0u},
 560:Generated_Source\PSoC5/cyfitter_cfg.c **** 			{0xD2u, 0x30u},
 561:Generated_Source\PSoC5/cyfitter_cfg.c **** 			{0xD8u, 0x40u},
 562:Generated_Source\PSoC5/cyfitter_cfg.c **** 			{0x30u, 0x10u},
 563:Generated_Source\PSoC5/cyfitter_cfg.c **** 			{0x36u, 0x40u},
 564:Generated_Source\PSoC5/cyfitter_cfg.c **** 			{0xCCu, 0x30u},
 565:Generated_Source\PSoC5/cyfitter_cfg.c **** 			{0x9Cu, 0x10u},
 566:Generated_Source\PSoC5/cyfitter_cfg.c **** 			{0xA6u, 0x40u},
 567:Generated_Source\PSoC5/cyfitter_cfg.c **** 			{0x9Cu, 0x10u},
 568:Generated_Source\PSoC5/cyfitter_cfg.c **** 			{0xA6u, 0x40u},
 569:Generated_Source\PSoC5/cyfitter_cfg.c **** 			{0x9Cu, 0x10u},
 570:Generated_Source\PSoC5/cyfitter_cfg.c **** 			{0xA6u, 0x40u},
 571:Generated_Source\PSoC5/cyfitter_cfg.c **** 			{0x00u, 0x02u},
 572:Generated_Source\PSoC5/cyfitter_cfg.c **** 			{0x5Au, 0x20u},
 573:Generated_Source\PSoC5/cyfitter_cfg.c **** 			{0x9Cu, 0x10u},
 574:Generated_Source\PSoC5/cyfitter_cfg.c **** 			{0xA6u, 0x40u},
ARM GAS  C:\Users\JEFFSN~1\AppData\Local\Temp\cc8qYcnw.s 			page 19


 575:Generated_Source\PSoC5/cyfitter_cfg.c **** 			{0xC0u, 0x10u},
 576:Generated_Source\PSoC5/cyfitter_cfg.c **** 			{0xD4u, 0x80u},
 577:Generated_Source\PSoC5/cyfitter_cfg.c **** 			{0x50u, 0x01u},
 578:Generated_Source\PSoC5/cyfitter_cfg.c **** 			{0x56u, 0x20u},
 579:Generated_Source\PSoC5/cyfitter_cfg.c **** 			{0x84u, 0x10u},
 580:Generated_Source\PSoC5/cyfitter_cfg.c **** 			{0x8Au, 0x40u},
 581:Generated_Source\PSoC5/cyfitter_cfg.c **** 			{0x8Cu, 0x01u},
 582:Generated_Source\PSoC5/cyfitter_cfg.c **** 			{0x8Eu, 0x20u},
 583:Generated_Source\PSoC5/cyfitter_cfg.c **** 			{0x9Cu, 0x10u},
 584:Generated_Source\PSoC5/cyfitter_cfg.c **** 			{0xA6u, 0x40u},
 585:Generated_Source\PSoC5/cyfitter_cfg.c **** 			{0xB0u, 0x01u},
 586:Generated_Source\PSoC5/cyfitter_cfg.c **** 			{0xB6u, 0x10u},
 587:Generated_Source\PSoC5/cyfitter_cfg.c **** 			{0xD4u, 0xC0u},
 588:Generated_Source\PSoC5/cyfitter_cfg.c **** 			{0xE6u, 0x40u},
 589:Generated_Source\PSoC5/cyfitter_cfg.c **** 			{0x10u, 0x01u},
 590:Generated_Source\PSoC5/cyfitter_cfg.c **** 			{0x1Au, 0x01u},
 591:Generated_Source\PSoC5/cyfitter_cfg.c **** 			{0x00u, 0x0Fu},
 592:Generated_Source\PSoC5/cyfitter_cfg.c **** 		};
 593:Generated_Source\PSoC5/cyfitter_cfg.c **** 
 594:Generated_Source\PSoC5/cyfitter_cfg.c **** 
 595:Generated_Source\PSoC5/cyfitter_cfg.c **** 
 596:Generated_Source\PSoC5/cyfitter_cfg.c **** 		CYPACKED typedef struct {
 597:Generated_Source\PSoC5/cyfitter_cfg.c **** 			void CYFAR *address;
 598:Generated_Source\PSoC5/cyfitter_cfg.c **** 			uint16 size;
 599:Generated_Source\PSoC5/cyfitter_cfg.c **** 		} CYPACKED_ATTR cfg_memset_t;
 600:Generated_Source\PSoC5/cyfitter_cfg.c **** 
 601:Generated_Source\PSoC5/cyfitter_cfg.c **** 
 602:Generated_Source\PSoC5/cyfitter_cfg.c **** 		CYPACKED typedef struct {
 603:Generated_Source\PSoC5/cyfitter_cfg.c **** 			void CYFAR *dest;
 604:Generated_Source\PSoC5/cyfitter_cfg.c **** 			const void CYCODE *src;
 605:Generated_Source\PSoC5/cyfitter_cfg.c **** 			uint16 size;
 606:Generated_Source\PSoC5/cyfitter_cfg.c **** 		} CYPACKED_ATTR cfg_memcpy_t;
 607:Generated_Source\PSoC5/cyfitter_cfg.c **** 
 608:Generated_Source\PSoC5/cyfitter_cfg.c **** 		static const cfg_memset_t CYCODE cfg_memset_list[] = {
 609:Generated_Source\PSoC5/cyfitter_cfg.c **** 			/* address, size */
 610:Generated_Source\PSoC5/cyfitter_cfg.c **** 			{(void CYFAR *)(CYREG_PRT0_DR), 16u},
 611:Generated_Source\PSoC5/cyfitter_cfg.c **** 			{(void CYFAR *)(CYREG_PRT2_DR), 16u},
 612:Generated_Source\PSoC5/cyfitter_cfg.c **** 			{(void CYFAR *)(CYREG_PRT5_DR), 32u},
 613:Generated_Source\PSoC5/cyfitter_cfg.c **** 			{(void CYFAR *)(CYDEV_UCFG_B0_P0_U0_BASE), 4096u},
 614:Generated_Source\PSoC5/cyfitter_cfg.c **** 			{(void CYFAR *)(CYDEV_UCFG_B1_P2_U0_BASE), 512u},
 615:Generated_Source\PSoC5/cyfitter_cfg.c **** 			{(void CYFAR *)(CYDEV_UCFG_B1_P3_U1_BASE), 1408u},
 616:Generated_Source\PSoC5/cyfitter_cfg.c **** 			{(void CYFAR *)(CYDEV_UCFG_DSI0_BASE), 2560u},
 617:Generated_Source\PSoC5/cyfitter_cfg.c **** 			{(void CYFAR *)(CYDEV_UCFG_DSI12_BASE), 512u},
 618:Generated_Source\PSoC5/cyfitter_cfg.c **** 			{(void CYFAR *)(CYREG_BCTL0_MDCLK_EN), 32u},
 619:Generated_Source\PSoC5/cyfitter_cfg.c **** 		};
 620:Generated_Source\PSoC5/cyfitter_cfg.c **** 
 621:Generated_Source\PSoC5/cyfitter_cfg.c **** 		/* UDB_1_1_1_CONFIG Address: CYDEV_UCFG_B1_P3_U0_BASE Size (bytes): 128 */
 622:Generated_Source\PSoC5/cyfitter_cfg.c **** 		static const uint8 CYCODE BS_UDB_1_1_1_CONFIG_VAL[] = {
 623:Generated_Source\PSoC5/cyfitter_cfg.c **** 			0x42u, 0x9Au, 0x28u, 0x00u, 0x00u, 0x98u, 0x00u, 0x02u, 0x41u, 0x38u, 0x22u, 0xC0u, 0x1Du, 0x02u
 624:Generated_Source\PSoC5/cyfitter_cfg.c **** 			0x0Du, 0x21u, 0x10u, 0xD8u, 0x02u, 0x13u, 0x0Du, 0x64u, 0x00u, 0x02u, 0x00u, 0x98u, 0x62u, 0x98u
 625:Generated_Source\PSoC5/cyfitter_cfg.c **** 			0x1Du, 0x9Au, 0x00u, 0x00u, 0x1Du, 0x00u, 0x00u, 0x00u, 0x1Du, 0x00u, 0x00u, 0x00u, 0x00u, 0xFCu
 626:Generated_Source\PSoC5/cyfitter_cfg.c **** 			0x20u, 0x0Fu, 0x0Fu, 0xE0u, 0x40u, 0x13u, 0x10u, 0x00u, 0x00u, 0x00u, 0x08u, 0x0Au, 0x00u, 0x00u
 627:Generated_Source\PSoC5/cyfitter_cfg.c **** 			0x45u, 0x03u, 0x10u, 0x00u, 0x06u, 0x0Eu, 0xDCu, 0xBFu, 0x3Du, 0xFFu, 0xFFu, 0xFFu, 0x22u, 0x00u
 628:Generated_Source\PSoC5/cyfitter_cfg.c **** 			0x04u, 0x00u, 0x00u, 0x00u, 0x00u, 0x00u, 0x02u, 0x28u, 0x04u, 0x04u, 0x04u, 0x04u, 0x00u, 0x00u
 629:Generated_Source\PSoC5/cyfitter_cfg.c **** 			0x00u, 0x00u, 0xC0u, 0x00u, 0x40u, 0x01u, 0x10u, 0x11u, 0xC0u, 0x01u, 0x00u, 0x11u, 0x40u, 0x01u
 630:Generated_Source\PSoC5/cyfitter_cfg.c **** 			0x00u, 0x00u, 0x00u, 0x00u, 0x00u, 0x00u, 0x00u, 0x00u, 0x00u, 0x00u, 0x00u, 0x00u, 0x00u, 0x00u
 631:Generated_Source\PSoC5/cyfitter_cfg.c **** 
ARM GAS  C:\Users\JEFFSN~1\AppData\Local\Temp\cc8qYcnw.s 			page 20


 632:Generated_Source\PSoC5/cyfitter_cfg.c **** 		static const cfg_memcpy_t CYCODE cfg_memcpy_list [] = {
 633:Generated_Source\PSoC5/cyfitter_cfg.c **** 			/* dest, src, size */
 634:Generated_Source\PSoC5/cyfitter_cfg.c **** 			{(void CYFAR *)(CYDEV_UCFG_B1_P3_U0_BASE), BS_UDB_1_1_1_CONFIG_VAL, 128u},
 635:Generated_Source\PSoC5/cyfitter_cfg.c **** 		};
 636:Generated_Source\PSoC5/cyfitter_cfg.c **** 
 637:Generated_Source\PSoC5/cyfitter_cfg.c **** 		uint8 CYDATA i;
 638:Generated_Source\PSoC5/cyfitter_cfg.c **** 
 639:Generated_Source\PSoC5/cyfitter_cfg.c **** 		/* Zero out critical memory blocks before beginning configuration */
 640:Generated_Source\PSoC5/cyfitter_cfg.c **** 		for (i = 0u; i < (sizeof(cfg_memset_list)/sizeof(cfg_memset_list[0])); i++)
 419              		.loc 1 640 0
 420 000e 0024     		movs	r4, #0
 421 0010 0CE0     		b	.L30
 422              	.LVL32:
 423              	.L31:
 424              	.LBB4:
 641:Generated_Source\PSoC5/cyfitter_cfg.c **** 		{
 642:Generated_Source\PSoC5/cyfitter_cfg.c **** 			const cfg_memset_t CYCODE * CYDATA ms = &cfg_memset_list[i];
 643:Generated_Source\PSoC5/cyfitter_cfg.c **** 			CYMEMZERO(ms->address, (size_t)(uint32)(ms->size));
 425              		.loc 1 643 0 discriminator 3
 426 0012 394D     		ldr	r5, .L35+4
 427 0014 6300     		lsls	r3, r4, #1
 428 0016 1919     		adds	r1, r3, r4
 429 0018 4A00     		lsls	r2, r1, #1
 430 001a 1146     		mov	r1, r2
 431 001c 2A44     		add	r2, r2, r5
 432 001e 0846     		mov	r0, r1
 433 0020 9188     		ldrh	r1, [r2, #4]
 434 0022 2858     		ldr	r0, [r5, r0]	@ unaligned
 435 0024 FFF7FEFF 		bl	CYMEMZERO
 436              	.LVL33:
 437              	.LBE4:
 640:Generated_Source\PSoC5/cyfitter_cfg.c **** 		{
 438              		.loc 1 640 0 discriminator 3
 439 0028 0134     		adds	r4, r4, #1
 440              	.LVL34:
 441 002a E4B2     		uxtb	r4, r4
 442              	.LVL35:
 443              	.L30:
 640:Generated_Source\PSoC5/cyfitter_cfg.c **** 		{
 444              		.loc 1 640 0 is_stmt 0 discriminator 1
 445 002c 082C     		cmp	r4, #8
 446 002e F0D9     		bls	.L31
 447 0030 0024     		movs	r4, #0
 448              	.LVL36:
 449 0032 0BE0     		b	.L32
 450              	.LVL37:
 451              	.L33:
 452              	.LBB5:
 644:Generated_Source\PSoC5/cyfitter_cfg.c **** 		}
 645:Generated_Source\PSoC5/cyfitter_cfg.c **** 
 646:Generated_Source\PSoC5/cyfitter_cfg.c **** 		/* Copy device configuration data into registers */
 647:Generated_Source\PSoC5/cyfitter_cfg.c **** 		for (i = 0u; i < (sizeof(cfg_memcpy_list)/sizeof(cfg_memcpy_list[0])); i++)
 648:Generated_Source\PSoC5/cyfitter_cfg.c **** 		{
 649:Generated_Source\PSoC5/cyfitter_cfg.c **** 			const cfg_memcpy_t CYCODE * CYDATA mc = &cfg_memcpy_list[i];
 650:Generated_Source\PSoC5/cyfitter_cfg.c **** 			void * CYDATA destPtr = mc->dest;
 453              		.loc 1 650 0 is_stmt 1 discriminator 3
 454 0034 3049     		ldr	r1, .L35+4
ARM GAS  C:\Users\JEFFSN~1\AppData\Local\Temp\cc8qYcnw.s 			page 21


 455 0036 A300     		lsls	r3, r4, #2
 456 0038 1819     		adds	r0, r3, r4
 457 003a 4200     		lsls	r2, r0, #1
 458 003c 8818     		adds	r0, r1, r2
 459              	.LVL38:
 651:Generated_Source\PSoC5/cyfitter_cfg.c **** 			const void CYCODE * CYDATA srcPtr = mc->src;
 652:Generated_Source\PSoC5/cyfitter_cfg.c **** 			uint16 CYDATA numBytes = mc->size;
 653:Generated_Source\PSoC5/cyfitter_cfg.c **** 			CYCONFIGCPYCODE(destPtr, srcPtr, numBytes);
 460              		.loc 1 653 0 discriminator 3
 461 003e 8022     		movs	r2, #128
 462 0040 C16B     		ldr	r1, [r0, #60]	@ unaligned
 463              	.LVL39:
 464 0042 806B     		ldr	r0, [r0, #56]	@ unaligned
 465              	.LVL40:
 466 0044 FFF7FEFF 		bl	CYCONFIGCPYCODE
 467              	.LVL41:
 468              	.LBE5:
 647:Generated_Source\PSoC5/cyfitter_cfg.c **** 		{
 469              		.loc 1 647 0 discriminator 3
 470 0048 0134     		adds	r4, r4, #1
 471              	.LVL42:
 472 004a E4B2     		uxtb	r4, r4
 473              	.LVL43:
 474              	.L32:
 647:Generated_Source\PSoC5/cyfitter_cfg.c **** 		{
 475              		.loc 1 647 0 is_stmt 0 discriminator 1
 476 004c 002C     		cmp	r4, #0
 477 004e F1D0     		beq	.L33
 654:Generated_Source\PSoC5/cyfitter_cfg.c **** 		}
 655:Generated_Source\PSoC5/cyfitter_cfg.c **** 
 656:Generated_Source\PSoC5/cyfitter_cfg.c **** 		cfg_write_bytes32(cy_cfg_addr_table, cy_cfg_data_table);
 478              		.loc 1 656 0 is_stmt 1
 479 0050 294C     		ldr	r4, .L35+4
 480              	.LVL44:
 481 0052 04F14401 		add	r1, r4, #68
 482 0056 04F5F270 		add	r0, r4, #484
 483 005a FFF7FEFF 		bl	cfg_write_bytes32
 484              	.LVL45:
 657:Generated_Source\PSoC5/cyfitter_cfg.c **** 
 658:Generated_Source\PSoC5/cyfitter_cfg.c **** 		/* Enable digital routing */
 659:Generated_Source\PSoC5/cyfitter_cfg.c **** 		CY_SET_XTND_REG8((void CYFAR *)CYREG_BCTL0_BANK_CTL, CY_GET_XTND_REG8((void CYFAR *)CYREG_BCTL0_B
 485              		.loc 1 659 0
 486 005e 274A     		ldr	r2, .L35+8
 487 0060 1378     		ldrb	r3, [r2]	@ zero_extendqisi2
 488 0062 43F00203 		orr	r3, r3, #2
 489 0066 1370     		strb	r3, [r2]
 660:Generated_Source\PSoC5/cyfitter_cfg.c **** 		CY_SET_XTND_REG8((void CYFAR *)CYREG_BCTL1_BANK_CTL, CY_GET_XTND_REG8((void CYFAR *)CYREG_BCTL1_B
 490              		.loc 1 660 0
 491 0068 1032     		adds	r2, r2, #16
 492 006a 1378     		ldrb	r3, [r2]	@ zero_extendqisi2
 493 006c 43F00203 		orr	r3, r3, #2
 494 0070 1370     		strb	r3, [r2]
 661:Generated_Source\PSoC5/cyfitter_cfg.c **** 
 662:Generated_Source\PSoC5/cyfitter_cfg.c **** 		/* Enable UDB array */
 663:Generated_Source\PSoC5/cyfitter_cfg.c **** 		CY_SET_XTND_REG8((void CYFAR *)CYREG_PM_ACT_CFG0, CY_GET_XTND_REG8((void CYFAR *)CYREG_PM_ACT_CFG
 495              		.loc 1 663 0
 496 0072 234D     		ldr	r5, .L35+12
ARM GAS  C:\Users\JEFFSN~1\AppData\Local\Temp\cc8qYcnw.s 			page 22


 497 0074 2B78     		ldrb	r3, [r5]	@ zero_extendqisi2
 498 0076 43F04003 		orr	r3, r3, #64
 499 007a 2B70     		strb	r3, [r5]
 664:Generated_Source\PSoC5/cyfitter_cfg.c **** 		CY_SET_XTND_REG8((void CYFAR *)CYREG_PM_AVAIL_CR2, CY_GET_XTND_REG8((void CYFAR *)CYREG_PM_AVAIL_
 500              		.loc 1 664 0
 501 007c A2F58632 		sub	r2, r2, #68608
 502 0080 513A     		subs	r2, r2, #81
 503 0082 1378     		ldrb	r3, [r2]	@ zero_extendqisi2
 504 0084 43F01003 		orr	r3, r3, #16
 505 0088 1370     		strb	r3, [r2]
 506              	.LBE3:
 665:Generated_Source\PSoC5/cyfitter_cfg.c **** 	}
 666:Generated_Source\PSoC5/cyfitter_cfg.c **** 
 667:Generated_Source\PSoC5/cyfitter_cfg.c **** 
 668:Generated_Source\PSoC5/cyfitter_cfg.c **** 	/* Perform second pass device configuration. These items must be configured in specific order afte
 669:Generated_Source\PSoC5/cyfitter_cfg.c **** 	CYCONFIGCPYCODE((void CYFAR *)(CYREG_PRT12_DM0), (const void CYCODE *)(BS_IOPINS0_7_VAL), 8u);
 507              		.loc 1 669 0
 508 008a 0822     		movs	r2, #8
 509 008c 04F50771 		add	r1, r4, #540
 510 0090 1C48     		ldr	r0, .L35+16
 511 0092 FFF7FEFF 		bl	CYCONFIGCPYCODE
 512              	.LVL46:
 670:Generated_Source\PSoC5/cyfitter_cfg.c **** 	CYCONFIGCPYCODE((void CYFAR *)(CYREG_PRT15_DM0), (const void CYCODE *)(BS_IOPINS0_8_VAL), 8u);
 513              		.loc 1 670 0
 514 0096 0822     		movs	r2, #8
 515 0098 04F50971 		add	r1, r4, #548
 516 009c 1A48     		ldr	r0, .L35+20
 517 009e FFF7FEFF 		bl	CYCONFIGCPYCODE
 518              	.LVL47:
 671:Generated_Source\PSoC5/cyfitter_cfg.c **** 	CYCONFIGCPYCODE((void CYFAR *)(CYREG_PRT1_DM0), (const void CYCODE *)(BS_IOPINS0_1_VAL), 8u);
 519              		.loc 1 671 0
 520 00a2 0822     		movs	r2, #8
 521 00a4 04F50B71 		add	r1, r4, #556
 522 00a8 1848     		ldr	r0, .L35+24
 523 00aa FFF7FEFF 		bl	CYCONFIGCPYCODE
 524              	.LVL48:
 672:Generated_Source\PSoC5/cyfitter_cfg.c **** 	CYCONFIGCPYCODE((void CYFAR *)(CYREG_PRT3_DM0), (const void CYCODE *)(BS_IOPINS0_3_VAL), 8u);
 525              		.loc 1 672 0
 526 00ae 0822     		movs	r2, #8
 527 00b0 04F50D71 		add	r1, r4, #564
 528 00b4 1648     		ldr	r0, .L35+28
 529 00b6 FFF7FEFF 		bl	CYCONFIGCPYCODE
 530              	.LVL49:
 673:Generated_Source\PSoC5/cyfitter_cfg.c **** 	CYCONFIGCPYCODE((void CYFAR *)(CYREG_PRT4_DM0), (const void CYCODE *)(BS_IOPINS0_4_VAL), 8u);
 531              		.loc 1 673 0
 532 00ba 0822     		movs	r2, #8
 533 00bc 04F50F71 		add	r1, r4, #572
 534 00c0 1448     		ldr	r0, .L35+32
 535 00c2 FFF7FEFF 		bl	CYCONFIGCPYCODE
 536              	.LVL50:
 674:Generated_Source\PSoC5/cyfitter_cfg.c **** 	/* Switch Boost to the precision bandgap reference from its internal reference */
 675:Generated_Source\PSoC5/cyfitter_cfg.c **** 	CY_SET_REG8((void CYXDATA *)CYREG_BOOST_CR2, (CY_GET_REG8((void CYXDATA *)CYREG_BOOST_CR2) | 0x08u
 537              		.loc 1 675 0
 538 00c6 144A     		ldr	r2, .L35+36
 539 00c8 1378     		ldrb	r3, [r2]	@ zero_extendqisi2
 540 00ca 43F00803 		orr	r3, r3, #8
 541 00ce 1370     		strb	r3, [r2]
ARM GAS  C:\Users\JEFFSN~1\AppData\Local\Temp\cc8qYcnw.s 			page 23


 676:Generated_Source\PSoC5/cyfitter_cfg.c **** 
 677:Generated_Source\PSoC5/cyfitter_cfg.c **** 	/* Set Flash Cycles based on max possible frequency in case a glitch occurs during ClockSetup(). *
 678:Generated_Source\PSoC5/cyfitter_cfg.c **** 	CY_SET_XTND_REG8((void CYFAR *)(CYREG_CACHE_CC_CTL), (((CYDEV_INSTRUCT_CACHE_ENABLED) != 0) ? 0x61
 542              		.loc 1 678 0
 543 00d0 124C     		ldr	r4, .L35+40
 544 00d2 6123     		movs	r3, #97
 545 00d4 2370     		strb	r3, [r4]
 679:Generated_Source\PSoC5/cyfitter_cfg.c **** 	/* Setup clocks based on selections from Clock DWR */
 680:Generated_Source\PSoC5/cyfitter_cfg.c **** 	ClockSetup();
 546              		.loc 1 680 0
 547 00d6 FFF7FEFF 		bl	ClockSetup
 548              	.LVL51:
 681:Generated_Source\PSoC5/cyfitter_cfg.c **** 	/* Set Flash Cycles based on newly configured 24.00MHz Bus Clock. */
 682:Generated_Source\PSoC5/cyfitter_cfg.c **** 	CY_SET_XTND_REG8((void CYFAR *)(CYREG_CACHE_CC_CTL), (((CYDEV_INSTRUCT_CACHE_ENABLED) != 0) ? 0x81
 549              		.loc 1 682 0
 550 00da 8123     		movs	r3, #129
 551 00dc 2370     		strb	r3, [r4]
 683:Generated_Source\PSoC5/cyfitter_cfg.c **** 	CY_SET_XTND_REG8((void CYFAR *)(CYREG_PANTHER_WAITPIPE), 0x01u);
 552              		.loc 1 683 0
 553 00de 0122     		movs	r2, #1
 554 00e0 0F4B     		ldr	r3, .L35+44
 555 00e2 1A70     		strb	r2, [r3]
 684:Generated_Source\PSoC5/cyfitter_cfg.c **** 
 685:Generated_Source\PSoC5/cyfitter_cfg.c **** 	/* Perform basic analog initialization to defaults */
 686:Generated_Source\PSoC5/cyfitter_cfg.c **** 	AnalogSetDefault();
 556              		.loc 1 686 0
 557 00e4 FFF7FEFF 		bl	AnalogSetDefault
 558              	.LVL52:
 687:Generated_Source\PSoC5/cyfitter_cfg.c **** 
 688:Generated_Source\PSoC5/cyfitter_cfg.c **** 	/* Configure alternate active mode */
 689:Generated_Source\PSoC5/cyfitter_cfg.c **** 	CYCONFIGCPY((void CYFAR *)CYDEV_PM_STBY_BASE, (const void CYFAR *)CYDEV_PM_ACT_BASE, 14u);
 559              		.loc 1 689 0
 560 00e8 0E22     		movs	r2, #14
 561 00ea 2946     		mov	r1, r5
 562 00ec 0D48     		ldr	r0, .L35+48
 563 00ee FFF7FEFF 		bl	CYCONFIGCPY
 564              	.LVL53:
 565 00f2 38BD     		pop	{r3, r4, r5, pc}
 566              	.L36:
 567              		.align	2
 568              	.L35:
 569 00f4 E8460040 		.word	1073759976
 570 00f8 00000000 		.word	.LANCHOR0
 571 00fc 03500140 		.word	1073827843
 572 0100 A0430040 		.word	1073759136
 573 0104 C2510040 		.word	1073762754
 574 0108 F2510040 		.word	1073762802
 575 010c 12510040 		.word	1073762578
 576 0110 32510040 		.word	1073762610
 577 0114 42510040 		.word	1073762626
 578 0118 22430040 		.word	1073759010
 579 011c 00480040 		.word	1073760256
 580 0120 04000840 		.word	1074266116
 581 0124 B0430040 		.word	1073759152
 582              		.cfi_endproc
 583              	.LFE8:
 584              		.size	cyfitter_cfg, .-cyfitter_cfg
ARM GAS  C:\Users\JEFFSN~1\AppData\Local\Temp\cc8qYcnw.s 			page 24


 585              		.section	.rodata
 586              		.align	2
 587              		.set	.LANCHOR0,. + 0
 588              		.type	cfg_memset_list.5025, %object
 589              		.size	cfg_memset_list.5025, 54
 590              	cfg_memset_list.5025:
 591 0000 00510040 		.word	1073762560
 592 0004 1000     		.short	16
 593 0006 20510040 		.4byte	1073762592
 594 000a 1000     		.short	16
 595 000c 50510040 		.word	1073762640
 596 0010 2000     		.short	32
 597 0012 00000140 		.4byte	1073807360
 598 0016 0010     		.short	4096
 599 0018 00140140 		.word	1073812480
 600 001c 0002     		.short	512
 601 001e 80160140 		.4byte	1073813120
 602 0022 8005     		.short	1408
 603 0024 00400140 		.word	1073823744
 604 0028 000A     		.short	2560
 605 002a 004C0140 		.4byte	1073826816
 606 002e 0002     		.short	512
 607 0030 00500140 		.word	1073827840
 608 0034 2000     		.short	32
 609 0036 0000     		.space	2
 610              		.type	cfg_memcpy_list.5027, %object
 611              		.size	cfg_memcpy_list.5027, 10
 612              	cfg_memcpy_list.5027:
 613 0038 00160140 		.word	1073812992
 614 003c 44020000 		.word	BS_UDB_1_1_1_CONFIG_VAL.5026
 615 0040 8000     		.short	128
 616 0042 0000     		.space	2
 617              		.type	cy_cfg_data_table.5015, %object
 618              		.size	cy_cfg_data_table.5015, 416
 619              	cy_cfg_data_table.5015:
 620 0044 18       		.byte	24
 621 0045 01       		.byte	1
 622 0046 19       		.byte	25
 623 0047 02       		.byte	2
 624 0048 79       		.byte	121
 625 0049 02       		.byte	2
 626 004a 86       		.byte	-122
 627 004b 0F       		.byte	15
 628 004c 00       		.byte	0
 629 004d 04       		.byte	4
 630 004e 02       		.byte	2
 631 004f 09       		.byte	9
 632 0050 0C       		.byte	12
 633 0051 0E       		.byte	14
 634 0052 10       		.byte	16
 635 0053 05       		.byte	5
 636 0054 12       		.byte	18
 637 0055 0A       		.byte	10
 638 0056 24       		.byte	36
 639 0057 03       		.byte	3
 640 0058 26       		.byte	38
 641 0059 04       		.byte	4
ARM GAS  C:\Users\JEFFSN~1\AppData\Local\Temp\cc8qYcnw.s 			page 25


 642 005a 30       		.byte	48
 643 005b 0F       		.byte	15
 644 005c 38       		.byte	56
 645 005d 02       		.byte	2
 646 005e 54       		.byte	84
 647 005f 40       		.byte	64
 648 0060 56       		.byte	86
 649 0061 04       		.byte	4
 650 0062 58       		.byte	88
 651 0063 04       		.byte	4
 652 0064 5B       		.byte	91
 653 0065 04       		.byte	4
 654 0066 5F       		.byte	95
 655 0067 01       		.byte	1
 656 0068 80       		.byte	-128
 657 0069 56       		.byte	86
 658 006a 81       		.byte	-127
 659 006b 09       		.byte	9
 660 006c 82       		.byte	-126
 661 006d 09       		.byte	9
 662 006e 83       		.byte	-125
 663 006f 36       		.byte	54
 664 0070 86       		.byte	-122
 665 0071 80       		.byte	-128
 666 0072 87       		.byte	-121
 667 0073 10       		.byte	16
 668 0074 88       		.byte	-120
 669 0075 07       		.byte	7
 670 0076 8A       		.byte	-118
 671 0077 38       		.byte	56
 672 0078 8C       		.byte	-116
 673 0079 60       		.byte	96
 674 007a 90       		.byte	-112
 675 007b 04       		.byte	4
 676 007c 91       		.byte	-111
 677 007d 05       		.byte	5
 678 007e 92       		.byte	-110
 679 007f 80       		.byte	-128
 680 0080 93       		.byte	-109
 681 0081 3A       		.byte	58
 682 0082 94       		.byte	-108
 683 0083 04       		.byte	4
 684 0084 95       		.byte	-107
 685 0085 23       		.byte	35
 686 0086 97       		.byte	-105
 687 0087 0C       		.byte	12
 688 0088 98       		.byte	-104
 689 0089 01       		.byte	1
 690 008a 99       		.byte	-103
 691 008b 02       		.byte	2
 692 008c 9B       		.byte	-101
 693 008d 0D       		.byte	13
 694 008e 9C       		.byte	-100
 695 008f 0A       		.byte	10
 696 0090 9E       		.byte	-98
 697 0091 10       		.byte	16
 698 0092 A0       		.byte	-96
ARM GAS  C:\Users\JEFFSN~1\AppData\Local\Temp\cc8qYcnw.s 			page 26


 699 0093 84       		.byte	-124
 700 0094 A4       		.byte	-92
 701 0095 80       		.byte	-128
 702 0096 A6       		.byte	-90
 703 0097 04       		.byte	4
 704 0098 A8       		.byte	-88
 705 0099 84       		.byte	-124
 706 009a AC       		.byte	-84
 707 009b 84       		.byte	-124
 708 009c B2       		.byte	-78
 709 009d 80       		.byte	-128
 710 009e B3       		.byte	-77
 711 009f 30       		.byte	48
 712 00a0 B4       		.byte	-76
 713 00a1 7F       		.byte	127
 714 00a2 B5       		.byte	-75
 715 00a3 0F       		.byte	15
 716 00a4 B8       		.byte	-72
 717 00a5 20       		.byte	32
 718 00a6 BB       		.byte	-69
 719 00a7 20       		.byte	32
 720 00a8 BE       		.byte	-66
 721 00a9 04       		.byte	4
 722 00aa D4       		.byte	-44
 723 00ab 09       		.byte	9
 724 00ac D6       		.byte	-42
 725 00ad 04       		.byte	4
 726 00ae D8       		.byte	-40
 727 00af 04       		.byte	4
 728 00b0 D9       		.byte	-39
 729 00b1 04       		.byte	4
 730 00b2 DB       		.byte	-37
 731 00b3 04       		.byte	4
 732 00b4 DF       		.byte	-33
 733 00b5 01       		.byte	1
 734 00b6 00       		.byte	0
 735 00b7 41       		.byte	65
 736 00b8 04       		.byte	4
 737 00b9 02       		.byte	2
 738 00ba 05       		.byte	5
 739 00bb 04       		.byte	4
 740 00bc 06       		.byte	6
 741 00bd 11       		.byte	17
 742 00be 07       		.byte	7
 743 00bf 08       		.byte	8
 744 00c0 09       		.byte	9
 745 00c1 02       		.byte	2
 746 00c2 0C       		.byte	12
 747 00c3 02       		.byte	2
 748 00c4 0D       		.byte	13
 749 00c5 08       		.byte	8
 750 00c6 0E       		.byte	14
 751 00c7 0A       		.byte	10
 752 00c8 13       		.byte	19
 753 00c9 08       		.byte	8
 754 00ca 15       		.byte	21
 755 00cb 01       		.byte	1
ARM GAS  C:\Users\JEFFSN~1\AppData\Local\Temp\cc8qYcnw.s 			page 27


 756 00cc 16       		.byte	22
 757 00cd 02       		.byte	2
 758 00ce 17       		.byte	23
 759 00cf 14       		.byte	20
 760 00d0 18       		.byte	24
 761 00d1 40       		.byte	64
 762 00d2 1C       		.byte	28
 763 00d3 10       		.byte	16
 764 00d4 1E       		.byte	30
 765 00d5 08       		.byte	8
 766 00d6 25       		.byte	37
 767 00d7 24       		.byte	36
 768 00d8 26       		.byte	38
 769 00d9 28       		.byte	40
 770 00da 36       		.byte	54
 771 00db 21       		.byte	33
 772 00dc 37       		.byte	55
 773 00dd 08       		.byte	8
 774 00de 3C       		.byte	60
 775 00df 01       		.byte	1
 776 00e0 3D       		.byte	61
 777 00e1 08       		.byte	8
 778 00e2 45       		.byte	69
 779 00e3 20       		.byte	32
 780 00e4 46       		.byte	70
 781 00e5 08       		.byte	8
 782 00e6 5E       		.byte	94
 783 00e7 41       		.byte	65
 784 00e8 5F       		.byte	95
 785 00e9 14       		.byte	20
 786 00ea 60       		.byte	96
 787 00eb 90       		.byte	-112
 788 00ec 61       		.byte	97
 789 00ed 80       		.byte	-128
 790 00ee 63       		.byte	99
 791 00ef 08       		.byte	8
 792 00f0 66       		.byte	102
 793 00f1 40       		.byte	64
 794 00f2 67       		.byte	103
 795 00f3 40       		.byte	64
 796 00f4 84       		.byte	-124
 797 00f5 80       		.byte	-128
 798 00f6 88       		.byte	-120
 799 00f7 80       		.byte	-128
 800 00f8 8B       		.byte	-117
 801 00f9 50       		.byte	80
 802 00fa 8C       		.byte	-116
 803 00fb 40       		.byte	64
 804 00fc 8D       		.byte	-115
 805 00fd 84       		.byte	-124
 806 00fe 8E       		.byte	-114
 807 00ff 08       		.byte	8
 808 0100 90       		.byte	-112
 809 0101 03       		.byte	3
 810 0102 91       		.byte	-111
 811 0103 01       		.byte	1
 812 0104 92       		.byte	-110
ARM GAS  C:\Users\JEFFSN~1\AppData\Local\Temp\cc8qYcnw.s 			page 28


 813 0105 41       		.byte	65
 814 0106 93       		.byte	-109
 815 0107 04       		.byte	4
 816 0108 9A       		.byte	-102
 817 0109 53       		.byte	83
 818 010a 9B       		.byte	-101
 819 010b 1C       		.byte	28
 820 010c 9E       		.byte	-98
 821 010d 08       		.byte	8
 822 010e A0       		.byte	-96
 823 010f 82       		.byte	-126
 824 0110 A1       		.byte	-95
 825 0111 0A       		.byte	10
 826 0112 A2       		.byte	-94
 827 0113 01       		.byte	1
 828 0114 A3       		.byte	-93
 829 0115 04       		.byte	4
 830 0116 A6       		.byte	-90
 831 0117 04       		.byte	4
 832 0118 B1       		.byte	-79
 833 0119 20       		.byte	32
 834 011a B2       		.byte	-78
 835 011b 44       		.byte	68
 836 011c B6       		.byte	-74
 837 011d 04       		.byte	4
 838 011e C0       		.byte	-64
 839 011f F9       		.byte	-7
 840 0120 C2       		.byte	-62
 841 0121 F8       		.byte	-8
 842 0122 C4       		.byte	-60
 843 0123 F4       		.byte	-12
 844 0124 CC       		.byte	-52
 845 0125 E0       		.byte	-32
 846 0126 CE       		.byte	-50
 847 0127 C0       		.byte	-64
 848 0128 D6       		.byte	-42
 849 0129 F0       		.byte	-16
 850 012a D8       		.byte	-40
 851 012b 9F       		.byte	-97
 852 012c E2       		.byte	-30
 853 012d 60       		.byte	96
 854 012e E6       		.byte	-26
 855 012f 40       		.byte	64
 856 0130 E8       		.byte	-24
 857 0131 80       		.byte	-128
 858 0132 EA       		.byte	-22
 859 0133 40       		.byte	64
 860 0134 80       		.byte	-128
 861 0135 04       		.byte	4
 862 0136 90       		.byte	-112
 863 0137 06       		.byte	6
 864 0138 92       		.byte	-110
 865 0139 01       		.byte	1
 866 013a A0       		.byte	-96
 867 013b 04       		.byte	4
 868 013c A4       		.byte	-92
 869 013d 01       		.byte	1
ARM GAS  C:\Users\JEFFSN~1\AppData\Local\Temp\cc8qYcnw.s 			page 29


 870 013e A6       		.byte	-90
 871 013f 02       		.byte	2
 872 0140 B6       		.byte	-74
 873 0141 07       		.byte	7
 874 0142 BA       		.byte	-70
 875 0143 80       		.byte	-128
 876 0144 D8       		.byte	-40
 877 0145 04       		.byte	4
 878 0146 DF       		.byte	-33
 879 0147 01       		.byte	1
 880 0148 00       		.byte	0
 881 0149 01       		.byte	1
 882 014a 04       		.byte	4
 883 014b 02       		.byte	2
 884 014c 07       		.byte	7
 885 014d 09       		.byte	9
 886 014e 09       		.byte	9
 887 014f 02       		.byte	2
 888 0150 0C       		.byte	12
 889 0151 02       		.byte	2
 890 0152 0E       		.byte	14
 891 0153 12       		.byte	18
 892 0154 10       		.byte	16
 893 0155 80       		.byte	-128
 894 0156 13       		.byte	19
 895 0157 08       		.byte	8
 896 0158 15       		.byte	21
 897 0159 01       		.byte	1
 898 015a 17       		.byte	23
 899 015b 14       		.byte	20
 900 015c 18       		.byte	24
 901 015d 03       		.byte	3
 902 015e 19       		.byte	25
 903 015f 80       		.byte	-128
 904 0160 1D       		.byte	29
 905 0161 A0       		.byte	-96
 906 0162 1E       		.byte	30
 907 0163 51       		.byte	81
 908 0164 24       		.byte	36
 909 0165 10       		.byte	16
 910 0166 25       		.byte	37
 911 0167 0A       		.byte	10
 912 0168 26       		.byte	38
 913 0169 01       		.byte	1
 914 016a 27       		.byte	39
 915 016b 08       		.byte	8
 916 016c 2D       		.byte	45
 917 016d 81       		.byte	-127
 918 016e 36       		.byte	54
 919 016f 51       		.byte	81
 920 0170 37       		.byte	55
 921 0171 08       		.byte	8
 922 0172 3C       		.byte	60
 923 0173 10       		.byte	16
 924 0174 3E       		.byte	62
 925 0175 06       		.byte	6
 926 0176 3F       		.byte	63
ARM GAS  C:\Users\JEFFSN~1\AppData\Local\Temp\cc8qYcnw.s 			page 30


 927 0177 80       		.byte	-128
 928 0178 45       		.byte	69
 929 0179 82       		.byte	-126
 930 017a 47       		.byte	71
 931 017b 08       		.byte	8
 932 017c 4C       		.byte	76
 933 017d 01       		.byte	1
 934 017e 4E       		.byte	78
 935 017f 04       		.byte	4
 936 0180 4F       		.byte	79
 937 0181 04       		.byte	4
 938 0182 54       		.byte	84
 939 0183 80       		.byte	-128
 940 0184 56       		.byte	86
 941 0185 11       		.byte	17
 942 0186 57       		.byte	87
 943 0187 44       		.byte	68
 944 0188 66       		.byte	102
 945 0189 08       		.byte	8
 946 018a 6C       		.byte	108
 947 018b 02       		.byte	2
 948 018c 6D       		.byte	109
 949 018d 01       		.byte	1
 950 018e 6E       		.byte	110
 951 018f A4       		.byte	-92
 952 0190 6F       		.byte	111
 953 0191 14       		.byte	20
 954 0192 76       		.byte	118
 955 0193 02       		.byte	2
 956 0194 77       		.byte	119
 957 0195 01       		.byte	1
 958 0196 C0       		.byte	-64
 959 0197 D8       		.byte	-40
 960 0198 C2       		.byte	-62
 961 0199 B8       		.byte	-72
 962 019a C4       		.byte	-60
 963 019b 7C       		.byte	124
 964 019c CA       		.byte	-54
 965 019d 90       		.byte	-112
 966 019e CC       		.byte	-52
 967 019f F0       		.byte	-16
 968 01a0 CE       		.byte	-50
 969 01a1 F0       		.byte	-16
 970 01a2 D0       		.byte	-48
 971 01a3 D0       		.byte	-48
 972 01a4 D2       		.byte	-46
 973 01a5 30       		.byte	48
 974 01a6 D8       		.byte	-40
 975 01a7 40       		.byte	64
 976 01a8 30       		.byte	48
 977 01a9 10       		.byte	16
 978 01aa 36       		.byte	54
 979 01ab 40       		.byte	64
 980 01ac CC       		.byte	-52
 981 01ad 30       		.byte	48
 982 01ae 9C       		.byte	-100
 983 01af 10       		.byte	16
ARM GAS  C:\Users\JEFFSN~1\AppData\Local\Temp\cc8qYcnw.s 			page 31


 984 01b0 A6       		.byte	-90
 985 01b1 40       		.byte	64
 986 01b2 9C       		.byte	-100
 987 01b3 10       		.byte	16
 988 01b4 A6       		.byte	-90
 989 01b5 40       		.byte	64
 990 01b6 9C       		.byte	-100
 991 01b7 10       		.byte	16
 992 01b8 A6       		.byte	-90
 993 01b9 40       		.byte	64
 994 01ba 00       		.byte	0
 995 01bb 02       		.byte	2
 996 01bc 5A       		.byte	90
 997 01bd 20       		.byte	32
 998 01be 9C       		.byte	-100
 999 01bf 10       		.byte	16
 1000 01c0 A6       		.byte	-90
 1001 01c1 40       		.byte	64
 1002 01c2 C0       		.byte	-64
 1003 01c3 10       		.byte	16
 1004 01c4 D4       		.byte	-44
 1005 01c5 80       		.byte	-128
 1006 01c6 50       		.byte	80
 1007 01c7 01       		.byte	1
 1008 01c8 56       		.byte	86
 1009 01c9 20       		.byte	32
 1010 01ca 84       		.byte	-124
 1011 01cb 10       		.byte	16
 1012 01cc 8A       		.byte	-118
 1013 01cd 40       		.byte	64
 1014 01ce 8C       		.byte	-116
 1015 01cf 01       		.byte	1
 1016 01d0 8E       		.byte	-114
 1017 01d1 20       		.byte	32
 1018 01d2 9C       		.byte	-100
 1019 01d3 10       		.byte	16
 1020 01d4 A6       		.byte	-90
 1021 01d5 40       		.byte	64
 1022 01d6 B0       		.byte	-80
 1023 01d7 01       		.byte	1
 1024 01d8 B6       		.byte	-74
 1025 01d9 10       		.byte	16
 1026 01da D4       		.byte	-44
 1027 01db C0       		.byte	-64
 1028 01dc E6       		.byte	-26
 1029 01dd 40       		.byte	64
 1030 01de 10       		.byte	16
 1031 01df 01       		.byte	1
 1032 01e0 1A       		.byte	26
 1033 01e1 01       		.byte	1
 1034 01e2 00       		.byte	0
 1035 01e3 0F       		.byte	15
 1036              		.type	cy_cfg_addr_table.5014, %object
 1037              		.size	cy_cfg_addr_table.5014, 56
 1038              	cy_cfg_addr_table.5014:
 1039 01e4 03520040 		.word	1073762819
 1040 01e8 01650040 		.word	1073767681
ARM GAS  C:\Users\JEFFSN~1\AppData\Local\Temp\cc8qYcnw.s 			page 32


 1041 01ec 35140140 		.word	1073812533
 1042 01f0 3F150140 		.word	1073812799
 1043 01f4 0A160140 		.word	1073813002
 1044 01f8 30170140 		.word	1073813296
 1045 01fc 03400140 		.word	1073823747
 1046 0200 02410140 		.word	1073824002
 1047 0204 02420140 		.word	1073824258
 1048 0208 02430140 		.word	1073824514
 1049 020c 06480140 		.word	1073825798
 1050 0210 0C490140 		.word	1073826060
 1051 0214 02500140 		.word	1073827842
 1052 0218 01510140 		.word	1073828097
 1053              		.type	BS_IOPINS0_7_VAL.5009, %object
 1054              		.size	BS_IOPINS0_7_VAL.5009, 8
 1055              	BS_IOPINS0_7_VAL.5009:
 1056 021c 00       		.byte	0
 1057 021d 0F       		.byte	15
 1058 021e 0F       		.byte	15
 1059 021f 00       		.byte	0
 1060 0220 00       		.byte	0
 1061 0221 00       		.byte	0
 1062 0222 00       		.byte	0
 1063 0223 00       		.byte	0
 1064              		.type	BS_IOPINS0_8_VAL.5010, %object
 1065              		.size	BS_IOPINS0_8_VAL.5010, 8
 1066              	BS_IOPINS0_8_VAL.5010:
 1067 0224 01       		.byte	1
 1068 0225 02       		.byte	2
 1069 0226 02       		.byte	2
 1070 0227 00       		.byte	0
 1071 0228 02       		.byte	2
 1072 0229 00       		.byte	0
 1073 022a 00       		.byte	0
 1074 022b 00       		.byte	0
 1075              		.type	BS_IOPINS0_1_VAL.5011, %object
 1076              		.size	BS_IOPINS0_1_VAL.5011, 8
 1077              	BS_IOPINS0_1_VAL.5011:
 1078 022c 00       		.byte	0
 1079 022d 0B       		.byte	11
 1080 022e 0B       		.byte	11
 1081 022f 00       		.byte	0
 1082 0230 00       		.byte	0
 1083 0231 00       		.byte	0
 1084 0232 00       		.byte	0
 1085 0233 00       		.byte	0
 1086              		.type	BS_IOPINS0_3_VAL.5012, %object
 1087              		.size	BS_IOPINS0_3_VAL.5012, 8
 1088              	BS_IOPINS0_3_VAL.5012:
 1089 0234 00       		.byte	0
 1090 0235 C3       		.byte	-61
 1091 0236 C3       		.byte	-61
 1092 0237 00       		.byte	0
 1093 0238 03       		.byte	3
 1094 0239 00       		.byte	0
 1095 023a 00       		.byte	0
 1096 023b 00       		.byte	0
 1097              		.type	BS_IOPINS0_4_VAL.5013, %object
ARM GAS  C:\Users\JEFFSN~1\AppData\Local\Temp\cc8qYcnw.s 			page 33


 1098              		.size	BS_IOPINS0_4_VAL.5013, 8
 1099              	BS_IOPINS0_4_VAL.5013:
 1100 023c 00       		.byte	0
 1101 023d 03       		.byte	3
 1102 023e 03       		.byte	3
 1103 023f 00       		.byte	0
 1104 0240 00       		.byte	0
 1105 0241 00       		.byte	0
 1106 0242 00       		.byte	0
 1107 0243 00       		.byte	0
 1108              		.type	BS_UDB_1_1_1_CONFIG_VAL.5026, %object
 1109              		.size	BS_UDB_1_1_1_CONFIG_VAL.5026, 128
 1110              	BS_UDB_1_1_1_CONFIG_VAL.5026:
 1111 0244 42       		.byte	66
 1112 0245 9A       		.byte	-102
 1113 0246 28       		.byte	40
 1114 0247 00       		.byte	0
 1115 0248 00       		.byte	0
 1116 0249 98       		.byte	-104
 1117 024a 00       		.byte	0
 1118 024b 02       		.byte	2
 1119 024c 41       		.byte	65
 1120 024d 38       		.byte	56
 1121 024e 22       		.byte	34
 1122 024f C0       		.byte	-64
 1123 0250 1D       		.byte	29
 1124 0251 02       		.byte	2
 1125 0252 00       		.byte	0
 1126 0253 00       		.byte	0
 1127 0254 0D       		.byte	13
 1128 0255 21       		.byte	33
 1129 0256 10       		.byte	16
 1130 0257 D8       		.byte	-40
 1131 0258 02       		.byte	2
 1132 0259 13       		.byte	19
 1133 025a 0D       		.byte	13
 1134 025b 64       		.byte	100
 1135 025c 00       		.byte	0
 1136 025d 02       		.byte	2
 1137 025e 00       		.byte	0
 1138 025f 98       		.byte	-104
 1139 0260 62       		.byte	98
 1140 0261 98       		.byte	-104
 1141 0262 04       		.byte	4
 1142 0263 02       		.byte	2
 1143 0264 1D       		.byte	29
 1144 0265 9A       		.byte	-102
 1145 0266 00       		.byte	0
 1146 0267 00       		.byte	0
 1147 0268 1D       		.byte	29
 1148 0269 00       		.byte	0
 1149 026a 00       		.byte	0
 1150 026b 00       		.byte	0
 1151 026c 1D       		.byte	29
 1152 026d 00       		.byte	0
 1153 026e 00       		.byte	0
 1154 026f 00       		.byte	0
ARM GAS  C:\Users\JEFFSN~1\AppData\Local\Temp\cc8qYcnw.s 			page 34


 1155 0270 00       		.byte	0
 1156 0271 FC       		.byte	-4
 1157 0272 00       		.byte	0
 1158 0273 03       		.byte	3
 1159 0274 20       		.byte	32
 1160 0275 0F       		.byte	15
 1161 0276 0F       		.byte	15
 1162 0277 E0       		.byte	-32
 1163 0278 40       		.byte	64
 1164 0279 13       		.byte	19
 1165 027a 10       		.byte	16
 1166 027b 00       		.byte	0
 1167 027c 00       		.byte	0
 1168 027d 00       		.byte	0
 1169 027e 08       		.byte	8
 1170 027f 0A       		.byte	10
 1171 0280 00       		.byte	0
 1172 0281 00       		.byte	0
 1173 0282 51       		.byte	81
 1174 0283 00       		.byte	0
 1175 0284 45       		.byte	69
 1176 0285 03       		.byte	3
 1177 0286 10       		.byte	16
 1178 0287 00       		.byte	0
 1179 0288 06       		.byte	6
 1180 0289 0E       		.byte	14
 1181 028a DC       		.byte	-36
 1182 028b BF       		.byte	-65
 1183 028c 3D       		.byte	61
 1184 028d FF       		.byte	-1
 1185 028e FF       		.byte	-1
 1186 028f FF       		.byte	-1
 1187 0290 22       		.byte	34
 1188 0291 00       		.byte	0
 1189 0292 F0       		.byte	-16
 1190 0293 08       		.byte	8
 1191 0294 04       		.byte	4
 1192 0295 00       		.byte	0
 1193 0296 00       		.byte	0
 1194 0297 00       		.byte	0
 1195 0298 00       		.byte	0
 1196 0299 00       		.byte	0
 1197 029a 02       		.byte	2
 1198 029b 28       		.byte	40
 1199 029c 04       		.byte	4
 1200 029d 04       		.byte	4
 1201 029e 04       		.byte	4
 1202 029f 04       		.byte	4
 1203 02a0 00       		.byte	0
 1204 02a1 00       		.byte	0
 1205 02a2 00       		.byte	0
 1206 02a3 01       		.byte	1
 1207 02a4 00       		.byte	0
 1208 02a5 00       		.byte	0
 1209 02a6 C0       		.byte	-64
 1210 02a7 00       		.byte	0
 1211 02a8 40       		.byte	64
ARM GAS  C:\Users\JEFFSN~1\AppData\Local\Temp\cc8qYcnw.s 			page 35


 1212 02a9 01       		.byte	1
 1213 02aa 10       		.byte	16
 1214 02ab 11       		.byte	17
 1215 02ac C0       		.byte	-64
 1216 02ad 01       		.byte	1
 1217 02ae 00       		.byte	0
 1218 02af 11       		.byte	17
 1219 02b0 40       		.byte	64
 1220 02b1 01       		.byte	1
 1221 02b2 40       		.byte	64
 1222 02b3 01       		.byte	1
 1223 02b4 00       		.byte	0
 1224 02b5 00       		.byte	0
 1225 02b6 00       		.byte	0
 1226 02b7 00       		.byte	0
 1227 02b8 00       		.byte	0
 1228 02b9 00       		.byte	0
 1229 02ba 00       		.byte	0
 1230 02bb 00       		.byte	0
 1231 02bc 00       		.byte	0
 1232 02bd 00       		.byte	0
 1233 02be 00       		.byte	0
 1234 02bf 00       		.byte	0
 1235 02c0 00       		.byte	0
 1236 02c1 00       		.byte	0
 1237 02c2 00       		.byte	0
 1238 02c3 00       		.byte	0
 1239              		.text
 1240              	.Letext0:
 1241              		.file 2 "c:\\program files (x86)\\cypress\\psoc creator\\4.4\\psoc creator\\import\\gnu\\arm\\5.4.
 1242              		.file 3 "Generated_Source\\PSoC5\\cytypes.h"
 1243              		.file 4 "Generated_Source\\PSoC5\\CyLib.h"