ARM GAS  C:\Users\JEFFSN~1\AppData\Local\Temp\cczJCWOe.s 			page 1


   1              		.syntax unified
   2              		.cpu cortex-m3
   3              		.fpu softvfp
   4              		.eabi_attribute 20, 1
   5              		.eabi_attribute 21, 1
   6              		.eabi_attribute 23, 3
   7              		.eabi_attribute 24, 1
   8              		.eabi_attribute 25, 1
   9              		.eabi_attribute 26, 1
  10              		.eabi_attribute 30, 1
  11              		.eabi_attribute 34, 1
  12              		.eabi_attribute 18, 4
  13              		.thumb
  14              		.syntax unified
  15              		.file	"main.c"
  16              		.text
  17              	.Ltext0:
  18              		.cfi_sections	.debug_frame
  19              		.section	.text.main,"ax",%progbits
  20              		.align	2
  21              		.global	main
  22              		.thumb
  23              		.thumb_func
  24              		.type	main, %function
  25              	main:
  26              	.LFB63:
  27              		.file 1 "main.c"
   1:main.c        **** /* ========================================
   2:main.c        ****  *
   3:main.c        ****  * Copyright YOUR COMPANY, THE YEAR
   4:main.c        ****  * All Rights Reserved
   5:main.c        ****  * UNPUBLISHED, LICENSED SOFTWARE.
   6:main.c        ****  *
   7:main.c        ****  * CONFIDENTIAL AND PROPRIETARY INFORMATION
   8:main.c        ****  * WHICH IS THE PROPERTY OF your company.
   9:main.c        ****  *
  10:main.c        ****  * ========================================
  11:main.c        **** */
  12:main.c        **** #include "project.h"
  13:main.c        **** #include "CyFlash.h"
  14:main.c        **** #include "Bootloader.h"
  15:main.c        **** uint8_t myData[300]; //flash row plus ecc row since ecc is disabled (can be used as normal flash)
  16:main.c        **** uint8_t sendArray[32];
  17:main.c        **** uint8_t receiveArray[32];
  18:main.c        **** uint8_t receivePosition = 0;
  19:main.c        **** uint8_t computedChecksumByte = 0;
  20:main.c        **** uint8_t receivedChecksumByte = 0;
  21:main.c        **** 
  22:main.c        **** uint16_t dataPosition = 0;
  23:main.c        **** uint16_t outputDataPosition = 0;
  24:main.c        **** uint16_t rowNumber = 0;
  25:main.c        **** uint8_t arrayNumber = 0;
  26:main.c        **** uint16_t rowSize = 0;
  27:main.c        **** uint8_t ackCode = 0;
  28:main.c        **** uint8_t eccflash[ CYDEV_FLS_ROW_SIZE + CYDEV_ECC_ROW_SIZE];
  29:main.c        **** uint8_t LEDstate = 0;
  30:main.c        **** int main(void)
ARM GAS  C:\Users\JEFFSN~1\AppData\Local\Temp\cczJCWOe.s 			page 2


  31:main.c        **** {
  28              		.loc 1 31 0
  29              		.cfi_startproc
  30              		@ args = 0, pretend = 0, frame = 0
  31              		@ frame_needed = 0, uses_anonymous_args = 0
  32 0000 38B5     		push	{r3, r4, r5, lr}
  33              		.cfi_def_cfa_offset 16
  34              		.cfi_offset 3, -16
  35              		.cfi_offset 4, -12
  36              		.cfi_offset 5, -8
  37              		.cfi_offset 14, -4
  32:main.c        ****     CyGlobalIntEnable; /* Enable global interrupts. */
  38              		.loc 1 32 0
  39              		.syntax unified
  40              	@ 32 "main.c" 1
  41 0002 62B6     		CPSIE   i
  42              	@ 0 "" 2
  33:main.c        ****     //CyDelay(15000);
  34:main.c        ****     //if we are here from a hard power reset, jump to bootloadable firmware
  35:main.c        ****     uint8_t runType = Bootloader_GET_RUN_TYPE;
  43              		.loc 1 35 0
  44              		.thumb
  45              		.syntax unified
  46 0004 AF4B     		ldr	r3, .L35
  47 0006 1B78     		ldrb	r3, [r3]	@ zero_extendqisi2
  48 0008 03F0C003 		and	r3, r3, #192
  49              	.LVL0:
  36:main.c        ****     if (runType != Bootloader_SCHEDULE_BTLDR)
  50              		.loc 1 36 0
  51 000c 402B     		cmp	r3, #64
  52 000e 40F05181 		bne	.L33
  37:main.c        ****     {
  38:main.c        ****         /* Schedule Bootloadable to start after a reset */
  39:main.c        ****         Bootloader_SET_RUN_TYPE(Bootloader_SCHEDULE_BTLDB);
  40:main.c        ****         CySoftwareReset();
  41:main.c        ****     }
  42:main.c        ****     else
  43:main.c        ****     {
  44:main.c        ****         //needs user-supplied memory allocation to handle flash writes
  45:main.c        ****         CySetFlashEEBuffer(eccflash); 
  53              		.loc 1 45 0
  54 0012 AD48     		ldr	r0, .L35+4
  55 0014 FFF7FEFF 		bl	CySetFlashEEBuffer
  56              	.LVL1:
  46:main.c        ****         SPIM_1_Start();
  57              		.loc 1 46 0
  58 0018 FFF7FEFF 		bl	SPIM_1_Start
  59              	.LVL2:
  60              	.LBB2:
  47:main.c        ****        // Bootloader_InitCallback(User_Callback_Function);
  48:main.c        ****         /* Place your initialization/startup code here (e.g. MyInst_Start()) */
  49:main.c        ****         for (int i = 0; i < 30; i++)
  61              		.loc 1 49 0
  62 001c 0023     		movs	r3, #0
  63 001e 03E0     		b	.L3
  64              	.LVL3:
  65              	.L4:
ARM GAS  C:\Users\JEFFSN~1\AppData\Local\Temp\cczJCWOe.s 			page 3


  50:main.c        ****         {
  51:main.c        ****             sendArray[i] = 55;
  66              		.loc 1 51 0 discriminator 3
  67 0020 3721     		movs	r1, #55
  68 0022 AA4A     		ldr	r2, .L35+8
  69 0024 D154     		strb	r1, [r2, r3]
  49:main.c        ****         {
  70              		.loc 1 49 0 discriminator 3
  71 0026 0133     		adds	r3, r3, #1
  72              	.LVL4:
  73              	.L3:
  49:main.c        ****         {
  74              		.loc 1 49 0 is_stmt 0 discriminator 1
  75 0028 1D2B     		cmp	r3, #29
  76 002a F9DD     		ble	.L4
  77              	.LBE2:
  52:main.c        ****         }
  53:main.c        ****         sendArray[30] = 254;
  78              		.loc 1 53 0 is_stmt 1
  79 002c A74B     		ldr	r3, .L35+8
  80              	.LVL5:
  81 002e FE22     		movs	r2, #254
  82 0030 9A77     		strb	r2, [r3, #30]
  54:main.c        ****         sendArray[31] = 253;
  83              		.loc 1 54 0
  84 0032 FD22     		movs	r2, #253
  85 0034 DA77     		strb	r2, [r3, #31]
  55:main.c        ****         LED2_Write(0);
  86              		.loc 1 55 0
  87 0036 0020     		movs	r0, #0
  88 0038 FFF7FEFF 		bl	LED2_Write
  89              	.LVL6:
  56:main.c        ****         LED3_Write(0);
  90              		.loc 1 56 0
  91 003c 0020     		movs	r0, #0
  92 003e FFF7FEFF 		bl	LED3_Write
  93              	.LVL7:
  57:main.c        ****         LED4_Write(0);
  94              		.loc 1 57 0
  95 0042 0020     		movs	r0, #0
  96 0044 FFF7FEFF 		bl	LED4_Write
  97              	.LVL8:
  58:main.c        ****         LED1_Write(0);
  98              		.loc 1 58 0
  99 0048 0020     		movs	r0, #0
 100 004a FFF7FEFF 		bl	LED1_Write
 101              	.LVL9:
  59:main.c        ****         RedLED_Write(0);
 102              		.loc 1 59 0
 103 004e 0020     		movs	r0, #0
 104 0050 FFF7FEFF 		bl	RedLED_Write
 105              	.LVL10:
  60:main.c        ****         RedLED2_Write(0);
 106              		.loc 1 60 0
 107 0054 0020     		movs	r0, #0
 108 0056 FFF7FEFF 		bl	RedLED2_Write
 109              	.LVL11:
ARM GAS  C:\Users\JEFFSN~1\AppData\Local\Temp\cczJCWOe.s 			page 4


  61:main.c        ****         GreenLED_Write(0);
 110              		.loc 1 61 0
 111 005a 0020     		movs	r0, #0
 112 005c FFF7FEFF 		bl	GreenLED_Write
 113              	.LVL12:
  62:main.c        ****         GreenLED2_Write(0);
 114              		.loc 1 62 0
 115 0060 0020     		movs	r0, #0
 116 0062 FFF7FEFF 		bl	GreenLED2_Write
 117              	.LVL13:
 118              	.L5:
  63:main.c        ****         //CyFlash_Start(); 
  64:main.c        ****         while(1)
  65:main.c        ****         {
  66:main.c        ****             //send out some nonsense with the magic bytes at the end
  67:main.c        ****             SPIM_1_PutArray(sendArray, 32);
 119              		.loc 1 67 0
 120 0066 2021     		movs	r1, #32
 121 0068 9848     		ldr	r0, .L35+8
 122 006a FFF7FEFF 		bl	SPIM_1_PutArray
 123              	.LVL14:
 124              	.L6:
  68:main.c        ****             while(!(SPIM_1_ReadTxStatus() & SPIM_1_STS_SPI_DONE));
 125              		.loc 1 68 0 discriminator 1
 126 006e FFF7FEFF 		bl	SPIM_1_ReadTxStatus
 127              	.LVL15:
 128 0072 10F0010F 		tst	r0, #1
 129 0076 FAD0     		beq	.L6
 130 0078 0AE0     		b	.L7
 131              	.L8:
  69:main.c        ****             
  70:main.c        ****             while(SPIM_1_GetRxBufferSize())
  71:main.c        ****             {
  72:main.c        ****                 receiveArray[receivePosition] = SPIM_1_ReadRxData();
 132              		.loc 1 72 0
 133 007a 954C     		ldr	r4, .L35+12
 134 007c 2578     		ldrb	r5, [r4]	@ zero_extendqisi2
 135 007e FFF7FEFF 		bl	SPIM_1_ReadRxData
 136              	.LVL16:
 137 0082 944B     		ldr	r3, .L35+16
 138 0084 5855     		strb	r0, [r3, r5]
  73:main.c        ****                 receivePosition = (receivePosition + 1) & 31;
 139              		.loc 1 73 0
 140 0086 2378     		ldrb	r3, [r4]	@ zero_extendqisi2
 141 0088 0133     		adds	r3, r3, #1
 142 008a 03F01F03 		and	r3, r3, #31
 143 008e 2370     		strb	r3, [r4]
 144              	.L7:
  70:main.c        ****             {
 145              		.loc 1 70 0
 146 0090 FFF7FEFF 		bl	SPIM_1_GetRxBufferSize
 147              	.LVL17:
 148 0094 0028     		cmp	r0, #0
 149 0096 F0D1     		bne	.L8
  74:main.c        ****                 
  75:main.c        ****             }
  76:main.c        ****             SPIM_1_ClearRxBuffer();
ARM GAS  C:\Users\JEFFSN~1\AppData\Local\Temp\cczJCWOe.s 			page 5


 150              		.loc 1 76 0
 151 0098 FFF7FEFF 		bl	SPIM_1_ClearRxBuffer
 152              	.LVL18:
  77:main.c        ****             //collect 30-byte packets over SPI and shove them into myData
  78:main.c        ****             if ((receiveArray[0] == 251) && (receiveArray[31] == 254))
 153              		.loc 1 78 0
 154 009c 8D4B     		ldr	r3, .L35+16
 155 009e 1B78     		ldrb	r3, [r3]	@ zero_extendqisi2
 156 00a0 FB2B     		cmp	r3, #251
 157 00a2 40F0A180 		bne	.L9
 158              		.loc 1 78 0 is_stmt 0 discriminator 1
 159 00a6 8B4A     		ldr	r2, .L35+16
 160 00a8 D27F     		ldrb	r2, [r2, #31]	@ zero_extendqisi2
 161 00aa FE2A     		cmp	r2, #254
 162 00ac 40F09C80 		bne	.L9
 163 00b0 95E0     		b	.L31
 164              	.LVL19:
 165              	.L21:
 166              	.LBB3:
  79:main.c        ****             {
  80:main.c        ****                 
  81:main.c        ****                
  82:main.c        ****                 for (int i = 0; i < 30; i++)
  83:main.c        ****                 {
  84:main.c        ****                     if (dataPosition == 0) 
 167              		.loc 1 84 0 is_stmt 1
 168 00b2 874B     		ldr	r3, .L35+12
 169 00b4 5B88     		ldrh	r3, [r3, #2]
 170 00b6 43B9     		cbnz	r3, .L11
  85:main.c        ****                     {
  86:main.c        ****                         arrayNumber = receiveArray[i+1];   
 171              		.loc 1 86 0
 172 00b8 631C     		adds	r3, r4, #1
 173 00ba 864A     		ldr	r2, .L35+16
 174 00bc D15C     		ldrb	r1, [r2, r3]	@ zero_extendqisi2
 175 00be 844B     		ldr	r3, .L35+12
 176 00c0 1971     		strb	r1, [r3, #4]
  87:main.c        ****                         computedChecksumByte += receiveArray[i+1];
 177              		.loc 1 87 0
 178 00c2 5A79     		ldrb	r2, [r3, #5]	@ zero_extendqisi2
 179 00c4 0A44     		add	r2, r2, r1
 180 00c6 5A71     		strb	r2, [r3, #5]
 181 00c8 47E0     		b	.L12
 182              	.L11:
  88:main.c        ****                     }
  89:main.c        ****                     else if (dataPosition == 1)
 183              		.loc 1 89 0
 184 00ca 012B     		cmp	r3, #1
 185 00cc 09D1     		bne	.L13
  90:main.c        ****                     {   
  91:main.c        ****                         rowNumber = receiveArray[i+1]<<8;
 186              		.loc 1 91 0
 187 00ce 631C     		adds	r3, r4, #1
 188 00d0 804A     		ldr	r2, .L35+16
 189 00d2 D15C     		ldrb	r1, [r2, r3]	@ zero_extendqisi2
 190 00d4 7E4B     		ldr	r3, .L35+12
 191 00d6 0A02     		lsls	r2, r1, #8
ARM GAS  C:\Users\JEFFSN~1\AppData\Local\Temp\cczJCWOe.s 			page 6


 192 00d8 DA80     		strh	r2, [r3, #6]	@ movhi
  92:main.c        ****                         computedChecksumByte += receiveArray[i+1];
 193              		.loc 1 92 0
 194 00da 5A79     		ldrb	r2, [r3, #5]	@ zero_extendqisi2
 195 00dc 0A44     		add	r2, r2, r1
 196 00de 5A71     		strb	r2, [r3, #5]
 197 00e0 3BE0     		b	.L12
 198              	.L13:
  93:main.c        ****                     }
  94:main.c        ****                     else if (dataPosition == 2)
 199              		.loc 1 94 0
 200 00e2 022B     		cmp	r3, #2
 201 00e4 0AD1     		bne	.L14
  95:main.c        ****                     {   
  96:main.c        ****                         rowNumber += receiveArray[i+1];
 202              		.loc 1 96 0
 203 00e6 631C     		adds	r3, r4, #1
 204 00e8 7A4A     		ldr	r2, .L35+16
 205 00ea D05C     		ldrb	r0, [r2, r3]	@ zero_extendqisi2
 206 00ec 784B     		ldr	r3, .L35+12
 207 00ee D988     		ldrh	r1, [r3, #6]
 208 00f0 0144     		add	r1, r1, r0
 209 00f2 D980     		strh	r1, [r3, #6]	@ movhi
  97:main.c        ****                         computedChecksumByte += receiveArray[i+1];
 210              		.loc 1 97 0
 211 00f4 5A79     		ldrb	r2, [r3, #5]	@ zero_extendqisi2
 212 00f6 0244     		add	r2, r2, r0
 213 00f8 5A71     		strb	r2, [r3, #5]
 214 00fa 2EE0     		b	.L12
 215              	.L14:
  98:main.c        ****                     }
  99:main.c        ****                     else if (dataPosition == 3)
 216              		.loc 1 99 0
 217 00fc 032B     		cmp	r3, #3
 218 00fe 09D1     		bne	.L15
 100:main.c        ****                     {   
 101:main.c        ****                         rowSize = receiveArray[i+1]<<8;
 219              		.loc 1 101 0
 220 0100 631C     		adds	r3, r4, #1
 221 0102 744A     		ldr	r2, .L35+16
 222 0104 D15C     		ldrb	r1, [r2, r3]	@ zero_extendqisi2
 223 0106 724B     		ldr	r3, .L35+12
 224 0108 0A02     		lsls	r2, r1, #8
 225 010a 1A81     		strh	r2, [r3, #8]	@ movhi
 102:main.c        ****                         computedChecksumByte += receiveArray[i+1];
 226              		.loc 1 102 0
 227 010c 5A79     		ldrb	r2, [r3, #5]	@ zero_extendqisi2
 228 010e 0A44     		add	r2, r2, r1
 229 0110 5A71     		strb	r2, [r3, #5]
 230 0112 22E0     		b	.L12
 231              	.L15:
 103:main.c        ****                     }
 104:main.c        ****                     else if (dataPosition == 4)
 232              		.loc 1 104 0
 233 0114 042B     		cmp	r3, #4
 234 0116 0AD1     		bne	.L16
 105:main.c        ****                     {   
ARM GAS  C:\Users\JEFFSN~1\AppData\Local\Temp\cczJCWOe.s 			page 7


 106:main.c        ****                         rowSize += receiveArray[i+1];
 235              		.loc 1 106 0
 236 0118 631C     		adds	r3, r4, #1
 237 011a 6E4A     		ldr	r2, .L35+16
 238 011c D05C     		ldrb	r0, [r2, r3]	@ zero_extendqisi2
 239 011e 6C4B     		ldr	r3, .L35+12
 240 0120 1989     		ldrh	r1, [r3, #8]
 241 0122 0144     		add	r1, r1, r0
 242 0124 1981     		strh	r1, [r3, #8]	@ movhi
 107:main.c        ****                         computedChecksumByte += receiveArray[i+1];
 243              		.loc 1 107 0
 244 0126 5A79     		ldrb	r2, [r3, #5]	@ zero_extendqisi2
 245 0128 0244     		add	r2, r2, r0
 246 012a 5A71     		strb	r2, [r3, #5]
 247 012c 15E0     		b	.L12
 248              	.L16:
 108:main.c        ****                     }
 109:main.c        ****                     else if (dataPosition == 293)
 249              		.loc 1 109 0
 250 012e 40F22512 		movw	r2, #293
 251 0132 9342     		cmp	r3, r2
 252 0134 05D1     		bne	.L17
 110:main.c        ****                     {
 111:main.c        ****                         receivedChecksumByte = receiveArray[i+1];
 253              		.loc 1 111 0
 254 0136 631C     		adds	r3, r4, #1
 255 0138 664A     		ldr	r2, .L35+16
 256 013a D25C     		ldrb	r2, [r2, r3]	@ zero_extendqisi2
 257 013c 644B     		ldr	r3, .L35+12
 258 013e 9A72     		strb	r2, [r3, #10]
 259 0140 0BE0     		b	.L12
 260              	.L17:
 112:main.c        ****                     }
 113:main.c        ****                     else
 114:main.c        ****                     {
 115:main.c        ****                         myData[outputDataPosition] = receiveArray[i+1];
 261              		.loc 1 115 0
 262 0142 634B     		ldr	r3, .L35+12
 263 0144 9A89     		ldrh	r2, [r3, #12]
 264 0146 611C     		adds	r1, r4, #1
 265 0148 6248     		ldr	r0, .L35+16
 266 014a 405C     		ldrb	r0, [r0, r1]	@ zero_extendqisi2
 267 014c 6249     		ldr	r1, .L35+20
 268 014e 8854     		strb	r0, [r1, r2]
 116:main.c        ****                         computedChecksumByte += receiveArray[i+1];
 269              		.loc 1 116 0
 270 0150 5979     		ldrb	r1, [r3, #5]	@ zero_extendqisi2
 271 0152 0144     		add	r1, r1, r0
 272 0154 5971     		strb	r1, [r3, #5]
 117:main.c        ****                         outputDataPosition++;
 273              		.loc 1 117 0
 274 0156 0132     		adds	r2, r2, #1
 275 0158 9A81     		strh	r2, [r3, #12]	@ movhi
 276              	.L12:
 118:main.c        ****                     }
 119:main.c        ****                     dataPosition++;
 277              		.loc 1 119 0
ARM GAS  C:\Users\JEFFSN~1\AppData\Local\Temp\cczJCWOe.s 			page 8


 278 015a 5D4A     		ldr	r2, .L35+12
 279 015c 5388     		ldrh	r3, [r2, #2]
 280 015e 0133     		adds	r3, r3, #1
 281 0160 9BB2     		uxth	r3, r3
 282 0162 5380     		strh	r3, [r2, #2]	@ movhi
 120:main.c        ****                     //when packet length reaches 288 (or dataposition reaches 295 since it includes
 121:main.c        ****                     //and row number, size, and checksum too), write the next row if the checksum c
 122:main.c        ****                     if (dataPosition > 293)
 283              		.loc 1 122 0
 284 0164 B3F5937F 		cmp	r3, #294
 285 0168 37D3     		bcc	.L18
 123:main.c        ****                     {
 124:main.c        ****                         outputDataPosition = 0;
 286              		.loc 1 124 0
 287 016a 0023     		movs	r3, #0
 288 016c 9381     		strh	r3, [r2, #12]	@ movhi
 125:main.c        ****                         dataPosition = 0;
 289              		.loc 1 125 0
 290 016e 5380     		strh	r3, [r2, #2]	@ movhi
 126:main.c        ****                         
 127:main.c        ****                         //2s-complement of checksum
 128:main.c        ****                         computedChecksumByte = ( uint8 )1u + ( uint8 )(~computedChecksumByte);
 291              		.loc 1 128 0
 292 0170 5379     		ldrb	r3, [r2, #5]	@ zero_extendqisi2
 293 0172 5B42     		negs	r3, r3
 294 0174 DBB2     		uxtb	r3, r3
 295 0176 5371     		strb	r3, [r2, #5]
 129:main.c        ****                         
 130:main.c        ****                         if (computedChecksumByte == receivedChecksumByte)
 296              		.loc 1 130 0
 297 0178 927A     		ldrb	r2, [r2, #10]	@ zero_extendqisi2
 298 017a 9342     		cmp	r3, r2
 299 017c 11D1     		bne	.L19
 131:main.c        ****                         {
 132:main.c        ****                             ackCode = CyWriteRowFull(arrayNumber, rowNumber, myData, 288);
 300              		.loc 1 132 0
 301 017e 544D     		ldr	r5, .L35+12
 302 0180 4FF49073 		mov	r3, #288
 303 0184 544A     		ldr	r2, .L35+20
 304 0186 E988     		ldrh	r1, [r5, #6]
 305 0188 2879     		ldrb	r0, [r5, #4]	@ zero_extendqisi2
 306 018a FFF7FEFF 		bl	CyWriteRowFull
 307              	.LVL20:
 308 018e A873     		strb	r0, [r5, #14]
 133:main.c        ****                         }
 134:main.c        ****                         else
 135:main.c        ****                         {
 136:main.c        ****                             //checksum failed - quit bootloader, requires power cycling to reset
 137:main.c        ****                             LED2_Write(0);
 138:main.c        ****                             LED3_Write(0);
 139:main.c        ****                             LED4_Write(0);
 140:main.c        ****                             LED1_Write(0);
 141:main.c        ****                             RedLED_Write(1);
 142:main.c        ****                             RedLED2_Write(1);
 143:main.c        ****                             GreenLED_Write(0);
 144:main.c        ****                             GreenLED2_Write(0);
 145:main.c        ****                             Bootloader_SET_RUN_TYPE(Bootloader_SCHEDULE_BTLDB);
ARM GAS  C:\Users\JEFFSN~1\AppData\Local\Temp\cczJCWOe.s 			page 9


 146:main.c        ****                             while(1)
 147:main.c        ****                             {
 148:main.c        ****                                 ;
 149:main.c        ****                             }
 150:main.c        ****                         }
 151:main.c        ****                             
 152:main.c        ****                         CyFlushCache();
 309              		.loc 1 152 0
 310 0190 FFF7FEFF 		bl	CyFlushCache
 311              	.LVL21:
 153:main.c        ****                         computedChecksumByte = 0;
 312              		.loc 1 153 0
 313 0194 0023     		movs	r3, #0
 314 0196 6B71     		strb	r3, [r5, #5]
 154:main.c        ****                         LEDstate = (rowNumber >> 3) & 1;
 315              		.loc 1 154 0
 316 0198 EB88     		ldrh	r3, [r5, #6]
 317 019a C3F3C003 		ubfx	r3, r3, #3, #1
 318 019e EB73     		strb	r3, [r5, #15]
 319 01a0 1BE0     		b	.L18
 320              	.L19:
 137:main.c        ****                             LED3_Write(0);
 321              		.loc 1 137 0
 322 01a2 0020     		movs	r0, #0
 323 01a4 FFF7FEFF 		bl	LED2_Write
 324              	.LVL22:
 138:main.c        ****                             LED4_Write(0);
 325              		.loc 1 138 0
 326 01a8 0020     		movs	r0, #0
 327 01aa FFF7FEFF 		bl	LED3_Write
 328              	.LVL23:
 139:main.c        ****                             LED1_Write(0);
 329              		.loc 1 139 0
 330 01ae 0020     		movs	r0, #0
 331 01b0 FFF7FEFF 		bl	LED4_Write
 332              	.LVL24:
 140:main.c        ****                             RedLED_Write(1);
 333              		.loc 1 140 0
 334 01b4 0020     		movs	r0, #0
 335 01b6 FFF7FEFF 		bl	LED1_Write
 336              	.LVL25:
 141:main.c        ****                             RedLED2_Write(1);
 337              		.loc 1 141 0
 338 01ba 0120     		movs	r0, #1
 339 01bc FFF7FEFF 		bl	RedLED_Write
 340              	.LVL26:
 142:main.c        ****                             GreenLED_Write(0);
 341              		.loc 1 142 0
 342 01c0 0120     		movs	r0, #1
 343 01c2 FFF7FEFF 		bl	RedLED2_Write
 344              	.LVL27:
 143:main.c        ****                             GreenLED2_Write(0);
 345              		.loc 1 143 0
 346 01c6 0020     		movs	r0, #0
 347 01c8 FFF7FEFF 		bl	GreenLED_Write
 348              	.LVL28:
 144:main.c        ****                             Bootloader_SET_RUN_TYPE(Bootloader_SCHEDULE_BTLDB);
ARM GAS  C:\Users\JEFFSN~1\AppData\Local\Temp\cczJCWOe.s 			page 10


 349              		.loc 1 144 0
 350 01cc 0020     		movs	r0, #0
 351 01ce FFF7FEFF 		bl	GreenLED2_Write
 352              	.LVL29:
 145:main.c        ****                             while(1)
 353              		.loc 1 145 0
 354 01d2 8022     		movs	r2, #128
 355 01d4 3B4B     		ldr	r3, .L35
 356 01d6 1A70     		strb	r2, [r3]
 357              	.L20:
 358 01d8 FEE7     		b	.L20
 359              	.L18:
  82:main.c        ****                 {
 360              		.loc 1 82 0 discriminator 2
 361 01da 0134     		adds	r4, r4, #1
 362              	.LVL30:
 363 01dc 00E0     		b	.L10
 364              	.LVL31:
 365              	.L31:
 366              	.LBE3:
 367 01de 0024     		movs	r4, #0
 368              	.L10:
 369              	.LVL32:
 370              	.LBB4:
  82:main.c        ****                 {
 371              		.loc 1 82 0 is_stmt 0 discriminator 1
 372 01e0 1D2C     		cmp	r4, #29
 373 01e2 7FF766AF 		ble	.L21
 374 01e6 0CE0     		b	.L22
 375              	.LVL33:
 376              	.L9:
 377              	.LBE4:
 155:main.c        ****                     }
 156:main.c        ****                 }
 157:main.c        ****             }
 158:main.c        ****             
 159:main.c        ****             else if ((receiveArray[0] == 249)&& (receiveArray[31] == 254))
 378              		.loc 1 159 0 is_stmt 1
 379 01e8 F92B     		cmp	r3, #249
 380 01ea 0AD1     		bne	.L22
 381              		.loc 1 159 0 is_stmt 0 discriminator 1
 382 01ec 394B     		ldr	r3, .L35+16
 383 01ee DB7F     		ldrb	r3, [r3, #31]	@ zero_extendqisi2
 384 01f0 FE2B     		cmp	r3, #254
 385 01f2 06D1     		bne	.L22
 160:main.c        ****             {
 161:main.c        ****                 //this is the signal that the sending is done. Let's restart the brain!
 162:main.c        ****                 Bootloader_SET_RUN_TYPE(Bootloader_SCHEDULE_BTLDB);
 386              		.loc 1 162 0 is_stmt 1
 387 01f4 8022     		movs	r2, #128
 388 01f6 334B     		ldr	r3, .L35
 389 01f8 1A70     		strb	r2, [r3]
 163:main.c        ****                 SPIM_1_Stop();
 390              		.loc 1 163 0
 391 01fa FFF7FEFF 		bl	SPIM_1_Stop
 392              	.LVL34:
 164:main.c        ****                 CySoftwareReset();
ARM GAS  C:\Users\JEFFSN~1\AppData\Local\Temp\cczJCWOe.s 			page 11


 393              		.loc 1 164 0
 394 01fe FFF7FEFF 		bl	CySoftwareReset
 395              	.LVL35:
 396              	.L22:
 397 0202 0123     		movs	r3, #1
 398 0204 04E0     		b	.L23
 399              	.LVL36:
 400              	.L24:
 401              	.LBB5:
 165:main.c        ****             }
 166:main.c        ****             
 167:main.c        ****             //just for checking things, write the data we received back to the host. Makes it easie
 168:main.c        ****             for (int i = 1; i < 30; i++)
 169:main.c        ****             {
 170:main.c        ****                 sendArray[i] = receiveArray[i];
 402              		.loc 1 170 0 discriminator 3
 403 0206 334A     		ldr	r2, .L35+16
 404 0208 D15C     		ldrb	r1, [r2, r3]	@ zero_extendqisi2
 405 020a 304A     		ldr	r2, .L35+8
 406 020c D154     		strb	r1, [r2, r3]
 168:main.c        ****             {
 407              		.loc 1 168 0 discriminator 3
 408 020e 0133     		adds	r3, r3, #1
 409              	.LVL37:
 410              	.L23:
 168:main.c        ****             {
 411              		.loc 1 168 0 is_stmt 0 discriminator 1
 412 0210 1D2B     		cmp	r3, #29
 413 0212 F8DD     		ble	.L24
 414              	.LBE5:
 171:main.c        ****             }
 172:main.c        **** 
 173:main.c        ****             if (arrayNumber == 0)
 415              		.loc 1 173 0 is_stmt 1
 416 0214 2E4B     		ldr	r3, .L35+12
 417              	.LVL38:
 418 0216 1B79     		ldrb	r3, [r3, #4]	@ zero_extendqisi2
 419 0218 63B9     		cbnz	r3, .L25
 174:main.c        ****             {
 175:main.c        ****                 LED1_Write(1);
 420              		.loc 1 175 0
 421 021a 0120     		movs	r0, #1
 422 021c FFF7FEFF 		bl	LED1_Write
 423              	.LVL39:
 176:main.c        ****                 LED2_Write(0);
 424              		.loc 1 176 0
 425 0220 0020     		movs	r0, #0
 426 0222 FFF7FEFF 		bl	LED2_Write
 427              	.LVL40:
 177:main.c        ****                 LED3_Write(0);
 428              		.loc 1 177 0
 429 0226 0020     		movs	r0, #0
 430 0228 FFF7FEFF 		bl	LED3_Write
 431              	.LVL41:
 178:main.c        ****                 LED4_Write(0);
 432              		.loc 1 178 0
 433 022c 0020     		movs	r0, #0
ARM GAS  C:\Users\JEFFSN~1\AppData\Local\Temp\cczJCWOe.s 			page 12


 434 022e FFF7FEFF 		bl	LED4_Write
 435              	.LVL42:
 436 0232 2BE0     		b	.L26
 437              	.L25:
 179:main.c        ****             }
 180:main.c        ****             else if (arrayNumber == 1)
 438              		.loc 1 180 0
 439 0234 012B     		cmp	r3, #1
 440 0236 0CD1     		bne	.L27
 181:main.c        ****             {
 182:main.c        ****                 LED1_Write(0);
 441              		.loc 1 182 0
 442 0238 0020     		movs	r0, #0
 443 023a FFF7FEFF 		bl	LED1_Write
 444              	.LVL43:
 183:main.c        ****                  LED2_Write(1);
 445              		.loc 1 183 0
 446 023e 0120     		movs	r0, #1
 447 0240 FFF7FEFF 		bl	LED2_Write
 448              	.LVL44:
 184:main.c        ****                 LED3_Write(0);
 449              		.loc 1 184 0
 450 0244 0020     		movs	r0, #0
 451 0246 FFF7FEFF 		bl	LED3_Write
 452              	.LVL45:
 185:main.c        ****                 LED4_Write(0);
 453              		.loc 1 185 0
 454 024a 0020     		movs	r0, #0
 455 024c FFF7FEFF 		bl	LED4_Write
 456              	.LVL46:
 457 0250 1CE0     		b	.L26
 458              	.L27:
 186:main.c        ****             }
 187:main.c        ****             else if (arrayNumber == 2)
 459              		.loc 1 187 0
 460 0252 022B     		cmp	r3, #2
 461 0254 0CD1     		bne	.L28
 188:main.c        ****             {
 189:main.c        ****                 LED1_Write(0);
 462              		.loc 1 189 0
 463 0256 0020     		movs	r0, #0
 464 0258 FFF7FEFF 		bl	LED1_Write
 465              	.LVL47:
 190:main.c        ****                  LED2_Write(0);
 466              		.loc 1 190 0
 467 025c 0020     		movs	r0, #0
 468 025e FFF7FEFF 		bl	LED2_Write
 469              	.LVL48:
 191:main.c        ****                 LED3_Write(1);
 470              		.loc 1 191 0
 471 0262 0120     		movs	r0, #1
 472 0264 FFF7FEFF 		bl	LED3_Write
 473              	.LVL49:
 192:main.c        ****                 LED4_Write(0);
 474              		.loc 1 192 0
 475 0268 0020     		movs	r0, #0
 476 026a FFF7FEFF 		bl	LED4_Write
ARM GAS  C:\Users\JEFFSN~1\AppData\Local\Temp\cczJCWOe.s 			page 13


 477              	.LVL50:
 478 026e 0DE0     		b	.L26
 479              	.L28:
 193:main.c        ****             }
 194:main.c        ****             else if (arrayNumber == 3)
 480              		.loc 1 194 0
 481 0270 032B     		cmp	r3, #3
 482 0272 0BD1     		bne	.L26
 195:main.c        ****             {
 196:main.c        ****                 LED1_Write(0);
 483              		.loc 1 196 0
 484 0274 0020     		movs	r0, #0
 485 0276 FFF7FEFF 		bl	LED1_Write
 486              	.LVL51:
 197:main.c        ****                  LED2_Write(0);
 487              		.loc 1 197 0
 488 027a 0020     		movs	r0, #0
 489 027c FFF7FEFF 		bl	LED2_Write
 490              	.LVL52:
 198:main.c        ****                 LED3_Write(0);
 491              		.loc 1 198 0
 492 0280 0020     		movs	r0, #0
 493 0282 FFF7FEFF 		bl	LED3_Write
 494              	.LVL53:
 199:main.c        ****                 LED4_Write(1);
 495              		.loc 1 199 0
 496 0286 0120     		movs	r0, #1
 497 0288 FFF7FEFF 		bl	LED4_Write
 498              	.LVL54:
 499              	.L26:
 200:main.c        ****             }
 201:main.c        ****             
 202:main.c        ****             
 203:main.c        ****             if (LEDstate == 0)
 500              		.loc 1 203 0
 501 028c 104B     		ldr	r3, .L35+12
 502 028e DB7B     		ldrb	r3, [r3, #15]	@ zero_extendqisi2
 503 0290 33B9     		cbnz	r3, .L29
 204:main.c        ****             {
 205:main.c        ****                 GreenLED_Write(1);
 504              		.loc 1 205 0
 505 0292 0120     		movs	r0, #1
 506 0294 FFF7FEFF 		bl	GreenLED_Write
 507              	.LVL55:
 206:main.c        ****                 GreenLED2_Write(0);
 508              		.loc 1 206 0
 509 0298 0020     		movs	r0, #0
 510 029a FFF7FEFF 		bl	GreenLED2_Write
 511              	.LVL56:
 512 029e E2E6     		b	.L5
 513              	.L29:
 207:main.c        ****                 
 208:main.c        ****             }
 209:main.c        ****             else if (LEDstate == 1)
 514              		.loc 1 209 0
 515 02a0 012B     		cmp	r3, #1
 516 02a2 7FF4E0AE 		bne	.L5
ARM GAS  C:\Users\JEFFSN~1\AppData\Local\Temp\cczJCWOe.s 			page 14


 210:main.c        ****             {
 211:main.c        ****                GreenLED_Write(0);
 517              		.loc 1 211 0
 518 02a6 0020     		movs	r0, #0
 519 02a8 FFF7FEFF 		bl	GreenLED_Write
 520              	.LVL57:
 212:main.c        ****                 GreenLED2_Write(1);
 521              		.loc 1 212 0
 522 02ac 0120     		movs	r0, #1
 523 02ae FFF7FEFF 		bl	GreenLED2_Write
 524              	.LVL58:
 525 02b2 D8E6     		b	.L5
 526              	.LVL59:
 527              	.L33:
  39:main.c        ****         CySoftwareReset();
 528              		.loc 1 39 0
 529 02b4 8022     		movs	r2, #128
 530 02b6 034B     		ldr	r3, .L35
 531              	.LVL60:
 532 02b8 1A70     		strb	r2, [r3]
  40:main.c        ****     }
 533              		.loc 1 40 0
 534 02ba FFF7FEFF 		bl	CySoftwareReset
 535              	.LVL61:
 213:main.c        ****                 
 214:main.c        ****             }
 215:main.c        ****         }
 216:main.c        ****     }
 217:main.c        **** }
 536              		.loc 1 217 0
 537 02be 0020     		movs	r0, #0
 538 02c0 38BD     		pop	{r3, r4, r5, pc}
 539              	.L36:
 540 02c2 00BF     		.align	2
 541              	.L35:
 542 02c4 FA460040 		.word	1073759994
 543 02c8 00000000 		.word	eccflash
 544 02cc 00000000 		.word	sendArray
 545 02d0 00000000 		.word	.LANCHOR0
 546 02d4 00000000 		.word	receiveArray
 547 02d8 00000000 		.word	myData
 548              		.cfi_endproc
 549              	.LFE63:
 550              		.size	main, .-main
 551              		.global	LEDstate
 552              		.comm	eccflash,288,4
 553              		.global	ackCode
 554              		.global	rowSize
 555              		.global	arrayNumber
 556              		.global	rowNumber
 557              		.global	outputDataPosition
 558              		.global	dataPosition
 559              		.global	receivedChecksumByte
 560              		.global	computedChecksumByte
 561              		.global	receivePosition
 562              		.comm	receiveArray,32,4
 563              		.comm	sendArray,32,4
ARM GAS  C:\Users\JEFFSN~1\AppData\Local\Temp\cczJCWOe.s 			page 15


 564              		.comm	myData,300,4
 565              		.bss
 566              		.align	1
 567              		.set	.LANCHOR0,. + 0
 568              		.type	receivePosition, %object
 569              		.size	receivePosition, 1
 570              	receivePosition:
 571 0000 00       		.space	1
 572 0001 00       		.space	1
 573              		.type	dataPosition, %object
 574              		.size	dataPosition, 2
 575              	dataPosition:
 576 0002 0000     		.space	2
 577              		.type	arrayNumber, %object
 578              		.size	arrayNumber, 1
 579              	arrayNumber:
 580 0004 00       		.space	1
 581              		.type	computedChecksumByte, %object
 582              		.size	computedChecksumByte, 1
 583              	computedChecksumByte:
 584 0005 00       		.space	1
 585              		.type	rowNumber, %object
 586              		.size	rowNumber, 2
 587              	rowNumber:
 588 0006 0000     		.space	2
 589              		.type	rowSize, %object
 590              		.size	rowSize, 2
 591              	rowSize:
 592 0008 0000     		.space	2
 593              		.type	receivedChecksumByte, %object
 594              		.size	receivedChecksumByte, 1
 595              	receivedChecksumByte:
 596 000a 00       		.space	1
 597 000b 00       		.space	1
 598              		.type	outputDataPosition, %object
 599              		.size	outputDataPosition, 2
 600              	outputDataPosition:
 601 000c 0000     		.space	2
 602              		.type	ackCode, %object
 603              		.size	ackCode, 1
 604              	ackCode:
 605 000e 00       		.space	1
 606              		.type	LEDstate, %object
 607              		.size	LEDstate, 1
 608              	LEDstate:
 609 000f 00       		.space	1
 610              		.text
 611              	.Letext0:
 612              		.file 2 "c:\\program files (x86)\\cypress\\psoc creator\\4.4\\psoc creator\\import\\gnu\\arm\\5.4.
 613              		.file 3 "c:\\program files (x86)\\cypress\\psoc creator\\4.4\\psoc creator\\import\\gnu\\arm\\5.4.
 614              		.file 4 "Generated_Source\\PSoC5/cytypes.h"
 615              		.file 5 "Generated_Source\\PSoC5/core_cm3.h"
 616              		.file 6 "Generated_Source\\PSoC5/CyFlash.h"
 617              		.file 7 "Generated_Source\\PSoC5/CyLib.h"
 618              		.file 8 "Generated_Source\\PSoC5/LED2.h"
 619              		.file 9 "Generated_Source\\PSoC5/LED3.h"
 620              		.file 10 "Generated_Source\\PSoC5/LED4.h"
ARM GAS  C:\Users\JEFFSN~1\AppData\Local\Temp\cczJCWOe.s 			page 16


 621              		.file 11 "Generated_Source\\PSoC5/LED1.h"
 622              		.file 12 "Generated_Source\\PSoC5/RedLED.h"
 623              		.file 13 "Generated_Source\\PSoC5/RedLED2.h"
 624              		.file 14 "Generated_Source\\PSoC5/GreenLED.h"
 625              		.file 15 "Generated_Source\\PSoC5/GreenLED2.h"
 626              		.file 16 "Generated_Source\\PSoC5/SPIM_1.h"