ARM GAS  C:\Users\JEFFSN~1\AppData\Local\Temp\cc4lg9hx.s 			page 1


   1              		.syntax unified
   2              		.cpu cortex-m3
   3              		.fpu softvfp
   4              		.eabi_attribute 20, 1
   5              		.eabi_attribute 21, 1
   6              		.eabi_attribute 23, 3
   7              		.eabi_attribute 24, 1
   8              		.eabi_attribute 25, 1
   9              		.eabi_attribute 26, 1
  10              		.eabi_attribute 30, 6
  11              		.eabi_attribute 34, 1
  12              		.eabi_attribute 18, 4
  13              		.thumb
  14              		.syntax unified
  15              		.file	"CapSense_Pins.c"
  16              		.text
  17              	.Ltext0:
  18              		.cfi_sections	.debug_frame
  19              		.section	.text.CapSense_SetAllSensorsDriveMode,"ax",%progbits
  20              		.align	2
  21              		.global	CapSense_SetAllSensorsDriveMode
  22              		.thumb
  23              		.thumb_func
  24              		.type	CapSense_SetAllSensorsDriveMode, %function
  25              	CapSense_SetAllSensorsDriveMode:
  26              	.LFB0:
  27              		.file 1 "Generated_Source\\PSoC5\\CapSense_Pins.c"
   1:Generated_Source\PSoC5/CapSense_Pins.c **** /*******************************************************************************
   2:Generated_Source\PSoC5/CapSense_Pins.c **** * File Name: CapSense_Pins.c
   3:Generated_Source\PSoC5/CapSense_Pins.c **** * Version 3.50
   4:Generated_Source\PSoC5/CapSense_Pins.c **** *
   5:Generated_Source\PSoC5/CapSense_Pins.c **** * Description:
   6:Generated_Source\PSoC5/CapSense_Pins.c **** *  This file contains API to enable firmware control of a Pins component.
   7:Generated_Source\PSoC5/CapSense_Pins.c **** *
   8:Generated_Source\PSoC5/CapSense_Pins.c **** * Note:
   9:Generated_Source\PSoC5/CapSense_Pins.c **** *
  10:Generated_Source\PSoC5/CapSense_Pins.c **** ********************************************************************************
  11:Generated_Source\PSoC5/CapSense_Pins.c **** * Copyright 2008-2013, Cypress Semiconductor Corporation.  All rights reserved.
  12:Generated_Source\PSoC5/CapSense_Pins.c **** * You may use this file only in accordance with the license, terms, conditions,
  13:Generated_Source\PSoC5/CapSense_Pins.c **** * disclaimers, and limitations in the end user license agreement accompanying
  14:Generated_Source\PSoC5/CapSense_Pins.c **** * the software package with which this file was provided.
  15:Generated_Source\PSoC5/CapSense_Pins.c **** *******************************************************************************/
  16:Generated_Source\PSoC5/CapSense_Pins.c **** 
  17:Generated_Source\PSoC5/CapSense_Pins.c **** #include "CapSense_Pins.h"
  18:Generated_Source\PSoC5/CapSense_Pins.c **** 
  19:Generated_Source\PSoC5/CapSense_Pins.c **** 
  20:Generated_Source\PSoC5/CapSense_Pins.c **** /*******************************************************************************
  21:Generated_Source\PSoC5/CapSense_Pins.c **** * Function Name: CapSense_SetAllSensorsDriveMode
  22:Generated_Source\PSoC5/CapSense_Pins.c **** ********************************************************************************
  23:Generated_Source\PSoC5/CapSense_Pins.c **** *
  24:Generated_Source\PSoC5/CapSense_Pins.c **** * Summary:
  25:Generated_Source\PSoC5/CapSense_Pins.c **** *  Sets the drive mode for the all pins used by capacitive sensors within 
  26:Generated_Source\PSoC5/CapSense_Pins.c **** *  CapSense component.
  27:Generated_Source\PSoC5/CapSense_Pins.c **** * 
  28:Generated_Source\PSoC5/CapSense_Pins.c **** * Parameters:  
  29:Generated_Source\PSoC5/CapSense_Pins.c **** *  mode: Desired drive mode.
  30:Generated_Source\PSoC5/CapSense_Pins.c **** *
ARM GAS  C:\Users\JEFFSN~1\AppData\Local\Temp\cc4lg9hx.s 			page 2


  31:Generated_Source\PSoC5/CapSense_Pins.c **** * Return: 
  32:Generated_Source\PSoC5/CapSense_Pins.c **** *  None
  33:Generated_Source\PSoC5/CapSense_Pins.c **** *
  34:Generated_Source\PSoC5/CapSense_Pins.c **** *******************************************************************************/
  35:Generated_Source\PSoC5/CapSense_Pins.c **** void CapSense_SetAllSensorsDriveMode(uint8 mode) 
  36:Generated_Source\PSoC5/CapSense_Pins.c **** {
  28              		.loc 1 36 0
  29              		.cfi_startproc
  30              		@ args = 0, pretend = 0, frame = 8
  31              		@ frame_needed = 1, uses_anonymous_args = 0
  32              		@ link register save eliminated.
  33 0000 80B4     		push	{r7}
  34              		.cfi_def_cfa_offset 4
  35              		.cfi_offset 7, -4
  36 0002 83B0     		sub	sp, sp, #12
  37              		.cfi_def_cfa_offset 16
  38 0004 00AF     		add	r7, sp, #0
  39              		.cfi_def_cfa_register 7
  40 0006 0346     		mov	r3, r0
  41 0008 FB71     		strb	r3, [r7, #7]
  37:Generated_Source\PSoC5/CapSense_Pins.c ****     /* Set pins drive mode */
  38:Generated_Source\PSoC5/CapSense_Pins.c ****     CyPins_SetPinDriveMode(CapSense_PortCH0__Button0__BTN, mode);
  42              		.loc 1 38 0
  43 000a 6849     		ldr	r1, .L2
  44 000c 674B     		ldr	r3, .L2
  45 000e 1B78     		ldrb	r3, [r3]
  46 0010 DBB2     		uxtb	r3, r3
  47 0012 5BB2     		sxtb	r3, r3
  48 0014 23F00E03 		bic	r3, r3, #14
  49 0018 5AB2     		sxtb	r2, r3
  50 001a 97F90730 		ldrsb	r3, [r7, #7]
  51 001e 03F00E03 		and	r3, r3, #14
  52 0022 5BB2     		sxtb	r3, r3
  53 0024 1343     		orrs	r3, r3, r2
  54 0026 5BB2     		sxtb	r3, r3
  55 0028 DBB2     		uxtb	r3, r3
  56 002a 0B70     		strb	r3, [r1]
  39:Generated_Source\PSoC5/CapSense_Pins.c ****     CyPins_SetPinDriveMode(CapSense_PortCH0__Button1__BTN, mode);
  57              		.loc 1 39 0
  58 002c 6049     		ldr	r1, .L2+4
  59 002e 604B     		ldr	r3, .L2+4
  60 0030 1B78     		ldrb	r3, [r3]
  61 0032 DBB2     		uxtb	r3, r3
  62 0034 5BB2     		sxtb	r3, r3
  63 0036 23F00E03 		bic	r3, r3, #14
  64 003a 5AB2     		sxtb	r2, r3
  65 003c 97F90730 		ldrsb	r3, [r7, #7]
  66 0040 03F00E03 		and	r3, r3, #14
  67 0044 5BB2     		sxtb	r3, r3
  68 0046 1343     		orrs	r3, r3, r2
  69 0048 5BB2     		sxtb	r3, r3
  70 004a DBB2     		uxtb	r3, r3
  71 004c 0B70     		strb	r3, [r1]
  40:Generated_Source\PSoC5/CapSense_Pins.c ****     CyPins_SetPinDriveMode(CapSense_PortCH0__Button2__BTN, mode);
  72              		.loc 1 40 0
  73 004e 5949     		ldr	r1, .L2+8
  74 0050 584B     		ldr	r3, .L2+8
ARM GAS  C:\Users\JEFFSN~1\AppData\Local\Temp\cc4lg9hx.s 			page 3


  75 0052 1B78     		ldrb	r3, [r3]
  76 0054 DBB2     		uxtb	r3, r3
  77 0056 5BB2     		sxtb	r3, r3
  78 0058 23F00E03 		bic	r3, r3, #14
  79 005c 5AB2     		sxtb	r2, r3
  80 005e 97F90730 		ldrsb	r3, [r7, #7]
  81 0062 03F00E03 		and	r3, r3, #14
  82 0066 5BB2     		sxtb	r3, r3
  83 0068 1343     		orrs	r3, r3, r2
  84 006a 5BB2     		sxtb	r3, r3
  85 006c DBB2     		uxtb	r3, r3
  86 006e 0B70     		strb	r3, [r1]
  41:Generated_Source\PSoC5/CapSense_Pins.c ****     CyPins_SetPinDriveMode(CapSense_PortCH0__Button3__BTN, mode);
  87              		.loc 1 41 0
  88 0070 5149     		ldr	r1, .L2+12
  89 0072 514B     		ldr	r3, .L2+12
  90 0074 1B78     		ldrb	r3, [r3]
  91 0076 DBB2     		uxtb	r3, r3
  92 0078 5BB2     		sxtb	r3, r3
  93 007a 23F00E03 		bic	r3, r3, #14
  94 007e 5AB2     		sxtb	r2, r3
  95 0080 97F90730 		ldrsb	r3, [r7, #7]
  96 0084 03F00E03 		and	r3, r3, #14
  97 0088 5BB2     		sxtb	r3, r3
  98 008a 1343     		orrs	r3, r3, r2
  99 008c 5BB2     		sxtb	r3, r3
 100 008e DBB2     		uxtb	r3, r3
 101 0090 0B70     		strb	r3, [r1]
  42:Generated_Source\PSoC5/CapSense_Pins.c ****     CyPins_SetPinDriveMode(CapSense_PortCH0__Button4__BTN, mode);
 102              		.loc 1 42 0
 103 0092 4A49     		ldr	r1, .L2+16
 104 0094 494B     		ldr	r3, .L2+16
 105 0096 1B78     		ldrb	r3, [r3]
 106 0098 DBB2     		uxtb	r3, r3
 107 009a 5BB2     		sxtb	r3, r3
 108 009c 23F00E03 		bic	r3, r3, #14
 109 00a0 5AB2     		sxtb	r2, r3
 110 00a2 97F90730 		ldrsb	r3, [r7, #7]
 111 00a6 03F00E03 		and	r3, r3, #14
 112 00aa 5BB2     		sxtb	r3, r3
 113 00ac 1343     		orrs	r3, r3, r2
 114 00ae 5BB2     		sxtb	r3, r3
 115 00b0 DBB2     		uxtb	r3, r3
 116 00b2 0B70     		strb	r3, [r1]
  43:Generated_Source\PSoC5/CapSense_Pins.c ****     CyPins_SetPinDriveMode(CapSense_PortCH0__Button5__BTN, mode);
 117              		.loc 1 43 0
 118 00b4 4249     		ldr	r1, .L2+20
 119 00b6 424B     		ldr	r3, .L2+20
 120 00b8 1B78     		ldrb	r3, [r3]
 121 00ba DBB2     		uxtb	r3, r3
 122 00bc 5BB2     		sxtb	r3, r3
 123 00be 23F00E03 		bic	r3, r3, #14
 124 00c2 5AB2     		sxtb	r2, r3
 125 00c4 97F90730 		ldrsb	r3, [r7, #7]
 126 00c8 03F00E03 		and	r3, r3, #14
 127 00cc 5BB2     		sxtb	r3, r3
 128 00ce 1343     		orrs	r3, r3, r2
ARM GAS  C:\Users\JEFFSN~1\AppData\Local\Temp\cc4lg9hx.s 			page 4


 129 00d0 5BB2     		sxtb	r3, r3
 130 00d2 DBB2     		uxtb	r3, r3
 131 00d4 0B70     		strb	r3, [r1]
  44:Generated_Source\PSoC5/CapSense_Pins.c ****     CyPins_SetPinDriveMode(CapSense_PortCH0__Button6__BTN, mode);
 132              		.loc 1 44 0
 133 00d6 3B49     		ldr	r1, .L2+24
 134 00d8 3A4B     		ldr	r3, .L2+24
 135 00da 1B78     		ldrb	r3, [r3]
 136 00dc DBB2     		uxtb	r3, r3
 137 00de 5BB2     		sxtb	r3, r3
 138 00e0 23F00E03 		bic	r3, r3, #14
 139 00e4 5AB2     		sxtb	r2, r3
 140 00e6 97F90730 		ldrsb	r3, [r7, #7]
 141 00ea 03F00E03 		and	r3, r3, #14
 142 00ee 5BB2     		sxtb	r3, r3
 143 00f0 1343     		orrs	r3, r3, r2
 144 00f2 5BB2     		sxtb	r3, r3
 145 00f4 DBB2     		uxtb	r3, r3
 146 00f6 0B70     		strb	r3, [r1]
  45:Generated_Source\PSoC5/CapSense_Pins.c ****     CyPins_SetPinDriveMode(CapSense_PortCH0__Button7__BTN, mode);
 147              		.loc 1 45 0
 148 00f8 3349     		ldr	r1, .L2+28
 149 00fa 334B     		ldr	r3, .L2+28
 150 00fc 1B78     		ldrb	r3, [r3]
 151 00fe DBB2     		uxtb	r3, r3
 152 0100 5BB2     		sxtb	r3, r3
 153 0102 23F00E03 		bic	r3, r3, #14
 154 0106 5AB2     		sxtb	r2, r3
 155 0108 97F90730 		ldrsb	r3, [r7, #7]
 156 010c 03F00E03 		and	r3, r3, #14
 157 0110 5BB2     		sxtb	r3, r3
 158 0112 1343     		orrs	r3, r3, r2
 159 0114 5BB2     		sxtb	r3, r3
 160 0116 DBB2     		uxtb	r3, r3
 161 0118 0B70     		strb	r3, [r1]
  46:Generated_Source\PSoC5/CapSense_Pins.c ****     CyPins_SetPinDriveMode(CapSense_PortCH0__Button8__BTN, mode);
 162              		.loc 1 46 0
 163 011a 2C49     		ldr	r1, .L2+32
 164 011c 2B4B     		ldr	r3, .L2+32
 165 011e 1B78     		ldrb	r3, [r3]
 166 0120 DBB2     		uxtb	r3, r3
 167 0122 5BB2     		sxtb	r3, r3
 168 0124 23F00E03 		bic	r3, r3, #14
 169 0128 5AB2     		sxtb	r2, r3
 170 012a 97F90730 		ldrsb	r3, [r7, #7]
 171 012e 03F00E03 		and	r3, r3, #14
 172 0132 5BB2     		sxtb	r3, r3
 173 0134 1343     		orrs	r3, r3, r2
 174 0136 5BB2     		sxtb	r3, r3
 175 0138 DBB2     		uxtb	r3, r3
 176 013a 0B70     		strb	r3, [r1]
  47:Generated_Source\PSoC5/CapSense_Pins.c ****     CyPins_SetPinDriveMode(CapSense_PortCH0__Button9__BTN, mode);
 177              		.loc 1 47 0
 178 013c 2449     		ldr	r1, .L2+36
 179 013e 244B     		ldr	r3, .L2+36
 180 0140 1B78     		ldrb	r3, [r3]
 181 0142 DBB2     		uxtb	r3, r3
ARM GAS  C:\Users\JEFFSN~1\AppData\Local\Temp\cc4lg9hx.s 			page 5


 182 0144 5BB2     		sxtb	r3, r3
 183 0146 23F00E03 		bic	r3, r3, #14
 184 014a 5AB2     		sxtb	r2, r3
 185 014c 97F90730 		ldrsb	r3, [r7, #7]
 186 0150 03F00E03 		and	r3, r3, #14
 187 0154 5BB2     		sxtb	r3, r3
 188 0156 1343     		orrs	r3, r3, r2
 189 0158 5BB2     		sxtb	r3, r3
 190 015a DBB2     		uxtb	r3, r3
 191 015c 0B70     		strb	r3, [r1]
  48:Generated_Source\PSoC5/CapSense_Pins.c ****     CyPins_SetPinDriveMode(CapSense_PortCH0__Button10__BTN, mode);
 192              		.loc 1 48 0
 193 015e 1D49     		ldr	r1, .L2+40
 194 0160 1C4B     		ldr	r3, .L2+40
 195 0162 1B78     		ldrb	r3, [r3]
 196 0164 DBB2     		uxtb	r3, r3
 197 0166 5BB2     		sxtb	r3, r3
 198 0168 23F00E03 		bic	r3, r3, #14
 199 016c 5AB2     		sxtb	r2, r3
 200 016e 97F90730 		ldrsb	r3, [r7, #7]
 201 0172 03F00E03 		and	r3, r3, #14
 202 0176 5BB2     		sxtb	r3, r3
 203 0178 1343     		orrs	r3, r3, r2
 204 017a 5BB2     		sxtb	r3, r3
 205 017c DBB2     		uxtb	r3, r3
 206 017e 0B70     		strb	r3, [r1]
  49:Generated_Source\PSoC5/CapSense_Pins.c ****     CyPins_SetPinDriveMode(CapSense_PortCH0__Button11__BTN, mode);
 207              		.loc 1 49 0
 208 0180 1549     		ldr	r1, .L2+44
 209 0182 154B     		ldr	r3, .L2+44
 210 0184 1B78     		ldrb	r3, [r3]
 211 0186 DBB2     		uxtb	r3, r3
 212 0188 5BB2     		sxtb	r3, r3
 213 018a 23F00E03 		bic	r3, r3, #14
 214 018e 5AB2     		sxtb	r2, r3
 215 0190 97F90730 		ldrsb	r3, [r7, #7]
 216 0194 03F00E03 		and	r3, r3, #14
 217 0198 5BB2     		sxtb	r3, r3
 218 019a 1343     		orrs	r3, r3, r2
 219 019c 5BB2     		sxtb	r3, r3
 220 019e DBB2     		uxtb	r3, r3
 221 01a0 0B70     		strb	r3, [r1]
  50:Generated_Source\PSoC5/CapSense_Pins.c **** 
  51:Generated_Source\PSoC5/CapSense_Pins.c **** }
 222              		.loc 1 51 0
 223 01a2 00BF     		nop
 224 01a4 0C37     		adds	r7, r7, #12
 225              		.cfi_def_cfa_offset 4
 226 01a6 BD46     		mov	sp, r7
 227              		.cfi_def_cfa_register 13
 228              		@ sp needed
 229 01a8 80BC     		pop	{r7}
 230              		.cfi_restore 7
 231              		.cfi_def_cfa_offset 0
 232 01aa 7047     		bx	lr
 233              	.L3:
 234              		.align	2
ARM GAS  C:\Users\JEFFSN~1\AppData\Local\Temp\cc4lg9hx.s 			page 6


 235              	.L2:
 236 01ac 17500040 		.word	1073762327
 237 01b0 16500040 		.word	1073762326
 238 01b4 15500040 		.word	1073762325
 239 01b8 14500040 		.word	1073762324
 240 01bc 13500040 		.word	1073762323
 241 01c0 34500040 		.word	1073762356
 242 01c4 35500040 		.word	1073762357
 243 01c8 36500040 		.word	1073762358
 244 01cc 37500040 		.word	1073762359
 245 01d0 10500040 		.word	1073762320
 246 01d4 12500040 		.word	1073762322
 247 01d8 11500040 		.word	1073762321
 248              		.cfi_endproc
 249              	.LFE0:
 250              		.size	CapSense_SetAllSensorsDriveMode, .-CapSense_SetAllSensorsDriveMode
 251              		.section	.text.CapSense_SetAllCmodsDriveMode,"ax",%progbits
 252              		.align	2
 253              		.global	CapSense_SetAllCmodsDriveMode
 254              		.thumb
 255              		.thumb_func
 256              		.type	CapSense_SetAllCmodsDriveMode, %function
 257              	CapSense_SetAllCmodsDriveMode:
 258              	.LFB1:
  52:Generated_Source\PSoC5/CapSense_Pins.c **** 
  53:Generated_Source\PSoC5/CapSense_Pins.c **** 
  54:Generated_Source\PSoC5/CapSense_Pins.c **** 
  55:Generated_Source\PSoC5/CapSense_Pins.c **** /*******************************************************************************
  56:Generated_Source\PSoC5/CapSense_Pins.c **** * Function Name: CapSense_SetAllCmodsDriveMode
  57:Generated_Source\PSoC5/CapSense_Pins.c **** ********************************************************************************
  58:Generated_Source\PSoC5/CapSense_Pins.c **** *
  59:Generated_Source\PSoC5/CapSense_Pins.c **** * Summary:
  60:Generated_Source\PSoC5/CapSense_Pins.c **** *  Sets the drive mode for the all pins used by Cmod capacitors within CapSense 
  61:Generated_Source\PSoC5/CapSense_Pins.c **** *  component.
  62:Generated_Source\PSoC5/CapSense_Pins.c **** * 
  63:Generated_Source\PSoC5/CapSense_Pins.c **** * Parameters:  
  64:Generated_Source\PSoC5/CapSense_Pins.c **** *  mode: Desired drive mode.
  65:Generated_Source\PSoC5/CapSense_Pins.c **** *
  66:Generated_Source\PSoC5/CapSense_Pins.c **** * Return: 
  67:Generated_Source\PSoC5/CapSense_Pins.c **** *  None
  68:Generated_Source\PSoC5/CapSense_Pins.c **** *
  69:Generated_Source\PSoC5/CapSense_Pins.c **** *******************************************************************************/
  70:Generated_Source\PSoC5/CapSense_Pins.c **** void CapSense_SetAllCmodsDriveMode(uint8 mode) 
  71:Generated_Source\PSoC5/CapSense_Pins.c **** {
 259              		.loc 1 71 0
 260              		.cfi_startproc
 261              		@ args = 0, pretend = 0, frame = 8
 262              		@ frame_needed = 1, uses_anonymous_args = 0
 263              		@ link register save eliminated.
 264 0000 80B4     		push	{r7}
 265              		.cfi_def_cfa_offset 4
 266              		.cfi_offset 7, -4
 267 0002 83B0     		sub	sp, sp, #12
 268              		.cfi_def_cfa_offset 16
 269 0004 00AF     		add	r7, sp, #0
 270              		.cfi_def_cfa_register 7
 271 0006 0346     		mov	r3, r0
ARM GAS  C:\Users\JEFFSN~1\AppData\Local\Temp\cc4lg9hx.s 			page 7


 272 0008 FB71     		strb	r3, [r7, #7]
  72:Generated_Source\PSoC5/CapSense_Pins.c ****    /* Set pins drive mode */
  73:Generated_Source\PSoC5/CapSense_Pins.c ****     CyPins_SetPinDriveMode(CapSense_CmodCH0_Cmod_CH0, mode);
 273              		.loc 1 73 0
 274 000a 0B49     		ldr	r1, .L5
 275 000c 0A4B     		ldr	r3, .L5
 276 000e 1B78     		ldrb	r3, [r3]
 277 0010 DBB2     		uxtb	r3, r3
 278 0012 5BB2     		sxtb	r3, r3
 279 0014 23F00E03 		bic	r3, r3, #14
 280 0018 5AB2     		sxtb	r2, r3
 281 001a 97F90730 		ldrsb	r3, [r7, #7]
 282 001e 03F00E03 		and	r3, r3, #14
 283 0022 5BB2     		sxtb	r3, r3
 284 0024 1343     		orrs	r3, r3, r2
 285 0026 5BB2     		sxtb	r3, r3
 286 0028 DBB2     		uxtb	r3, r3
 287 002a 0B70     		strb	r3, [r1]
  74:Generated_Source\PSoC5/CapSense_Pins.c **** 
  75:Generated_Source\PSoC5/CapSense_Pins.c **** }
 288              		.loc 1 75 0
 289 002c 00BF     		nop
 290 002e 0C37     		adds	r7, r7, #12
 291              		.cfi_def_cfa_offset 4
 292 0030 BD46     		mov	sp, r7
 293              		.cfi_def_cfa_register 13
 294              		@ sp needed
 295 0032 80BC     		pop	{r7}
 296              		.cfi_restore 7
 297              		.cfi_def_cfa_offset 0
 298 0034 7047     		bx	lr
 299              	.L6:
 300 0036 00BF     		.align	2
 301              	.L5:
 302 0038 7C500040 		.word	1073762428
 303              		.cfi_endproc
 304              	.LFE1:
 305              		.size	CapSense_SetAllCmodsDriveMode, .-CapSense_SetAllCmodsDriveMode
 306              		.text
 307              	.Letext0:
 308              		.file 2 "Generated_Source\\PSoC5\\cytypes.h"