ARM GAS  C:\Users\JEFFSN~1\AppData\Local\Temp\cckGk2Ra.s 			page 1


   1              		.syntax unified
   2              		.cpu cortex-m3
   3              		.fpu softvfp
   4              		.eabi_attribute 20, 1
   5              		.eabi_attribute 21, 1
   6              		.eabi_attribute 23, 3
   7              		.eabi_attribute 24, 1
   8              		.eabi_attribute 25, 1
   9              		.eabi_attribute 26, 1
  10              		.eabi_attribute 30, 6
  11              		.eabi_attribute 34, 1
  12              		.eabi_attribute 18, 4
  13              		.thumb
  14              		.syntax unified
  15              		.file	"CapSense_CSHL.c"
  16              		.text
  17              	.Ltext0:
  18              		.cfi_sections	.debug_frame
  19              		.comm	CapSense_rawFilterData1,24,4
  20              		.comm	CapSense_sensorBaseline,24,4
  21              		.comm	CapSense_sensorBaselineLow,12,4
  22              		.comm	CapSense_sensorSignal,24,4
  23              		.comm	CapSense_sensorOnMask,2,4
  24              		.comm	CapSense_lowBaselineResetCnt,12,4
  25              		.global	CapSense_fingerThreshold
  26              		.data
  27              		.align	2
  28              		.type	CapSense_fingerThreshold, %object
  29              		.size	CapSense_fingerThreshold, 24
  30              	CapSense_fingerThreshold:
  31 0000 1400     		.short	20
  32 0002 1400     		.short	20
  33 0004 1400     		.short	20
  34 0006 1400     		.short	20
  35 0008 1400     		.short	20
  36 000a 1400     		.short	20
  37 000c 1400     		.short	20
  38 000e 1400     		.short	20
  39 0010 1400     		.short	20
  40 0012 1400     		.short	20
  41 0014 1400     		.short	20
  42 0016 1400     		.short	20
  43              		.global	CapSense_noiseThreshold
  44              		.align	2
  45              		.type	CapSense_noiseThreshold, %object
  46              		.size	CapSense_noiseThreshold, 24
  47              	CapSense_noiseThreshold:
  48 0018 0A00     		.short	10
  49 001a 0A00     		.short	10
  50 001c 0A00     		.short	10
  51 001e 0A00     		.short	10
  52 0020 0A00     		.short	10
  53 0022 0A00     		.short	10
  54 0024 0A00     		.short	10
  55 0026 0A00     		.short	10
  56 0028 0A00     		.short	10
  57 002a 0A00     		.short	10
ARM GAS  C:\Users\JEFFSN~1\AppData\Local\Temp\cckGk2Ra.s 			page 2


  58 002c 0A00     		.short	10
  59 002e 0A00     		.short	10
  60              		.global	CapSense_hysteresis
  61              		.align	2
  62              		.type	CapSense_hysteresis, %object
  63              		.size	CapSense_hysteresis, 24
  64              	CapSense_hysteresis:
  65 0030 0C00     		.short	12
  66 0032 0C00     		.short	12
  67 0034 0C00     		.short	12
  68 0036 0C00     		.short	12
  69 0038 0C00     		.short	12
  70 003a 0C00     		.short	12
  71 003c 0C00     		.short	12
  72 003e 0C00     		.short	12
  73 0040 0C00     		.short	12
  74 0042 0C00     		.short	12
  75 0044 0C00     		.short	12
  76 0046 0C00     		.short	12
  77              		.global	CapSense_debounce
  78              		.align	2
  79              		.type	CapSense_debounce, %object
  80              		.size	CapSense_debounce, 12
  81              	CapSense_debounce:
  82 0048 01       		.byte	1
  83 0049 01       		.byte	1
  84 004a 01       		.byte	1
  85 004b 01       		.byte	1
  86 004c 01       		.byte	1
  87 004d 01       		.byte	1
  88 004e 01       		.byte	1
  89 004f 01       		.byte	1
  90 0050 01       		.byte	1
  91 0051 01       		.byte	1
  92 0052 01       		.byte	1
  93 0053 01       		.byte	1
  94              		.global	CapSense_debounceCounter
  95              		.bss
  96              		.align	2
  97              		.type	CapSense_debounceCounter, %object
  98              		.size	CapSense_debounceCounter, 13
  99              	CapSense_debounceCounter:
 100 0000 00000000 		.space	13
 100      00000000 
 100      00000000 
 100      00
 101              		.global	CapSense_rawDataIndex
 102              		.section	.rodata
 103              		.align	2
 104              		.type	CapSense_rawDataIndex, %object
 105              		.size	CapSense_rawDataIndex, 12
 106              	CapSense_rawDataIndex:
 107 0000 00       		.byte	0
 108 0001 01       		.byte	1
 109 0002 02       		.byte	2
 110 0003 03       		.byte	3
 111 0004 04       		.byte	4
ARM GAS  C:\Users\JEFFSN~1\AppData\Local\Temp\cckGk2Ra.s 			page 3


 112 0005 05       		.byte	5
 113 0006 06       		.byte	6
 114 0007 07       		.byte	7
 115 0008 08       		.byte	8
 116 0009 09       		.byte	9
 117 000a 0A       		.byte	10
 118 000b 0B       		.byte	11
 119              		.global	CapSense_numberOfSensors
 120              		.align	2
 121              		.type	CapSense_numberOfSensors, %object
 122              		.size	CapSense_numberOfSensors, 12
 123              	CapSense_numberOfSensors:
 124 000c 01       		.byte	1
 125 000d 01       		.byte	1
 126 000e 01       		.byte	1
 127 000f 01       		.byte	1
 128 0010 01       		.byte	1
 129 0011 01       		.byte	1
 130 0012 01       		.byte	1
 131 0013 01       		.byte	1
 132 0014 01       		.byte	1
 133 0015 01       		.byte	1
 134 0016 01       		.byte	1
 135 0017 01       		.byte	1
 136              		.section	.text.CapSense_BaseInit,"ax",%progbits
 137              		.align	2
 138              		.global	CapSense_BaseInit
 139              		.thumb
 140              		.thumb_func
 141              		.type	CapSense_BaseInit, %function
 142              	CapSense_BaseInit:
 143              	.LFB0:
 144              		.file 1 "Generated_Source\\PSoC5\\CapSense_CSHL.c"
   1:Generated_Source\PSoC5/CapSense_CSHL.c **** /*******************************************************************************
   2:Generated_Source\PSoC5/CapSense_CSHL.c **** * File Name: CapSense_CSHL.c
   3:Generated_Source\PSoC5/CapSense_CSHL.c **** * Version 3.50
   4:Generated_Source\PSoC5/CapSense_CSHL.c **** *
   5:Generated_Source\PSoC5/CapSense_CSHL.c **** * Description:
   6:Generated_Source\PSoC5/CapSense_CSHL.c **** *  This file provides the source code to the High Level APIs for the CapSesne
   7:Generated_Source\PSoC5/CapSense_CSHL.c **** *  CSD component.
   8:Generated_Source\PSoC5/CapSense_CSHL.c **** *
   9:Generated_Source\PSoC5/CapSense_CSHL.c **** * Note:
  10:Generated_Source\PSoC5/CapSense_CSHL.c **** *
  11:Generated_Source\PSoC5/CapSense_CSHL.c **** ********************************************************************************
  12:Generated_Source\PSoC5/CapSense_CSHL.c **** * Copyright 2008-2013, Cypress Semiconductor Corporation.  All rights reserved.
  13:Generated_Source\PSoC5/CapSense_CSHL.c **** * You may use this file only in accordance with the license, terms, conditions,
  14:Generated_Source\PSoC5/CapSense_CSHL.c **** * disclaimers, and limitations in the end user license agreement accompanying
  15:Generated_Source\PSoC5/CapSense_CSHL.c **** * the software package with which this file was provided.
  16:Generated_Source\PSoC5/CapSense_CSHL.c **** *******************************************************************************/
  17:Generated_Source\PSoC5/CapSense_CSHL.c **** 
  18:Generated_Source\PSoC5/CapSense_CSHL.c **** #include "CapSense_CSHL.h"
  19:Generated_Source\PSoC5/CapSense_CSHL.c **** 
  20:Generated_Source\PSoC5/CapSense_CSHL.c **** /* Storage of filters data */
  21:Generated_Source\PSoC5/CapSense_CSHL.c **** #if ( (CapSense_RAW_FILTER_MASK & CapSense_MEDIAN_FILTER) | \
  22:Generated_Source\PSoC5/CapSense_CSHL.c ****       (CapSense_RAW_FILTER_MASK & CapSense_AVERAGING_FILTER) )
  23:Generated_Source\PSoC5/CapSense_CSHL.c **** 
  24:Generated_Source\PSoC5/CapSense_CSHL.c ****     uint16 CapSense_rawFilterData1[CapSense_TOTAL_SENSOR_COUNT];
ARM GAS  C:\Users\JEFFSN~1\AppData\Local\Temp\cckGk2Ra.s 			page 4


  25:Generated_Source\PSoC5/CapSense_CSHL.c ****     uint16 CapSense_rawFilterData2[CapSense_TOTAL_SENSOR_COUNT];
  26:Generated_Source\PSoC5/CapSense_CSHL.c **** 
  27:Generated_Source\PSoC5/CapSense_CSHL.c **** #elif ( (CapSense_RAW_FILTER_MASK & CapSense_IIR2_FILTER)   | \
  28:Generated_Source\PSoC5/CapSense_CSHL.c ****         (CapSense_RAW_FILTER_MASK & CapSense_IIR4_FILTER)   | \
  29:Generated_Source\PSoC5/CapSense_CSHL.c ****         (CapSense_RAW_FILTER_MASK & CapSense_JITTER_FILTER) | \
  30:Generated_Source\PSoC5/CapSense_CSHL.c ****         (CapSense_RAW_FILTER_MASK & CapSense_IIR8_FILTER)   | \
  31:Generated_Source\PSoC5/CapSense_CSHL.c ****         (CapSense_RAW_FILTER_MASK & CapSense_IIR16_FILTER) )
  32:Generated_Source\PSoC5/CapSense_CSHL.c ****         
  33:Generated_Source\PSoC5/CapSense_CSHL.c ****     uint16 CapSense_rawFilterData1[CapSense_TOTAL_SENSOR_COUNT];
  34:Generated_Source\PSoC5/CapSense_CSHL.c **** 
  35:Generated_Source\PSoC5/CapSense_CSHL.c **** #else
  36:Generated_Source\PSoC5/CapSense_CSHL.c ****     /* No Raw filters */
  37:Generated_Source\PSoC5/CapSense_CSHL.c **** #endif  /* ( (CapSense_RAW_FILTER_MASK & CapSense_MEDIAN_FILTER) || \
  38:Generated_Source\PSoC5/CapSense_CSHL.c ****         *    (CapSense_RAW_FILTER_MASK & CapSense_AVERAGING_FILTER) )
  39:Generated_Source\PSoC5/CapSense_CSHL.c ****         */
  40:Generated_Source\PSoC5/CapSense_CSHL.c **** 
  41:Generated_Source\PSoC5/CapSense_CSHL.c **** uint16 CapSense_sensorBaseline[CapSense_TOTAL_SENSOR_COUNT];
  42:Generated_Source\PSoC5/CapSense_CSHL.c **** uint8 CapSense_sensorBaselineLow[CapSense_TOTAL_SENSOR_COUNT];
  43:Generated_Source\PSoC5/CapSense_CSHL.c **** uint16 CapSense_sensorSignal[CapSense_TOTAL_SENSOR_COUNT];
  44:Generated_Source\PSoC5/CapSense_CSHL.c **** uint8 CapSense_sensorOnMask[(((CapSense_TOTAL_SENSOR_COUNT - 1u) / 8u) + 1u)];
  45:Generated_Source\PSoC5/CapSense_CSHL.c **** 
  46:Generated_Source\PSoC5/CapSense_CSHL.c **** uint8 CapSense_lowBaselineResetCnt[CapSense_TOTAL_SENSOR_COUNT];
  47:Generated_Source\PSoC5/CapSense_CSHL.c **** 
  48:Generated_Source\PSoC5/CapSense_CSHL.c **** uint16 CapSense_fingerThreshold[] = {
  49:Generated_Source\PSoC5/CapSense_CSHL.c ****     20u, 20u, 20u, 20u, 20u, 20u, 20u, 20u, 20u, 20u, 20u, 20u, 
  50:Generated_Source\PSoC5/CapSense_CSHL.c **** };
  51:Generated_Source\PSoC5/CapSense_CSHL.c **** 
  52:Generated_Source\PSoC5/CapSense_CSHL.c **** uint16 CapSense_noiseThreshold[] = {
  53:Generated_Source\PSoC5/CapSense_CSHL.c ****     10u, 10u, 10u, 10u, 10u, 10u, 10u, 10u, 10u, 10u, 10u, 10u, 
  54:Generated_Source\PSoC5/CapSense_CSHL.c **** };
  55:Generated_Source\PSoC5/CapSense_CSHL.c **** 
  56:Generated_Source\PSoC5/CapSense_CSHL.c **** uint16 CapSense_hysteresis[] = {
  57:Generated_Source\PSoC5/CapSense_CSHL.c ****     12u, 12u, 12u, 12u, 12u, 12u, 12u, 12u, 12u, 12u, 12u, 12u, 
  58:Generated_Source\PSoC5/CapSense_CSHL.c **** };
  59:Generated_Source\PSoC5/CapSense_CSHL.c **** 
  60:Generated_Source\PSoC5/CapSense_CSHL.c **** uint8 CapSense_debounce[] = {
  61:Generated_Source\PSoC5/CapSense_CSHL.c ****     1u, 1u, 1u, 1u, 1u, 1u, 1u, 1u, 1u, 1u, 1u, 1u, 
  62:Generated_Source\PSoC5/CapSense_CSHL.c **** };
  63:Generated_Source\PSoC5/CapSense_CSHL.c **** 
  64:Generated_Source\PSoC5/CapSense_CSHL.c **** uint8 CapSense_debounceCounter[] = {
  65:Generated_Source\PSoC5/CapSense_CSHL.c ****     0u, 0u, 0u, 0u, 0u, 0u, 0u, 0u, 0u, 0u, 0u, 0u, 0u, 
  66:Generated_Source\PSoC5/CapSense_CSHL.c **** };
  67:Generated_Source\PSoC5/CapSense_CSHL.c **** 
  68:Generated_Source\PSoC5/CapSense_CSHL.c **** const uint8 CYCODE CapSense_rawDataIndex[] = {
  69:Generated_Source\PSoC5/CapSense_CSHL.c ****     0u, /* Button0__BTN */
  70:Generated_Source\PSoC5/CapSense_CSHL.c ****     1u, /* Button1__BTN */
  71:Generated_Source\PSoC5/CapSense_CSHL.c ****     2u, /* Button2__BTN */
  72:Generated_Source\PSoC5/CapSense_CSHL.c ****     3u, /* Button3__BTN */
  73:Generated_Source\PSoC5/CapSense_CSHL.c ****     4u, /* Button4__BTN */
  74:Generated_Source\PSoC5/CapSense_CSHL.c ****     5u, /* Button5__BTN */
  75:Generated_Source\PSoC5/CapSense_CSHL.c ****     6u, /* Button6__BTN */
  76:Generated_Source\PSoC5/CapSense_CSHL.c ****     7u, /* Button7__BTN */
  77:Generated_Source\PSoC5/CapSense_CSHL.c ****     8u, /* Button8__BTN */
  78:Generated_Source\PSoC5/CapSense_CSHL.c ****     9u, /* Button9__BTN */
  79:Generated_Source\PSoC5/CapSense_CSHL.c ****     10u, /* Button10__BTN */
  80:Generated_Source\PSoC5/CapSense_CSHL.c ****     11u, /* Button11__BTN */
  81:Generated_Source\PSoC5/CapSense_CSHL.c **** 
ARM GAS  C:\Users\JEFFSN~1\AppData\Local\Temp\cckGk2Ra.s 			page 5


  82:Generated_Source\PSoC5/CapSense_CSHL.c **** };
  83:Generated_Source\PSoC5/CapSense_CSHL.c **** 
  84:Generated_Source\PSoC5/CapSense_CSHL.c **** const uint8 CYCODE CapSense_numberOfSensors[] = {
  85:Generated_Source\PSoC5/CapSense_CSHL.c ****     1u, /* Button0__BTN */
  86:Generated_Source\PSoC5/CapSense_CSHL.c ****     1u, /* Button1__BTN */
  87:Generated_Source\PSoC5/CapSense_CSHL.c ****     1u, /* Button2__BTN */
  88:Generated_Source\PSoC5/CapSense_CSHL.c ****     1u, /* Button3__BTN */
  89:Generated_Source\PSoC5/CapSense_CSHL.c ****     1u, /* Button4__BTN */
  90:Generated_Source\PSoC5/CapSense_CSHL.c ****     1u, /* Button5__BTN */
  91:Generated_Source\PSoC5/CapSense_CSHL.c ****     1u, /* Button6__BTN */
  92:Generated_Source\PSoC5/CapSense_CSHL.c ****     1u, /* Button7__BTN */
  93:Generated_Source\PSoC5/CapSense_CSHL.c ****     1u, /* Button8__BTN */
  94:Generated_Source\PSoC5/CapSense_CSHL.c ****     1u, /* Button9__BTN */
  95:Generated_Source\PSoC5/CapSense_CSHL.c ****     1u, /* Button10__BTN */
  96:Generated_Source\PSoC5/CapSense_CSHL.c ****     1u, /* Button11__BTN */
  97:Generated_Source\PSoC5/CapSense_CSHL.c **** 
  98:Generated_Source\PSoC5/CapSense_CSHL.c **** };
  99:Generated_Source\PSoC5/CapSense_CSHL.c **** 
 100:Generated_Source\PSoC5/CapSense_CSHL.c **** 
 101:Generated_Source\PSoC5/CapSense_CSHL.c **** 
 102:Generated_Source\PSoC5/CapSense_CSHL.c **** 
 103:Generated_Source\PSoC5/CapSense_CSHL.c **** /*******************************************************************************
 104:Generated_Source\PSoC5/CapSense_CSHL.c **** * Function Name: CapSense_BaseInit
 105:Generated_Source\PSoC5/CapSense_CSHL.c **** ********************************************************************************
 106:Generated_Source\PSoC5/CapSense_CSHL.c **** *
 107:Generated_Source\PSoC5/CapSense_CSHL.c **** * Summary:
 108:Generated_Source\PSoC5/CapSense_CSHL.c **** *  Loads the CapSense_sensorBaseline[sensor] array element with an 
 109:Generated_Source\PSoC5/CapSense_CSHL.c **** *  initial value which is equal to raw count value. 
 110:Generated_Source\PSoC5/CapSense_CSHL.c **** *  Resets to zero CapSense_sensorBaselineLow[sensor] and 
 111:Generated_Source\PSoC5/CapSense_CSHL.c **** *  CapSense_sensorSignal[sensor] array element.
 112:Generated_Source\PSoC5/CapSense_CSHL.c **** *  Loads CapSense_debounceCounter[sensor] array element with initial 
 113:Generated_Source\PSoC5/CapSense_CSHL.c **** *  value equal CapSense_debounce[].
 114:Generated_Source\PSoC5/CapSense_CSHL.c **** *  Loads the CapSense_rawFilterData2[sensor] and 
 115:Generated_Source\PSoC5/CapSense_CSHL.c **** *  CapSense_rawFilterData2[sensor] array element with an 
 116:Generated_Source\PSoC5/CapSense_CSHL.c **** *  initial value which is equal raw count value if raw data filter is enabled.
 117:Generated_Source\PSoC5/CapSense_CSHL.c **** *
 118:Generated_Source\PSoC5/CapSense_CSHL.c **** * Parameters:
 119:Generated_Source\PSoC5/CapSense_CSHL.c **** *  sensor:  Sensor number.
 120:Generated_Source\PSoC5/CapSense_CSHL.c **** *
 121:Generated_Source\PSoC5/CapSense_CSHL.c **** * Return:
 122:Generated_Source\PSoC5/CapSense_CSHL.c **** *  None
 123:Generated_Source\PSoC5/CapSense_CSHL.c **** *
 124:Generated_Source\PSoC5/CapSense_CSHL.c **** * Global Variables:
 125:Generated_Source\PSoC5/CapSense_CSHL.c **** *  CapSense_sensorBaseline[]    - used to store baseline value.
 126:Generated_Source\PSoC5/CapSense_CSHL.c **** *  CapSense_sensorBaselineLow[] - used to store fraction byte of 
 127:Generated_Source\PSoC5/CapSense_CSHL.c **** *  baseline value.
 128:Generated_Source\PSoC5/CapSense_CSHL.c **** *  CapSense_sensorSignal[]      - used to store diffence between 
 129:Generated_Source\PSoC5/CapSense_CSHL.c **** *  current value of raw data and previous value of baseline.
 130:Generated_Source\PSoC5/CapSense_CSHL.c **** *  CapSense_debounceCounter[]   - used to store current debounce 
 131:Generated_Source\PSoC5/CapSense_CSHL.c **** *  counter of sensor. Widget which has this parameter are buttons, matrix 
 132:Generated_Source\PSoC5/CapSense_CSHL.c **** *  buttons, proximity, guard. All other widgets haven't debounce parameter
 133:Generated_Source\PSoC5/CapSense_CSHL.c **** *  and use the last element of this array with value 0 (it means no debounce).
 134:Generated_Source\PSoC5/CapSense_CSHL.c **** *  CapSense_rawFilterData1[]    - used to store previous sample of 
 135:Generated_Source\PSoC5/CapSense_CSHL.c **** *  any enabled raw data filter.
 136:Generated_Source\PSoC5/CapSense_CSHL.c **** *  CapSense_rawFilterData2[]    - used to store before previous sample
 137:Generated_Source\PSoC5/CapSense_CSHL.c **** *  of enabled raw data filter. Only required for median or average filters.
 138:Generated_Source\PSoC5/CapSense_CSHL.c **** *
ARM GAS  C:\Users\JEFFSN~1\AppData\Local\Temp\cckGk2Ra.s 			page 6


 139:Generated_Source\PSoC5/CapSense_CSHL.c **** * Reentrant:
 140:Generated_Source\PSoC5/CapSense_CSHL.c **** *  No
 141:Generated_Source\PSoC5/CapSense_CSHL.c **** *
 142:Generated_Source\PSoC5/CapSense_CSHL.c **** *******************************************************************************/
 143:Generated_Source\PSoC5/CapSense_CSHL.c **** void CapSense_BaseInit(uint8 sensor) 
 144:Generated_Source\PSoC5/CapSense_CSHL.c **** {
 145              		.loc 1 144 0
 146              		.cfi_startproc
 147              		@ args = 0, pretend = 0, frame = 16
 148              		@ frame_needed = 1, uses_anonymous_args = 0
 149              		@ link register save eliminated.
 150 0000 80B4     		push	{r7}
 151              		.cfi_def_cfa_offset 4
 152              		.cfi_offset 7, -4
 153 0002 85B0     		sub	sp, sp, #20
 154              		.cfi_def_cfa_offset 24
 155 0004 00AF     		add	r7, sp, #0
 156              		.cfi_def_cfa_register 7
 157 0006 0346     		mov	r3, r0
 158 0008 FB71     		strb	r3, [r7, #7]
 145:Generated_Source\PSoC5/CapSense_CSHL.c ****     #if ((CapSense_TOTAL_BUTTONS_COUNT) || (CapSense_TOTAL_MATRIX_BUTTONS_COUNT) || \
 146:Generated_Source\PSoC5/CapSense_CSHL.c ****          (CapSense_TOTAL_GENERICS_COUNT))
 147:Generated_Source\PSoC5/CapSense_CSHL.c ****         uint8 widget = CapSense_widgetNumber[sensor];
 159              		.loc 1 147 0
 160 000a FB79     		ldrb	r3, [r7, #7]	@ zero_extendqisi2
 161 000c 134A     		ldr	r2, .L2
 162 000e D35C     		ldrb	r3, [r2, r3]
 163 0010 FB73     		strb	r3, [r7, #15]
 148:Generated_Source\PSoC5/CapSense_CSHL.c ****     #endif /* ((CapSense_TOTAL_MATRIX_BUTTONS_COUNT) || (CapSense_TOTAL_MATRIX_BUTTONS_COUNT)) */
 149:Generated_Source\PSoC5/CapSense_CSHL.c ****     
 150:Generated_Source\PSoC5/CapSense_CSHL.c ****     #if (CapSense_TOTAL_MATRIX_BUTTONS_COUNT)
 151:Generated_Source\PSoC5/CapSense_CSHL.c ****         uint8 debounceIndex;
 152:Generated_Source\PSoC5/CapSense_CSHL.c ****     #endif  /* (CapSense_TOTAL_MATRIX_BUTTONS_COUNT) */
 153:Generated_Source\PSoC5/CapSense_CSHL.c ****     
 154:Generated_Source\PSoC5/CapSense_CSHL.c ****     #if (CapSense_TOTAL_GENERICS_COUNT)
 155:Generated_Source\PSoC5/CapSense_CSHL.c ****         /* Exclude generic widget */
 156:Generated_Source\PSoC5/CapSense_CSHL.c ****         if(widget < CapSense_END_OF_WIDGETS_INDEX)
 157:Generated_Source\PSoC5/CapSense_CSHL.c ****         {
 158:Generated_Source\PSoC5/CapSense_CSHL.c ****     #endif  /* CapSense_TOTAL_GENERICS_COUNT */
 159:Generated_Source\PSoC5/CapSense_CSHL.c ****     
 160:Generated_Source\PSoC5/CapSense_CSHL.c ****     /* Initialize Baseline */
 161:Generated_Source\PSoC5/CapSense_CSHL.c ****     CapSense_sensorBaseline[sensor] = CapSense_sensorRaw[sensor];
 164              		.loc 1 161 0
 165 0012 FB79     		ldrb	r3, [r7, #7]	@ zero_extendqisi2
 166 0014 FA79     		ldrb	r2, [r7, #7]	@ zero_extendqisi2
 167 0016 1249     		ldr	r1, .L2+4
 168 0018 31F81210 		ldrh	r1, [r1, r2, lsl #1]
 169 001c 114A     		ldr	r2, .L2+8
 170 001e 22F81310 		strh	r1, [r2, r3, lsl #1]	@ movhi
 162:Generated_Source\PSoC5/CapSense_CSHL.c ****     CapSense_sensorBaselineLow[sensor] = 0u;
 171              		.loc 1 162 0
 172 0022 FB79     		ldrb	r3, [r7, #7]	@ zero_extendqisi2
 173 0024 104A     		ldr	r2, .L2+12
 174 0026 0021     		movs	r1, #0
 175 0028 D154     		strb	r1, [r2, r3]
 163:Generated_Source\PSoC5/CapSense_CSHL.c ****     CapSense_sensorSignal[sensor] = 0u;
 176              		.loc 1 163 0
ARM GAS  C:\Users\JEFFSN~1\AppData\Local\Temp\cckGk2Ra.s 			page 7


 177 002a FB79     		ldrb	r3, [r7, #7]	@ zero_extendqisi2
 178 002c 0F4A     		ldr	r2, .L2+16
 179 002e 0021     		movs	r1, #0
 180 0030 22F81310 		strh	r1, [r2, r3, lsl #1]	@ movhi
 164:Generated_Source\PSoC5/CapSense_CSHL.c ****         
 165:Generated_Source\PSoC5/CapSense_CSHL.c ****     CapSense_debounceCounter[widget] =  CapSense_debounce[widget];
 181              		.loc 1 165 0
 182 0034 FB7B     		ldrb	r3, [r7, #15]	@ zero_extendqisi2
 183 0036 FA7B     		ldrb	r2, [r7, #15]	@ zero_extendqisi2
 184 0038 0D49     		ldr	r1, .L2+20
 185 003a 895C     		ldrb	r1, [r1, r2]	@ zero_extendqisi2
 186 003c 0D4A     		ldr	r2, .L2+24
 187 003e D154     		strb	r1, [r2, r3]
 166:Generated_Source\PSoC5/CapSense_CSHL.c **** 
 167:Generated_Source\PSoC5/CapSense_CSHL.c ****     
 168:Generated_Source\PSoC5/CapSense_CSHL.c ****     #if ((CapSense_RAW_FILTER_MASK & CapSense_MEDIAN_FILTER) |\
 169:Generated_Source\PSoC5/CapSense_CSHL.c ****          (CapSense_RAW_FILTER_MASK & CapSense_AVERAGING_FILTER))
 170:Generated_Source\PSoC5/CapSense_CSHL.c **** 
 171:Generated_Source\PSoC5/CapSense_CSHL.c ****         CapSense_rawFilterData1[sensor] = CapSense_sensorRaw[sensor];
 172:Generated_Source\PSoC5/CapSense_CSHL.c ****         CapSense_rawFilterData2[sensor] = CapSense_sensorRaw[sensor];
 173:Generated_Source\PSoC5/CapSense_CSHL.c ****     
 174:Generated_Source\PSoC5/CapSense_CSHL.c ****     #elif ((CapSense_RAW_FILTER_MASK & CapSense_IIR2_FILTER) |\
 175:Generated_Source\PSoC5/CapSense_CSHL.c ****            (CapSense_RAW_FILTER_MASK & CapSense_IIR4_FILTER) |\
 176:Generated_Source\PSoC5/CapSense_CSHL.c ****            (CapSense_RAW_FILTER_MASK & CapSense_JITTER_FILTER) |\
 177:Generated_Source\PSoC5/CapSense_CSHL.c ****            (CapSense_RAW_FILTER_MASK & CapSense_IIR8_FILTER) |\
 178:Generated_Source\PSoC5/CapSense_CSHL.c ****            (CapSense_RAW_FILTER_MASK & CapSense_IIR16_FILTER))
 179:Generated_Source\PSoC5/CapSense_CSHL.c ****             
 180:Generated_Source\PSoC5/CapSense_CSHL.c ****         CapSense_rawFilterData1[sensor] = CapSense_sensorRaw[sensor];
 188              		.loc 1 180 0
 189 0040 FB79     		ldrb	r3, [r7, #7]	@ zero_extendqisi2
 190 0042 FA79     		ldrb	r2, [r7, #7]	@ zero_extendqisi2
 191 0044 0649     		ldr	r1, .L2+4
 192 0046 31F81210 		ldrh	r1, [r1, r2, lsl #1]
 193 004a 0B4A     		ldr	r2, .L2+28
 194 004c 22F81310 		strh	r1, [r2, r3, lsl #1]	@ movhi
 181:Generated_Source\PSoC5/CapSense_CSHL.c ****     
 182:Generated_Source\PSoC5/CapSense_CSHL.c ****     #else
 183:Generated_Source\PSoC5/CapSense_CSHL.c ****         /* No Raw filters */
 184:Generated_Source\PSoC5/CapSense_CSHL.c ****     #endif  /* ((CapSense_RAW_FILTER_MASK & CapSense_MEDIAN_FILTER) | \
 185:Generated_Source\PSoC5/CapSense_CSHL.c ****             *   (CapSense_RAW_FILTER_MASK & CapSense_AVERAGING_FILTER))
 186:Generated_Source\PSoC5/CapSense_CSHL.c ****             */
 187:Generated_Source\PSoC5/CapSense_CSHL.c ****     
 188:Generated_Source\PSoC5/CapSense_CSHL.c ****     #if (CapSense_TOTAL_GENERICS_COUNT)
 189:Generated_Source\PSoC5/CapSense_CSHL.c ****         /* Exclude generic widget */
 190:Generated_Source\PSoC5/CapSense_CSHL.c ****         }
 191:Generated_Source\PSoC5/CapSense_CSHL.c ****     #endif  /* CapSense_TOTAL_GENERICS_COUNT */
 192:Generated_Source\PSoC5/CapSense_CSHL.c **** }
 195              		.loc 1 192 0
 196 0050 00BF     		nop
 197 0052 1437     		adds	r7, r7, #20
 198              		.cfi_def_cfa_offset 4
 199 0054 BD46     		mov	sp, r7
 200              		.cfi_def_cfa_register 13
 201              		@ sp needed
 202 0056 80BC     		pop	{r7}
 203              		.cfi_restore 7
 204              		.cfi_def_cfa_offset 0
ARM GAS  C:\Users\JEFFSN~1\AppData\Local\Temp\cckGk2Ra.s 			page 8


 205 0058 7047     		bx	lr
 206              	.L3:
 207 005a 00BF     		.align	2
 208              	.L2:
 209 005c 00000000 		.word	CapSense_widgetNumber
 210 0060 00000000 		.word	CapSense_sensorRaw
 211 0064 00000000 		.word	CapSense_sensorBaseline
 212 0068 00000000 		.word	CapSense_sensorBaselineLow
 213 006c 00000000 		.word	CapSense_sensorSignal
 214 0070 00000000 		.word	CapSense_debounce
 215 0074 00000000 		.word	CapSense_debounceCounter
 216 0078 00000000 		.word	CapSense_rawFilterData1
 217              		.cfi_endproc
 218              	.LFE0:
 219              		.size	CapSense_BaseInit, .-CapSense_BaseInit
 220              		.section	.text.CapSense_InitializeSensorBaseline,"ax",%progbits
 221              		.align	2
 222              		.global	CapSense_InitializeSensorBaseline
 223              		.thumb
 224              		.thumb_func
 225              		.type	CapSense_InitializeSensorBaseline, %function
 226              	CapSense_InitializeSensorBaseline:
 227              	.LFB1:
 193:Generated_Source\PSoC5/CapSense_CSHL.c **** 
 194:Generated_Source\PSoC5/CapSense_CSHL.c **** 
 195:Generated_Source\PSoC5/CapSense_CSHL.c **** /*******************************************************************************
 196:Generated_Source\PSoC5/CapSense_CSHL.c **** * Function Name: CapSense_InitializeSensorBaseline
 197:Generated_Source\PSoC5/CapSense_CSHL.c **** ********************************************************************************
 198:Generated_Source\PSoC5/CapSense_CSHL.c **** *
 199:Generated_Source\PSoC5/CapSense_CSHL.c **** * Summary:
 200:Generated_Source\PSoC5/CapSense_CSHL.c **** *  Loads the CapSense_sensorBaseline[sensor] array element with an 
 201:Generated_Source\PSoC5/CapSense_CSHL.c **** *  initial value by scanning the selected sensor (one channel design) or pair 
 202:Generated_Source\PSoC5/CapSense_CSHL.c **** *  of sensors (two channels designs). The raw count value is copied into the 
 203:Generated_Source\PSoC5/CapSense_CSHL.c **** *  baseline array for each sensor. The raw data filters are initialized if 
 204:Generated_Source\PSoC5/CapSense_CSHL.c **** *  enabled.
 205:Generated_Source\PSoC5/CapSense_CSHL.c **** *
 206:Generated_Source\PSoC5/CapSense_CSHL.c **** * Parameters:
 207:Generated_Source\PSoC5/CapSense_CSHL.c **** *  sensor:  Sensor number.
 208:Generated_Source\PSoC5/CapSense_CSHL.c **** *
 209:Generated_Source\PSoC5/CapSense_CSHL.c **** * Return:
 210:Generated_Source\PSoC5/CapSense_CSHL.c **** *  None
 211:Generated_Source\PSoC5/CapSense_CSHL.c **** *
 212:Generated_Source\PSoC5/CapSense_CSHL.c **** * Reentrant:
 213:Generated_Source\PSoC5/CapSense_CSHL.c **** *  No
 214:Generated_Source\PSoC5/CapSense_CSHL.c **** *
 215:Generated_Source\PSoC5/CapSense_CSHL.c **** *******************************************************************************/
 216:Generated_Source\PSoC5/CapSense_CSHL.c **** void CapSense_InitializeSensorBaseline(uint8 sensor)
 217:Generated_Source\PSoC5/CapSense_CSHL.c ****                           
 218:Generated_Source\PSoC5/CapSense_CSHL.c **** {
 228              		.loc 1 218 0
 229              		.cfi_startproc
 230              		@ args = 0, pretend = 0, frame = 8
 231              		@ frame_needed = 1, uses_anonymous_args = 0
 232 0000 80B5     		push	{r7, lr}
 233              		.cfi_def_cfa_offset 8
 234              		.cfi_offset 7, -8
 235              		.cfi_offset 14, -4
ARM GAS  C:\Users\JEFFSN~1\AppData\Local\Temp\cckGk2Ra.s 			page 9


 236 0002 82B0     		sub	sp, sp, #8
 237              		.cfi_def_cfa_offset 16
 238 0004 00AF     		add	r7, sp, #0
 239              		.cfi_def_cfa_register 7
 240 0006 0346     		mov	r3, r0
 241 0008 FB71     		strb	r3, [r7, #7]
 219:Generated_Source\PSoC5/CapSense_CSHL.c ****     /* Scan sensor */
 220:Generated_Source\PSoC5/CapSense_CSHL.c ****     CapSense_ScanSensor(sensor);
 242              		.loc 1 220 0
 243 000a FB79     		ldrb	r3, [r7, #7]	@ zero_extendqisi2
 244 000c 1846     		mov	r0, r3
 245 000e FFF7FEFF 		bl	CapSense_ScanSensor
 221:Generated_Source\PSoC5/CapSense_CSHL.c ****     while(CapSense_IsBusy() != 0u)
 246              		.loc 1 221 0
 247 0012 00BF     		nop
 248              	.L5:
 249              		.loc 1 221 0 is_stmt 0 discriminator 1
 250 0014 FFF7FEFF 		bl	CapSense_IsBusy
 251 0018 0346     		mov	r3, r0
 252 001a 002B     		cmp	r3, #0
 253 001c FAD1     		bne	.L5
 222:Generated_Source\PSoC5/CapSense_CSHL.c ****     {
 223:Generated_Source\PSoC5/CapSense_CSHL.c ****         /* Wait while busy */
 224:Generated_Source\PSoC5/CapSense_CSHL.c ****     }
 225:Generated_Source\PSoC5/CapSense_CSHL.c ****     
 226:Generated_Source\PSoC5/CapSense_CSHL.c ****     #if (CapSense_DESIGN_TYPE == CapSense_ONE_CHANNEL_DESIGN)
 227:Generated_Source\PSoC5/CapSense_CSHL.c ****         /* Initialize Baseline, Signal and debounce counters */       
 228:Generated_Source\PSoC5/CapSense_CSHL.c ****         CapSense_BaseInit(sensor);
 254              		.loc 1 228 0 is_stmt 1
 255 001e FB79     		ldrb	r3, [r7, #7]	@ zero_extendqisi2
 256 0020 1846     		mov	r0, r3
 257 0022 FFF7FEFF 		bl	CapSense_BaseInit
 229:Generated_Source\PSoC5/CapSense_CSHL.c ****         
 230:Generated_Source\PSoC5/CapSense_CSHL.c ****     #else
 231:Generated_Source\PSoC5/CapSense_CSHL.c ****     
 232:Generated_Source\PSoC5/CapSense_CSHL.c ****         if(sensor < CapSense_TOTAL_SENSOR_COUNT__CH0)
 233:Generated_Source\PSoC5/CapSense_CSHL.c ****         {
 234:Generated_Source\PSoC5/CapSense_CSHL.c ****             /* Initialize Baseline, Signal and debounce counters */ 
 235:Generated_Source\PSoC5/CapSense_CSHL.c ****             CapSense_BaseInit(sensor);
 236:Generated_Source\PSoC5/CapSense_CSHL.c ****         }
 237:Generated_Source\PSoC5/CapSense_CSHL.c ****         
 238:Generated_Source\PSoC5/CapSense_CSHL.c ****         if(sensor < CapSense_TOTAL_SENSOR_COUNT__CH1)
 239:Generated_Source\PSoC5/CapSense_CSHL.c ****         {
 240:Generated_Source\PSoC5/CapSense_CSHL.c ****             /* Initialize Baseline, Signal and debounce counters */
 241:Generated_Source\PSoC5/CapSense_CSHL.c ****             CapSense_BaseInit(sensor + CapSense_TOTAL_SENSOR_COUNT__CH0);
 242:Generated_Source\PSoC5/CapSense_CSHL.c ****         }
 243:Generated_Source\PSoC5/CapSense_CSHL.c ****     
 244:Generated_Source\PSoC5/CapSense_CSHL.c ****     #endif  /* (CapSense_DESIGN_TYPE == CapSense_ONE_CHANNEL_DESIGN) */
 245:Generated_Source\PSoC5/CapSense_CSHL.c **** }
 258              		.loc 1 245 0
 259 0026 00BF     		nop
 260 0028 0837     		adds	r7, r7, #8
 261              		.cfi_def_cfa_offset 8
 262 002a BD46     		mov	sp, r7
 263              		.cfi_def_cfa_register 13
 264              		@ sp needed
 265 002c 80BD     		pop	{r7, pc}
ARM GAS  C:\Users\JEFFSN~1\AppData\Local\Temp\cckGk2Ra.s 			page 10


 266              		.cfi_endproc
 267              	.LFE1:
 268              		.size	CapSense_InitializeSensorBaseline, .-CapSense_InitializeSensorBaseline
 269 002e 00BF     		.section	.text.CapSense_InitializeAllBaselines,"ax",%progbits
 270              		.align	2
 271              		.global	CapSense_InitializeAllBaselines
 272              		.thumb
 273              		.thumb_func
 274              		.type	CapSense_InitializeAllBaselines, %function
 275              	CapSense_InitializeAllBaselines:
 276              	.LFB2:
 246:Generated_Source\PSoC5/CapSense_CSHL.c **** 
 247:Generated_Source\PSoC5/CapSense_CSHL.c **** 
 248:Generated_Source\PSoC5/CapSense_CSHL.c **** /*******************************************************************************
 249:Generated_Source\PSoC5/CapSense_CSHL.c **** * Function Name: CapSense_InitializeAllBaselines
 250:Generated_Source\PSoC5/CapSense_CSHL.c **** ********************************************************************************
 251:Generated_Source\PSoC5/CapSense_CSHL.c **** *
 252:Generated_Source\PSoC5/CapSense_CSHL.c **** * Summary:
 253:Generated_Source\PSoC5/CapSense_CSHL.c **** *  Uses the CapSense_InitializeSensorBaseline function to loads the 
 254:Generated_Source\PSoC5/CapSense_CSHL.c **** *  CapSense_sensorBaseline[] array with an initial values by scanning 
 255:Generated_Source\PSoC5/CapSense_CSHL.c **** *  all sensors. The raw count values are copied into the baseline array for 
 256:Generated_Source\PSoC5/CapSense_CSHL.c **** *  all sensors. The raw data filters are initialized if enabled.
 257:Generated_Source\PSoC5/CapSense_CSHL.c **** *
 258:Generated_Source\PSoC5/CapSense_CSHL.c **** * Parameters:
 259:Generated_Source\PSoC5/CapSense_CSHL.c **** *  None
 260:Generated_Source\PSoC5/CapSense_CSHL.c **** *
 261:Generated_Source\PSoC5/CapSense_CSHL.c **** * Return:
 262:Generated_Source\PSoC5/CapSense_CSHL.c **** *  None
 263:Generated_Source\PSoC5/CapSense_CSHL.c **** *
 264:Generated_Source\PSoC5/CapSense_CSHL.c **** * Reentrant:
 265:Generated_Source\PSoC5/CapSense_CSHL.c **** *  No
 266:Generated_Source\PSoC5/CapSense_CSHL.c **** *
 267:Generated_Source\PSoC5/CapSense_CSHL.c **** *******************************************************************************/
 268:Generated_Source\PSoC5/CapSense_CSHL.c **** void CapSense_InitializeAllBaselines(void)
 269:Generated_Source\PSoC5/CapSense_CSHL.c ****                           
 270:Generated_Source\PSoC5/CapSense_CSHL.c **** {
 277              		.loc 1 270 0
 278              		.cfi_startproc
 279              		@ args = 0, pretend = 0, frame = 8
 280              		@ frame_needed = 1, uses_anonymous_args = 0
 281 0000 80B5     		push	{r7, lr}
 282              		.cfi_def_cfa_offset 8
 283              		.cfi_offset 7, -8
 284              		.cfi_offset 14, -4
 285 0002 82B0     		sub	sp, sp, #8
 286              		.cfi_def_cfa_offset 16
 287 0004 00AF     		add	r7, sp, #0
 288              		.cfi_def_cfa_register 7
 271:Generated_Source\PSoC5/CapSense_CSHL.c ****     uint8 i;
 272:Generated_Source\PSoC5/CapSense_CSHL.c ****     
 273:Generated_Source\PSoC5/CapSense_CSHL.c ****     /* The baseline initialize by sensor of sensor pair */
 274:Generated_Source\PSoC5/CapSense_CSHL.c ****     for(i = 0u; i < CapSense_TOTAL_SCANSLOT_COUNT; i++)
 289              		.loc 1 274 0
 290 0006 0023     		movs	r3, #0
 291 0008 FB71     		strb	r3, [r7, #7]
 292 000a 06E0     		b	.L7
 293              	.L8:
ARM GAS  C:\Users\JEFFSN~1\AppData\Local\Temp\cckGk2Ra.s 			page 11


 275:Generated_Source\PSoC5/CapSense_CSHL.c ****     {
 276:Generated_Source\PSoC5/CapSense_CSHL.c ****         CapSense_InitializeSensorBaseline(i);
 294              		.loc 1 276 0 discriminator 3
 295 000c FB79     		ldrb	r3, [r7, #7]	@ zero_extendqisi2
 296 000e 1846     		mov	r0, r3
 297 0010 FFF7FEFF 		bl	CapSense_InitializeSensorBaseline
 274:Generated_Source\PSoC5/CapSense_CSHL.c ****     {
 298              		.loc 1 274 0 discriminator 3
 299 0014 FB79     		ldrb	r3, [r7, #7]	@ zero_extendqisi2
 300 0016 0133     		adds	r3, r3, #1
 301 0018 FB71     		strb	r3, [r7, #7]
 302              	.L7:
 274:Generated_Source\PSoC5/CapSense_CSHL.c ****     {
 303              		.loc 1 274 0 is_stmt 0 discriminator 1
 304 001a FB79     		ldrb	r3, [r7, #7]	@ zero_extendqisi2
 305 001c 0B2B     		cmp	r3, #11
 306 001e F5D9     		bls	.L8
 277:Generated_Source\PSoC5/CapSense_CSHL.c ****     }
 278:Generated_Source\PSoC5/CapSense_CSHL.c **** }
 307              		.loc 1 278 0 is_stmt 1
 308 0020 00BF     		nop
 309 0022 0837     		adds	r7, r7, #8
 310              		.cfi_def_cfa_offset 8
 311 0024 BD46     		mov	sp, r7
 312              		.cfi_def_cfa_register 13
 313              		@ sp needed
 314 0026 80BD     		pop	{r7, pc}
 315              		.cfi_endproc
 316              	.LFE2:
 317              		.size	CapSense_InitializeAllBaselines, .-CapSense_InitializeAllBaselines
 318              		.section	.text.CapSense_InitializeEnabledBaselines,"ax",%progbits
 319              		.align	2
 320              		.global	CapSense_InitializeEnabledBaselines
 321              		.thumb
 322              		.thumb_func
 323              		.type	CapSense_InitializeEnabledBaselines, %function
 324              	CapSense_InitializeEnabledBaselines:
 325              	.LFB3:
 279:Generated_Source\PSoC5/CapSense_CSHL.c **** 
 280:Generated_Source\PSoC5/CapSense_CSHL.c **** 
 281:Generated_Source\PSoC5/CapSense_CSHL.c **** /*******************************************************************************
 282:Generated_Source\PSoC5/CapSense_CSHL.c **** * Function Name: CapSense_InitializeEnabledBaselines
 283:Generated_Source\PSoC5/CapSense_CSHL.c **** ********************************************************************************
 284:Generated_Source\PSoC5/CapSense_CSHL.c **** *
 285:Generated_Source\PSoC5/CapSense_CSHL.c **** * Summary:
 286:Generated_Source\PSoC5/CapSense_CSHL.c **** *  Scans all enabled widgets and the raw count values are copied into the 
 287:Generated_Source\PSoC5/CapSense_CSHL.c **** *  baseline array for all sensors enabled in scanning process. Baselines 
 288:Generated_Source\PSoC5/CapSense_CSHL.c **** *  initialize with zero values for sensors disabled from scanning process. 
 289:Generated_Source\PSoC5/CapSense_CSHL.c **** *  The raw data filters are initialized if enabled.
 290:Generated_Source\PSoC5/CapSense_CSHL.c **** *
 291:Generated_Source\PSoC5/CapSense_CSHL.c **** * Parameters:
 292:Generated_Source\PSoC5/CapSense_CSHL.c **** *  None
 293:Generated_Source\PSoC5/CapSense_CSHL.c **** *
 294:Generated_Source\PSoC5/CapSense_CSHL.c **** * Return:
 295:Generated_Source\PSoC5/CapSense_CSHL.c **** *  None
 296:Generated_Source\PSoC5/CapSense_CSHL.c **** *
 297:Generated_Source\PSoC5/CapSense_CSHL.c **** * Reentrant:
ARM GAS  C:\Users\JEFFSN~1\AppData\Local\Temp\cckGk2Ra.s 			page 12


 298:Generated_Source\PSoC5/CapSense_CSHL.c **** *  No
 299:Generated_Source\PSoC5/CapSense_CSHL.c **** *
 300:Generated_Source\PSoC5/CapSense_CSHL.c **** *******************************************************************************/
 301:Generated_Source\PSoC5/CapSense_CSHL.c **** void CapSense_InitializeEnabledBaselines(void)
 302:Generated_Source\PSoC5/CapSense_CSHL.c ****                              
 303:Generated_Source\PSoC5/CapSense_CSHL.c **** {
 326              		.loc 1 303 0
 327              		.cfi_startproc
 328              		@ args = 0, pretend = 0, frame = 8
 329              		@ frame_needed = 1, uses_anonymous_args = 0
 330 0000 80B5     		push	{r7, lr}
 331              		.cfi_def_cfa_offset 8
 332              		.cfi_offset 7, -8
 333              		.cfi_offset 14, -4
 334 0002 82B0     		sub	sp, sp, #8
 335              		.cfi_def_cfa_offset 16
 336 0004 00AF     		add	r7, sp, #0
 337              		.cfi_def_cfa_register 7
 304:Generated_Source\PSoC5/CapSense_CSHL.c ****     uint8 i;
 305:Generated_Source\PSoC5/CapSense_CSHL.c ****     uint8 pos;
 306:Generated_Source\PSoC5/CapSense_CSHL.c ****     uint8 enMask;
 307:Generated_Source\PSoC5/CapSense_CSHL.c ****     
 308:Generated_Source\PSoC5/CapSense_CSHL.c ****     CapSense_ScanEnabledWidgets();
 338              		.loc 1 308 0
 339 0006 FFF7FEFF 		bl	CapSense_ScanEnabledWidgets
 309:Generated_Source\PSoC5/CapSense_CSHL.c ****     while(CapSense_IsBusy() != 0u)
 340              		.loc 1 309 0
 341 000a 00BF     		nop
 342              	.L10:
 343              		.loc 1 309 0 is_stmt 0 discriminator 1
 344 000c FFF7FEFF 		bl	CapSense_IsBusy
 345 0010 0346     		mov	r3, r0
 346 0012 002B     		cmp	r3, #0
 347 0014 FAD1     		bne	.L10
 310:Generated_Source\PSoC5/CapSense_CSHL.c ****     {
 311:Generated_Source\PSoC5/CapSense_CSHL.c ****         /* Wait while busy */
 312:Generated_Source\PSoC5/CapSense_CSHL.c ****     }
 313:Generated_Source\PSoC5/CapSense_CSHL.c ****     
 314:Generated_Source\PSoC5/CapSense_CSHL.c ****     for(i = 0u; i < CapSense_TOTAL_SENSOR_COUNT; i++)
 348              		.loc 1 314 0 is_stmt 1
 349 0016 0023     		movs	r3, #0
 350 0018 FB71     		strb	r3, [r7, #7]
 351 001a 1DE0     		b	.L11
 352              	.L13:
 315:Generated_Source\PSoC5/CapSense_CSHL.c ****     {
 316:Generated_Source\PSoC5/CapSense_CSHL.c ****         pos = (i >> 3u);
 353              		.loc 1 316 0
 354 001c FB79     		ldrb	r3, [r7, #7]	@ zero_extendqisi2
 355 001e DB08     		lsrs	r3, r3, #3
 356 0020 BB71     		strb	r3, [r7, #6]
 317:Generated_Source\PSoC5/CapSense_CSHL.c ****         enMask = 0x01u << (i & 0x07u);
 357              		.loc 1 317 0
 358 0022 FB79     		ldrb	r3, [r7, #7]	@ zero_extendqisi2
 359 0024 03F00703 		and	r3, r3, #7
 360 0028 0122     		movs	r2, #1
 361 002a 02FA03F3 		lsl	r3, r2, r3
 362 002e 7B71     		strb	r3, [r7, #5]
ARM GAS  C:\Users\JEFFSN~1\AppData\Local\Temp\cckGk2Ra.s 			page 13


 318:Generated_Source\PSoC5/CapSense_CSHL.c ****         
 319:Generated_Source\PSoC5/CapSense_CSHL.c ****         /* Clear raw data if sensor is disabled from scanning process */
 320:Generated_Source\PSoC5/CapSense_CSHL.c ****         if((CapSense_sensorEnableMask[pos] & enMask) == 0u)
 363              		.loc 1 320 0
 364 0030 BB79     		ldrb	r3, [r7, #6]	@ zero_extendqisi2
 365 0032 0D4A     		ldr	r2, .L14
 366 0034 D25C     		ldrb	r2, [r2, r3]	@ zero_extendqisi2
 367 0036 7B79     		ldrb	r3, [r7, #5]
 368 0038 1340     		ands	r3, r3, r2
 369 003a DBB2     		uxtb	r3, r3
 370 003c 002B     		cmp	r3, #0
 371 003e 04D1     		bne	.L12
 321:Generated_Source\PSoC5/CapSense_CSHL.c ****         {
 322:Generated_Source\PSoC5/CapSense_CSHL.c ****             CapSense_sensorRaw[i] = 0u;
 372              		.loc 1 322 0
 373 0040 FB79     		ldrb	r3, [r7, #7]	@ zero_extendqisi2
 374 0042 0A4A     		ldr	r2, .L14+4
 375 0044 0021     		movs	r1, #0
 376 0046 22F81310 		strh	r1, [r2, r3, lsl #1]	@ movhi
 377              	.L12:
 323:Generated_Source\PSoC5/CapSense_CSHL.c ****         }
 324:Generated_Source\PSoC5/CapSense_CSHL.c ****         
 325:Generated_Source\PSoC5/CapSense_CSHL.c ****         /* Initialize baselines */
 326:Generated_Source\PSoC5/CapSense_CSHL.c ****         CapSense_BaseInit(i);
 378              		.loc 1 326 0 discriminator 2
 379 004a FB79     		ldrb	r3, [r7, #7]	@ zero_extendqisi2
 380 004c 1846     		mov	r0, r3
 381 004e FFF7FEFF 		bl	CapSense_BaseInit
 314:Generated_Source\PSoC5/CapSense_CSHL.c ****     {
 382              		.loc 1 314 0 discriminator 2
 383 0052 FB79     		ldrb	r3, [r7, #7]	@ zero_extendqisi2
 384 0054 0133     		adds	r3, r3, #1
 385 0056 FB71     		strb	r3, [r7, #7]
 386              	.L11:
 314:Generated_Source\PSoC5/CapSense_CSHL.c ****     {
 387              		.loc 1 314 0 is_stmt 0 discriminator 1
 388 0058 FB79     		ldrb	r3, [r7, #7]	@ zero_extendqisi2
 389 005a 0B2B     		cmp	r3, #11
 390 005c DED9     		bls	.L13
 327:Generated_Source\PSoC5/CapSense_CSHL.c ****     }
 328:Generated_Source\PSoC5/CapSense_CSHL.c **** }  
 391              		.loc 1 328 0 is_stmt 1
 392 005e 00BF     		nop
 393 0060 0837     		adds	r7, r7, #8
 394              		.cfi_def_cfa_offset 8
 395 0062 BD46     		mov	sp, r7
 396              		.cfi_def_cfa_register 13
 397              		@ sp needed
 398 0064 80BD     		pop	{r7, pc}
 399              	.L15:
 400 0066 00BF     		.align	2
 401              	.L14:
 402 0068 00000000 		.word	CapSense_sensorEnableMask
 403 006c 00000000 		.word	CapSense_sensorRaw
 404              		.cfi_endproc
 405              	.LFE3:
 406              		.size	CapSense_InitializeEnabledBaselines, .-CapSense_InitializeEnabledBaselines
ARM GAS  C:\Users\JEFFSN~1\AppData\Local\Temp\cckGk2Ra.s 			page 14


 407              		.section	.text.CapSense_UpdateSensorBaseline,"ax",%progbits
 408              		.align	2
 409              		.global	CapSense_UpdateSensorBaseline
 410              		.thumb
 411              		.thumb_func
 412              		.type	CapSense_UpdateSensorBaseline, %function
 413              	CapSense_UpdateSensorBaseline:
 414              	.LFB4:
 329:Generated_Source\PSoC5/CapSense_CSHL.c **** 
 330:Generated_Source\PSoC5/CapSense_CSHL.c **** 
 331:Generated_Source\PSoC5/CapSense_CSHL.c **** /*******************************************************************************
 332:Generated_Source\PSoC5/CapSense_CSHL.c **** * Function Name: CapSense_UpdateSensorBaseline
 333:Generated_Source\PSoC5/CapSense_CSHL.c **** ********************************************************************************
 334:Generated_Source\PSoC5/CapSense_CSHL.c **** *
 335:Generated_Source\PSoC5/CapSense_CSHL.c **** * Summary:
 336:Generated_Source\PSoC5/CapSense_CSHL.c **** *  Updates the CapSense_sensorBaseline[sensor] array element using the 
 337:Generated_Source\PSoC5/CapSense_CSHL.c **** *  LP filter with k = 256. The signal calculates the difference of count by 
 338:Generated_Source\PSoC5/CapSense_CSHL.c **** *  subtracting the previous baseline from the current raw count value and stores
 339:Generated_Source\PSoC5/CapSense_CSHL.c **** *  it in CapSense_SensorSignal[sensor]. 
 340:Generated_Source\PSoC5/CapSense_CSHL.c **** *  If auto reset option is enabled the baseline updated regards noise threshold. 
 341:Generated_Source\PSoC5/CapSense_CSHL.c **** *  If auto reset option is disabled the baseline stops updating if signal is 
 342:Generated_Source\PSoC5/CapSense_CSHL.c **** *  greater that zero and baseline loads with raw count value if signal is less 
 343:Generated_Source\PSoC5/CapSense_CSHL.c **** *  that noise threshold.
 344:Generated_Source\PSoC5/CapSense_CSHL.c **** *  Raw data filters are applied to the values if enabled before baseline 
 345:Generated_Source\PSoC5/CapSense_CSHL.c **** *  calculation.
 346:Generated_Source\PSoC5/CapSense_CSHL.c **** *
 347:Generated_Source\PSoC5/CapSense_CSHL.c **** * Parameters:
 348:Generated_Source\PSoC5/CapSense_CSHL.c **** *  sensor:  Sensor number.
 349:Generated_Source\PSoC5/CapSense_CSHL.c **** *
 350:Generated_Source\PSoC5/CapSense_CSHL.c **** * Return:
 351:Generated_Source\PSoC5/CapSense_CSHL.c **** *  None
 352:Generated_Source\PSoC5/CapSense_CSHL.c **** *
 353:Generated_Source\PSoC5/CapSense_CSHL.c **** * Global Variables:
 354:Generated_Source\PSoC5/CapSense_CSHL.c **** *  CapSense_sensorBaseline[]    - used to store baseline value.
 355:Generated_Source\PSoC5/CapSense_CSHL.c **** *  CapSense_sensorBaselineLow[] - used to store fraction byte of 
 356:Generated_Source\PSoC5/CapSense_CSHL.c **** *  baseline value.
 357:Generated_Source\PSoC5/CapSense_CSHL.c **** *  CapSense_sensorSignal[]      - used to store diffence between 
 358:Generated_Source\PSoC5/CapSense_CSHL.c **** *  current value of raw data and previous value of baseline.
 359:Generated_Source\PSoC5/CapSense_CSHL.c **** *  CapSense_rawFilterData1[]    - used to store previous sample of 
 360:Generated_Source\PSoC5/CapSense_CSHL.c **** *  any enabled raw data filter.
 361:Generated_Source\PSoC5/CapSense_CSHL.c **** *  CapSense_rawFilterData2[]    - used to store before previous sample
 362:Generated_Source\PSoC5/CapSense_CSHL.c **** *  of enabled raw data filter. Only required for median or average filters.
 363:Generated_Source\PSoC5/CapSense_CSHL.c **** *
 364:Generated_Source\PSoC5/CapSense_CSHL.c **** * Reentrant:
 365:Generated_Source\PSoC5/CapSense_CSHL.c **** *  No
 366:Generated_Source\PSoC5/CapSense_CSHL.c **** *
 367:Generated_Source\PSoC5/CapSense_CSHL.c **** *******************************************************************************/
 368:Generated_Source\PSoC5/CapSense_CSHL.c ****  void CapSense_UpdateSensorBaseline(uint8 sensor)
 369:Generated_Source\PSoC5/CapSense_CSHL.c ****                                  
 370:Generated_Source\PSoC5/CapSense_CSHL.c **** {
 415              		.loc 1 370 0
 416              		.cfi_startproc
 417              		@ args = 0, pretend = 0, frame = 24
 418              		@ frame_needed = 1, uses_anonymous_args = 0
 419 0000 80B5     		push	{r7, lr}
 420              		.cfi_def_cfa_offset 8
 421              		.cfi_offset 7, -8
ARM GAS  C:\Users\JEFFSN~1\AppData\Local\Temp\cckGk2Ra.s 			page 15


 422              		.cfi_offset 14, -4
 423 0002 86B0     		sub	sp, sp, #24
 424              		.cfi_def_cfa_offset 32
 425 0004 00AF     		add	r7, sp, #0
 426              		.cfi_def_cfa_register 7
 427 0006 0346     		mov	r3, r0
 428 0008 FB71     		strb	r3, [r7, #7]
 371:Generated_Source\PSoC5/CapSense_CSHL.c ****     uint32 calc;
 372:Generated_Source\PSoC5/CapSense_CSHL.c ****     uint16 tempRaw;
 373:Generated_Source\PSoC5/CapSense_CSHL.c ****     uint16 filteredRawData;
 374:Generated_Source\PSoC5/CapSense_CSHL.c ****     uint8 widget = CapSense_widgetNumber[sensor];
 429              		.loc 1 374 0
 430 000a FB79     		ldrb	r3, [r7, #7]	@ zero_extendqisi2
 431 000c 4D4A     		ldr	r2, .L26
 432 000e D35C     		ldrb	r3, [r2, r3]
 433 0010 7B75     		strb	r3, [r7, #21]
 375:Generated_Source\PSoC5/CapSense_CSHL.c ****     uint16 noiseThreshold = CapSense_noiseThreshold[widget];
 434              		.loc 1 375 0
 435 0012 7B7D     		ldrb	r3, [r7, #21]	@ zero_extendqisi2
 436 0014 4C4A     		ldr	r2, .L26+4
 437 0016 32F81330 		ldrh	r3, [r2, r3, lsl #1]	@ movhi
 438 001a 7B82     		strh	r3, [r7, #18]	@ movhi
 376:Generated_Source\PSoC5/CapSense_CSHL.c ****     
 377:Generated_Source\PSoC5/CapSense_CSHL.c ****     #if (CapSense_TOTAL_GENERICS_COUNT)
 378:Generated_Source\PSoC5/CapSense_CSHL.c ****         /* Exclude generic widget */
 379:Generated_Source\PSoC5/CapSense_CSHL.c ****         if(widget < CapSense_END_OF_WIDGETS_INDEX)
 380:Generated_Source\PSoC5/CapSense_CSHL.c ****         {
 381:Generated_Source\PSoC5/CapSense_CSHL.c ****     #endif  /* CapSense_TOTAL_GENERICS_COUNT */
 382:Generated_Source\PSoC5/CapSense_CSHL.c ****     
 383:Generated_Source\PSoC5/CapSense_CSHL.c ****     filteredRawData = CapSense_sensorRaw[sensor];
 439              		.loc 1 383 0
 440 001c FB79     		ldrb	r3, [r7, #7]	@ zero_extendqisi2
 441 001e 4B4A     		ldr	r2, .L26+8
 442 0020 32F81330 		ldrh	r3, [r2, r3, lsl #1]	@ movhi
 443 0024 3B82     		strh	r3, [r7, #16]	@ movhi
 384:Generated_Source\PSoC5/CapSense_CSHL.c ****     
 385:Generated_Source\PSoC5/CapSense_CSHL.c ****     #if (CapSense_RAW_FILTER_MASK & CapSense_MEDIAN_FILTER)
 386:Generated_Source\PSoC5/CapSense_CSHL.c ****         tempRaw = filteredRawData;
 387:Generated_Source\PSoC5/CapSense_CSHL.c ****         filteredRawData = CapSense_MedianFilter(filteredRawData, CapSense_rawFilterData1[sensor], 
 388:Generated_Source\PSoC5/CapSense_CSHL.c ****                                                         CapSense_rawFilterData2[sensor]);
 389:Generated_Source\PSoC5/CapSense_CSHL.c ****         CapSense_rawFilterData2[sensor] = CapSense_rawFilterData1[sensor];
 390:Generated_Source\PSoC5/CapSense_CSHL.c ****         CapSense_rawFilterData1[sensor] = tempRaw;
 391:Generated_Source\PSoC5/CapSense_CSHL.c ****         
 392:Generated_Source\PSoC5/CapSense_CSHL.c ****     #elif (CapSense_RAW_FILTER_MASK & CapSense_AVERAGING_FILTER)
 393:Generated_Source\PSoC5/CapSense_CSHL.c ****         tempRaw = filteredRawData;
 394:Generated_Source\PSoC5/CapSense_CSHL.c ****         filteredRawData = CapSense_AveragingFilter(filteredRawData, CapSense_rawFilterData1[sensor]
 395:Generated_Source\PSoC5/CapSense_CSHL.c ****                                                            CapSense_rawFilterData2[sensor]);
 396:Generated_Source\PSoC5/CapSense_CSHL.c ****         CapSense_rawFilterData2[sensor] = CapSense_rawFilterData1[sensor];
 397:Generated_Source\PSoC5/CapSense_CSHL.c ****         CapSense_rawFilterData1[sensor] = tempRaw;
 398:Generated_Source\PSoC5/CapSense_CSHL.c ****         
 399:Generated_Source\PSoC5/CapSense_CSHL.c ****     #elif (CapSense_RAW_FILTER_MASK & CapSense_IIR2_FILTER)
 400:Generated_Source\PSoC5/CapSense_CSHL.c ****         filteredRawData = CapSense_IIR2Filter(filteredRawData, CapSense_rawFilterData1[sensor]);
 401:Generated_Source\PSoC5/CapSense_CSHL.c ****         CapSense_rawFilterData1[sensor] = filteredRawData;
 402:Generated_Source\PSoC5/CapSense_CSHL.c ****         
 403:Generated_Source\PSoC5/CapSense_CSHL.c ****     #elif (CapSense_RAW_FILTER_MASK & CapSense_IIR4_FILTER)
 404:Generated_Source\PSoC5/CapSense_CSHL.c ****         filteredRawData = CapSense_IIR4Filter(filteredRawData, CapSense_rawFilterData1[sensor]);
 444              		.loc 1 404 0
ARM GAS  C:\Users\JEFFSN~1\AppData\Local\Temp\cckGk2Ra.s 			page 16


 445 0026 FB79     		ldrb	r3, [r7, #7]	@ zero_extendqisi2
 446 0028 494A     		ldr	r2, .L26+12
 447 002a 32F81320 		ldrh	r2, [r2, r3, lsl #1]
 448 002e 3B8A     		ldrh	r3, [r7, #16]
 449 0030 1146     		mov	r1, r2
 450 0032 1846     		mov	r0, r3
 451 0034 FFF7FEFF 		bl	CapSense_IIR4Filter
 452 0038 0346     		mov	r3, r0
 453 003a 3B82     		strh	r3, [r7, #16]	@ movhi
 405:Generated_Source\PSoC5/CapSense_CSHL.c ****         CapSense_rawFilterData1[sensor] = filteredRawData;
 454              		.loc 1 405 0
 455 003c FB79     		ldrb	r3, [r7, #7]	@ zero_extendqisi2
 456 003e 4449     		ldr	r1, .L26+12
 457 0040 3A8A     		ldrh	r2, [r7, #16]	@ movhi
 458 0042 21F81320 		strh	r2, [r1, r3, lsl #1]	@ movhi
 406:Generated_Source\PSoC5/CapSense_CSHL.c ****             
 407:Generated_Source\PSoC5/CapSense_CSHL.c ****     #elif (CapSense_RAW_FILTER_MASK & CapSense_JITTER_FILTER)
 408:Generated_Source\PSoC5/CapSense_CSHL.c ****         filteredRawData = CapSense_JitterFilter(filteredRawData, CapSense_rawFilterData1[sensor]);
 409:Generated_Source\PSoC5/CapSense_CSHL.c ****         CapSense_rawFilterData1[sensor] = filteredRawData;
 410:Generated_Source\PSoC5/CapSense_CSHL.c ****         
 411:Generated_Source\PSoC5/CapSense_CSHL.c ****     #elif (CapSense_RAW_FILTER_MASK & CapSense_IIR8_FILTER)
 412:Generated_Source\PSoC5/CapSense_CSHL.c ****         filteredRawData = CapSense_IIR8Filter(filteredRawData, CapSense_rawFilterData1[sensor]);
 413:Generated_Source\PSoC5/CapSense_CSHL.c ****         CapSense_rawFilterData1[sensor] = filteredRawData;
 414:Generated_Source\PSoC5/CapSense_CSHL.c ****         
 415:Generated_Source\PSoC5/CapSense_CSHL.c ****     #elif (CapSense_RAW_FILTER_MASK & CapSense_IIR16_FILTER)
 416:Generated_Source\PSoC5/CapSense_CSHL.c ****         filteredRawData = CapSense_IIR16Filter(filteredRawData, CapSense_rawFilterData1[sensor]);
 417:Generated_Source\PSoC5/CapSense_CSHL.c ****         CapSense_rawFilterData1[sensor] = filteredRawData;
 418:Generated_Source\PSoC5/CapSense_CSHL.c ****         
 419:Generated_Source\PSoC5/CapSense_CSHL.c ****     #else
 420:Generated_Source\PSoC5/CapSense_CSHL.c ****         /* No Raw filters */
 421:Generated_Source\PSoC5/CapSense_CSHL.c ****     #endif  /* (CapSense_RAW_FILTER_MASK & CapSense_MEDIAN_FILTER) */
 422:Generated_Source\PSoC5/CapSense_CSHL.c ****     
 423:Generated_Source\PSoC5/CapSense_CSHL.c ****     #if (CapSense_TUNING_METHOD == CapSense_AUTO_TUNING)
 424:Generated_Source\PSoC5/CapSense_CSHL.c ****         CapSense_CalculateThresholds(sensor);
 425:Generated_Source\PSoC5/CapSense_CSHL.c ****     #endif /* (CapSense_TUNING_METHOD == CapSense_AUTO_TUNING) */
 426:Generated_Source\PSoC5/CapSense_CSHL.c **** 
 427:Generated_Source\PSoC5/CapSense_CSHL.c **** 
 428:Generated_Source\PSoC5/CapSense_CSHL.c ****     /* Baseline calculation */
 429:Generated_Source\PSoC5/CapSense_CSHL.c ****     /* Calculate difference RawData[cur] - Baseline[prev] */
 430:Generated_Source\PSoC5/CapSense_CSHL.c ****     if(filteredRawData >= CapSense_sensorBaseline[sensor])
 459              		.loc 1 430 0
 460 0046 FB79     		ldrb	r3, [r7, #7]	@ zero_extendqisi2
 461 0048 424A     		ldr	r2, .L26+16
 462 004a 32F81330 		ldrh	r3, [r2, r3, lsl #1]
 463 004e 3A8A     		ldrh	r2, [r7, #16]
 464 0050 9A42     		cmp	r2, r3
 465 0052 09D3     		bcc	.L17
 431:Generated_Source\PSoC5/CapSense_CSHL.c ****     {
 432:Generated_Source\PSoC5/CapSense_CSHL.c ****         tempRaw = filteredRawData - CapSense_sensorBaseline[sensor];
 466              		.loc 1 432 0
 467 0054 FB79     		ldrb	r3, [r7, #7]	@ zero_extendqisi2
 468 0056 3F4A     		ldr	r2, .L26+16
 469 0058 32F81330 		ldrh	r3, [r2, r3, lsl #1]
 470 005c 3A8A     		ldrh	r2, [r7, #16]	@ movhi
 471 005e D31A     		subs	r3, r2, r3
 472 0060 FB82     		strh	r3, [r7, #22]	@ movhi
 433:Generated_Source\PSoC5/CapSense_CSHL.c ****         widget = 1u;    /* Positive difference - Calculate the Signal */
ARM GAS  C:\Users\JEFFSN~1\AppData\Local\Temp\cckGk2Ra.s 			page 17


 473              		.loc 1 433 0
 474 0062 0123     		movs	r3, #1
 475 0064 7B75     		strb	r3, [r7, #21]
 476 0066 08E0     		b	.L18
 477              	.L17:
 434:Generated_Source\PSoC5/CapSense_CSHL.c ****     }
 435:Generated_Source\PSoC5/CapSense_CSHL.c ****     else
 436:Generated_Source\PSoC5/CapSense_CSHL.c ****     {
 437:Generated_Source\PSoC5/CapSense_CSHL.c ****         tempRaw = CapSense_sensorBaseline[sensor] - filteredRawData;
 478              		.loc 1 437 0
 479 0068 FB79     		ldrb	r3, [r7, #7]	@ zero_extendqisi2
 480 006a 3A4A     		ldr	r2, .L26+16
 481 006c 32F81320 		ldrh	r2, [r2, r3, lsl #1]
 482 0070 3B8A     		ldrh	r3, [r7, #16]	@ movhi
 483 0072 D31A     		subs	r3, r2, r3
 484 0074 FB82     		strh	r3, [r7, #22]	@ movhi
 438:Generated_Source\PSoC5/CapSense_CSHL.c ****         widget = 0u;    /* Negative difference - Do NOT calculate the Signal */
 485              		.loc 1 438 0
 486 0076 0023     		movs	r3, #0
 487 0078 7B75     		strb	r3, [r7, #21]
 488              	.L18:
 439:Generated_Source\PSoC5/CapSense_CSHL.c ****     }
 440:Generated_Source\PSoC5/CapSense_CSHL.c **** 
 441:Generated_Source\PSoC5/CapSense_CSHL.c ****     if((widget == 0u) && (tempRaw > (uint16) CapSense_NEGATIVE_NOISE_THRESHOLD))
 489              		.loc 1 441 0
 490 007a 7B7D     		ldrb	r3, [r7, #21]	@ zero_extendqisi2
 491 007c 002B     		cmp	r3, #0
 492 007e 18D1     		bne	.L19
 493              		.loc 1 441 0 is_stmt 0 discriminator 1
 494 0080 FB8A     		ldrh	r3, [r7, #22]
 495 0082 142B     		cmp	r3, #20
 496 0084 15D9     		bls	.L19
 442:Generated_Source\PSoC5/CapSense_CSHL.c ****     {
 443:Generated_Source\PSoC5/CapSense_CSHL.c ****         if(CapSense_lowBaselineResetCnt[sensor] >= CapSense_LOW_BASELINE_RESET)
 497              		.loc 1 443 0 is_stmt 1
 498 0086 FB79     		ldrb	r3, [r7, #7]	@ zero_extendqisi2
 499 0088 334A     		ldr	r2, .L26+20
 500 008a D35C     		ldrb	r3, [r2, r3]	@ zero_extendqisi2
 501 008c 1D2B     		cmp	r3, #29
 502 008e 08D9     		bls	.L20
 444:Generated_Source\PSoC5/CapSense_CSHL.c ****         {
 445:Generated_Source\PSoC5/CapSense_CSHL.c ****             CapSense_BaseInit(sensor);
 503              		.loc 1 445 0
 504 0090 FB79     		ldrb	r3, [r7, #7]	@ zero_extendqisi2
 505 0092 1846     		mov	r0, r3
 506 0094 FFF7FEFF 		bl	CapSense_BaseInit
 446:Generated_Source\PSoC5/CapSense_CSHL.c ****             CapSense_lowBaselineResetCnt[sensor] = 0u;
 507              		.loc 1 446 0
 508 0098 FB79     		ldrb	r3, [r7, #7]	@ zero_extendqisi2
 509 009a 2F4A     		ldr	r2, .L26+20
 510 009c 0021     		movs	r1, #0
 511 009e D154     		strb	r1, [r2, r3]
 443:Generated_Source\PSoC5/CapSense_CSHL.c ****         {
 512              		.loc 1 443 0
 513 00a0 3AE0     		b	.L22
 514              	.L20:
 447:Generated_Source\PSoC5/CapSense_CSHL.c ****         }
ARM GAS  C:\Users\JEFFSN~1\AppData\Local\Temp\cckGk2Ra.s 			page 18


 448:Generated_Source\PSoC5/CapSense_CSHL.c ****         else
 449:Generated_Source\PSoC5/CapSense_CSHL.c ****         {
 450:Generated_Source\PSoC5/CapSense_CSHL.c ****             CapSense_lowBaselineResetCnt[sensor]++;
 515              		.loc 1 450 0
 516 00a2 FB79     		ldrb	r3, [r7, #7]	@ zero_extendqisi2
 517 00a4 2C4A     		ldr	r2, .L26+20
 518 00a6 D25C     		ldrb	r2, [r2, r3]	@ zero_extendqisi2
 519 00a8 0132     		adds	r2, r2, #1
 520 00aa D1B2     		uxtb	r1, r2
 521 00ac 2A4A     		ldr	r2, .L26+20
 522 00ae D154     		strb	r1, [r2, r3]
 443:Generated_Source\PSoC5/CapSense_CSHL.c ****         {
 523              		.loc 1 443 0
 524 00b0 32E0     		b	.L22
 525              	.L19:
 451:Generated_Source\PSoC5/CapSense_CSHL.c ****         }
 452:Generated_Source\PSoC5/CapSense_CSHL.c ****     }
 453:Generated_Source\PSoC5/CapSense_CSHL.c ****     else
 454:Generated_Source\PSoC5/CapSense_CSHL.c ****     {
 455:Generated_Source\PSoC5/CapSense_CSHL.c ****         #if (CapSense_AUTO_RESET == CapSense_AUTO_RESET_DISABLE)
 456:Generated_Source\PSoC5/CapSense_CSHL.c ****             /* Update Baseline if lower that noiseThreshold */
 457:Generated_Source\PSoC5/CapSense_CSHL.c ****             if ( (tempRaw <= (uint16) noiseThreshold) || 
 526              		.loc 1 457 0
 527 00b2 FA8A     		ldrh	r2, [r7, #22]
 528 00b4 7B8A     		ldrh	r3, [r7, #18]
 529 00b6 9A42     		cmp	r2, r3
 530 00b8 05D9     		bls	.L23
 531              		.loc 1 457 0 is_stmt 0 discriminator 1
 532 00ba FB8A     		ldrh	r3, [r7, #22]
 533 00bc 132B     		cmp	r3, #19
 534 00be 2BD8     		bhi	.L22
 458:Generated_Source\PSoC5/CapSense_CSHL.c ****                  ((tempRaw < (uint16) CapSense_NEGATIVE_NOISE_THRESHOLD)
 459:Generated_Source\PSoC5/CapSense_CSHL.c ****                    && (widget == 0u)))
 535              		.loc 1 459 0 is_stmt 1
 536 00c0 7B7D     		ldrb	r3, [r7, #21]	@ zero_extendqisi2
 537 00c2 002B     		cmp	r3, #0
 538 00c4 28D1     		bne	.L22
 539              	.L23:
 460:Generated_Source\PSoC5/CapSense_CSHL.c ****             {
 461:Generated_Source\PSoC5/CapSense_CSHL.c ****         #endif /* (CapSense_AUTO_RESET == CapSense_AUTO_RESET_DISABLE) */
 462:Generated_Source\PSoC5/CapSense_CSHL.c ****                 /* Make full Baseline 23 bits */
 463:Generated_Source\PSoC5/CapSense_CSHL.c ****                 calc = (uint32) CapSense_sensorBaseline[sensor] << 8u;
 540              		.loc 1 463 0
 541 00c6 FB79     		ldrb	r3, [r7, #7]	@ zero_extendqisi2
 542 00c8 224A     		ldr	r2, .L26+16
 543 00ca 32F81330 		ldrh	r3, [r2, r3, lsl #1]
 544 00ce 1B02     		lsls	r3, r3, #8
 545 00d0 FB60     		str	r3, [r7, #12]
 464:Generated_Source\PSoC5/CapSense_CSHL.c ****                 calc |= (uint32) CapSense_sensorBaselineLow[sensor];
 546              		.loc 1 464 0
 547 00d2 FB79     		ldrb	r3, [r7, #7]	@ zero_extendqisi2
 548 00d4 214A     		ldr	r2, .L26+24
 549 00d6 D35C     		ldrb	r3, [r2, r3]	@ zero_extendqisi2
 550 00d8 1A46     		mov	r2, r3
 551 00da FB68     		ldr	r3, [r7, #12]
 552 00dc 1343     		orrs	r3, r3, r2
 553 00de FB60     		str	r3, [r7, #12]
ARM GAS  C:\Users\JEFFSN~1\AppData\Local\Temp\cckGk2Ra.s 			page 19


 465:Generated_Source\PSoC5/CapSense_CSHL.c **** 
 466:Generated_Source\PSoC5/CapSense_CSHL.c ****                 /* Add Raw Data to Baseline */
 467:Generated_Source\PSoC5/CapSense_CSHL.c ****                 calc += filteredRawData;
 554              		.loc 1 467 0
 555 00e0 3B8A     		ldrh	r3, [r7, #16]
 556 00e2 FA68     		ldr	r2, [r7, #12]
 557 00e4 1344     		add	r3, r3, r2
 558 00e6 FB60     		str	r3, [r7, #12]
 468:Generated_Source\PSoC5/CapSense_CSHL.c **** 
 469:Generated_Source\PSoC5/CapSense_CSHL.c ****                 /* Sub the high Baseline */
 470:Generated_Source\PSoC5/CapSense_CSHL.c ****                 calc -= CapSense_sensorBaseline[sensor];
 559              		.loc 1 470 0
 560 00e8 FB79     		ldrb	r3, [r7, #7]	@ zero_extendqisi2
 561 00ea 1A4A     		ldr	r2, .L26+16
 562 00ec 32F81330 		ldrh	r3, [r2, r3, lsl #1]
 563 00f0 1A46     		mov	r2, r3
 564 00f2 FB68     		ldr	r3, [r7, #12]
 565 00f4 9B1A     		subs	r3, r3, r2
 566 00f6 FB60     		str	r3, [r7, #12]
 471:Generated_Source\PSoC5/CapSense_CSHL.c **** 
 472:Generated_Source\PSoC5/CapSense_CSHL.c ****                 /* Put Baseline and BaselineLow */
 473:Generated_Source\PSoC5/CapSense_CSHL.c ****                 CapSense_sensorBaseline[sensor] = ((uint16) (calc >> 8u));
 567              		.loc 1 473 0
 568 00f8 FB79     		ldrb	r3, [r7, #7]	@ zero_extendqisi2
 569 00fa FA68     		ldr	r2, [r7, #12]
 570 00fc 120A     		lsrs	r2, r2, #8
 571 00fe 91B2     		uxth	r1, r2
 572 0100 144A     		ldr	r2, .L26+16
 573 0102 22F81310 		strh	r1, [r2, r3, lsl #1]	@ movhi
 474:Generated_Source\PSoC5/CapSense_CSHL.c ****                 CapSense_sensorBaselineLow[sensor] = ((uint8) calc);
 574              		.loc 1 474 0
 575 0106 FB79     		ldrb	r3, [r7, #7]	@ zero_extendqisi2
 576 0108 FA68     		ldr	r2, [r7, #12]
 577 010a D1B2     		uxtb	r1, r2
 578 010c 134A     		ldr	r2, .L26+24
 579 010e D154     		strb	r1, [r2, r3]
 475:Generated_Source\PSoC5/CapSense_CSHL.c **** 
 476:Generated_Source\PSoC5/CapSense_CSHL.c ****                 CapSense_lowBaselineResetCnt[sensor] = 0u;
 580              		.loc 1 476 0
 581 0110 FB79     		ldrb	r3, [r7, #7]	@ zero_extendqisi2
 582 0112 114A     		ldr	r2, .L26+20
 583 0114 0021     		movs	r1, #0
 584 0116 D154     		strb	r1, [r2, r3]
 585              	.L22:
 477:Generated_Source\PSoC5/CapSense_CSHL.c ****         #if (CapSense_AUTO_RESET == CapSense_AUTO_RESET_DISABLE)
 478:Generated_Source\PSoC5/CapSense_CSHL.c ****             }
 479:Generated_Source\PSoC5/CapSense_CSHL.c ****         #endif /* (CapSense_AUTO_RESET == CapSense_AUTO_RESET_DISABLE) */
 480:Generated_Source\PSoC5/CapSense_CSHL.c ****     }
 481:Generated_Source\PSoC5/CapSense_CSHL.c **** 
 482:Generated_Source\PSoC5/CapSense_CSHL.c ****     /* Calculate Signal if possitive difference > noiseThreshold */
 483:Generated_Source\PSoC5/CapSense_CSHL.c ****     if((tempRaw > (uint16) noiseThreshold) && (widget != 0u))
 586              		.loc 1 483 0
 587 0118 FA8A     		ldrh	r2, [r7, #22]
 588 011a 7B8A     		ldrh	r3, [r7, #18]
 589 011c 9A42     		cmp	r2, r3
 590 011e 08D9     		bls	.L24
 591              		.loc 1 483 0 is_stmt 0 discriminator 1
ARM GAS  C:\Users\JEFFSN~1\AppData\Local\Temp\cckGk2Ra.s 			page 20


 592 0120 7B7D     		ldrb	r3, [r7, #21]	@ zero_extendqisi2
 593 0122 002B     		cmp	r3, #0
 594 0124 05D0     		beq	.L24
 484:Generated_Source\PSoC5/CapSense_CSHL.c ****     {
 485:Generated_Source\PSoC5/CapSense_CSHL.c ****         #if (CapSense_SIGNAL_SIZE == CapSense_SIGNAL_SIZE_UINT8)
 486:Generated_Source\PSoC5/CapSense_CSHL.c ****             /* Over flow defence for uint8 */
 487:Generated_Source\PSoC5/CapSense_CSHL.c ****             if (tempRaw > 0xFFu)
 488:Generated_Source\PSoC5/CapSense_CSHL.c ****             {
 489:Generated_Source\PSoC5/CapSense_CSHL.c ****                 CapSense_sensorSignal[sensor] = 0xFFu;
 490:Generated_Source\PSoC5/CapSense_CSHL.c ****             }    
 491:Generated_Source\PSoC5/CapSense_CSHL.c ****             else 
 492:Generated_Source\PSoC5/CapSense_CSHL.c ****             {
 493:Generated_Source\PSoC5/CapSense_CSHL.c ****                 CapSense_sensorSignal[sensor] = ((uint8) tempRaw);
 494:Generated_Source\PSoC5/CapSense_CSHL.c ****             }
 495:Generated_Source\PSoC5/CapSense_CSHL.c ****         #else
 496:Generated_Source\PSoC5/CapSense_CSHL.c ****             CapSense_sensorSignal[sensor] = ((uint16) tempRaw);
 595              		.loc 1 496 0 is_stmt 1
 596 0126 FB79     		ldrb	r3, [r7, #7]	@ zero_extendqisi2
 597 0128 0D49     		ldr	r1, .L26+28
 598 012a FA8A     		ldrh	r2, [r7, #22]	@ movhi
 599 012c 21F81320 		strh	r2, [r1, r3, lsl #1]	@ movhi
 600 0130 04E0     		b	.L25
 601              	.L24:
 497:Generated_Source\PSoC5/CapSense_CSHL.c ****         #endif  /* (CapSense_SIGNAL_SIZE == CapSense_SIGNAL_SIZE_UINT8) */
 498:Generated_Source\PSoC5/CapSense_CSHL.c ****     }
 499:Generated_Source\PSoC5/CapSense_CSHL.c ****     else
 500:Generated_Source\PSoC5/CapSense_CSHL.c ****     {
 501:Generated_Source\PSoC5/CapSense_CSHL.c ****         /* Signal is zero */
 502:Generated_Source\PSoC5/CapSense_CSHL.c ****         CapSense_sensorSignal[sensor] = 0u;
 602              		.loc 1 502 0
 603 0132 FB79     		ldrb	r3, [r7, #7]	@ zero_extendqisi2
 604 0134 0A4A     		ldr	r2, .L26+28
 605 0136 0021     		movs	r1, #0
 606 0138 22F81310 		strh	r1, [r2, r3, lsl #1]	@ movhi
 607              	.L25:
 503:Generated_Source\PSoC5/CapSense_CSHL.c ****     }
 504:Generated_Source\PSoC5/CapSense_CSHL.c **** 
 505:Generated_Source\PSoC5/CapSense_CSHL.c ****     #if (CapSense_TOTAL_GENERICS_COUNT)
 506:Generated_Source\PSoC5/CapSense_CSHL.c ****         /* Exclude generic widget */
 507:Generated_Source\PSoC5/CapSense_CSHL.c ****         }
 508:Generated_Source\PSoC5/CapSense_CSHL.c ****     #endif  /* CapSense_TOTAL_GENERICS_COUNT */
 509:Generated_Source\PSoC5/CapSense_CSHL.c **** }
 608              		.loc 1 509 0
 609 013c 00BF     		nop
 610 013e 1837     		adds	r7, r7, #24
 611              		.cfi_def_cfa_offset 8
 612 0140 BD46     		mov	sp, r7
 613              		.cfi_def_cfa_register 13
 614              		@ sp needed
 615 0142 80BD     		pop	{r7, pc}
 616              	.L27:
 617              		.align	2
 618              	.L26:
 619 0144 00000000 		.word	CapSense_widgetNumber
 620 0148 00000000 		.word	CapSense_noiseThreshold
 621 014c 00000000 		.word	CapSense_sensorRaw
 622 0150 00000000 		.word	CapSense_rawFilterData1
ARM GAS  C:\Users\JEFFSN~1\AppData\Local\Temp\cckGk2Ra.s 			page 21


 623 0154 00000000 		.word	CapSense_sensorBaseline
 624 0158 00000000 		.word	CapSense_lowBaselineResetCnt
 625 015c 00000000 		.word	CapSense_sensorBaselineLow
 626 0160 00000000 		.word	CapSense_sensorSignal
 627              		.cfi_endproc
 628              	.LFE4:
 629              		.size	CapSense_UpdateSensorBaseline, .-CapSense_UpdateSensorBaseline
 630              		.section	.text.CapSense_UpdateEnabledBaselines,"ax",%progbits
 631              		.align	2
 632              		.global	CapSense_UpdateEnabledBaselines
 633              		.thumb
 634              		.thumb_func
 635              		.type	CapSense_UpdateEnabledBaselines, %function
 636              	CapSense_UpdateEnabledBaselines:
 637              	.LFB5:
 510:Generated_Source\PSoC5/CapSense_CSHL.c **** 
 511:Generated_Source\PSoC5/CapSense_CSHL.c **** 
 512:Generated_Source\PSoC5/CapSense_CSHL.c **** /*******************************************************************************
 513:Generated_Source\PSoC5/CapSense_CSHL.c **** * Function Name: CapSense_UpdateEnabledBaselines
 514:Generated_Source\PSoC5/CapSense_CSHL.c **** ********************************************************************************
 515:Generated_Source\PSoC5/CapSense_CSHL.c **** *
 516:Generated_Source\PSoC5/CapSense_CSHL.c **** * Summary:
 517:Generated_Source\PSoC5/CapSense_CSHL.c **** *  Checks CapSense_sensorEnableMask[] array and calls the 
 518:Generated_Source\PSoC5/CapSense_CSHL.c **** *  CapSense_UpdateSensorBaseline function to update the baselines 
 519:Generated_Source\PSoC5/CapSense_CSHL.c **** *  for enabled sensors.
 520:Generated_Source\PSoC5/CapSense_CSHL.c **** *
 521:Generated_Source\PSoC5/CapSense_CSHL.c **** * Parameters:
 522:Generated_Source\PSoC5/CapSense_CSHL.c **** *  None
 523:Generated_Source\PSoC5/CapSense_CSHL.c **** *
 524:Generated_Source\PSoC5/CapSense_CSHL.c **** * Return:
 525:Generated_Source\PSoC5/CapSense_CSHL.c **** *  None
 526:Generated_Source\PSoC5/CapSense_CSHL.c **** *
 527:Generated_Source\PSoC5/CapSense_CSHL.c **** * Global Variables:
 528:Generated_Source\PSoC5/CapSense_CSHL.c **** *  CapSense_sensorEnableMask[] - used to store the sensor scanning 
 529:Generated_Source\PSoC5/CapSense_CSHL.c **** *  state.
 530:Generated_Source\PSoC5/CapSense_CSHL.c **** *  CapSense_sensorEnableMask[0] contains the masked bits for sensors 
 531:Generated_Source\PSoC5/CapSense_CSHL.c **** *   0 through 7 (sensor 0 is bit 0, sensor 1 is bit 1).
 532:Generated_Source\PSoC5/CapSense_CSHL.c **** *  CapSense_sensorEnableMask[1] contains the masked bits for 
 533:Generated_Source\PSoC5/CapSense_CSHL.c **** *  sensors 8 through 15 (if needed), and so on.
 534:Generated_Source\PSoC5/CapSense_CSHL.c **** *  0 - sensor doesn't scan by CapSense_ScanEnabledWidgets().
 535:Generated_Source\PSoC5/CapSense_CSHL.c **** *  1 - sensor scans by CapSense_ScanEnabledWidgets().
 536:Generated_Source\PSoC5/CapSense_CSHL.c **** *
 537:Generated_Source\PSoC5/CapSense_CSHL.c **** * Reentrant:
 538:Generated_Source\PSoC5/CapSense_CSHL.c **** *  No
 539:Generated_Source\PSoC5/CapSense_CSHL.c **** *
 540:Generated_Source\PSoC5/CapSense_CSHL.c **** *******************************************************************************/
 541:Generated_Source\PSoC5/CapSense_CSHL.c ****  void CapSense_UpdateEnabledBaselines(void)
 542:Generated_Source\PSoC5/CapSense_CSHL.c ****                                  
 543:Generated_Source\PSoC5/CapSense_CSHL.c **** {
 638              		.loc 1 543 0
 639              		.cfi_startproc
 640              		@ args = 0, pretend = 0, frame = 8
 641              		@ frame_needed = 1, uses_anonymous_args = 0
 642 0000 80B5     		push	{r7, lr}
 643              		.cfi_def_cfa_offset 8
 644              		.cfi_offset 7, -8
 645              		.cfi_offset 14, -4
ARM GAS  C:\Users\JEFFSN~1\AppData\Local\Temp\cckGk2Ra.s 			page 22


 646 0002 82B0     		sub	sp, sp, #8
 647              		.cfi_def_cfa_offset 16
 648 0004 00AF     		add	r7, sp, #0
 649              		.cfi_def_cfa_register 7
 544:Generated_Source\PSoC5/CapSense_CSHL.c ****     uint8 i;
 545:Generated_Source\PSoC5/CapSense_CSHL.c ****     uint8 pos;
 546:Generated_Source\PSoC5/CapSense_CSHL.c ****     uint8 enMask;
 547:Generated_Source\PSoC5/CapSense_CSHL.c ****     
 548:Generated_Source\PSoC5/CapSense_CSHL.c ****     for(i = 0u; i < CapSense_TOTAL_SENSOR_COUNT; i++)
 650              		.loc 1 548 0
 651 0006 0023     		movs	r3, #0
 652 0008 FB71     		strb	r3, [r7, #7]
 653 000a 18E0     		b	.L29
 654              	.L31:
 549:Generated_Source\PSoC5/CapSense_CSHL.c ****     {
 550:Generated_Source\PSoC5/CapSense_CSHL.c ****         pos = (i >> 3u);
 655              		.loc 1 550 0
 656 000c FB79     		ldrb	r3, [r7, #7]	@ zero_extendqisi2
 657 000e DB08     		lsrs	r3, r3, #3
 658 0010 BB71     		strb	r3, [r7, #6]
 551:Generated_Source\PSoC5/CapSense_CSHL.c ****         enMask = (uint8)(0x01u << (i & 0x07u));
 659              		.loc 1 551 0
 660 0012 FB79     		ldrb	r3, [r7, #7]	@ zero_extendqisi2
 661 0014 03F00703 		and	r3, r3, #7
 662 0018 0122     		movs	r2, #1
 663 001a 02FA03F3 		lsl	r3, r2, r3
 664 001e 7B71     		strb	r3, [r7, #5]
 552:Generated_Source\PSoC5/CapSense_CSHL.c ****         if((CapSense_sensorEnableMask[pos] & enMask) != 0u)
 665              		.loc 1 552 0
 666 0020 BB79     		ldrb	r3, [r7, #6]	@ zero_extendqisi2
 667 0022 0A4A     		ldr	r2, .L32
 668 0024 D25C     		ldrb	r2, [r2, r3]	@ zero_extendqisi2
 669 0026 7B79     		ldrb	r3, [r7, #5]
 670 0028 1340     		ands	r3, r3, r2
 671 002a DBB2     		uxtb	r3, r3
 672 002c 002B     		cmp	r3, #0
 673 002e 03D0     		beq	.L30
 553:Generated_Source\PSoC5/CapSense_CSHL.c ****         {
 554:Generated_Source\PSoC5/CapSense_CSHL.c ****             CapSense_UpdateSensorBaseline(i);
 674              		.loc 1 554 0
 675 0030 FB79     		ldrb	r3, [r7, #7]	@ zero_extendqisi2
 676 0032 1846     		mov	r0, r3
 677 0034 FFF7FEFF 		bl	CapSense_UpdateSensorBaseline
 678              	.L30:
 548:Generated_Source\PSoC5/CapSense_CSHL.c ****     {
 679              		.loc 1 548 0 discriminator 2
 680 0038 FB79     		ldrb	r3, [r7, #7]	@ zero_extendqisi2
 681 003a 0133     		adds	r3, r3, #1
 682 003c FB71     		strb	r3, [r7, #7]
 683              	.L29:
 548:Generated_Source\PSoC5/CapSense_CSHL.c ****     {
 684              		.loc 1 548 0 is_stmt 0 discriminator 1
 685 003e FB79     		ldrb	r3, [r7, #7]	@ zero_extendqisi2
 686 0040 0B2B     		cmp	r3, #11
 687 0042 E3D9     		bls	.L31
 555:Generated_Source\PSoC5/CapSense_CSHL.c ****         }
 556:Generated_Source\PSoC5/CapSense_CSHL.c ****     }
ARM GAS  C:\Users\JEFFSN~1\AppData\Local\Temp\cckGk2Ra.s 			page 23


 557:Generated_Source\PSoC5/CapSense_CSHL.c **** }
 688              		.loc 1 557 0 is_stmt 1
 689 0044 00BF     		nop
 690 0046 0837     		adds	r7, r7, #8
 691              		.cfi_def_cfa_offset 8
 692 0048 BD46     		mov	sp, r7
 693              		.cfi_def_cfa_register 13
 694              		@ sp needed
 695 004a 80BD     		pop	{r7, pc}
 696              	.L33:
 697              		.align	2
 698              	.L32:
 699 004c 00000000 		.word	CapSense_sensorEnableMask
 700              		.cfi_endproc
 701              	.LFE5:
 702              		.size	CapSense_UpdateEnabledBaselines, .-CapSense_UpdateEnabledBaselines
 703              		.section	.text.CapSense_CheckIsSensorActive,"ax",%progbits
 704              		.align	2
 705              		.global	CapSense_CheckIsSensorActive
 706              		.thumb
 707              		.thumb_func
 708              		.type	CapSense_CheckIsSensorActive, %function
 709              	CapSense_CheckIsSensorActive:
 710              	.LFB6:
 558:Generated_Source\PSoC5/CapSense_CSHL.c **** 
 559:Generated_Source\PSoC5/CapSense_CSHL.c **** 
 560:Generated_Source\PSoC5/CapSense_CSHL.c **** /*******************************************************************************
 561:Generated_Source\PSoC5/CapSense_CSHL.c **** * Function Name: CapSense_CheckIsSensorActive
 562:Generated_Source\PSoC5/CapSense_CSHL.c **** ********************************************************************************
 563:Generated_Source\PSoC5/CapSense_CSHL.c **** *
 564:Generated_Source\PSoC5/CapSense_CSHL.c **** * Summary:
 565:Generated_Source\PSoC5/CapSense_CSHL.c **** *  Compares the CapSense_SensorSignal[sensor] array element to finger
 566:Generated_Source\PSoC5/CapSense_CSHL.c **** *  threshold of widget it belongs to. The hysteresis and debounce are taken into 
 567:Generated_Source\PSoC5/CapSense_CSHL.c **** *  account. The hysteresis is added or subtracted from the finger threshold 
 568:Generated_Source\PSoC5/CapSense_CSHL.c **** *  based on whether the sensor is currently active. 
 569:Generated_Source\PSoC5/CapSense_CSHL.c **** *  If the sensor is active, the threshold is lowered by the hysteresis amount.
 570:Generated_Source\PSoC5/CapSense_CSHL.c **** *  If the sensor is inactive, the threshold is raised by the hysteresis amount.
 571:Generated_Source\PSoC5/CapSense_CSHL.c **** *  The debounce counter added to the sensor active transition.
 572:Generated_Source\PSoC5/CapSense_CSHL.c **** *  This function updates CapSense_SensorOnMask[] array element.
 573:Generated_Source\PSoC5/CapSense_CSHL.c **** *
 574:Generated_Source\PSoC5/CapSense_CSHL.c **** * Parameters:
 575:Generated_Source\PSoC5/CapSense_CSHL.c **** *  sensor:  Sensor number.
 576:Generated_Source\PSoC5/CapSense_CSHL.c **** *
 577:Generated_Source\PSoC5/CapSense_CSHL.c **** * Return:
 578:Generated_Source\PSoC5/CapSense_CSHL.c **** *  Returns sensor state 1 if active, 0 if not active.
 579:Generated_Source\PSoC5/CapSense_CSHL.c **** *
 580:Generated_Source\PSoC5/CapSense_CSHL.c **** * Global Variables:
 581:Generated_Source\PSoC5/CapSense_CSHL.c **** *  CapSense_sensorSignal[]      - used to store diffence between 
 582:Generated_Source\PSoC5/CapSense_CSHL.c **** *  current value of raw data and previous value of baseline.
 583:Generated_Source\PSoC5/CapSense_CSHL.c **** *  CapSense_debounceCounter[]   - used to store current debounce 
 584:Generated_Source\PSoC5/CapSense_CSHL.c **** *  counter of sensor. Widget which has this parameter are buttons, matrix 
 585:Generated_Source\PSoC5/CapSense_CSHL.c **** *  buttons, proximity, guard. All other widgets haven't debounce parameter
 586:Generated_Source\PSoC5/CapSense_CSHL.c **** *  and use the last element of this array with value 0 (it means no debounce).
 587:Generated_Source\PSoC5/CapSense_CSHL.c **** *  CapSense_sensorOnMask[] - used to store sensors on/off state.
 588:Generated_Source\PSoC5/CapSense_CSHL.c **** *  CapSense_sensorOnMask[0] contains the masked bits for sensors 
 589:Generated_Source\PSoC5/CapSense_CSHL.c **** *   0 through 7 (sensor 0 is bit 0, sensor 1 is bit 1).
 590:Generated_Source\PSoC5/CapSense_CSHL.c **** *  CapSense_sensorEnableMask[1] contains the masked bits for 
ARM GAS  C:\Users\JEFFSN~1\AppData\Local\Temp\cckGk2Ra.s 			page 24


 591:Generated_Source\PSoC5/CapSense_CSHL.c **** *  sensors 8 through 15 (if needed), and so on.
 592:Generated_Source\PSoC5/CapSense_CSHL.c **** *  0 - sensor is inactive.
 593:Generated_Source\PSoC5/CapSense_CSHL.c **** *  1 - sensor is active.
 594:Generated_Source\PSoC5/CapSense_CSHL.c **** *
 595:Generated_Source\PSoC5/CapSense_CSHL.c **** * Reentrant:
 596:Generated_Source\PSoC5/CapSense_CSHL.c **** *  No
 597:Generated_Source\PSoC5/CapSense_CSHL.c **** *
 598:Generated_Source\PSoC5/CapSense_CSHL.c **** *******************************************************************************/
 599:Generated_Source\PSoC5/CapSense_CSHL.c **** uint8 CapSense_CheckIsSensorActive(uint8 sensor)
 600:Generated_Source\PSoC5/CapSense_CSHL.c ****                                   
 601:Generated_Source\PSoC5/CapSense_CSHL.c **** {
 711              		.loc 1 601 0
 712              		.cfi_startproc
 713              		@ args = 0, pretend = 0, frame = 24
 714              		@ frame_needed = 1, uses_anonymous_args = 0
 715              		@ link register save eliminated.
 716 0000 80B4     		push	{r7}
 717              		.cfi_def_cfa_offset 4
 718              		.cfi_offset 7, -4
 719 0002 87B0     		sub	sp, sp, #28
 720              		.cfi_def_cfa_offset 32
 721 0004 00AF     		add	r7, sp, #0
 722              		.cfi_def_cfa_register 7
 723 0006 0346     		mov	r3, r0
 724 0008 FB71     		strb	r3, [r7, #7]
 602:Generated_Source\PSoC5/CapSense_CSHL.c ****     uint8 debounceIndex;
 603:Generated_Source\PSoC5/CapSense_CSHL.c ****     /* Get On/Off mask */
 604:Generated_Source\PSoC5/CapSense_CSHL.c ****     uint8 pos = (sensor >> 3u);
 725              		.loc 1 604 0
 726 000a FB79     		ldrb	r3, [r7, #7]	@ zero_extendqisi2
 727 000c DB08     		lsrs	r3, r3, #3
 728 000e FB75     		strb	r3, [r7, #23]
 605:Generated_Source\PSoC5/CapSense_CSHL.c ****     uint8 onMask = 0x01u << (sensor & 0x07u);
 729              		.loc 1 605 0
 730 0010 FB79     		ldrb	r3, [r7, #7]	@ zero_extendqisi2
 731 0012 03F00703 		and	r3, r3, #7
 732 0016 0122     		movs	r2, #1
 733 0018 02FA03F3 		lsl	r3, r2, r3
 734 001c BB75     		strb	r3, [r7, #22]
 606:Generated_Source\PSoC5/CapSense_CSHL.c ****     /* Prepare to find debounce counter index */
 607:Generated_Source\PSoC5/CapSense_CSHL.c ****     uint8 widget = CapSense_widgetNumber[sensor];
 735              		.loc 1 607 0
 736 001e FB79     		ldrb	r3, [r7, #7]	@ zero_extendqisi2
 737 0020 344A     		ldr	r2, .L43
 738 0022 D35C     		ldrb	r3, [r2, r3]
 739 0024 7B75     		strb	r3, [r7, #21]
 608:Generated_Source\PSoC5/CapSense_CSHL.c ****     uint16 fingerThreshold = CapSense_fingerThreshold[widget];
 740              		.loc 1 608 0
 741 0026 7B7D     		ldrb	r3, [r7, #21]	@ zero_extendqisi2
 742 0028 334A     		ldr	r2, .L43+4
 743 002a 32F81330 		ldrh	r3, [r2, r3, lsl #1]	@ movhi
 744 002e 7B82     		strh	r3, [r7, #18]	@ movhi
 609:Generated_Source\PSoC5/CapSense_CSHL.c ****     uint16 hysteresis = CapSense_hysteresis[widget];
 745              		.loc 1 609 0
 746 0030 7B7D     		ldrb	r3, [r7, #21]	@ zero_extendqisi2
 747 0032 324A     		ldr	r2, .L43+8
 748 0034 32F81330 		ldrh	r3, [r2, r3, lsl #1]	@ movhi
ARM GAS  C:\Users\JEFFSN~1\AppData\Local\Temp\cckGk2Ra.s 			page 25


 749 0038 3B82     		strh	r3, [r7, #16]	@ movhi
 610:Generated_Source\PSoC5/CapSense_CSHL.c ****     uint8 debounce = CapSense_debounce[widget];
 750              		.loc 1 610 0
 751 003a 7B7D     		ldrb	r3, [r7, #21]	@ zero_extendqisi2
 752 003c 304A     		ldr	r2, .L43+12
 753 003e D35C     		ldrb	r3, [r2, r3]
 754 0040 FB73     		strb	r3, [r7, #15]
 611:Generated_Source\PSoC5/CapSense_CSHL.c ****     
 612:Generated_Source\PSoC5/CapSense_CSHL.c ****     debounceIndex = widget;
 755              		.loc 1 612 0
 756 0042 7B7D     		ldrb	r3, [r7, #21]
 757 0044 BB73     		strb	r3, [r7, #14]
 613:Generated_Source\PSoC5/CapSense_CSHL.c **** 
 614:Generated_Source\PSoC5/CapSense_CSHL.c ****     
 615:Generated_Source\PSoC5/CapSense_CSHL.c ****     /* Was on */
 616:Generated_Source\PSoC5/CapSense_CSHL.c ****     if (0u != (CapSense_sensorOnMask[pos] & onMask))
 758              		.loc 1 616 0
 759 0046 FB7D     		ldrb	r3, [r7, #23]	@ zero_extendqisi2
 760 0048 2E4A     		ldr	r2, .L43+16
 761 004a D25C     		ldrb	r2, [r2, r3]	@ zero_extendqisi2
 762 004c BB7D     		ldrb	r3, [r7, #22]
 763 004e 1340     		ands	r3, r3, r2
 764 0050 DBB2     		uxtb	r3, r3
 765 0052 002B     		cmp	r3, #0
 766 0054 19D0     		beq	.L35
 617:Generated_Source\PSoC5/CapSense_CSHL.c ****     {
 618:Generated_Source\PSoC5/CapSense_CSHL.c ****         /* Hysteresis minus */
 619:Generated_Source\PSoC5/CapSense_CSHL.c ****         if (CapSense_sensorSignal[sensor] < (fingerThreshold - hysteresis))
 767              		.loc 1 619 0
 768 0056 FB79     		ldrb	r3, [r7, #7]	@ zero_extendqisi2
 769 0058 2B4A     		ldr	r2, .L43+20
 770 005a 32F81330 		ldrh	r3, [r2, r3, lsl #1]
 771 005e 1946     		mov	r1, r3
 772 0060 7A8A     		ldrh	r2, [r7, #18]
 773 0062 3B8A     		ldrh	r3, [r7, #16]
 774 0064 D31A     		subs	r3, r2, r3
 775 0066 9942     		cmp	r1, r3
 776 0068 33DA     		bge	.L37
 620:Generated_Source\PSoC5/CapSense_CSHL.c ****         {
 621:Generated_Source\PSoC5/CapSense_CSHL.c ****             CapSense_sensorOnMask[pos] &= (uint8)~onMask;
 777              		.loc 1 621 0
 778 006a FB7D     		ldrb	r3, [r7, #23]	@ zero_extendqisi2
 779 006c FA7D     		ldrb	r2, [r7, #23]	@ zero_extendqisi2
 780 006e 2549     		ldr	r1, .L43+16
 781 0070 895C     		ldrb	r1, [r1, r2]	@ zero_extendqisi2
 782 0072 BA7D     		ldrb	r2, [r7, #22]
 783 0074 D243     		mvns	r2, r2
 784 0076 D2B2     		uxtb	r2, r2
 785 0078 0A40     		ands	r2, r2, r1
 786 007a D1B2     		uxtb	r1, r2
 787 007c 214A     		ldr	r2, .L43+16
 788 007e D154     		strb	r1, [r2, r3]
 622:Generated_Source\PSoC5/CapSense_CSHL.c ****             CapSense_debounceCounter[debounceIndex] = debounce; 
 789              		.loc 1 622 0
 790 0080 BB7B     		ldrb	r3, [r7, #14]	@ zero_extendqisi2
 791 0082 2249     		ldr	r1, .L43+24
 792 0084 FA7B     		ldrb	r2, [r7, #15]
ARM GAS  C:\Users\JEFFSN~1\AppData\Local\Temp\cckGk2Ra.s 			page 26


 793 0086 CA54     		strb	r2, [r1, r3]
 794 0088 23E0     		b	.L37
 795              	.L35:
 623:Generated_Source\PSoC5/CapSense_CSHL.c ****         }
 624:Generated_Source\PSoC5/CapSense_CSHL.c ****     }
 625:Generated_Source\PSoC5/CapSense_CSHL.c ****     else    /* Was off */
 626:Generated_Source\PSoC5/CapSense_CSHL.c ****     {
 627:Generated_Source\PSoC5/CapSense_CSHL.c ****         /* Hysteresis plus */
 628:Generated_Source\PSoC5/CapSense_CSHL.c ****         if (CapSense_sensorSignal[sensor] > (fingerThreshold + hysteresis))
 796              		.loc 1 628 0
 797 008a FB79     		ldrb	r3, [r7, #7]	@ zero_extendqisi2
 798 008c 1E4A     		ldr	r2, .L43+20
 799 008e 32F81330 		ldrh	r3, [r2, r3, lsl #1]
 800 0092 1946     		mov	r1, r3
 801 0094 7A8A     		ldrh	r2, [r7, #18]
 802 0096 3B8A     		ldrh	r3, [r7, #16]
 803 0098 1344     		add	r3, r3, r2
 804 009a 9942     		cmp	r1, r3
 805 009c 15DD     		ble	.L38
 629:Generated_Source\PSoC5/CapSense_CSHL.c ****         {
 630:Generated_Source\PSoC5/CapSense_CSHL.c ****             /* Sensor active, decrement debounce counter */
 631:Generated_Source\PSoC5/CapSense_CSHL.c ****             if (CapSense_debounceCounter[debounceIndex] <= 1u)
 806              		.loc 1 631 0
 807 009e BB7B     		ldrb	r3, [r7, #14]	@ zero_extendqisi2
 808 00a0 1A4A     		ldr	r2, .L43+24
 809 00a2 D35C     		ldrb	r3, [r2, r3]	@ zero_extendqisi2
 810 00a4 012B     		cmp	r3, #1
 811 00a6 08D8     		bhi	.L39
 632:Generated_Source\PSoC5/CapSense_CSHL.c ****             {
 633:Generated_Source\PSoC5/CapSense_CSHL.c ****                 CapSense_sensorOnMask[pos] |= onMask; 
 812              		.loc 1 633 0
 813 00a8 FB7D     		ldrb	r3, [r7, #23]	@ zero_extendqisi2
 814 00aa FA7D     		ldrb	r2, [r7, #23]	@ zero_extendqisi2
 815 00ac 1549     		ldr	r1, .L43+16
 816 00ae 895C     		ldrb	r1, [r1, r2]	@ zero_extendqisi2
 817 00b0 BA7D     		ldrb	r2, [r7, #22]
 818 00b2 0A43     		orrs	r2, r2, r1
 819 00b4 D1B2     		uxtb	r1, r2
 820 00b6 134A     		ldr	r2, .L43+16
 821 00b8 D154     		strb	r1, [r2, r3]
 822              	.L39:
 634:Generated_Source\PSoC5/CapSense_CSHL.c ****             }
 635:Generated_Source\PSoC5/CapSense_CSHL.c ****             CapSense_debounceCounter[debounceIndex]--;
 823              		.loc 1 635 0
 824 00ba BB7B     		ldrb	r3, [r7, #14]	@ zero_extendqisi2
 825 00bc 134A     		ldr	r2, .L43+24
 826 00be D25C     		ldrb	r2, [r2, r3]	@ zero_extendqisi2
 827 00c0 013A     		subs	r2, r2, #1
 828 00c2 D1B2     		uxtb	r1, r2
 829 00c4 114A     		ldr	r2, .L43+24
 830 00c6 D154     		strb	r1, [r2, r3]
 831 00c8 03E0     		b	.L37
 832              	.L38:
 636:Generated_Source\PSoC5/CapSense_CSHL.c ****         }
 637:Generated_Source\PSoC5/CapSense_CSHL.c ****         else
 638:Generated_Source\PSoC5/CapSense_CSHL.c ****         {
 639:Generated_Source\PSoC5/CapSense_CSHL.c ****             /* Sensor inactive - reset Debounce counter */
ARM GAS  C:\Users\JEFFSN~1\AppData\Local\Temp\cckGk2Ra.s 			page 27


 640:Generated_Source\PSoC5/CapSense_CSHL.c ****             CapSense_debounceCounter[debounceIndex] = debounce;
 833              		.loc 1 640 0
 834 00ca BB7B     		ldrb	r3, [r7, #14]	@ zero_extendqisi2
 835 00cc 0F49     		ldr	r1, .L43+24
 836 00ce FA7B     		ldrb	r2, [r7, #15]
 837 00d0 CA54     		strb	r2, [r1, r3]
 838              	.L37:
 641:Generated_Source\PSoC5/CapSense_CSHL.c ****         }
 642:Generated_Source\PSoC5/CapSense_CSHL.c ****     }
 643:Generated_Source\PSoC5/CapSense_CSHL.c ****     
 644:Generated_Source\PSoC5/CapSense_CSHL.c ****     return (((CapSense_sensorOnMask[pos] & onMask) != 0u) ? 1u : 0u);
 839              		.loc 1 644 0
 840 00d2 FB7D     		ldrb	r3, [r7, #23]	@ zero_extendqisi2
 841 00d4 0B4A     		ldr	r2, .L43+16
 842 00d6 D25C     		ldrb	r2, [r2, r3]	@ zero_extendqisi2
 843 00d8 BB7D     		ldrb	r3, [r7, #22]
 844 00da 1340     		ands	r3, r3, r2
 845 00dc DBB2     		uxtb	r3, r3
 846 00de 002B     		cmp	r3, #0
 847 00e0 01D0     		beq	.L40
 848              		.loc 1 644 0 is_stmt 0 discriminator 1
 849 00e2 0123     		movs	r3, #1
 850 00e4 00E0     		b	.L41
 851              	.L40:
 852              		.loc 1 644 0 discriminator 2
 853 00e6 0023     		movs	r3, #0
 854              	.L41:
 645:Generated_Source\PSoC5/CapSense_CSHL.c **** }
 855              		.loc 1 645 0 is_stmt 1 discriminator 4
 856 00e8 1846     		mov	r0, r3
 857 00ea 1C37     		adds	r7, r7, #28
 858              		.cfi_def_cfa_offset 4
 859 00ec BD46     		mov	sp, r7
 860              		.cfi_def_cfa_register 13
 861              		@ sp needed
 862 00ee 80BC     		pop	{r7}
 863              		.cfi_restore 7
 864              		.cfi_def_cfa_offset 0
 865 00f0 7047     		bx	lr
 866              	.L44:
 867 00f2 00BF     		.align	2
 868              	.L43:
 869 00f4 00000000 		.word	CapSense_widgetNumber
 870 00f8 00000000 		.word	CapSense_fingerThreshold
 871 00fc 00000000 		.word	CapSense_hysteresis
 872 0100 00000000 		.word	CapSense_debounce
 873 0104 00000000 		.word	CapSense_sensorOnMask
 874 0108 00000000 		.word	CapSense_sensorSignal
 875 010c 00000000 		.word	CapSense_debounceCounter
 876              		.cfi_endproc
 877              	.LFE6:
 878              		.size	CapSense_CheckIsSensorActive, .-CapSense_CheckIsSensorActive
 879              		.section	.text.CapSense_CheckIsWidgetActive,"ax",%progbits
 880              		.align	2
 881              		.global	CapSense_CheckIsWidgetActive
 882              		.thumb
 883              		.thumb_func
ARM GAS  C:\Users\JEFFSN~1\AppData\Local\Temp\cckGk2Ra.s 			page 28


 884              		.type	CapSense_CheckIsWidgetActive, %function
 885              	CapSense_CheckIsWidgetActive:
 886              	.LFB7:
 646:Generated_Source\PSoC5/CapSense_CSHL.c **** 
 647:Generated_Source\PSoC5/CapSense_CSHL.c **** 
 648:Generated_Source\PSoC5/CapSense_CSHL.c **** /*******************************************************************************
 649:Generated_Source\PSoC5/CapSense_CSHL.c **** * Function Name: CapSense_CheckIsWidgetActive
 650:Generated_Source\PSoC5/CapSense_CSHL.c **** ********************************************************************************
 651:Generated_Source\PSoC5/CapSense_CSHL.c **** *
 652:Generated_Source\PSoC5/CapSense_CSHL.c **** * Summary:
 653:Generated_Source\PSoC5/CapSense_CSHL.c **** *  Use function CapSense_CheckIsSensorActive() to update 
 654:Generated_Source\PSoC5/CapSense_CSHL.c **** *  CapSense_sensorOnMask[] for all sensors within the widget.
 655:Generated_Source\PSoC5/CapSense_CSHL.c **** *  If one of sensors within widget is active the function return that widget is 
 656:Generated_Source\PSoC5/CapSense_CSHL.c **** *  active.
 657:Generated_Source\PSoC5/CapSense_CSHL.c **** *  The touch pad and matrix buttons widgets need to have active sensor within 
 658:Generated_Source\PSoC5/CapSense_CSHL.c **** *  col and row to return widget active status.
 659:Generated_Source\PSoC5/CapSense_CSHL.c **** *
 660:Generated_Source\PSoC5/CapSense_CSHL.c **** * Parameters:
 661:Generated_Source\PSoC5/CapSense_CSHL.c **** *  widget:  widget number.
 662:Generated_Source\PSoC5/CapSense_CSHL.c **** *
 663:Generated_Source\PSoC5/CapSense_CSHL.c **** * Return:
 664:Generated_Source\PSoC5/CapSense_CSHL.c **** *  Returns widget sensor state 1 if one or more sensors within widget is/are 
 665:Generated_Source\PSoC5/CapSense_CSHL.c **** *  active, 0 if all sensors within widget are inactive.
 666:Generated_Source\PSoC5/CapSense_CSHL.c **** *
 667:Generated_Source\PSoC5/CapSense_CSHL.c **** * Reentrant:
 668:Generated_Source\PSoC5/CapSense_CSHL.c **** *  No
 669:Generated_Source\PSoC5/CapSense_CSHL.c **** *
 670:Generated_Source\PSoC5/CapSense_CSHL.c **** *******************************************************************************/
 671:Generated_Source\PSoC5/CapSense_CSHL.c **** uint8 CapSense_CheckIsWidgetActive(uint8 widget)
 672:Generated_Source\PSoC5/CapSense_CSHL.c ****                                  
 673:Generated_Source\PSoC5/CapSense_CSHL.c **** {
 887              		.loc 1 673 0
 888              		.cfi_startproc
 889              		@ args = 0, pretend = 0, frame = 16
 890              		@ frame_needed = 1, uses_anonymous_args = 0
 891 0000 80B5     		push	{r7, lr}
 892              		.cfi_def_cfa_offset 8
 893              		.cfi_offset 7, -8
 894              		.cfi_offset 14, -4
 895 0002 84B0     		sub	sp, sp, #16
 896              		.cfi_def_cfa_offset 24
 897 0004 00AF     		add	r7, sp, #0
 898              		.cfi_def_cfa_register 7
 899 0006 0346     		mov	r3, r0
 900 0008 FB71     		strb	r3, [r7, #7]
 674:Generated_Source\PSoC5/CapSense_CSHL.c ****     uint8 rawIndex = CapSense_rawDataIndex[widget];
 901              		.loc 1 674 0
 902 000a FB79     		ldrb	r3, [r7, #7]	@ zero_extendqisi2
 903 000c 0F4A     		ldr	r2, .L49
 904 000e D35C     		ldrb	r3, [r2, r3]
 905 0010 FB73     		strb	r3, [r7, #15]
 675:Generated_Source\PSoC5/CapSense_CSHL.c ****     uint8 numberOfSensors = CapSense_numberOfSensors[widget] + rawIndex;
 906              		.loc 1 675 0
 907 0012 FB79     		ldrb	r3, [r7, #7]	@ zero_extendqisi2
 908 0014 0E4A     		ldr	r2, .L49+4
 909 0016 D25C     		ldrb	r2, [r2, r3]	@ zero_extendqisi2
 910 0018 FB7B     		ldrb	r3, [r7, #15]
ARM GAS  C:\Users\JEFFSN~1\AppData\Local\Temp\cckGk2Ra.s 			page 29


 911 001a 1344     		add	r3, r3, r2
 912 001c 7B73     		strb	r3, [r7, #13]
 676:Generated_Source\PSoC5/CapSense_CSHL.c ****     uint8 state = 0u;
 913              		.loc 1 676 0
 914 001e 0023     		movs	r3, #0
 915 0020 BB73     		strb	r3, [r7, #14]
 916              	.L47:
 677:Generated_Source\PSoC5/CapSense_CSHL.c **** 
 678:Generated_Source\PSoC5/CapSense_CSHL.c ****     /* Check all sensors of the widget */
 679:Generated_Source\PSoC5/CapSense_CSHL.c ****     do
 680:Generated_Source\PSoC5/CapSense_CSHL.c ****     {
 681:Generated_Source\PSoC5/CapSense_CSHL.c ****         if(CapSense_CheckIsSensorActive(rawIndex) != 0u)
 917              		.loc 1 681 0
 918 0022 FB7B     		ldrb	r3, [r7, #15]	@ zero_extendqisi2
 919 0024 1846     		mov	r0, r3
 920 0026 FFF7FEFF 		bl	CapSense_CheckIsSensorActive
 921 002a 0346     		mov	r3, r0
 922 002c 002B     		cmp	r3, #0
 923 002e 01D0     		beq	.L46
 682:Generated_Source\PSoC5/CapSense_CSHL.c ****         {
 683:Generated_Source\PSoC5/CapSense_CSHL.c ****             state = CapSense_SENSOR_1_IS_ACTIVE;
 924              		.loc 1 683 0
 925 0030 0123     		movs	r3, #1
 926 0032 BB73     		strb	r3, [r7, #14]
 927              	.L46:
 684:Generated_Source\PSoC5/CapSense_CSHL.c ****         }
 685:Generated_Source\PSoC5/CapSense_CSHL.c ****         rawIndex++;
 928              		.loc 1 685 0
 929 0034 FB7B     		ldrb	r3, [r7, #15]	@ zero_extendqisi2
 930 0036 0133     		adds	r3, r3, #1
 931 0038 FB73     		strb	r3, [r7, #15]
 686:Generated_Source\PSoC5/CapSense_CSHL.c ****     }
 687:Generated_Source\PSoC5/CapSense_CSHL.c ****     while(rawIndex < numberOfSensors);
 932              		.loc 1 687 0
 933 003a FA7B     		ldrb	r2, [r7, #15]	@ zero_extendqisi2
 934 003c 7B7B     		ldrb	r3, [r7, #13]	@ zero_extendqisi2
 935 003e 9A42     		cmp	r2, r3
 936 0040 EFD3     		bcc	.L47
 688:Generated_Source\PSoC5/CapSense_CSHL.c ****     
 689:Generated_Source\PSoC5/CapSense_CSHL.c **** 
 690:Generated_Source\PSoC5/CapSense_CSHL.c ****     
 691:Generated_Source\PSoC5/CapSense_CSHL.c ****     return (state);
 937              		.loc 1 691 0
 938 0042 BB7B     		ldrb	r3, [r7, #14]	@ zero_extendqisi2
 692:Generated_Source\PSoC5/CapSense_CSHL.c **** }
 939              		.loc 1 692 0
 940 0044 1846     		mov	r0, r3
 941 0046 1037     		adds	r7, r7, #16
 942              		.cfi_def_cfa_offset 8
 943 0048 BD46     		mov	sp, r7
 944              		.cfi_def_cfa_register 13
 945              		@ sp needed
 946 004a 80BD     		pop	{r7, pc}
 947              	.L50:
 948              		.align	2
 949              	.L49:
 950 004c 00000000 		.word	CapSense_rawDataIndex
ARM GAS  C:\Users\JEFFSN~1\AppData\Local\Temp\cckGk2Ra.s 			page 30


 951 0050 00000000 		.word	CapSense_numberOfSensors
 952              		.cfi_endproc
 953              	.LFE7:
 954              		.size	CapSense_CheckIsWidgetActive, .-CapSense_CheckIsWidgetActive
 955              		.section	.text.CapSense_CheckIsAnyWidgetActive,"ax",%progbits
 956              		.align	2
 957              		.global	CapSense_CheckIsAnyWidgetActive
 958              		.thumb
 959              		.thumb_func
 960              		.type	CapSense_CheckIsAnyWidgetActive, %function
 961              	CapSense_CheckIsAnyWidgetActive:
 962              	.LFB8:
 693:Generated_Source\PSoC5/CapSense_CSHL.c **** 
 694:Generated_Source\PSoC5/CapSense_CSHL.c **** 
 695:Generated_Source\PSoC5/CapSense_CSHL.c **** /*******************************************************************************
 696:Generated_Source\PSoC5/CapSense_CSHL.c **** * Function Name: CapSense_CheckIsAnyWidgetActive
 697:Generated_Source\PSoC5/CapSense_CSHL.c **** ********************************************************************************
 698:Generated_Source\PSoC5/CapSense_CSHL.c **** *
 699:Generated_Source\PSoC5/CapSense_CSHL.c **** * Summary:
 700:Generated_Source\PSoC5/CapSense_CSHL.c **** *  Compares all sensors of the CapSense_signal[] array to their finger 
 701:Generated_Source\PSoC5/CapSense_CSHL.c **** *  threshold. Calls CapSense_CheckIsWidgetActive() for each widget so 
 702:Generated_Source\PSoC5/CapSense_CSHL.c **** *  the CapSense_SensorOnMask[] array is up to date after calling this 
 703:Generated_Source\PSoC5/CapSense_CSHL.c **** *  function.
 704:Generated_Source\PSoC5/CapSense_CSHL.c **** *
 705:Generated_Source\PSoC5/CapSense_CSHL.c **** * Parameters:
 706:Generated_Source\PSoC5/CapSense_CSHL.c **** *  widget:  widget number.
 707:Generated_Source\PSoC5/CapSense_CSHL.c **** *
 708:Generated_Source\PSoC5/CapSense_CSHL.c **** * Return:
 709:Generated_Source\PSoC5/CapSense_CSHL.c **** *  Returns 1 if any widget is active, 0 none of widgets are active.
 710:Generated_Source\PSoC5/CapSense_CSHL.c **** *
 711:Generated_Source\PSoC5/CapSense_CSHL.c **** * Reentrant:
 712:Generated_Source\PSoC5/CapSense_CSHL.c **** *  No
 713:Generated_Source\PSoC5/CapSense_CSHL.c **** *
 714:Generated_Source\PSoC5/CapSense_CSHL.c **** *******************************************************************************/
 715:Generated_Source\PSoC5/CapSense_CSHL.c **** uint8 CapSense_CheckIsAnyWidgetActive(void)
 716:Generated_Source\PSoC5/CapSense_CSHL.c ****                                  
 717:Generated_Source\PSoC5/CapSense_CSHL.c **** {
 963              		.loc 1 717 0
 964              		.cfi_startproc
 965              		@ args = 0, pretend = 0, frame = 8
 966              		@ frame_needed = 1, uses_anonymous_args = 0
 967 0000 80B5     		push	{r7, lr}
 968              		.cfi_def_cfa_offset 8
 969              		.cfi_offset 7, -8
 970              		.cfi_offset 14, -4
 971 0002 82B0     		sub	sp, sp, #8
 972              		.cfi_def_cfa_offset 16
 973 0004 00AF     		add	r7, sp, #0
 974              		.cfi_def_cfa_register 7
 718:Generated_Source\PSoC5/CapSense_CSHL.c ****     uint8 i;
 719:Generated_Source\PSoC5/CapSense_CSHL.c ****     uint8 state = 0u;
 975              		.loc 1 719 0
 976 0006 0023     		movs	r3, #0
 977 0008 BB71     		strb	r3, [r7, #6]
 720:Generated_Source\PSoC5/CapSense_CSHL.c ****     
 721:Generated_Source\PSoC5/CapSense_CSHL.c ****     for(i = 0u; i < CapSense_TOTAL_WIDGET_COUNT; i++)
 978              		.loc 1 721 0
ARM GAS  C:\Users\JEFFSN~1\AppData\Local\Temp\cckGk2Ra.s 			page 31


 979 000a 0023     		movs	r3, #0
 980 000c FB71     		strb	r3, [r7, #7]
 981 000e 0BE0     		b	.L52
 982              	.L54:
 722:Generated_Source\PSoC5/CapSense_CSHL.c ****     {
 723:Generated_Source\PSoC5/CapSense_CSHL.c ****         if (CapSense_CheckIsWidgetActive(i) != 0u)
 983              		.loc 1 723 0
 984 0010 FB79     		ldrb	r3, [r7, #7]	@ zero_extendqisi2
 985 0012 1846     		mov	r0, r3
 986 0014 FFF7FEFF 		bl	CapSense_CheckIsWidgetActive
 987 0018 0346     		mov	r3, r0
 988 001a 002B     		cmp	r3, #0
 989 001c 01D0     		beq	.L53
 724:Generated_Source\PSoC5/CapSense_CSHL.c ****         {
 725:Generated_Source\PSoC5/CapSense_CSHL.c ****             state = CapSense_WIDGET_IS_ACTIVE;
 990              		.loc 1 725 0
 991 001e 0123     		movs	r3, #1
 992 0020 BB71     		strb	r3, [r7, #6]
 993              	.L53:
 721:Generated_Source\PSoC5/CapSense_CSHL.c ****     {
 994              		.loc 1 721 0 discriminator 2
 995 0022 FB79     		ldrb	r3, [r7, #7]	@ zero_extendqisi2
 996 0024 0133     		adds	r3, r3, #1
 997 0026 FB71     		strb	r3, [r7, #7]
 998              	.L52:
 721:Generated_Source\PSoC5/CapSense_CSHL.c ****     {
 999              		.loc 1 721 0 is_stmt 0 discriminator 1
 1000 0028 FB79     		ldrb	r3, [r7, #7]	@ zero_extendqisi2
 1001 002a 0B2B     		cmp	r3, #11
 1002 002c F0D9     		bls	.L54
 726:Generated_Source\PSoC5/CapSense_CSHL.c ****         }
 727:Generated_Source\PSoC5/CapSense_CSHL.c ****     }
 728:Generated_Source\PSoC5/CapSense_CSHL.c ****     
 729:Generated_Source\PSoC5/CapSense_CSHL.c **** 
 730:Generated_Source\PSoC5/CapSense_CSHL.c ****     return (state);
 1003              		.loc 1 730 0 is_stmt 1
 1004 002e BB79     		ldrb	r3, [r7, #6]	@ zero_extendqisi2
 731:Generated_Source\PSoC5/CapSense_CSHL.c **** }
 1005              		.loc 1 731 0
 1006 0030 1846     		mov	r0, r3
 1007 0032 0837     		adds	r7, r7, #8
 1008              		.cfi_def_cfa_offset 8
 1009 0034 BD46     		mov	sp, r7
 1010              		.cfi_def_cfa_register 13
 1011              		@ sp needed
 1012 0036 80BD     		pop	{r7, pc}
 1013              		.cfi_endproc
 1014              	.LFE8:
 1015              		.size	CapSense_CheckIsAnyWidgetActive, .-CapSense_CheckIsAnyWidgetActive
 1016              		.section	.text.CapSense_EnableWidget,"ax",%progbits
 1017              		.align	2
 1018              		.global	CapSense_EnableWidget
 1019              		.thumb
 1020              		.thumb_func
 1021              		.type	CapSense_EnableWidget, %function
 1022              	CapSense_EnableWidget:
 1023              	.LFB9:
ARM GAS  C:\Users\JEFFSN~1\AppData\Local\Temp\cckGk2Ra.s 			page 32


 732:Generated_Source\PSoC5/CapSense_CSHL.c **** 
 733:Generated_Source\PSoC5/CapSense_CSHL.c **** 
 734:Generated_Source\PSoC5/CapSense_CSHL.c **** /*******************************************************************************
 735:Generated_Source\PSoC5/CapSense_CSHL.c **** * Function Name: CapSense_EnableWidget
 736:Generated_Source\PSoC5/CapSense_CSHL.c **** ********************************************************************************
 737:Generated_Source\PSoC5/CapSense_CSHL.c **** *
 738:Generated_Source\PSoC5/CapSense_CSHL.c **** * Summary:
 739:Generated_Source\PSoC5/CapSense_CSHL.c **** *  Enable all widget elements (sensors) to scanning process.
 740:Generated_Source\PSoC5/CapSense_CSHL.c **** *
 741:Generated_Source\PSoC5/CapSense_CSHL.c **** * Parameters:
 742:Generated_Source\PSoC5/CapSense_CSHL.c **** *  widget:  widget number.
 743:Generated_Source\PSoC5/CapSense_CSHL.c **** *
 744:Generated_Source\PSoC5/CapSense_CSHL.c **** * Return:
 745:Generated_Source\PSoC5/CapSense_CSHL.c **** *  None
 746:Generated_Source\PSoC5/CapSense_CSHL.c **** *
 747:Generated_Source\PSoC5/CapSense_CSHL.c **** * Global Variables:
 748:Generated_Source\PSoC5/CapSense_CSHL.c **** *  CapSense_sensorEnableMask[] - used to store the sensor scanning 
 749:Generated_Source\PSoC5/CapSense_CSHL.c **** *  state.
 750:Generated_Source\PSoC5/CapSense_CSHL.c **** *  CapSense_sensorEnableMask[0] contains the masked bits for sensors 
 751:Generated_Source\PSoC5/CapSense_CSHL.c **** *  0 through 7 (sensor 0 is bit 0, sensor 1 is bit 1).
 752:Generated_Source\PSoC5/CapSense_CSHL.c **** *  CapSense_sensorEnableMask[1] contains the masked bits for 
 753:Generated_Source\PSoC5/CapSense_CSHL.c **** *  sensors 8 through 15 (if needed), and so on.
 754:Generated_Source\PSoC5/CapSense_CSHL.c **** *  0 - sensor doesn't scan by CapSense_ScanEnabledWidgets().
 755:Generated_Source\PSoC5/CapSense_CSHL.c **** *  1 - sensor scans by CapSense_ScanEnabledWidgets().
 756:Generated_Source\PSoC5/CapSense_CSHL.c **** *
 757:Generated_Source\PSoC5/CapSense_CSHL.c **** * Reentrant:
 758:Generated_Source\PSoC5/CapSense_CSHL.c **** *  No
 759:Generated_Source\PSoC5/CapSense_CSHL.c **** *
 760:Generated_Source\PSoC5/CapSense_CSHL.c **** *******************************************************************************/
 761:Generated_Source\PSoC5/CapSense_CSHL.c **** void CapSense_EnableWidget(uint8 widget)
 762:Generated_Source\PSoC5/CapSense_CSHL.c ****                                    
 763:Generated_Source\PSoC5/CapSense_CSHL.c **** {
 1024              		.loc 1 763 0
 1025              		.cfi_startproc
 1026              		@ args = 0, pretend = 0, frame = 16
 1027              		@ frame_needed = 1, uses_anonymous_args = 0
 1028              		@ link register save eliminated.
 1029 0000 80B4     		push	{r7}
 1030              		.cfi_def_cfa_offset 4
 1031              		.cfi_offset 7, -4
 1032 0002 85B0     		sub	sp, sp, #20
 1033              		.cfi_def_cfa_offset 24
 1034 0004 00AF     		add	r7, sp, #0
 1035              		.cfi_def_cfa_register 7
 1036 0006 0346     		mov	r3, r0
 1037 0008 FB71     		strb	r3, [r7, #7]
 764:Generated_Source\PSoC5/CapSense_CSHL.c ****     uint8 pos;
 765:Generated_Source\PSoC5/CapSense_CSHL.c ****     uint8 enMask;
 766:Generated_Source\PSoC5/CapSense_CSHL.c ****     uint8 rawIndex = CapSense_rawDataIndex[widget];
 1038              		.loc 1 766 0
 1039 000a FB79     		ldrb	r3, [r7, #7]	@ zero_extendqisi2
 1040 000c 134A     		ldr	r2, .L58
 1041 000e D35C     		ldrb	r3, [r2, r3]
 1042 0010 FB73     		strb	r3, [r7, #15]
 767:Generated_Source\PSoC5/CapSense_CSHL.c ****     uint8 numberOfSensors = CapSense_numberOfSensors[widget] + rawIndex;
 1043              		.loc 1 767 0
 1044 0012 FB79     		ldrb	r3, [r7, #7]	@ zero_extendqisi2
ARM GAS  C:\Users\JEFFSN~1\AppData\Local\Temp\cckGk2Ra.s 			page 33


 1045 0014 124A     		ldr	r2, .L58+4
 1046 0016 D25C     		ldrb	r2, [r2, r3]	@ zero_extendqisi2
 1047 0018 FB7B     		ldrb	r3, [r7, #15]
 1048 001a 1344     		add	r3, r3, r2
 1049 001c BB73     		strb	r3, [r7, #14]
 1050              	.L57:
 768:Generated_Source\PSoC5/CapSense_CSHL.c ****     
 769:Generated_Source\PSoC5/CapSense_CSHL.c ****     /* Enable all sensors of the widget */
 770:Generated_Source\PSoC5/CapSense_CSHL.c ****     do
 771:Generated_Source\PSoC5/CapSense_CSHL.c ****     {
 772:Generated_Source\PSoC5/CapSense_CSHL.c ****         pos = (rawIndex >> 3u);
 1051              		.loc 1 772 0 discriminator 1
 1052 001e FB7B     		ldrb	r3, [r7, #15]	@ zero_extendqisi2
 1053 0020 DB08     		lsrs	r3, r3, #3
 1054 0022 7B73     		strb	r3, [r7, #13]
 773:Generated_Source\PSoC5/CapSense_CSHL.c ****         enMask = 0x01u << (rawIndex & 0x07u);
 1055              		.loc 1 773 0 discriminator 1
 1056 0024 FB7B     		ldrb	r3, [r7, #15]	@ zero_extendqisi2
 1057 0026 03F00703 		and	r3, r3, #7
 1058 002a 0122     		movs	r2, #1
 1059 002c 02FA03F3 		lsl	r3, r2, r3
 1060 0030 3B73     		strb	r3, [r7, #12]
 774:Generated_Source\PSoC5/CapSense_CSHL.c ****         
 775:Generated_Source\PSoC5/CapSense_CSHL.c ****         CapSense_sensorEnableMask[pos] |= enMask;
 1061              		.loc 1 775 0 discriminator 1
 1062 0032 7B7B     		ldrb	r3, [r7, #13]	@ zero_extendqisi2
 1063 0034 7A7B     		ldrb	r2, [r7, #13]	@ zero_extendqisi2
 1064 0036 0B49     		ldr	r1, .L58+8
 1065 0038 895C     		ldrb	r1, [r1, r2]	@ zero_extendqisi2
 1066 003a 3A7B     		ldrb	r2, [r7, #12]
 1067 003c 0A43     		orrs	r2, r2, r1
 1068 003e D1B2     		uxtb	r1, r2
 1069 0040 084A     		ldr	r2, .L58+8
 1070 0042 D154     		strb	r1, [r2, r3]
 776:Generated_Source\PSoC5/CapSense_CSHL.c ****         rawIndex++;
 1071              		.loc 1 776 0 discriminator 1
 1072 0044 FB7B     		ldrb	r3, [r7, #15]	@ zero_extendqisi2
 1073 0046 0133     		adds	r3, r3, #1
 1074 0048 FB73     		strb	r3, [r7, #15]
 777:Generated_Source\PSoC5/CapSense_CSHL.c ****     }
 778:Generated_Source\PSoC5/CapSense_CSHL.c ****     while(rawIndex < numberOfSensors);
 1075              		.loc 1 778 0 discriminator 1
 1076 004a FA7B     		ldrb	r2, [r7, #15]	@ zero_extendqisi2
 1077 004c BB7B     		ldrb	r3, [r7, #14]	@ zero_extendqisi2
 1078 004e 9A42     		cmp	r2, r3
 1079 0050 E5D3     		bcc	.L57
 779:Generated_Source\PSoC5/CapSense_CSHL.c ****     
 780:Generated_Source\PSoC5/CapSense_CSHL.c **** 
 781:Generated_Source\PSoC5/CapSense_CSHL.c **** }
 1080              		.loc 1 781 0
 1081 0052 00BF     		nop
 1082 0054 1437     		adds	r7, r7, #20
 1083              		.cfi_def_cfa_offset 4
 1084 0056 BD46     		mov	sp, r7
 1085              		.cfi_def_cfa_register 13
 1086              		@ sp needed
 1087 0058 80BC     		pop	{r7}
ARM GAS  C:\Users\JEFFSN~1\AppData\Local\Temp\cckGk2Ra.s 			page 34


 1088              		.cfi_restore 7
 1089              		.cfi_def_cfa_offset 0
 1090 005a 7047     		bx	lr
 1091              	.L59:
 1092              		.align	2
 1093              	.L58:
 1094 005c 00000000 		.word	CapSense_rawDataIndex
 1095 0060 00000000 		.word	CapSense_numberOfSensors
 1096 0064 00000000 		.word	CapSense_sensorEnableMask
 1097              		.cfi_endproc
 1098              	.LFE9:
 1099              		.size	CapSense_EnableWidget, .-CapSense_EnableWidget
 1100              		.section	.text.CapSense_DisableWidget,"ax",%progbits
 1101              		.align	2
 1102              		.global	CapSense_DisableWidget
 1103              		.thumb
 1104              		.thumb_func
 1105              		.type	CapSense_DisableWidget, %function
 1106              	CapSense_DisableWidget:
 1107              	.LFB10:
 782:Generated_Source\PSoC5/CapSense_CSHL.c **** 
 783:Generated_Source\PSoC5/CapSense_CSHL.c **** 
 784:Generated_Source\PSoC5/CapSense_CSHL.c **** /*******************************************************************************
 785:Generated_Source\PSoC5/CapSense_CSHL.c **** * Function Name: CapSense_DisableWidget
 786:Generated_Source\PSoC5/CapSense_CSHL.c **** ********************************************************************************
 787:Generated_Source\PSoC5/CapSense_CSHL.c **** *
 788:Generated_Source\PSoC5/CapSense_CSHL.c **** * Summary:
 789:Generated_Source\PSoC5/CapSense_CSHL.c **** *  Disable all widget elements (sensors) from scanning process.
 790:Generated_Source\PSoC5/CapSense_CSHL.c **** *
 791:Generated_Source\PSoC5/CapSense_CSHL.c **** * Parameters:
 792:Generated_Source\PSoC5/CapSense_CSHL.c **** *  widget:  widget number.
 793:Generated_Source\PSoC5/CapSense_CSHL.c **** *
 794:Generated_Source\PSoC5/CapSense_CSHL.c **** * Return:
 795:Generated_Source\PSoC5/CapSense_CSHL.c **** *  None
 796:Generated_Source\PSoC5/CapSense_CSHL.c **** *
 797:Generated_Source\PSoC5/CapSense_CSHL.c **** * Global Variables:
 798:Generated_Source\PSoC5/CapSense_CSHL.c **** *  CapSense_sensorEnableMask[] - used to store the sensor scanning 
 799:Generated_Source\PSoC5/CapSense_CSHL.c **** *  state.
 800:Generated_Source\PSoC5/CapSense_CSHL.c **** *  CapSense_sensorEnableMask[0] contains the masked bits for sensors 
 801:Generated_Source\PSoC5/CapSense_CSHL.c **** *  0 through 7 (sensor 0 is bit 0, sensor 1 is bit 1).
 802:Generated_Source\PSoC5/CapSense_CSHL.c **** *  CapSense_sensorEnableMask[1] contains the masked bits for 
 803:Generated_Source\PSoC5/CapSense_CSHL.c **** *  sensors 8 through 15 (if needed), and so on.
 804:Generated_Source\PSoC5/CapSense_CSHL.c **** *  0 - sensor doesn't scan by CapSense_ScanEnabledWidgets().
 805:Generated_Source\PSoC5/CapSense_CSHL.c **** *  1 - sensor scans by CapSense_ScanEnabledWidgets().
 806:Generated_Source\PSoC5/CapSense_CSHL.c **** *
 807:Generated_Source\PSoC5/CapSense_CSHL.c **** * Reentrant:
 808:Generated_Source\PSoC5/CapSense_CSHL.c **** *  No
 809:Generated_Source\PSoC5/CapSense_CSHL.c **** *
 810:Generated_Source\PSoC5/CapSense_CSHL.c **** *******************************************************************************/
 811:Generated_Source\PSoC5/CapSense_CSHL.c **** void CapSense_DisableWidget(uint8 widget)
 812:Generated_Source\PSoC5/CapSense_CSHL.c ****                                     
 813:Generated_Source\PSoC5/CapSense_CSHL.c **** {
 1108              		.loc 1 813 0
 1109              		.cfi_startproc
 1110              		@ args = 0, pretend = 0, frame = 16
 1111              		@ frame_needed = 1, uses_anonymous_args = 0
 1112              		@ link register save eliminated.
ARM GAS  C:\Users\JEFFSN~1\AppData\Local\Temp\cckGk2Ra.s 			page 35


 1113 0000 80B4     		push	{r7}
 1114              		.cfi_def_cfa_offset 4
 1115              		.cfi_offset 7, -4
 1116 0002 85B0     		sub	sp, sp, #20
 1117              		.cfi_def_cfa_offset 24
 1118 0004 00AF     		add	r7, sp, #0
 1119              		.cfi_def_cfa_register 7
 1120 0006 0346     		mov	r3, r0
 1121 0008 FB71     		strb	r3, [r7, #7]
 814:Generated_Source\PSoC5/CapSense_CSHL.c ****     uint8 pos;
 815:Generated_Source\PSoC5/CapSense_CSHL.c ****     uint8 enMask;
 816:Generated_Source\PSoC5/CapSense_CSHL.c ****     uint8 rawIndex = CapSense_rawDataIndex[widget];
 1122              		.loc 1 816 0
 1123 000a FB79     		ldrb	r3, [r7, #7]	@ zero_extendqisi2
 1124 000c 144A     		ldr	r2, .L62
 1125 000e D35C     		ldrb	r3, [r2, r3]
 1126 0010 FB73     		strb	r3, [r7, #15]
 817:Generated_Source\PSoC5/CapSense_CSHL.c ****     uint8 numberOfSensors = CapSense_numberOfSensors[widget] + rawIndex;
 1127              		.loc 1 817 0
 1128 0012 FB79     		ldrb	r3, [r7, #7]	@ zero_extendqisi2
 1129 0014 134A     		ldr	r2, .L62+4
 1130 0016 D25C     		ldrb	r2, [r2, r3]	@ zero_extendqisi2
 1131 0018 FB7B     		ldrb	r3, [r7, #15]
 1132 001a 1344     		add	r3, r3, r2
 1133 001c BB73     		strb	r3, [r7, #14]
 1134              	.L61:
 818:Generated_Source\PSoC5/CapSense_CSHL.c ****    
 819:Generated_Source\PSoC5/CapSense_CSHL.c ****     /* Disable all sensors of the widget */
 820:Generated_Source\PSoC5/CapSense_CSHL.c ****     do
 821:Generated_Source\PSoC5/CapSense_CSHL.c ****     {
 822:Generated_Source\PSoC5/CapSense_CSHL.c ****         pos = (rawIndex >> 3u);
 1135              		.loc 1 822 0 discriminator 1
 1136 001e FB7B     		ldrb	r3, [r7, #15]	@ zero_extendqisi2
 1137 0020 DB08     		lsrs	r3, r3, #3
 1138 0022 7B73     		strb	r3, [r7, #13]
 823:Generated_Source\PSoC5/CapSense_CSHL.c ****         enMask = 0x01u << (rawIndex & 0x07u);
 1139              		.loc 1 823 0 discriminator 1
 1140 0024 FB7B     		ldrb	r3, [r7, #15]	@ zero_extendqisi2
 1141 0026 03F00703 		and	r3, r3, #7
 1142 002a 0122     		movs	r2, #1
 1143 002c 02FA03F3 		lsl	r3, r2, r3
 1144 0030 3B73     		strb	r3, [r7, #12]
 824:Generated_Source\PSoC5/CapSense_CSHL.c ****         
 825:Generated_Source\PSoC5/CapSense_CSHL.c ****         CapSense_sensorEnableMask[pos] &= (uint8)~enMask;
 1145              		.loc 1 825 0 discriminator 1
 1146 0032 7B7B     		ldrb	r3, [r7, #13]	@ zero_extendqisi2
 1147 0034 7A7B     		ldrb	r2, [r7, #13]	@ zero_extendqisi2
 1148 0036 0C49     		ldr	r1, .L62+8
 1149 0038 895C     		ldrb	r1, [r1, r2]	@ zero_extendqisi2
 1150 003a 3A7B     		ldrb	r2, [r7, #12]
 1151 003c D243     		mvns	r2, r2
 1152 003e D2B2     		uxtb	r2, r2
 1153 0040 0A40     		ands	r2, r2, r1
 1154 0042 D1B2     		uxtb	r1, r2
 1155 0044 084A     		ldr	r2, .L62+8
 1156 0046 D154     		strb	r1, [r2, r3]
 826:Generated_Source\PSoC5/CapSense_CSHL.c ****         rawIndex++;
ARM GAS  C:\Users\JEFFSN~1\AppData\Local\Temp\cckGk2Ra.s 			page 36


 1157              		.loc 1 826 0 discriminator 1
 1158 0048 FB7B     		ldrb	r3, [r7, #15]	@ zero_extendqisi2
 1159 004a 0133     		adds	r3, r3, #1
 1160 004c FB73     		strb	r3, [r7, #15]
 827:Generated_Source\PSoC5/CapSense_CSHL.c ****     }
 828:Generated_Source\PSoC5/CapSense_CSHL.c ****     while(rawIndex < numberOfSensors);
 1161              		.loc 1 828 0 discriminator 1
 1162 004e FA7B     		ldrb	r2, [r7, #15]	@ zero_extendqisi2
 1163 0050 BB7B     		ldrb	r3, [r7, #14]	@ zero_extendqisi2
 1164 0052 9A42     		cmp	r2, r3
 1165 0054 E3D3     		bcc	.L61
 829:Generated_Source\PSoC5/CapSense_CSHL.c ****     
 830:Generated_Source\PSoC5/CapSense_CSHL.c **** 
 831:Generated_Source\PSoC5/CapSense_CSHL.c **** }
 1166              		.loc 1 831 0
 1167 0056 00BF     		nop
 1168 0058 1437     		adds	r7, r7, #20
 1169              		.cfi_def_cfa_offset 4
 1170 005a BD46     		mov	sp, r7
 1171              		.cfi_def_cfa_register 13
 1172              		@ sp needed
 1173 005c 80BC     		pop	{r7}
 1174              		.cfi_restore 7
 1175              		.cfi_def_cfa_offset 0
 1176 005e 7047     		bx	lr
 1177              	.L63:
 1178              		.align	2
 1179              	.L62:
 1180 0060 00000000 		.word	CapSense_rawDataIndex
 1181 0064 00000000 		.word	CapSense_numberOfSensors
 1182 0068 00000000 		.word	CapSense_sensorEnableMask
 1183              		.cfi_endproc
 1184              	.LFE10:
 1185              		.size	CapSense_DisableWidget, .-CapSense_DisableWidget
 1186              		.section	.text.CapSense_IIR4Filter,"ax",%progbits
 1187              		.align	2
 1188              		.global	CapSense_IIR4Filter
 1189              		.thumb
 1190              		.thumb_func
 1191              		.type	CapSense_IIR4Filter, %function
 1192              	CapSense_IIR4Filter:
 1193              	.LFB11:
 832:Generated_Source\PSoC5/CapSense_CSHL.c **** #if(CapSense_TOTAL_CENTROIDS_COUNT)
 833:Generated_Source\PSoC5/CapSense_CSHL.c ****     /*******************************************************************************
 834:Generated_Source\PSoC5/CapSense_CSHL.c ****     * Function Name: CapSense_FindMaximum
 835:Generated_Source\PSoC5/CapSense_CSHL.c ****     ********************************************************************************
 836:Generated_Source\PSoC5/CapSense_CSHL.c ****     *
 837:Generated_Source\PSoC5/CapSense_CSHL.c ****     * Summary:
 838:Generated_Source\PSoC5/CapSense_CSHL.c ****     *  Finds index of maximum element within defined centroid. Checks 
 839:Generated_Source\PSoC5/CapSense_CSHL.c ****     *  CapSense_SensorSignal[] within defined cenrtoid and 
 840:Generated_Source\PSoC5/CapSense_CSHL.c ****     *  returns index of maximum element. The values below finger threshold are 
 841:Generated_Source\PSoC5/CapSense_CSHL.c ****     *  ignored.
 842:Generated_Source\PSoC5/CapSense_CSHL.c ****     *  The centrod defines by offset of first element and number of elements - count.
 843:Generated_Source\PSoC5/CapSense_CSHL.c ****     *  The diplexed centroid requires at least consecutive two elements above
 844:Generated_Source\PSoC5/CapSense_CSHL.c ****     *  FingerThreshold to find index of maximum element.
 845:Generated_Source\PSoC5/CapSense_CSHL.c ****     * 
 846:Generated_Source\PSoC5/CapSense_CSHL.c ****     * Parameters:
ARM GAS  C:\Users\JEFFSN~1\AppData\Local\Temp\cckGk2Ra.s 			page 37


 847:Generated_Source\PSoC5/CapSense_CSHL.c ****     *  offset:  Start index of cetroid in CapSense_sensorSignal[] array.
 848:Generated_Source\PSoC5/CapSense_CSHL.c ****     *  count:   number of elements within centroid.
 849:Generated_Source\PSoC5/CapSense_CSHL.c ****     *  fingerThreshold:  Finger threshould.
 850:Generated_Source\PSoC5/CapSense_CSHL.c ****     *  diplex:   pointer to diplex table.
 851:Generated_Source\PSoC5/CapSense_CSHL.c ****     * 
 852:Generated_Source\PSoC5/CapSense_CSHL.c ****     * Return:
 853:Generated_Source\PSoC5/CapSense_CSHL.c ****     *  Returns index of maximum element within defined centroid.
 854:Generated_Source\PSoC5/CapSense_CSHL.c ****     *  If index of maximum element doesn't find the 0xFF returns.
 855:Generated_Source\PSoC5/CapSense_CSHL.c ****     * 
 856:Generated_Source\PSoC5/CapSense_CSHL.c ****     *******************************************************************************/
 857:Generated_Source\PSoC5/CapSense_CSHL.c ****     #if (CapSense_IS_DIPLEX_SLIDER)
 858:Generated_Source\PSoC5/CapSense_CSHL.c ****         uint8 CapSense_FindMaximum(uint8 offset, uint8 count, uint16 fingerThreshold, const uint8 C
 859:Generated_Source\PSoC5/CapSense_CSHL.c **** 	                                       
 860:Generated_Source\PSoC5/CapSense_CSHL.c ****     #else 
 861:Generated_Source\PSoC5/CapSense_CSHL.c ****         uint8 CapSense_FindMaximum(uint8 offset, uint8 count, uint16 fingerThreshold)
 862:Generated_Source\PSoC5/CapSense_CSHL.c **** 	                                       
 863:Generated_Source\PSoC5/CapSense_CSHL.c ****     #endif /* (CapSense_IS_DIPLEX_SLIDER) */
 864:Generated_Source\PSoC5/CapSense_CSHL.c ****     {
 865:Generated_Source\PSoC5/CapSense_CSHL.c ****         uint8 i;
 866:Generated_Source\PSoC5/CapSense_CSHL.c ****         #if (CapSense_IS_DIPLEX_SLIDER)        
 867:Generated_Source\PSoC5/CapSense_CSHL.c ****             uint8 curPos = 0u;
 868:Generated_Source\PSoC5/CapSense_CSHL.c ****             /* No centroid at the Start */
 869:Generated_Source\PSoC5/CapSense_CSHL.c ****             uint8 curCntrdSize = 0u;
 870:Generated_Source\PSoC5/CapSense_CSHL.c ****             uint8 curCtrdStartPos = 0xFFu;
 871:Generated_Source\PSoC5/CapSense_CSHL.c ****             /* The biggset centroid is zero */
 872:Generated_Source\PSoC5/CapSense_CSHL.c ****             uint8 biggestCtrdSize = 0u;
 873:Generated_Source\PSoC5/CapSense_CSHL.c ****             uint8 biggestCtrdStartPos = 0u;
 874:Generated_Source\PSoC5/CapSense_CSHL.c ****         #endif /* (CapSense_IS_DIPLEX_SLIDER) */
 875:Generated_Source\PSoC5/CapSense_CSHL.c ****         uint8 maximum = 0xFFu;
 876:Generated_Source\PSoC5/CapSense_CSHL.c ****         uint16 temp = 0u;
 877:Generated_Source\PSoC5/CapSense_CSHL.c ****         uint16 *startOfSlider = &CapSense_sensorSignal[offset]; 
 878:Generated_Source\PSoC5/CapSense_CSHL.c **** 
 879:Generated_Source\PSoC5/CapSense_CSHL.c ****         #if (CapSense_IS_DIPLEX_SLIDER)        
 880:Generated_Source\PSoC5/CapSense_CSHL.c ****             if(diplex != 0u)
 881:Generated_Source\PSoC5/CapSense_CSHL.c ****             {
 882:Generated_Source\PSoC5/CapSense_CSHL.c ****                 /* Initialize */
 883:Generated_Source\PSoC5/CapSense_CSHL.c ****                 i = 0u;
 884:Generated_Source\PSoC5/CapSense_CSHL.c ****                 
 885:Generated_Source\PSoC5/CapSense_CSHL.c ****                 /* Make slider x2 as Diplexed */
 886:Generated_Source\PSoC5/CapSense_CSHL.c ****                 count <<= 1u;
 887:Generated_Source\PSoC5/CapSense_CSHL.c ****                 while(1u)
 888:Generated_Source\PSoC5/CapSense_CSHL.c ****                 { 
 889:Generated_Source\PSoC5/CapSense_CSHL.c ****                     if (startOfSlider[curPos] > 0u)    /* Looking for centroids */
 890:Generated_Source\PSoC5/CapSense_CSHL.c ****                     {
 891:Generated_Source\PSoC5/CapSense_CSHL.c ****                         if (curCtrdStartPos == 0xFFu)
 892:Generated_Source\PSoC5/CapSense_CSHL.c ****                         {
 893:Generated_Source\PSoC5/CapSense_CSHL.c ****                             /* Start of centroid */
 894:Generated_Source\PSoC5/CapSense_CSHL.c ****                             curCtrdStartPos = i;
 895:Generated_Source\PSoC5/CapSense_CSHL.c ****                             curCntrdSize++;
 896:Generated_Source\PSoC5/CapSense_CSHL.c ****                         }
 897:Generated_Source\PSoC5/CapSense_CSHL.c ****                         else
 898:Generated_Source\PSoC5/CapSense_CSHL.c ****                         {
 899:Generated_Source\PSoC5/CapSense_CSHL.c ****                             curCntrdSize++;
 900:Generated_Source\PSoC5/CapSense_CSHL.c ****                         }
 901:Generated_Source\PSoC5/CapSense_CSHL.c ****                     }
 902:Generated_Source\PSoC5/CapSense_CSHL.c ****                     else   /* Select the bigest and indicate zero start */
 903:Generated_Source\PSoC5/CapSense_CSHL.c ****                     {          
ARM GAS  C:\Users\JEFFSN~1\AppData\Local\Temp\cckGk2Ra.s 			page 38


 904:Generated_Source\PSoC5/CapSense_CSHL.c ****                         if(curCntrdSize > 0u)
 905:Generated_Source\PSoC5/CapSense_CSHL.c ****                         {
 906:Generated_Source\PSoC5/CapSense_CSHL.c ****                             /* We are in the end of current */
 907:Generated_Source\PSoC5/CapSense_CSHL.c ****                             if(curCntrdSize > biggestCtrdSize)
 908:Generated_Source\PSoC5/CapSense_CSHL.c ****                             {
 909:Generated_Source\PSoC5/CapSense_CSHL.c ****                                 biggestCtrdSize = curCntrdSize;
 910:Generated_Source\PSoC5/CapSense_CSHL.c ****                                 biggestCtrdStartPos = curCtrdStartPos;
 911:Generated_Source\PSoC5/CapSense_CSHL.c ****                             }
 912:Generated_Source\PSoC5/CapSense_CSHL.c ****                             
 913:Generated_Source\PSoC5/CapSense_CSHL.c ****                             curCntrdSize = 0u;
 914:Generated_Source\PSoC5/CapSense_CSHL.c ****                             curCtrdStartPos = 0xFFu;
 915:Generated_Source\PSoC5/CapSense_CSHL.c ****                         }
 916:Generated_Source\PSoC5/CapSense_CSHL.c ****                     }
 917:Generated_Source\PSoC5/CapSense_CSHL.c ****                     
 918:Generated_Source\PSoC5/CapSense_CSHL.c ****                     i++; 
 919:Generated_Source\PSoC5/CapSense_CSHL.c ****                     curPos = diplex[i];
 920:Generated_Source\PSoC5/CapSense_CSHL.c ****                     if(i == count)
 921:Generated_Source\PSoC5/CapSense_CSHL.c ****                     {
 922:Generated_Source\PSoC5/CapSense_CSHL.c ****                         break;
 923:Generated_Source\PSoC5/CapSense_CSHL.c ****                     }            
 924:Generated_Source\PSoC5/CapSense_CSHL.c ****                 }
 925:Generated_Source\PSoC5/CapSense_CSHL.c ****                     
 926:Generated_Source\PSoC5/CapSense_CSHL.c ****                     /* Find the biggest centroid if two are the same size, last one wins
 927:Generated_Source\PSoC5/CapSense_CSHL.c ****                        We are in the end of current */
 928:Generated_Source\PSoC5/CapSense_CSHL.c ****                 if (curCntrdSize >= biggestCtrdSize) 
 929:Generated_Source\PSoC5/CapSense_CSHL.c ****                 {
 930:Generated_Source\PSoC5/CapSense_CSHL.c ****                     biggestCtrdSize = curCntrdSize;
 931:Generated_Source\PSoC5/CapSense_CSHL.c ****                     biggestCtrdStartPos = curCtrdStartPos;
 932:Generated_Source\PSoC5/CapSense_CSHL.c ****                 }
 933:Generated_Source\PSoC5/CapSense_CSHL.c ****             }
 934:Generated_Source\PSoC5/CapSense_CSHL.c ****             else
 935:Generated_Source\PSoC5/CapSense_CSHL.c ****             {
 936:Generated_Source\PSoC5/CapSense_CSHL.c ****                 /* Without diplexing */ 
 937:Generated_Source\PSoC5/CapSense_CSHL.c ****                 biggestCtrdSize = count;
 938:Generated_Source\PSoC5/CapSense_CSHL.c ****             }
 939:Generated_Source\PSoC5/CapSense_CSHL.c ****                         
 940:Generated_Source\PSoC5/CapSense_CSHL.c **** 
 941:Generated_Source\PSoC5/CapSense_CSHL.c ****             /* Check centroid size */
 942:Generated_Source\PSoC5/CapSense_CSHL.c ****             #if (CapSense_IS_NON_DIPLEX_SLIDER)
 943:Generated_Source\PSoC5/CapSense_CSHL.c ****                 if((biggestCtrdSize >= 2u) || ((biggestCtrdSize == 1u) && (diplex == 0u)))
 944:Generated_Source\PSoC5/CapSense_CSHL.c ****             #else                    
 945:Generated_Source\PSoC5/CapSense_CSHL.c ****                 if(biggestCtrdSize >= 2u)
 946:Generated_Source\PSoC5/CapSense_CSHL.c ****             #endif /* (CapSense_IS_NON_DIPLEX_SLIDER) */
 947:Generated_Source\PSoC5/CapSense_CSHL.c ****                 {
 948:Generated_Source\PSoC5/CapSense_CSHL.c ****                     for (i = biggestCtrdStartPos; i < (biggestCtrdStartPos + biggestCtrdSize); i++)
 949:Generated_Source\PSoC5/CapSense_CSHL.c ****                     {
 950:Generated_Source\PSoC5/CapSense_CSHL.c ****                         #if (CapSense_IS_DIPLEX_SLIDER && CapSense_IS_NON_DIPLEX_SLIDER)
 951:Generated_Source\PSoC5/CapSense_CSHL.c ****                             if (diplex == 0u)
 952:Generated_Source\PSoC5/CapSense_CSHL.c ****                             {
 953:Generated_Source\PSoC5/CapSense_CSHL.c ****                                 curPos = i;
 954:Generated_Source\PSoC5/CapSense_CSHL.c ****                             }
 955:Generated_Source\PSoC5/CapSense_CSHL.c ****                             else
 956:Generated_Source\PSoC5/CapSense_CSHL.c ****                             {
 957:Generated_Source\PSoC5/CapSense_CSHL.c ****                                 curPos = diplex[i];
 958:Generated_Source\PSoC5/CapSense_CSHL.c ****                             }                    
 959:Generated_Source\PSoC5/CapSense_CSHL.c ****                         #elif (CapSense_IS_DIPLEX_SLIDER)                    
 960:Generated_Source\PSoC5/CapSense_CSHL.c ****                             curPos = diplex[i];                    
ARM GAS  C:\Users\JEFFSN~1\AppData\Local\Temp\cckGk2Ra.s 			page 39


 961:Generated_Source\PSoC5/CapSense_CSHL.c ****                         #endif /* (CapSense_IS_DIPLEX_SLIDER && CapSense_IS_NON_DIPLEX_SLIDER) */
 962:Generated_Source\PSoC5/CapSense_CSHL.c ****                         /* Looking for the grater element within centroid */
 963:Generated_Source\PSoC5/CapSense_CSHL.c ****                         if(startOfSlider[curPos] > fingerThreshold)
 964:Generated_Source\PSoC5/CapSense_CSHL.c ****                         {
 965:Generated_Source\PSoC5/CapSense_CSHL.c ****                             if(startOfSlider[curPos] > temp)
 966:Generated_Source\PSoC5/CapSense_CSHL.c ****                             {
 967:Generated_Source\PSoC5/CapSense_CSHL.c ****                                 maximum = i;
 968:Generated_Source\PSoC5/CapSense_CSHL.c ****                                 temp = startOfSlider[curPos];
 969:Generated_Source\PSoC5/CapSense_CSHL.c ****                             }
 970:Generated_Source\PSoC5/CapSense_CSHL.c ****                         }
 971:Generated_Source\PSoC5/CapSense_CSHL.c ****                     }
 972:Generated_Source\PSoC5/CapSense_CSHL.c ****                 } 
 973:Generated_Source\PSoC5/CapSense_CSHL.c ****         #else
 974:Generated_Source\PSoC5/CapSense_CSHL.c ****             for (i = 0u; i < count; i++)
 975:Generated_Source\PSoC5/CapSense_CSHL.c ****             {                      
 976:Generated_Source\PSoC5/CapSense_CSHL.c ****                 /* Looking for the grater element within centroid */
 977:Generated_Source\PSoC5/CapSense_CSHL.c ****                 if(startOfSlider[i] > fingerThreshold)
 978:Generated_Source\PSoC5/CapSense_CSHL.c ****                 {
 979:Generated_Source\PSoC5/CapSense_CSHL.c ****                     if(startOfSlider[i] > temp)
 980:Generated_Source\PSoC5/CapSense_CSHL.c ****                     {
 981:Generated_Source\PSoC5/CapSense_CSHL.c ****                         maximum = i;
 982:Generated_Source\PSoC5/CapSense_CSHL.c ****                         temp = startOfSlider[i];
 983:Generated_Source\PSoC5/CapSense_CSHL.c ****                     }
 984:Generated_Source\PSoC5/CapSense_CSHL.c ****                 }
 985:Generated_Source\PSoC5/CapSense_CSHL.c ****             }    
 986:Generated_Source\PSoC5/CapSense_CSHL.c ****         #endif /* (CapSense_IS_DIPLEX_SLIDER) */
 987:Generated_Source\PSoC5/CapSense_CSHL.c ****         return (maximum);
 988:Generated_Source\PSoC5/CapSense_CSHL.c ****     }
 989:Generated_Source\PSoC5/CapSense_CSHL.c ****     
 990:Generated_Source\PSoC5/CapSense_CSHL.c ****     
 991:Generated_Source\PSoC5/CapSense_CSHL.c ****     /*******************************************************************************
 992:Generated_Source\PSoC5/CapSense_CSHL.c ****     * Function Name: CapSense_CalcCentroid
 993:Generated_Source\PSoC5/CapSense_CSHL.c ****     ********************************************************************************
 994:Generated_Source\PSoC5/CapSense_CSHL.c ****     *
 995:Generated_Source\PSoC5/CapSense_CSHL.c ****     * Summary:
 996:Generated_Source\PSoC5/CapSense_CSHL.c ****     *  Returns position value calculated accoring index of maximum element and API
 997:Generated_Source\PSoC5/CapSense_CSHL.c ****     *  resolution.
 998:Generated_Source\PSoC5/CapSense_CSHL.c ****     *
 999:Generated_Source\PSoC5/CapSense_CSHL.c ****     * Parameters:
1000:Generated_Source\PSoC5/CapSense_CSHL.c ****     *  type:  widget type.
1001:Generated_Source\PSoC5/CapSense_CSHL.c ****     *  diplex:  pointer to diplex table.
1002:Generated_Source\PSoC5/CapSense_CSHL.c ****     *  maximum:  Index of maximum element within centroid.
1003:Generated_Source\PSoC5/CapSense_CSHL.c ****     *  offset:   Start index of cetroid in CapSense_SensorSignal[] array.
1004:Generated_Source\PSoC5/CapSense_CSHL.c ****     *  count:    Number of elements within centroid.
1005:Generated_Source\PSoC5/CapSense_CSHL.c ****     *  resolution:  multiplicator calculated according to centroid type and
1006:Generated_Source\PSoC5/CapSense_CSHL.c ****     *  API resolution.
1007:Generated_Source\PSoC5/CapSense_CSHL.c ****     *  noiseThreshold:  Noise threshould.
1008:Generated_Source\PSoC5/CapSense_CSHL.c ****     * 
1009:Generated_Source\PSoC5/CapSense_CSHL.c ****     * Return:
1010:Generated_Source\PSoC5/CapSense_CSHL.c ****     *  Returns position value of the slider.
1011:Generated_Source\PSoC5/CapSense_CSHL.c ****     * 
1012:Generated_Source\PSoC5/CapSense_CSHL.c ****     *
1013:Generated_Source\PSoC5/CapSense_CSHL.c ****     * Reentrant:
1014:Generated_Source\PSoC5/CapSense_CSHL.c ****     *  No.
1015:Generated_Source\PSoC5/CapSense_CSHL.c ****     *
1016:Generated_Source\PSoC5/CapSense_CSHL.c ****     *******************************************************************************/
1017:Generated_Source\PSoC5/CapSense_CSHL.c ****     uint8 CapSense_CalcCentroid(uint8 maximum, uint8 offset, 
ARM GAS  C:\Users\JEFFSN~1\AppData\Local\Temp\cckGk2Ra.s 			page 40


1018:Generated_Source\PSoC5/CapSense_CSHL.c ****                                         uint8 count, uint16 resolution, uint16 noiseThreshold)
1019:Generated_Source\PSoC5/CapSense_CSHL.c **** 	                                    
1020:Generated_Source\PSoC5/CapSense_CSHL.c ****     {
1021:Generated_Source\PSoC5/CapSense_CSHL.c ****         #if ((CapSense_TOTAL_LINEAR_SLIDERS_COUNT > 0u) || (CapSense_TOTAL_TOUCH_PADS_COUNT > 0u))
1022:Generated_Source\PSoC5/CapSense_CSHL.c ****             uint8 posPrev = 0u;
1023:Generated_Source\PSoC5/CapSense_CSHL.c ****             uint8 posNext = 0u;
1024:Generated_Source\PSoC5/CapSense_CSHL.c ****         #endif /* ((CapSense_TOTAL_LINEAR_SLIDERS_COUNT>0u) || (CapSense_TOTAL_TOUCH_PADS_COUNT>0u)
1025:Generated_Source\PSoC5/CapSense_CSHL.c ****                
1026:Generated_Source\PSoC5/CapSense_CSHL.c ****         #if (CapSense_IS_DIPLEX_SLIDER)                
1027:Generated_Source\PSoC5/CapSense_CSHL.c ****             uint8 pos;
1028:Generated_Source\PSoC5/CapSense_CSHL.c ****         #endif /* (CapSense_IS_DIPLEX_SLIDER) */
1029:Generated_Source\PSoC5/CapSense_CSHL.c ****         
1030:Generated_Source\PSoC5/CapSense_CSHL.c ****         /* Helps while centroid calulation */
1031:Generated_Source\PSoC5/CapSense_CSHL.c ****         static uint16 CapSense_centroid[3u];
1032:Generated_Source\PSoC5/CapSense_CSHL.c **** 
1033:Generated_Source\PSoC5/CapSense_CSHL.c ****         uint8 position;
1034:Generated_Source\PSoC5/CapSense_CSHL.c ****         uint32 numerator;
1035:Generated_Source\PSoC5/CapSense_CSHL.c ****         int32 denominator;
1036:Generated_Source\PSoC5/CapSense_CSHL.c ****         uint16 *startOfSlider = &CapSense_sensorSignal[offset];
1037:Generated_Source\PSoC5/CapSense_CSHL.c ****                     
1038:Generated_Source\PSoC5/CapSense_CSHL.c ****         #if (CapSense_ADD_SLIDER_TYPE)
1039:Generated_Source\PSoC5/CapSense_CSHL.c ****             if(type == CapSense_TYPE_RADIAL_SLIDER)
1040:Generated_Source\PSoC5/CapSense_CSHL.c ****             {
1041:Generated_Source\PSoC5/CapSense_CSHL.c ****         #endif /* (CapSense_ADD_SLIDER_TYPE) */
1042:Generated_Source\PSoC5/CapSense_CSHL.c **** 
1043:Generated_Source\PSoC5/CapSense_CSHL.c ****             #if (CapSense_TOTAL_RADIAL_SLIDERS_COUNT > 0u)                
1044:Generated_Source\PSoC5/CapSense_CSHL.c ****                 /* Copy Signal for found centriod */
1045:Generated_Source\PSoC5/CapSense_CSHL.c ****                 CapSense_centroid[CapSense_POS] = startOfSlider[maximum];
1046:Generated_Source\PSoC5/CapSense_CSHL.c ****                  
1047:Generated_Source\PSoC5/CapSense_CSHL.c ****                 /* Check borders for ROTARY Slider */
1048:Generated_Source\PSoC5/CapSense_CSHL.c ****                 if (maximum == 0u)                   /* Start of centroid */
1049:Generated_Source\PSoC5/CapSense_CSHL.c ****                 { 
1050:Generated_Source\PSoC5/CapSense_CSHL.c ****                     CapSense_centroid[CapSense_POS_PREV] = startOfSlider[count - 1u];
1051:Generated_Source\PSoC5/CapSense_CSHL.c ****                     CapSense_centroid[CapSense_POS_NEXT] = startOfSlider[1u];
1052:Generated_Source\PSoC5/CapSense_CSHL.c ****                 }
1053:Generated_Source\PSoC5/CapSense_CSHL.c ****                 else if (maximum == (count - 1u))    /* End of centroid */
1054:Generated_Source\PSoC5/CapSense_CSHL.c ****                 {
1055:Generated_Source\PSoC5/CapSense_CSHL.c ****                     CapSense_centroid[CapSense_POS_PREV] = startOfSlider[maximum - 1u];
1056:Generated_Source\PSoC5/CapSense_CSHL.c ****                     CapSense_centroid[CapSense_POS_NEXT] = startOfSlider[0u];
1057:Generated_Source\PSoC5/CapSense_CSHL.c ****                 }
1058:Generated_Source\PSoC5/CapSense_CSHL.c ****                 else                                /* Not first Not last */
1059:Generated_Source\PSoC5/CapSense_CSHL.c ****                 {
1060:Generated_Source\PSoC5/CapSense_CSHL.c ****                     CapSense_centroid[CapSense_POS_PREV] = startOfSlider[maximum - 1u];
1061:Generated_Source\PSoC5/CapSense_CSHL.c ****                     CapSense_centroid[CapSense_POS_NEXT] = startOfSlider[maximum + 1u];
1062:Generated_Source\PSoC5/CapSense_CSHL.c ****                 }
1063:Generated_Source\PSoC5/CapSense_CSHL.c ****             #endif /* (CapSense_TOTAL_RADIAL_SLIDERS_COUNT > 0u) */
1064:Generated_Source\PSoC5/CapSense_CSHL.c **** 
1065:Generated_Source\PSoC5/CapSense_CSHL.c ****         #if (CapSense_ADD_SLIDER_TYPE)
1066:Generated_Source\PSoC5/CapSense_CSHL.c ****             }
1067:Generated_Source\PSoC5/CapSense_CSHL.c ****             else
1068:Generated_Source\PSoC5/CapSense_CSHL.c ****             {
1069:Generated_Source\PSoC5/CapSense_CSHL.c ****         #endif /* (CapSense_ADD_SLIDER_TYPE) */
1070:Generated_Source\PSoC5/CapSense_CSHL.c **** 
1071:Generated_Source\PSoC5/CapSense_CSHL.c ****             #if ((CapSense_TOTAL_LINEAR_SLIDERS_COUNT > 0u) || (CapSense_TOTAL_TOUCH_PADS_COUNT > 0
1072:Generated_Source\PSoC5/CapSense_CSHL.c ****                 #if (CapSense_IS_DIPLEX_SLIDER && CapSense_IS_NON_DIPLEX_SLIDER)                   
1073:Generated_Source\PSoC5/CapSense_CSHL.c ****                     /* Calculate next and previous near to maximum */
1074:Generated_Source\PSoC5/CapSense_CSHL.c ****                     if(diplex == 0u)
ARM GAS  C:\Users\JEFFSN~1\AppData\Local\Temp\cckGk2Ra.s 			page 41


1075:Generated_Source\PSoC5/CapSense_CSHL.c ****                     {
1076:Generated_Source\PSoC5/CapSense_CSHL.c ****                         pos     = maximum;
1077:Generated_Source\PSoC5/CapSense_CSHL.c ****                         posPrev = maximum - 1u;
1078:Generated_Source\PSoC5/CapSense_CSHL.c ****                         posNext = maximum + 1u; 
1079:Generated_Source\PSoC5/CapSense_CSHL.c ****                     }
1080:Generated_Source\PSoC5/CapSense_CSHL.c ****                     else
1081:Generated_Source\PSoC5/CapSense_CSHL.c ****                     {
1082:Generated_Source\PSoC5/CapSense_CSHL.c ****                         pos     = diplex[maximum];
1083:Generated_Source\PSoC5/CapSense_CSHL.c ****                         posPrev = diplex[maximum - 1u];
1084:Generated_Source\PSoC5/CapSense_CSHL.c ****                         posNext = diplex[maximum + 1u];
1085:Generated_Source\PSoC5/CapSense_CSHL.c ****                         count <<= 1u;
1086:Generated_Source\PSoC5/CapSense_CSHL.c ****                     }                    
1087:Generated_Source\PSoC5/CapSense_CSHL.c ****                 #elif (CapSense_IS_DIPLEX_SLIDER)
1088:Generated_Source\PSoC5/CapSense_CSHL.c ****                     /* Calculate next and previous near to maximum */
1089:Generated_Source\PSoC5/CapSense_CSHL.c ****                     pos     = diplex[maximum];
1090:Generated_Source\PSoC5/CapSense_CSHL.c ****                     posPrev = diplex[maximum - 1u];
1091:Generated_Source\PSoC5/CapSense_CSHL.c ****                     posNext = diplex[maximum + 1u];
1092:Generated_Source\PSoC5/CapSense_CSHL.c ****                     count <<= 1u;                    
1093:Generated_Source\PSoC5/CapSense_CSHL.c ****                 #else                    
1094:Generated_Source\PSoC5/CapSense_CSHL.c ****                     /* Calculate next and previous near to maximum */
1095:Generated_Source\PSoC5/CapSense_CSHL.c ****                     if (maximum >= 1u)
1096:Generated_Source\PSoC5/CapSense_CSHL.c ****                     {
1097:Generated_Source\PSoC5/CapSense_CSHL.c ****                         posPrev = maximum - 1u;
1098:Generated_Source\PSoC5/CapSense_CSHL.c ****                     }
1099:Generated_Source\PSoC5/CapSense_CSHL.c ****                     posNext = maximum + 1u; 
1100:Generated_Source\PSoC5/CapSense_CSHL.c ****                 #endif /* (CapSense_IS_DIPLEX_SLIDER && CapSense_IS_NON_DIPLEX_SLIDER) */
1101:Generated_Source\PSoC5/CapSense_CSHL.c ****                         
1102:Generated_Source\PSoC5/CapSense_CSHL.c ****                 /* Copy Signal for found centriod */
1103:Generated_Source\PSoC5/CapSense_CSHL.c ****                 #if (CapSense_IS_DIPLEX_SLIDER)
1104:Generated_Source\PSoC5/CapSense_CSHL.c ****                     CapSense_centroid[CapSense_POS] = startOfSlider[pos];
1105:Generated_Source\PSoC5/CapSense_CSHL.c ****                 #else
1106:Generated_Source\PSoC5/CapSense_CSHL.c ****                     CapSense_centroid[CapSense_POS] = startOfSlider[maximum];
1107:Generated_Source\PSoC5/CapSense_CSHL.c ****                 #endif /* (CapSense_IS_DIPLEX_SLIDER) */
1108:Generated_Source\PSoC5/CapSense_CSHL.c ****                     
1109:Generated_Source\PSoC5/CapSense_CSHL.c ****                 /* Check borders for LINEAR Slider */
1110:Generated_Source\PSoC5/CapSense_CSHL.c ****                 if (maximum == 0u)                   /* Start of centroid */
1111:Generated_Source\PSoC5/CapSense_CSHL.c ****                 { 
1112:Generated_Source\PSoC5/CapSense_CSHL.c ****                     CapSense_centroid[CapSense_POS_PREV] = 0u;
1113:Generated_Source\PSoC5/CapSense_CSHL.c ****                     CapSense_centroid[CapSense_POS_NEXT] = startOfSlider[posNext];
1114:Generated_Source\PSoC5/CapSense_CSHL.c ****                 }
1115:Generated_Source\PSoC5/CapSense_CSHL.c ****                 else if (maximum == ((count) - 1u)) /* End of centroid */
1116:Generated_Source\PSoC5/CapSense_CSHL.c ****                 {
1117:Generated_Source\PSoC5/CapSense_CSHL.c ****                     CapSense_centroid[CapSense_POS_PREV] = startOfSlider[posPrev];
1118:Generated_Source\PSoC5/CapSense_CSHL.c ****                     CapSense_centroid[CapSense_POS_NEXT] = 0u;
1119:Generated_Source\PSoC5/CapSense_CSHL.c ****                 }
1120:Generated_Source\PSoC5/CapSense_CSHL.c ****                 else                                /* Not first Not last */
1121:Generated_Source\PSoC5/CapSense_CSHL.c ****                 {
1122:Generated_Source\PSoC5/CapSense_CSHL.c ****                     CapSense_centroid[CapSense_POS_PREV] = startOfSlider[posPrev];
1123:Generated_Source\PSoC5/CapSense_CSHL.c ****                     CapSense_centroid[CapSense_POS_NEXT] = startOfSlider[posNext];
1124:Generated_Source\PSoC5/CapSense_CSHL.c ****                 }
1125:Generated_Source\PSoC5/CapSense_CSHL.c ****             #endif /* ((CapSense_TOTAL_LINEAR_SLIDERS_COUNT>0u)||(CapSense_TOTAL_TOUCH_PADS_COUNT>0
1126:Generated_Source\PSoC5/CapSense_CSHL.c **** 
1127:Generated_Source\PSoC5/CapSense_CSHL.c ****         #if (CapSense_ADD_SLIDER_TYPE)
1128:Generated_Source\PSoC5/CapSense_CSHL.c ****             }
1129:Generated_Source\PSoC5/CapSense_CSHL.c ****         #endif /* (CapSense_ADD_SLIDER_TYPE) */
1130:Generated_Source\PSoC5/CapSense_CSHL.c ****     
1131:Generated_Source\PSoC5/CapSense_CSHL.c ****         /* Subtract noiseThreshold */
ARM GAS  C:\Users\JEFFSN~1\AppData\Local\Temp\cckGk2Ra.s 			page 42


1132:Generated_Source\PSoC5/CapSense_CSHL.c ****         if(CapSense_centroid[CapSense_POS_PREV] > noiseThreshold)
1133:Generated_Source\PSoC5/CapSense_CSHL.c ****         {
1134:Generated_Source\PSoC5/CapSense_CSHL.c ****             CapSense_centroid[CapSense_POS_PREV] -= noiseThreshold;
1135:Generated_Source\PSoC5/CapSense_CSHL.c ****         }
1136:Generated_Source\PSoC5/CapSense_CSHL.c ****         else
1137:Generated_Source\PSoC5/CapSense_CSHL.c ****         {
1138:Generated_Source\PSoC5/CapSense_CSHL.c ****             CapSense_centroid[CapSense_POS_PREV] = 0u;
1139:Generated_Source\PSoC5/CapSense_CSHL.c ****         }
1140:Generated_Source\PSoC5/CapSense_CSHL.c ****         
1141:Generated_Source\PSoC5/CapSense_CSHL.c ****         /* Maximum always grater than fingerThreshold, so grate than noiseThreshold */
1142:Generated_Source\PSoC5/CapSense_CSHL.c ****         CapSense_centroid[CapSense_POS] -= noiseThreshold;
1143:Generated_Source\PSoC5/CapSense_CSHL.c ****         
1144:Generated_Source\PSoC5/CapSense_CSHL.c ****         /* Subtract noiseThreshold */
1145:Generated_Source\PSoC5/CapSense_CSHL.c ****         if(CapSense_centroid[CapSense_POS_NEXT] > noiseThreshold)
1146:Generated_Source\PSoC5/CapSense_CSHL.c ****         {
1147:Generated_Source\PSoC5/CapSense_CSHL.c ****             CapSense_centroid[CapSense_POS_NEXT] -= noiseThreshold;
1148:Generated_Source\PSoC5/CapSense_CSHL.c ****         }
1149:Generated_Source\PSoC5/CapSense_CSHL.c ****         else
1150:Generated_Source\PSoC5/CapSense_CSHL.c ****         {
1151:Generated_Source\PSoC5/CapSense_CSHL.c ****             CapSense_centroid[CapSense_POS_NEXT] = 0u;
1152:Generated_Source\PSoC5/CapSense_CSHL.c ****         }
1153:Generated_Source\PSoC5/CapSense_CSHL.c ****         
1154:Generated_Source\PSoC5/CapSense_CSHL.c ****         
1155:Generated_Source\PSoC5/CapSense_CSHL.c ****         /* Si+1 - Si-1 */
1156:Generated_Source\PSoC5/CapSense_CSHL.c ****         numerator = (uint32) CapSense_centroid[CapSense_POS_NEXT] -
1157:Generated_Source\PSoC5/CapSense_CSHL.c ****                     (uint32) CapSense_centroid[CapSense_POS_PREV];
1158:Generated_Source\PSoC5/CapSense_CSHL.c **** 
1159:Generated_Source\PSoC5/CapSense_CSHL.c ****         /* Si+1 + Si + Si-1 */
1160:Generated_Source\PSoC5/CapSense_CSHL.c ****         denominator = (int32) CapSense_centroid[CapSense_POS_PREV] + 
1161:Generated_Source\PSoC5/CapSense_CSHL.c ****                       (int32) CapSense_centroid[CapSense_POS] + 
1162:Generated_Source\PSoC5/CapSense_CSHL.c ****                       (int32) CapSense_centroid[CapSense_POS_NEXT];
1163:Generated_Source\PSoC5/CapSense_CSHL.c ****         
1164:Generated_Source\PSoC5/CapSense_CSHL.c ****         /* (numerator/denominator) + maximum */
1165:Generated_Source\PSoC5/CapSense_CSHL.c ****         denominator = (((int32)(uint32)((uint32)numerator << 8u)/denominator) + (int32)(uint32)((ui
1166:Generated_Source\PSoC5/CapSense_CSHL.c **** 
1167:Generated_Source\PSoC5/CapSense_CSHL.c ****         #if(CapSense_TOTAL_RADIAL_SLIDERS_COUNT > 0u)
1168:Generated_Source\PSoC5/CapSense_CSHL.c ****             /* Only required for RADIAL Slider */
1169:Generated_Source\PSoC5/CapSense_CSHL.c ****             if(denominator < 0)
1170:Generated_Source\PSoC5/CapSense_CSHL.c ****             {
1171:Generated_Source\PSoC5/CapSense_CSHL.c ****                 denominator += (int32)((uint16)((uint16) count << 8u));
1172:Generated_Source\PSoC5/CapSense_CSHL.c ****             }
1173:Generated_Source\PSoC5/CapSense_CSHL.c ****         #endif /* (CapSense_TOTAL_RADIAL_SLIDERS_COUNT > 0u) */
1174:Generated_Source\PSoC5/CapSense_CSHL.c **** 
1175:Generated_Source\PSoC5/CapSense_CSHL.c ****         denominator *= (int16)resolution;
1176:Generated_Source\PSoC5/CapSense_CSHL.c **** 
1177:Generated_Source\PSoC5/CapSense_CSHL.c ****         /* Round the relust and put it to uint8 */
1178:Generated_Source\PSoC5/CapSense_CSHL.c ****         position = ((uint8) HI16((uint32)denominator + CapSense_CENTROID_ROUND_VALUE));
1179:Generated_Source\PSoC5/CapSense_CSHL.c **** 
1180:Generated_Source\PSoC5/CapSense_CSHL.c ****         return (position);
1181:Generated_Source\PSoC5/CapSense_CSHL.c ****     }    
1182:Generated_Source\PSoC5/CapSense_CSHL.c **** #endif /* (CapSense_TOTAL_CENTROIDS_COUNT) */
1183:Generated_Source\PSoC5/CapSense_CSHL.c **** 
1184:Generated_Source\PSoC5/CapSense_CSHL.c **** 
1185:Generated_Source\PSoC5/CapSense_CSHL.c **** #if(CapSense_TOTAL_LINEAR_SLIDERS_COUNT > 0u)
1186:Generated_Source\PSoC5/CapSense_CSHL.c ****     /*******************************************************************************
1187:Generated_Source\PSoC5/CapSense_CSHL.c ****     * Function Name: CapSense_GetCentroidPos
1188:Generated_Source\PSoC5/CapSense_CSHL.c ****     ********************************************************************************
ARM GAS  C:\Users\JEFFSN~1\AppData\Local\Temp\cckGk2Ra.s 			page 43


1189:Generated_Source\PSoC5/CapSense_CSHL.c ****     *
1190:Generated_Source\PSoC5/CapSense_CSHL.c ****     * Summary:
1191:Generated_Source\PSoC5/CapSense_CSHL.c ****     *  Checks the CapSense_Signal[ ] array for a centroid within
1192:Generated_Source\PSoC5/CapSense_CSHL.c ****     *  slider specified range. The centroid position is calculated to the resolution
1193:Generated_Source\PSoC5/CapSense_CSHL.c ****     *  specified in the CapSense customizer. The position filters are applied to the
1194:Generated_Source\PSoC5/CapSense_CSHL.c ****     *  result if enabled.
1195:Generated_Source\PSoC5/CapSense_CSHL.c ****     *
1196:Generated_Source\PSoC5/CapSense_CSHL.c ****     * Parameters:
1197:Generated_Source\PSoC5/CapSense_CSHL.c ****     *  widget:  Widget number.
1198:Generated_Source\PSoC5/CapSense_CSHL.c ****     *  For every linear slider widget there are defines in this format:
1199:Generated_Source\PSoC5/CapSense_CSHL.c ****     *  #define CapSense_LS__"widget_name"            5
1200:Generated_Source\PSoC5/CapSense_CSHL.c ****     * 
1201:Generated_Source\PSoC5/CapSense_CSHL.c ****     * Return:
1202:Generated_Source\PSoC5/CapSense_CSHL.c ****     *  Returns position value of the linear slider.
1203:Generated_Source\PSoC5/CapSense_CSHL.c ****     *
1204:Generated_Source\PSoC5/CapSense_CSHL.c ****     * Side Effects:
1205:Generated_Source\PSoC5/CapSense_CSHL.c ****     *  If any sensor within the slider widget is active, the function returns values
1206:Generated_Source\PSoC5/CapSense_CSHL.c ****     *  from zero to the API resolution value set in the CapSense customizer. If no
1207:Generated_Source\PSoC5/CapSense_CSHL.c ****     *  sensors are active, the function returns 0xFFFF. If an error occurs during
1208:Generated_Source\PSoC5/CapSense_CSHL.c ****     *  execution of the centroid/diplexing algorithm, the function returns 0xFFFF.
1209:Generated_Source\PSoC5/CapSense_CSHL.c ****     *  There are no checks of widget type argument provided to this function.
1210:Generated_Source\PSoC5/CapSense_CSHL.c ****     *  The unproper widget type provided will cause unexpected position calculations.
1211:Generated_Source\PSoC5/CapSense_CSHL.c ****     *
1212:Generated_Source\PSoC5/CapSense_CSHL.c ****     * Note:
1213:Generated_Source\PSoC5/CapSense_CSHL.c ****     *  If noise counts on the slider segments are greater than the noise
1214:Generated_Source\PSoC5/CapSense_CSHL.c ****     *  threshold, this subroutine may generate a false centroid result. The noise
1215:Generated_Source\PSoC5/CapSense_CSHL.c ****     *  threshold should be set carefully (high enough above the noise level) so
1216:Generated_Source\PSoC5/CapSense_CSHL.c ****     *  that noise will not generate a false centroid.
1217:Generated_Source\PSoC5/CapSense_CSHL.c ****     *
1218:Generated_Source\PSoC5/CapSense_CSHL.c ****     * Reentrant:
1219:Generated_Source\PSoC5/CapSense_CSHL.c ****     *  No.
1220:Generated_Source\PSoC5/CapSense_CSHL.c ****     *
1221:Generated_Source\PSoC5/CapSense_CSHL.c ****     *******************************************************************************/
1222:Generated_Source\PSoC5/CapSense_CSHL.c ****     uint16 CapSense_GetCentroidPos(uint8 widget) 
1223:Generated_Source\PSoC5/CapSense_CSHL.c ****     {
1224:Generated_Source\PSoC5/CapSense_CSHL.c ****         #if (CapSense_IS_DIPLEX_SLIDER)
1225:Generated_Source\PSoC5/CapSense_CSHL.c ****             const uint8 CYCODE *diplex;
1226:Generated_Source\PSoC5/CapSense_CSHL.c ****         #endif /* (CapSense_IS_DIPLEX_SLIDER) */
1227:Generated_Source\PSoC5/CapSense_CSHL.c ****                 
1228:Generated_Source\PSoC5/CapSense_CSHL.c ****         #if (0u != CapSense_LINEAR_SLIDERS_POS_FILTERS_MASK)
1229:Generated_Source\PSoC5/CapSense_CSHL.c ****             uint8 posIndex;
1230:Generated_Source\PSoC5/CapSense_CSHL.c ****             uint8 firstTimeIndex = CapSense_posFiltersData[widget];
1231:Generated_Source\PSoC5/CapSense_CSHL.c ****             uint8 posFiltersMask = CapSense_posFiltersMask[widget];  
1232:Generated_Source\PSoC5/CapSense_CSHL.c ****         #endif /* (0u != CapSense_LINEAR_SLIDERS_POS_FILTERS_MASK) */
1233:Generated_Source\PSoC5/CapSense_CSHL.c **** 
1234:Generated_Source\PSoC5/CapSense_CSHL.c ****         #if ((0u != (CapSense_MEDIAN_FILTER & CapSense_LINEAR_SLIDERS_POS_FILTERS_MASK)) || \
1235:Generated_Source\PSoC5/CapSense_CSHL.c ****              (0u != (CapSense_AVERAGING_FILTER & CapSense_LINEAR_SLIDERS_POS_FILTERS_MASK)))
1236:Generated_Source\PSoC5/CapSense_CSHL.c ****             uint8 tempPos;
1237:Generated_Source\PSoC5/CapSense_CSHL.c ****         #endif /* ((0u != (CapSense_MEDIAN_FILTER & CapSense_LINEAR_SLIDERS_POS_FILTERS_MASK)) || \
1238:Generated_Source\PSoC5/CapSense_CSHL.c ****                *   (0u != (CapSense_AVERAGING_FILTER & CapSense_LINEAR_SLIDERS_POS_FILTERS_MASK)))
1239:Generated_Source\PSoC5/CapSense_CSHL.c ****                */
1240:Generated_Source\PSoC5/CapSense_CSHL.c **** 
1241:Generated_Source\PSoC5/CapSense_CSHL.c ****         uint8 maximum;
1242:Generated_Source\PSoC5/CapSense_CSHL.c ****         uint16 position;
1243:Generated_Source\PSoC5/CapSense_CSHL.c ****         uint8 offset = CapSense_rawDataIndex[widget];
1244:Generated_Source\PSoC5/CapSense_CSHL.c ****         uint8 count = CapSense_numberOfSensors[widget];
1245:Generated_Source\PSoC5/CapSense_CSHL.c ****                         
ARM GAS  C:\Users\JEFFSN~1\AppData\Local\Temp\cckGk2Ra.s 			page 44


1246:Generated_Source\PSoC5/CapSense_CSHL.c ****         #if (CapSense_IS_DIPLEX_SLIDER)
1247:Generated_Source\PSoC5/CapSense_CSHL.c ****             if(widget < CapSense_TOTAL_DIPLEXED_SLIDERS_COUNT)
1248:Generated_Source\PSoC5/CapSense_CSHL.c ****             {
1249:Generated_Source\PSoC5/CapSense_CSHL.c ****                 maximum = CapSense_diplexTable[widget];
1250:Generated_Source\PSoC5/CapSense_CSHL.c ****                 diplex = &CapSense_diplexTable[maximum];
1251:Generated_Source\PSoC5/CapSense_CSHL.c ****             }
1252:Generated_Source\PSoC5/CapSense_CSHL.c ****             else
1253:Generated_Source\PSoC5/CapSense_CSHL.c ****             {
1254:Generated_Source\PSoC5/CapSense_CSHL.c ****                 diplex = 0u;
1255:Generated_Source\PSoC5/CapSense_CSHL.c ****             }
1256:Generated_Source\PSoC5/CapSense_CSHL.c ****         #endif /* (CapSense_IS_DIPLEX_SLIDER) */
1257:Generated_Source\PSoC5/CapSense_CSHL.c **** 
1258:Generated_Source\PSoC5/CapSense_CSHL.c ****         /* Find Maximum within centroid */      
1259:Generated_Source\PSoC5/CapSense_CSHL.c ****         #if (CapSense_IS_DIPLEX_SLIDER)        
1260:Generated_Source\PSoC5/CapSense_CSHL.c ****             maximum = CapSense_FindMaximum(offset, count, CapSense_fingerThreshold[widget], diplex)
1261:Generated_Source\PSoC5/CapSense_CSHL.c ****         #else
1262:Generated_Source\PSoC5/CapSense_CSHL.c ****             maximum = CapSense_FindMaximum(offset, count, CapSense_fingerThreshold[widget]);
1263:Generated_Source\PSoC5/CapSense_CSHL.c ****         #endif /* (CapSense_IS_DIPLEX_SLIDER) */
1264:Generated_Source\PSoC5/CapSense_CSHL.c **** 
1265:Generated_Source\PSoC5/CapSense_CSHL.c ****         if (maximum != 0xFFu)
1266:Generated_Source\PSoC5/CapSense_CSHL.c ****         {
1267:Generated_Source\PSoC5/CapSense_CSHL.c ****             /* Calculate centroid */
1268:Generated_Source\PSoC5/CapSense_CSHL.c ****             position = (uint16) CapSense_CalcCentroid(maximum, 
1269:Generated_Source\PSoC5/CapSense_CSHL.c ****                          offset, count, CapSense_centroidMult[widget], CapSense_noiseThreshold[widg
1270:Generated_Source\PSoC5/CapSense_CSHL.c **** 
1271:Generated_Source\PSoC5/CapSense_CSHL.c ****             #if (0u != CapSense_LINEAR_SLIDERS_POS_FILTERS_MASK)
1272:Generated_Source\PSoC5/CapSense_CSHL.c ****                 /* Check if this linear slider has enabled filters */
1273:Generated_Source\PSoC5/CapSense_CSHL.c ****                 if (0u != (posFiltersMask & CapSense_ANY_POS_FILTER))
1274:Generated_Source\PSoC5/CapSense_CSHL.c ****                 {
1275:Generated_Source\PSoC5/CapSense_CSHL.c ****                     /* Caluclate position to store filters data */
1276:Generated_Source\PSoC5/CapSense_CSHL.c ****                     posIndex  = firstTimeIndex + 1u;
1277:Generated_Source\PSoC5/CapSense_CSHL.c ****                     
1278:Generated_Source\PSoC5/CapSense_CSHL.c ****                     if (0u == CapSense_posFiltersData[firstTimeIndex])
1279:Generated_Source\PSoC5/CapSense_CSHL.c ****                     {
1280:Generated_Source\PSoC5/CapSense_CSHL.c ****                         /* Init filters */
1281:Generated_Source\PSoC5/CapSense_CSHL.c ****                         CapSense_posFiltersData[posIndex] = (uint8) position;
1282:Generated_Source\PSoC5/CapSense_CSHL.c ****                         #if ((0u != (CapSense_MEDIAN_FILTER & \
1283:Generated_Source\PSoC5/CapSense_CSHL.c ****                                      CapSense_LINEAR_SLIDERS_POS_FILTERS_MASK)) || \
1284:Generated_Source\PSoC5/CapSense_CSHL.c ****                              (0u != (CapSense_AVERAGING_FILTER & \
1285:Generated_Source\PSoC5/CapSense_CSHL.c ****                                      CapSense_LINEAR_SLIDERS_POS_FILTERS_MASK)))
1286:Generated_Source\PSoC5/CapSense_CSHL.c **** 
1287:Generated_Source\PSoC5/CapSense_CSHL.c ****                             if ( (0u != (posFiltersMask & CapSense_MEDIAN_FILTER)) || 
1288:Generated_Source\PSoC5/CapSense_CSHL.c ****                                  (0u != (posFiltersMask & CapSense_AVERAGING_FILTER)) )
1289:Generated_Source\PSoC5/CapSense_CSHL.c ****                             {
1290:Generated_Source\PSoC5/CapSense_CSHL.c ****                                 CapSense_posFiltersData[posIndex + 1u] = (uint8) position;
1291:Generated_Source\PSoC5/CapSense_CSHL.c ****                             }
1292:Generated_Source\PSoC5/CapSense_CSHL.c ****                         #endif /* ((0u != (CapSense_MEDIAN_FILTER & \
1293:Generated_Source\PSoC5/CapSense_CSHL.c ****                                *           CapSense_LINEAR_SLIDERS_POS_FILTERS_MASK)) || \
1294:Generated_Source\PSoC5/CapSense_CSHL.c ****                                *   (0u != (CapSense_AVERAGING_FILTER & \
1295:Generated_Source\PSoC5/CapSense_CSHL.c ****                                *           CapSense_LINEAR_SLIDERS_POS_FILTERS_MASK)))
1296:Generated_Source\PSoC5/CapSense_CSHL.c ****                                */
1297:Generated_Source\PSoC5/CapSense_CSHL.c ****                         
1298:Generated_Source\PSoC5/CapSense_CSHL.c ****                         CapSense_posFiltersData[firstTimeIndex] = 1u;
1299:Generated_Source\PSoC5/CapSense_CSHL.c ****                     }
1300:Generated_Source\PSoC5/CapSense_CSHL.c ****                     else
1301:Generated_Source\PSoC5/CapSense_CSHL.c ****                     {
1302:Generated_Source\PSoC5/CapSense_CSHL.c ****                         /* Do filtering */
ARM GAS  C:\Users\JEFFSN~1\AppData\Local\Temp\cckGk2Ra.s 			page 45


1303:Generated_Source\PSoC5/CapSense_CSHL.c ****                         #if (0u != (CapSense_MEDIAN_FILTER & CapSense_LINEAR_SLIDERS_POS_FILTERS_MA
1304:Generated_Source\PSoC5/CapSense_CSHL.c ****                             if (0u != (posFiltersMask & CapSense_MEDIAN_FILTER))
1305:Generated_Source\PSoC5/CapSense_CSHL.c ****                             {
1306:Generated_Source\PSoC5/CapSense_CSHL.c ****                                 tempPos = (uint8) position;
1307:Generated_Source\PSoC5/CapSense_CSHL.c ****                                 position = CapSense_MedianFilter(position,
1308:Generated_Source\PSoC5/CapSense_CSHL.c ****                                                                 (uint16)CapSense_posFiltersData[pos
1309:Generated_Source\PSoC5/CapSense_CSHL.c ****                                                                 (uint16)CapSense_posFiltersData[pos
1310:Generated_Source\PSoC5/CapSense_CSHL.c ****                                 CapSense_posFiltersData[posIndex + 1u] =
1311:Generated_Source\PSoC5/CapSense_CSHL.c ****                                                                              CapSense_posFiltersDat
1312:Generated_Source\PSoC5/CapSense_CSHL.c ****                                 CapSense_posFiltersData[posIndex] = tempPos;
1313:Generated_Source\PSoC5/CapSense_CSHL.c ****                             }
1314:Generated_Source\PSoC5/CapSense_CSHL.c ****                         #endif /*(0u != (CapSense_MEDIAN_FILTER &
1315:Generated_Source\PSoC5/CapSense_CSHL.c ****                                *         CapSense_LINEAR_SLIDERS_POS_FILTERS_MASK))
1316:Generated_Source\PSoC5/CapSense_CSHL.c ****                                */
1317:Generated_Source\PSoC5/CapSense_CSHL.c **** 
1318:Generated_Source\PSoC5/CapSense_CSHL.c ****                         #if(0u!=(CapSense_AVERAGING_FILTER & CapSense_LINEAR_SLIDERS_POS_FILTERS_MA
1319:Generated_Source\PSoC5/CapSense_CSHL.c ****                             if (0u != (posFiltersMask & CapSense_AVERAGING_FILTER)) 
1320:Generated_Source\PSoC5/CapSense_CSHL.c ****                             {
1321:Generated_Source\PSoC5/CapSense_CSHL.c ****                                 tempPos = (uint8) position;
1322:Generated_Source\PSoC5/CapSense_CSHL.c ****                                 position = CapSense_AveragingFilter(position,
1323:Generated_Source\PSoC5/CapSense_CSHL.c ****                                                                 (uint16)CapSense_posFiltersData[pos
1324:Generated_Source\PSoC5/CapSense_CSHL.c ****                                                                 (uint16)CapSense_posFiltersData[pos
1325:Generated_Source\PSoC5/CapSense_CSHL.c ****                                 CapSense_posFiltersData[posIndex+1u]=CapSense_posFiltersData[posInd
1326:Generated_Source\PSoC5/CapSense_CSHL.c ****                                 CapSense_posFiltersData[posIndex] = tempPos;
1327:Generated_Source\PSoC5/CapSense_CSHL.c ****                             }
1328:Generated_Source\PSoC5/CapSense_CSHL.c ****                         #endif /* (0u != (CapSense_AVERAGING_FILTER & \
1329:Generated_Source\PSoC5/CapSense_CSHL.c ****                                *           CapSense_LINEAR_SLIDERS_POS_FILTERS_MASK))
1330:Generated_Source\PSoC5/CapSense_CSHL.c ****                                */
1331:Generated_Source\PSoC5/CapSense_CSHL.c **** 
1332:Generated_Source\PSoC5/CapSense_CSHL.c ****                         #if (0u != (CapSense_IIR2_FILTER & CapSense_LINEAR_SLIDERS_POS_FILTERS_MASK
1333:Generated_Source\PSoC5/CapSense_CSHL.c ****                             if (0u != (posFiltersMask & CapSense_IIR2_FILTER)) 
1334:Generated_Source\PSoC5/CapSense_CSHL.c ****                             {
1335:Generated_Source\PSoC5/CapSense_CSHL.c ****                                 position = CapSense_IIR2Filter(position,
1336:Generated_Source\PSoC5/CapSense_CSHL.c ****                                                                     (uint16)CapSense_posFiltersData
1337:Generated_Source\PSoC5/CapSense_CSHL.c ****                                 CapSense_posFiltersData[posIndex] = (uint8) position;
1338:Generated_Source\PSoC5/CapSense_CSHL.c ****                             }
1339:Generated_Source\PSoC5/CapSense_CSHL.c ****                         #endif /* (0u != (CapSense_IIR2_FILTER & \
1340:Generated_Source\PSoC5/CapSense_CSHL.c ****                                *          CapSense_LINEAR_SLIDERS_POS_FILTERS_MASK))
1341:Generated_Source\PSoC5/CapSense_CSHL.c ****                                */
1342:Generated_Source\PSoC5/CapSense_CSHL.c **** 
1343:Generated_Source\PSoC5/CapSense_CSHL.c ****                         #if (0u != (CapSense_IIR4_FILTER & CapSense_LINEAR_SLIDERS_POS_FILTERS_MASK
1344:Generated_Source\PSoC5/CapSense_CSHL.c ****                             if (0u != (posFiltersMask & CapSense_IIR4_FILTER))
1345:Generated_Source\PSoC5/CapSense_CSHL.c ****                             {
1346:Generated_Source\PSoC5/CapSense_CSHL.c ****                                 position = CapSense_IIR4Filter(position,
1347:Generated_Source\PSoC5/CapSense_CSHL.c ****                                                                     (uint16)CapSense_posFiltersData
1348:Generated_Source\PSoC5/CapSense_CSHL.c ****                                 CapSense_posFiltersData[posIndex] = (uint8) position;
1349:Generated_Source\PSoC5/CapSense_CSHL.c ****                             }                                
1350:Generated_Source\PSoC5/CapSense_CSHL.c ****                         #endif /* (0u != (CapSense_IIR4_FILTER & \
1351:Generated_Source\PSoC5/CapSense_CSHL.c ****                                *          CapSense_LINEAR_SLIDERS_POS_FILTERS_MASK))
1352:Generated_Source\PSoC5/CapSense_CSHL.c ****                                */
1353:Generated_Source\PSoC5/CapSense_CSHL.c **** 
1354:Generated_Source\PSoC5/CapSense_CSHL.c ****                         #if (0u != (CapSense_JITTER_FILTER & CapSense_LINEAR_SLIDERS_POS_FILTERS_MA
1355:Generated_Source\PSoC5/CapSense_CSHL.c ****                             if (0u != (posFiltersMask & CapSense_JITTER_FILTER))
1356:Generated_Source\PSoC5/CapSense_CSHL.c ****                             {
1357:Generated_Source\PSoC5/CapSense_CSHL.c ****                                 position = CapSense_JitterFilter(position,
1358:Generated_Source\PSoC5/CapSense_CSHL.c ****                                                                     (uint16)CapSense_posFiltersData
1359:Generated_Source\PSoC5/CapSense_CSHL.c ****                                 CapSense_posFiltersData[posIndex] = (uint8) position;
ARM GAS  C:\Users\JEFFSN~1\AppData\Local\Temp\cckGk2Ra.s 			page 46


1360:Generated_Source\PSoC5/CapSense_CSHL.c ****                             }
1361:Generated_Source\PSoC5/CapSense_CSHL.c ****                         #endif /* (0u != (CapSense_JITTER_FILTER & \
1362:Generated_Source\PSoC5/CapSense_CSHL.c ****                                *           CapSense_LINEAR_SLIDERS_POS_FILTERS_MASK))
1363:Generated_Source\PSoC5/CapSense_CSHL.c ****                                */
1364:Generated_Source\PSoC5/CapSense_CSHL.c ****                     }
1365:Generated_Source\PSoC5/CapSense_CSHL.c ****                 }
1366:Generated_Source\PSoC5/CapSense_CSHL.c ****             #endif /* (0u != CapSense_LINEAR_SLIDERS_POS_FILTERS_MASK) */
1367:Generated_Source\PSoC5/CapSense_CSHL.c **** 
1368:Generated_Source\PSoC5/CapSense_CSHL.c ****         }
1369:Generated_Source\PSoC5/CapSense_CSHL.c ****         else
1370:Generated_Source\PSoC5/CapSense_CSHL.c ****         {
1371:Generated_Source\PSoC5/CapSense_CSHL.c ****             /* The maximum wasn't found */
1372:Generated_Source\PSoC5/CapSense_CSHL.c ****             position = 0xFFFFu;
1373:Generated_Source\PSoC5/CapSense_CSHL.c **** 
1374:Generated_Source\PSoC5/CapSense_CSHL.c ****             #if(0u != CapSense_LINEAR_SLIDERS_POS_FILTERS_MASK)
1375:Generated_Source\PSoC5/CapSense_CSHL.c ****                 /* Reset the filters */
1376:Generated_Source\PSoC5/CapSense_CSHL.c ****                 if(0u != (posFiltersMask & CapSense_ANY_POS_FILTER))
1377:Generated_Source\PSoC5/CapSense_CSHL.c ****                 {
1378:Generated_Source\PSoC5/CapSense_CSHL.c ****                     CapSense_posFiltersData[firstTimeIndex] = 0u;
1379:Generated_Source\PSoC5/CapSense_CSHL.c ****                 }
1380:Generated_Source\PSoC5/CapSense_CSHL.c ****             #endif /* (0u != CapSense_LINEAR_SLIDERS_POS_FILTERS_MASK) */
1381:Generated_Source\PSoC5/CapSense_CSHL.c ****         }
1382:Generated_Source\PSoC5/CapSense_CSHL.c **** 
1383:Generated_Source\PSoC5/CapSense_CSHL.c ****         
1384:Generated_Source\PSoC5/CapSense_CSHL.c ****         return (position);
1385:Generated_Source\PSoC5/CapSense_CSHL.c ****     }
1386:Generated_Source\PSoC5/CapSense_CSHL.c **** #endif /* (CapSense_TOTAL_LINEAR_SLIDERS_COUNT > 0u) */
1387:Generated_Source\PSoC5/CapSense_CSHL.c **** 
1388:Generated_Source\PSoC5/CapSense_CSHL.c **** 
1389:Generated_Source\PSoC5/CapSense_CSHL.c **** #if(CapSense_TOTAL_RADIAL_SLIDERS_COUNT > 0u)
1390:Generated_Source\PSoC5/CapSense_CSHL.c ****     /*******************************************************************************
1391:Generated_Source\PSoC5/CapSense_CSHL.c ****     * Function Name: CapSense_GetRadialCentroidPos
1392:Generated_Source\PSoC5/CapSense_CSHL.c ****     ********************************************************************************
1393:Generated_Source\PSoC5/CapSense_CSHL.c ****     *
1394:Generated_Source\PSoC5/CapSense_CSHL.c ****     * Summary:
1395:Generated_Source\PSoC5/CapSense_CSHL.c ****     *  Checks the CapSense_Signal[ ] array for a centroid within
1396:Generated_Source\PSoC5/CapSense_CSHL.c ****     *  slider specified range. The centroid position is calculated to the resolution
1397:Generated_Source\PSoC5/CapSense_CSHL.c ****     *  specified in the CapSense customizer. The position filters are applied to the
1398:Generated_Source\PSoC5/CapSense_CSHL.c ****     *  result if enabled.
1399:Generated_Source\PSoC5/CapSense_CSHL.c ****     *
1400:Generated_Source\PSoC5/CapSense_CSHL.c ****     * Parameters:
1401:Generated_Source\PSoC5/CapSense_CSHL.c ****     *  widget:  Widget number.
1402:Generated_Source\PSoC5/CapSense_CSHL.c ****     *  For every radial slider widget there are defines in this format:
1403:Generated_Source\PSoC5/CapSense_CSHL.c ****     *  #define CapSense_RS_"widget_name"            5
1404:Generated_Source\PSoC5/CapSense_CSHL.c ****     * 
1405:Generated_Source\PSoC5/CapSense_CSHL.c ****     * Return:
1406:Generated_Source\PSoC5/CapSense_CSHL.c ****     *  Returns position value of the radial slider.
1407:Generated_Source\PSoC5/CapSense_CSHL.c ****     *
1408:Generated_Source\PSoC5/CapSense_CSHL.c ****     * Side Effects:
1409:Generated_Source\PSoC5/CapSense_CSHL.c ****     *  If any sensor within the slider widget is active, the function returns values
1410:Generated_Source\PSoC5/CapSense_CSHL.c ****     *  from zero to the API resolution value set in the CapSense customizer. If no
1411:Generated_Source\PSoC5/CapSense_CSHL.c ****     *  sensors are active, the function returns 0xFFFF.
1412:Generated_Source\PSoC5/CapSense_CSHL.c ****     *  There are no checks of widget type argument provided to this function.
1413:Generated_Source\PSoC5/CapSense_CSHL.c ****     *  The unproper widget type provided will cause unexpected position calculations.
1414:Generated_Source\PSoC5/CapSense_CSHL.c ****     *
1415:Generated_Source\PSoC5/CapSense_CSHL.c ****     * Note:
1416:Generated_Source\PSoC5/CapSense_CSHL.c ****     *  If noise counts on the slider segments are greater than the noise
ARM GAS  C:\Users\JEFFSN~1\AppData\Local\Temp\cckGk2Ra.s 			page 47


1417:Generated_Source\PSoC5/CapSense_CSHL.c ****     *  threshold, this subroutine may generate a false centroid result. The noise
1418:Generated_Source\PSoC5/CapSense_CSHL.c ****     *  threshold should be set carefully (high enough above the noise level) so 
1419:Generated_Source\PSoC5/CapSense_CSHL.c ****     *  that noise will not generate a false centroid.
1420:Generated_Source\PSoC5/CapSense_CSHL.c ****     *
1421:Generated_Source\PSoC5/CapSense_CSHL.c ****     *
1422:Generated_Source\PSoC5/CapSense_CSHL.c ****     * Reentrant:
1423:Generated_Source\PSoC5/CapSense_CSHL.c ****     *  No.
1424:Generated_Source\PSoC5/CapSense_CSHL.c ****     *
1425:Generated_Source\PSoC5/CapSense_CSHL.c ****     *******************************************************************************/
1426:Generated_Source\PSoC5/CapSense_CSHL.c ****      uint16 CapSense_GetRadialCentroidPos(uint8 widget)
1427:Generated_Source\PSoC5/CapSense_CSHL.c **** 	                                       
1428:Generated_Source\PSoC5/CapSense_CSHL.c ****     {
1429:Generated_Source\PSoC5/CapSense_CSHL.c ****         #if (0u != CapSense_RADIAL_SLIDERS_POS_FILTERS_MASK)
1430:Generated_Source\PSoC5/CapSense_CSHL.c ****             uint8 posIndex;
1431:Generated_Source\PSoC5/CapSense_CSHL.c ****             uint8 firstTimeIndex = CapSense_posFiltersData[widget];
1432:Generated_Source\PSoC5/CapSense_CSHL.c ****             uint8 posFiltersMask = CapSense_posFiltersMask[widget]; 
1433:Generated_Source\PSoC5/CapSense_CSHL.c ****         #endif /* (0u != CapSense_RADIAL_SLIDERS_POS_FILTERS_MASK) */
1434:Generated_Source\PSoC5/CapSense_CSHL.c **** 
1435:Generated_Source\PSoC5/CapSense_CSHL.c ****         #if ((0u != (CapSense_MEDIAN_FILTER & CapSense_RADIAL_SLIDERS_POS_FILTERS_MASK)) || \
1436:Generated_Source\PSoC5/CapSense_CSHL.c ****              (0u != (CapSense_AVERAGING_FILTER & CapSense_RADIAL_SLIDERS_POS_FILTERS_MASK)))
1437:Generated_Source\PSoC5/CapSense_CSHL.c ****             uint8 tempPos;
1438:Generated_Source\PSoC5/CapSense_CSHL.c ****         #endif /* ((0u != (CapSense_MEDIAN_FILTER & CapSense_RADIAL_SLIDERS_POS_FILTERS_MASK)) || \
1439:Generated_Source\PSoC5/CapSense_CSHL.c ****                *   (0u != (CapSense_AVERAGING_FILTER & CapSense_RADIAL_SLIDERS_POS_FILTERS_MASK)))
1440:Generated_Source\PSoC5/CapSense_CSHL.c ****                */
1441:Generated_Source\PSoC5/CapSense_CSHL.c **** 
1442:Generated_Source\PSoC5/CapSense_CSHL.c ****         uint8 maximum;
1443:Generated_Source\PSoC5/CapSense_CSHL.c ****         uint16 position;
1444:Generated_Source\PSoC5/CapSense_CSHL.c ****         uint8 offset = CapSense_rawDataIndex[widget];
1445:Generated_Source\PSoC5/CapSense_CSHL.c ****         uint8 count = CapSense_numberOfSensors[widget];
1446:Generated_Source\PSoC5/CapSense_CSHL.c ****         
1447:Generated_Source\PSoC5/CapSense_CSHL.c ****         /* Find Maximum within centroid */        
1448:Generated_Source\PSoC5/CapSense_CSHL.c ****         #if (CapSense_IS_DIPLEX_SLIDER)
1449:Generated_Source\PSoC5/CapSense_CSHL.c ****             maximum = CapSense_FindMaximum(offset, count, CapSense_fingerThreshold[widget], 0u);
1450:Generated_Source\PSoC5/CapSense_CSHL.c ****         #else
1451:Generated_Source\PSoC5/CapSense_CSHL.c ****             maximum = CapSense_FindMaximum(offset, count, CapSense_fingerThreshold[widget]);
1452:Generated_Source\PSoC5/CapSense_CSHL.c ****         #endif /* (CapSense_IS_DIPLEX_SLIDER) */
1453:Generated_Source\PSoC5/CapSense_CSHL.c ****         
1454:Generated_Source\PSoC5/CapSense_CSHL.c ****         if (maximum != 0xFFu)
1455:Generated_Source\PSoC5/CapSense_CSHL.c ****         {
1456:Generated_Source\PSoC5/CapSense_CSHL.c ****             /* Calculate centroid */
1457:Generated_Source\PSoC5/CapSense_CSHL.c ****             position = (uint16) CapSense_CalcCentroid(maximum, 
1458:Generated_Source\PSoC5/CapSense_CSHL.c ****                          offset, count, CapSense_centroidMult[widget], CapSense_noiseThreshold[widg
1459:Generated_Source\PSoC5/CapSense_CSHL.c **** 
1460:Generated_Source\PSoC5/CapSense_CSHL.c ****             #if (0u != CapSense_RADIAL_SLIDERS_POS_FILTERS_MASK)
1461:Generated_Source\PSoC5/CapSense_CSHL.c ****                 /* Check if this Radial slider has enabled filters */
1462:Generated_Source\PSoC5/CapSense_CSHL.c ****                 if (0u != (posFiltersMask & CapSense_ANY_POS_FILTER))
1463:Generated_Source\PSoC5/CapSense_CSHL.c ****                 {
1464:Generated_Source\PSoC5/CapSense_CSHL.c ****                     /* Caluclate position to store filters data */
1465:Generated_Source\PSoC5/CapSense_CSHL.c ****                     posIndex  = firstTimeIndex + 1u;
1466:Generated_Source\PSoC5/CapSense_CSHL.c ****                     
1467:Generated_Source\PSoC5/CapSense_CSHL.c ****                     if (0u == CapSense_posFiltersData[firstTimeIndex])
1468:Generated_Source\PSoC5/CapSense_CSHL.c ****                     {
1469:Generated_Source\PSoC5/CapSense_CSHL.c ****                         /* Init filters */
1470:Generated_Source\PSoC5/CapSense_CSHL.c ****                         CapSense_posFiltersData[posIndex] = (uint8) position;
1471:Generated_Source\PSoC5/CapSense_CSHL.c ****                         #if ((0u != (CapSense_MEDIAN_FILTER & \
1472:Generated_Source\PSoC5/CapSense_CSHL.c ****                                      CapSense_RADIAL_SLIDERS_POS_FILTERS_MASK)) || \
1473:Generated_Source\PSoC5/CapSense_CSHL.c ****                              (0u != (CapSense_AVERAGING_FILTER & \
ARM GAS  C:\Users\JEFFSN~1\AppData\Local\Temp\cckGk2Ra.s 			page 48


1474:Generated_Source\PSoC5/CapSense_CSHL.c ****                                      CapSense_RADIAL_SLIDERS_POS_FILTERS_MASK)))
1475:Generated_Source\PSoC5/CapSense_CSHL.c **** 
1476:Generated_Source\PSoC5/CapSense_CSHL.c ****                             if ( (0u != (posFiltersMask & CapSense_MEDIAN_FILTER))  || 
1477:Generated_Source\PSoC5/CapSense_CSHL.c ****                                  (0u != (posFiltersMask & CapSense_AVERAGING_FILTER)) )
1478:Generated_Source\PSoC5/CapSense_CSHL.c ****                             {
1479:Generated_Source\PSoC5/CapSense_CSHL.c ****                                 CapSense_posFiltersData[posIndex + 1u] = (uint8) position;
1480:Generated_Source\PSoC5/CapSense_CSHL.c ****                             }
1481:Generated_Source\PSoC5/CapSense_CSHL.c ****                         #endif /* ((0u != (CapSense_MEDIAN_FILTER & \
1482:Generated_Source\PSoC5/CapSense_CSHL.c ****                                *           CapSense_RADIAL_SLIDERS_POS_FILTERS_MASK)) || \
1483:Generated_Source\PSoC5/CapSense_CSHL.c ****                                *   (0u != (CapSense_AVERAGING_FILTER & \
1484:Generated_Source\PSoC5/CapSense_CSHL.c ****                                *           CapSense_RADIAL_SLIDERS_POS_FILTERS_MASK)))
1485:Generated_Source\PSoC5/CapSense_CSHL.c ****                                */
1486:Generated_Source\PSoC5/CapSense_CSHL.c ****                         
1487:Generated_Source\PSoC5/CapSense_CSHL.c ****                         CapSense_posFiltersData[firstTimeIndex] = 1u;
1488:Generated_Source\PSoC5/CapSense_CSHL.c ****                     }
1489:Generated_Source\PSoC5/CapSense_CSHL.c ****                     else
1490:Generated_Source\PSoC5/CapSense_CSHL.c ****                     {
1491:Generated_Source\PSoC5/CapSense_CSHL.c ****                         /* Do filtering */
1492:Generated_Source\PSoC5/CapSense_CSHL.c ****                         #if (0u != (CapSense_MEDIAN_FILTER & CapSense_RADIAL_SLIDERS_POS_FILTERS_MA
1493:Generated_Source\PSoC5/CapSense_CSHL.c ****                             if (0u != (posFiltersMask & CapSense_MEDIAN_FILTER))
1494:Generated_Source\PSoC5/CapSense_CSHL.c ****                             {
1495:Generated_Source\PSoC5/CapSense_CSHL.c ****                                 tempPos = (uint8) position;
1496:Generated_Source\PSoC5/CapSense_CSHL.c ****                                 position = CapSense_MedianFilter(position,
1497:Generated_Source\PSoC5/CapSense_CSHL.c ****                                                                         CapSense_posFiltersData[pos
1498:Generated_Source\PSoC5/CapSense_CSHL.c ****                                                                         CapSense_posFiltersData[pos
1499:Generated_Source\PSoC5/CapSense_CSHL.c ****                                 CapSense_posFiltersData[posIndex + 1u] = 
1500:Generated_Source\PSoC5/CapSense_CSHL.c ****                                                                               CapSense_posFiltersDa
1501:Generated_Source\PSoC5/CapSense_CSHL.c ****                                 CapSense_posFiltersData[posIndex] = tempPos;
1502:Generated_Source\PSoC5/CapSense_CSHL.c ****                             }
1503:Generated_Source\PSoC5/CapSense_CSHL.c ****                         #endif /* (0u != (CapSense_MEDIAN_FILTER & 
1504:Generated_Source\PSoC5/CapSense_CSHL.c ****                                *          CapSense_RADIAL_SLIDERS_POS_FILTERS_MASK))
1505:Generated_Source\PSoC5/CapSense_CSHL.c ****                                */
1506:Generated_Source\PSoC5/CapSense_CSHL.c **** 
1507:Generated_Source\PSoC5/CapSense_CSHL.c ****                         #if (0u != (CapSense_AVERAGING_FILTER & \
1508:Generated_Source\PSoC5/CapSense_CSHL.c ****                                     CapSense_RADIAL_SLIDERS_POS_FILTERS_MASK))
1509:Generated_Source\PSoC5/CapSense_CSHL.c ****                             if (0u != (posFiltersMask & CapSense_AVERAGING_FILTER))
1510:Generated_Source\PSoC5/CapSense_CSHL.c ****                             {
1511:Generated_Source\PSoC5/CapSense_CSHL.c ****                                 tempPos = (uint8) position;
1512:Generated_Source\PSoC5/CapSense_CSHL.c ****                                 position = CapSense_AveragingFilter(position, 
1513:Generated_Source\PSoC5/CapSense_CSHL.c ****                                                                        CapSense_posFiltersData[posI
1514:Generated_Source\PSoC5/CapSense_CSHL.c ****                                                                        CapSense_posFiltersData[posI
1515:Generated_Source\PSoC5/CapSense_CSHL.c ****                                 CapSense_posFiltersData[posIndex+1u]= CapSense_posFiltersData[posIn
1516:Generated_Source\PSoC5/CapSense_CSHL.c ****                                 CapSense_posFiltersData[posIndex] = tempPos;
1517:Generated_Source\PSoC5/CapSense_CSHL.c ****                             }
1518:Generated_Source\PSoC5/CapSense_CSHL.c ****                         #endif /* (0u != (CapSense_AVERAGING_FILTER & \
1519:Generated_Source\PSoC5/CapSense_CSHL.c ****                                *          CapSense_RADIAL_SLIDERS_POS_FILTERS_MASK))
1520:Generated_Source\PSoC5/CapSense_CSHL.c ****                                */
1521:Generated_Source\PSoC5/CapSense_CSHL.c **** 
1522:Generated_Source\PSoC5/CapSense_CSHL.c ****                         #if (0u != (CapSense_IIR2_FILTER & CapSense_RADIAL_SLIDERS_POS_FILTERS_MASK
1523:Generated_Source\PSoC5/CapSense_CSHL.c ****                             if (0u != (posFiltersMask & CapSense_IIR2_FILTER))
1524:Generated_Source\PSoC5/CapSense_CSHL.c ****                             {
1525:Generated_Source\PSoC5/CapSense_CSHL.c ****                                 position = CapSense_IIR2Filter(position,
1526:Generated_Source\PSoC5/CapSense_CSHL.c ****                                                                     (uint16)CapSense_posFiltersData
1527:Generated_Source\PSoC5/CapSense_CSHL.c ****                                 CapSense_posFiltersData[posIndex] = (uint8) position;
1528:Generated_Source\PSoC5/CapSense_CSHL.c ****                             }
1529:Generated_Source\PSoC5/CapSense_CSHL.c ****                         #endif /* (0u != (CapSense_IIR2_FILTER & 
1530:Generated_Source\PSoC5/CapSense_CSHL.c ****                                *          CapSense_RADIAL_SLIDERS_POS_FILTERS_MASK))
ARM GAS  C:\Users\JEFFSN~1\AppData\Local\Temp\cckGk2Ra.s 			page 49


1531:Generated_Source\PSoC5/CapSense_CSHL.c ****                                */
1532:Generated_Source\PSoC5/CapSense_CSHL.c **** 
1533:Generated_Source\PSoC5/CapSense_CSHL.c ****                         #if (0u != (CapSense_IIR4_FILTER & CapSense_RADIAL_SLIDERS_POS_FILTERS_MASK
1534:Generated_Source\PSoC5/CapSense_CSHL.c ****                             if (0u != (posFiltersMask & CapSense_IIR4_FILTER))
1535:Generated_Source\PSoC5/CapSense_CSHL.c ****                             {
1536:Generated_Source\PSoC5/CapSense_CSHL.c ****                                 position = CapSense_IIR4Filter(position,
1537:Generated_Source\PSoC5/CapSense_CSHL.c ****                                                                     (uint16)CapSense_posFiltersData
1538:Generated_Source\PSoC5/CapSense_CSHL.c ****                                 CapSense_posFiltersData[posIndex] = (uint8) position;
1539:Generated_Source\PSoC5/CapSense_CSHL.c ****                             }
1540:Generated_Source\PSoC5/CapSense_CSHL.c ****                         #endif /* (0u != (CapSense_IIR4_FILTER & 
1541:Generated_Source\PSoC5/CapSense_CSHL.c ****                                *          CapSense_RADIAL_SLIDERS_POS_FILTERS_MASK))
1542:Generated_Source\PSoC5/CapSense_CSHL.c ****                                */
1543:Generated_Source\PSoC5/CapSense_CSHL.c **** 
1544:Generated_Source\PSoC5/CapSense_CSHL.c ****                         #if (0u != (CapSense_JITTER_FILTER & CapSense_RADIAL_SLIDERS_POS_FILTERS_MA
1545:Generated_Source\PSoC5/CapSense_CSHL.c ****                             if (0u != (posFiltersMask & CapSense_JITTER_FILTER))
1546:Generated_Source\PSoC5/CapSense_CSHL.c ****                             {
1547:Generated_Source\PSoC5/CapSense_CSHL.c ****                                 position = CapSense_JitterFilter(position, 
1548:Generated_Source\PSoC5/CapSense_CSHL.c ****                                                                          CapSense_posFiltersData[po
1549:Generated_Source\PSoC5/CapSense_CSHL.c ****                                 CapSense_posFiltersData[posIndex] = (uint8) position;
1550:Generated_Source\PSoC5/CapSense_CSHL.c ****                             }
1551:Generated_Source\PSoC5/CapSense_CSHL.c ****                         #endif /* (0u != (CapSense_JITTER_FILTER &
1552:Generated_Source\PSoC5/CapSense_CSHL.c ****                                *           CapSense_RADIAL_SLIDERS_POS_FILTERS_MASK))
1553:Generated_Source\PSoC5/CapSense_CSHL.c ****                                */
1554:Generated_Source\PSoC5/CapSense_CSHL.c ****                     }
1555:Generated_Source\PSoC5/CapSense_CSHL.c ****                 }
1556:Generated_Source\PSoC5/CapSense_CSHL.c ****             #endif /* (0u != CapSense_RADIAL_SLIDERS_POS_FILTERS_MASK) */
1557:Generated_Source\PSoC5/CapSense_CSHL.c **** 
1558:Generated_Source\PSoC5/CapSense_CSHL.c ****         }
1559:Generated_Source\PSoC5/CapSense_CSHL.c ****         else
1560:Generated_Source\PSoC5/CapSense_CSHL.c ****         {
1561:Generated_Source\PSoC5/CapSense_CSHL.c ****             /* The maximum didn't find */
1562:Generated_Source\PSoC5/CapSense_CSHL.c ****             position = 0xFFFFu;
1563:Generated_Source\PSoC5/CapSense_CSHL.c **** 
1564:Generated_Source\PSoC5/CapSense_CSHL.c ****             #if (0u != CapSense_RADIAL_SLIDERS_POS_FILTERS_MASK)
1565:Generated_Source\PSoC5/CapSense_CSHL.c ****                 /* Reset the filters */
1566:Generated_Source\PSoC5/CapSense_CSHL.c ****                 if((posFiltersMask & CapSense_ANY_POS_FILTER) != 0u)
1567:Generated_Source\PSoC5/CapSense_CSHL.c ****                 {
1568:Generated_Source\PSoC5/CapSense_CSHL.c ****                     CapSense_posFiltersData[firstTimeIndex] = 0u;
1569:Generated_Source\PSoC5/CapSense_CSHL.c ****                 }
1570:Generated_Source\PSoC5/CapSense_CSHL.c ****             #endif /* (0u != CapSense_RADIAL_SLIDERS_POS_FILTERS_MASK) */
1571:Generated_Source\PSoC5/CapSense_CSHL.c ****         }
1572:Generated_Source\PSoC5/CapSense_CSHL.c ****         
1573:Generated_Source\PSoC5/CapSense_CSHL.c ****         return (position);
1574:Generated_Source\PSoC5/CapSense_CSHL.c ****     }
1575:Generated_Source\PSoC5/CapSense_CSHL.c **** #endif
1576:Generated_Source\PSoC5/CapSense_CSHL.c **** 
1577:Generated_Source\PSoC5/CapSense_CSHL.c **** 
1578:Generated_Source\PSoC5/CapSense_CSHL.c **** #if(CapSense_TOTAL_TOUCH_PADS_COUNT > 0u)
1579:Generated_Source\PSoC5/CapSense_CSHL.c ****     /*******************************************************************************
1580:Generated_Source\PSoC5/CapSense_CSHL.c ****     * Function Name: CapSense_GetTouchCentroidPos
1581:Generated_Source\PSoC5/CapSense_CSHL.c ****     ********************************************************************************
1582:Generated_Source\PSoC5/CapSense_CSHL.c ****     *
1583:Generated_Source\PSoC5/CapSense_CSHL.c ****     * Summary:
1584:Generated_Source\PSoC5/CapSense_CSHL.c ****     *  If a finger is present on touch pad, this function calculates the X and Y
1585:Generated_Source\PSoC5/CapSense_CSHL.c ****     *  position of the finger by calculating the centroids within touch pad specified
1586:Generated_Source\PSoC5/CapSense_CSHL.c ****     *  range. The X and Y positions are calculated to the API resolutions set in the
1587:Generated_Source\PSoC5/CapSense_CSHL.c ****     *  CapSense customizer. Returns a 1 if a finger is on the touchpad.
ARM GAS  C:\Users\JEFFSN~1\AppData\Local\Temp\cckGk2Ra.s 			page 50


1588:Generated_Source\PSoC5/CapSense_CSHL.c ****     *  The position filter is applied to the result if enabled.
1589:Generated_Source\PSoC5/CapSense_CSHL.c ****     *  This function is available only if a touch pad is defined by the CapSense
1590:Generated_Source\PSoC5/CapSense_CSHL.c ****     *  customizer.
1591:Generated_Source\PSoC5/CapSense_CSHL.c ****     *
1592:Generated_Source\PSoC5/CapSense_CSHL.c ****     * Parameters:
1593:Generated_Source\PSoC5/CapSense_CSHL.c ****     *  widget:  Widget number. 
1594:Generated_Source\PSoC5/CapSense_CSHL.c ****     *  For every touchpad widget there are defines in this format:
1595:Generated_Source\PSoC5/CapSense_CSHL.c ****     *  #define CapSense_TP_"widget_name"            5
1596:Generated_Source\PSoC5/CapSense_CSHL.c ****     *
1597:Generated_Source\PSoC5/CapSense_CSHL.c ****     *  pos:     Pointer to the array of two uint16 elements, where result
1598:Generated_Source\PSoC5/CapSense_CSHL.c ****     *  result of calculation of X and Y position are stored.
1599:Generated_Source\PSoC5/CapSense_CSHL.c ****     *  pos[0u]  - position of X
1600:Generated_Source\PSoC5/CapSense_CSHL.c ****     *  pos[1u]  - position of Y
1601:Generated_Source\PSoC5/CapSense_CSHL.c ****     *
1602:Generated_Source\PSoC5/CapSense_CSHL.c ****     * Return:
1603:Generated_Source\PSoC5/CapSense_CSHL.c ****     *  Returns a 1 if a finger is on the touch pad, 0 - if not.
1604:Generated_Source\PSoC5/CapSense_CSHL.c ****     *
1605:Generated_Source\PSoC5/CapSense_CSHL.c ****     * Side Effects:
1606:Generated_Source\PSoC5/CapSense_CSHL.c ****     *   There are no checks of widget type argument provided to this function.
1607:Generated_Source\PSoC5/CapSense_CSHL.c ****     *   The unproper widget type provided will cause unexpected position
1608:Generated_Source\PSoC5/CapSense_CSHL.c ****     *   calculations.
1609:Generated_Source\PSoC5/CapSense_CSHL.c ****     *
1610:Generated_Source\PSoC5/CapSense_CSHL.c ****     * Reentrant:
1611:Generated_Source\PSoC5/CapSense_CSHL.c ****     *  No.
1612:Generated_Source\PSoC5/CapSense_CSHL.c ****     *
1613:Generated_Source\PSoC5/CapSense_CSHL.c ****     *******************************************************************************/
1614:Generated_Source\PSoC5/CapSense_CSHL.c ****     uint8 CapSense_GetTouchCentroidPos(uint8 widget, uint16* pos)
1615:Generated_Source\PSoC5/CapSense_CSHL.c **** 	                                    
1616:Generated_Source\PSoC5/CapSense_CSHL.c ****     {
1617:Generated_Source\PSoC5/CapSense_CSHL.c ****         #if (0u != CapSense_TOUCH_PADS_POS_FILTERS_MASK)
1618:Generated_Source\PSoC5/CapSense_CSHL.c ****             uint8 posXIndex;
1619:Generated_Source\PSoC5/CapSense_CSHL.c ****             uint8 posYIndex;
1620:Generated_Source\PSoC5/CapSense_CSHL.c ****             uint8 firstTimeIndex = CapSense_posFiltersData[widget];
1621:Generated_Source\PSoC5/CapSense_CSHL.c ****             uint8 posFiltersMask = CapSense_posFiltersMask[widget];
1622:Generated_Source\PSoC5/CapSense_CSHL.c ****         #endif /* (0u != CapSense_TOUCH_PADS_POS_FILTERS_MASK) */
1623:Generated_Source\PSoC5/CapSense_CSHL.c **** 
1624:Generated_Source\PSoC5/CapSense_CSHL.c ****         #if ((0u != (CapSense_MEDIAN_FILTER & CapSense_TOUCH_PADS_POS_FILTERS_MASK)) || \
1625:Generated_Source\PSoC5/CapSense_CSHL.c ****              (0u != (CapSense_AVERAGING_FILTER & CapSense_TOUCH_PADS_POS_FILTERS_MASK)))
1626:Generated_Source\PSoC5/CapSense_CSHL.c ****             uint16 tempPos;
1627:Generated_Source\PSoC5/CapSense_CSHL.c ****         #endif /* ((0u != (CapSense_MEDIAN_FILTER & CapSense_TOUCH_PADS_POS_FILTERS_MASK)) || \
1628:Generated_Source\PSoC5/CapSense_CSHL.c ****                *   (0u != (CapSense_AVERAGING_FILTER & CapSense_TOUCH_PADS_POS_FILTERS_MASK)))
1629:Generated_Source\PSoC5/CapSense_CSHL.c ****                */
1630:Generated_Source\PSoC5/CapSense_CSHL.c **** 
1631:Generated_Source\PSoC5/CapSense_CSHL.c ****         uint8 maxX;
1632:Generated_Source\PSoC5/CapSense_CSHL.c ****         uint8 maxY;
1633:Generated_Source\PSoC5/CapSense_CSHL.c ****         uint8 posX;
1634:Generated_Source\PSoC5/CapSense_CSHL.c ****         uint8 posY;
1635:Generated_Source\PSoC5/CapSense_CSHL.c ****         uint8 touch = 0u;
1636:Generated_Source\PSoC5/CapSense_CSHL.c ****         uint8 offset = CapSense_rawDataIndex[widget];
1637:Generated_Source\PSoC5/CapSense_CSHL.c ****         uint8 count = CapSense_numberOfSensors[widget];
1638:Generated_Source\PSoC5/CapSense_CSHL.c ****         
1639:Generated_Source\PSoC5/CapSense_CSHL.c ****         /* Find Maximum within X centroid */
1640:Generated_Source\PSoC5/CapSense_CSHL.c ****         #if (CapSense_IS_DIPLEX_SLIDER)
1641:Generated_Source\PSoC5/CapSense_CSHL.c ****             maxX = CapSense_FindMaximum(offset, count, CapSense_fingerThreshold[widget], 0u);
1642:Generated_Source\PSoC5/CapSense_CSHL.c ****         #else
1643:Generated_Source\PSoC5/CapSense_CSHL.c ****             maxX = CapSense_FindMaximum(offset, count, CapSense_fingerThreshold[widget]);
1644:Generated_Source\PSoC5/CapSense_CSHL.c ****         #endif /* (CapSense_IS_DIPLEX_SLIDER) */
ARM GAS  C:\Users\JEFFSN~1\AppData\Local\Temp\cckGk2Ra.s 			page 51


1645:Generated_Source\PSoC5/CapSense_CSHL.c **** 
1646:Generated_Source\PSoC5/CapSense_CSHL.c ****         if (maxX != 0xFFu)
1647:Generated_Source\PSoC5/CapSense_CSHL.c ****         {
1648:Generated_Source\PSoC5/CapSense_CSHL.c ****             offset = CapSense_rawDataIndex[widget + 1u];
1649:Generated_Source\PSoC5/CapSense_CSHL.c ****             count = CapSense_numberOfSensors[widget + 1u];
1650:Generated_Source\PSoC5/CapSense_CSHL.c **** 
1651:Generated_Source\PSoC5/CapSense_CSHL.c ****             /* Find Maximum within Y centroid */
1652:Generated_Source\PSoC5/CapSense_CSHL.c ****             #if (CapSense_IS_DIPLEX_SLIDER)
1653:Generated_Source\PSoC5/CapSense_CSHL.c ****                 maxY = CapSense_FindMaximum(offset, count, CapSense_fingerThreshold[widget + 1u], 0
1654:Generated_Source\PSoC5/CapSense_CSHL.c ****             #else
1655:Generated_Source\PSoC5/CapSense_CSHL.c ****                 maxY = CapSense_FindMaximum(offset, count, CapSense_fingerThreshold[widget + 1u]);
1656:Generated_Source\PSoC5/CapSense_CSHL.c ****             #endif /* (CapSense_IS_DIPLEX_SLIDER) */
1657:Generated_Source\PSoC5/CapSense_CSHL.c **** 
1658:Generated_Source\PSoC5/CapSense_CSHL.c ****             if (maxY != 0xFFu)
1659:Generated_Source\PSoC5/CapSense_CSHL.c ****             {
1660:Generated_Source\PSoC5/CapSense_CSHL.c ****                 /* X and Y maximums are found = true touch */
1661:Generated_Source\PSoC5/CapSense_CSHL.c ****                 touch = 1u;
1662:Generated_Source\PSoC5/CapSense_CSHL.c ****                 
1663:Generated_Source\PSoC5/CapSense_CSHL.c ****                 /* Calculate Y centroid */
1664:Generated_Source\PSoC5/CapSense_CSHL.c ****                 posY = CapSense_CalcCentroid(maxY, offset, count, 
1665:Generated_Source\PSoC5/CapSense_CSHL.c ****                             CapSense_centroidMult[widget + 1u], CapSense_noiseThreshold[widget + 1u
1666:Generated_Source\PSoC5/CapSense_CSHL.c ****                 
1667:Generated_Source\PSoC5/CapSense_CSHL.c ****                 /* Calculate X centroid */
1668:Generated_Source\PSoC5/CapSense_CSHL.c ****                 offset = CapSense_rawDataIndex[widget];
1669:Generated_Source\PSoC5/CapSense_CSHL.c ****                 count = CapSense_numberOfSensors[widget];
1670:Generated_Source\PSoC5/CapSense_CSHL.c ****                 
1671:Generated_Source\PSoC5/CapSense_CSHL.c ****                 posX = CapSense_CalcCentroid(maxX, offset, count, 
1672:Generated_Source\PSoC5/CapSense_CSHL.c ****                             CapSense_centroidMult[widget],CapSense_noiseThreshold[widget]);
1673:Generated_Source\PSoC5/CapSense_CSHL.c ****     
1674:Generated_Source\PSoC5/CapSense_CSHL.c ****                 #if (0u != CapSense_TOUCH_PADS_POS_FILTERS_MASK)
1675:Generated_Source\PSoC5/CapSense_CSHL.c ****                     /* Check if this TP has enabled filters */
1676:Generated_Source\PSoC5/CapSense_CSHL.c ****                     if (0u != (posFiltersMask & CapSense_ANY_POS_FILTER))
1677:Generated_Source\PSoC5/CapSense_CSHL.c ****                     {
1678:Generated_Source\PSoC5/CapSense_CSHL.c ****                         /* Caluclate position to store filters data */
1679:Generated_Source\PSoC5/CapSense_CSHL.c ****                         posXIndex  = firstTimeIndex + 1u;
1680:Generated_Source\PSoC5/CapSense_CSHL.c ****                         posYIndex  = CapSense_posFiltersData[widget + 1u];
1681:Generated_Source\PSoC5/CapSense_CSHL.c ****                         
1682:Generated_Source\PSoC5/CapSense_CSHL.c ****                         if (0u == CapSense_posFiltersData[firstTimeIndex])
1683:Generated_Source\PSoC5/CapSense_CSHL.c ****                         {
1684:Generated_Source\PSoC5/CapSense_CSHL.c ****                             /* Init filters */
1685:Generated_Source\PSoC5/CapSense_CSHL.c ****                             CapSense_posFiltersData[posXIndex] = posX;
1686:Generated_Source\PSoC5/CapSense_CSHL.c ****                             CapSense_posFiltersData[posYIndex] = posY;
1687:Generated_Source\PSoC5/CapSense_CSHL.c **** 
1688:Generated_Source\PSoC5/CapSense_CSHL.c ****                             #if((0u != (CapSense_MEDIAN_FILTER & \
1689:Generated_Source\PSoC5/CapSense_CSHL.c ****                                         CapSense_TOUCH_PADS_POS_FILTERS_MASK))|| \
1690:Generated_Source\PSoC5/CapSense_CSHL.c ****                                 (0u != (CapSense_AVERAGING_FILTER & \
1691:Generated_Source\PSoC5/CapSense_CSHL.c ****                                         CapSense_TOUCH_PADS_POS_FILTERS_MASK)))
1692:Generated_Source\PSoC5/CapSense_CSHL.c **** 
1693:Generated_Source\PSoC5/CapSense_CSHL.c ****                                 if ( (0u != (posFiltersMask & CapSense_MEDIAN_FILTER)) || 
1694:Generated_Source\PSoC5/CapSense_CSHL.c ****                                      (0u != (posFiltersMask & CapSense_AVERAGING_FILTER)) )
1695:Generated_Source\PSoC5/CapSense_CSHL.c ****                                 {
1696:Generated_Source\PSoC5/CapSense_CSHL.c ****                                     CapSense_posFiltersData[posXIndex + 1u] = posX;
1697:Generated_Source\PSoC5/CapSense_CSHL.c ****                                     CapSense_posFiltersData[posYIndex + 1u] = posY;
1698:Generated_Source\PSoC5/CapSense_CSHL.c ****                                 }
1699:Generated_Source\PSoC5/CapSense_CSHL.c ****                             #endif /* ((0u != (CapSense_MEDIAN_FILTER & \
1700:Generated_Source\PSoC5/CapSense_CSHL.c ****                                    *           CapSense_TOUCH_PADS_POS_FILTERS_MASK)) || \
1701:Generated_Source\PSoC5/CapSense_CSHL.c ****                                    *    (0u != (CapSense_AVERAGING_FILTER & \
ARM GAS  C:\Users\JEFFSN~1\AppData\Local\Temp\cckGk2Ra.s 			page 52


1702:Generated_Source\PSoC5/CapSense_CSHL.c ****                                    *            CapSense_TOUCH_PADS_POS_FILTERS_MASK)))
1703:Generated_Source\PSoC5/CapSense_CSHL.c ****                                    */
1704:Generated_Source\PSoC5/CapSense_CSHL.c ****                             
1705:Generated_Source\PSoC5/CapSense_CSHL.c ****                             CapSense_posFiltersData[firstTimeIndex] = 1u;
1706:Generated_Source\PSoC5/CapSense_CSHL.c ****                         }
1707:Generated_Source\PSoC5/CapSense_CSHL.c ****                         else
1708:Generated_Source\PSoC5/CapSense_CSHL.c ****                         {
1709:Generated_Source\PSoC5/CapSense_CSHL.c ****                             /* Do filtering */
1710:Generated_Source\PSoC5/CapSense_CSHL.c ****                             #if (0u != (CapSense_MEDIAN_FILTER & CapSense_TOUCH_PADS_POS_FILTERS_MA
1711:Generated_Source\PSoC5/CapSense_CSHL.c ****                                 if (0u != (posFiltersMask & CapSense_MEDIAN_FILTER))
1712:Generated_Source\PSoC5/CapSense_CSHL.c ****                                 {
1713:Generated_Source\PSoC5/CapSense_CSHL.c ****                                     tempPos = posX;
1714:Generated_Source\PSoC5/CapSense_CSHL.c ****                                     posX = (uint8) CapSense_MedianFilter(posX,
1715:Generated_Source\PSoC5/CapSense_CSHL.c ****                                                                       CapSense_posFiltersData[posXI
1716:Generated_Source\PSoC5/CapSense_CSHL.c ****                                                                       CapSense_posFiltersData[posXI
1717:Generated_Source\PSoC5/CapSense_CSHL.c ****                                     CapSense_posFiltersData[posXIndex + 1u] = 
1718:Generated_Source\PSoC5/CapSense_CSHL.c ****                                                                              CapSense_posFiltersDat
1719:Generated_Source\PSoC5/CapSense_CSHL.c ****                                     CapSense_posFiltersData[posXIndex] = tempPos;
1720:Generated_Source\PSoC5/CapSense_CSHL.c ****                                     
1721:Generated_Source\PSoC5/CapSense_CSHL.c ****                                     tempPos = posY;
1722:Generated_Source\PSoC5/CapSense_CSHL.c ****                                     posY = (uint8) CapSense_MedianFilter(posY,
1723:Generated_Source\PSoC5/CapSense_CSHL.c ****                                                                        CapSense_posFiltersData[posY
1724:Generated_Source\PSoC5/CapSense_CSHL.c ****                                                                        CapSense_posFiltersData[posY
1725:Generated_Source\PSoC5/CapSense_CSHL.c ****                                     CapSense_posFiltersData[posYIndex + 1u] = 
1726:Generated_Source\PSoC5/CapSense_CSHL.c ****                                                                              CapSense_posFiltersDat
1727:Generated_Source\PSoC5/CapSense_CSHL.c ****                                     CapSense_posFiltersData[posYIndex] = tempPos;
1728:Generated_Source\PSoC5/CapSense_CSHL.c ****                                 }
1729:Generated_Source\PSoC5/CapSense_CSHL.c ****                                 
1730:Generated_Source\PSoC5/CapSense_CSHL.c ****                             #endif /* (0u != (CapSense_MEDIAN_FILTER & \
1731:Generated_Source\PSoC5/CapSense_CSHL.c ****                                    *          CapSense_TOUCH_PADS_POS_FILTERS_MASK))
1732:Generated_Source\PSoC5/CapSense_CSHL.c ****                                    */
1733:Generated_Source\PSoC5/CapSense_CSHL.c **** 
1734:Generated_Source\PSoC5/CapSense_CSHL.c ****                             #if(0u !=(CapSense_AVERAGING_FILTER & CapSense_TOUCH_PADS_POS_FILTERS_M
1735:Generated_Source\PSoC5/CapSense_CSHL.c ****                                 if (0u != (posFiltersMask & CapSense_AVERAGING_FILTER))
1736:Generated_Source\PSoC5/CapSense_CSHL.c ****                                 {
1737:Generated_Source\PSoC5/CapSense_CSHL.c ****                                     tempPos = posX;
1738:Generated_Source\PSoC5/CapSense_CSHL.c ****                                     posX = (uint8) CapSense_AveragingFilter(posX,
1739:Generated_Source\PSoC5/CapSense_CSHL.c ****                                                                        CapSense_posFiltersData[posX
1740:Generated_Source\PSoC5/CapSense_CSHL.c ****                                                                        CapSense_posFiltersData[posX
1741:Generated_Source\PSoC5/CapSense_CSHL.c ****                                     CapSense_posFiltersData[posXIndex + 1u] = 
1742:Generated_Source\PSoC5/CapSense_CSHL.c ****                                                                              CapSense_posFiltersDat
1743:Generated_Source\PSoC5/CapSense_CSHL.c ****                                     CapSense_posFiltersData[posXIndex] = tempPos;
1744:Generated_Source\PSoC5/CapSense_CSHL.c ****                                     
1745:Generated_Source\PSoC5/CapSense_CSHL.c ****                                     tempPos = posY;
1746:Generated_Source\PSoC5/CapSense_CSHL.c ****                                     posY = (uint8) CapSense_AveragingFilter(posY, 
1747:Generated_Source\PSoC5/CapSense_CSHL.c ****                                                                       CapSense_posFiltersData[posYI
1748:Generated_Source\PSoC5/CapSense_CSHL.c ****                                                                       CapSense_posFiltersData[posYI
1749:Generated_Source\PSoC5/CapSense_CSHL.c ****                                     CapSense_posFiltersData[posYIndex + 1u] = 
1750:Generated_Source\PSoC5/CapSense_CSHL.c ****                                                                             CapSense_posFiltersData
1751:Generated_Source\PSoC5/CapSense_CSHL.c ****                                     CapSense_posFiltersData[posYIndex] = tempPos;
1752:Generated_Source\PSoC5/CapSense_CSHL.c ****                                 }
1753:Generated_Source\PSoC5/CapSense_CSHL.c **** 
1754:Generated_Source\PSoC5/CapSense_CSHL.c ****                             #endif /* (0u != (CapSense_AVERAGING_FILTER & \
1755:Generated_Source\PSoC5/CapSense_CSHL.c ****                                    *           CapSense_TOUCH_PADS_POS_FILTERS_MASK))
1756:Generated_Source\PSoC5/CapSense_CSHL.c ****                                    */
1757:Generated_Source\PSoC5/CapSense_CSHL.c **** 
1758:Generated_Source\PSoC5/CapSense_CSHL.c ****                             #if (0u != (CapSense_IIR2_FILTER & CapSense_TOUCH_PADS_POS_FILTERS_MASK
ARM GAS  C:\Users\JEFFSN~1\AppData\Local\Temp\cckGk2Ra.s 			page 53


1759:Generated_Source\PSoC5/CapSense_CSHL.c ****                                 if (0u != (posFiltersMask & CapSense_IIR2_FILTER))
1760:Generated_Source\PSoC5/CapSense_CSHL.c ****                                 {
1761:Generated_Source\PSoC5/CapSense_CSHL.c ****                                     posX = (uint8) CapSense_IIR2Filter(posX, 
1762:Generated_Source\PSoC5/CapSense_CSHL.c ****                                                                            CapSense_posFiltersData[
1763:Generated_Source\PSoC5/CapSense_CSHL.c ****                                     CapSense_posFiltersData[posXIndex] = posX;
1764:Generated_Source\PSoC5/CapSense_CSHL.c ****                                     
1765:Generated_Source\PSoC5/CapSense_CSHL.c ****                                     posY = (uint8) CapSense_IIR2Filter(posY, 
1766:Generated_Source\PSoC5/CapSense_CSHL.c ****                                                                             CapSense_posFiltersData
1767:Generated_Source\PSoC5/CapSense_CSHL.c ****                                     CapSense_posFiltersData[posYIndex] = posY;
1768:Generated_Source\PSoC5/CapSense_CSHL.c ****                                 }
1769:Generated_Source\PSoC5/CapSense_CSHL.c ****                                 
1770:Generated_Source\PSoC5/CapSense_CSHL.c ****                             #endif /* (0u != (CapSense_IIR2_FILTER & \
1771:Generated_Source\PSoC5/CapSense_CSHL.c ****                                    *          CapSense_TOUCH_PADS_POS_FILTERS_MASK))
1772:Generated_Source\PSoC5/CapSense_CSHL.c ****                                    */
1773:Generated_Source\PSoC5/CapSense_CSHL.c **** 
1774:Generated_Source\PSoC5/CapSense_CSHL.c ****                             #if (0u != (CapSense_IIR4_FILTER & CapSense_TOUCH_PADS_POS_FILTERS_MASK
1775:Generated_Source\PSoC5/CapSense_CSHL.c ****                                 if (0u != (posFiltersMask & CapSense_IIR4_FILTER))
1776:Generated_Source\PSoC5/CapSense_CSHL.c ****                                 {
1777:Generated_Source\PSoC5/CapSense_CSHL.c ****                                     posX = (uint8) CapSense_IIR4Filter((uint16)posX,
1778:Generated_Source\PSoC5/CapSense_CSHL.c ****                                                                     (uint16)CapSense_posFiltersData
1779:Generated_Source\PSoC5/CapSense_CSHL.c ****                                     CapSense_posFiltersData[posXIndex] = posX;
1780:Generated_Source\PSoC5/CapSense_CSHL.c **** 
1781:Generated_Source\PSoC5/CapSense_CSHL.c ****                                     posY = (uint8) CapSense_IIR4Filter((uint16)posY,
1782:Generated_Source\PSoC5/CapSense_CSHL.c ****                                                                     (uint16)CapSense_posFiltersData
1783:Generated_Source\PSoC5/CapSense_CSHL.c ****                                     CapSense_posFiltersData[posYIndex] = posY;
1784:Generated_Source\PSoC5/CapSense_CSHL.c ****                                 }
1785:Generated_Source\PSoC5/CapSense_CSHL.c ****                                 
1786:Generated_Source\PSoC5/CapSense_CSHL.c ****                             #endif /* (0u != (CapSense_IIR4_FILTER & \
1787:Generated_Source\PSoC5/CapSense_CSHL.c ****                                    *           CapSense_TOUCH_PADS_POS_FILTERS_MASK))
1788:Generated_Source\PSoC5/CapSense_CSHL.c ****                                    */
1789:Generated_Source\PSoC5/CapSense_CSHL.c **** 
1790:Generated_Source\PSoC5/CapSense_CSHL.c ****                             #if (0u != (CapSense_JITTER_FILTER & CapSense_TOUCH_PADS_POS_FILTERS_MA
1791:Generated_Source\PSoC5/CapSense_CSHL.c ****                                 if (0u != (posFiltersMask & CapSense_JITTER_FILTER))
1792:Generated_Source\PSoC5/CapSense_CSHL.c ****                                     {
1793:Generated_Source\PSoC5/CapSense_CSHL.c ****                                         posX = (uint8) CapSense_JitterFilter(posX, 
1794:Generated_Source\PSoC5/CapSense_CSHL.c ****                                                                             CapSense_posFiltersData
1795:Generated_Source\PSoC5/CapSense_CSHL.c ****                                         CapSense_posFiltersData[posXIndex] = posX;
1796:Generated_Source\PSoC5/CapSense_CSHL.c ****                                         
1797:Generated_Source\PSoC5/CapSense_CSHL.c ****                                         posY = (uint8) CapSense_JitterFilter(posY, 
1798:Generated_Source\PSoC5/CapSense_CSHL.c ****                                                                             CapSense_posFiltersData
1799:Generated_Source\PSoC5/CapSense_CSHL.c ****                                         CapSense_posFiltersData[posYIndex] = posY;
1800:Generated_Source\PSoC5/CapSense_CSHL.c ****                                     }
1801:Generated_Source\PSoC5/CapSense_CSHL.c ****                             #endif /* (0u != (CapSense_JITTER_FILTER & \
1802:Generated_Source\PSoC5/CapSense_CSHL.c ****                                    *           CapSense_TOUCH_PADS_POS_FILTERS_MASK))
1803:Generated_Source\PSoC5/CapSense_CSHL.c ****                                    */
1804:Generated_Source\PSoC5/CapSense_CSHL.c ****                         }
1805:Generated_Source\PSoC5/CapSense_CSHL.c ****                     }
1806:Generated_Source\PSoC5/CapSense_CSHL.c ****                 #endif /* (0u != CapSense_TOUCH_PADS_POS_FILTERS_MASK) */
1807:Generated_Source\PSoC5/CapSense_CSHL.c **** 
1808:Generated_Source\PSoC5/CapSense_CSHL.c ****                 /* Save positions */
1809:Generated_Source\PSoC5/CapSense_CSHL.c ****                 pos[0u] = posX;
1810:Generated_Source\PSoC5/CapSense_CSHL.c ****                 pos[1u] = posY;
1811:Generated_Source\PSoC5/CapSense_CSHL.c ****             }
1812:Generated_Source\PSoC5/CapSense_CSHL.c ****         }
1813:Generated_Source\PSoC5/CapSense_CSHL.c **** 
1814:Generated_Source\PSoC5/CapSense_CSHL.c ****         #if (0u != CapSense_TOUCH_PADS_POS_FILTERS_MASK)
1815:Generated_Source\PSoC5/CapSense_CSHL.c ****             if(touch == 0u)
ARM GAS  C:\Users\JEFFSN~1\AppData\Local\Temp\cckGk2Ra.s 			page 54


1816:Generated_Source\PSoC5/CapSense_CSHL.c ****             {
1817:Generated_Source\PSoC5/CapSense_CSHL.c ****                 /* Reset the filters */
1818:Generated_Source\PSoC5/CapSense_CSHL.c ****                 if ((posFiltersMask & CapSense_ANY_POS_FILTER) != 0u)
1819:Generated_Source\PSoC5/CapSense_CSHL.c ****                 {
1820:Generated_Source\PSoC5/CapSense_CSHL.c ****                     CapSense_posFiltersData[firstTimeIndex] = 0u;
1821:Generated_Source\PSoC5/CapSense_CSHL.c ****                 }
1822:Generated_Source\PSoC5/CapSense_CSHL.c ****             }
1823:Generated_Source\PSoC5/CapSense_CSHL.c ****         #endif /* (0u != CapSense_TOUCH_PADS_POS_FILTERS_MASK) */
1824:Generated_Source\PSoC5/CapSense_CSHL.c ****         
1825:Generated_Source\PSoC5/CapSense_CSHL.c ****         return (touch);
1826:Generated_Source\PSoC5/CapSense_CSHL.c ****     }
1827:Generated_Source\PSoC5/CapSense_CSHL.c **** #endif /* (CapSense_TOTAL_TOUCH_PADS_COUNT > 0u) */
1828:Generated_Source\PSoC5/CapSense_CSHL.c **** 
1829:Generated_Source\PSoC5/CapSense_CSHL.c **** 
1830:Generated_Source\PSoC5/CapSense_CSHL.c **** #if ( (CapSense_RAW_FILTER_MASK & CapSense_MEDIAN_FILTER) | \
1831:Generated_Source\PSoC5/CapSense_CSHL.c ****       (CapSense_POS_FILTERS_MASK & CapSense_MEDIAN_FILTER) )
1832:Generated_Source\PSoC5/CapSense_CSHL.c ****     /*******************************************************************************
1833:Generated_Source\PSoC5/CapSense_CSHL.c ****     * Function Name: CapSense_MedianFilter
1834:Generated_Source\PSoC5/CapSense_CSHL.c ****     ********************************************************************************
1835:Generated_Source\PSoC5/CapSense_CSHL.c ****     *
1836:Generated_Source\PSoC5/CapSense_CSHL.c ****     * Summary:
1837:Generated_Source\PSoC5/CapSense_CSHL.c ****     *  Median filter function. 
1838:Generated_Source\PSoC5/CapSense_CSHL.c ****     *  The median filter looks at the three most recent samples and reports the 
1839:Generated_Source\PSoC5/CapSense_CSHL.c ****     *  median value.
1840:Generated_Source\PSoC5/CapSense_CSHL.c ****     *
1841:Generated_Source\PSoC5/CapSense_CSHL.c ****     * Parameters:
1842:Generated_Source\PSoC5/CapSense_CSHL.c ****     *  x1:  Current value.
1843:Generated_Source\PSoC5/CapSense_CSHL.c ****     *  x2:  Previous value.
1844:Generated_Source\PSoC5/CapSense_CSHL.c ****     *  x3:  Before previous value.
1845:Generated_Source\PSoC5/CapSense_CSHL.c ****     *
1846:Generated_Source\PSoC5/CapSense_CSHL.c ****     * Return:
1847:Generated_Source\PSoC5/CapSense_CSHL.c ****     *  Returns filtered value.
1848:Generated_Source\PSoC5/CapSense_CSHL.c ****     *
1849:Generated_Source\PSoC5/CapSense_CSHL.c ****     *******************************************************************************/
1850:Generated_Source\PSoC5/CapSense_CSHL.c ****     uint16 CapSense_MedianFilter(uint16 x1, uint16 x2, uint16 x3)
1851:Generated_Source\PSoC5/CapSense_CSHL.c ****                                          
1852:Generated_Source\PSoC5/CapSense_CSHL.c ****     {
1853:Generated_Source\PSoC5/CapSense_CSHL.c ****         uint16 tmp;
1854:Generated_Source\PSoC5/CapSense_CSHL.c ****         
1855:Generated_Source\PSoC5/CapSense_CSHL.c ****         if (x1 > x2)
1856:Generated_Source\PSoC5/CapSense_CSHL.c ****         {
1857:Generated_Source\PSoC5/CapSense_CSHL.c ****             tmp = x2;
1858:Generated_Source\PSoC5/CapSense_CSHL.c ****             x2 = x1;
1859:Generated_Source\PSoC5/CapSense_CSHL.c ****             x1 = tmp;
1860:Generated_Source\PSoC5/CapSense_CSHL.c ****         }
1861:Generated_Source\PSoC5/CapSense_CSHL.c ****         
1862:Generated_Source\PSoC5/CapSense_CSHL.c ****         if (x2 > x3)
1863:Generated_Source\PSoC5/CapSense_CSHL.c ****         {
1864:Generated_Source\PSoC5/CapSense_CSHL.c ****             x2 = x3;
1865:Generated_Source\PSoC5/CapSense_CSHL.c ****         }
1866:Generated_Source\PSoC5/CapSense_CSHL.c ****         
1867:Generated_Source\PSoC5/CapSense_CSHL.c ****         return ((x1 > x2) ? x1 : x2);
1868:Generated_Source\PSoC5/CapSense_CSHL.c ****     }
1869:Generated_Source\PSoC5/CapSense_CSHL.c **** #endif /* ( (CapSense_RAW_FILTER_MASK & CapSense_MEDIAN_FILTER) | \
1870:Generated_Source\PSoC5/CapSense_CSHL.c ****        *    (CapSense_POS_FILTERS_MASK & CapSense_MEDIAN_FILTER) )
1871:Generated_Source\PSoC5/CapSense_CSHL.c ****        */
1872:Generated_Source\PSoC5/CapSense_CSHL.c **** 
ARM GAS  C:\Users\JEFFSN~1\AppData\Local\Temp\cckGk2Ra.s 			page 55


1873:Generated_Source\PSoC5/CapSense_CSHL.c **** 
1874:Generated_Source\PSoC5/CapSense_CSHL.c **** #if ( (CapSense_RAW_FILTER_MASK & CapSense_AVERAGING_FILTER) | \
1875:Generated_Source\PSoC5/CapSense_CSHL.c ****       (CapSense_POS_FILTERS_MASK & CapSense_AVERAGING_FILTER) )
1876:Generated_Source\PSoC5/CapSense_CSHL.c ****     /*******************************************************************************
1877:Generated_Source\PSoC5/CapSense_CSHL.c ****     * Function Name: CapSense_AveragingFilter
1878:Generated_Source\PSoC5/CapSense_CSHL.c ****     ********************************************************************************
1879:Generated_Source\PSoC5/CapSense_CSHL.c ****     *
1880:Generated_Source\PSoC5/CapSense_CSHL.c ****     * Summary:
1881:Generated_Source\PSoC5/CapSense_CSHL.c ****     *  Averaging filter function.
1882:Generated_Source\PSoC5/CapSense_CSHL.c ****     *  The averaging filter looks at the three most recent samples of position and
1883:Generated_Source\PSoC5/CapSense_CSHL.c ****     *  reports the averaging value.
1884:Generated_Source\PSoC5/CapSense_CSHL.c ****     *
1885:Generated_Source\PSoC5/CapSense_CSHL.c ****     * Parameters:
1886:Generated_Source\PSoC5/CapSense_CSHL.c ****     *  x1:  Current value.
1887:Generated_Source\PSoC5/CapSense_CSHL.c ****     *  x2:  Previous value.
1888:Generated_Source\PSoC5/CapSense_CSHL.c ****     *  x3:  Before previous value.
1889:Generated_Source\PSoC5/CapSense_CSHL.c ****     *
1890:Generated_Source\PSoC5/CapSense_CSHL.c ****     * Return:
1891:Generated_Source\PSoC5/CapSense_CSHL.c ****     *  Returns filtered value.
1892:Generated_Source\PSoC5/CapSense_CSHL.c ****     *
1893:Generated_Source\PSoC5/CapSense_CSHL.c ****     *******************************************************************************/
1894:Generated_Source\PSoC5/CapSense_CSHL.c ****     uint16 CapSense_AveragingFilter(uint16 x1, uint16 x2, uint16 x3)
1895:Generated_Source\PSoC5/CapSense_CSHL.c ****                                             
1896:Generated_Source\PSoC5/CapSense_CSHL.c ****     {
1897:Generated_Source\PSoC5/CapSense_CSHL.c ****         uint32 tmp = ((uint32)x1 + (uint32)x2 + (uint32)x3) / 3u;
1898:Generated_Source\PSoC5/CapSense_CSHL.c ****         
1899:Generated_Source\PSoC5/CapSense_CSHL.c ****         return ((uint16) tmp);
1900:Generated_Source\PSoC5/CapSense_CSHL.c ****     }
1901:Generated_Source\PSoC5/CapSense_CSHL.c **** #endif /* ( (CapSense_RAW_FILTER_MASK & CapSense_AVERAGING_FILTER) | \
1902:Generated_Source\PSoC5/CapSense_CSHL.c ****        *    (CapSense_POS_FILTERS_MASK & CapSense_AVERAGING_FILTER) )
1903:Generated_Source\PSoC5/CapSense_CSHL.c ****        */
1904:Generated_Source\PSoC5/CapSense_CSHL.c **** 
1905:Generated_Source\PSoC5/CapSense_CSHL.c **** 
1906:Generated_Source\PSoC5/CapSense_CSHL.c **** #if ( (CapSense_RAW_FILTER_MASK & CapSense_IIR2_FILTER) | \
1907:Generated_Source\PSoC5/CapSense_CSHL.c ****       (CapSense_POS_FILTERS_MASK & CapSense_IIR2_FILTER) )
1908:Generated_Source\PSoC5/CapSense_CSHL.c ****     /*******************************************************************************
1909:Generated_Source\PSoC5/CapSense_CSHL.c ****     * Function Name: CapSense_IIR2Filter
1910:Generated_Source\PSoC5/CapSense_CSHL.c ****     ********************************************************************************
1911:Generated_Source\PSoC5/CapSense_CSHL.c ****     *
1912:Generated_Source\PSoC5/CapSense_CSHL.c ****     * Summary:
1913:Generated_Source\PSoC5/CapSense_CSHL.c ****     *  IIR1/2 filter function. IIR1/2 = 1/2current + 1/2previous.
1914:Generated_Source\PSoC5/CapSense_CSHL.c ****     *
1915:Generated_Source\PSoC5/CapSense_CSHL.c ****     * Parameters:
1916:Generated_Source\PSoC5/CapSense_CSHL.c ****     *  x1:  Current value.
1917:Generated_Source\PSoC5/CapSense_CSHL.c ****     *  x2:  Previous value.
1918:Generated_Source\PSoC5/CapSense_CSHL.c ****     *
1919:Generated_Source\PSoC5/CapSense_CSHL.c ****     * Return:
1920:Generated_Source\PSoC5/CapSense_CSHL.c ****     *  Returns filtered value.
1921:Generated_Source\PSoC5/CapSense_CSHL.c ****     *
1922:Generated_Source\PSoC5/CapSense_CSHL.c ****     *******************************************************************************/
1923:Generated_Source\PSoC5/CapSense_CSHL.c ****     uint16 CapSense_IIR2Filter(uint16 x1, uint16 x2)
1924:Generated_Source\PSoC5/CapSense_CSHL.c ****                                        
1925:Generated_Source\PSoC5/CapSense_CSHL.c ****     {
1926:Generated_Source\PSoC5/CapSense_CSHL.c ****         uint32 tmp;
1927:Generated_Source\PSoC5/CapSense_CSHL.c ****         
1928:Generated_Source\PSoC5/CapSense_CSHL.c ****         /* IIR = 1/2 Current Value+ 1/2 Previous Value */
1929:Generated_Source\PSoC5/CapSense_CSHL.c ****         tmp = (uint32)x1 + (uint32)x2;
ARM GAS  C:\Users\JEFFSN~1\AppData\Local\Temp\cckGk2Ra.s 			page 56


1930:Generated_Source\PSoC5/CapSense_CSHL.c ****         tmp >>= 1u;
1931:Generated_Source\PSoC5/CapSense_CSHL.c ****     
1932:Generated_Source\PSoC5/CapSense_CSHL.c ****         return ((uint16) tmp);
1933:Generated_Source\PSoC5/CapSense_CSHL.c ****     }
1934:Generated_Source\PSoC5/CapSense_CSHL.c **** #endif /* ( (CapSense_RAW_FILTER_MASK & CapSense_IIR2_FILTER) | \
1935:Generated_Source\PSoC5/CapSense_CSHL.c ****        *    (CapSense_POS_FILTERS_MASK & CapSense_IIR2_FILTER) )
1936:Generated_Source\PSoC5/CapSense_CSHL.c ****        */
1937:Generated_Source\PSoC5/CapSense_CSHL.c **** 
1938:Generated_Source\PSoC5/CapSense_CSHL.c **** 
1939:Generated_Source\PSoC5/CapSense_CSHL.c **** #if ( (CapSense_RAW_FILTER_MASK & CapSense_IIR4_FILTER) | \
1940:Generated_Source\PSoC5/CapSense_CSHL.c ****       (CapSense_POS_FILTERS_MASK & CapSense_IIR4_FILTER) )
1941:Generated_Source\PSoC5/CapSense_CSHL.c ****     /*******************************************************************************
1942:Generated_Source\PSoC5/CapSense_CSHL.c ****     * Function Name: CapSense_IIR4Filter
1943:Generated_Source\PSoC5/CapSense_CSHL.c ****     ********************************************************************************
1944:Generated_Source\PSoC5/CapSense_CSHL.c ****     *
1945:Generated_Source\PSoC5/CapSense_CSHL.c ****     * Summary:
1946:Generated_Source\PSoC5/CapSense_CSHL.c ****     *  IIR1/4 filter function. IIR1/4 = 1/4current + 3/4previous.
1947:Generated_Source\PSoC5/CapSense_CSHL.c ****     *
1948:Generated_Source\PSoC5/CapSense_CSHL.c ****     * Parameters:
1949:Generated_Source\PSoC5/CapSense_CSHL.c ****     *  x1:  Current value.
1950:Generated_Source\PSoC5/CapSense_CSHL.c ****     *  x2:  Previous value.
1951:Generated_Source\PSoC5/CapSense_CSHL.c ****     *
1952:Generated_Source\PSoC5/CapSense_CSHL.c ****     * Return:
1953:Generated_Source\PSoC5/CapSense_CSHL.c ****     *  Returns filtered value.
1954:Generated_Source\PSoC5/CapSense_CSHL.c ****     *
1955:Generated_Source\PSoC5/CapSense_CSHL.c ****     *******************************************************************************/
1956:Generated_Source\PSoC5/CapSense_CSHL.c ****     uint16 CapSense_IIR4Filter(uint16 x1, uint16 x2)
1957:Generated_Source\PSoC5/CapSense_CSHL.c ****                                        
1958:Generated_Source\PSoC5/CapSense_CSHL.c ****     {
 1194              		.loc 1 1958 0
 1195              		.cfi_startproc
 1196              		@ args = 0, pretend = 0, frame = 16
 1197              		@ frame_needed = 1, uses_anonymous_args = 0
 1198              		@ link register save eliminated.
 1199 0000 80B4     		push	{r7}
 1200              		.cfi_def_cfa_offset 4
 1201              		.cfi_offset 7, -4
 1202 0002 85B0     		sub	sp, sp, #20
 1203              		.cfi_def_cfa_offset 24
 1204 0004 00AF     		add	r7, sp, #0
 1205              		.cfi_def_cfa_register 7
 1206 0006 0346     		mov	r3, r0
 1207 0008 0A46     		mov	r2, r1
 1208 000a FB80     		strh	r3, [r7, #6]	@ movhi
 1209 000c 1346     		mov	r3, r2	@ movhi
 1210 000e BB80     		strh	r3, [r7, #4]	@ movhi
1959:Generated_Source\PSoC5/CapSense_CSHL.c ****         uint32 tmp;
1960:Generated_Source\PSoC5/CapSense_CSHL.c ****         
1961:Generated_Source\PSoC5/CapSense_CSHL.c ****         /* IIR = 1/4 Current Value + 3/4 Previous Value */
1962:Generated_Source\PSoC5/CapSense_CSHL.c ****         tmp = (uint32)x1 + (uint32)x2;
 1211              		.loc 1 1962 0
 1212 0010 FA88     		ldrh	r2, [r7, #6]
 1213 0012 BB88     		ldrh	r3, [r7, #4]
 1214 0014 1344     		add	r3, r3, r2
 1215 0016 FB60     		str	r3, [r7, #12]
1963:Generated_Source\PSoC5/CapSense_CSHL.c ****         tmp += ((uint32)x2 << 1u);
 1216              		.loc 1 1963 0
ARM GAS  C:\Users\JEFFSN~1\AppData\Local\Temp\cckGk2Ra.s 			page 57


 1217 0018 BB88     		ldrh	r3, [r7, #4]
 1218 001a 5B00     		lsls	r3, r3, #1
 1219 001c FA68     		ldr	r2, [r7, #12]
 1220 001e 1344     		add	r3, r3, r2
 1221 0020 FB60     		str	r3, [r7, #12]
1964:Generated_Source\PSoC5/CapSense_CSHL.c ****         tmp >>= 2u;
 1222              		.loc 1 1964 0
 1223 0022 FB68     		ldr	r3, [r7, #12]
 1224 0024 9B08     		lsrs	r3, r3, #2
 1225 0026 FB60     		str	r3, [r7, #12]
1965:Generated_Source\PSoC5/CapSense_CSHL.c ****         
1966:Generated_Source\PSoC5/CapSense_CSHL.c ****         return ((uint16) tmp);
 1226              		.loc 1 1966 0
 1227 0028 FB68     		ldr	r3, [r7, #12]
 1228 002a 9BB2     		uxth	r3, r3
1967:Generated_Source\PSoC5/CapSense_CSHL.c ****     }
 1229              		.loc 1 1967 0
 1230 002c 1846     		mov	r0, r3
 1231 002e 1437     		adds	r7, r7, #20
 1232              		.cfi_def_cfa_offset 4
 1233 0030 BD46     		mov	sp, r7
 1234              		.cfi_def_cfa_register 13
 1235              		@ sp needed
 1236 0032 80BC     		pop	{r7}
 1237              		.cfi_restore 7
 1238              		.cfi_def_cfa_offset 0
 1239 0034 7047     		bx	lr
 1240              		.cfi_endproc
 1241              	.LFE11:
 1242              		.size	CapSense_IIR4Filter, .-CapSense_IIR4Filter
 1243 0036 00BF     		.text
 1244              	.Letext0:
 1245              		.file 2 "Generated_Source\\PSoC5\\cytypes.h"
 1246              		.file 3 "Generated_Source\\PSoC5\\CapSense.h"
 1247              		.file 4 "Generated_Source\\PSoC5\\CapSense_CSHL.h"