ARM GAS  C:\Users\JEFFSN~1\AppData\Local\Temp\cclRlWK0.s 			page 1


   1              		.syntax unified
   2              		.cpu cortex-m3
   3              		.fpu softvfp
   4              		.eabi_attribute 20, 1
   5              		.eabi_attribute 21, 1
   6              		.eabi_attribute 23, 3
   7              		.eabi_attribute 24, 1
   8              		.eabi_attribute 25, 1
   9              		.eabi_attribute 26, 1
  10              		.eabi_attribute 30, 6
  11              		.eabi_attribute 34, 1
  12              		.eabi_attribute 18, 4
  13              		.thumb
  14              		.syntax unified
  15              		.file	"cyfitter_cfg.c"
  16              		.text
  17              	.Ltext0:
  18              		.cfi_sections	.debug_frame
  19              		.section	.text.CYMEMZERO,"ax",%progbits
  20              		.align	2
  21              		.thumb
  22              		.thumb_func
  23              		.type	CYMEMZERO, %function
  24              	CYMEMZERO:
  25              	.LFB0:
  26              		.file 1 "Generated_Source\\PSoC5\\cyfitter_cfg.c"
   1:Generated_Source\PSoC5/cyfitter_cfg.c **** 
   2:Generated_Source\PSoC5/cyfitter_cfg.c **** /*******************************************************************************
   3:Generated_Source\PSoC5/cyfitter_cfg.c **** * File Name: cyfitter_cfg.c
   4:Generated_Source\PSoC5/cyfitter_cfg.c **** * 
   5:Generated_Source\PSoC5/cyfitter_cfg.c **** * PSoC Creator  4.4
   6:Generated_Source\PSoC5/cyfitter_cfg.c **** *
   7:Generated_Source\PSoC5/cyfitter_cfg.c **** * Description:
   8:Generated_Source\PSoC5/cyfitter_cfg.c **** * This file contains device initialization code.
   9:Generated_Source\PSoC5/cyfitter_cfg.c **** * Except for the user defined sections in CyClockStartupError(), this file should not be modified.
  10:Generated_Source\PSoC5/cyfitter_cfg.c **** * This file is automatically generated by PSoC Creator.
  11:Generated_Source\PSoC5/cyfitter_cfg.c **** *
  12:Generated_Source\PSoC5/cyfitter_cfg.c **** ********************************************************************************
  13:Generated_Source\PSoC5/cyfitter_cfg.c **** * Copyright (c) 2007-2020 Cypress Semiconductor.  All rights reserved.
  14:Generated_Source\PSoC5/cyfitter_cfg.c **** * You may use this file only in accordance with the license, terms, conditions, 
  15:Generated_Source\PSoC5/cyfitter_cfg.c **** * disclaimers, and limitations in the end user license agreement accompanying 
  16:Generated_Source\PSoC5/cyfitter_cfg.c **** * the software package with which this file was provided.
  17:Generated_Source\PSoC5/cyfitter_cfg.c **** ********************************************************************************/
  18:Generated_Source\PSoC5/cyfitter_cfg.c **** 
  19:Generated_Source\PSoC5/cyfitter_cfg.c **** #include <string.h>
  20:Generated_Source\PSoC5/cyfitter_cfg.c **** #include "cytypes.h"
  21:Generated_Source\PSoC5/cyfitter_cfg.c **** #include "cydevice_trm.h"
  22:Generated_Source\PSoC5/cyfitter_cfg.c **** #include "cyfitter.h"
  23:Generated_Source\PSoC5/cyfitter_cfg.c **** #include "CyLib.h"
  24:Generated_Source\PSoC5/cyfitter_cfg.c **** #include "cyfitter_cfg.h"
  25:Generated_Source\PSoC5/cyfitter_cfg.c **** 
  26:Generated_Source\PSoC5/cyfitter_cfg.c **** #define CY_NEED_CYCLOCKSTARTUPERROR 1
  27:Generated_Source\PSoC5/cyfitter_cfg.c **** 
  28:Generated_Source\PSoC5/cyfitter_cfg.c **** 
  29:Generated_Source\PSoC5/cyfitter_cfg.c **** #if defined(__GNUC__) || defined(__ARMCC_VERSION)
  30:Generated_Source\PSoC5/cyfitter_cfg.c ****     #define CYPACKED 
  31:Generated_Source\PSoC5/cyfitter_cfg.c ****     #define CYPACKED_ATTR __attribute__ ((packed))
ARM GAS  C:\Users\JEFFSN~1\AppData\Local\Temp\cclRlWK0.s 			page 2


  32:Generated_Source\PSoC5/cyfitter_cfg.c ****     #define CYALIGNED __attribute__ ((aligned))
  33:Generated_Source\PSoC5/cyfitter_cfg.c ****     #define CY_CFG_UNUSED __attribute__ ((unused))
  34:Generated_Source\PSoC5/cyfitter_cfg.c ****     #ifndef CY_CFG_SECTION
  35:Generated_Source\PSoC5/cyfitter_cfg.c ****         #define CY_CFG_SECTION __attribute__ ((section(".psocinit")))
  36:Generated_Source\PSoC5/cyfitter_cfg.c ****     #endif
  37:Generated_Source\PSoC5/cyfitter_cfg.c ****     
  38:Generated_Source\PSoC5/cyfitter_cfg.c ****     #if CYDEV_CONFIGURATION_DMA
  39:Generated_Source\PSoC5/cyfitter_cfg.c ****         #if (defined(__ARMCC_VERSION) || defined(__GNUC__))
  40:Generated_Source\PSoC5/cyfitter_cfg.c ****             #ifndef DMAINITSEC
  41:Generated_Source\PSoC5/cyfitter_cfg.c ****                 #define DMAINITSEC __attribute__ ((section(".dma_init")))
  42:Generated_Source\PSoC5/cyfitter_cfg.c ****             #endif
  43:Generated_Source\PSoC5/cyfitter_cfg.c ****         #elif defined(__ICCARM__)
  44:Generated_Source\PSoC5/cyfitter_cfg.c ****             #define DMAINITSEC _Pragma("location=\".dma_init\"")
  45:Generated_Source\PSoC5/cyfitter_cfg.c ****         #endif
  46:Generated_Source\PSoC5/cyfitter_cfg.c ****     #else
  47:Generated_Source\PSoC5/cyfitter_cfg.c ****         #define DMAINITSEC
  48:Generated_Source\PSoC5/cyfitter_cfg.c ****     #endif
  49:Generated_Source\PSoC5/cyfitter_cfg.c **** 
  50:Generated_Source\PSoC5/cyfitter_cfg.c ****     #if defined(__ARMCC_VERSION)
  51:Generated_Source\PSoC5/cyfitter_cfg.c ****         #define CY_CFG_MEMORY_BARRIER() __memory_changed()
  52:Generated_Source\PSoC5/cyfitter_cfg.c ****     #else
  53:Generated_Source\PSoC5/cyfitter_cfg.c ****         #define CY_CFG_MEMORY_BARRIER() __sync_synchronize()
  54:Generated_Source\PSoC5/cyfitter_cfg.c ****     #endif
  55:Generated_Source\PSoC5/cyfitter_cfg.c ****     
  56:Generated_Source\PSoC5/cyfitter_cfg.c **** #elif defined(__ICCARM__)
  57:Generated_Source\PSoC5/cyfitter_cfg.c ****     #include <intrinsics.h>
  58:Generated_Source\PSoC5/cyfitter_cfg.c **** 
  59:Generated_Source\PSoC5/cyfitter_cfg.c ****     #define CYPACKED __packed
  60:Generated_Source\PSoC5/cyfitter_cfg.c ****     #define CYPACKED_ATTR 
  61:Generated_Source\PSoC5/cyfitter_cfg.c ****     #define CYALIGNED _Pragma("data_alignment=4")
  62:Generated_Source\PSoC5/cyfitter_cfg.c ****     #define CY_CFG_UNUSED _Pragma("diag_suppress=Pe177")
  63:Generated_Source\PSoC5/cyfitter_cfg.c ****     #define CY_CFG_SECTION _Pragma("location=\".psocinit\"")
  64:Generated_Source\PSoC5/cyfitter_cfg.c ****     
  65:Generated_Source\PSoC5/cyfitter_cfg.c ****     #if CYDEV_CONFIGURATION_DMA
  66:Generated_Source\PSoC5/cyfitter_cfg.c ****         #if (defined(__ARMCC_VERSION) || defined(__GNUC__))
  67:Generated_Source\PSoC5/cyfitter_cfg.c ****             #ifndef DMAINITSEC
  68:Generated_Source\PSoC5/cyfitter_cfg.c ****                 #define DMAINITSEC __attribute__ ((section(".dma_init")))
  69:Generated_Source\PSoC5/cyfitter_cfg.c ****             #endif
  70:Generated_Source\PSoC5/cyfitter_cfg.c ****         #elif defined(__ICCARM__)
  71:Generated_Source\PSoC5/cyfitter_cfg.c ****             #define DMAINITSEC _Pragma("location=\".dma_init\"")
  72:Generated_Source\PSoC5/cyfitter_cfg.c ****         #endif
  73:Generated_Source\PSoC5/cyfitter_cfg.c ****     #else
  74:Generated_Source\PSoC5/cyfitter_cfg.c ****         #define DMAINITSEC
  75:Generated_Source\PSoC5/cyfitter_cfg.c ****     #endif
  76:Generated_Source\PSoC5/cyfitter_cfg.c **** 
  77:Generated_Source\PSoC5/cyfitter_cfg.c ****     #define CY_CFG_MEMORY_BARRIER() __DMB()
  78:Generated_Source\PSoC5/cyfitter_cfg.c ****     
  79:Generated_Source\PSoC5/cyfitter_cfg.c **** #else
  80:Generated_Source\PSoC5/cyfitter_cfg.c ****     #error Unsupported toolchain
  81:Generated_Source\PSoC5/cyfitter_cfg.c **** #endif
  82:Generated_Source\PSoC5/cyfitter_cfg.c **** 
  83:Generated_Source\PSoC5/cyfitter_cfg.c **** #ifndef CYCODE
  84:Generated_Source\PSoC5/cyfitter_cfg.c ****     #define CYCODE
  85:Generated_Source\PSoC5/cyfitter_cfg.c **** #endif
  86:Generated_Source\PSoC5/cyfitter_cfg.c **** #ifndef CYDATA
  87:Generated_Source\PSoC5/cyfitter_cfg.c ****     #define CYDATA
  88:Generated_Source\PSoC5/cyfitter_cfg.c **** #endif
ARM GAS  C:\Users\JEFFSN~1\AppData\Local\Temp\cclRlWK0.s 			page 3


  89:Generated_Source\PSoC5/cyfitter_cfg.c **** #ifndef CYFAR
  90:Generated_Source\PSoC5/cyfitter_cfg.c ****     #define CYFAR
  91:Generated_Source\PSoC5/cyfitter_cfg.c **** #endif
  92:Generated_Source\PSoC5/cyfitter_cfg.c **** #ifndef CYXDATA
  93:Generated_Source\PSoC5/cyfitter_cfg.c ****     #define CYXDATA
  94:Generated_Source\PSoC5/cyfitter_cfg.c **** #endif
  95:Generated_Source\PSoC5/cyfitter_cfg.c **** 
  96:Generated_Source\PSoC5/cyfitter_cfg.c **** 
  97:Generated_Source\PSoC5/cyfitter_cfg.c **** CY_CFG_UNUSED
  98:Generated_Source\PSoC5/cyfitter_cfg.c **** static void CYMEMZERO(void *s, size_t n);
  99:Generated_Source\PSoC5/cyfitter_cfg.c **** CY_CFG_UNUSED
 100:Generated_Source\PSoC5/cyfitter_cfg.c **** static void CYMEMZERO(void *s, size_t n)
 101:Generated_Source\PSoC5/cyfitter_cfg.c **** {
  27              		.loc 1 101 0
  28              		.cfi_startproc
  29              		@ args = 0, pretend = 0, frame = 8
  30              		@ frame_needed = 1, uses_anonymous_args = 0
  31 0000 80B5     		push	{r7, lr}
  32              		.cfi_def_cfa_offset 8
  33              		.cfi_offset 7, -8
  34              		.cfi_offset 14, -4
  35 0002 82B0     		sub	sp, sp, #8
  36              		.cfi_def_cfa_offset 16
  37 0004 00AF     		add	r7, sp, #0
  38              		.cfi_def_cfa_register 7
  39 0006 7860     		str	r0, [r7, #4]
  40 0008 3960     		str	r1, [r7]
 102:Generated_Source\PSoC5/cyfitter_cfg.c **** 	(void)memset(s, 0, n);
  41              		.loc 1 102 0
  42 000a 3A68     		ldr	r2, [r7]
  43 000c 0021     		movs	r1, #0
  44 000e 7868     		ldr	r0, [r7, #4]
  45 0010 FFF7FEFF 		bl	memset
 103:Generated_Source\PSoC5/cyfitter_cfg.c **** }
  46              		.loc 1 103 0
  47 0014 00BF     		nop
  48 0016 0837     		adds	r7, r7, #8
  49              		.cfi_def_cfa_offset 8
  50 0018 BD46     		mov	sp, r7
  51              		.cfi_def_cfa_register 13
  52              		@ sp needed
  53 001a 80BD     		pop	{r7, pc}
  54              		.cfi_endproc
  55              	.LFE0:
  56              		.size	CYMEMZERO, .-CYMEMZERO
  57              		.section	.text.CYCONFIGCPY,"ax",%progbits
  58              		.align	2
  59              		.thumb
  60              		.thumb_func
  61              		.type	CYCONFIGCPY, %function
  62              	CYCONFIGCPY:
  63              	.LFB1:
 104:Generated_Source\PSoC5/cyfitter_cfg.c **** CY_CFG_UNUSED
 105:Generated_Source\PSoC5/cyfitter_cfg.c **** static void CYCONFIGCPY(void *dest, const void *src, size_t n);
 106:Generated_Source\PSoC5/cyfitter_cfg.c **** CY_CFG_UNUSED
 107:Generated_Source\PSoC5/cyfitter_cfg.c **** static void CYCONFIGCPY(void *dest, const void *src, size_t n)
 108:Generated_Source\PSoC5/cyfitter_cfg.c **** {
ARM GAS  C:\Users\JEFFSN~1\AppData\Local\Temp\cclRlWK0.s 			page 4


  64              		.loc 1 108 0
  65              		.cfi_startproc
  66              		@ args = 0, pretend = 0, frame = 16
  67              		@ frame_needed = 1, uses_anonymous_args = 0
  68 0000 80B5     		push	{r7, lr}
  69              		.cfi_def_cfa_offset 8
  70              		.cfi_offset 7, -8
  71              		.cfi_offset 14, -4
  72 0002 84B0     		sub	sp, sp, #16
  73              		.cfi_def_cfa_offset 24
  74 0004 00AF     		add	r7, sp, #0
  75              		.cfi_def_cfa_register 7
  76 0006 F860     		str	r0, [r7, #12]
  77 0008 B960     		str	r1, [r7, #8]
  78 000a 7A60     		str	r2, [r7, #4]
 109:Generated_Source\PSoC5/cyfitter_cfg.c **** 	(void)memcpy(dest, src, n);
  79              		.loc 1 109 0
  80 000c 7A68     		ldr	r2, [r7, #4]
  81 000e B968     		ldr	r1, [r7, #8]
  82 0010 F868     		ldr	r0, [r7, #12]
  83 0012 FFF7FEFF 		bl	memcpy
 110:Generated_Source\PSoC5/cyfitter_cfg.c **** }
  84              		.loc 1 110 0
  85 0016 00BF     		nop
  86 0018 1037     		adds	r7, r7, #16
  87              		.cfi_def_cfa_offset 8
  88 001a BD46     		mov	sp, r7
  89              		.cfi_def_cfa_register 13
  90              		@ sp needed
  91 001c 80BD     		pop	{r7, pc}
  92              		.cfi_endproc
  93              	.LFE1:
  94              		.size	CYCONFIGCPY, .-CYCONFIGCPY
  95 001e 00BF     		.section	.text.CYCONFIGCPYCODE,"ax",%progbits
  96              		.align	2
  97              		.thumb
  98              		.thumb_func
  99              		.type	CYCONFIGCPYCODE, %function
 100              	CYCONFIGCPYCODE:
 101              	.LFB2:
 111:Generated_Source\PSoC5/cyfitter_cfg.c **** CY_CFG_UNUSED
 112:Generated_Source\PSoC5/cyfitter_cfg.c **** static void CYCONFIGCPYCODE(void *dest, const void *src, size_t n);
 113:Generated_Source\PSoC5/cyfitter_cfg.c **** CY_CFG_UNUSED
 114:Generated_Source\PSoC5/cyfitter_cfg.c **** static void CYCONFIGCPYCODE(void *dest, const void *src, size_t n)
 115:Generated_Source\PSoC5/cyfitter_cfg.c **** {
 102              		.loc 1 115 0
 103              		.cfi_startproc
 104              		@ args = 0, pretend = 0, frame = 16
 105              		@ frame_needed = 1, uses_anonymous_args = 0
 106 0000 80B5     		push	{r7, lr}
 107              		.cfi_def_cfa_offset 8
 108              		.cfi_offset 7, -8
 109              		.cfi_offset 14, -4
 110 0002 84B0     		sub	sp, sp, #16
 111              		.cfi_def_cfa_offset 24
 112 0004 00AF     		add	r7, sp, #0
 113              		.cfi_def_cfa_register 7
ARM GAS  C:\Users\JEFFSN~1\AppData\Local\Temp\cclRlWK0.s 			page 5


 114 0006 F860     		str	r0, [r7, #12]
 115 0008 B960     		str	r1, [r7, #8]
 116 000a 7A60     		str	r2, [r7, #4]
 116:Generated_Source\PSoC5/cyfitter_cfg.c **** 	(void)memcpy(dest, src, n);
 117              		.loc 1 116 0
 118 000c 7A68     		ldr	r2, [r7, #4]
 119 000e B968     		ldr	r1, [r7, #8]
 120 0010 F868     		ldr	r0, [r7, #12]
 121 0012 FFF7FEFF 		bl	memcpy
 117:Generated_Source\PSoC5/cyfitter_cfg.c **** }
 122              		.loc 1 117 0
 123 0016 00BF     		nop
 124 0018 1037     		adds	r7, r7, #16
 125              		.cfi_def_cfa_offset 8
 126 001a BD46     		mov	sp, r7
 127              		.cfi_def_cfa_register 13
 128              		@ sp needed
 129 001c 80BD     		pop	{r7, pc}
 130              		.cfi_endproc
 131              	.LFE2:
 132              		.size	CYCONFIGCPYCODE, .-CYCONFIGCPYCODE
 133 001e 00BF     		.section	.text.CyClockStartupError,"ax",%progbits
 134              		.align	2
 135              		.thumb
 136              		.thumb_func
 137              		.type	CyClockStartupError, %function
 138              	CyClockStartupError:
 139              	.LFB3:
 118:Generated_Source\PSoC5/cyfitter_cfg.c **** 
 119:Generated_Source\PSoC5/cyfitter_cfg.c **** 
 120:Generated_Source\PSoC5/cyfitter_cfg.c **** 
 121:Generated_Source\PSoC5/cyfitter_cfg.c **** 
 122:Generated_Source\PSoC5/cyfitter_cfg.c **** /* Clock startup error codes                                                   */
 123:Generated_Source\PSoC5/cyfitter_cfg.c **** #define CYCLOCKSTART_NO_ERROR    0u
 124:Generated_Source\PSoC5/cyfitter_cfg.c **** #define CYCLOCKSTART_XTAL_ERROR  1u
 125:Generated_Source\PSoC5/cyfitter_cfg.c **** #define CYCLOCKSTART_32KHZ_ERROR 2u
 126:Generated_Source\PSoC5/cyfitter_cfg.c **** #define CYCLOCKSTART_PLL_ERROR   3u
 127:Generated_Source\PSoC5/cyfitter_cfg.c **** #define CYCLOCKSTART_FLL_ERROR   4u
 128:Generated_Source\PSoC5/cyfitter_cfg.c **** #define CYCLOCKSTART_WCO_ERROR   5u
 129:Generated_Source\PSoC5/cyfitter_cfg.c **** 
 130:Generated_Source\PSoC5/cyfitter_cfg.c **** 
 131:Generated_Source\PSoC5/cyfitter_cfg.c **** #ifdef CY_NEED_CYCLOCKSTARTUPERROR
 132:Generated_Source\PSoC5/cyfitter_cfg.c **** /*******************************************************************************
 133:Generated_Source\PSoC5/cyfitter_cfg.c **** * Function Name: CyClockStartupError
 134:Generated_Source\PSoC5/cyfitter_cfg.c **** ********************************************************************************
 135:Generated_Source\PSoC5/cyfitter_cfg.c **** * Summary:
 136:Generated_Source\PSoC5/cyfitter_cfg.c **** *  If an error is encountered during clock configuration (crystal startup error,
 137:Generated_Source\PSoC5/cyfitter_cfg.c **** *  PLL lock error, etc.), the system will end up here.  Unless reimplemented by
 138:Generated_Source\PSoC5/cyfitter_cfg.c **** *  the customer, this function will stop in an infinite loop.
 139:Generated_Source\PSoC5/cyfitter_cfg.c **** *
 140:Generated_Source\PSoC5/cyfitter_cfg.c **** * Parameters:
 141:Generated_Source\PSoC5/cyfitter_cfg.c **** *   void
 142:Generated_Source\PSoC5/cyfitter_cfg.c **** *
 143:Generated_Source\PSoC5/cyfitter_cfg.c **** * Return:
 144:Generated_Source\PSoC5/cyfitter_cfg.c **** *   void
 145:Generated_Source\PSoC5/cyfitter_cfg.c **** *
 146:Generated_Source\PSoC5/cyfitter_cfg.c **** *******************************************************************************/
ARM GAS  C:\Users\JEFFSN~1\AppData\Local\Temp\cclRlWK0.s 			page 6


 147:Generated_Source\PSoC5/cyfitter_cfg.c **** CY_CFG_UNUSED
 148:Generated_Source\PSoC5/cyfitter_cfg.c **** static void CyClockStartupError(uint8 errorCode);
 149:Generated_Source\PSoC5/cyfitter_cfg.c **** CY_CFG_UNUSED
 150:Generated_Source\PSoC5/cyfitter_cfg.c **** static void CyClockStartupError(uint8 errorCode)
 151:Generated_Source\PSoC5/cyfitter_cfg.c **** {
 140              		.loc 1 151 0
 141              		.cfi_startproc
 142              		@ args = 0, pretend = 0, frame = 8
 143              		@ frame_needed = 1, uses_anonymous_args = 0
 144              		@ link register save eliminated.
 145 0000 80B4     		push	{r7}
 146              		.cfi_def_cfa_offset 4
 147              		.cfi_offset 7, -4
 148 0002 83B0     		sub	sp, sp, #12
 149              		.cfi_def_cfa_offset 16
 150 0004 00AF     		add	r7, sp, #0
 151              		.cfi_def_cfa_register 7
 152 0006 0346     		mov	r3, r0
 153 0008 FB71     		strb	r3, [r7, #7]
 154              	.L5:
 152:Generated_Source\PSoC5/cyfitter_cfg.c ****     /* To remove the compiler warning if errorCode not used.                */
 153:Generated_Source\PSoC5/cyfitter_cfg.c ****     errorCode = errorCode;
 154:Generated_Source\PSoC5/cyfitter_cfg.c **** 
 155:Generated_Source\PSoC5/cyfitter_cfg.c ****     /* If we have a clock startup error (bad MHz crystal, PLL lock, etc.),  */
 156:Generated_Source\PSoC5/cyfitter_cfg.c ****     /* we will end up here to allow the customer to implement something to  */
 157:Generated_Source\PSoC5/cyfitter_cfg.c ****     /* deal with the clock condition.                                       */
 158:Generated_Source\PSoC5/cyfitter_cfg.c **** 
 159:Generated_Source\PSoC5/cyfitter_cfg.c **** #ifdef CY_CFG_CLOCK_STARTUP_ERROR_CALLBACK
 160:Generated_Source\PSoC5/cyfitter_cfg.c ****     CY_CFG_Clock_Startup_ErrorCallback();
 161:Generated_Source\PSoC5/cyfitter_cfg.c **** #else
 162:Generated_Source\PSoC5/cyfitter_cfg.c ****     /*  If not using CY_CFG_CLOCK_STARTUP_ERROR_CALLBACK, place your clock startup code here. */
 163:Generated_Source\PSoC5/cyfitter_cfg.c ****     /* `#START CyClockStartupError` */
 164:Generated_Source\PSoC5/cyfitter_cfg.c **** 
 165:Generated_Source\PSoC5/cyfitter_cfg.c **** 
 166:Generated_Source\PSoC5/cyfitter_cfg.c **** 
 167:Generated_Source\PSoC5/cyfitter_cfg.c ****     /* `#END` */
 168:Generated_Source\PSoC5/cyfitter_cfg.c **** 
 169:Generated_Source\PSoC5/cyfitter_cfg.c ****     while(1) {}
 155              		.loc 1 169 0 discriminator 1
 156 000a FEE7     		b	.L5
 157              		.cfi_endproc
 158              	.LFE3:
 159              		.size	CyClockStartupError, .-CyClockStartupError
 160              		.section	.dma_init,"a",%progbits
 161              		.align	2
 162              		.type	CH1_ADDR_DATA0.4998, %object
 163              		.size	CH1_ADDR_DATA0.4998, 8
 164              	CH1_ADDR_DATA0.4998:
 165 0000 01       		.byte	1
 166 0001 00       		.byte	0
 167 0002 00       		.byte	0
 168 0003 00       		.byte	0
 169 0004 00       		.byte	0
 170 0005 20       		.byte	32
 171 0006 00       		.byte	0
 172 0007 40       		.byte	64
 173              		.align	2
ARM GAS  C:\Users\JEFFSN~1\AppData\Local\Temp\cclRlWK0.s 			page 7


 174              		.type	CH2_ADDR_DATA0.4999, %object
 175              		.size	CH2_ADDR_DATA0.4999, 8
 176              	CH2_ADDR_DATA0.4999:
 177 0008 01       		.byte	1
 178 0009 00       		.byte	0
 179 000a 00       		.byte	0
 180 000b 00       		.byte	0
 181 000c 00       		.byte	0
 182 000d 20       		.byte	32
 183 000e 01       		.byte	1
 184 000f 40       		.byte	64
 185              		.align	2
 186              		.type	CH5_ADDR_DATA0.5000, %object
 187              		.size	CH5_ADDR_DATA0.5000, 8
 188              	CH5_ADDR_DATA0.5000:
 189 0010 01       		.byte	1
 190 0011 00       		.byte	0
 191 0012 00       		.byte	0
 192 0013 00       		.byte	0
 193 0014 00       		.byte	0
 194 0015 48       		.byte	72
 195 0016 00       		.byte	0
 196 0017 40       		.byte	64
 197              		.align	2
 198              		.type	CH6_ADDR_DATA0.5001, %object
 199              		.size	CH6_ADDR_DATA0.5001, 8
 200              	CH6_ADDR_DATA0.5001:
 201 0018 01       		.byte	1
 202 0019 00       		.byte	0
 203 001a 00       		.byte	0
 204 001b 00       		.byte	0
 205 001c 00       		.byte	0
 206 001d 48       		.byte	72
 207 001e 01       		.byte	1
 208 001f 40       		.byte	64
 209              		.align	2
 210              		.type	DMA_TD_START_CMD.5002, %object
 211              		.size	DMA_TD_START_CMD.5002, 5
 212              	DMA_TD_START_CMD.5002:
 213 0020 01       		.byte	1
 214 0021 00       		.byte	0
 215 0022 00       		.byte	0
 216 0023 00       		.byte	0
 217 0024 01       		.byte	1
 218 0025 000000   		.align	2
 219              		.type	CFG_TD_LIST0.5004, %object
 220              		.size	CFG_TD_LIST0.5004, 592
 221              	CFG_TD_LIST0.5004:
 222 0028 0800     		.short	8
 223 002a 02       		.byte	2
 224 002b 23       		.byte	35
 225 002c 0000     		.short	0
 226 002e 0876     		.short	30216
 227 0030 0800     		.short	8
 228 0032 03       		.byte	3
 229 0033 23       		.byte	35
 230 0034 0000     		.short	0
ARM GAS  C:\Users\JEFFSN~1\AppData\Local\Temp\cclRlWK0.s 			page 8


 231 0036 1076     		.short	30224
 232 0038 0800     		.short	8
 233 003a 04       		.byte	4
 234 003b 23       		.byte	35
 235 003c 0000     		.short	0
 236 003e 2876     		.short	30248
 237 0040 0800     		.short	8
 238 0042 05       		.byte	5
 239 0043 23       		.byte	35
 240 0044 0000     		.short	0
 241 0046 3076     		.short	30256
 242 0048 0500     		.short	5
 243 004a 06       		.byte	6
 244 004b 23       		.byte	35
 245 004c 0000     		.short	0
 246 004e 2070     		.short	28704
 247 0050 0500     		.short	5
 248 0052 07       		.byte	7
 249 0053 23       		.byte	35
 250 0054 0000     		.short	0
 251 0056 3070     		.short	28720
 252 0058 0500     		.short	5
 253 005a 08       		.byte	8
 254 005b 23       		.byte	35
 255 005c 0000     		.short	0
 256 005e 6070     		.short	28768
 257 0060 0500     		.short	5
 258 0062 FE       		.byte	-2
 259 0063 23       		.byte	35
 260 0064 0000     		.short	0
 261 0066 7070     		.short	28784
 262 0068 1000     		.short	16
 263 006a FE       		.byte	-2
 264 006b 22       		.byte	34
 265 006c 0000     		.short	0
 266 006e C051     		.short	20928
 267 0070 8002     		.short	640
 268 0072 0B       		.byte	11
 269 0073 22       		.byte	34
 270 0074 0000     		.short	0
 271 0076 0000     		.short	0
 272 0078 8001     		.short	384
 273 007a 0C       		.byte	12
 274 007b 22       		.byte	34
 275 007c 0000     		.short	0
 276 007e 0004     		.short	1024
 277 0080 0002     		.short	512
 278 0082 0D       		.byte	13
 279 0083 22       		.byte	34
 280 0084 0000     		.short	0
 281 0086 0006     		.short	1536
 282 0088 8001     		.short	384
 283 008a 0E       		.byte	14
 284 008b 22       		.byte	34
 285 008c 0000     		.short	0
 286 008e 0014     		.short	5120
 287 0090 0002     		.short	512
ARM GAS  C:\Users\JEFFSN~1\AppData\Local\Temp\cclRlWK0.s 			page 9


 288 0092 0F       		.byte	15
 289 0093 22       		.byte	34
 290 0094 0000     		.short	0
 291 0096 0016     		.short	5632
 292 0098 8000     		.short	128
 293 009a 10       		.byte	16
 294 009b 22       		.byte	34
 295 009c 0000     		.short	0
 296 009e 0041     		.short	16640
 297 00a0 0002     		.short	512
 298 00a2 11       		.byte	17
 299 00a3 22       		.byte	34
 300 00a4 0000     		.short	0
 301 00a6 0042     		.short	16896
 302 00a8 8000     		.short	128
 303 00aa 12       		.byte	18
 304 00ab 22       		.byte	34
 305 00ac 0000     		.short	0
 306 00ae 0045     		.short	17664
 307 00b0 8000     		.short	128
 308 00b2 13       		.byte	19
 309 00b3 22       		.byte	34
 310 00b4 0000     		.short	0
 311 00b6 0047     		.short	18176
 312 00b8 8000     		.short	128
 313 00ba FE       		.byte	-2
 314 00bb 22       		.byte	34
 315 00bc 0000     		.short	0
 316 00be 0049     		.short	18688
 317 00c0 0700     		.short	7
 318 00c2 15       		.byte	21
 319 00c3 23       		.byte	35
 320 00c4 0000     		.short	0
 321 00c6 0852     		.short	21000
 322 00c8 0700     		.short	7
 323 00ca 16       		.byte	22
 324 00cb 23       		.byte	35
 325 00cc 0000     		.short	0
 326 00ce 1052     		.short	21008
 327 00d0 0700     		.short	7
 328 00d2 17       		.byte	23
 329 00d3 23       		.byte	35
 330 00d4 0000     		.short	0
 331 00d6 2852     		.short	21032
 332 00d8 0700     		.short	7
 333 00da 18       		.byte	24
 334 00db 23       		.byte	35
 335 00dc 0000     		.short	0
 336 00de 3052     		.short	21040
 337 00e0 4000     		.short	64
 338 00e2 19       		.byte	25
 339 00e3 23       		.byte	35
 340 00e4 0000     		.short	0
 341 00e6 0064     		.short	25600
 342 00e8 2000     		.short	32
 343 00ea 1A       		.byte	26
 344 00eb 23       		.byte	35
ARM GAS  C:\Users\JEFFSN~1\AppData\Local\Temp\cclRlWK0.s 			page 10


 345 00ec 0000     		.short	0
 346 00ee 7064     		.short	25712
 347 00f0 2000     		.short	32
 348 00f2 FE       		.byte	-2
 349 00f3 23       		.byte	35
 350 00f4 0000     		.short	0
 351 00f6 7065     		.short	25968
 352 00f8 0800     		.short	8
 353 00fa 1C       		.byte	28
 354 00fb 23       		.byte	35
 355 00fc 0000     		.short	0
 356 00fe 0051     		.short	20736
 357 0100 8000     		.short	128
 358 0102 1D       		.byte	29
 359 0103 23       		.byte	35
 360 0104 0000     		.short	0
 361 0106 8002     		.short	640
 362 0108 8000     		.short	128
 363 010a 1E       		.byte	30
 364 010b 23       		.byte	35
 365 010c 0000     		.short	0
 366 010e 0008     		.short	2048
 367 0110 8000     		.short	128
 368 0112 1F       		.byte	31
 369 0113 23       		.byte	35
 370 0114 0000     		.short	0
 371 0116 8008     		.short	2176
 372 0118 8000     		.short	128
 373 011a 20       		.byte	32
 374 011b 23       		.byte	35
 375 011c 0000     		.short	0
 376 011e 000A     		.short	2560
 377 0120 8000     		.short	128
 378 0122 21       		.byte	33
 379 0123 23       		.byte	35
 380 0124 0000     		.short	0
 381 0126 800A     		.short	2688
 382 0128 8000     		.short	128
 383 012a 22       		.byte	34
 384 012b 23       		.byte	35
 385 012c 0000     		.short	0
 386 012e 000C     		.short	3072
 387 0130 8000     		.short	128
 388 0132 23       		.byte	35
 389 0133 23       		.byte	35
 390 0134 0000     		.short	0
 391 0136 800C     		.short	3200
 392 0138 8000     		.short	128
 393 013a 24       		.byte	36
 394 013b 23       		.byte	35
 395 013c 0000     		.short	0
 396 013e 000E     		.short	3584
 397 0140 8000     		.short	128
 398 0142 25       		.byte	37
 399 0143 23       		.byte	35
 400 0144 0000     		.short	0
 401 0146 800E     		.short	3712
ARM GAS  C:\Users\JEFFSN~1\AppData\Local\Temp\cclRlWK0.s 			page 11


 402 0148 8000     		.short	128
 403 014a 26       		.byte	38
 404 014b 23       		.byte	35
 405 014c 0000     		.short	0
 406 014e 0018     		.short	6144
 407 0150 8000     		.short	128
 408 0152 27       		.byte	39
 409 0153 23       		.byte	35
 410 0154 0000     		.short	0
 411 0156 8018     		.short	6272
 412 0158 8000     		.short	128
 413 015a 28       		.byte	40
 414 015b 23       		.byte	35
 415 015c 0000     		.short	0
 416 015e 001A     		.short	6656
 417 0160 8000     		.short	128
 418 0162 29       		.byte	41
 419 0163 23       		.byte	35
 420 0164 0000     		.short	0
 421 0166 801A     		.short	6784
 422 0168 1000     		.short	16
 423 016a 2A       		.byte	42
 424 016b 23       		.byte	35
 425 016c 0000     		.short	0
 426 016e 1050     		.short	20496
 427 0170 1000     		.short	16
 428 0172 2B       		.byte	43
 429 0173 23       		.byte	35
 430 0174 0000     		.short	0
 431 0176 0050     		.short	20480
 432 0178 8000     		.short	128
 433 017a 2C       		.byte	44
 434 017b 23       		.byte	35
 435 017c 0000     		.short	0
 436 017e 004D     		.short	19712
 437 0180 8000     		.short	128
 438 0182 2D       		.byte	45
 439 0183 23       		.byte	35
 440 0184 0000     		.short	0
 441 0186 804D     		.short	19840
 442 0188 8000     		.short	128
 443 018a 2E       		.byte	46
 444 018b 23       		.byte	35
 445 018c 0000     		.short	0
 446 018e 004C     		.short	19456
 447 0190 8000     		.short	128
 448 0192 2F       		.byte	47
 449 0193 23       		.byte	35
 450 0194 0000     		.short	0
 451 0196 804C     		.short	19584
 452 0198 8000     		.short	128
 453 019a 30       		.byte	48
 454 019b 23       		.byte	35
 455 019c 0000     		.short	0
 456 019e 8047     		.short	18304
 457 01a0 8000     		.short	128
 458 01a2 31       		.byte	49
ARM GAS  C:\Users\JEFFSN~1\AppData\Local\Temp\cclRlWK0.s 			page 12


 459 01a3 23       		.byte	35
 460 01a4 0000     		.short	0
 461 01a6 0046     		.short	17920
 462 01a8 8000     		.short	128
 463 01aa 32       		.byte	50
 464 01ab 23       		.byte	35
 465 01ac 0000     		.short	0
 466 01ae 8046     		.short	18048
 467 01b0 8000     		.short	128
 468 01b2 33       		.byte	51
 469 01b3 23       		.byte	35
 470 01b4 0000     		.short	0
 471 01b6 8045     		.short	17792
 472 01b8 8000     		.short	128
 473 01ba 34       		.byte	52
 474 01bb 23       		.byte	35
 475 01bc 0000     		.short	0
 476 01be 0044     		.short	17408
 477 01c0 8000     		.short	128
 478 01c2 35       		.byte	53
 479 01c3 23       		.byte	35
 480 01c4 0000     		.short	0
 481 01c6 8044     		.short	17536
 482 01c8 8000     		.short	128
 483 01ca 36       		.byte	54
 484 01cb 23       		.byte	35
 485 01cc 0000     		.short	0
 486 01ce 001B     		.short	6912
 487 01d0 8000     		.short	128
 488 01d2 37       		.byte	55
 489 01d3 23       		.byte	35
 490 01d4 0000     		.short	0
 491 01d6 801B     		.short	7040
 492 01d8 8000     		.short	128
 493 01da 38       		.byte	56
 494 01db 23       		.byte	35
 495 01dc 0000     		.short	0
 496 01de 8015     		.short	5504
 497 01e0 8000     		.short	128
 498 01e2 39       		.byte	57
 499 01e3 23       		.byte	35
 500 01e4 0000     		.short	0
 501 01e6 0019     		.short	6400
 502 01e8 8000     		.short	128
 503 01ea 3A       		.byte	58
 504 01eb 23       		.byte	35
 505 01ec 0000     		.short	0
 506 01ee 8019     		.short	6528
 507 01f0 8000     		.short	128
 508 01f2 3B       		.byte	59
 509 01f3 23       		.byte	35
 510 01f4 0000     		.short	0
 511 01f6 0009     		.short	2304
 512 01f8 8000     		.short	128
 513 01fa 3C       		.byte	60
 514 01fb 23       		.byte	35
 515 01fc 0000     		.short	0
ARM GAS  C:\Users\JEFFSN~1\AppData\Local\Temp\cclRlWK0.s 			page 13


 516 01fe 8009     		.short	2432
 517 0200 8000     		.short	128
 518 0202 3D       		.byte	61
 519 0203 23       		.byte	35
 520 0204 0000     		.short	0
 521 0206 000B     		.short	2816
 522 0208 8000     		.short	128
 523 020a 3E       		.byte	62
 524 020b 23       		.byte	35
 525 020c 0000     		.short	0
 526 020e 800B     		.short	2944
 527 0210 8000     		.short	128
 528 0212 3F       		.byte	63
 529 0213 23       		.byte	35
 530 0214 0000     		.short	0
 531 0216 8005     		.short	1408
 532 0218 8000     		.short	128
 533 021a 40       		.byte	64
 534 021b 23       		.byte	35
 535 021c 0000     		.short	0
 536 021e 000D     		.short	3328
 537 0220 8000     		.short	128
 538 0222 41       		.byte	65
 539 0223 23       		.byte	35
 540 0224 0000     		.short	0
 541 0226 800D     		.short	3456
 542 0228 8000     		.short	128
 543 022a 42       		.byte	66
 544 022b 23       		.byte	35
 545 022c 0000     		.short	0
 546 022e 0003     		.short	768
 547 0230 8000     		.short	128
 548 0232 43       		.byte	67
 549 0233 23       		.byte	35
 550 0234 0000     		.short	0
 551 0236 8003     		.short	896
 552 0238 8000     		.short	128
 553 023a 44       		.byte	68
 554 023b 23       		.byte	35
 555 023c 0000     		.short	0
 556 023e 000F     		.short	3840
 557 0240 8000     		.short	128
 558 0242 45       		.byte	69
 559 0243 23       		.byte	35
 560 0244 0000     		.short	0
 561 0246 800F     		.short	3968
 562 0248 8000     		.short	128
 563 024a 46       		.byte	70
 564 024b 23       		.byte	35
 565 024c 0000     		.short	0
 566 024e 8049     		.short	18816
 567 0250 8000     		.short	128
 568 0252 47       		.byte	71
 569 0253 23       		.byte	35
 570 0254 0000     		.short	0
 571 0256 0048     		.short	18432
 572 0258 8000     		.short	128
ARM GAS  C:\Users\JEFFSN~1\AppData\Local\Temp\cclRlWK0.s 			page 14


 573 025a 48       		.byte	72
 574 025b 23       		.byte	35
 575 025c 0000     		.short	0
 576 025e 8048     		.short	18560
 577 0260 8000     		.short	128
 578 0262 49       		.byte	73
 579 0263 23       		.byte	35
 580 0264 0000     		.short	0
 581 0266 8041     		.short	16768
 582 0268 8000     		.short	128
 583 026a 4A       		.byte	74
 584 026b 23       		.byte	35
 585 026c 0000     		.short	0
 586 026e 0040     		.short	16384
 587 0270 8000     		.short	128
 588 0272 FE       		.byte	-2
 589 0273 23       		.byte	35
 590 0274 0000     		.short	0
 591 0276 8040     		.short	16512
 592              		.section	.text.cfg_dma_init,"ax",%progbits
 593              		.align	2
 594              		.thumb
 595              		.thumb_func
 596              		.type	cfg_dma_init, %function
 597              	cfg_dma_init:
 598              	.LFB4:
 170:Generated_Source\PSoC5/cyfitter_cfg.c **** #endif /* CY_CFG_CLOCK_STARTUP_ERROR_CALLBACK */
 171:Generated_Source\PSoC5/cyfitter_cfg.c **** }
 172:Generated_Source\PSoC5/cyfitter_cfg.c **** #endif
 173:Generated_Source\PSoC5/cyfitter_cfg.c **** 
 174:Generated_Source\PSoC5/cyfitter_cfg.c **** /* IOPORT_1 Address: CYDEV_PRTDSI_PRT1_BASE Size (bytes): 7 */
 175:Generated_Source\PSoC5/cyfitter_cfg.c **** #define BS_IOPORT_1_VAL ((const uint8 CYFAR *)0x48000000u)
 176:Generated_Source\PSoC5/cyfitter_cfg.c **** 
 177:Generated_Source\PSoC5/cyfitter_cfg.c **** /* IOPORT_2 Address: CYDEV_PRTDSI_PRT2_BASE Size (bytes): 7 */
 178:Generated_Source\PSoC5/cyfitter_cfg.c **** #define BS_IOPORT_2_VAL ((const uint8 CYFAR *)0x48000008u)
 179:Generated_Source\PSoC5/cyfitter_cfg.c **** 
 180:Generated_Source\PSoC5/cyfitter_cfg.c **** /* IOPORT_5 Address: CYDEV_PRTDSI_PRT5_BASE Size (bytes): 7 */
 181:Generated_Source\PSoC5/cyfitter_cfg.c **** #define BS_IOPORT_5_VAL ((const uint8 CYFAR *)0x48000010u)
 182:Generated_Source\PSoC5/cyfitter_cfg.c **** 
 183:Generated_Source\PSoC5/cyfitter_cfg.c **** /* IOPORT_6 Address: CYDEV_PRTDSI_PRT6_BASE Size (bytes): 7 */
 184:Generated_Source\PSoC5/cyfitter_cfg.c **** #define BS_IOPORT_6_VAL ((const uint8 CYFAR *)0x48000018u)
 185:Generated_Source\PSoC5/cyfitter_cfg.c **** 
 186:Generated_Source\PSoC5/cyfitter_cfg.c **** /* IDMUX_IRQ Address: CYREG_IDMUX_IRQ_CTL0 Size (bytes): 8 */
 187:Generated_Source\PSoC5/cyfitter_cfg.c **** #define BS_IDMUX_IRQ_VAL ((const uint8 CYFAR *)0x48000020u)
 188:Generated_Source\PSoC5/cyfitter_cfg.c **** 
 189:Generated_Source\PSoC5/cyfitter_cfg.c **** /* UDB_1_4_0_CONFIG Address: CYDEV_UCFG_B0_P1_U1_BASE Size (bytes): 128 */
 190:Generated_Source\PSoC5/cyfitter_cfg.c **** #define BS_UDB_1_4_0_CONFIG_VAL ((const uint8 CYFAR *)0x48000028u)
 191:Generated_Source\PSoC5/cyfitter_cfg.c **** 
 192:Generated_Source\PSoC5/cyfitter_cfg.c **** /* UDB_0_2_1_CONFIG Address: CYDEV_UCFG_B0_P4_U0_BASE Size (bytes): 128 */
 193:Generated_Source\PSoC5/cyfitter_cfg.c **** #define BS_UDB_0_2_1_CONFIG_VAL ((const uint8 CYFAR *)0x480000A8u)
 194:Generated_Source\PSoC5/cyfitter_cfg.c **** 
 195:Generated_Source\PSoC5/cyfitter_cfg.c **** /* UDB_0_2_0_CONFIG Address: CYDEV_UCFG_B0_P4_U1_BASE Size (bytes): 128 */
 196:Generated_Source\PSoC5/cyfitter_cfg.c **** #define BS_UDB_0_2_0_CONFIG_VAL ((const uint8 CYFAR *)0x48000128u)
 197:Generated_Source\PSoC5/cyfitter_cfg.c **** 
 198:Generated_Source\PSoC5/cyfitter_cfg.c **** /* UDB_0_3_0_CONFIG Address: CYDEV_UCFG_B0_P5_U0_BASE Size (bytes): 128 */
 199:Generated_Source\PSoC5/cyfitter_cfg.c **** #define BS_UDB_0_3_0_CONFIG_VAL ((const uint8 CYFAR *)0x480001A8u)
 200:Generated_Source\PSoC5/cyfitter_cfg.c **** 
ARM GAS  C:\Users\JEFFSN~1\AppData\Local\Temp\cclRlWK0.s 			page 15


 201:Generated_Source\PSoC5/cyfitter_cfg.c **** /* UDB_0_3_1_CONFIG Address: CYDEV_UCFG_B0_P5_U1_BASE Size (bytes): 128 */
 202:Generated_Source\PSoC5/cyfitter_cfg.c **** #define BS_UDB_0_3_1_CONFIG_VAL ((const uint8 CYFAR *)0x48000228u)
 203:Generated_Source\PSoC5/cyfitter_cfg.c **** 
 204:Generated_Source\PSoC5/cyfitter_cfg.c **** /* UDB_0_4_1_CONFIG Address: CYDEV_UCFG_B0_P6_U0_BASE Size (bytes): 128 */
 205:Generated_Source\PSoC5/cyfitter_cfg.c **** #define BS_UDB_0_4_1_CONFIG_VAL ((const uint8 CYFAR *)0x480002A8u)
 206:Generated_Source\PSoC5/cyfitter_cfg.c **** 
 207:Generated_Source\PSoC5/cyfitter_cfg.c **** /* UDB_0_4_0_CONFIG Address: CYDEV_UCFG_B0_P6_U1_BASE Size (bytes): 128 */
 208:Generated_Source\PSoC5/cyfitter_cfg.c **** #define BS_UDB_0_4_0_CONFIG_VAL ((const uint8 CYFAR *)0x48000328u)
 209:Generated_Source\PSoC5/cyfitter_cfg.c **** 
 210:Generated_Source\PSoC5/cyfitter_cfg.c **** /* UDB_0_5_0_CONFIG Address: CYDEV_UCFG_B0_P7_U0_BASE Size (bytes): 128 */
 211:Generated_Source\PSoC5/cyfitter_cfg.c **** #define BS_UDB_0_5_0_CONFIG_VAL ((const uint8 CYFAR *)0x480003A8u)
 212:Generated_Source\PSoC5/cyfitter_cfg.c **** 
 213:Generated_Source\PSoC5/cyfitter_cfg.c **** /* UDB_0_5_1_CONFIG Address: CYDEV_UCFG_B0_P7_U1_BASE Size (bytes): 128 */
 214:Generated_Source\PSoC5/cyfitter_cfg.c **** #define BS_UDB_0_5_1_CONFIG_VAL ((const uint8 CYFAR *)0x48000428u)
 215:Generated_Source\PSoC5/cyfitter_cfg.c **** 
 216:Generated_Source\PSoC5/cyfitter_cfg.c **** /* UDB_0_1_1_CONFIG Address: CYDEV_UCFG_B1_P4_U0_BASE Size (bytes): 128 */
 217:Generated_Source\PSoC5/cyfitter_cfg.c **** #define BS_UDB_0_1_1_CONFIG_VAL ((const uint8 CYFAR *)0x480004A8u)
 218:Generated_Source\PSoC5/cyfitter_cfg.c **** 
 219:Generated_Source\PSoC5/cyfitter_cfg.c **** /* UDB_0_1_0_CONFIG Address: CYDEV_UCFG_B1_P4_U1_BASE Size (bytes): 128 */
 220:Generated_Source\PSoC5/cyfitter_cfg.c **** #define BS_UDB_0_1_0_CONFIG_VAL ((const uint8 CYFAR *)0x48000528u)
 221:Generated_Source\PSoC5/cyfitter_cfg.c **** 
 222:Generated_Source\PSoC5/cyfitter_cfg.c **** /* UDB_0_0_0_CONFIG Address: CYDEV_UCFG_B1_P5_U0_BASE Size (bytes): 128 */
 223:Generated_Source\PSoC5/cyfitter_cfg.c **** #define BS_UDB_0_0_0_CONFIG_VAL ((const uint8 CYFAR *)0x480005A8u)
 224:Generated_Source\PSoC5/cyfitter_cfg.c **** 
 225:Generated_Source\PSoC5/cyfitter_cfg.c **** /* UDB_0_0_1_CONFIG Address: CYDEV_UCFG_B1_P5_U1_BASE Size (bytes): 128 */
 226:Generated_Source\PSoC5/cyfitter_cfg.c **** #define BS_UDB_0_0_1_CONFIG_VAL ((const uint8 CYFAR *)0x48000628u)
 227:Generated_Source\PSoC5/cyfitter_cfg.c **** 
 228:Generated_Source\PSoC5/cyfitter_cfg.c **** /* UWRK_B0_WRK_DP_BITS Address: CYDEV_UWRK_UWRK8_B0_BASE Size (bytes): 64 */
 229:Generated_Source\PSoC5/cyfitter_cfg.c **** #define BS_UWRK_B0_WRK_DP_BITS_VAL ((const uint8 CYFAR *)0x480006A8u)
 230:Generated_Source\PSoC5/cyfitter_cfg.c **** 
 231:Generated_Source\PSoC5/cyfitter_cfg.c **** /* UWRK_B0_WRK_STATCTL_BITS Address: CYDEV_UWRK_UWRK8_B0_BASE + 0x00000070u Size (bytes): 32 */
 232:Generated_Source\PSoC5/cyfitter_cfg.c **** #define BS_UWRK_B0_WRK_STATCTL_BITS_VAL ((const uint8 CYFAR *)0x480006E8u)
 233:Generated_Source\PSoC5/cyfitter_cfg.c **** 
 234:Generated_Source\PSoC5/cyfitter_cfg.c **** /* UWRK_B1_WRK_STATCTL_BITS Address: CYDEV_UWRK_UWRK8_B1_BASE + 0x00000070u Size (bytes): 32 */
 235:Generated_Source\PSoC5/cyfitter_cfg.c **** #define BS_UWRK_B1_WRK_STATCTL_BITS_VAL ((const uint8 CYFAR *)0x48000708u)
 236:Generated_Source\PSoC5/cyfitter_cfg.c **** 
 237:Generated_Source\PSoC5/cyfitter_cfg.c **** /* UCFG_BCTL1 Address: CYREG_BCTL1_MDCLK_EN Size (bytes): 16 */
 238:Generated_Source\PSoC5/cyfitter_cfg.c **** #define BS_UCFG_BCTL1_VAL ((const uint8 CYFAR *)0x48000728u)
 239:Generated_Source\PSoC5/cyfitter_cfg.c **** 
 240:Generated_Source\PSoC5/cyfitter_cfg.c **** /* UCFG_BCTL0 Address: CYREG_BCTL0_MDCLK_EN Size (bytes): 16 */
 241:Generated_Source\PSoC5/cyfitter_cfg.c **** #define BS_UCFG_BCTL0_VAL ((const uint8 CYFAR *)0x48000738u)
 242:Generated_Source\PSoC5/cyfitter_cfg.c **** 
 243:Generated_Source\PSoC5/cyfitter_cfg.c **** /* DSISWITCH_0_0 Address: CYDEV_UCFG_DSI13_BASE Size (bytes): 128 */
 244:Generated_Source\PSoC5/cyfitter_cfg.c **** #define BS_DSISWITCH_0_0_VAL ((const uint8 CYFAR *)0x48000748u)
 245:Generated_Source\PSoC5/cyfitter_cfg.c **** 
 246:Generated_Source\PSoC5/cyfitter_cfg.c **** /* DSI0_0_HV_ROUTING Address: CYDEV_UCFG_DSI13_BASE + 0x00000080u Size (bytes): 128 */
 247:Generated_Source\PSoC5/cyfitter_cfg.c **** #define BS_DSI0_0_HV_ROUTING_VAL ((const uint8 CYFAR *)0x480007C8u)
 248:Generated_Source\PSoC5/cyfitter_cfg.c **** 
 249:Generated_Source\PSoC5/cyfitter_cfg.c **** /* DSISWITCH_0_1 Address: CYDEV_UCFG_DSI12_BASE Size (bytes): 128 */
 250:Generated_Source\PSoC5/cyfitter_cfg.c **** #define BS_DSISWITCH_0_1_VAL ((const uint8 CYFAR *)0x48000848u)
 251:Generated_Source\PSoC5/cyfitter_cfg.c **** 
 252:Generated_Source\PSoC5/cyfitter_cfg.c **** /* DSI0_1_HV_ROUTING Address: CYDEV_UCFG_DSI12_BASE + 0x00000080u Size (bytes): 128 */
 253:Generated_Source\PSoC5/cyfitter_cfg.c **** #define BS_DSI0_1_HV_ROUTING_VAL ((const uint8 CYFAR *)0x480008C8u)
 254:Generated_Source\PSoC5/cyfitter_cfg.c **** 
 255:Generated_Source\PSoC5/cyfitter_cfg.c **** /* DSI0_2_HV_ROUTING Address: CYDEV_UCFG_DSI7_BASE + 0x00000080u Size (bytes): 128 */
 256:Generated_Source\PSoC5/cyfitter_cfg.c **** #define BS_DSI0_2_HV_ROUTING_VAL ((const uint8 CYFAR *)0x48000948u)
 257:Generated_Source\PSoC5/cyfitter_cfg.c **** 
ARM GAS  C:\Users\JEFFSN~1\AppData\Local\Temp\cclRlWK0.s 			page 16


 258:Generated_Source\PSoC5/cyfitter_cfg.c **** /* DSISWITCH_0_3 Address: CYDEV_UCFG_DSI6_BASE Size (bytes): 128 */
 259:Generated_Source\PSoC5/cyfitter_cfg.c **** #define BS_DSISWITCH_0_3_VAL ((const uint8 CYFAR *)0x480009C8u)
 260:Generated_Source\PSoC5/cyfitter_cfg.c **** 
 261:Generated_Source\PSoC5/cyfitter_cfg.c **** /* DSI0_3_HV_ROUTING Address: CYDEV_UCFG_DSI6_BASE + 0x00000080u Size (bytes): 128 */
 262:Generated_Source\PSoC5/cyfitter_cfg.c **** #define BS_DSI0_3_HV_ROUTING_VAL ((const uint8 CYFAR *)0x48000A48u)
 263:Generated_Source\PSoC5/cyfitter_cfg.c **** 
 264:Generated_Source\PSoC5/cyfitter_cfg.c **** /* DSI0_4_HV_ROUTING Address: CYDEV_UCFG_DSI5_BASE + 0x00000080u Size (bytes): 128 */
 265:Generated_Source\PSoC5/cyfitter_cfg.c **** #define BS_DSI0_4_HV_ROUTING_VAL ((const uint8 CYFAR *)0x48000AC8u)
 266:Generated_Source\PSoC5/cyfitter_cfg.c **** 
 267:Generated_Source\PSoC5/cyfitter_cfg.c **** /* DSISWITCH_0_5 Address: CYDEV_UCFG_DSI4_BASE Size (bytes): 128 */
 268:Generated_Source\PSoC5/cyfitter_cfg.c **** #define BS_DSISWITCH_0_5_VAL ((const uint8 CYFAR *)0x48000B48u)
 269:Generated_Source\PSoC5/cyfitter_cfg.c **** 
 270:Generated_Source\PSoC5/cyfitter_cfg.c **** /* DSI0_5_HV_ROUTING Address: CYDEV_UCFG_DSI4_BASE + 0x00000080u Size (bytes): 128 */
 271:Generated_Source\PSoC5/cyfitter_cfg.c **** #define BS_DSI0_5_HV_ROUTING_VAL ((const uint8 CYFAR *)0x48000BC8u)
 272:Generated_Source\PSoC5/cyfitter_cfg.c **** 
 273:Generated_Source\PSoC5/cyfitter_cfg.c **** /* UDBSWITCH_0_0 Address: CYDEV_UCFG_B1_P5_ROUTE_BASE Size (bytes): 128 */
 274:Generated_Source\PSoC5/cyfitter_cfg.c **** #define BS_UDBSWITCH_0_0_VAL ((const uint8 CYFAR *)0x48000C48u)
 275:Generated_Source\PSoC5/cyfitter_cfg.c **** 
 276:Generated_Source\PSoC5/cyfitter_cfg.c **** /* UDB_1_0_HV_ROUTING Address: CYDEV_UCFG_B1_P5_ROUTE_BASE + 0x00000080u Size (bytes): 128 */
 277:Generated_Source\PSoC5/cyfitter_cfg.c **** #define BS_UDB_1_0_HV_ROUTING_VAL ((const uint8 CYFAR *)0x48000CC8u)
 278:Generated_Source\PSoC5/cyfitter_cfg.c **** 
 279:Generated_Source\PSoC5/cyfitter_cfg.c **** /* UDB_2_0_HV_ROUTING Address: CYDEV_UCFG_B1_P2_ROUTE_BASE + 0x00000080u Size (bytes): 128 */
 280:Generated_Source\PSoC5/cyfitter_cfg.c **** #define BS_UDB_2_0_HV_ROUTING_VAL ((const uint8 CYFAR *)0x48000D48u)
 281:Generated_Source\PSoC5/cyfitter_cfg.c **** 
 282:Generated_Source\PSoC5/cyfitter_cfg.c **** /* UDBSWITCH_0_1 Address: CYDEV_UCFG_B1_P4_ROUTE_BASE Size (bytes): 128 */
 283:Generated_Source\PSoC5/cyfitter_cfg.c **** #define BS_UDBSWITCH_0_1_VAL ((const uint8 CYFAR *)0x48000DC8u)
 284:Generated_Source\PSoC5/cyfitter_cfg.c **** 
 285:Generated_Source\PSoC5/cyfitter_cfg.c **** /* UDB_1_1_HV_ROUTING Address: CYDEV_UCFG_B1_P4_ROUTE_BASE + 0x00000080u Size (bytes): 128 */
 286:Generated_Source\PSoC5/cyfitter_cfg.c **** #define BS_UDB_1_1_HV_ROUTING_VAL ((const uint8 CYFAR *)0x48000E48u)
 287:Generated_Source\PSoC5/cyfitter_cfg.c **** 
 288:Generated_Source\PSoC5/cyfitter_cfg.c **** /* UDBSWITCH_0_2 Address: CYDEV_UCFG_B0_P4_ROUTE_BASE Size (bytes): 128 */
 289:Generated_Source\PSoC5/cyfitter_cfg.c **** #define BS_UDBSWITCH_0_2_VAL ((const uint8 CYFAR *)0x48000EC8u)
 290:Generated_Source\PSoC5/cyfitter_cfg.c **** 
 291:Generated_Source\PSoC5/cyfitter_cfg.c **** /* UDB_1_2_HV_ROUTING Address: CYDEV_UCFG_B0_P4_ROUTE_BASE + 0x00000080u Size (bytes): 128 */
 292:Generated_Source\PSoC5/cyfitter_cfg.c **** #define BS_UDB_1_2_HV_ROUTING_VAL ((const uint8 CYFAR *)0x48000F48u)
 293:Generated_Source\PSoC5/cyfitter_cfg.c **** 
 294:Generated_Source\PSoC5/cyfitter_cfg.c **** /* UDBSWITCH_0_3 Address: CYDEV_UCFG_B0_P5_ROUTE_BASE Size (bytes): 128 */
 295:Generated_Source\PSoC5/cyfitter_cfg.c **** #define BS_UDBSWITCH_0_3_VAL ((const uint8 CYFAR *)0x48000FC8u)
 296:Generated_Source\PSoC5/cyfitter_cfg.c **** 
 297:Generated_Source\PSoC5/cyfitter_cfg.c **** /* UDB_1_3_HV_ROUTING Address: CYDEV_UCFG_B0_P5_ROUTE_BASE + 0x00000080u Size (bytes): 128 */
 298:Generated_Source\PSoC5/cyfitter_cfg.c **** #define BS_UDB_1_3_HV_ROUTING_VAL ((const uint8 CYFAR *)0x48001048u)
 299:Generated_Source\PSoC5/cyfitter_cfg.c **** 
 300:Generated_Source\PSoC5/cyfitter_cfg.c **** /* UDB_2_3_HV_ROUTING Address: CYDEV_UCFG_B0_P2_ROUTE_BASE + 0x00000080u Size (bytes): 128 */
 301:Generated_Source\PSoC5/cyfitter_cfg.c **** #define BS_UDB_2_3_HV_ROUTING_VAL ((const uint8 CYFAR *)0x480010C8u)
 302:Generated_Source\PSoC5/cyfitter_cfg.c **** 
 303:Generated_Source\PSoC5/cyfitter_cfg.c **** /* UDBSWITCH_0_4 Address: CYDEV_UCFG_B0_P6_ROUTE_BASE Size (bytes): 128 */
 304:Generated_Source\PSoC5/cyfitter_cfg.c **** #define BS_UDBSWITCH_0_4_VAL ((const uint8 CYFAR *)0x48001148u)
 305:Generated_Source\PSoC5/cyfitter_cfg.c **** 
 306:Generated_Source\PSoC5/cyfitter_cfg.c **** /* UDB_1_4_HV_ROUTING Address: CYDEV_UCFG_B0_P6_ROUTE_BASE + 0x00000080u Size (bytes): 128 */
 307:Generated_Source\PSoC5/cyfitter_cfg.c **** #define BS_UDB_1_4_HV_ROUTING_VAL ((const uint8 CYFAR *)0x480011C8u)
 308:Generated_Source\PSoC5/cyfitter_cfg.c **** 
 309:Generated_Source\PSoC5/cyfitter_cfg.c **** /* UDBSWITCH_1_4 Address: CYDEV_UCFG_B0_P1_ROUTE_BASE Size (bytes): 128 */
 310:Generated_Source\PSoC5/cyfitter_cfg.c **** #define BS_UDBSWITCH_1_4_VAL ((const uint8 CYFAR *)0x48001248u)
 311:Generated_Source\PSoC5/cyfitter_cfg.c **** 
 312:Generated_Source\PSoC5/cyfitter_cfg.c **** /* UDB_2_4_HV_ROUTING Address: CYDEV_UCFG_B0_P1_ROUTE_BASE + 0x00000080u Size (bytes): 128 */
 313:Generated_Source\PSoC5/cyfitter_cfg.c **** #define BS_UDB_2_4_HV_ROUTING_VAL ((const uint8 CYFAR *)0x480012C8u)
 314:Generated_Source\PSoC5/cyfitter_cfg.c **** 
ARM GAS  C:\Users\JEFFSN~1\AppData\Local\Temp\cclRlWK0.s 			page 17


 315:Generated_Source\PSoC5/cyfitter_cfg.c **** /* UDBSWITCH_0_5 Address: CYDEV_UCFG_B0_P7_ROUTE_BASE Size (bytes): 128 */
 316:Generated_Source\PSoC5/cyfitter_cfg.c **** #define BS_UDBSWITCH_0_5_VAL ((const uint8 CYFAR *)0x48001348u)
 317:Generated_Source\PSoC5/cyfitter_cfg.c **** 
 318:Generated_Source\PSoC5/cyfitter_cfg.c **** /* UDB_1_5_HV_ROUTING Address: CYDEV_UCFG_B0_P7_ROUTE_BASE + 0x00000080u Size (bytes): 128 */
 319:Generated_Source\PSoC5/cyfitter_cfg.c **** #define BS_UDB_1_5_HV_ROUTING_VAL ((const uint8 CYFAR *)0x480013C8u)
 320:Generated_Source\PSoC5/cyfitter_cfg.c **** 
 321:Generated_Source\PSoC5/cyfitter_cfg.c **** /* DSI3_0_HV_ROUTING Address: CYDEV_UCFG_DSI9_BASE + 0x00000080u Size (bytes): 128 */
 322:Generated_Source\PSoC5/cyfitter_cfg.c **** #define BS_DSI3_0_HV_ROUTING_VAL ((const uint8 CYFAR *)0x48001448u)
 323:Generated_Source\PSoC5/cyfitter_cfg.c **** 
 324:Generated_Source\PSoC5/cyfitter_cfg.c **** /* DSISWITCH_1_1 Address: CYDEV_UCFG_DSI8_BASE Size (bytes): 128 */
 325:Generated_Source\PSoC5/cyfitter_cfg.c **** #define BS_DSISWITCH_1_1_VAL ((const uint8 CYFAR *)0x480014C8u)
 326:Generated_Source\PSoC5/cyfitter_cfg.c **** 
 327:Generated_Source\PSoC5/cyfitter_cfg.c **** /* DSI3_1_HV_ROUTING Address: CYDEV_UCFG_DSI8_BASE + 0x00000080u Size (bytes): 128 */
 328:Generated_Source\PSoC5/cyfitter_cfg.c **** #define BS_DSI3_1_HV_ROUTING_VAL ((const uint8 CYFAR *)0x48001548u)
 329:Generated_Source\PSoC5/cyfitter_cfg.c **** 
 330:Generated_Source\PSoC5/cyfitter_cfg.c **** /* DSI3_4_HV_ROUTING Address: CYDEV_UCFG_DSI1_BASE + 0x00000080u Size (bytes): 128 */
 331:Generated_Source\PSoC5/cyfitter_cfg.c **** #define BS_DSI3_4_HV_ROUTING_VAL ((const uint8 CYFAR *)0x480015C8u)
 332:Generated_Source\PSoC5/cyfitter_cfg.c **** 
 333:Generated_Source\PSoC5/cyfitter_cfg.c **** /* DSISWITCH_1_5 Address: CYDEV_UCFG_DSI0_BASE Size (bytes): 128 */
 334:Generated_Source\PSoC5/cyfitter_cfg.c **** #define BS_DSISWITCH_1_5_VAL ((const uint8 CYFAR *)0x48001648u)
 335:Generated_Source\PSoC5/cyfitter_cfg.c **** 
 336:Generated_Source\PSoC5/cyfitter_cfg.c **** /* DSI3_5_HV_ROUTING Address: CYDEV_UCFG_DSI0_BASE + 0x00000080u Size (bytes): 128 */
 337:Generated_Source\PSoC5/cyfitter_cfg.c **** #define BS_DSI3_5_HV_ROUTING_VAL ((const uint8 CYFAR *)0x480016C8u)
 338:Generated_Source\PSoC5/cyfitter_cfg.c **** 
 339:Generated_Source\PSoC5/cyfitter_cfg.c **** /* IOPINS0_0 Address: CYREG_PRT0_DM0 Size (bytes): 8 */
 340:Generated_Source\PSoC5/cyfitter_cfg.c **** #define BS_IOPINS0_0_VAL ((const uint8 CYFAR *)0x48001748u)
 341:Generated_Source\PSoC5/cyfitter_cfg.c **** 
 342:Generated_Source\PSoC5/cyfitter_cfg.c **** /* IOPINS0_8 Address: CYREG_PRT15_DM0 Size (bytes): 8 */
 343:Generated_Source\PSoC5/cyfitter_cfg.c **** #define BS_IOPINS0_8_VAL ((const uint8 CYFAR *)0x48001750u)
 344:Generated_Source\PSoC5/cyfitter_cfg.c **** 
 345:Generated_Source\PSoC5/cyfitter_cfg.c **** /* IOPINS0_1 Address: CYREG_PRT1_DM0 Size (bytes): 8 */
 346:Generated_Source\PSoC5/cyfitter_cfg.c **** #define BS_IOPINS0_1_VAL ((const uint8 CYFAR *)0x48001758u)
 347:Generated_Source\PSoC5/cyfitter_cfg.c **** 
 348:Generated_Source\PSoC5/cyfitter_cfg.c **** /* IOPINS0_2 Address: CYREG_PRT2_DM0 Size (bytes): 8 */
 349:Generated_Source\PSoC5/cyfitter_cfg.c **** #define BS_IOPINS0_2_VAL ((const uint8 CYFAR *)0x48001760u)
 350:Generated_Source\PSoC5/cyfitter_cfg.c **** 
 351:Generated_Source\PSoC5/cyfitter_cfg.c **** /* IOPINS0_3 Address: CYREG_PRT3_DM0 Size (bytes): 8 */
 352:Generated_Source\PSoC5/cyfitter_cfg.c **** #define BS_IOPINS0_3_VAL ((const uint8 CYFAR *)0x48001768u)
 353:Generated_Source\PSoC5/cyfitter_cfg.c **** 
 354:Generated_Source\PSoC5/cyfitter_cfg.c **** /* IOPINS0_4 Address: CYREG_PRT4_DM0 Size (bytes): 8 */
 355:Generated_Source\PSoC5/cyfitter_cfg.c **** #define BS_IOPINS0_4_VAL ((const uint8 CYFAR *)0x48001770u)
 356:Generated_Source\PSoC5/cyfitter_cfg.c **** 
 357:Generated_Source\PSoC5/cyfitter_cfg.c **** /* IOPINS0_5 Address: CYREG_PRT5_DM0 Size (bytes): 8 */
 358:Generated_Source\PSoC5/cyfitter_cfg.c **** #define BS_IOPINS0_5_VAL ((const uint8 CYFAR *)0x48001778u)
 359:Generated_Source\PSoC5/cyfitter_cfg.c **** 
 360:Generated_Source\PSoC5/cyfitter_cfg.c **** /* IOPINS0_6 Address: CYREG_PRT6_DM0 Size (bytes): 8 */
 361:Generated_Source\PSoC5/cyfitter_cfg.c **** #define BS_IOPINS0_6_VAL ((const uint8 CYFAR *)0x48001780u)
 362:Generated_Source\PSoC5/cyfitter_cfg.c **** 
 363:Generated_Source\PSoC5/cyfitter_cfg.c **** /* CYDEV_CLKDIST_ACFG0_CFG0 Address: CYREG_CLKDIST_ACFG0_CFG0 Size (bytes): 4 */
 364:Generated_Source\PSoC5/cyfitter_cfg.c **** #define BS_CYDEV_CLKDIST_ACFG0_CFG0_VAL ((const uint8 CYFAR *)0x48001788u)
 365:Generated_Source\PSoC5/cyfitter_cfg.c **** 
 366:Generated_Source\PSoC5/cyfitter_cfg.c **** 
 367:Generated_Source\PSoC5/cyfitter_cfg.c **** /*******************************************************************************
 368:Generated_Source\PSoC5/cyfitter_cfg.c **** * Function Name: cfg_dma_init
 369:Generated_Source\PSoC5/cyfitter_cfg.c **** ********************************************************************************
 370:Generated_Source\PSoC5/cyfitter_cfg.c **** * Summary:
 371:Generated_Source\PSoC5/cyfitter_cfg.c **** *  This function is used to copy device configuration data from constant values
ARM GAS  C:\Users\JEFFSN~1\AppData\Local\Temp\cclRlWK0.s 			page 18


 372:Generated_Source\PSoC5/cyfitter_cfg.c **** *  stored in memory into the proper chip configuration registers using DMA.  It
 373:Generated_Source\PSoC5/cyfitter_cfg.c **** *  pulls data out of the CFG_TD_LISTs to know exactly how/what to configure.
 374:Generated_Source\PSoC5/cyfitter_cfg.c **** *
 375:Generated_Source\PSoC5/cyfitter_cfg.c **** * Parameters:  
 376:Generated_Source\PSoC5/cyfitter_cfg.c **** *   void
 377:Generated_Source\PSoC5/cyfitter_cfg.c **** *
 378:Generated_Source\PSoC5/cyfitter_cfg.c **** * Return:
 379:Generated_Source\PSoC5/cyfitter_cfg.c **** *   void
 380:Generated_Source\PSoC5/cyfitter_cfg.c **** *
 381:Generated_Source\PSoC5/cyfitter_cfg.c **** *******************************************************************************/
 382:Generated_Source\PSoC5/cyfitter_cfg.c **** static void cfg_dma_init(void);
 383:Generated_Source\PSoC5/cyfitter_cfg.c **** static void cfg_dma_init(void)
 384:Generated_Source\PSoC5/cyfitter_cfg.c **** {
 599              		.loc 1 384 0
 600              		.cfi_startproc
 601              		@ args = 0, pretend = 0, frame = 8
 602              		@ frame_needed = 1, uses_anonymous_args = 0
 603              		@ link register save eliminated.
 604 0000 80B4     		push	{r7}
 605              		.cfi_def_cfa_offset 4
 606              		.cfi_offset 7, -4
 607 0002 83B0     		sub	sp, sp, #12
 608              		.cfi_def_cfa_offset 16
 609 0004 00AF     		add	r7, sp, #0
 610              		.cfi_def_cfa_register 7
 385:Generated_Source\PSoC5/cyfitter_cfg.c **** 	/* TD structure for little-endian systems. Does not require endian swap */
 386:Generated_Source\PSoC5/cyfitter_cfg.c **** 	CYPACKED struct td_t {
 387:Generated_Source\PSoC5/cyfitter_cfg.c **** 		uint16 size;
 388:Generated_Source\PSoC5/cyfitter_cfg.c **** 		uint8 next_td_ptr;
 389:Generated_Source\PSoC5/cyfitter_cfg.c **** 		uint8 flags;
 390:Generated_Source\PSoC5/cyfitter_cfg.c **** 		uint16 src;
 391:Generated_Source\PSoC5/cyfitter_cfg.c **** 		uint16 dest;
 392:Generated_Source\PSoC5/cyfitter_cfg.c **** 	} CYPACKED_ATTR;
 393:Generated_Source\PSoC5/cyfitter_cfg.c **** 
 394:Generated_Source\PSoC5/cyfitter_cfg.c **** 	/* PHUB_CH1_CFGMEM_CFG0/1 initialization data */
 395:Generated_Source\PSoC5/cyfitter_cfg.c **** 	DMAINITSEC static const uint8 CYCODE CH1_ADDR_DATA0[] = { 0x01u, 0x00u, 0x00u, 0x00u, 0x00u, 0x20u
 396:Generated_Source\PSoC5/cyfitter_cfg.c **** 
 397:Generated_Source\PSoC5/cyfitter_cfg.c **** 	/* PHUB_CH2_CFGMEM_CFG0/1 initialization data */
 398:Generated_Source\PSoC5/cyfitter_cfg.c **** 	DMAINITSEC static const uint8 CYCODE CH2_ADDR_DATA0[] = { 0x01u, 0x00u, 0x00u, 0x00u, 0x00u, 0x20u
 399:Generated_Source\PSoC5/cyfitter_cfg.c **** 
 400:Generated_Source\PSoC5/cyfitter_cfg.c **** 	/* PHUB_CH5_CFGMEM_CFG0/1 initialization data */
 401:Generated_Source\PSoC5/cyfitter_cfg.c **** 	DMAINITSEC static const uint8 CYCODE CH5_ADDR_DATA0[] = { 0x01u, 0x00u, 0x00u, 0x00u, 0x00u, 0x48u
 402:Generated_Source\PSoC5/cyfitter_cfg.c **** 
 403:Generated_Source\PSoC5/cyfitter_cfg.c **** 	/* PHUB_CH6_CFGMEM_CFG0/1 initialization data */
 404:Generated_Source\PSoC5/cyfitter_cfg.c **** 	DMAINITSEC static const uint8 CYCODE CH6_ADDR_DATA0[] = { 0x01u, 0x00u, 0x00u, 0x00u, 0x00u, 0x48u
 405:Generated_Source\PSoC5/cyfitter_cfg.c **** 
 406:Generated_Source\PSoC5/cyfitter_cfg.c **** 	/* Initialization data for each DMA channel's TD registers */
 407:Generated_Source\PSoC5/cyfitter_cfg.c **** 	DMAINITSEC static const uint8 CYCODE DMA_TD_START_CMD[] = { 0x01u, 0x00u, 0x00u, 0x00u, 0x01u };
 408:Generated_Source\PSoC5/cyfitter_cfg.c **** 
 409:Generated_Source\PSoC5/cyfitter_cfg.c **** 	CYALIGNED static uint32 CYXDATA DMA_ZERO_VAL;
 410:Generated_Source\PSoC5/cyfitter_cfg.c **** 
 411:Generated_Source\PSoC5/cyfitter_cfg.c **** 	/* This table holds all of the initialization data necessary for the DMA
 412:Generated_Source\PSoC5/cyfitter_cfg.c **** 	   process to transfer data from the source location to the destination. */
 413:Generated_Source\PSoC5/cyfitter_cfg.c **** 	/* Source addresses can be relocated, but only when in 32bit addresses.
 414:Generated_Source\PSoC5/cyfitter_cfg.c **** 	   Because the standard TD table only has 16bit addresses, we generate a
 415:Generated_Source\PSoC5/cyfitter_cfg.c **** 	   separate CFG_TD_ADDR table for the source addresses that supports 32bit
 416:Generated_Source\PSoC5/cyfitter_cfg.c **** 	   addresses. */
ARM GAS  C:\Users\JEFFSN~1\AppData\Local\Temp\cclRlWK0.s 			page 19


 417:Generated_Source\PSoC5/cyfitter_cfg.c **** 	DMAINITSEC static const struct td_t CYCODE CFG_TD_LIST0[] = {
 418:Generated_Source\PSoC5/cyfitter_cfg.c **** 		/* Size, Next, Flags, Source, Destination */
 419:Generated_Source\PSoC5/cyfitter_cfg.c **** 		{ 8u, 0x02u, 0x23u, (uint16)(uint32)(0u), (uint16)(CYREG_PHUB_CFGMEM1_CFG0) },	/* TD 1 */
 420:Generated_Source\PSoC5/cyfitter_cfg.c **** 		{ 8u, 0x03u, 0x23u, (uint16)(uint32)(0u), (uint16)(CYREG_PHUB_CFGMEM2_CFG0) },	/* TD 2 */
 421:Generated_Source\PSoC5/cyfitter_cfg.c **** 		{ 8u, 0x04u, 0x23u, (uint16)(uint32)(0u), (uint16)(CYREG_PHUB_CFGMEM5_CFG0) },	/* TD 3 */
 422:Generated_Source\PSoC5/cyfitter_cfg.c **** 		{ 8u, 0x05u, 0x23u, (uint16)(uint32)(0u), (uint16)(CYREG_PHUB_CFGMEM6_CFG0) },	/* TD 4 */
 423:Generated_Source\PSoC5/cyfitter_cfg.c **** 		{ 5u, 0x06u, 0x23u, (uint16)(uint32)(0u), (uint16)(CYREG_PHUB_CH1_BASIC_CFG) },	/* TD 5 */
 424:Generated_Source\PSoC5/cyfitter_cfg.c **** 		{ 5u, 0x07u, 0x23u, (uint16)(uint32)(0u), (uint16)(CYREG_PHUB_CH2_BASIC_CFG) },	/* TD 6 */
 425:Generated_Source\PSoC5/cyfitter_cfg.c **** 		{ 5u, 0x08u, 0x23u, (uint16)(uint32)(0u), (uint16)(CYREG_PHUB_CH5_BASIC_CFG) },	/* TD 7 */
 426:Generated_Source\PSoC5/cyfitter_cfg.c **** 		{ 5u, 0xFEu, 0x23u, (uint16)(uint32)(0u), (uint16)(CYREG_PHUB_CH6_BASIC_CFG) },	/* TD 8 */
 427:Generated_Source\PSoC5/cyfitter_cfg.c **** 		{ 16u, 0xFEu, 0x22u, (uint16)(uint32)(0u), (uint16)(CYREG_PRT12_DR) },	/* TD 9 */
 428:Generated_Source\PSoC5/cyfitter_cfg.c **** 		{ 640u, 0x0Bu, 0x22u, (uint16)(uint32)(0u), (uint16)(CYDEV_UCFG_B0_P0_U0_BASE) },	/* TD 10 */
 429:Generated_Source\PSoC5/cyfitter_cfg.c **** 		{ 384u, 0x0Cu, 0x22u, (uint16)(uint32)(0u), (uint16)(CYDEV_UCFG_B0_P2_U0_BASE) },	/* TD 11 */
 430:Generated_Source\PSoC5/cyfitter_cfg.c **** 		{ 512u, 0x0Du, 0x22u, (uint16)(uint32)(0u), (uint16)(CYDEV_UCFG_B0_P3_U0_BASE) },	/* TD 12 */
 431:Generated_Source\PSoC5/cyfitter_cfg.c **** 		{ 384u, 0x0Eu, 0x22u, (uint16)(uint32)(0u), (uint16)(CYDEV_UCFG_B1_P2_U0_BASE) },	/* TD 13 */
 432:Generated_Source\PSoC5/cyfitter_cfg.c **** 		{ 512u, 0x0Fu, 0x22u, (uint16)(uint32)(0u), (uint16)(CYDEV_UCFG_B1_P3_U0_BASE) },	/* TD 14 */
 433:Generated_Source\PSoC5/cyfitter_cfg.c **** 		{ 128u, 0x10u, 0x22u, (uint16)(uint32)(0u), (uint16)(CYDEV_UCFG_DSI1_BASE) },	/* TD 15 */
 434:Generated_Source\PSoC5/cyfitter_cfg.c **** 		{ 512u, 0x11u, 0x22u, (uint16)(uint32)(0u), (uint16)(CYDEV_UCFG_DSI2_BASE) },	/* TD 16 */
 435:Generated_Source\PSoC5/cyfitter_cfg.c **** 		{ 128u, 0x12u, 0x22u, (uint16)(uint32)(0u), (uint16)(CYDEV_UCFG_DSI5_BASE) },	/* TD 17 */
 436:Generated_Source\PSoC5/cyfitter_cfg.c **** 		{ 128u, 0x13u, 0x22u, (uint16)(uint32)(0u), (uint16)(CYDEV_UCFG_DSI7_BASE) },	/* TD 18 */
 437:Generated_Source\PSoC5/cyfitter_cfg.c **** 		{ 128u, 0xFEu, 0x22u, (uint16)(uint32)(0u), (uint16)(CYDEV_UCFG_DSI9_BASE) },	/* TD 19 */
 438:Generated_Source\PSoC5/cyfitter_cfg.c **** 		{ 7u, 0x15u, 0x23u, (uint16)(uint32)(0u), (uint16)(CYDEV_PRTDSI_PRT1_BASE) },	/* TD 20 */
 439:Generated_Source\PSoC5/cyfitter_cfg.c **** 		{ 7u, 0x16u, 0x23u, (uint16)(uint32)(0u), (uint16)(CYDEV_PRTDSI_PRT2_BASE) },	/* TD 21 */
 440:Generated_Source\PSoC5/cyfitter_cfg.c **** 		{ 7u, 0x17u, 0x23u, (uint16)(uint32)(0u), (uint16)(CYDEV_PRTDSI_PRT5_BASE) },	/* TD 22 */
 441:Generated_Source\PSoC5/cyfitter_cfg.c **** 		{ 7u, 0x18u, 0x23u, (uint16)(uint32)(0u), (uint16)(CYDEV_PRTDSI_PRT6_BASE) },	/* TD 23 */
 442:Generated_Source\PSoC5/cyfitter_cfg.c **** 		{ 64u, 0x19u, 0x23u, (uint16)(uint32)(0u), (uint16)(CYDEV_UWRK_UWRK8_B0_BASE) },	/* TD 24 */
 443:Generated_Source\PSoC5/cyfitter_cfg.c **** 		{ 32u, 0x1Au, 0x23u, (uint16)(uint32)(0u), (uint16)(CYDEV_UWRK_UWRK8_B0_BASE + 0x00000070u) },	/*
 444:Generated_Source\PSoC5/cyfitter_cfg.c **** 		{ 32u, 0xFEu, 0x23u, (uint16)(uint32)(0u), (uint16)(CYDEV_UWRK_UWRK8_B1_BASE + 0x00000070u) },	/*
 445:Generated_Source\PSoC5/cyfitter_cfg.c **** 		{ 8u, 0x1Cu, 0x23u, (uint16)(uint32)(0u), (uint16)(CYREG_IDMUX_IRQ_CTL0) },	/* TD 27 */
 446:Generated_Source\PSoC5/cyfitter_cfg.c **** 		{ 128u, 0x1Du, 0x23u, (uint16)(uint32)(0u), (uint16)(CYDEV_UCFG_B0_P1_U1_BASE) },	/* TD 28 */
 447:Generated_Source\PSoC5/cyfitter_cfg.c **** 		{ 128u, 0x1Eu, 0x23u, (uint16)(uint32)(0u), (uint16)(CYDEV_UCFG_B0_P4_U0_BASE) },	/* TD 29 */
 448:Generated_Source\PSoC5/cyfitter_cfg.c **** 		{ 128u, 0x1Fu, 0x23u, (uint16)(uint32)(0u), (uint16)(CYDEV_UCFG_B0_P4_U1_BASE) },	/* TD 30 */
 449:Generated_Source\PSoC5/cyfitter_cfg.c **** 		{ 128u, 0x20u, 0x23u, (uint16)(uint32)(0u), (uint16)(CYDEV_UCFG_B0_P5_U0_BASE) },	/* TD 31 */
 450:Generated_Source\PSoC5/cyfitter_cfg.c **** 		{ 128u, 0x21u, 0x23u, (uint16)(uint32)(0u), (uint16)(CYDEV_UCFG_B0_P5_U1_BASE) },	/* TD 32 */
 451:Generated_Source\PSoC5/cyfitter_cfg.c **** 		{ 128u, 0x22u, 0x23u, (uint16)(uint32)(0u), (uint16)(CYDEV_UCFG_B0_P6_U0_BASE) },	/* TD 33 */
 452:Generated_Source\PSoC5/cyfitter_cfg.c **** 		{ 128u, 0x23u, 0x23u, (uint16)(uint32)(0u), (uint16)(CYDEV_UCFG_B0_P6_U1_BASE) },	/* TD 34 */
 453:Generated_Source\PSoC5/cyfitter_cfg.c **** 		{ 128u, 0x24u, 0x23u, (uint16)(uint32)(0u), (uint16)(CYDEV_UCFG_B0_P7_U0_BASE) },	/* TD 35 */
 454:Generated_Source\PSoC5/cyfitter_cfg.c **** 		{ 128u, 0x25u, 0x23u, (uint16)(uint32)(0u), (uint16)(CYDEV_UCFG_B0_P7_U1_BASE) },	/* TD 36 */
 455:Generated_Source\PSoC5/cyfitter_cfg.c **** 		{ 128u, 0x26u, 0x23u, (uint16)(uint32)(0u), (uint16)(CYDEV_UCFG_B1_P4_U0_BASE) },	/* TD 37 */
 456:Generated_Source\PSoC5/cyfitter_cfg.c **** 		{ 128u, 0x27u, 0x23u, (uint16)(uint32)(0u), (uint16)(CYDEV_UCFG_B1_P4_U1_BASE) },	/* TD 38 */
 457:Generated_Source\PSoC5/cyfitter_cfg.c **** 		{ 128u, 0x28u, 0x23u, (uint16)(uint32)(0u), (uint16)(CYDEV_UCFG_B1_P5_U0_BASE) },	/* TD 39 */
 458:Generated_Source\PSoC5/cyfitter_cfg.c **** 		{ 128u, 0x29u, 0x23u, (uint16)(uint32)(0u), (uint16)(CYDEV_UCFG_B1_P5_U1_BASE) },	/* TD 40 */
 459:Generated_Source\PSoC5/cyfitter_cfg.c **** 		{ 16u, 0x2Au, 0x23u, (uint16)(uint32)(0u), (uint16)(CYREG_BCTL1_MDCLK_EN) },	/* TD 41 */
 460:Generated_Source\PSoC5/cyfitter_cfg.c **** 		{ 16u, 0x2Bu, 0x23u, (uint16)(uint32)(0u), (uint16)(CYREG_BCTL0_MDCLK_EN) },	/* TD 42 */
 461:Generated_Source\PSoC5/cyfitter_cfg.c **** 		{ 128u, 0x2Cu, 0x23u, (uint16)(uint32)(0u), (uint16)(CYDEV_UCFG_DSI13_BASE) },	/* TD 43 */
 462:Generated_Source\PSoC5/cyfitter_cfg.c **** 		{ 128u, 0x2Du, 0x23u, (uint16)(uint32)(0u), (uint16)(CYDEV_UCFG_DSI13_BASE + 0x00000080u) },	/* T
 463:Generated_Source\PSoC5/cyfitter_cfg.c **** 		{ 128u, 0x2Eu, 0x23u, (uint16)(uint32)(0u), (uint16)(CYDEV_UCFG_DSI12_BASE) },	/* TD 45 */
 464:Generated_Source\PSoC5/cyfitter_cfg.c **** 		{ 128u, 0x2Fu, 0x23u, (uint16)(uint32)(0u), (uint16)(CYDEV_UCFG_DSI12_BASE + 0x00000080u) },	/* T
 465:Generated_Source\PSoC5/cyfitter_cfg.c **** 		{ 128u, 0x30u, 0x23u, (uint16)(uint32)(0u), (uint16)(CYDEV_UCFG_DSI7_BASE + 0x00000080u) },	/* TD
 466:Generated_Source\PSoC5/cyfitter_cfg.c **** 		{ 128u, 0x31u, 0x23u, (uint16)(uint32)(0u), (uint16)(CYDEV_UCFG_DSI6_BASE) },	/* TD 48 */
 467:Generated_Source\PSoC5/cyfitter_cfg.c **** 		{ 128u, 0x32u, 0x23u, (uint16)(uint32)(0u), (uint16)(CYDEV_UCFG_DSI6_BASE + 0x00000080u) },	/* TD
 468:Generated_Source\PSoC5/cyfitter_cfg.c **** 		{ 128u, 0x33u, 0x23u, (uint16)(uint32)(0u), (uint16)(CYDEV_UCFG_DSI5_BASE + 0x00000080u) },	/* TD
 469:Generated_Source\PSoC5/cyfitter_cfg.c **** 		{ 128u, 0x34u, 0x23u, (uint16)(uint32)(0u), (uint16)(CYDEV_UCFG_DSI4_BASE) },	/* TD 51 */
 470:Generated_Source\PSoC5/cyfitter_cfg.c **** 		{ 128u, 0x35u, 0x23u, (uint16)(uint32)(0u), (uint16)(CYDEV_UCFG_DSI4_BASE + 0x00000080u) },	/* TD
 471:Generated_Source\PSoC5/cyfitter_cfg.c **** 		{ 128u, 0x36u, 0x23u, (uint16)(uint32)(0u), (uint16)(CYDEV_UCFG_B1_P5_ROUTE_BASE) },	/* TD 53 */
 472:Generated_Source\PSoC5/cyfitter_cfg.c **** 		{ 128u, 0x37u, 0x23u, (uint16)(uint32)(0u), (uint16)(CYDEV_UCFG_B1_P5_ROUTE_BASE + 0x00000080u) }
 473:Generated_Source\PSoC5/cyfitter_cfg.c **** 		{ 128u, 0x38u, 0x23u, (uint16)(uint32)(0u), (uint16)(CYDEV_UCFG_B1_P2_ROUTE_BASE + 0x00000080u) }
ARM GAS  C:\Users\JEFFSN~1\AppData\Local\Temp\cclRlWK0.s 			page 20


 474:Generated_Source\PSoC5/cyfitter_cfg.c **** 		{ 128u, 0x39u, 0x23u, (uint16)(uint32)(0u), (uint16)(CYDEV_UCFG_B1_P4_ROUTE_BASE) },	/* TD 56 */
 475:Generated_Source\PSoC5/cyfitter_cfg.c **** 		{ 128u, 0x3Au, 0x23u, (uint16)(uint32)(0u), (uint16)(CYDEV_UCFG_B1_P4_ROUTE_BASE + 0x00000080u) }
 476:Generated_Source\PSoC5/cyfitter_cfg.c **** 		{ 128u, 0x3Bu, 0x23u, (uint16)(uint32)(0u), (uint16)(CYDEV_UCFG_B0_P4_ROUTE_BASE) },	/* TD 58 */
 477:Generated_Source\PSoC5/cyfitter_cfg.c **** 		{ 128u, 0x3Cu, 0x23u, (uint16)(uint32)(0u), (uint16)(CYDEV_UCFG_B0_P4_ROUTE_BASE + 0x00000080u) }
 478:Generated_Source\PSoC5/cyfitter_cfg.c **** 		{ 128u, 0x3Du, 0x23u, (uint16)(uint32)(0u), (uint16)(CYDEV_UCFG_B0_P5_ROUTE_BASE) },	/* TD 60 */
 479:Generated_Source\PSoC5/cyfitter_cfg.c **** 		{ 128u, 0x3Eu, 0x23u, (uint16)(uint32)(0u), (uint16)(CYDEV_UCFG_B0_P5_ROUTE_BASE + 0x00000080u) }
 480:Generated_Source\PSoC5/cyfitter_cfg.c **** 		{ 128u, 0x3Fu, 0x23u, (uint16)(uint32)(0u), (uint16)(CYDEV_UCFG_B0_P2_ROUTE_BASE + 0x00000080u) }
 481:Generated_Source\PSoC5/cyfitter_cfg.c **** 		{ 128u, 0x40u, 0x23u, (uint16)(uint32)(0u), (uint16)(CYDEV_UCFG_B0_P6_ROUTE_BASE) },	/* TD 63 */
 482:Generated_Source\PSoC5/cyfitter_cfg.c **** 		{ 128u, 0x41u, 0x23u, (uint16)(uint32)(0u), (uint16)(CYDEV_UCFG_B0_P6_ROUTE_BASE + 0x00000080u) }
 483:Generated_Source\PSoC5/cyfitter_cfg.c **** 		{ 128u, 0x42u, 0x23u, (uint16)(uint32)(0u), (uint16)(CYDEV_UCFG_B0_P1_ROUTE_BASE) },	/* TD 65 */
 484:Generated_Source\PSoC5/cyfitter_cfg.c **** 		{ 128u, 0x43u, 0x23u, (uint16)(uint32)(0u), (uint16)(CYDEV_UCFG_B0_P1_ROUTE_BASE + 0x00000080u) }
 485:Generated_Source\PSoC5/cyfitter_cfg.c **** 		{ 128u, 0x44u, 0x23u, (uint16)(uint32)(0u), (uint16)(CYDEV_UCFG_B0_P7_ROUTE_BASE) },	/* TD 67 */
 486:Generated_Source\PSoC5/cyfitter_cfg.c **** 		{ 128u, 0x45u, 0x23u, (uint16)(uint32)(0u), (uint16)(CYDEV_UCFG_B0_P7_ROUTE_BASE + 0x00000080u) }
 487:Generated_Source\PSoC5/cyfitter_cfg.c **** 		{ 128u, 0x46u, 0x23u, (uint16)(uint32)(0u), (uint16)(CYDEV_UCFG_DSI9_BASE + 0x00000080u) },	/* TD
 488:Generated_Source\PSoC5/cyfitter_cfg.c **** 		{ 128u, 0x47u, 0x23u, (uint16)(uint32)(0u), (uint16)(CYDEV_UCFG_DSI8_BASE) },	/* TD 70 */
 489:Generated_Source\PSoC5/cyfitter_cfg.c **** 		{ 128u, 0x48u, 0x23u, (uint16)(uint32)(0u), (uint16)(CYDEV_UCFG_DSI8_BASE + 0x00000080u) },	/* TD
 490:Generated_Source\PSoC5/cyfitter_cfg.c **** 		{ 128u, 0x49u, 0x23u, (uint16)(uint32)(0u), (uint16)(CYDEV_UCFG_DSI1_BASE + 0x00000080u) },	/* TD
 491:Generated_Source\PSoC5/cyfitter_cfg.c **** 		{ 128u, 0x4Au, 0x23u, (uint16)(uint32)(0u), (uint16)(CYDEV_UCFG_DSI0_BASE) },	/* TD 73 */
 492:Generated_Source\PSoC5/cyfitter_cfg.c **** 		{ 128u, 0xFEu, 0x23u, (uint16)(uint32)(0u), (uint16)(CYDEV_UCFG_DSI0_BASE + 0x00000080u) },	/* TD
 493:Generated_Source\PSoC5/cyfitter_cfg.c **** 	};
 494:Generated_Source\PSoC5/cyfitter_cfg.c **** 
 495:Generated_Source\PSoC5/cyfitter_cfg.c **** 	/* Source addresses can be relocated, but only when in 32bit addresses.
 496:Generated_Source\PSoC5/cyfitter_cfg.c **** 	   Because the standard TD table only has 16bit addresses, we generate a
 497:Generated_Source\PSoC5/cyfitter_cfg.c **** 	   separate table for the source addresses that does use 32bit addresses. This
 498:Generated_Source\PSoC5/cyfitter_cfg.c **** 	   table will be re-merged with the corresponding CFG_TD_LIST table during
 499:Generated_Source\PSoC5/cyfitter_cfg.c **** 	   initialization. */
 500:Generated_Source\PSoC5/cyfitter_cfg.c **** 	static const void * const CFG_TD_ADDR0[] = {
 501:Generated_Source\PSoC5/cyfitter_cfg.c **** 		(const void *)(CH1_ADDR_DATA0),	/* TD 1 */
 502:Generated_Source\PSoC5/cyfitter_cfg.c **** 		(const void *)(CH2_ADDR_DATA0),	/* TD 2 */
 503:Generated_Source\PSoC5/cyfitter_cfg.c **** 		(const void *)(CH5_ADDR_DATA0),	/* TD 3 */
 504:Generated_Source\PSoC5/cyfitter_cfg.c **** 		(const void *)(CH6_ADDR_DATA0),	/* TD 4 */
 505:Generated_Source\PSoC5/cyfitter_cfg.c **** 		(const void *)(DMA_TD_START_CMD),	/* TD 5 */
 506:Generated_Source\PSoC5/cyfitter_cfg.c **** 		(const void *)(DMA_TD_START_CMD),	/* TD 6 */
 507:Generated_Source\PSoC5/cyfitter_cfg.c **** 		(const void *)(DMA_TD_START_CMD),	/* TD 7 */
 508:Generated_Source\PSoC5/cyfitter_cfg.c **** 		(const void *)(DMA_TD_START_CMD),	/* TD 8 */
 509:Generated_Source\PSoC5/cyfitter_cfg.c **** 		(const void *)(&DMA_ZERO_VAL),	/* TD 9 */
 510:Generated_Source\PSoC5/cyfitter_cfg.c **** 		(const void *)(&DMA_ZERO_VAL),	/* TD 10 */
 511:Generated_Source\PSoC5/cyfitter_cfg.c **** 		(const void *)(&DMA_ZERO_VAL),	/* TD 11 */
 512:Generated_Source\PSoC5/cyfitter_cfg.c **** 		(const void *)(&DMA_ZERO_VAL),	/* TD 12 */
 513:Generated_Source\PSoC5/cyfitter_cfg.c **** 		(const void *)(&DMA_ZERO_VAL),	/* TD 13 */
 514:Generated_Source\PSoC5/cyfitter_cfg.c **** 		(const void *)(&DMA_ZERO_VAL),	/* TD 14 */
 515:Generated_Source\PSoC5/cyfitter_cfg.c **** 		(const void *)(&DMA_ZERO_VAL),	/* TD 15 */
 516:Generated_Source\PSoC5/cyfitter_cfg.c **** 		(const void *)(&DMA_ZERO_VAL),	/* TD 16 */
 517:Generated_Source\PSoC5/cyfitter_cfg.c **** 		(const void *)(&DMA_ZERO_VAL),	/* TD 17 */
 518:Generated_Source\PSoC5/cyfitter_cfg.c **** 		(const void *)(&DMA_ZERO_VAL),	/* TD 18 */
 519:Generated_Source\PSoC5/cyfitter_cfg.c **** 		(const void *)(&DMA_ZERO_VAL),	/* TD 19 */
 520:Generated_Source\PSoC5/cyfitter_cfg.c **** 		(const void *)(BS_IOPORT_1_VAL),	/* TD 20 */
 521:Generated_Source\PSoC5/cyfitter_cfg.c **** 		(const void *)(BS_IOPORT_2_VAL),	/* TD 21 */
 522:Generated_Source\PSoC5/cyfitter_cfg.c **** 		(const void *)(BS_IOPORT_5_VAL),	/* TD 22 */
 523:Generated_Source\PSoC5/cyfitter_cfg.c **** 		(const void *)(BS_IOPORT_6_VAL),	/* TD 23 */
 524:Generated_Source\PSoC5/cyfitter_cfg.c **** 		(const void *)(BS_UWRK_B0_WRK_DP_BITS_VAL),	/* TD 24 */
 525:Generated_Source\PSoC5/cyfitter_cfg.c **** 		(const void *)(BS_UWRK_B0_WRK_STATCTL_BITS_VAL),	/* TD 25 */
 526:Generated_Source\PSoC5/cyfitter_cfg.c **** 		(const void *)(BS_UWRK_B1_WRK_STATCTL_BITS_VAL),	/* TD 26 */
 527:Generated_Source\PSoC5/cyfitter_cfg.c **** 		(const void *)(BS_IDMUX_IRQ_VAL),	/* TD 27 */
 528:Generated_Source\PSoC5/cyfitter_cfg.c **** 		(const void *)(BS_UDB_1_4_0_CONFIG_VAL),	/* TD 28 */
 529:Generated_Source\PSoC5/cyfitter_cfg.c **** 		(const void *)(BS_UDB_0_2_1_CONFIG_VAL),	/* TD 29 */
 530:Generated_Source\PSoC5/cyfitter_cfg.c **** 		(const void *)(BS_UDB_0_2_0_CONFIG_VAL),	/* TD 30 */
ARM GAS  C:\Users\JEFFSN~1\AppData\Local\Temp\cclRlWK0.s 			page 21


 531:Generated_Source\PSoC5/cyfitter_cfg.c **** 		(const void *)(BS_UDB_0_3_0_CONFIG_VAL),	/* TD 31 */
 532:Generated_Source\PSoC5/cyfitter_cfg.c **** 		(const void *)(BS_UDB_0_3_1_CONFIG_VAL),	/* TD 32 */
 533:Generated_Source\PSoC5/cyfitter_cfg.c **** 		(const void *)(BS_UDB_0_4_1_CONFIG_VAL),	/* TD 33 */
 534:Generated_Source\PSoC5/cyfitter_cfg.c **** 		(const void *)(BS_UDB_0_4_0_CONFIG_VAL),	/* TD 34 */
 535:Generated_Source\PSoC5/cyfitter_cfg.c **** 		(const void *)(BS_UDB_0_5_0_CONFIG_VAL),	/* TD 35 */
 536:Generated_Source\PSoC5/cyfitter_cfg.c **** 		(const void *)(BS_UDB_0_5_1_CONFIG_VAL),	/* TD 36 */
 537:Generated_Source\PSoC5/cyfitter_cfg.c **** 		(const void *)(BS_UDB_0_1_1_CONFIG_VAL),	/* TD 37 */
 538:Generated_Source\PSoC5/cyfitter_cfg.c **** 		(const void *)(BS_UDB_0_1_0_CONFIG_VAL),	/* TD 38 */
 539:Generated_Source\PSoC5/cyfitter_cfg.c **** 		(const void *)(BS_UDB_0_0_0_CONFIG_VAL),	/* TD 39 */
 540:Generated_Source\PSoC5/cyfitter_cfg.c **** 		(const void *)(BS_UDB_0_0_1_CONFIG_VAL),	/* TD 40 */
 541:Generated_Source\PSoC5/cyfitter_cfg.c **** 		(const void *)(BS_UCFG_BCTL1_VAL),	/* TD 41 */
 542:Generated_Source\PSoC5/cyfitter_cfg.c **** 		(const void *)(BS_UCFG_BCTL0_VAL),	/* TD 42 */
 543:Generated_Source\PSoC5/cyfitter_cfg.c **** 		(const void *)(BS_DSISWITCH_0_0_VAL),	/* TD 43 */
 544:Generated_Source\PSoC5/cyfitter_cfg.c **** 		(const void *)(BS_DSI0_0_HV_ROUTING_VAL),	/* TD 44 */
 545:Generated_Source\PSoC5/cyfitter_cfg.c **** 		(const void *)(BS_DSISWITCH_0_1_VAL),	/* TD 45 */
 546:Generated_Source\PSoC5/cyfitter_cfg.c **** 		(const void *)(BS_DSI0_1_HV_ROUTING_VAL),	/* TD 46 */
 547:Generated_Source\PSoC5/cyfitter_cfg.c **** 		(const void *)(BS_DSI0_2_HV_ROUTING_VAL),	/* TD 47 */
 548:Generated_Source\PSoC5/cyfitter_cfg.c **** 		(const void *)(BS_DSISWITCH_0_3_VAL),	/* TD 48 */
 549:Generated_Source\PSoC5/cyfitter_cfg.c **** 		(const void *)(BS_DSI0_3_HV_ROUTING_VAL),	/* TD 49 */
 550:Generated_Source\PSoC5/cyfitter_cfg.c **** 		(const void *)(BS_DSI0_4_HV_ROUTING_VAL),	/* TD 50 */
 551:Generated_Source\PSoC5/cyfitter_cfg.c **** 		(const void *)(BS_DSISWITCH_0_5_VAL),	/* TD 51 */
 552:Generated_Source\PSoC5/cyfitter_cfg.c **** 		(const void *)(BS_DSI0_5_HV_ROUTING_VAL),	/* TD 52 */
 553:Generated_Source\PSoC5/cyfitter_cfg.c **** 		(const void *)(BS_UDBSWITCH_0_0_VAL),	/* TD 53 */
 554:Generated_Source\PSoC5/cyfitter_cfg.c **** 		(const void *)(BS_UDB_1_0_HV_ROUTING_VAL),	/* TD 54 */
 555:Generated_Source\PSoC5/cyfitter_cfg.c **** 		(const void *)(BS_UDB_2_0_HV_ROUTING_VAL),	/* TD 55 */
 556:Generated_Source\PSoC5/cyfitter_cfg.c **** 		(const void *)(BS_UDBSWITCH_0_1_VAL),	/* TD 56 */
 557:Generated_Source\PSoC5/cyfitter_cfg.c **** 		(const void *)(BS_UDB_1_1_HV_ROUTING_VAL),	/* TD 57 */
 558:Generated_Source\PSoC5/cyfitter_cfg.c **** 		(const void *)(BS_UDBSWITCH_0_2_VAL),	/* TD 58 */
 559:Generated_Source\PSoC5/cyfitter_cfg.c **** 		(const void *)(BS_UDB_1_2_HV_ROUTING_VAL),	/* TD 59 */
 560:Generated_Source\PSoC5/cyfitter_cfg.c **** 		(const void *)(BS_UDBSWITCH_0_3_VAL),	/* TD 60 */
 561:Generated_Source\PSoC5/cyfitter_cfg.c **** 		(const void *)(BS_UDB_1_3_HV_ROUTING_VAL),	/* TD 61 */
 562:Generated_Source\PSoC5/cyfitter_cfg.c **** 		(const void *)(BS_UDB_2_3_HV_ROUTING_VAL),	/* TD 62 */
 563:Generated_Source\PSoC5/cyfitter_cfg.c **** 		(const void *)(BS_UDBSWITCH_0_4_VAL),	/* TD 63 */
 564:Generated_Source\PSoC5/cyfitter_cfg.c **** 		(const void *)(BS_UDB_1_4_HV_ROUTING_VAL),	/* TD 64 */
 565:Generated_Source\PSoC5/cyfitter_cfg.c **** 		(const void *)(BS_UDBSWITCH_1_4_VAL),	/* TD 65 */
 566:Generated_Source\PSoC5/cyfitter_cfg.c **** 		(const void *)(BS_UDB_2_4_HV_ROUTING_VAL),	/* TD 66 */
 567:Generated_Source\PSoC5/cyfitter_cfg.c **** 		(const void *)(BS_UDBSWITCH_0_5_VAL),	/* TD 67 */
 568:Generated_Source\PSoC5/cyfitter_cfg.c **** 		(const void *)(BS_UDB_1_5_HV_ROUTING_VAL),	/* TD 68 */
 569:Generated_Source\PSoC5/cyfitter_cfg.c **** 		(const void *)(BS_DSI3_0_HV_ROUTING_VAL),	/* TD 69 */
 570:Generated_Source\PSoC5/cyfitter_cfg.c **** 		(const void *)(BS_DSISWITCH_1_1_VAL),	/* TD 70 */
 571:Generated_Source\PSoC5/cyfitter_cfg.c **** 		(const void *)(BS_DSI3_1_HV_ROUTING_VAL),	/* TD 71 */
 572:Generated_Source\PSoC5/cyfitter_cfg.c **** 		(const void *)(BS_DSI3_4_HV_ROUTING_VAL),	/* TD 72 */
 573:Generated_Source\PSoC5/cyfitter_cfg.c **** 		(const void *)(BS_DSISWITCH_1_5_VAL),	/* TD 73 */
 574:Generated_Source\PSoC5/cyfitter_cfg.c **** 		(const void *)(BS_DSI3_5_HV_ROUTING_VAL),	/* TD 74 */
 575:Generated_Source\PSoC5/cyfitter_cfg.c **** 	};
 576:Generated_Source\PSoC5/cyfitter_cfg.c **** 
 577:Generated_Source\PSoC5/cyfitter_cfg.c **** 
 578:Generated_Source\PSoC5/cyfitter_cfg.c **** 	uint32 i;
 579:Generated_Source\PSoC5/cyfitter_cfg.c **** 
 580:Generated_Source\PSoC5/cyfitter_cfg.c **** 	DMA_ZERO_VAL = 0u;
 611              		.loc 1 580 0
 612 0006 434B     		ldr	r3, .L15
 613 0008 0022     		movs	r2, #0
 614 000a 1A60     		str	r2, [r3]
 581:Generated_Source\PSoC5/cyfitter_cfg.c **** 	CY_SET_REG8((void CYXDATA *)CYREG_PHUB_CFGMEM0_CFG0, 0x10u);	/* set burstcnt */
 615              		.loc 1 581 0
 616 000c 424B     		ldr	r3, .L15+4
ARM GAS  C:\Users\JEFFSN~1\AppData\Local\Temp\cclRlWK0.s 			page 22


 617 000e 1022     		movs	r2, #16
 618 0010 1A70     		strb	r2, [r3]
 582:Generated_Source\PSoC5/cyfitter_cfg.c **** 	CY_SET_REG8((void CYXDATA *)CYREG_PHUB_CH0_BASIC_CFG, 0x01u);	/* enable ch0 */
 619              		.loc 1 582 0
 620 0012 424B     		ldr	r3, .L15+8
 621 0014 0122     		movs	r2, #1
 622 0016 1A70     		strb	r2, [r3]
 583:Generated_Source\PSoC5/cyfitter_cfg.c **** 	CY_SET_REG8((void CYXDATA *)(CYREG_PHUB_CH0_BASIC_STATUS+1u), 0x00u);	/* set first TD to 0 */
 623              		.loc 1 583 0
 624 0018 414B     		ldr	r3, .L15+12
 625 001a 0022     		movs	r2, #0
 626 001c 1A70     		strb	r2, [r3]
 584:Generated_Source\PSoC5/cyfitter_cfg.c **** 	CY_SET_REG16((void CYXDATA *)CYREG_PHUB_TDMEM0_ORIG_TD0, 74u*8u);	/* transfer size */
 627              		.loc 1 584 0
 628 001e 414B     		ldr	r3, .L15+16
 629 0020 4FF41472 		mov	r2, #592
 630 0024 1A80     		strh	r2, [r3]	@ movhi
 585:Generated_Source\PSoC5/cyfitter_cfg.c **** 	CY_SET_REG8((void CYXDATA *)(CYREG_PHUB_TDMEM0_ORIG_TD0+2u), 0x01u);	/* set next TD to 1 */
 631              		.loc 1 585 0
 632 0026 404B     		ldr	r3, .L15+20
 633 0028 0122     		movs	r2, #1
 634 002a 1A70     		strb	r2, [r3]
 586:Generated_Source\PSoC5/cyfitter_cfg.c **** 	CY_SET_REG8((void CYXDATA *)(CYREG_PHUB_TDMEM0_ORIG_TD0+3u), 0x03u);	/* set TD flags */
 635              		.loc 1 586 0
 636 002c 3F4B     		ldr	r3, .L15+24
 637 002e 0322     		movs	r2, #3
 638 0030 1A70     		strb	r2, [r3]
 587:Generated_Source\PSoC5/cyfitter_cfg.c **** 	CY_SET_REG16((void CYXDATA *)CYREG_PHUB_TDMEM0_ORIG_TD1, (uint16)((uint32)CFG_TD_LIST0 & 0x0000FFF
 639              		.loc 1 587 0
 640 0032 3F4B     		ldr	r3, .L15+28
 641 0034 3F4A     		ldr	r2, .L15+32
 642 0036 92B2     		uxth	r2, r2
 643 0038 1A80     		strh	r2, [r3]	@ movhi
 588:Generated_Source\PSoC5/cyfitter_cfg.c **** 	CY_SET_REG16((void CYXDATA *)(CYREG_PHUB_TDMEM0_ORIG_TD1+2u), CYDEV_PHUB_TDMEM1_BASE);	/* set td0'
 644              		.loc 1 588 0
 645 003a 3F4B     		ldr	r3, .L15+36
 646 003c 47F60802 		movw	r2, #30728
 647 0040 1A80     		strh	r2, [r3]	@ movhi
 589:Generated_Source\PSoC5/cyfitter_cfg.c **** 	CY_SET_REG16((void CYXDATA *)CYREG_PHUB_CFGMEM0_CFG1, (uint16)(CYDEV_FLASH_BASE >> 16));	/* set ch
 648              		.loc 1 589 0
 649 0042 3E4B     		ldr	r3, .L15+40
 650 0044 0022     		movs	r2, #0
 651 0046 1A80     		strh	r2, [r3]	@ movhi
 590:Generated_Source\PSoC5/cyfitter_cfg.c **** 	CY_SET_REG16((void CYXDATA *)(CYREG_PHUB_CFGMEM0_CFG1+2u), (uint16)(CYDEV_PHUB_TDMEM1_BASE >> 16))
 652              		.loc 1 590 0
 653 0048 3D4B     		ldr	r3, .L15+44
 654 004a 4FF48042 		mov	r2, #16384
 655 004e 1A80     		strh	r2, [r3]	@ movhi
 591:Generated_Source\PSoC5/cyfitter_cfg.c **** 	CY_SET_REG8((void CYXDATA *)(CYREG_PHUB_CH1_BASIC_STATUS+1u), 0x09u);	/* ch1 first TD: 9 */
 656              		.loc 1 591 0
 657 0050 3C4B     		ldr	r3, .L15+48
 658 0052 0922     		movs	r2, #9
 659 0054 1A70     		strb	r2, [r3]
 592:Generated_Source\PSoC5/cyfitter_cfg.c **** 	CY_SET_REG8((void CYXDATA *)(CYREG_PHUB_CH2_BASIC_STATUS+1u), 0x0Au);	/* ch2 first TD: 10 */
 660              		.loc 1 592 0
 661 0056 3C4B     		ldr	r3, .L15+52
 662 0058 0A22     		movs	r2, #10
ARM GAS  C:\Users\JEFFSN~1\AppData\Local\Temp\cclRlWK0.s 			page 23


 663 005a 1A70     		strb	r2, [r3]
 593:Generated_Source\PSoC5/cyfitter_cfg.c **** 	CY_SET_REG8((void CYXDATA *)(CYREG_PHUB_CH5_BASIC_STATUS+1u), 0x14u);	/* ch5 first TD: 20 */
 664              		.loc 1 593 0
 665 005c 3B4B     		ldr	r3, .L15+56
 666 005e 1422     		movs	r2, #20
 667 0060 1A70     		strb	r2, [r3]
 594:Generated_Source\PSoC5/cyfitter_cfg.c **** 	CY_SET_REG8((void CYXDATA *)(CYREG_PHUB_CH6_BASIC_STATUS+1u), 0x1Bu);	/* ch6 first TD: 27 */
 668              		.loc 1 594 0
 669 0062 3B4B     		ldr	r3, .L15+60
 670 0064 1B22     		movs	r2, #27
 671 0066 1A70     		strb	r2, [r3]
 595:Generated_Source\PSoC5/cyfitter_cfg.c **** 
 596:Generated_Source\PSoC5/cyfitter_cfg.c **** 	CY_CFG_MEMORY_BARRIER();
 672              		.loc 1 596 0
 673 0068 BFF35F8F 		dmb	sy
 597:Generated_Source\PSoC5/cyfitter_cfg.c **** 	CY_SET_REG8((void CYXDATA *)CYREG_PHUB_CH0_ACTION, 0x01u); /* cpu_req */
 674              		.loc 1 597 0
 675 006c 394B     		ldr	r3, .L15+64
 676 006e 0122     		movs	r2, #1
 677 0070 1A70     		strb	r2, [r3]
 598:Generated_Source\PSoC5/cyfitter_cfg.c **** 	CY_CFG_MEMORY_BARRIER();
 678              		.loc 1 598 0
 679 0072 BFF35F8F 		dmb	sy
 599:Generated_Source\PSoC5/cyfitter_cfg.c **** 
 600:Generated_Source\PSoC5/cyfitter_cfg.c **** 	/* Wait for TDs to be copied into TDMEM */
 601:Generated_Source\PSoC5/cyfitter_cfg.c **** 	while (CY_GET_REG16((void CYXDATA *)CYREG_PHUB_TDMEM0_ORIG_TD0) != 0u) { }
 680              		.loc 1 601 0
 681 0076 00BF     		nop
 682              	.L7:
 683              		.loc 1 601 0 is_stmt 0 discriminator 1
 684 0078 2A4B     		ldr	r3, .L15+16
 685 007a 1B88     		ldrh	r3, [r3]	@ movhi
 686 007c 9BB2     		uxth	r3, r3
 687 007e 002B     		cmp	r3, #0
 688 0080 FAD1     		bne	.L7
 602:Generated_Source\PSoC5/cyfitter_cfg.c **** 
 603:Generated_Source\PSoC5/cyfitter_cfg.c **** 	/* Recombine TD source table (CFG_TD_ADDR0) with full TD table (CFG_TD_LIST0) */
 604:Generated_Source\PSoC5/cyfitter_cfg.c **** 	for (i = 0u; i < 74u; i++)
 689              		.loc 1 604 0 is_stmt 1
 690 0082 0023     		movs	r3, #0
 691 0084 7B60     		str	r3, [r7, #4]
 692 0086 0DE0     		b	.L8
 693              	.L9:
 605:Generated_Source\PSoC5/cyfitter_cfg.c **** 	{
 606:Generated_Source\PSoC5/cyfitter_cfg.c **** 		CY_SET_REG16((void CYXDATA *)(CYREG_PHUB_TDMEM1_ORIG_TD1 + (sizeof(struct td_t)*i)), (uint16)(uin
 694              		.loc 1 606 0 discriminator 3
 695 0088 7B68     		ldr	r3, [r7, #4]
 696 008a DA00     		lsls	r2, r3, #3
 697 008c 324B     		ldr	r3, .L15+68
 698 008e 1344     		add	r3, r3, r2
 699 0090 1946     		mov	r1, r3
 700 0092 324A     		ldr	r2, .L15+72
 701 0094 7B68     		ldr	r3, [r7, #4]
 702 0096 52F82330 		ldr	r3, [r2, r3, lsl #2]
 703 009a 9BB2     		uxth	r3, r3
 704 009c 0B80     		strh	r3, [r1]	@ movhi
 604:Generated_Source\PSoC5/cyfitter_cfg.c **** 	{
ARM GAS  C:\Users\JEFFSN~1\AppData\Local\Temp\cclRlWK0.s 			page 24


 705              		.loc 1 604 0 discriminator 3
 706 009e 7B68     		ldr	r3, [r7, #4]
 707 00a0 0133     		adds	r3, r3, #1
 708 00a2 7B60     		str	r3, [r7, #4]
 709              	.L8:
 604:Generated_Source\PSoC5/cyfitter_cfg.c **** 	{
 710              		.loc 1 604 0 is_stmt 0 discriminator 1
 711 00a4 7B68     		ldr	r3, [r7, #4]
 712 00a6 492B     		cmp	r3, #73
 713 00a8 EED9     		bls	.L9
 607:Generated_Source\PSoC5/cyfitter_cfg.c **** 	}
 608:Generated_Source\PSoC5/cyfitter_cfg.c **** 
 609:Generated_Source\PSoC5/cyfitter_cfg.c **** 	CY_CFG_MEMORY_BARRIER();
 714              		.loc 1 609 0 is_stmt 1
 715 00aa BFF35F8F 		dmb	sy
 610:Generated_Source\PSoC5/cyfitter_cfg.c **** 	CY_SET_REG8((void CYXDATA *)CYREG_PHUB_CH0_ACTION, 0x01u); /* cpu_req */
 716              		.loc 1 610 0
 717 00ae 294B     		ldr	r3, .L15+64
 718 00b0 0122     		movs	r2, #1
 719 00b2 1A70     		strb	r2, [r3]
 611:Generated_Source\PSoC5/cyfitter_cfg.c **** 	CY_CFG_MEMORY_BARRIER();
 720              		.loc 1 611 0
 721 00b4 BFF35F8F 		dmb	sy
 612:Generated_Source\PSoC5/cyfitter_cfg.c **** 
 613:Generated_Source\PSoC5/cyfitter_cfg.c **** 	/* Wait for all DMA transfers to complete */
 614:Generated_Source\PSoC5/cyfitter_cfg.c **** 	while(0u != (CY_GET_REG8((void CYXDATA *)CYREG_PHUB_CH0_BASIC_STATUS) & 0x01u)){}
 722              		.loc 1 614 0
 723 00b8 00BF     		nop
 724              	.L10:
 725              		.loc 1 614 0 is_stmt 0 discriminator 1
 726 00ba 294B     		ldr	r3, .L15+76
 727 00bc 1B78     		ldrb	r3, [r3]
 728 00be DBB2     		uxtb	r3, r3
 729 00c0 03F00103 		and	r3, r3, #1
 730 00c4 002B     		cmp	r3, #0
 731 00c6 F8D1     		bne	.L10
 615:Generated_Source\PSoC5/cyfitter_cfg.c **** 	while(0u != (CY_GET_REG8((void CYXDATA *)CYREG_PHUB_CH1_BASIC_STATUS) & 0x01u)){}
 732              		.loc 1 615 0 is_stmt 1
 733 00c8 00BF     		nop
 734              	.L11:
 735              		.loc 1 615 0 is_stmt 0 discriminator 1
 736 00ca 264B     		ldr	r3, .L15+80
 737 00cc 1B78     		ldrb	r3, [r3]
 738 00ce DBB2     		uxtb	r3, r3
 739 00d0 03F00103 		and	r3, r3, #1
 740 00d4 002B     		cmp	r3, #0
 741 00d6 F8D1     		bne	.L11
 616:Generated_Source\PSoC5/cyfitter_cfg.c **** 	while(0u != (CY_GET_REG8((void CYXDATA *)CYREG_PHUB_CH2_BASIC_STATUS) & 0x01u)){}
 742              		.loc 1 616 0 is_stmt 1
 743 00d8 00BF     		nop
 744              	.L12:
 745              		.loc 1 616 0 is_stmt 0 discriminator 1
 746 00da 234B     		ldr	r3, .L15+84
 747 00dc 1B78     		ldrb	r3, [r3]
 748 00de DBB2     		uxtb	r3, r3
 749 00e0 03F00103 		and	r3, r3, #1
 750 00e4 002B     		cmp	r3, #0
ARM GAS  C:\Users\JEFFSN~1\AppData\Local\Temp\cclRlWK0.s 			page 25


 751 00e6 F8D1     		bne	.L12
 617:Generated_Source\PSoC5/cyfitter_cfg.c **** 	while(0u != (CY_GET_REG8((void CYXDATA *)CYREG_PHUB_CH5_BASIC_STATUS) & 0x01u)){}
 752              		.loc 1 617 0 is_stmt 1
 753 00e8 00BF     		nop
 754              	.L13:
 755              		.loc 1 617 0 is_stmt 0 discriminator 1
 756 00ea 204B     		ldr	r3, .L15+88
 757 00ec 1B78     		ldrb	r3, [r3]
 758 00ee DBB2     		uxtb	r3, r3
 759 00f0 03F00103 		and	r3, r3, #1
 760 00f4 002B     		cmp	r3, #0
 761 00f6 F8D1     		bne	.L13
 618:Generated_Source\PSoC5/cyfitter_cfg.c **** 	while(0u != (CY_GET_REG8((void CYXDATA *)CYREG_PHUB_CH6_BASIC_STATUS) & 0x01u)){}
 762              		.loc 1 618 0 is_stmt 1
 763 00f8 00BF     		nop
 764              	.L14:
 765              		.loc 1 618 0 is_stmt 0 discriminator 1
 766 00fa 1D4B     		ldr	r3, .L15+92
 767 00fc 1B78     		ldrb	r3, [r3]
 768 00fe DBB2     		uxtb	r3, r3
 769 0100 03F00103 		and	r3, r3, #1
 770 0104 002B     		cmp	r3, #0
 771 0106 F8D1     		bne	.L14
 619:Generated_Source\PSoC5/cyfitter_cfg.c **** 
 620:Generated_Source\PSoC5/cyfitter_cfg.c **** 
 621:Generated_Source\PSoC5/cyfitter_cfg.c **** }
 772              		.loc 1 621 0 is_stmt 1
 773 0108 00BF     		nop
 774 010a 0C37     		adds	r7, r7, #12
 775              		.cfi_def_cfa_offset 4
 776 010c BD46     		mov	sp, r7
 777              		.cfi_def_cfa_register 13
 778              		@ sp needed
 779 010e 80BC     		pop	{r7}
 780              		.cfi_restore 7
 781              		.cfi_def_cfa_offset 0
 782 0110 7047     		bx	lr
 783              	.L16:
 784 0112 00BF     		.align	2
 785              	.L15:
 786 0114 08000000 		.word	DMA_ZERO_VAL.5003
 787 0118 00760040 		.word	1073772032
 788 011c 10700040 		.word	1073770512
 789 0120 19700040 		.word	1073770521
 790 0124 00780040 		.word	1073772544
 791 0128 02780040 		.word	1073772546
 792 012c 03780040 		.word	1073772547
 793 0130 04780040 		.word	1073772548
 794 0134 28000000 		.word	CFG_TD_LIST0.5004
 795 0138 06780040 		.word	1073772550
 796 013c 04760040 		.word	1073772036
 797 0140 06760040 		.word	1073772038
 798 0144 29700040 		.word	1073770537
 799 0148 39700040 		.word	1073770553
 800 014c 69700040 		.word	1073770601
 801 0150 79700040 		.word	1073770617
 802 0154 14700040 		.word	1073770516
ARM GAS  C:\Users\JEFFSN~1\AppData\Local\Temp\cclRlWK0.s 			page 26


 803 0158 0C780040 		.word	1073772556
 804 015c 98000000 		.word	CFG_TD_ADDR0.5005
 805 0160 18700040 		.word	1073770520
 806 0164 28700040 		.word	1073770536
 807 0168 38700040 		.word	1073770552
 808 016c 68700040 		.word	1073770600
 809 0170 78700040 		.word	1073770616
 810              		.cfi_endproc
 811              	.LFE4:
 812              		.size	cfg_dma_init, .-cfg_dma_init
 813              		.section	.text.ClockSetup,"ax",%progbits
 814              		.align	2
 815              		.thumb
 816              		.thumb_func
 817              		.type	ClockSetup, %function
 818              	ClockSetup:
 819              	.LFB5:
 622:Generated_Source\PSoC5/cyfitter_cfg.c **** /*******************************************************************************
 623:Generated_Source\PSoC5/cyfitter_cfg.c **** * Function Name: ClockSetup
 624:Generated_Source\PSoC5/cyfitter_cfg.c **** ********************************************************************************
 625:Generated_Source\PSoC5/cyfitter_cfg.c **** *
 626:Generated_Source\PSoC5/cyfitter_cfg.c **** * Summary:
 627:Generated_Source\PSoC5/cyfitter_cfg.c **** *  Performs the initialization of all of the clocks in the device based on the
 628:Generated_Source\PSoC5/cyfitter_cfg.c **** *  settings in the Clock tab of the DWR.  This includes enabling the requested
 629:Generated_Source\PSoC5/cyfitter_cfg.c **** *  clocks and setting the necessary dividers to produce the desired frequency. 
 630:Generated_Source\PSoC5/cyfitter_cfg.c **** *
 631:Generated_Source\PSoC5/cyfitter_cfg.c **** * Parameters:
 632:Generated_Source\PSoC5/cyfitter_cfg.c **** *  void
 633:Generated_Source\PSoC5/cyfitter_cfg.c **** *
 634:Generated_Source\PSoC5/cyfitter_cfg.c **** * Return:
 635:Generated_Source\PSoC5/cyfitter_cfg.c **** *  void
 636:Generated_Source\PSoC5/cyfitter_cfg.c **** *
 637:Generated_Source\PSoC5/cyfitter_cfg.c **** *******************************************************************************/
 638:Generated_Source\PSoC5/cyfitter_cfg.c **** static void ClockSetup(void);
 639:Generated_Source\PSoC5/cyfitter_cfg.c **** static void ClockSetup(void)
 640:Generated_Source\PSoC5/cyfitter_cfg.c **** {
 820              		.loc 1 640 0
 821              		.cfi_startproc
 822              		@ args = 0, pretend = 0, frame = 8
 823              		@ frame_needed = 1, uses_anonymous_args = 0
 824 0000 80B5     		push	{r7, lr}
 825              		.cfi_def_cfa_offset 8
 826              		.cfi_offset 7, -8
 827              		.cfi_offset 14, -4
 828 0002 82B0     		sub	sp, sp, #8
 829              		.cfi_def_cfa_offset 16
 830 0004 00AF     		add	r7, sp, #0
 831              		.cfi_def_cfa_register 7
 641:Generated_Source\PSoC5/cyfitter_cfg.c **** 	uint32 timeout;
 642:Generated_Source\PSoC5/cyfitter_cfg.c **** 	uint8 pllLock;
 643:Generated_Source\PSoC5/cyfitter_cfg.c **** 
 644:Generated_Source\PSoC5/cyfitter_cfg.c **** 
 645:Generated_Source\PSoC5/cyfitter_cfg.c **** 	/* Configure Digital Clocks based on settings from Clock DWR */
 646:Generated_Source\PSoC5/cyfitter_cfg.c **** 	CY_SET_XTND_REG16((void CYFAR *)(CYREG_CLKDIST_DCFG0_CFG0), 0x0000u);
 832              		.loc 1 646 0
 833 0006 454B     		ldr	r3, .L22
 834 0008 0022     		movs	r2, #0
ARM GAS  C:\Users\JEFFSN~1\AppData\Local\Temp\cclRlWK0.s 			page 27


 835 000a 1A80     		strh	r2, [r3]	@ movhi
 647:Generated_Source\PSoC5/cyfitter_cfg.c **** 	CY_SET_XTND_REG8((void CYFAR *)(CYREG_CLKDIST_DCFG0_CFG0 + 0x2u), 0x50u);
 836              		.loc 1 647 0
 837 000c 444B     		ldr	r3, .L22+4
 838 000e 5022     		movs	r2, #80
 839 0010 1A70     		strb	r2, [r3]
 648:Generated_Source\PSoC5/cyfitter_cfg.c **** 	CY_SET_XTND_REG16((void CYFAR *)(CYREG_CLKDIST_DCFG1_CFG0), 0x0000u);
 840              		.loc 1 648 0
 841 0012 444B     		ldr	r3, .L22+8
 842 0014 0022     		movs	r2, #0
 843 0016 1A80     		strh	r2, [r3]	@ movhi
 649:Generated_Source\PSoC5/cyfitter_cfg.c **** 	CY_SET_XTND_REG8((void CYFAR *)(CYREG_CLKDIST_DCFG1_CFG0 + 0x2u), 0x19u);
 844              		.loc 1 649 0
 845 0018 434B     		ldr	r3, .L22+12
 846 001a 1922     		movs	r2, #25
 847 001c 1A70     		strb	r2, [r3]
 650:Generated_Source\PSoC5/cyfitter_cfg.c **** 	CY_SET_XTND_REG16((void CYFAR *)(CYREG_CLKDIST_DCFG2_CFG0), 0x0006u);
 848              		.loc 1 650 0
 849 001e 434B     		ldr	r3, .L22+16
 850 0020 0622     		movs	r2, #6
 851 0022 1A80     		strh	r2, [r3]	@ movhi
 651:Generated_Source\PSoC5/cyfitter_cfg.c **** 	CY_SET_XTND_REG8((void CYFAR *)(CYREG_CLKDIST_DCFG2_CFG0 + 0x2u), 0x1Cu);
 852              		.loc 1 651 0
 853 0024 424B     		ldr	r3, .L22+20
 854 0026 1C22     		movs	r2, #28
 855 0028 1A70     		strb	r2, [r3]
 652:Generated_Source\PSoC5/cyfitter_cfg.c **** 	CY_SET_XTND_REG16((void CYFAR *)(CYREG_CLKDIST_DCFG3_CFG0), 0x0006u);
 856              		.loc 1 652 0
 857 002a 424B     		ldr	r3, .L22+24
 858 002c 0622     		movs	r2, #6
 859 002e 1A80     		strh	r2, [r3]	@ movhi
 653:Generated_Source\PSoC5/cyfitter_cfg.c **** 	CY_SET_XTND_REG8((void CYFAR *)(CYREG_CLKDIST_DCFG3_CFG0 + 0x2u), 0x1Cu);
 860              		.loc 1 653 0
 861 0030 414B     		ldr	r3, .L22+28
 862 0032 1C22     		movs	r2, #28
 863 0034 1A70     		strb	r2, [r3]
 654:Generated_Source\PSoC5/cyfitter_cfg.c **** 
 655:Generated_Source\PSoC5/cyfitter_cfg.c **** 	/* Configure Analog Clocks based on settings from Clock DWR */
 656:Generated_Source\PSoC5/cyfitter_cfg.c **** 	CYCONFIGCPY((void CYFAR *)(CYREG_CLKDIST_ACFG0_CFG0), (const void CYFAR *)(BS_CYDEV_CLKDIST_ACFG0_
 864              		.loc 1 656 0
 865 0036 0422     		movs	r2, #4
 866 0038 4049     		ldr	r1, .L22+32
 867 003a 4148     		ldr	r0, .L22+36
 868 003c FFF7FEFF 		bl	CYCONFIGCPY
 657:Generated_Source\PSoC5/cyfitter_cfg.c **** 
 658:Generated_Source\PSoC5/cyfitter_cfg.c **** 	/* Configure ILO based on settings from Clock DWR */
 659:Generated_Source\PSoC5/cyfitter_cfg.c **** 	CY_SET_XTND_REG8((void CYFAR *)(CYREG_SLOWCLK_ILO_CR0), 0x06u);
 869              		.loc 1 659 0
 870 0040 404B     		ldr	r3, .L22+40
 871 0042 0622     		movs	r2, #6
 872 0044 1A70     		strb	r2, [r3]
 660:Generated_Source\PSoC5/cyfitter_cfg.c **** 
 661:Generated_Source\PSoC5/cyfitter_cfg.c **** 	/* Configure IMO based on settings from Clock DWR */
 662:Generated_Source\PSoC5/cyfitter_cfg.c **** 	CY_SET_XTND_REG8((void CYFAR *)(CYREG_IMO_TR1), (CY_GET_XTND_REG8((void CYFAR *)CYREG_FLSHID_CUST_
 873              		.loc 1 662 0
 874 0046 404B     		ldr	r3, .L22+44
 875 0048 404A     		ldr	r2, .L22+48
ARM GAS  C:\Users\JEFFSN~1\AppData\Local\Temp\cclRlWK0.s 			page 28


 876 004a 1278     		ldrb	r2, [r2]
 877 004c D2B2     		uxtb	r2, r2
 878 004e 1A70     		strb	r2, [r3]
 663:Generated_Source\PSoC5/cyfitter_cfg.c **** 	CY_SET_XTND_REG8((void CYFAR *)(CYREG_FASTCLK_IMO_CR), 0x52u);
 879              		.loc 1 663 0
 880 0050 3F4B     		ldr	r3, .L22+52
 881 0052 5222     		movs	r2, #82
 882 0054 1A70     		strb	r2, [r3]
 664:Generated_Source\PSoC5/cyfitter_cfg.c **** 
 665:Generated_Source\PSoC5/cyfitter_cfg.c **** 	/* Configure PLL based on settings from Clock DWR */
 666:Generated_Source\PSoC5/cyfitter_cfg.c **** 	CY_SET_XTND_REG16((void CYFAR *)(CYREG_FASTCLK_PLL_P), 0x0B21u);
 883              		.loc 1 666 0
 884 0056 3F4B     		ldr	r3, .L22+56
 885 0058 40F62132 		movw	r2, #2849
 886 005c 1A80     		strh	r2, [r3]	@ movhi
 667:Generated_Source\PSoC5/cyfitter_cfg.c **** 	CY_SET_XTND_REG16((void CYFAR *)(CYREG_FASTCLK_PLL_CFG0), 0x1251u);
 887              		.loc 1 667 0
 888 005e 3E4B     		ldr	r3, .L22+60
 889 0060 41F25122 		movw	r2, #4689
 890 0064 1A80     		strh	r2, [r3]	@ movhi
 668:Generated_Source\PSoC5/cyfitter_cfg.c **** 	/* Wait up to 250us for the PLL to lock */
 669:Generated_Source\PSoC5/cyfitter_cfg.c **** 	pllLock = 0u;
 891              		.loc 1 669 0
 892 0066 0023     		movs	r3, #0
 893 0068 FB70     		strb	r3, [r7, #3]
 670:Generated_Source\PSoC5/cyfitter_cfg.c **** 	for (timeout = 250u / 10u; (timeout > 0u) && (pllLock != 0x03u); timeout--)
 894              		.loc 1 670 0
 895 006a 1923     		movs	r3, #25
 896 006c 7B60     		str	r3, [r7, #4]
 897 006e 13E0     		b	.L18
 898              	.L20:
 671:Generated_Source\PSoC5/cyfitter_cfg.c **** 	{ 
 672:Generated_Source\PSoC5/cyfitter_cfg.c **** 		pllLock = 0x03u & ((uint8)((uint8)pllLock << 1) | ((CY_GET_XTND_REG8((void CYFAR *)CYREG_FASTCLK_
 899              		.loc 1 672 0 discriminator 4
 900 0070 FB78     		ldrb	r3, [r7, #3]
 901 0072 5B00     		lsls	r3, r3, #1
 902 0074 DAB2     		uxtb	r2, r3
 903 0076 394B     		ldr	r3, .L22+64
 904 0078 1B78     		ldrb	r3, [r3]
 905 007a DBB2     		uxtb	r3, r3
 906 007c 03F00103 		and	r3, r3, #1
 907 0080 DBB2     		uxtb	r3, r3
 908 0082 1343     		orrs	r3, r3, r2
 909 0084 DBB2     		uxtb	r3, r3
 910 0086 03F00303 		and	r3, r3, #3
 911 008a FB70     		strb	r3, [r7, #3]
 673:Generated_Source\PSoC5/cyfitter_cfg.c **** 		CyDelayCycles(10u * 12u); /* Delay 10us based on 12MHz clock */
 912              		.loc 1 673 0 discriminator 4
 913 008c 7820     		movs	r0, #120
 914 008e FFF7FEFF 		bl	CyDelayCycles
 670:Generated_Source\PSoC5/cyfitter_cfg.c **** 	for (timeout = 250u / 10u; (timeout > 0u) && (pllLock != 0x03u); timeout--)
 915              		.loc 1 670 0 discriminator 4
 916 0092 7B68     		ldr	r3, [r7, #4]
 917 0094 013B     		subs	r3, r3, #1
 918 0096 7B60     		str	r3, [r7, #4]
 919              	.L18:
 670:Generated_Source\PSoC5/cyfitter_cfg.c **** 	for (timeout = 250u / 10u; (timeout > 0u) && (pllLock != 0x03u); timeout--)
ARM GAS  C:\Users\JEFFSN~1\AppData\Local\Temp\cclRlWK0.s 			page 29


 920              		.loc 1 670 0 is_stmt 0 discriminator 1
 921 0098 7B68     		ldr	r3, [r7, #4]
 922 009a 002B     		cmp	r3, #0
 923 009c 02D0     		beq	.L19
 670:Generated_Source\PSoC5/cyfitter_cfg.c **** 	for (timeout = 250u / 10u; (timeout > 0u) && (pllLock != 0x03u); timeout--)
 924              		.loc 1 670 0 discriminator 3
 925 009e FB78     		ldrb	r3, [r7, #3]	@ zero_extendqisi2
 926 00a0 032B     		cmp	r3, #3
 927 00a2 E5D1     		bne	.L20
 928              	.L19:
 674:Generated_Source\PSoC5/cyfitter_cfg.c **** 	}
 675:Generated_Source\PSoC5/cyfitter_cfg.c **** 	/* If we ran out of time the PLL didn't lock so go to the error function */
 676:Generated_Source\PSoC5/cyfitter_cfg.c **** 	if (timeout == 0u)
 929              		.loc 1 676 0 is_stmt 1
 930 00a4 7B68     		ldr	r3, [r7, #4]
 931 00a6 002B     		cmp	r3, #0
 932 00a8 02D1     		bne	.L21
 677:Generated_Source\PSoC5/cyfitter_cfg.c **** 	{
 678:Generated_Source\PSoC5/cyfitter_cfg.c **** 		CyClockStartupError(CYCLOCKSTART_PLL_ERROR);
 933              		.loc 1 678 0
 934 00aa 0320     		movs	r0, #3
 935 00ac FFF7FEFF 		bl	CyClockStartupError
 936              	.L21:
 679:Generated_Source\PSoC5/cyfitter_cfg.c **** 	}
 680:Generated_Source\PSoC5/cyfitter_cfg.c **** 
 681:Generated_Source\PSoC5/cyfitter_cfg.c **** 	/* Configure Bus/Master Clock based on settings from Clock DWR */
 682:Generated_Source\PSoC5/cyfitter_cfg.c **** 	CY_SET_XTND_REG16((void CYFAR *)(CYREG_CLKDIST_MSTR0), 0x0100u);
 937              		.loc 1 682 0
 938 00b0 2B4B     		ldr	r3, .L22+68
 939 00b2 4FF48072 		mov	r2, #256
 940 00b6 1A80     		strh	r2, [r3]	@ movhi
 683:Generated_Source\PSoC5/cyfitter_cfg.c **** 	CY_SET_XTND_REG8((void CYFAR *)(CYREG_CLKDIST_MSTR0), 0x07u);
 941              		.loc 1 683 0
 942 00b8 294B     		ldr	r3, .L22+68
 943 00ba 0722     		movs	r2, #7
 944 00bc 1A70     		strb	r2, [r3]
 684:Generated_Source\PSoC5/cyfitter_cfg.c **** 	CY_SET_XTND_REG8((void CYFAR *)(CYREG_CLKDIST_BCFG0), 0x00u);
 945              		.loc 1 684 0
 946 00be 294B     		ldr	r3, .L22+72
 947 00c0 0022     		movs	r2, #0
 948 00c2 1A70     		strb	r2, [r3]
 685:Generated_Source\PSoC5/cyfitter_cfg.c **** 	CY_SET_XTND_REG8((void CYFAR *)(CYREG_CLKDIST_BCFG2), 0x48u);
 949              		.loc 1 685 0
 950 00c4 284B     		ldr	r3, .L22+76
 951 00c6 4822     		movs	r2, #72
 952 00c8 1A70     		strb	r2, [r3]
 686:Generated_Source\PSoC5/cyfitter_cfg.c **** 	CY_SET_XTND_REG8((void CYFAR *)(CYREG_CLKDIST_MSTR0), 0x00u);
 953              		.loc 1 686 0
 954 00ca 254B     		ldr	r3, .L22+68
 955 00cc 0022     		movs	r2, #0
 956 00ce 1A70     		strb	r2, [r3]
 687:Generated_Source\PSoC5/cyfitter_cfg.c **** 
 688:Generated_Source\PSoC5/cyfitter_cfg.c **** 	/* Configure USB Clock based on settings from Clock DWR */
 689:Generated_Source\PSoC5/cyfitter_cfg.c **** 	CY_SET_XTND_REG8((void CYFAR *)(CYREG_CLKDIST_UCFG), 0x00u);
 957              		.loc 1 689 0
 958 00d0 264B     		ldr	r3, .L22+80
 959 00d2 0022     		movs	r2, #0
ARM GAS  C:\Users\JEFFSN~1\AppData\Local\Temp\cclRlWK0.s 			page 30


 960 00d4 1A70     		strb	r2, [r3]
 690:Generated_Source\PSoC5/cyfitter_cfg.c **** 	CY_SET_XTND_REG8((void CYFAR *)(CYREG_CLKDIST_LD), 0x02u);
 961              		.loc 1 690 0
 962 00d6 264B     		ldr	r3, .L22+84
 963 00d8 0222     		movs	r2, #2
 964 00da 1A70     		strb	r2, [r3]
 691:Generated_Source\PSoC5/cyfitter_cfg.c **** 	CY_SET_XTND_REG8((void CYFAR *)(CYREG_CLKDIST_DLY1), 0x04u);
 965              		.loc 1 691 0
 966 00dc 254B     		ldr	r3, .L22+88
 967 00de 0422     		movs	r2, #4
 968 00e0 1A70     		strb	r2, [r3]
 692:Generated_Source\PSoC5/cyfitter_cfg.c **** 
 693:Generated_Source\PSoC5/cyfitter_cfg.c **** 	CY_SET_XTND_REG8((void CYFAR *)(CYREG_PM_ACT_CFG2), ((CY_GET_XTND_REG8((void CYFAR *)CYREG_PM_ACT_
 969              		.loc 1 693 0
 970 00e2 254A     		ldr	r2, .L22+92
 971 00e4 244B     		ldr	r3, .L22+92
 972 00e6 1B78     		ldrb	r3, [r3]
 973 00e8 DBB2     		uxtb	r3, r3
 974 00ea 43F00F03 		orr	r3, r3, #15
 975 00ee DBB2     		uxtb	r3, r3
 976 00f0 1370     		strb	r3, [r2]
 694:Generated_Source\PSoC5/cyfitter_cfg.c **** 	CY_SET_XTND_REG8((void CYFAR *)(CYREG_PM_ACT_CFG1), ((CY_GET_XTND_REG8((void CYFAR *)CYREG_PM_ACT_
 977              		.loc 1 694 0
 978 00f2 224A     		ldr	r2, .L22+96
 979 00f4 214B     		ldr	r3, .L22+96
 980 00f6 1B78     		ldrb	r3, [r3]
 981 00f8 DBB2     		uxtb	r3, r3
 982 00fa 43F00103 		orr	r3, r3, #1
 983 00fe DBB2     		uxtb	r3, r3
 984 0100 1370     		strb	r3, [r2]
 695:Generated_Source\PSoC5/cyfitter_cfg.c **** 	CY_SET_XTND_REG8((void CYFAR *)(CYREG_PM_ACT_CFG0), ((CY_GET_XTND_REG8((void CYFAR *)CYREG_PM_ACT_
 985              		.loc 1 695 0
 986 0102 1F4A     		ldr	r2, .L22+100
 987 0104 1E4B     		ldr	r3, .L22+100
 988 0106 1B78     		ldrb	r3, [r3]
 989 0108 DBB2     		uxtb	r3, r3
 990 010a 63F07F03 		orn	r3, r3, #127
 991 010e DBB2     		uxtb	r3, r3
 992 0110 1370     		strb	r3, [r2]
 696:Generated_Source\PSoC5/cyfitter_cfg.c **** }
 993              		.loc 1 696 0
 994 0112 00BF     		nop
 995 0114 0837     		adds	r7, r7, #8
 996              		.cfi_def_cfa_offset 8
 997 0116 BD46     		mov	sp, r7
 998              		.cfi_def_cfa_register 13
 999              		@ sp needed
 1000 0118 80BD     		pop	{r7, pc}
 1001              	.L23:
 1002 011a 00BF     		.align	2
 1003              	.L22:
 1004 011c 80400040 		.word	1073758336
 1005 0120 82400040 		.word	1073758338
 1006 0124 84400040 		.word	1073758340
 1007 0128 86400040 		.word	1073758342
 1008 012c 88400040 		.word	1073758344
 1009 0130 8A400040 		.word	1073758346
ARM GAS  C:\Users\JEFFSN~1\AppData\Local\Temp\cclRlWK0.s 			page 31


 1010 0134 8C400040 		.word	1073758348
 1011 0138 8E400040 		.word	1073758350
 1012 013c 88170048 		.word	1207965576
 1013 0140 00410040 		.word	1073758464
 1014 0144 00430040 		.word	1073758976
 1015 0148 A1460040 		.word	1073759905
 1016 014c 0F010049 		.word	1224737039
 1017 0150 00420040 		.word	1073758720
 1018 0154 22420040 		.word	1073758754
 1019 0158 20420040 		.word	1073758752
 1020 015c 25420040 		.word	1073758757
 1021 0160 04400040 		.word	1073758212
 1022 0164 06400040 		.word	1073758214
 1023 0168 08400040 		.word	1073758216
 1024 016c 09400040 		.word	1073758217
 1025 0170 01400040 		.word	1073758209
 1026 0174 0B400040 		.word	1073758219
 1027 0178 A2430040 		.word	1073759138
 1028 017c A1430040 		.word	1073759137
 1029 0180 A0430040 		.word	1073759136
 1030              		.cfi_endproc
 1031              	.LFE5:
 1032              		.size	ClockSetup, .-ClockSetup
 1033              		.section	.text.AnalogSetDefault,"ax",%progbits
 1034              		.align	2
 1035              		.thumb
 1036              		.thumb_func
 1037              		.type	AnalogSetDefault, %function
 1038              	AnalogSetDefault:
 1039              	.LFB6:
 697:Generated_Source\PSoC5/cyfitter_cfg.c **** 
 698:Generated_Source\PSoC5/cyfitter_cfg.c **** 
 699:Generated_Source\PSoC5/cyfitter_cfg.c **** /* Analog API Functions */
 700:Generated_Source\PSoC5/cyfitter_cfg.c **** 
 701:Generated_Source\PSoC5/cyfitter_cfg.c **** 
 702:Generated_Source\PSoC5/cyfitter_cfg.c **** /*******************************************************************************
 703:Generated_Source\PSoC5/cyfitter_cfg.c **** * Function Name: AnalogSetDefault
 704:Generated_Source\PSoC5/cyfitter_cfg.c **** ********************************************************************************
 705:Generated_Source\PSoC5/cyfitter_cfg.c **** *
 706:Generated_Source\PSoC5/cyfitter_cfg.c **** * Summary:
 707:Generated_Source\PSoC5/cyfitter_cfg.c **** *  Sets up the analog portions of the chip to default values based on chip
 708:Generated_Source\PSoC5/cyfitter_cfg.c **** *  configuration options from the project.
 709:Generated_Source\PSoC5/cyfitter_cfg.c **** *
 710:Generated_Source\PSoC5/cyfitter_cfg.c **** * Parameters:
 711:Generated_Source\PSoC5/cyfitter_cfg.c **** *  void
 712:Generated_Source\PSoC5/cyfitter_cfg.c **** *
 713:Generated_Source\PSoC5/cyfitter_cfg.c **** * Return:
 714:Generated_Source\PSoC5/cyfitter_cfg.c **** *  void
 715:Generated_Source\PSoC5/cyfitter_cfg.c **** *
 716:Generated_Source\PSoC5/cyfitter_cfg.c **** *******************************************************************************/
 717:Generated_Source\PSoC5/cyfitter_cfg.c **** static void AnalogSetDefault(void);
 718:Generated_Source\PSoC5/cyfitter_cfg.c **** static void AnalogSetDefault(void)
 719:Generated_Source\PSoC5/cyfitter_cfg.c **** {
 1040              		.loc 1 719 0
 1041              		.cfi_startproc
 1042              		@ args = 0, pretend = 0, frame = 8
 1043              		@ frame_needed = 1, uses_anonymous_args = 0
ARM GAS  C:\Users\JEFFSN~1\AppData\Local\Temp\cclRlWK0.s 			page 32


 1044              		@ link register save eliminated.
 1045 0000 80B4     		push	{r7}
 1046              		.cfi_def_cfa_offset 4
 1047              		.cfi_offset 7, -4
 1048 0002 83B0     		sub	sp, sp, #12
 1049              		.cfi_def_cfa_offset 16
 1050 0004 00AF     		add	r7, sp, #0
 1051              		.cfi_def_cfa_register 7
 720:Generated_Source\PSoC5/cyfitter_cfg.c **** 	uint8 bg_xover_inl_trim = CY_GET_XTND_REG8((void CYFAR *)(CYREG_FLSHID_MFG_CFG_BG_XOVER_INL_TRIM +
 1052              		.loc 1 720 0
 1053 0006 1A4B     		ldr	r3, .L25
 1054 0008 1B78     		ldrb	r3, [r3]
 1055 000a FB71     		strb	r3, [r7, #7]
 721:Generated_Source\PSoC5/cyfitter_cfg.c **** 	CY_SET_XTND_REG8((void CYFAR *)(CYREG_BG_DFT0), (bg_xover_inl_trim & 0x07u));
 1056              		.loc 1 721 0
 1057 000c 194A     		ldr	r2, .L25+4
 1058 000e FB79     		ldrb	r3, [r7, #7]
 1059 0010 03F00703 		and	r3, r3, #7
 1060 0014 DBB2     		uxtb	r3, r3
 1061 0016 1370     		strb	r3, [r2]
 722:Generated_Source\PSoC5/cyfitter_cfg.c **** 	CY_SET_XTND_REG8((void CYFAR *)(CYREG_BG_DFT1), ((bg_xover_inl_trim >> 4) & 0x0Fu));
 1062              		.loc 1 722 0
 1063 0018 174A     		ldr	r2, .L25+8
 1064 001a FB79     		ldrb	r3, [r7, #7]	@ zero_extendqisi2
 1065 001c 1B09     		lsrs	r3, r3, #4
 1066 001e DBB2     		uxtb	r3, r3
 1067 0020 1370     		strb	r3, [r2]
 723:Generated_Source\PSoC5/cyfitter_cfg.c **** 	CY_SET_XTND_REG8((void CYFAR *)CYREG_PRT0_AG, 0x09u);
 1068              		.loc 1 723 0
 1069 0022 164B     		ldr	r3, .L25+12
 1070 0024 0922     		movs	r2, #9
 1071 0026 1A70     		strb	r2, [r3]
 724:Generated_Source\PSoC5/cyfitter_cfg.c **** 	CY_SET_XTND_REG8((void CYFAR *)CYREG_PRT3_AG, 0x02u);
 1072              		.loc 1 724 0
 1073 0028 154B     		ldr	r3, .L25+16
 1074 002a 0222     		movs	r2, #2
 1075 002c 1A70     		strb	r2, [r3]
 725:Generated_Source\PSoC5/cyfitter_cfg.c **** 	CY_SET_XTND_REG8((void CYFAR *)CYREG_PRT4_AG, 0x04u);
 1076              		.loc 1 725 0
 1077 002e 154B     		ldr	r3, .L25+20
 1078 0030 0422     		movs	r2, #4
 1079 0032 1A70     		strb	r2, [r3]
 726:Generated_Source\PSoC5/cyfitter_cfg.c **** 	CY_SET_XTND_REG8((void CYFAR *)CYREG_PRT15_AG, 0x10u);
 1080              		.loc 1 726 0
 1081 0034 144B     		ldr	r3, .L25+24
 1082 0036 1022     		movs	r2, #16
 1083 0038 1A70     		strb	r2, [r3]
 727:Generated_Source\PSoC5/cyfitter_cfg.c **** 	CY_SET_XTND_REG8((void CYFAR *)CYREG_CAPSL_CFG0, 0x00u);
 1084              		.loc 1 727 0
 1085 003a 144B     		ldr	r3, .L25+28
 1086 003c 0022     		movs	r2, #0
 1087 003e 1A70     		strb	r2, [r3]
 728:Generated_Source\PSoC5/cyfitter_cfg.c **** 	CY_SET_XTND_REG8((void CYFAR *)CYREG_CMP0_SW0, 0x60u);
 1088              		.loc 1 728 0
 1089 0040 134B     		ldr	r3, .L25+32
 1090 0042 6022     		movs	r2, #96
 1091 0044 1A70     		strb	r2, [r3]
ARM GAS  C:\Users\JEFFSN~1\AppData\Local\Temp\cclRlWK0.s 			page 33


 729:Generated_Source\PSoC5/cyfitter_cfg.c **** 	CY_SET_XTND_REG8((void CYFAR *)CYREG_CMP1_SW0, 0x44u);
 1092              		.loc 1 729 0
 1093 0046 134B     		ldr	r3, .L25+36
 1094 0048 4422     		movs	r2, #68
 1095 004a 1A70     		strb	r2, [r3]
 730:Generated_Source\PSoC5/cyfitter_cfg.c **** 	CY_SET_XTND_REG8((void CYFAR *)CYREG_CMP2_SW3, 0x20u);
 1096              		.loc 1 730 0
 1097 004c 124B     		ldr	r3, .L25+40
 1098 004e 2022     		movs	r2, #32
 1099 0050 1A70     		strb	r2, [r3]
 731:Generated_Source\PSoC5/cyfitter_cfg.c **** 	CY_SET_XTND_REG16((void CYFAR *)CYREG_OPAMP0_MX, 0x0404u);
 1100              		.loc 1 731 0
 1101 0052 124B     		ldr	r3, .L25+44
 1102 0054 40F20442 		movw	r2, #1028
 1103 0058 1A80     		strh	r2, [r3]	@ movhi
 732:Generated_Source\PSoC5/cyfitter_cfg.c **** 	CY_SET_XTND_REG8((void CYFAR *)CYREG_BUS_SW0, 0x24u);
 1104              		.loc 1 732 0
 1105 005a 114B     		ldr	r3, .L25+48
 1106 005c 2422     		movs	r2, #36
 1107 005e 1A70     		strb	r2, [r3]
 733:Generated_Source\PSoC5/cyfitter_cfg.c **** 	CY_SET_XTND_REG8((void CYFAR *)CYREG_PUMP_CR0, 0x66u);
 1108              		.loc 1 733 0
 1109 0060 104B     		ldr	r3, .L25+52
 1110 0062 6622     		movs	r2, #102
 1111 0064 1A70     		strb	r2, [r3]
 734:Generated_Source\PSoC5/cyfitter_cfg.c **** }
 1112              		.loc 1 734 0
 1113 0066 00BF     		nop
 1114 0068 0C37     		adds	r7, r7, #12
 1115              		.cfi_def_cfa_offset 4
 1116 006a BD46     		mov	sp, r7
 1117              		.cfi_def_cfa_register 13
 1118              		@ sp needed
 1119 006c 80BC     		pop	{r7}
 1120              		.cfi_restore 7
 1121              		.cfi_def_cfa_offset 0
 1122 006e 7047     		bx	lr
 1123              	.L26:
 1124              		.align	2
 1125              	.L25:
 1126 0070 CF010049 		.word	1224737231
 1127 0074 6E580040 		.word	1073764462
 1128 0078 6F580040 		.word	1073764463
 1129 007c 0D510040 		.word	1073762573
 1130 0080 3D510040 		.word	1073762621
 1131 0084 4D510040 		.word	1073762637
 1132 0088 FD510040 		.word	1073762813
 1133 008c 70580040 		.word	1073764464
 1134 0090 C05A0040 		.word	1073765056
 1135 0094 C85A0040 		.word	1073765064
 1136 0098 D35A0040 		.word	1073765075
 1137 009c 405B0040 		.word	1073765184
 1138 00a0 585B0040 		.word	1073765208
 1139 00a4 76580040 		.word	1073764470
 1140              		.cfi_endproc
 1141              	.LFE6:
 1142              		.size	AnalogSetDefault, .-AnalogSetDefault
ARM GAS  C:\Users\JEFFSN~1\AppData\Local\Temp\cclRlWK0.s 			page 34


 1143              		.section	.text.SetAnalogRoutingPumps,"ax",%progbits
 1144              		.align	2
 1145              		.global	SetAnalogRoutingPumps
 1146              		.thumb
 1147              		.thumb_func
 1148              		.type	SetAnalogRoutingPumps, %function
 1149              	SetAnalogRoutingPumps:
 1150              	.LFB7:
 735:Generated_Source\PSoC5/cyfitter_cfg.c **** 
 736:Generated_Source\PSoC5/cyfitter_cfg.c **** 
 737:Generated_Source\PSoC5/cyfitter_cfg.c **** /*******************************************************************************
 738:Generated_Source\PSoC5/cyfitter_cfg.c **** * Function Name: SetAnalogRoutingPumps
 739:Generated_Source\PSoC5/cyfitter_cfg.c **** ********************************************************************************
 740:Generated_Source\PSoC5/cyfitter_cfg.c **** *
 741:Generated_Source\PSoC5/cyfitter_cfg.c **** * Summary:
 742:Generated_Source\PSoC5/cyfitter_cfg.c **** * Enables or disables the analog pumps feeding analog routing switches.
 743:Generated_Source\PSoC5/cyfitter_cfg.c **** * Intended to be called at startup, based on the Vdda system configuration;
 744:Generated_Source\PSoC5/cyfitter_cfg.c **** * may be called during operation when the user informs us that the Vdda voltage
 745:Generated_Source\PSoC5/cyfitter_cfg.c **** * crossed the pump threshold.
 746:Generated_Source\PSoC5/cyfitter_cfg.c **** *
 747:Generated_Source\PSoC5/cyfitter_cfg.c **** * Parameters:
 748:Generated_Source\PSoC5/cyfitter_cfg.c **** *  enabled - 1 to enable the pumps, 0 to disable the pumps
 749:Generated_Source\PSoC5/cyfitter_cfg.c **** *
 750:Generated_Source\PSoC5/cyfitter_cfg.c **** * Return:
 751:Generated_Source\PSoC5/cyfitter_cfg.c **** *  void
 752:Generated_Source\PSoC5/cyfitter_cfg.c **** *
 753:Generated_Source\PSoC5/cyfitter_cfg.c **** *******************************************************************************/
 754:Generated_Source\PSoC5/cyfitter_cfg.c **** void SetAnalogRoutingPumps(uint8 enabled)
 755:Generated_Source\PSoC5/cyfitter_cfg.c **** {
 1151              		.loc 1 755 0
 1152              		.cfi_startproc
 1153              		@ args = 0, pretend = 0, frame = 16
 1154              		@ frame_needed = 1, uses_anonymous_args = 0
 1155              		@ link register save eliminated.
 1156 0000 80B4     		push	{r7}
 1157              		.cfi_def_cfa_offset 4
 1158              		.cfi_offset 7, -4
 1159 0002 85B0     		sub	sp, sp, #20
 1160              		.cfi_def_cfa_offset 24
 1161 0004 00AF     		add	r7, sp, #0
 1162              		.cfi_def_cfa_register 7
 1163 0006 0346     		mov	r3, r0
 1164 0008 FB71     		strb	r3, [r7, #7]
 756:Generated_Source\PSoC5/cyfitter_cfg.c **** 	uint8 regValue = CY_GET_XTND_REG8((void CYFAR *)CYREG_PUMP_CR0);
 1165              		.loc 1 756 0
 1166 000a 0B4B     		ldr	r3, .L30
 1167 000c 1B78     		ldrb	r3, [r3]
 1168 000e FB73     		strb	r3, [r7, #15]
 757:Generated_Source\PSoC5/cyfitter_cfg.c **** 	if (enabled != 0u)
 1169              		.loc 1 757 0
 1170 0010 FB79     		ldrb	r3, [r7, #7]	@ zero_extendqisi2
 1171 0012 002B     		cmp	r3, #0
 1172 0014 04D0     		beq	.L28
 758:Generated_Source\PSoC5/cyfitter_cfg.c **** 	{
 759:Generated_Source\PSoC5/cyfitter_cfg.c **** 		regValue |= 0x22u;
 1173              		.loc 1 759 0
 1174 0016 FB7B     		ldrb	r3, [r7, #15]
ARM GAS  C:\Users\JEFFSN~1\AppData\Local\Temp\cclRlWK0.s 			page 35


 1175 0018 43F02203 		orr	r3, r3, #34
 1176 001c FB73     		strb	r3, [r7, #15]
 1177 001e 03E0     		b	.L29
 1178              	.L28:
 760:Generated_Source\PSoC5/cyfitter_cfg.c **** 	}
 761:Generated_Source\PSoC5/cyfitter_cfg.c **** 	else
 762:Generated_Source\PSoC5/cyfitter_cfg.c **** 	{
 763:Generated_Source\PSoC5/cyfitter_cfg.c **** 		regValue &= (uint8)~0x22u;
 1179              		.loc 1 763 0
 1180 0020 FB7B     		ldrb	r3, [r7, #15]
 1181 0022 23F02203 		bic	r3, r3, #34
 1182 0026 FB73     		strb	r3, [r7, #15]
 1183              	.L29:
 764:Generated_Source\PSoC5/cyfitter_cfg.c **** 	}
 765:Generated_Source\PSoC5/cyfitter_cfg.c **** 	CY_SET_XTND_REG8((void CYFAR *)CYREG_PUMP_CR0, regValue);
 1184              		.loc 1 765 0
 1185 0028 034A     		ldr	r2, .L30
 1186 002a FB7B     		ldrb	r3, [r7, #15]
 1187 002c 1370     		strb	r3, [r2]
 766:Generated_Source\PSoC5/cyfitter_cfg.c **** }
 1188              		.loc 1 766 0
 1189 002e 00BF     		nop
 1190 0030 1437     		adds	r7, r7, #20
 1191              		.cfi_def_cfa_offset 4
 1192 0032 BD46     		mov	sp, r7
 1193              		.cfi_def_cfa_register 13
 1194              		@ sp needed
 1195 0034 80BC     		pop	{r7}
 1196              		.cfi_restore 7
 1197              		.cfi_def_cfa_offset 0
 1198 0036 7047     		bx	lr
 1199              	.L31:
 1200              		.align	2
 1201              	.L30:
 1202 0038 76580040 		.word	1073764470
 1203              		.cfi_endproc
 1204              	.LFE7:
 1205              		.size	SetAnalogRoutingPumps, .-SetAnalogRoutingPumps
 1206              		.section	.rodata
 1207              		.align	2
 1208              		.type	AMux_1_CYAMUXSIDE_A__outerAddr, %object
 1209              		.size	AMux_1_CYAMUXSIDE_A__outerAddr, 16
 1210              	AMux_1_CYAMUXSIDE_A__outerAddr:
 1211 0000 3D510040 		.word	1073762621
 1212 0004 585B0040 		.word	1073765208
 1213 0008 005B0040 		.word	1073765120
 1214 000c 005B0040 		.word	1073765120
 1215              		.align	2
 1216              		.type	AMux_1_CYAMUXSIDE_A__outerMask, %object
 1217              		.size	AMux_1_CYAMUXSIDE_A__outerMask, 4
 1218              	AMux_1_CYAMUXSIDE_A__outerMask:
 1219 0010 40       		.byte	64
 1220 0011 40       		.byte	64
 1221 0012 10       		.byte	16
 1222 0013 80       		.byte	-128
 1223              		.align	2
 1224              		.type	AMux_1_CYAMUXSIDE_A__innerAddr, %object
ARM GAS  C:\Users\JEFFSN~1\AppData\Local\Temp\cclRlWK0.s 			page 36


 1225              		.size	AMux_1_CYAMUXSIDE_A__innerAddr, 8
 1226              	AMux_1_CYAMUXSIDE_A__innerAddr:
 1227 0014 005B0040 		.word	1073765120
 1228 0018 24430040 		.word	1073759012
 1229              		.align	2
 1230              		.type	AMux_1_CYAMUXSIDE_A__innerMask, %object
 1231              		.size	AMux_1_CYAMUXSIDE_A__innerMask, 2
 1232              	AMux_1_CYAMUXSIDE_A__innerMask:
 1233 001c 04       		.byte	4
 1234 001d 00       		.byte	0
 1235 001e 0000     		.align	2
 1236              		.type	AMux_1_CYAMUXSIDE_A__innerMap, %object
 1237              		.size	AMux_1_CYAMUXSIDE_A__innerMap, 4
 1238              	AMux_1_CYAMUXSIDE_A__innerMap:
 1239 0020 00       		.byte	0
 1240 0021 00       		.byte	0
 1241 0022 01       		.byte	1
 1242 0023 01       		.byte	1
 1243              		.bss
 1244              	AMux_1_CYAMUXSIDE_A__armsEnabled:
 1245 0000 00       		.space	1
 1246 0001 000000   		.align	2
 1247              	AMux_1_CYAMUXSIDE_A__refCnt:
 1248 0004 0000     		.space	2
 1249              		.section	.text.AMux_1_CYAMUXSIDE_A_Set,"ax",%progbits
 1250              		.align	2
 1251              		.global	AMux_1_CYAMUXSIDE_A_Set
 1252              		.thumb
 1253              		.thumb_func
 1254              		.type	AMux_1_CYAMUXSIDE_A_Set, %function
 1255              	AMux_1_CYAMUXSIDE_A_Set:
 1256              	.LFB8:
 767:Generated_Source\PSoC5/cyfitter_cfg.c **** 
 768:Generated_Source\PSoC5/cyfitter_cfg.c **** 
 769:Generated_Source\PSoC5/cyfitter_cfg.c **** #define CY_AMUX_UNUSED CYREG_BOOST_SR
 770:Generated_Source\PSoC5/cyfitter_cfg.c **** static uint8 CYXDATA * const CYCODE AMux_1_CYAMUXSIDE_A__outerAddr[4] = {
 771:Generated_Source\PSoC5/cyfitter_cfg.c **** 	(uint8 CYXDATA *)CYREG_PRT3_AG, 
 772:Generated_Source\PSoC5/cyfitter_cfg.c **** 	(uint8 CYXDATA *)CYREG_BUS_SW0, 
 773:Generated_Source\PSoC5/cyfitter_cfg.c **** 	(uint8 CYXDATA *)CYREG_DSM0_SW0, 
 774:Generated_Source\PSoC5/cyfitter_cfg.c **** 	(uint8 CYXDATA *)CYREG_DSM0_SW0, 
 775:Generated_Source\PSoC5/cyfitter_cfg.c **** };
 776:Generated_Source\PSoC5/cyfitter_cfg.c **** 
 777:Generated_Source\PSoC5/cyfitter_cfg.c **** static const uint8 CYCODE AMux_1_CYAMUXSIDE_A__outerMask[4] = {
 778:Generated_Source\PSoC5/cyfitter_cfg.c **** 	0x40u, 
 779:Generated_Source\PSoC5/cyfitter_cfg.c **** 	0x40u, 
 780:Generated_Source\PSoC5/cyfitter_cfg.c **** 	0x10u, 
 781:Generated_Source\PSoC5/cyfitter_cfg.c **** 	0x80u, 
 782:Generated_Source\PSoC5/cyfitter_cfg.c **** };
 783:Generated_Source\PSoC5/cyfitter_cfg.c **** 
 784:Generated_Source\PSoC5/cyfitter_cfg.c **** static uint8 CYXDATA * const CYCODE AMux_1_CYAMUXSIDE_A__innerAddr[2] = {
 785:Generated_Source\PSoC5/cyfitter_cfg.c **** 	(uint8 CYXDATA *)CYREG_DSM0_SW0, 
 786:Generated_Source\PSoC5/cyfitter_cfg.c **** 	(uint8 CYXDATA *)CY_AMUX_UNUSED, 
 787:Generated_Source\PSoC5/cyfitter_cfg.c **** };
 788:Generated_Source\PSoC5/cyfitter_cfg.c **** 
 789:Generated_Source\PSoC5/cyfitter_cfg.c **** static const uint8 CYCODE AMux_1_CYAMUXSIDE_A__innerMask[2] = {
 790:Generated_Source\PSoC5/cyfitter_cfg.c **** 	0x04u, 
 791:Generated_Source\PSoC5/cyfitter_cfg.c **** 	0x00u, 
ARM GAS  C:\Users\JEFFSN~1\AppData\Local\Temp\cclRlWK0.s 			page 37


 792:Generated_Source\PSoC5/cyfitter_cfg.c **** };
 793:Generated_Source\PSoC5/cyfitter_cfg.c **** 
 794:Generated_Source\PSoC5/cyfitter_cfg.c **** static const uint8 CYCODE AMux_1_CYAMUXSIDE_A__innerMap[4] = {
 795:Generated_Source\PSoC5/cyfitter_cfg.c **** 	0u, 
 796:Generated_Source\PSoC5/cyfitter_cfg.c **** 	0u, 
 797:Generated_Source\PSoC5/cyfitter_cfg.c **** 	1u, 
 798:Generated_Source\PSoC5/cyfitter_cfg.c **** 	1u, 
 799:Generated_Source\PSoC5/cyfitter_cfg.c **** };
 800:Generated_Source\PSoC5/cyfitter_cfg.c **** 
 801:Generated_Source\PSoC5/cyfitter_cfg.c **** static uint8 AMux_1_CYAMUXSIDE_A__armsEnabled = 0u;
 802:Generated_Source\PSoC5/cyfitter_cfg.c **** static uint8 AMux_1_CYAMUXSIDE_A__refCnt[] = {0u, 0u};
 803:Generated_Source\PSoC5/cyfitter_cfg.c **** 
 804:Generated_Source\PSoC5/cyfitter_cfg.c **** /*******************************************************************************
 805:Generated_Source\PSoC5/cyfitter_cfg.c **** * Function Name: AMux_1_CYAMUXSIDE_A_Set
 806:Generated_Source\PSoC5/cyfitter_cfg.c **** ********************************************************************************
 807:Generated_Source\PSoC5/cyfitter_cfg.c **** * Summary:
 808:Generated_Source\PSoC5/cyfitter_cfg.c **** *  This function is used to set a particular channel as active on the AMux.
 809:Generated_Source\PSoC5/cyfitter_cfg.c **** *
 810:Generated_Source\PSoC5/cyfitter_cfg.c **** * Parameters:  
 811:Generated_Source\PSoC5/cyfitter_cfg.c **** *   channel - The mux channel input to set as active
 812:Generated_Source\PSoC5/cyfitter_cfg.c **** *
 813:Generated_Source\PSoC5/cyfitter_cfg.c **** * Return:
 814:Generated_Source\PSoC5/cyfitter_cfg.c **** *   void
 815:Generated_Source\PSoC5/cyfitter_cfg.c **** *
 816:Generated_Source\PSoC5/cyfitter_cfg.c **** *******************************************************************************/
 817:Generated_Source\PSoC5/cyfitter_cfg.c **** void AMux_1_CYAMUXSIDE_A_Set(uint8 channel)
 818:Generated_Source\PSoC5/cyfitter_cfg.c **** {
 1257              		.loc 1 818 0
 1258              		.cfi_startproc
 1259              		@ args = 0, pretend = 0, frame = 16
 1260              		@ frame_needed = 1, uses_anonymous_args = 0
 1261              		@ link register save eliminated.
 1262 0000 80B4     		push	{r7}
 1263              		.cfi_def_cfa_offset 4
 1264              		.cfi_offset 7, -4
 1265 0002 85B0     		sub	sp, sp, #20
 1266              		.cfi_def_cfa_offset 24
 1267 0004 00AF     		add	r7, sp, #0
 1268              		.cfi_def_cfa_register 7
 1269 0006 0346     		mov	r3, r0
 1270 0008 FB71     		strb	r3, [r7, #7]
 819:Generated_Source\PSoC5/cyfitter_cfg.c **** 	uint8 i;
 820:Generated_Source\PSoC5/cyfitter_cfg.c **** 	uint8 channelMask = (1UL << channel);
 1271              		.loc 1 820 0
 1272 000a FB79     		ldrb	r3, [r7, #7]	@ zero_extendqisi2
 1273 000c 0122     		movs	r2, #1
 1274 000e 02FA03F3 		lsl	r3, r2, r3
 1275 0012 FB73     		strb	r3, [r7, #15]
 821:Generated_Source\PSoC5/cyfitter_cfg.c **** 	if ((channel < 4u) && ((AMux_1_CYAMUXSIDE_A__armsEnabled & channelMask) == ((uint32)0u)))
 1276              		.loc 1 821 0
 1277 0014 FB79     		ldrb	r3, [r7, #7]	@ zero_extendqisi2
 1278 0016 032B     		cmp	r3, #3
 1279 0018 3BD8     		bhi	.L35
 1280              		.loc 1 821 0 is_stmt 0 discriminator 1
 1281 001a 204B     		ldr	r3, .L36
 1282 001c 1A78     		ldrb	r2, [r3]	@ zero_extendqisi2
 1283 001e FB7B     		ldrb	r3, [r7, #15]
ARM GAS  C:\Users\JEFFSN~1\AppData\Local\Temp\cclRlWK0.s 			page 38


 1284 0020 1340     		ands	r3, r3, r2
 1285 0022 DBB2     		uxtb	r3, r3
 1286 0024 002B     		cmp	r3, #0
 1287 0026 34D1     		bne	.L35
 822:Generated_Source\PSoC5/cyfitter_cfg.c **** 	{
 823:Generated_Source\PSoC5/cyfitter_cfg.c **** 		AMux_1_CYAMUXSIDE_A__armsEnabled |= channelMask;
 1288              		.loc 1 823 0 is_stmt 1
 1289 0028 1C4B     		ldr	r3, .L36
 1290 002a 1A78     		ldrb	r2, [r3]	@ zero_extendqisi2
 1291 002c FB7B     		ldrb	r3, [r7, #15]
 1292 002e 1343     		orrs	r3, r3, r2
 1293 0030 DAB2     		uxtb	r2, r3
 1294 0032 1A4B     		ldr	r3, .L36
 1295 0034 1A70     		strb	r2, [r3]
 824:Generated_Source\PSoC5/cyfitter_cfg.c **** 		*AMux_1_CYAMUXSIDE_A__outerAddr[channel] |= AMux_1_CYAMUXSIDE_A__outerMask[channel];
 1296              		.loc 1 824 0
 1297 0036 FB79     		ldrb	r3, [r7, #7]	@ zero_extendqisi2
 1298 0038 194A     		ldr	r2, .L36+4
 1299 003a 52F82330 		ldr	r3, [r2, r3, lsl #2]
 1300 003e FA79     		ldrb	r2, [r7, #7]	@ zero_extendqisi2
 1301 0040 1749     		ldr	r1, .L36+4
 1302 0042 51F82220 		ldr	r2, [r1, r2, lsl #2]
 1303 0046 1178     		ldrb	r1, [r2]	@ zero_extendqisi2
 1304 0048 FA79     		ldrb	r2, [r7, #7]	@ zero_extendqisi2
 1305 004a 1648     		ldr	r0, .L36+8
 1306 004c 825C     		ldrb	r2, [r0, r2]	@ zero_extendqisi2
 1307 004e 0A43     		orrs	r2, r2, r1
 1308 0050 D2B2     		uxtb	r2, r2
 1309 0052 1A70     		strb	r2, [r3]
 825:Generated_Source\PSoC5/cyfitter_cfg.c **** 		i = AMux_1_CYAMUXSIDE_A__innerMap[channel];
 1310              		.loc 1 825 0
 1311 0054 FB79     		ldrb	r3, [r7, #7]	@ zero_extendqisi2
 1312 0056 144A     		ldr	r2, .L36+12
 1313 0058 D35C     		ldrb	r3, [r2, r3]
 1314 005a BB73     		strb	r3, [r7, #14]
 826:Generated_Source\PSoC5/cyfitter_cfg.c **** 		if (AMux_1_CYAMUXSIDE_A__refCnt[i] == 0u)
 1315              		.loc 1 826 0
 1316 005c BB7B     		ldrb	r3, [r7, #14]	@ zero_extendqisi2
 1317 005e 134A     		ldr	r2, .L36+16
 1318 0060 D35C     		ldrb	r3, [r2, r3]	@ zero_extendqisi2
 1319 0062 002B     		cmp	r3, #0
 1320 0064 0ED1     		bne	.L34
 827:Generated_Source\PSoC5/cyfitter_cfg.c **** 		{
 828:Generated_Source\PSoC5/cyfitter_cfg.c **** 			*AMux_1_CYAMUXSIDE_A__innerAddr[i] |= AMux_1_CYAMUXSIDE_A__innerMask[i];
 1321              		.loc 1 828 0
 1322 0066 BB7B     		ldrb	r3, [r7, #14]	@ zero_extendqisi2
 1323 0068 114A     		ldr	r2, .L36+20
 1324 006a 52F82330 		ldr	r3, [r2, r3, lsl #2]
 1325 006e BA7B     		ldrb	r2, [r7, #14]	@ zero_extendqisi2
 1326 0070 0F49     		ldr	r1, .L36+20
 1327 0072 51F82220 		ldr	r2, [r1, r2, lsl #2]
 1328 0076 1178     		ldrb	r1, [r2]	@ zero_extendqisi2
 1329 0078 BA7B     		ldrb	r2, [r7, #14]	@ zero_extendqisi2
 1330 007a 0E48     		ldr	r0, .L36+24
 1331 007c 825C     		ldrb	r2, [r0, r2]	@ zero_extendqisi2
 1332 007e 0A43     		orrs	r2, r2, r1
 1333 0080 D2B2     		uxtb	r2, r2
ARM GAS  C:\Users\JEFFSN~1\AppData\Local\Temp\cclRlWK0.s 			page 39


 1334 0082 1A70     		strb	r2, [r3]
 1335              	.L34:
 829:Generated_Source\PSoC5/cyfitter_cfg.c **** 		}
 830:Generated_Source\PSoC5/cyfitter_cfg.c **** 		AMux_1_CYAMUXSIDE_A__refCnt[i]++;
 1336              		.loc 1 830 0
 1337 0084 BB7B     		ldrb	r3, [r7, #14]	@ zero_extendqisi2
 1338 0086 094A     		ldr	r2, .L36+16
 1339 0088 D25C     		ldrb	r2, [r2, r3]	@ zero_extendqisi2
 1340 008a 0132     		adds	r2, r2, #1
 1341 008c D1B2     		uxtb	r1, r2
 1342 008e 074A     		ldr	r2, .L36+16
 1343 0090 D154     		strb	r1, [r2, r3]
 1344              	.L35:
 831:Generated_Source\PSoC5/cyfitter_cfg.c **** 	}
 832:Generated_Source\PSoC5/cyfitter_cfg.c **** }
 1345              		.loc 1 832 0
 1346 0092 00BF     		nop
 1347 0094 1437     		adds	r7, r7, #20
 1348              		.cfi_def_cfa_offset 4
 1349 0096 BD46     		mov	sp, r7
 1350              		.cfi_def_cfa_register 13
 1351              		@ sp needed
 1352 0098 80BC     		pop	{r7}
 1353              		.cfi_restore 7
 1354              		.cfi_def_cfa_offset 0
 1355 009a 7047     		bx	lr
 1356              	.L37:
 1357              		.align	2
 1358              	.L36:
 1359 009c 00000000 		.word	AMux_1_CYAMUXSIDE_A__armsEnabled
 1360 00a0 00000000 		.word	AMux_1_CYAMUXSIDE_A__outerAddr
 1361 00a4 10000000 		.word	AMux_1_CYAMUXSIDE_A__outerMask
 1362 00a8 20000000 		.word	AMux_1_CYAMUXSIDE_A__innerMap
 1363 00ac 04000000 		.word	AMux_1_CYAMUXSIDE_A__refCnt
 1364 00b0 14000000 		.word	AMux_1_CYAMUXSIDE_A__innerAddr
 1365 00b4 1C000000 		.word	AMux_1_CYAMUXSIDE_A__innerMask
 1366              		.cfi_endproc
 1367              	.LFE8:
 1368              		.size	AMux_1_CYAMUXSIDE_A_Set, .-AMux_1_CYAMUXSIDE_A_Set
 1369              		.section	.text.AMux_1_CYAMUXSIDE_A_Unset,"ax",%progbits
 1370              		.align	2
 1371              		.global	AMux_1_CYAMUXSIDE_A_Unset
 1372              		.thumb
 1373              		.thumb_func
 1374              		.type	AMux_1_CYAMUXSIDE_A_Unset, %function
 1375              	AMux_1_CYAMUXSIDE_A_Unset:
 1376              	.LFB9:
 833:Generated_Source\PSoC5/cyfitter_cfg.c **** 
 834:Generated_Source\PSoC5/cyfitter_cfg.c **** /*******************************************************************************
 835:Generated_Source\PSoC5/cyfitter_cfg.c **** * Function Name: AMux_1_CYAMUXSIDE_A_Unset
 836:Generated_Source\PSoC5/cyfitter_cfg.c **** ********************************************************************************
 837:Generated_Source\PSoC5/cyfitter_cfg.c **** * Summary:
 838:Generated_Source\PSoC5/cyfitter_cfg.c **** *  This function is used to clear a particular channel from being active on the
 839:Generated_Source\PSoC5/cyfitter_cfg.c **** *  AMux.
 840:Generated_Source\PSoC5/cyfitter_cfg.c **** *
 841:Generated_Source\PSoC5/cyfitter_cfg.c **** * Parameters:  
 842:Generated_Source\PSoC5/cyfitter_cfg.c **** *   channel - The mux channel input to mark inactive
ARM GAS  C:\Users\JEFFSN~1\AppData\Local\Temp\cclRlWK0.s 			page 40


 843:Generated_Source\PSoC5/cyfitter_cfg.c **** *
 844:Generated_Source\PSoC5/cyfitter_cfg.c **** * Return:
 845:Generated_Source\PSoC5/cyfitter_cfg.c **** *   void
 846:Generated_Source\PSoC5/cyfitter_cfg.c **** *
 847:Generated_Source\PSoC5/cyfitter_cfg.c **** *******************************************************************************/
 848:Generated_Source\PSoC5/cyfitter_cfg.c **** void AMux_1_CYAMUXSIDE_A_Unset(uint8 channel)
 849:Generated_Source\PSoC5/cyfitter_cfg.c **** {
 1377              		.loc 1 849 0
 1378              		.cfi_startproc
 1379              		@ args = 0, pretend = 0, frame = 16
 1380              		@ frame_needed = 1, uses_anonymous_args = 0
 1381              		@ link register save eliminated.
 1382 0000 80B4     		push	{r7}
 1383              		.cfi_def_cfa_offset 4
 1384              		.cfi_offset 7, -4
 1385 0002 85B0     		sub	sp, sp, #20
 1386              		.cfi_def_cfa_offset 24
 1387 0004 00AF     		add	r7, sp, #0
 1388              		.cfi_def_cfa_register 7
 1389 0006 0346     		mov	r3, r0
 1390 0008 FB71     		strb	r3, [r7, #7]
 850:Generated_Source\PSoC5/cyfitter_cfg.c **** 	uint8 i;
 851:Generated_Source\PSoC5/cyfitter_cfg.c **** 	uint8 channelMask = (1UL << channel);
 1391              		.loc 1 851 0
 1392 000a FB79     		ldrb	r3, [r7, #7]	@ zero_extendqisi2
 1393 000c 0122     		movs	r2, #1
 1394 000e 02FA03F3 		lsl	r3, r2, r3
 1395 0012 FB73     		strb	r3, [r7, #15]
 852:Generated_Source\PSoC5/cyfitter_cfg.c **** 	if ((channel < 4u) && ((AMux_1_CYAMUXSIDE_A__armsEnabled & channelMask) != ((uint32)0u)))
 1396              		.loc 1 852 0
 1397 0014 FB79     		ldrb	r3, [r7, #7]	@ zero_extendqisi2
 1398 0016 032B     		cmp	r3, #3
 1399 0018 41D8     		bhi	.L40
 1400              		.loc 1 852 0 is_stmt 0 discriminator 1
 1401 001a 234B     		ldr	r3, .L41
 1402 001c 1A78     		ldrb	r2, [r3]	@ zero_extendqisi2
 1403 001e FB7B     		ldrb	r3, [r7, #15]
 1404 0020 1340     		ands	r3, r3, r2
 1405 0022 DBB2     		uxtb	r3, r3
 1406 0024 002B     		cmp	r3, #0
 1407 0026 3AD0     		beq	.L40
 853:Generated_Source\PSoC5/cyfitter_cfg.c **** 	{
 854:Generated_Source\PSoC5/cyfitter_cfg.c **** 		AMux_1_CYAMUXSIDE_A__armsEnabled &= (uint8)~channelMask;
 1408              		.loc 1 854 0 is_stmt 1
 1409 0028 FB7B     		ldrb	r3, [r7, #15]
 1410 002a DB43     		mvns	r3, r3
 1411 002c DAB2     		uxtb	r2, r3
 1412 002e 1E4B     		ldr	r3, .L41
 1413 0030 1B78     		ldrb	r3, [r3]	@ zero_extendqisi2
 1414 0032 1340     		ands	r3, r3, r2
 1415 0034 DAB2     		uxtb	r2, r3
 1416 0036 1C4B     		ldr	r3, .L41
 1417 0038 1A70     		strb	r2, [r3]
 855:Generated_Source\PSoC5/cyfitter_cfg.c **** 		*AMux_1_CYAMUXSIDE_A__outerAddr[channel] &= (uint8)~AMux_1_CYAMUXSIDE_A__outerMask[channel];
 1418              		.loc 1 855 0
 1419 003a FB79     		ldrb	r3, [r7, #7]	@ zero_extendqisi2
 1420 003c 1B4A     		ldr	r2, .L41+4
ARM GAS  C:\Users\JEFFSN~1\AppData\Local\Temp\cclRlWK0.s 			page 41


 1421 003e 52F82330 		ldr	r3, [r2, r3, lsl #2]
 1422 0042 FA79     		ldrb	r2, [r7, #7]	@ zero_extendqisi2
 1423 0044 1949     		ldr	r1, .L41+4
 1424 0046 51F82220 		ldr	r2, [r1, r2, lsl #2]
 1425 004a 1178     		ldrb	r1, [r2]	@ zero_extendqisi2
 1426 004c FA79     		ldrb	r2, [r7, #7]	@ zero_extendqisi2
 1427 004e 1848     		ldr	r0, .L41+8
 1428 0050 825C     		ldrb	r2, [r0, r2]	@ zero_extendqisi2
 1429 0052 D243     		mvns	r2, r2
 1430 0054 D2B2     		uxtb	r2, r2
 1431 0056 0A40     		ands	r2, r2, r1
 1432 0058 D2B2     		uxtb	r2, r2
 1433 005a 1A70     		strb	r2, [r3]
 856:Generated_Source\PSoC5/cyfitter_cfg.c **** 		i = AMux_1_CYAMUXSIDE_A__innerMap[channel];
 1434              		.loc 1 856 0
 1435 005c FB79     		ldrb	r3, [r7, #7]	@ zero_extendqisi2
 1436 005e 154A     		ldr	r2, .L41+12
 1437 0060 D35C     		ldrb	r3, [r2, r3]
 1438 0062 BB73     		strb	r3, [r7, #14]
 857:Generated_Source\PSoC5/cyfitter_cfg.c **** 		AMux_1_CYAMUXSIDE_A__refCnt[i]--;
 1439              		.loc 1 857 0
 1440 0064 BB7B     		ldrb	r3, [r7, #14]	@ zero_extendqisi2
 1441 0066 144A     		ldr	r2, .L41+16
 1442 0068 D25C     		ldrb	r2, [r2, r3]	@ zero_extendqisi2
 1443 006a 013A     		subs	r2, r2, #1
 1444 006c D1B2     		uxtb	r1, r2
 1445 006e 124A     		ldr	r2, .L41+16
 1446 0070 D154     		strb	r1, [r2, r3]
 858:Generated_Source\PSoC5/cyfitter_cfg.c **** 		if (AMux_1_CYAMUXSIDE_A__refCnt[i] == 0)
 1447              		.loc 1 858 0
 1448 0072 BB7B     		ldrb	r3, [r7, #14]	@ zero_extendqisi2
 1449 0074 104A     		ldr	r2, .L41+16
 1450 0076 D35C     		ldrb	r3, [r2, r3]	@ zero_extendqisi2
 1451 0078 002B     		cmp	r3, #0
 1452 007a 10D1     		bne	.L40
 859:Generated_Source\PSoC5/cyfitter_cfg.c **** 		{
 860:Generated_Source\PSoC5/cyfitter_cfg.c **** 			*AMux_1_CYAMUXSIDE_A__innerAddr[i] &= (uint8)~AMux_1_CYAMUXSIDE_A__innerMask[i];
 1453              		.loc 1 860 0
 1454 007c BB7B     		ldrb	r3, [r7, #14]	@ zero_extendqisi2
 1455 007e 0F4A     		ldr	r2, .L41+20
 1456 0080 52F82330 		ldr	r3, [r2, r3, lsl #2]
 1457 0084 BA7B     		ldrb	r2, [r7, #14]	@ zero_extendqisi2
 1458 0086 0D49     		ldr	r1, .L41+20
 1459 0088 51F82220 		ldr	r2, [r1, r2, lsl #2]
 1460 008c 1178     		ldrb	r1, [r2]	@ zero_extendqisi2
 1461 008e BA7B     		ldrb	r2, [r7, #14]	@ zero_extendqisi2
 1462 0090 0B48     		ldr	r0, .L41+24
 1463 0092 825C     		ldrb	r2, [r0, r2]	@ zero_extendqisi2
 1464 0094 D243     		mvns	r2, r2
 1465 0096 D2B2     		uxtb	r2, r2
 1466 0098 0A40     		ands	r2, r2, r1
 1467 009a D2B2     		uxtb	r2, r2
 1468 009c 1A70     		strb	r2, [r3]
 1469              	.L40:
 861:Generated_Source\PSoC5/cyfitter_cfg.c **** 		}
 862:Generated_Source\PSoC5/cyfitter_cfg.c **** 	}
 863:Generated_Source\PSoC5/cyfitter_cfg.c **** }
ARM GAS  C:\Users\JEFFSN~1\AppData\Local\Temp\cclRlWK0.s 			page 42


 1470              		.loc 1 863 0
 1471 009e 00BF     		nop
 1472 00a0 1437     		adds	r7, r7, #20
 1473              		.cfi_def_cfa_offset 4
 1474 00a2 BD46     		mov	sp, r7
 1475              		.cfi_def_cfa_register 13
 1476              		@ sp needed
 1477 00a4 80BC     		pop	{r7}
 1478              		.cfi_restore 7
 1479              		.cfi_def_cfa_offset 0
 1480 00a6 7047     		bx	lr
 1481              	.L42:
 1482              		.align	2
 1483              	.L41:
 1484 00a8 00000000 		.word	AMux_1_CYAMUXSIDE_A__armsEnabled
 1485 00ac 00000000 		.word	AMux_1_CYAMUXSIDE_A__outerAddr
 1486 00b0 10000000 		.word	AMux_1_CYAMUXSIDE_A__outerMask
 1487 00b4 20000000 		.word	AMux_1_CYAMUXSIDE_A__innerMap
 1488 00b8 04000000 		.word	AMux_1_CYAMUXSIDE_A__refCnt
 1489 00bc 14000000 		.word	AMux_1_CYAMUXSIDE_A__innerAddr
 1490 00c0 1C000000 		.word	AMux_1_CYAMUXSIDE_A__innerMask
 1491              		.cfi_endproc
 1492              	.LFE9:
 1493              		.size	AMux_1_CYAMUXSIDE_A_Unset, .-AMux_1_CYAMUXSIDE_A_Unset
 1494              		.global	AMux_1_CYAMUXSIDE_B__addrTable
 1495              		.section	.rodata
 1496              		.align	2
 1497              		.type	AMux_1_CYAMUXSIDE_B__addrTable, %object
 1498              		.size	AMux_1_CYAMUXSIDE_B__addrTable, 16
 1499              	AMux_1_CYAMUXSIDE_B__addrTable:
 1500 0024 045B0040 		.word	1073765124
 1501 0028 035B0040 		.word	1073765123
 1502 002c 045B0040 		.word	1073765124
 1503 0030 035B0040 		.word	1073765123
 1504              		.global	AMux_1_CYAMUXSIDE_B__maskTable
 1505              		.align	2
 1506              		.type	AMux_1_CYAMUXSIDE_B__maskTable, %object
 1507              		.size	AMux_1_CYAMUXSIDE_B__maskTable, 4
 1508              	AMux_1_CYAMUXSIDE_B__maskTable:
 1509 0034 20       		.byte	32
 1510 0035 40       		.byte	64
 1511 0036 80       		.byte	-128
 1512 0037 40       		.byte	64
 1513              		.section	.text.AMux_1_CYAMUXSIDE_B_Set,"ax",%progbits
 1514              		.align	2
 1515              		.global	AMux_1_CYAMUXSIDE_B_Set
 1516              		.thumb
 1517              		.thumb_func
 1518              		.type	AMux_1_CYAMUXSIDE_B_Set, %function
 1519              	AMux_1_CYAMUXSIDE_B_Set:
 1520              	.LFB10:
 864:Generated_Source\PSoC5/cyfitter_cfg.c **** 
 865:Generated_Source\PSoC5/cyfitter_cfg.c **** /* This is an implementation detail of the AMux. Code that depends on it may be
 866:Generated_Source\PSoC5/cyfitter_cfg.c ****    incompatible with other versions of PSoC Creator. */
 867:Generated_Source\PSoC5/cyfitter_cfg.c **** uint8 CYXDATA * const CYCODE AMux_1_CYAMUXSIDE_B__addrTable[4] = {
 868:Generated_Source\PSoC5/cyfitter_cfg.c **** 	(uint8 CYXDATA *)CYREG_DSM0_SW4, 
 869:Generated_Source\PSoC5/cyfitter_cfg.c **** 	(uint8 CYXDATA *)CYREG_DSM0_SW3, 
ARM GAS  C:\Users\JEFFSN~1\AppData\Local\Temp\cclRlWK0.s 			page 43


 870:Generated_Source\PSoC5/cyfitter_cfg.c **** 	(uint8 CYXDATA *)CYREG_DSM0_SW4, 
 871:Generated_Source\PSoC5/cyfitter_cfg.c **** 	(uint8 CYXDATA *)CYREG_DSM0_SW3, 
 872:Generated_Source\PSoC5/cyfitter_cfg.c **** };
 873:Generated_Source\PSoC5/cyfitter_cfg.c **** 
 874:Generated_Source\PSoC5/cyfitter_cfg.c **** /* This is an implementation detail of the AMux. Code that depends on it may be
 875:Generated_Source\PSoC5/cyfitter_cfg.c ****    incompatible with other versions of PSoC Creator. */
 876:Generated_Source\PSoC5/cyfitter_cfg.c **** const uint8 CYCODE AMux_1_CYAMUXSIDE_B__maskTable[4] = {
 877:Generated_Source\PSoC5/cyfitter_cfg.c **** 	0x20u, 
 878:Generated_Source\PSoC5/cyfitter_cfg.c **** 	0x40u, 
 879:Generated_Source\PSoC5/cyfitter_cfg.c **** 	0x80u, 
 880:Generated_Source\PSoC5/cyfitter_cfg.c **** 	0x40u, 
 881:Generated_Source\PSoC5/cyfitter_cfg.c **** };
 882:Generated_Source\PSoC5/cyfitter_cfg.c **** 
 883:Generated_Source\PSoC5/cyfitter_cfg.c **** /*******************************************************************************
 884:Generated_Source\PSoC5/cyfitter_cfg.c **** * Function Name: AMux_1_CYAMUXSIDE_B_Set
 885:Generated_Source\PSoC5/cyfitter_cfg.c **** ********************************************************************************
 886:Generated_Source\PSoC5/cyfitter_cfg.c **** * Summary:
 887:Generated_Source\PSoC5/cyfitter_cfg.c **** *  This function is used to set a particular channel as active on the AMux.
 888:Generated_Source\PSoC5/cyfitter_cfg.c **** *
 889:Generated_Source\PSoC5/cyfitter_cfg.c **** * Parameters:  
 890:Generated_Source\PSoC5/cyfitter_cfg.c **** *   channel - The mux channel input to set as active
 891:Generated_Source\PSoC5/cyfitter_cfg.c **** *
 892:Generated_Source\PSoC5/cyfitter_cfg.c **** * Return:
 893:Generated_Source\PSoC5/cyfitter_cfg.c **** *   void
 894:Generated_Source\PSoC5/cyfitter_cfg.c **** *
 895:Generated_Source\PSoC5/cyfitter_cfg.c **** *******************************************************************************/
 896:Generated_Source\PSoC5/cyfitter_cfg.c **** void AMux_1_CYAMUXSIDE_B_Set(uint8 channel)
 897:Generated_Source\PSoC5/cyfitter_cfg.c **** {
 1521              		.loc 1 897 0
 1522              		.cfi_startproc
 1523              		@ args = 0, pretend = 0, frame = 8
 1524              		@ frame_needed = 1, uses_anonymous_args = 0
 1525              		@ link register save eliminated.
 1526 0000 80B4     		push	{r7}
 1527              		.cfi_def_cfa_offset 4
 1528              		.cfi_offset 7, -4
 1529 0002 83B0     		sub	sp, sp, #12
 1530              		.cfi_def_cfa_offset 16
 1531 0004 00AF     		add	r7, sp, #0
 1532              		.cfi_def_cfa_register 7
 1533 0006 0346     		mov	r3, r0
 1534 0008 FB71     		strb	r3, [r7, #7]
 898:Generated_Source\PSoC5/cyfitter_cfg.c **** 	if (channel < 4)
 1535              		.loc 1 898 0
 1536 000a FB79     		ldrb	r3, [r7, #7]	@ zero_extendqisi2
 1537 000c 032B     		cmp	r3, #3
 1538 000e 0ED8     		bhi	.L45
 899:Generated_Source\PSoC5/cyfitter_cfg.c **** 	{
 900:Generated_Source\PSoC5/cyfitter_cfg.c **** 		*AMux_1_CYAMUXSIDE_B__addrTable[channel] |= AMux_1_CYAMUXSIDE_B__maskTable[channel];
 1539              		.loc 1 900 0
 1540 0010 FB79     		ldrb	r3, [r7, #7]	@ zero_extendqisi2
 1541 0012 094A     		ldr	r2, .L46
 1542 0014 52F82330 		ldr	r3, [r2, r3, lsl #2]
 1543 0018 FA79     		ldrb	r2, [r7, #7]	@ zero_extendqisi2
 1544 001a 0749     		ldr	r1, .L46
 1545 001c 51F82220 		ldr	r2, [r1, r2, lsl #2]
 1546 0020 1178     		ldrb	r1, [r2]	@ zero_extendqisi2
ARM GAS  C:\Users\JEFFSN~1\AppData\Local\Temp\cclRlWK0.s 			page 44


 1547 0022 FA79     		ldrb	r2, [r7, #7]	@ zero_extendqisi2
 1548 0024 0548     		ldr	r0, .L46+4
 1549 0026 825C     		ldrb	r2, [r0, r2]	@ zero_extendqisi2
 1550 0028 0A43     		orrs	r2, r2, r1
 1551 002a D2B2     		uxtb	r2, r2
 1552 002c 1A70     		strb	r2, [r3]
 1553              	.L45:
 901:Generated_Source\PSoC5/cyfitter_cfg.c **** 	}
 902:Generated_Source\PSoC5/cyfitter_cfg.c **** }
 1554              		.loc 1 902 0
 1555 002e 00BF     		nop
 1556 0030 0C37     		adds	r7, r7, #12
 1557              		.cfi_def_cfa_offset 4
 1558 0032 BD46     		mov	sp, r7
 1559              		.cfi_def_cfa_register 13
 1560              		@ sp needed
 1561 0034 80BC     		pop	{r7}
 1562              		.cfi_restore 7
 1563              		.cfi_def_cfa_offset 0
 1564 0036 7047     		bx	lr
 1565              	.L47:
 1566              		.align	2
 1567              	.L46:
 1568 0038 00000000 		.word	AMux_1_CYAMUXSIDE_B__addrTable
 1569 003c 00000000 		.word	AMux_1_CYAMUXSIDE_B__maskTable
 1570              		.cfi_endproc
 1571              	.LFE10:
 1572              		.size	AMux_1_CYAMUXSIDE_B_Set, .-AMux_1_CYAMUXSIDE_B_Set
 1573              		.section	.text.AMux_1_CYAMUXSIDE_B_Unset,"ax",%progbits
 1574              		.align	2
 1575              		.global	AMux_1_CYAMUXSIDE_B_Unset
 1576              		.thumb
 1577              		.thumb_func
 1578              		.type	AMux_1_CYAMUXSIDE_B_Unset, %function
 1579              	AMux_1_CYAMUXSIDE_B_Unset:
 1580              	.LFB11:
 903:Generated_Source\PSoC5/cyfitter_cfg.c **** 
 904:Generated_Source\PSoC5/cyfitter_cfg.c **** /*******************************************************************************
 905:Generated_Source\PSoC5/cyfitter_cfg.c **** * Function Name: AMux_1_CYAMUXSIDE_B_Unset
 906:Generated_Source\PSoC5/cyfitter_cfg.c **** ********************************************************************************
 907:Generated_Source\PSoC5/cyfitter_cfg.c **** * Summary:
 908:Generated_Source\PSoC5/cyfitter_cfg.c **** *  This function is used to clear a particular channel from being active on the
 909:Generated_Source\PSoC5/cyfitter_cfg.c **** *  AMux.
 910:Generated_Source\PSoC5/cyfitter_cfg.c **** *
 911:Generated_Source\PSoC5/cyfitter_cfg.c **** * Parameters:  
 912:Generated_Source\PSoC5/cyfitter_cfg.c **** *   channel - The mux channel input to mark inactive
 913:Generated_Source\PSoC5/cyfitter_cfg.c **** *
 914:Generated_Source\PSoC5/cyfitter_cfg.c **** * Return:
 915:Generated_Source\PSoC5/cyfitter_cfg.c **** *   void
 916:Generated_Source\PSoC5/cyfitter_cfg.c **** *
 917:Generated_Source\PSoC5/cyfitter_cfg.c **** *******************************************************************************/
 918:Generated_Source\PSoC5/cyfitter_cfg.c **** void AMux_1_CYAMUXSIDE_B_Unset(uint8 channel)
 919:Generated_Source\PSoC5/cyfitter_cfg.c **** {
 1581              		.loc 1 919 0
 1582              		.cfi_startproc
 1583              		@ args = 0, pretend = 0, frame = 8
 1584              		@ frame_needed = 1, uses_anonymous_args = 0
ARM GAS  C:\Users\JEFFSN~1\AppData\Local\Temp\cclRlWK0.s 			page 45


 1585              		@ link register save eliminated.
 1586 0000 80B4     		push	{r7}
 1587              		.cfi_def_cfa_offset 4
 1588              		.cfi_offset 7, -4
 1589 0002 83B0     		sub	sp, sp, #12
 1590              		.cfi_def_cfa_offset 16
 1591 0004 00AF     		add	r7, sp, #0
 1592              		.cfi_def_cfa_register 7
 1593 0006 0346     		mov	r3, r0
 1594 0008 FB71     		strb	r3, [r7, #7]
 920:Generated_Source\PSoC5/cyfitter_cfg.c **** 	if (channel < 4)
 1595              		.loc 1 920 0
 1596 000a FB79     		ldrb	r3, [r7, #7]	@ zero_extendqisi2
 1597 000c 032B     		cmp	r3, #3
 1598 000e 10D8     		bhi	.L50
 921:Generated_Source\PSoC5/cyfitter_cfg.c **** 	{
 922:Generated_Source\PSoC5/cyfitter_cfg.c **** 		*AMux_1_CYAMUXSIDE_B__addrTable[channel] &= (uint8)~AMux_1_CYAMUXSIDE_B__maskTable[channel];
 1599              		.loc 1 922 0
 1600 0010 FB79     		ldrb	r3, [r7, #7]	@ zero_extendqisi2
 1601 0012 0A4A     		ldr	r2, .L51
 1602 0014 52F82330 		ldr	r3, [r2, r3, lsl #2]
 1603 0018 FA79     		ldrb	r2, [r7, #7]	@ zero_extendqisi2
 1604 001a 0849     		ldr	r1, .L51
 1605 001c 51F82220 		ldr	r2, [r1, r2, lsl #2]
 1606 0020 1178     		ldrb	r1, [r2]	@ zero_extendqisi2
 1607 0022 FA79     		ldrb	r2, [r7, #7]	@ zero_extendqisi2
 1608 0024 0648     		ldr	r0, .L51+4
 1609 0026 825C     		ldrb	r2, [r0, r2]	@ zero_extendqisi2
 1610 0028 D243     		mvns	r2, r2
 1611 002a D2B2     		uxtb	r2, r2
 1612 002c 0A40     		ands	r2, r2, r1
 1613 002e D2B2     		uxtb	r2, r2
 1614 0030 1A70     		strb	r2, [r3]
 1615              	.L50:
 923:Generated_Source\PSoC5/cyfitter_cfg.c **** 	}
 924:Generated_Source\PSoC5/cyfitter_cfg.c **** }
 1616              		.loc 1 924 0
 1617 0032 00BF     		nop
 1618 0034 0C37     		adds	r7, r7, #12
 1619              		.cfi_def_cfa_offset 4
 1620 0036 BD46     		mov	sp, r7
 1621              		.cfi_def_cfa_register 13
 1622              		@ sp needed
 1623 0038 80BC     		pop	{r7}
 1624              		.cfi_restore 7
 1625              		.cfi_def_cfa_offset 0
 1626 003a 7047     		bx	lr
 1627              	.L52:
 1628              		.align	2
 1629              	.L51:
 1630 003c 00000000 		.word	AMux_1_CYAMUXSIDE_B__addrTable
 1631 0040 00000000 		.word	AMux_1_CYAMUXSIDE_B__maskTable
 1632              		.cfi_endproc
 1633              	.LFE11:
 1634              		.size	AMux_1_CYAMUXSIDE_B_Unset, .-AMux_1_CYAMUXSIDE_B_Unset
 1635              		.global	AMux_2__addrTable
 1636              		.section	.rodata
ARM GAS  C:\Users\JEFFSN~1\AppData\Local\Temp\cclRlWK0.s 			page 46


 1637              		.align	2
 1638              		.type	AMux_2__addrTable, %object
 1639              		.size	AMux_2__addrTable, 16
 1640              	AMux_2__addrTable:
 1641 0038 3C510040 		.word	1073762620
 1642 003c 9B5A0040 		.word	1073765019
 1643 0040 585B0040 		.word	1073765208
 1644 0044 9C5A0040 		.word	1073765020
 1645              		.global	AMux_2__maskTable
 1646              		.align	2
 1647              		.type	AMux_2__maskTable, %object
 1648              		.size	AMux_2__maskTable, 4
 1649              	AMux_2__maskTable:
 1650 0048 40       		.byte	64
 1651 0049 10       		.byte	16
 1652 004a 10       		.byte	16
 1653 004b 10       		.byte	16
 1654              		.section	.text.AMux_2_Set,"ax",%progbits
 1655              		.align	2
 1656              		.global	AMux_2_Set
 1657              		.thumb
 1658              		.thumb_func
 1659              		.type	AMux_2_Set, %function
 1660              	AMux_2_Set:
 1661              	.LFB12:
 925:Generated_Source\PSoC5/cyfitter_cfg.c **** 
 926:Generated_Source\PSoC5/cyfitter_cfg.c **** /* This is an implementation detail of the AMux. Code that depends on it may be
 927:Generated_Source\PSoC5/cyfitter_cfg.c ****    incompatible with other versions of PSoC Creator. */
 928:Generated_Source\PSoC5/cyfitter_cfg.c **** uint8 CYXDATA * const CYCODE AMux_2__addrTable[4] = {
 929:Generated_Source\PSoC5/cyfitter_cfg.c **** 	(uint8 CYXDATA *)CYREG_PRT3_AMUX, (uint8 CYXDATA *)CYREG_DAC3_SW3, 
 930:Generated_Source\PSoC5/cyfitter_cfg.c **** 	(uint8 CYXDATA *)CYREG_BUS_SW0, (uint8 CYXDATA *)CYREG_DAC3_SW4, 
 931:Generated_Source\PSoC5/cyfitter_cfg.c **** };
 932:Generated_Source\PSoC5/cyfitter_cfg.c **** 
 933:Generated_Source\PSoC5/cyfitter_cfg.c **** /* This is an implementation detail of the AMux. Code that depends on it may be
 934:Generated_Source\PSoC5/cyfitter_cfg.c ****    incompatible with other versions of PSoC Creator. */
 935:Generated_Source\PSoC5/cyfitter_cfg.c **** const uint8 CYCODE AMux_2__maskTable[4] = {
 936:Generated_Source\PSoC5/cyfitter_cfg.c **** 	0x40u, 0x10u, 
 937:Generated_Source\PSoC5/cyfitter_cfg.c **** 	0x10u, 0x10u, 
 938:Generated_Source\PSoC5/cyfitter_cfg.c **** };
 939:Generated_Source\PSoC5/cyfitter_cfg.c **** 
 940:Generated_Source\PSoC5/cyfitter_cfg.c **** /*******************************************************************************
 941:Generated_Source\PSoC5/cyfitter_cfg.c **** * Function Name: AMux_2_Set
 942:Generated_Source\PSoC5/cyfitter_cfg.c **** ********************************************************************************
 943:Generated_Source\PSoC5/cyfitter_cfg.c **** * Summary:
 944:Generated_Source\PSoC5/cyfitter_cfg.c **** *  This function is used to set a particular channel as active on the AMux.
 945:Generated_Source\PSoC5/cyfitter_cfg.c **** *
 946:Generated_Source\PSoC5/cyfitter_cfg.c **** * Parameters:  
 947:Generated_Source\PSoC5/cyfitter_cfg.c **** *   channel - The mux channel input to set as active
 948:Generated_Source\PSoC5/cyfitter_cfg.c **** *
 949:Generated_Source\PSoC5/cyfitter_cfg.c **** * Return:
 950:Generated_Source\PSoC5/cyfitter_cfg.c **** *   void
 951:Generated_Source\PSoC5/cyfitter_cfg.c **** *
 952:Generated_Source\PSoC5/cyfitter_cfg.c **** *******************************************************************************/
 953:Generated_Source\PSoC5/cyfitter_cfg.c **** void AMux_2_Set(uint8 channel)
 954:Generated_Source\PSoC5/cyfitter_cfg.c **** {
 1662              		.loc 1 954 0
 1663              		.cfi_startproc
ARM GAS  C:\Users\JEFFSN~1\AppData\Local\Temp\cclRlWK0.s 			page 47


 1664              		@ args = 0, pretend = 0, frame = 8
 1665              		@ frame_needed = 1, uses_anonymous_args = 0
 1666              		@ link register save eliminated.
 1667 0000 80B4     		push	{r7}
 1668              		.cfi_def_cfa_offset 4
 1669              		.cfi_offset 7, -4
 1670 0002 83B0     		sub	sp, sp, #12
 1671              		.cfi_def_cfa_offset 16
 1672 0004 00AF     		add	r7, sp, #0
 1673              		.cfi_def_cfa_register 7
 1674 0006 0346     		mov	r3, r0
 1675 0008 FB71     		strb	r3, [r7, #7]
 955:Generated_Source\PSoC5/cyfitter_cfg.c **** 	if (channel < 2)
 1676              		.loc 1 955 0
 1677 000a FB79     		ldrb	r3, [r7, #7]	@ zero_extendqisi2
 1678 000c 012B     		cmp	r3, #1
 1679 000e 24D8     		bhi	.L55
 956:Generated_Source\PSoC5/cyfitter_cfg.c **** 	{
 957:Generated_Source\PSoC5/cyfitter_cfg.c **** 		channel += channel;
 1680              		.loc 1 957 0
 1681 0010 FA79     		ldrb	r2, [r7, #7]
 1682 0012 FB79     		ldrb	r3, [r7, #7]
 1683 0014 1344     		add	r3, r3, r2
 1684 0016 FB71     		strb	r3, [r7, #7]
 958:Generated_Source\PSoC5/cyfitter_cfg.c **** 		*AMux_2__addrTable[channel] |= AMux_2__maskTable[channel];
 1685              		.loc 1 958 0
 1686 0018 FB79     		ldrb	r3, [r7, #7]	@ zero_extendqisi2
 1687 001a 124A     		ldr	r2, .L56
 1688 001c 52F82330 		ldr	r3, [r2, r3, lsl #2]
 1689 0020 FA79     		ldrb	r2, [r7, #7]	@ zero_extendqisi2
 1690 0022 1049     		ldr	r1, .L56
 1691 0024 51F82220 		ldr	r2, [r1, r2, lsl #2]
 1692 0028 1178     		ldrb	r1, [r2]	@ zero_extendqisi2
 1693 002a FA79     		ldrb	r2, [r7, #7]	@ zero_extendqisi2
 1694 002c 0E48     		ldr	r0, .L56+4
 1695 002e 825C     		ldrb	r2, [r0, r2]	@ zero_extendqisi2
 1696 0030 0A43     		orrs	r2, r2, r1
 1697 0032 D2B2     		uxtb	r2, r2
 1698 0034 1A70     		strb	r2, [r3]
 959:Generated_Source\PSoC5/cyfitter_cfg.c **** 		channel++;
 1699              		.loc 1 959 0
 1700 0036 FB79     		ldrb	r3, [r7, #7]	@ zero_extendqisi2
 1701 0038 0133     		adds	r3, r3, #1
 1702 003a FB71     		strb	r3, [r7, #7]
 960:Generated_Source\PSoC5/cyfitter_cfg.c **** 		*AMux_2__addrTable[channel] |= AMux_2__maskTable[channel];
 1703              		.loc 1 960 0
 1704 003c FB79     		ldrb	r3, [r7, #7]	@ zero_extendqisi2
 1705 003e 094A     		ldr	r2, .L56
 1706 0040 52F82330 		ldr	r3, [r2, r3, lsl #2]
 1707 0044 FA79     		ldrb	r2, [r7, #7]	@ zero_extendqisi2
 1708 0046 0749     		ldr	r1, .L56
 1709 0048 51F82220 		ldr	r2, [r1, r2, lsl #2]
 1710 004c 1178     		ldrb	r1, [r2]	@ zero_extendqisi2
 1711 004e FA79     		ldrb	r2, [r7, #7]	@ zero_extendqisi2
 1712 0050 0548     		ldr	r0, .L56+4
 1713 0052 825C     		ldrb	r2, [r0, r2]	@ zero_extendqisi2
 1714 0054 0A43     		orrs	r2, r2, r1
ARM GAS  C:\Users\JEFFSN~1\AppData\Local\Temp\cclRlWK0.s 			page 48


 1715 0056 D2B2     		uxtb	r2, r2
 1716 0058 1A70     		strb	r2, [r3]
 1717              	.L55:
 961:Generated_Source\PSoC5/cyfitter_cfg.c **** 	}
 962:Generated_Source\PSoC5/cyfitter_cfg.c **** }
 1718              		.loc 1 962 0
 1719 005a 00BF     		nop
 1720 005c 0C37     		adds	r7, r7, #12
 1721              		.cfi_def_cfa_offset 4
 1722 005e BD46     		mov	sp, r7
 1723              		.cfi_def_cfa_register 13
 1724              		@ sp needed
 1725 0060 80BC     		pop	{r7}
 1726              		.cfi_restore 7
 1727              		.cfi_def_cfa_offset 0
 1728 0062 7047     		bx	lr
 1729              	.L57:
 1730              		.align	2
 1731              	.L56:
 1732 0064 00000000 		.word	AMux_2__addrTable
 1733 0068 00000000 		.word	AMux_2__maskTable
 1734              		.cfi_endproc
 1735              	.LFE12:
 1736              		.size	AMux_2_Set, .-AMux_2_Set
 1737              		.section	.text.AMux_2_Unset,"ax",%progbits
 1738              		.align	2
 1739              		.global	AMux_2_Unset
 1740              		.thumb
 1741              		.thumb_func
 1742              		.type	AMux_2_Unset, %function
 1743              	AMux_2_Unset:
 1744              	.LFB13:
 963:Generated_Source\PSoC5/cyfitter_cfg.c **** 
 964:Generated_Source\PSoC5/cyfitter_cfg.c **** /*******************************************************************************
 965:Generated_Source\PSoC5/cyfitter_cfg.c **** * Function Name: AMux_2_Unset
 966:Generated_Source\PSoC5/cyfitter_cfg.c **** ********************************************************************************
 967:Generated_Source\PSoC5/cyfitter_cfg.c **** * Summary:
 968:Generated_Source\PSoC5/cyfitter_cfg.c **** *  This function is used to clear a particular channel from being active on the
 969:Generated_Source\PSoC5/cyfitter_cfg.c **** *  AMux.
 970:Generated_Source\PSoC5/cyfitter_cfg.c **** *
 971:Generated_Source\PSoC5/cyfitter_cfg.c **** * Parameters:  
 972:Generated_Source\PSoC5/cyfitter_cfg.c **** *   channel - The mux channel input to mark inactive
 973:Generated_Source\PSoC5/cyfitter_cfg.c **** *
 974:Generated_Source\PSoC5/cyfitter_cfg.c **** * Return:
 975:Generated_Source\PSoC5/cyfitter_cfg.c **** *   void
 976:Generated_Source\PSoC5/cyfitter_cfg.c **** *
 977:Generated_Source\PSoC5/cyfitter_cfg.c **** *******************************************************************************/
 978:Generated_Source\PSoC5/cyfitter_cfg.c **** void AMux_2_Unset(uint8 channel)
 979:Generated_Source\PSoC5/cyfitter_cfg.c **** {
 1745              		.loc 1 979 0
 1746              		.cfi_startproc
 1747              		@ args = 0, pretend = 0, frame = 8
 1748              		@ frame_needed = 1, uses_anonymous_args = 0
 1749              		@ link register save eliminated.
 1750 0000 80B4     		push	{r7}
 1751              		.cfi_def_cfa_offset 4
 1752              		.cfi_offset 7, -4
ARM GAS  C:\Users\JEFFSN~1\AppData\Local\Temp\cclRlWK0.s 			page 49


 1753 0002 83B0     		sub	sp, sp, #12
 1754              		.cfi_def_cfa_offset 16
 1755 0004 00AF     		add	r7, sp, #0
 1756              		.cfi_def_cfa_register 7
 1757 0006 0346     		mov	r3, r0
 1758 0008 FB71     		strb	r3, [r7, #7]
 980:Generated_Source\PSoC5/cyfitter_cfg.c **** 	if (channel < 2)
 1759              		.loc 1 980 0
 1760 000a FB79     		ldrb	r3, [r7, #7]	@ zero_extendqisi2
 1761 000c 012B     		cmp	r3, #1
 1762 000e 28D8     		bhi	.L60
 981:Generated_Source\PSoC5/cyfitter_cfg.c **** 	{
 982:Generated_Source\PSoC5/cyfitter_cfg.c **** 		channel += channel;
 1763              		.loc 1 982 0
 1764 0010 FA79     		ldrb	r2, [r7, #7]
 1765 0012 FB79     		ldrb	r3, [r7, #7]
 1766 0014 1344     		add	r3, r3, r2
 1767 0016 FB71     		strb	r3, [r7, #7]
 983:Generated_Source\PSoC5/cyfitter_cfg.c **** 		*AMux_2__addrTable[channel] &= (uint8)~AMux_2__maskTable[channel];
 1768              		.loc 1 983 0
 1769 0018 FB79     		ldrb	r3, [r7, #7]	@ zero_extendqisi2
 1770 001a 144A     		ldr	r2, .L61
 1771 001c 52F82330 		ldr	r3, [r2, r3, lsl #2]
 1772 0020 FA79     		ldrb	r2, [r7, #7]	@ zero_extendqisi2
 1773 0022 1249     		ldr	r1, .L61
 1774 0024 51F82220 		ldr	r2, [r1, r2, lsl #2]
 1775 0028 1178     		ldrb	r1, [r2]	@ zero_extendqisi2
 1776 002a FA79     		ldrb	r2, [r7, #7]	@ zero_extendqisi2
 1777 002c 1048     		ldr	r0, .L61+4
 1778 002e 825C     		ldrb	r2, [r0, r2]	@ zero_extendqisi2
 1779 0030 D243     		mvns	r2, r2
 1780 0032 D2B2     		uxtb	r2, r2
 1781 0034 0A40     		ands	r2, r2, r1
 1782 0036 D2B2     		uxtb	r2, r2
 1783 0038 1A70     		strb	r2, [r3]
 984:Generated_Source\PSoC5/cyfitter_cfg.c **** 		channel++;
 1784              		.loc 1 984 0
 1785 003a FB79     		ldrb	r3, [r7, #7]	@ zero_extendqisi2
 1786 003c 0133     		adds	r3, r3, #1
 1787 003e FB71     		strb	r3, [r7, #7]
 985:Generated_Source\PSoC5/cyfitter_cfg.c **** 		*AMux_2__addrTable[channel] &= (uint8)~AMux_2__maskTable[channel];
 1788              		.loc 1 985 0
 1789 0040 FB79     		ldrb	r3, [r7, #7]	@ zero_extendqisi2
 1790 0042 0A4A     		ldr	r2, .L61
 1791 0044 52F82330 		ldr	r3, [r2, r3, lsl #2]
 1792 0048 FA79     		ldrb	r2, [r7, #7]	@ zero_extendqisi2
 1793 004a 0849     		ldr	r1, .L61
 1794 004c 51F82220 		ldr	r2, [r1, r2, lsl #2]
 1795 0050 1178     		ldrb	r1, [r2]	@ zero_extendqisi2
 1796 0052 FA79     		ldrb	r2, [r7, #7]	@ zero_extendqisi2
 1797 0054 0648     		ldr	r0, .L61+4
 1798 0056 825C     		ldrb	r2, [r0, r2]	@ zero_extendqisi2
 1799 0058 D243     		mvns	r2, r2
 1800 005a D2B2     		uxtb	r2, r2
 1801 005c 0A40     		ands	r2, r2, r1
 1802 005e D2B2     		uxtb	r2, r2
 1803 0060 1A70     		strb	r2, [r3]
ARM GAS  C:\Users\JEFFSN~1\AppData\Local\Temp\cclRlWK0.s 			page 50


 1804              	.L60:
 986:Generated_Source\PSoC5/cyfitter_cfg.c **** 	}
 987:Generated_Source\PSoC5/cyfitter_cfg.c **** }
 1805              		.loc 1 987 0
 1806 0062 00BF     		nop
 1807 0064 0C37     		adds	r7, r7, #12
 1808              		.cfi_def_cfa_offset 4
 1809 0066 BD46     		mov	sp, r7
 1810              		.cfi_def_cfa_register 13
 1811              		@ sp needed
 1812 0068 80BC     		pop	{r7}
 1813              		.cfi_restore 7
 1814              		.cfi_def_cfa_offset 0
 1815 006a 7047     		bx	lr
 1816              	.L62:
 1817              		.align	2
 1818              	.L61:
 1819 006c 00000000 		.word	AMux_2__addrTable
 1820 0070 00000000 		.word	AMux_2__maskTable
 1821              		.cfi_endproc
 1822              	.LFE13:
 1823              		.size	AMux_2_Unset, .-AMux_2_Unset
 1824              		.global	CapSense_AMuxCH0__addrTable
 1825              		.section	.rodata
 1826              		.align	2
 1827              		.type	CapSense_AMuxCH0__addrTable, %object
 1828              		.size	CapSense_AMuxCH0__addrTable, 60
 1829              	CapSense_AMuxCH0__addrTable:
 1830 004c 2C510040 		.word	1073762604
 1831 0050 2C510040 		.word	1073762604
 1832 0054 2C510040 		.word	1073762604
 1833 0058 2C510040 		.word	1073762604
 1834 005c 2C510040 		.word	1073762604
 1835 0060 6C510040 		.word	1073762668
 1836 0064 6C510040 		.word	1073762668
 1837 0068 6C510040 		.word	1073762668
 1838 006c 6C510040 		.word	1073762668
 1839 0070 2C510040 		.word	1073762604
 1840 0074 2C510040 		.word	1073762604
 1841 0078 2C510040 		.word	1073762604
 1842 007c FC510040 		.word	1073762812
 1843 0080 D35A0040 		.word	1073765075
 1844 0084 835A0040 		.word	1073764995
 1845              		.global	CapSense_AMuxCH0__maskTable
 1846              		.align	2
 1847              		.type	CapSense_AMuxCH0__maskTable, %object
 1848              		.size	CapSense_AMuxCH0__maskTable, 15
 1849              	CapSense_AMuxCH0__maskTable:
 1850 0088 80       		.byte	-128
 1851 0089 40       		.byte	64
 1852 008a 20       		.byte	32
 1853 008b 10       		.byte	16
 1854 008c 08       		.byte	8
 1855 008d 10       		.byte	16
 1856 008e 20       		.byte	32
 1857 008f 40       		.byte	64
 1858 0090 80       		.byte	-128
ARM GAS  C:\Users\JEFFSN~1\AppData\Local\Temp\cclRlWK0.s 			page 51


 1859 0091 01       		.byte	1
 1860 0092 04       		.byte	4
 1861 0093 02       		.byte	2
 1862 0094 10       		.byte	16
 1863 0095 01       		.byte	1
 1864 0096 10       		.byte	16
 1865              		.section	.text.CapSense_AMuxCH0_Set,"ax",%progbits
 1866              		.align	2
 1867              		.global	CapSense_AMuxCH0_Set
 1868              		.thumb
 1869              		.thumb_func
 1870              		.type	CapSense_AMuxCH0_Set, %function
 1871              	CapSense_AMuxCH0_Set:
 1872              	.LFB14:
 988:Generated_Source\PSoC5/cyfitter_cfg.c **** 
 989:Generated_Source\PSoC5/cyfitter_cfg.c **** /* This is an implementation detail of the AMux. Code that depends on it may be
 990:Generated_Source\PSoC5/cyfitter_cfg.c ****    incompatible with other versions of PSoC Creator. */
 991:Generated_Source\PSoC5/cyfitter_cfg.c **** uint8 CYXDATA * const CYCODE CapSense_AMuxCH0__addrTable[15] = {
 992:Generated_Source\PSoC5/cyfitter_cfg.c **** 	(uint8 CYXDATA *)CYREG_PRT2_AMUX, 
 993:Generated_Source\PSoC5/cyfitter_cfg.c **** 	(uint8 CYXDATA *)CYREG_PRT2_AMUX, 
 994:Generated_Source\PSoC5/cyfitter_cfg.c **** 	(uint8 CYXDATA *)CYREG_PRT2_AMUX, 
 995:Generated_Source\PSoC5/cyfitter_cfg.c **** 	(uint8 CYXDATA *)CYREG_PRT2_AMUX, 
 996:Generated_Source\PSoC5/cyfitter_cfg.c **** 	(uint8 CYXDATA *)CYREG_PRT2_AMUX, 
 997:Generated_Source\PSoC5/cyfitter_cfg.c **** 	(uint8 CYXDATA *)CYREG_PRT6_AMUX, 
 998:Generated_Source\PSoC5/cyfitter_cfg.c **** 	(uint8 CYXDATA *)CYREG_PRT6_AMUX, 
 999:Generated_Source\PSoC5/cyfitter_cfg.c **** 	(uint8 CYXDATA *)CYREG_PRT6_AMUX, 
1000:Generated_Source\PSoC5/cyfitter_cfg.c **** 	(uint8 CYXDATA *)CYREG_PRT6_AMUX, 
1001:Generated_Source\PSoC5/cyfitter_cfg.c **** 	(uint8 CYXDATA *)CYREG_PRT2_AMUX, 
1002:Generated_Source\PSoC5/cyfitter_cfg.c **** 	(uint8 CYXDATA *)CYREG_PRT2_AMUX, 
1003:Generated_Source\PSoC5/cyfitter_cfg.c **** 	(uint8 CYXDATA *)CYREG_PRT2_AMUX, 
1004:Generated_Source\PSoC5/cyfitter_cfg.c **** 	(uint8 CYXDATA *)CYREG_PRT15_AMUX, 
1005:Generated_Source\PSoC5/cyfitter_cfg.c **** 	(uint8 CYXDATA *)CYREG_CMP2_SW3, 
1006:Generated_Source\PSoC5/cyfitter_cfg.c **** 	(uint8 CYXDATA *)CYREG_DAC0_SW3, 
1007:Generated_Source\PSoC5/cyfitter_cfg.c **** };
1008:Generated_Source\PSoC5/cyfitter_cfg.c **** 
1009:Generated_Source\PSoC5/cyfitter_cfg.c **** /* This is an implementation detail of the AMux. Code that depends on it may be
1010:Generated_Source\PSoC5/cyfitter_cfg.c ****    incompatible with other versions of PSoC Creator. */
1011:Generated_Source\PSoC5/cyfitter_cfg.c **** const uint8 CYCODE CapSense_AMuxCH0__maskTable[15] = {
1012:Generated_Source\PSoC5/cyfitter_cfg.c **** 	0x80u, 
1013:Generated_Source\PSoC5/cyfitter_cfg.c **** 	0x40u, 
1014:Generated_Source\PSoC5/cyfitter_cfg.c **** 	0x20u, 
1015:Generated_Source\PSoC5/cyfitter_cfg.c **** 	0x10u, 
1016:Generated_Source\PSoC5/cyfitter_cfg.c **** 	0x08u, 
1017:Generated_Source\PSoC5/cyfitter_cfg.c **** 	0x10u, 
1018:Generated_Source\PSoC5/cyfitter_cfg.c **** 	0x20u, 
1019:Generated_Source\PSoC5/cyfitter_cfg.c **** 	0x40u, 
1020:Generated_Source\PSoC5/cyfitter_cfg.c **** 	0x80u, 
1021:Generated_Source\PSoC5/cyfitter_cfg.c **** 	0x01u, 
1022:Generated_Source\PSoC5/cyfitter_cfg.c **** 	0x04u, 
1023:Generated_Source\PSoC5/cyfitter_cfg.c **** 	0x02u, 
1024:Generated_Source\PSoC5/cyfitter_cfg.c **** 	0x10u, 
1025:Generated_Source\PSoC5/cyfitter_cfg.c **** 	0x01u, 
1026:Generated_Source\PSoC5/cyfitter_cfg.c **** 	0x10u, 
1027:Generated_Source\PSoC5/cyfitter_cfg.c **** };
1028:Generated_Source\PSoC5/cyfitter_cfg.c **** 
1029:Generated_Source\PSoC5/cyfitter_cfg.c **** /*******************************************************************************
1030:Generated_Source\PSoC5/cyfitter_cfg.c **** * Function Name: CapSense_AMuxCH0_Set
ARM GAS  C:\Users\JEFFSN~1\AppData\Local\Temp\cclRlWK0.s 			page 52


1031:Generated_Source\PSoC5/cyfitter_cfg.c **** ********************************************************************************
1032:Generated_Source\PSoC5/cyfitter_cfg.c **** * Summary:
1033:Generated_Source\PSoC5/cyfitter_cfg.c **** *  This function is used to set a particular channel as active on the AMux.
1034:Generated_Source\PSoC5/cyfitter_cfg.c **** *
1035:Generated_Source\PSoC5/cyfitter_cfg.c **** * Parameters:  
1036:Generated_Source\PSoC5/cyfitter_cfg.c **** *   channel - The mux channel input to set as active
1037:Generated_Source\PSoC5/cyfitter_cfg.c **** *
1038:Generated_Source\PSoC5/cyfitter_cfg.c **** * Return:
1039:Generated_Source\PSoC5/cyfitter_cfg.c **** *   void
1040:Generated_Source\PSoC5/cyfitter_cfg.c **** *
1041:Generated_Source\PSoC5/cyfitter_cfg.c **** *******************************************************************************/
1042:Generated_Source\PSoC5/cyfitter_cfg.c **** void CapSense_AMuxCH0_Set(uint8 channel)
1043:Generated_Source\PSoC5/cyfitter_cfg.c **** {
 1873              		.loc 1 1043 0
 1874              		.cfi_startproc
 1875              		@ args = 0, pretend = 0, frame = 8
 1876              		@ frame_needed = 1, uses_anonymous_args = 0
 1877              		@ link register save eliminated.
 1878 0000 80B4     		push	{r7}
 1879              		.cfi_def_cfa_offset 4
 1880              		.cfi_offset 7, -4
 1881 0002 83B0     		sub	sp, sp, #12
 1882              		.cfi_def_cfa_offset 16
 1883 0004 00AF     		add	r7, sp, #0
 1884              		.cfi_def_cfa_register 7
 1885 0006 0346     		mov	r3, r0
 1886 0008 FB71     		strb	r3, [r7, #7]
1044:Generated_Source\PSoC5/cyfitter_cfg.c **** 	if (channel < 15)
 1887              		.loc 1 1044 0
 1888 000a FB79     		ldrb	r3, [r7, #7]	@ zero_extendqisi2
 1889 000c 0E2B     		cmp	r3, #14
 1890 000e 0ED8     		bhi	.L65
1045:Generated_Source\PSoC5/cyfitter_cfg.c **** 	{
1046:Generated_Source\PSoC5/cyfitter_cfg.c **** 		*CapSense_AMuxCH0__addrTable[channel] |= CapSense_AMuxCH0__maskTable[channel];
 1891              		.loc 1 1046 0
 1892 0010 FB79     		ldrb	r3, [r7, #7]	@ zero_extendqisi2
 1893 0012 094A     		ldr	r2, .L66
 1894 0014 52F82330 		ldr	r3, [r2, r3, lsl #2]
 1895 0018 FA79     		ldrb	r2, [r7, #7]	@ zero_extendqisi2
 1896 001a 0749     		ldr	r1, .L66
 1897 001c 51F82220 		ldr	r2, [r1, r2, lsl #2]
 1898 0020 1178     		ldrb	r1, [r2]	@ zero_extendqisi2
 1899 0022 FA79     		ldrb	r2, [r7, #7]	@ zero_extendqisi2
 1900 0024 0548     		ldr	r0, .L66+4
 1901 0026 825C     		ldrb	r2, [r0, r2]	@ zero_extendqisi2
 1902 0028 0A43     		orrs	r2, r2, r1
 1903 002a D2B2     		uxtb	r2, r2
 1904 002c 1A70     		strb	r2, [r3]
 1905              	.L65:
1047:Generated_Source\PSoC5/cyfitter_cfg.c **** 	}
1048:Generated_Source\PSoC5/cyfitter_cfg.c **** }
 1906              		.loc 1 1048 0
 1907 002e 00BF     		nop
 1908 0030 0C37     		adds	r7, r7, #12
 1909              		.cfi_def_cfa_offset 4
 1910 0032 BD46     		mov	sp, r7
 1911              		.cfi_def_cfa_register 13
ARM GAS  C:\Users\JEFFSN~1\AppData\Local\Temp\cclRlWK0.s 			page 53


 1912              		@ sp needed
 1913 0034 80BC     		pop	{r7}
 1914              		.cfi_restore 7
 1915              		.cfi_def_cfa_offset 0
 1916 0036 7047     		bx	lr
 1917              	.L67:
 1918              		.align	2
 1919              	.L66:
 1920 0038 00000000 		.word	CapSense_AMuxCH0__addrTable
 1921 003c 00000000 		.word	CapSense_AMuxCH0__maskTable
 1922              		.cfi_endproc
 1923              	.LFE14:
 1924              		.size	CapSense_AMuxCH0_Set, .-CapSense_AMuxCH0_Set
 1925              		.section	.text.CapSense_AMuxCH0_Unset,"ax",%progbits
 1926              		.align	2
 1927              		.global	CapSense_AMuxCH0_Unset
 1928              		.thumb
 1929              		.thumb_func
 1930              		.type	CapSense_AMuxCH0_Unset, %function
 1931              	CapSense_AMuxCH0_Unset:
 1932              	.LFB15:
1049:Generated_Source\PSoC5/cyfitter_cfg.c **** 
1050:Generated_Source\PSoC5/cyfitter_cfg.c **** /*******************************************************************************
1051:Generated_Source\PSoC5/cyfitter_cfg.c **** * Function Name: CapSense_AMuxCH0_Unset
1052:Generated_Source\PSoC5/cyfitter_cfg.c **** ********************************************************************************
1053:Generated_Source\PSoC5/cyfitter_cfg.c **** * Summary:
1054:Generated_Source\PSoC5/cyfitter_cfg.c **** *  This function is used to clear a particular channel from being active on the
1055:Generated_Source\PSoC5/cyfitter_cfg.c **** *  AMux.
1056:Generated_Source\PSoC5/cyfitter_cfg.c **** *
1057:Generated_Source\PSoC5/cyfitter_cfg.c **** * Parameters:  
1058:Generated_Source\PSoC5/cyfitter_cfg.c **** *   channel - The mux channel input to mark inactive
1059:Generated_Source\PSoC5/cyfitter_cfg.c **** *
1060:Generated_Source\PSoC5/cyfitter_cfg.c **** * Return:
1061:Generated_Source\PSoC5/cyfitter_cfg.c **** *   void
1062:Generated_Source\PSoC5/cyfitter_cfg.c **** *
1063:Generated_Source\PSoC5/cyfitter_cfg.c **** *******************************************************************************/
1064:Generated_Source\PSoC5/cyfitter_cfg.c **** void CapSense_AMuxCH0_Unset(uint8 channel)
1065:Generated_Source\PSoC5/cyfitter_cfg.c **** {
 1933              		.loc 1 1065 0
 1934              		.cfi_startproc
 1935              		@ args = 0, pretend = 0, frame = 8
 1936              		@ frame_needed = 1, uses_anonymous_args = 0
 1937              		@ link register save eliminated.
 1938 0000 80B4     		push	{r7}
 1939              		.cfi_def_cfa_offset 4
 1940              		.cfi_offset 7, -4
 1941 0002 83B0     		sub	sp, sp, #12
 1942              		.cfi_def_cfa_offset 16
 1943 0004 00AF     		add	r7, sp, #0
 1944              		.cfi_def_cfa_register 7
 1945 0006 0346     		mov	r3, r0
 1946 0008 FB71     		strb	r3, [r7, #7]
1066:Generated_Source\PSoC5/cyfitter_cfg.c **** 	if (channel < 15)
 1947              		.loc 1 1066 0
 1948 000a FB79     		ldrb	r3, [r7, #7]	@ zero_extendqisi2
 1949 000c 0E2B     		cmp	r3, #14
 1950 000e 10D8     		bhi	.L70
ARM GAS  C:\Users\JEFFSN~1\AppData\Local\Temp\cclRlWK0.s 			page 54


1067:Generated_Source\PSoC5/cyfitter_cfg.c **** 	{
1068:Generated_Source\PSoC5/cyfitter_cfg.c **** 		*CapSense_AMuxCH0__addrTable[channel] &= (uint8)~CapSense_AMuxCH0__maskTable[channel];
 1951              		.loc 1 1068 0
 1952 0010 FB79     		ldrb	r3, [r7, #7]	@ zero_extendqisi2
 1953 0012 0A4A     		ldr	r2, .L71
 1954 0014 52F82330 		ldr	r3, [r2, r3, lsl #2]
 1955 0018 FA79     		ldrb	r2, [r7, #7]	@ zero_extendqisi2
 1956 001a 0849     		ldr	r1, .L71
 1957 001c 51F82220 		ldr	r2, [r1, r2, lsl #2]
 1958 0020 1178     		ldrb	r1, [r2]	@ zero_extendqisi2
 1959 0022 FA79     		ldrb	r2, [r7, #7]	@ zero_extendqisi2
 1960 0024 0648     		ldr	r0, .L71+4
 1961 0026 825C     		ldrb	r2, [r0, r2]	@ zero_extendqisi2
 1962 0028 D243     		mvns	r2, r2
 1963 002a D2B2     		uxtb	r2, r2
 1964 002c 0A40     		ands	r2, r2, r1
 1965 002e D2B2     		uxtb	r2, r2
 1966 0030 1A70     		strb	r2, [r3]
 1967              	.L70:
1069:Generated_Source\PSoC5/cyfitter_cfg.c **** 	}
1070:Generated_Source\PSoC5/cyfitter_cfg.c **** }
 1968              		.loc 1 1070 0
 1969 0032 00BF     		nop
 1970 0034 0C37     		adds	r7, r7, #12
 1971              		.cfi_def_cfa_offset 4
 1972 0036 BD46     		mov	sp, r7
 1973              		.cfi_def_cfa_register 13
 1974              		@ sp needed
 1975 0038 80BC     		pop	{r7}
 1976              		.cfi_restore 7
 1977              		.cfi_def_cfa_offset 0
 1978 003a 7047     		bx	lr
 1979              	.L72:
 1980              		.align	2
 1981              	.L71:
 1982 003c 00000000 		.word	CapSense_AMuxCH0__addrTable
 1983 0040 00000000 		.word	CapSense_AMuxCH0__maskTable
 1984              		.cfi_endproc
 1985              	.LFE15:
 1986              		.size	CapSense_AMuxCH0_Unset, .-CapSense_AMuxCH0_Unset
 1987              		.section	.text.cyfitter_cfg,"ax",%progbits
 1988              		.align	2
 1989              		.global	cyfitter_cfg
 1990              		.thumb
 1991              		.thumb_func
 1992              		.type	cyfitter_cfg, %function
 1993              	cyfitter_cfg:
 1994              	.LFB16:
1071:Generated_Source\PSoC5/cyfitter_cfg.c **** 
1072:Generated_Source\PSoC5/cyfitter_cfg.c **** 
1073:Generated_Source\PSoC5/cyfitter_cfg.c **** 
1074:Generated_Source\PSoC5/cyfitter_cfg.c **** /*******************************************************************************
1075:Generated_Source\PSoC5/cyfitter_cfg.c **** * Function Name: cyfitter_cfg
1076:Generated_Source\PSoC5/cyfitter_cfg.c **** ********************************************************************************
1077:Generated_Source\PSoC5/cyfitter_cfg.c **** * Summary:
1078:Generated_Source\PSoC5/cyfitter_cfg.c **** *  This function is called by the start-up code for the selected device. It
1079:Generated_Source\PSoC5/cyfitter_cfg.c **** *  performs all of the necessary device configuration based on the design
ARM GAS  C:\Users\JEFFSN~1\AppData\Local\Temp\cclRlWK0.s 			page 55


1080:Generated_Source\PSoC5/cyfitter_cfg.c **** *  settings.  This includes settings from the Design Wide Resources (DWR) such
1081:Generated_Source\PSoC5/cyfitter_cfg.c **** *  as Clocks and Pins as well as any component configuration that is necessary.
1082:Generated_Source\PSoC5/cyfitter_cfg.c **** *
1083:Generated_Source\PSoC5/cyfitter_cfg.c **** * Parameters:
1084:Generated_Source\PSoC5/cyfitter_cfg.c **** *   void
1085:Generated_Source\PSoC5/cyfitter_cfg.c **** *
1086:Generated_Source\PSoC5/cyfitter_cfg.c **** * Return:
1087:Generated_Source\PSoC5/cyfitter_cfg.c **** *   void
1088:Generated_Source\PSoC5/cyfitter_cfg.c **** *
1089:Generated_Source\PSoC5/cyfitter_cfg.c **** *******************************************************************************/
1090:Generated_Source\PSoC5/cyfitter_cfg.c **** 
1091:Generated_Source\PSoC5/cyfitter_cfg.c **** void cyfitter_cfg(void)
1092:Generated_Source\PSoC5/cyfitter_cfg.c **** {
 1995              		.loc 1 1092 0
 1996              		.cfi_startproc
 1997              		@ args = 0, pretend = 0, frame = 0
 1998              		@ frame_needed = 1, uses_anonymous_args = 0
 1999 0000 80B5     		push	{r7, lr}
 2000              		.cfi_def_cfa_offset 8
 2001              		.cfi_offset 7, -8
 2002              		.cfi_offset 14, -4
 2003 0002 00AF     		add	r7, sp, #0
 2004              		.cfi_def_cfa_register 7
1093:Generated_Source\PSoC5/cyfitter_cfg.c **** #ifdef CYGlobalIntDisable
1094:Generated_Source\PSoC5/cyfitter_cfg.c **** 	/* Disable interrupts by default. Let user enable if/when they want. */
1095:Generated_Source\PSoC5/cyfitter_cfg.c **** 	CYGlobalIntDisable
 2005              		.loc 1 1095 0
 2006              		.syntax unified
 2007              	@ 1095 "Generated_Source\PSoC5\cyfitter_cfg.c" 1
 2008 0004 72B6     		CPSID   i
 2009              	@ 0 "" 2
1096:Generated_Source\PSoC5/cyfitter_cfg.c **** #endif
1097:Generated_Source\PSoC5/cyfitter_cfg.c **** 
1098:Generated_Source\PSoC5/cyfitter_cfg.c **** 
1099:Generated_Source\PSoC5/cyfitter_cfg.c **** 	/* Set Flash Cycles based on max possible frequency in case a glitch occurs during ClockSetup(). *
1100:Generated_Source\PSoC5/cyfitter_cfg.c **** 	CY_SET_XTND_REG8((void CYFAR *)(CYREG_CACHE_CC_CTL), (((CYDEV_INSTRUCT_CACHE_ENABLED) != 0) ? 0x61
 2010              		.loc 1 1100 0
 2011              		.thumb
 2012              		.syntax unified
 2013 0006 384B     		ldr	r3, .L74
 2014 0008 6122     		movs	r2, #97
 2015 000a 1A70     		strb	r2, [r3]
1101:Generated_Source\PSoC5/cyfitter_cfg.c **** 	/* Setup clocks based on selections from Clock DWR */
1102:Generated_Source\PSoC5/cyfitter_cfg.c **** 	ClockSetup();
 2016              		.loc 1 1102 0
 2017 000c FFF7FEFF 		bl	ClockSetup
1103:Generated_Source\PSoC5/cyfitter_cfg.c **** 	/* Set Flash Cycles based on newly configured 66.00MHz Bus Clock. */
1104:Generated_Source\PSoC5/cyfitter_cfg.c **** 	CY_SET_XTND_REG8((void CYFAR *)(CYREG_CACHE_CC_CTL), (((CYDEV_INSTRUCT_CACHE_ENABLED) != 0) ? 0x01
 2018              		.loc 1 1104 0
 2019 0010 354B     		ldr	r3, .L74
 2020 0012 0122     		movs	r2, #1
 2021 0014 1A70     		strb	r2, [r3]
1105:Generated_Source\PSoC5/cyfitter_cfg.c **** 	{
1106:Generated_Source\PSoC5/cyfitter_cfg.c **** 		cfg_dma_init();
 2022              		.loc 1 1106 0
 2023 0016 FFF7FEFF 		bl	cfg_dma_init
1107:Generated_Source\PSoC5/cyfitter_cfg.c **** 
ARM GAS  C:\Users\JEFFSN~1\AppData\Local\Temp\cclRlWK0.s 			page 56


1108:Generated_Source\PSoC5/cyfitter_cfg.c **** 		/* Perform normal device configuration. Order is not critical for these items. */
1109:Generated_Source\PSoC5/cyfitter_cfg.c **** 		CY_SET_XTND_REG16((void CYFAR *)(CYREG_CAPSL_CFG0), 0x0300u);
 2024              		.loc 1 1109 0
 2025 001a 344B     		ldr	r3, .L74+4
 2026 001c 4FF44072 		mov	r2, #768
 2027 0020 1A80     		strh	r2, [r3]	@ movhi
1110:Generated_Source\PSoC5/cyfitter_cfg.c **** 		CY_SET_XTND_REG8((void CYFAR *)(CYREG_DSM0_CR3), 0x0Au);
 2028              		.loc 1 1110 0
 2029 0022 334B     		ldr	r3, .L74+8
 2030 0024 0A22     		movs	r2, #10
 2031 0026 1A70     		strb	r2, [r3]
1111:Generated_Source\PSoC5/cyfitter_cfg.c **** 		CY_SET_XTND_REG16((void CYFAR *)(CYREG_LUT2_CR), 0x0203u);
 2032              		.loc 1 1111 0
 2033 0028 324B     		ldr	r3, .L74+12
 2034 002a 40F20322 		movw	r2, #515
 2035 002e 1A80     		strh	r2, [r3]	@ movhi
1112:Generated_Source\PSoC5/cyfitter_cfg.c **** 
1113:Generated_Source\PSoC5/cyfitter_cfg.c **** 		/* B0_P6_U1_CFG24 Starting address: CYDEV_UCFG_B0_P6_U1_CFG24 */
1114:Generated_Source\PSoC5/cyfitter_cfg.c **** 		CY_SET_XTND_REG32((void CYFAR *)(CYREG_B0_P6_U1_CFG24), 0x84040404u);
 2036              		.loc 1 1114 0
 2037 0030 314B     		ldr	r3, .L74+16
 2038 0032 324A     		ldr	r2, .L74+20
 2039 0034 1A60     		str	r2, [r3]
1115:Generated_Source\PSoC5/cyfitter_cfg.c **** 
1116:Generated_Source\PSoC5/cyfitter_cfg.c **** 		/* Enable digital routing */
1117:Generated_Source\PSoC5/cyfitter_cfg.c **** 		CY_SET_XTND_REG8((void CYFAR *)CYREG_BCTL0_BANK_CTL, CY_GET_XTND_REG8((void CYFAR *)CYREG_BCTL0_B
 2040              		.loc 1 1117 0
 2041 0036 324A     		ldr	r2, .L74+24
 2042 0038 314B     		ldr	r3, .L74+24
 2043 003a 1B78     		ldrb	r3, [r3]
 2044 003c DBB2     		uxtb	r3, r3
 2045 003e 43F00203 		orr	r3, r3, #2
 2046 0042 DBB2     		uxtb	r3, r3
 2047 0044 1370     		strb	r3, [r2]
1118:Generated_Source\PSoC5/cyfitter_cfg.c **** 		CY_SET_XTND_REG8((void CYFAR *)CYREG_BCTL1_BANK_CTL, CY_GET_XTND_REG8((void CYFAR *)CYREG_BCTL1_B
 2048              		.loc 1 1118 0
 2049 0046 2F4A     		ldr	r2, .L74+28
 2050 0048 2E4B     		ldr	r3, .L74+28
 2051 004a 1B78     		ldrb	r3, [r3]
 2052 004c DBB2     		uxtb	r3, r3
 2053 004e 43F00203 		orr	r3, r3, #2
 2054 0052 DBB2     		uxtb	r3, r3
 2055 0054 1370     		strb	r3, [r2]
1119:Generated_Source\PSoC5/cyfitter_cfg.c **** 
1120:Generated_Source\PSoC5/cyfitter_cfg.c **** 		/* Enable UDB array */
1121:Generated_Source\PSoC5/cyfitter_cfg.c **** 		CY_SET_XTND_REG8((void CYFAR *)CYREG_PM_ACT_CFG0, CY_GET_XTND_REG8((void CYFAR *)CYREG_PM_ACT_CFG
 2056              		.loc 1 1121 0
 2057 0056 2C4A     		ldr	r2, .L74+32
 2058 0058 2B4B     		ldr	r3, .L74+32
 2059 005a 1B78     		ldrb	r3, [r3]
 2060 005c DBB2     		uxtb	r3, r3
 2061 005e 43F04003 		orr	r3, r3, #64
 2062 0062 DBB2     		uxtb	r3, r3
 2063 0064 1370     		strb	r3, [r2]
1122:Generated_Source\PSoC5/cyfitter_cfg.c **** 		CY_SET_XTND_REG8((void CYFAR *)CYREG_PM_AVAIL_CR2, CY_GET_XTND_REG8((void CYFAR *)CYREG_PM_AVAIL_
 2064              		.loc 1 1122 0
 2065 0066 294A     		ldr	r2, .L74+36
ARM GAS  C:\Users\JEFFSN~1\AppData\Local\Temp\cclRlWK0.s 			page 57


 2066 0068 284B     		ldr	r3, .L74+36
 2067 006a 1B78     		ldrb	r3, [r3]
 2068 006c DBB2     		uxtb	r3, r3
 2069 006e 43F01003 		orr	r3, r3, #16
 2070 0072 DBB2     		uxtb	r3, r3
 2071 0074 1370     		strb	r3, [r2]
1123:Generated_Source\PSoC5/cyfitter_cfg.c **** 	}
1124:Generated_Source\PSoC5/cyfitter_cfg.c **** 
1125:Generated_Source\PSoC5/cyfitter_cfg.c **** 
1126:Generated_Source\PSoC5/cyfitter_cfg.c **** 	/* Perform second pass device configuration. These items must be configured in specific order afte
1127:Generated_Source\PSoC5/cyfitter_cfg.c **** 	CYCONFIGCPY((void CYFAR *)(CYREG_PRT0_DM0), (const void CYFAR *)(BS_IOPINS0_0_VAL), 8u);
 2072              		.loc 1 1127 0
 2073 0076 0822     		movs	r2, #8
 2074 0078 2549     		ldr	r1, .L74+40
 2075 007a 2648     		ldr	r0, .L74+44
 2076 007c FFF7FEFF 		bl	CYCONFIGCPY
1128:Generated_Source\PSoC5/cyfitter_cfg.c **** 	CYCONFIGCPY((void CYFAR *)(CYREG_PRT15_DM0), (const void CYFAR *)(BS_IOPINS0_8_VAL), 8u);
 2077              		.loc 1 1128 0
 2078 0080 0822     		movs	r2, #8
 2079 0082 2549     		ldr	r1, .L74+48
 2080 0084 2548     		ldr	r0, .L74+52
 2081 0086 FFF7FEFF 		bl	CYCONFIGCPY
1129:Generated_Source\PSoC5/cyfitter_cfg.c **** 	CYCONFIGCPY((void CYFAR *)(CYREG_PRT1_DM0), (const void CYFAR *)(BS_IOPINS0_1_VAL), 8u);
 2082              		.loc 1 1129 0
 2083 008a 0822     		movs	r2, #8
 2084 008c 2449     		ldr	r1, .L74+56
 2085 008e 2548     		ldr	r0, .L74+60
 2086 0090 FFF7FEFF 		bl	CYCONFIGCPY
1130:Generated_Source\PSoC5/cyfitter_cfg.c **** 	CYCONFIGCPY((void CYFAR *)(CYREG_PRT2_DM0), (const void CYFAR *)(BS_IOPINS0_2_VAL), 8u);
 2087              		.loc 1 1130 0
 2088 0094 0822     		movs	r2, #8
 2089 0096 2449     		ldr	r1, .L74+64
 2090 0098 2448     		ldr	r0, .L74+68
 2091 009a FFF7FEFF 		bl	CYCONFIGCPY
1131:Generated_Source\PSoC5/cyfitter_cfg.c **** 	CYCONFIGCPY((void CYFAR *)(CYREG_PRT3_DM0), (const void CYFAR *)(BS_IOPINS0_3_VAL), 8u);
 2092              		.loc 1 1131 0
 2093 009e 0822     		movs	r2, #8
 2094 00a0 2349     		ldr	r1, .L74+72
 2095 00a2 2448     		ldr	r0, .L74+76
 2096 00a4 FFF7FEFF 		bl	CYCONFIGCPY
1132:Generated_Source\PSoC5/cyfitter_cfg.c **** 	CYCONFIGCPY((void CYFAR *)(CYREG_PRT4_DM0), (const void CYFAR *)(BS_IOPINS0_4_VAL), 8u);
 2097              		.loc 1 1132 0
 2098 00a8 0822     		movs	r2, #8
 2099 00aa 2349     		ldr	r1, .L74+80
 2100 00ac 2348     		ldr	r0, .L74+84
 2101 00ae FFF7FEFF 		bl	CYCONFIGCPY
1133:Generated_Source\PSoC5/cyfitter_cfg.c **** 	CYCONFIGCPY((void CYFAR *)(CYREG_PRT5_DM0), (const void CYFAR *)(BS_IOPINS0_5_VAL), 8u);
 2102              		.loc 1 1133 0
 2103 00b2 0822     		movs	r2, #8
 2104 00b4 2249     		ldr	r1, .L74+88
 2105 00b6 2348     		ldr	r0, .L74+92
 2106 00b8 FFF7FEFF 		bl	CYCONFIGCPY
1134:Generated_Source\PSoC5/cyfitter_cfg.c **** 	CYCONFIGCPY((void CYFAR *)(CYREG_PRT6_DM0), (const void CYFAR *)(BS_IOPINS0_6_VAL), 8u);
 2107              		.loc 1 1134 0
 2108 00bc 0822     		movs	r2, #8
 2109 00be 2249     		ldr	r1, .L74+96
 2110 00c0 2248     		ldr	r0, .L74+100
ARM GAS  C:\Users\JEFFSN~1\AppData\Local\Temp\cclRlWK0.s 			page 58


 2111 00c2 FFF7FEFF 		bl	CYCONFIGCPY
1135:Generated_Source\PSoC5/cyfitter_cfg.c **** 	/* Switch Boost to the precision bandgap reference from its internal reference */
1136:Generated_Source\PSoC5/cyfitter_cfg.c **** 	CY_SET_REG8((void CYXDATA *)CYREG_BOOST_CR2, (CY_GET_REG8((void CYXDATA *)CYREG_BOOST_CR2) | 0x08u
 2112              		.loc 1 1136 0
 2113 00c6 224A     		ldr	r2, .L74+104
 2114 00c8 214B     		ldr	r3, .L74+104
 2115 00ca 1B78     		ldrb	r3, [r3]
 2116 00cc DBB2     		uxtb	r3, r3
 2117 00ce 43F00803 		orr	r3, r3, #8
 2118 00d2 DBB2     		uxtb	r3, r3
 2119 00d4 1370     		strb	r3, [r2]
1137:Generated_Source\PSoC5/cyfitter_cfg.c **** 
1138:Generated_Source\PSoC5/cyfitter_cfg.c **** 	/* Perform basic analog initialization to defaults */
1139:Generated_Source\PSoC5/cyfitter_cfg.c **** 	AnalogSetDefault();
 2120              		.loc 1 1139 0
 2121 00d6 FFF7FEFF 		bl	AnalogSetDefault
1140:Generated_Source\PSoC5/cyfitter_cfg.c **** 
1141:Generated_Source\PSoC5/cyfitter_cfg.c **** 	/* Configure alternate active mode */
1142:Generated_Source\PSoC5/cyfitter_cfg.c **** 	CYCONFIGCPY((void CYFAR *)CYDEV_PM_STBY_BASE, (const void CYFAR *)CYDEV_PM_ACT_BASE, 14u);
 2122              		.loc 1 1142 0
 2123 00da 0E22     		movs	r2, #14
 2124 00dc 0A49     		ldr	r1, .L74+32
 2125 00de 1D48     		ldr	r0, .L74+108
 2126 00e0 FFF7FEFF 		bl	CYCONFIGCPY
1143:Generated_Source\PSoC5/cyfitter_cfg.c **** }
 2127              		.loc 1 1143 0
 2128 00e4 00BF     		nop
 2129 00e6 80BD     		pop	{r7, pc}
 2130              	.L75:
 2131              		.align	2
 2132              	.L74:
 2133 00e8 00480040 		.word	1073760256
 2134 00ec 70580040 		.word	1073764464
 2135 00f0 83580040 		.word	1073764483
 2136 00f4 4C580040 		.word	1073764428
 2137 00f8 D80C0140 		.word	1073810648
 2138 00fc 04040484 		.word	-2080111612
 2139 0100 03500140 		.word	1073827843
 2140 0104 13500140 		.word	1073827859
 2141 0108 A0430040 		.word	1073759136
 2142 010c C2430040 		.word	1073759170
 2143 0110 48170048 		.word	1207965512
 2144 0114 02510040 		.word	1073762562
 2145 0118 50170048 		.word	1207965520
 2146 011c F2510040 		.word	1073762802
 2147 0120 58170048 		.word	1207965528
 2148 0124 12510040 		.word	1073762578
 2149 0128 60170048 		.word	1207965536
 2150 012c 22510040 		.word	1073762594
 2151 0130 68170048 		.word	1207965544
 2152 0134 32510040 		.word	1073762610
 2153 0138 70170048 		.word	1207965552
 2154 013c 42510040 		.word	1073762626
 2155 0140 78170048 		.word	1207965560
 2156 0144 52510040 		.word	1073762642
 2157 0148 80170048 		.word	1207965568
 2158 014c 62510040 		.word	1073762658
ARM GAS  C:\Users\JEFFSN~1\AppData\Local\Temp\cclRlWK0.s 			page 59


 2159 0150 22430040 		.word	1073759010
 2160 0154 B0430040 		.word	1073759152
 2161              		.cfi_endproc
 2162              	.LFE16:
 2163              		.size	cyfitter_cfg, .-cyfitter_cfg
 2164              		.bss
 2165 0006 0000     		.align	3
 2166              	DMA_ZERO_VAL.5003:
 2167 0008 00000000 		.space	4
 2168              		.section	.rodata
 2169 0097 00       		.align	2
 2170              		.type	CFG_TD_ADDR0.5005, %object
 2171              		.size	CFG_TD_ADDR0.5005, 296
 2172              	CFG_TD_ADDR0.5005:
 2173 0098 00000000 		.word	CH1_ADDR_DATA0.4998
 2174 009c 08000000 		.word	CH2_ADDR_DATA0.4999
 2175 00a0 10000000 		.word	CH5_ADDR_DATA0.5000
 2176 00a4 18000000 		.word	CH6_ADDR_DATA0.5001
 2177 00a8 20000000 		.word	DMA_TD_START_CMD.5002
 2178 00ac 20000000 		.word	DMA_TD_START_CMD.5002
 2179 00b0 20000000 		.word	DMA_TD_START_CMD.5002
 2180 00b4 20000000 		.word	DMA_TD_START_CMD.5002
 2181 00b8 08000000 		.word	DMA_ZERO_VAL.5003
 2182 00bc 08000000 		.word	DMA_ZERO_VAL.5003
 2183 00c0 08000000 		.word	DMA_ZERO_VAL.5003
 2184 00c4 08000000 		.word	DMA_ZERO_VAL.5003
 2185 00c8 08000000 		.word	DMA_ZERO_VAL.5003
 2186 00cc 08000000 		.word	DMA_ZERO_VAL.5003
 2187 00d0 08000000 		.word	DMA_ZERO_VAL.5003
 2188 00d4 08000000 		.word	DMA_ZERO_VAL.5003
 2189 00d8 08000000 		.word	DMA_ZERO_VAL.5003
 2190 00dc 08000000 		.word	DMA_ZERO_VAL.5003
 2191 00e0 08000000 		.word	DMA_ZERO_VAL.5003
 2192 00e4 00000048 		.word	1207959552
 2193 00e8 08000048 		.word	1207959560
 2194 00ec 10000048 		.word	1207959568
 2195 00f0 18000048 		.word	1207959576
 2196 00f4 A8060048 		.word	1207961256
 2197 00f8 E8060048 		.word	1207961320
 2198 00fc 08070048 		.word	1207961352
 2199 0100 20000048 		.word	1207959584
 2200 0104 28000048 		.word	1207959592
 2201 0108 A8000048 		.word	1207959720
 2202 010c 28010048 		.word	1207959848
 2203 0110 A8010048 		.word	1207959976
 2204 0114 28020048 		.word	1207960104
 2205 0118 A8020048 		.word	1207960232
 2206 011c 28030048 		.word	1207960360
 2207 0120 A8030048 		.word	1207960488
 2208 0124 28040048 		.word	1207960616
 2209 0128 A8040048 		.word	1207960744
 2210 012c 28050048 		.word	1207960872
 2211 0130 A8050048 		.word	1207961000
 2212 0134 28060048 		.word	1207961128
 2213 0138 28070048 		.word	1207961384
 2214 013c 38070048 		.word	1207961400
 2215 0140 48070048 		.word	1207961416
ARM GAS  C:\Users\JEFFSN~1\AppData\Local\Temp\cclRlWK0.s 			page 60


 2216 0144 C8070048 		.word	1207961544
 2217 0148 48080048 		.word	1207961672
 2218 014c C8080048 		.word	1207961800
 2219 0150 48090048 		.word	1207961928
 2220 0154 C8090048 		.word	1207962056
 2221 0158 480A0048 		.word	1207962184
 2222 015c C80A0048 		.word	1207962312
 2223 0160 480B0048 		.word	1207962440
 2224 0164 C80B0048 		.word	1207962568
 2225 0168 480C0048 		.word	1207962696
 2226 016c C80C0048 		.word	1207962824
 2227 0170 480D0048 		.word	1207962952
 2228 0174 C80D0048 		.word	1207963080
 2229 0178 480E0048 		.word	1207963208
 2230 017c C80E0048 		.word	1207963336
 2231 0180 480F0048 		.word	1207963464
 2232 0184 C80F0048 		.word	1207963592
 2233 0188 48100048 		.word	1207963720
 2234 018c C8100048 		.word	1207963848
 2235 0190 48110048 		.word	1207963976
 2236 0194 C8110048 		.word	1207964104
 2237 0198 48120048 		.word	1207964232
 2238 019c C8120048 		.word	1207964360
 2239 01a0 48130048 		.word	1207964488
 2240 01a4 C8130048 		.word	1207964616
 2241 01a8 48140048 		.word	1207964744
 2242 01ac C8140048 		.word	1207964872
 2243 01b0 48150048 		.word	1207965000
 2244 01b4 C8150048 		.word	1207965128
 2245 01b8 48160048 		.word	1207965256
 2246 01bc C8160048 		.word	1207965384
 2247              		.text
 2248              	.Letext0:
 2249              		.file 2 "c:\\program files (x86)\\cypress\\psoc creator\\4.4\\psoc creator\\import\\gnu\\arm\\5.4.
 2250              		.file 3 "Generated_Source\\PSoC5\\cytypes.h"