ARM GAS  C:\Users\JEFFSN~1\AppData\Local\Temp\ccjGRBqo.s 			page 1


   1              		.syntax unified
   2              		.cpu cortex-m3
   3              		.fpu softvfp
   4              		.eabi_attribute 20, 1
   5              		.eabi_attribute 21, 1
   6              		.eabi_attribute 23, 3
   7              		.eabi_attribute 24, 1
   8              		.eabi_attribute 25, 1
   9              		.eabi_attribute 26, 1
  10              		.eabi_attribute 30, 6
  11              		.eabi_attribute 34, 1
  12              		.eabi_attribute 18, 4
  13              		.thumb
  14              		.syntax unified
  15              		.file	"IDAC8_1.c"
  16              		.text
  17              	.Ltext0:
  18              		.cfi_sections	.debug_frame
  19              		.global	IDAC8_1_initVar
  20              		.bss
  21              		.type	IDAC8_1_initVar, %object
  22              		.size	IDAC8_1_initVar, 1
  23              	IDAC8_1_initVar:
  24 0000 00       		.space	1
  25              		.section	.text.IDAC8_1_Init,"ax",%progbits
  26              		.align	2
  27              		.global	IDAC8_1_Init
  28              		.thumb
  29              		.thumb_func
  30              		.type	IDAC8_1_Init, %function
  31              	IDAC8_1_Init:
  32              	.LFB0:
  33              		.file 1 "Generated_Source\\PSoC5\\IDAC8_1.c"
   1:Generated_Source\PSoC5/IDAC8_1.c **** /*******************************************************************************
   2:Generated_Source\PSoC5/IDAC8_1.c **** * File Name: IDAC8_1.c
   3:Generated_Source\PSoC5/IDAC8_1.c **** * Version 2.0
   4:Generated_Source\PSoC5/IDAC8_1.c **** *
   5:Generated_Source\PSoC5/IDAC8_1.c **** * Description:
   6:Generated_Source\PSoC5/IDAC8_1.c **** *  This file provides the source code to the API for the 8-bit Current 
   7:Generated_Source\PSoC5/IDAC8_1.c **** *  DAC (IDAC8) User Module.
   8:Generated_Source\PSoC5/IDAC8_1.c **** *
   9:Generated_Source\PSoC5/IDAC8_1.c **** * Note:
  10:Generated_Source\PSoC5/IDAC8_1.c **** *  None
  11:Generated_Source\PSoC5/IDAC8_1.c **** *
  12:Generated_Source\PSoC5/IDAC8_1.c **** ********************************************************************************
  13:Generated_Source\PSoC5/IDAC8_1.c **** * Copyright 2008-2012, Cypress Semiconductor Corporation.  All rights reserved.
  14:Generated_Source\PSoC5/IDAC8_1.c **** * You may use this file only in accordance with the license, terms, conditions, 
  15:Generated_Source\PSoC5/IDAC8_1.c **** * disclaimers, and limitations in the end user license agreement accompanying 
  16:Generated_Source\PSoC5/IDAC8_1.c **** * the software package with which this file was provided.
  17:Generated_Source\PSoC5/IDAC8_1.c **** *******************************************************************************/
  18:Generated_Source\PSoC5/IDAC8_1.c **** 
  19:Generated_Source\PSoC5/IDAC8_1.c **** #include "cytypes.h"
  20:Generated_Source\PSoC5/IDAC8_1.c **** #include "IDAC8_1.h"   
  21:Generated_Source\PSoC5/IDAC8_1.c **** 
  22:Generated_Source\PSoC5/IDAC8_1.c **** #if (CY_PSOC5A)
  23:Generated_Source\PSoC5/IDAC8_1.c ****     #include <CyLib.h>
  24:Generated_Source\PSoC5/IDAC8_1.c **** #endif /* CY_PSOC5A */
ARM GAS  C:\Users\JEFFSN~1\AppData\Local\Temp\ccjGRBqo.s 			page 2


  25:Generated_Source\PSoC5/IDAC8_1.c **** 
  26:Generated_Source\PSoC5/IDAC8_1.c **** 
  27:Generated_Source\PSoC5/IDAC8_1.c **** uint8 IDAC8_1_initVar = 0u;
  28:Generated_Source\PSoC5/IDAC8_1.c **** 
  29:Generated_Source\PSoC5/IDAC8_1.c **** 
  30:Generated_Source\PSoC5/IDAC8_1.c **** #if (CY_PSOC5A)
  31:Generated_Source\PSoC5/IDAC8_1.c ****     static IDAC8_1_LOWPOWER_BACKUP_STRUCT  IDAC8_1_lowPowerBackup;
  32:Generated_Source\PSoC5/IDAC8_1.c **** #endif /* CY_PSOC5A */
  33:Generated_Source\PSoC5/IDAC8_1.c **** 
  34:Generated_Source\PSoC5/IDAC8_1.c **** /* Variable to decide whether or not to restore control register in Enable()
  35:Generated_Source\PSoC5/IDAC8_1.c ****    API. This valid only for PSoC5A */
  36:Generated_Source\PSoC5/IDAC8_1.c **** #if (CY_PSOC5A)
  37:Generated_Source\PSoC5/IDAC8_1.c ****     static uint8 IDAC8_1_restoreReg = 0u;
  38:Generated_Source\PSoC5/IDAC8_1.c **** #endif /* CY_PSOC5A */
  39:Generated_Source\PSoC5/IDAC8_1.c **** 
  40:Generated_Source\PSoC5/IDAC8_1.c **** 
  41:Generated_Source\PSoC5/IDAC8_1.c **** /*******************************************************************************
  42:Generated_Source\PSoC5/IDAC8_1.c **** * Function Name: IDAC8_1_Init
  43:Generated_Source\PSoC5/IDAC8_1.c **** ********************************************************************************
  44:Generated_Source\PSoC5/IDAC8_1.c **** * Summary:
  45:Generated_Source\PSoC5/IDAC8_1.c **** *  Initialize to the schematic state.
  46:Generated_Source\PSoC5/IDAC8_1.c **** * 
  47:Generated_Source\PSoC5/IDAC8_1.c **** * Parameters:
  48:Generated_Source\PSoC5/IDAC8_1.c **** *  void:
  49:Generated_Source\PSoC5/IDAC8_1.c **** *
  50:Generated_Source\PSoC5/IDAC8_1.c **** * Return:
  51:Generated_Source\PSoC5/IDAC8_1.c **** *  (void)
  52:Generated_Source\PSoC5/IDAC8_1.c **** *
  53:Generated_Source\PSoC5/IDAC8_1.c **** * Theory:
  54:Generated_Source\PSoC5/IDAC8_1.c **** *
  55:Generated_Source\PSoC5/IDAC8_1.c **** * Side Effects:
  56:Generated_Source\PSoC5/IDAC8_1.c **** *
  57:Generated_Source\PSoC5/IDAC8_1.c **** *******************************************************************************/
  58:Generated_Source\PSoC5/IDAC8_1.c **** void IDAC8_1_Init(void) 
  59:Generated_Source\PSoC5/IDAC8_1.c **** {
  34              		.loc 1 59 0
  35              		.cfi_startproc
  36              		@ args = 0, pretend = 0, frame = 0
  37              		@ frame_needed = 1, uses_anonymous_args = 0
  38 0000 80B5     		push	{r7, lr}
  39              		.cfi_def_cfa_offset 8
  40              		.cfi_offset 7, -8
  41              		.cfi_offset 14, -4
  42 0002 00AF     		add	r7, sp, #0
  43              		.cfi_def_cfa_register 7
  60:Generated_Source\PSoC5/IDAC8_1.c ****     IDAC8_1_CR0 = (IDAC8_1_MODE_I | IDAC8_1_DEFAULT_RANGE );
  44              		.loc 1 60 0
  45 0004 084B     		ldr	r3, .L2
  46 0006 1422     		movs	r2, #20
  47 0008 1A70     		strb	r2, [r3]
  61:Generated_Source\PSoC5/IDAC8_1.c **** 
  62:Generated_Source\PSoC5/IDAC8_1.c ****     /* Set default data source */
  63:Generated_Source\PSoC5/IDAC8_1.c ****     #if(IDAC8_1_DEFAULT_DATA_SRC != 0u )    
  64:Generated_Source\PSoC5/IDAC8_1.c ****         IDAC8_1_CR1 = (IDAC8_1_DEFAULT_CNTL | IDAC8_1_DACBUS_ENABLE);
  65:Generated_Source\PSoC5/IDAC8_1.c ****     #else
  66:Generated_Source\PSoC5/IDAC8_1.c ****         IDAC8_1_CR1 = (IDAC8_1_DEFAULT_CNTL | IDAC8_1_DACBUS_DISABLE);
  48              		.loc 1 66 0
ARM GAS  C:\Users\JEFFSN~1\AppData\Local\Temp\ccjGRBqo.s 			page 3


  49 000a 084B     		ldr	r3, .L2+4
  50 000c 0022     		movs	r2, #0
  51 000e 1A70     		strb	r2, [r3]
  67:Generated_Source\PSoC5/IDAC8_1.c ****     #endif /* (IDAC8_1_DEFAULT_DATA_SRC != 0u ) */
  68:Generated_Source\PSoC5/IDAC8_1.c ****     
  69:Generated_Source\PSoC5/IDAC8_1.c ****     /*Controls polarity from UDB Control*/
  70:Generated_Source\PSoC5/IDAC8_1.c ****     #if(IDAC8_1_DEFAULT_POLARITY == IDAC8_1_HARDWARE_CONTROLLED)
  71:Generated_Source\PSoC5/IDAC8_1.c ****         IDAC8_1_CR1 |= IDAC8_1_IDIR_SRC_UDB;
  72:Generated_Source\PSoC5/IDAC8_1.c ****     #else
  73:Generated_Source\PSoC5/IDAC8_1.c ****         IDAC8_1_CR1 |= IDAC8_1_DEFAULT_POLARITY;
  52              		.loc 1 73 0
  53 0010 064B     		ldr	r3, .L2+4
  54 0012 064A     		ldr	r2, .L2+4
  55 0014 1278     		ldrb	r2, [r2]
  56 0016 D2B2     		uxtb	r2, r2
  57 0018 1A70     		strb	r2, [r3]
  74:Generated_Source\PSoC5/IDAC8_1.c ****     #endif/* (IDAC8_1_DEFAULT_POLARITY == IDAC8_1_HARDWARE_CONTROLLED) */
  75:Generated_Source\PSoC5/IDAC8_1.c ****     /*Controls Current Source from UDB Control*/
  76:Generated_Source\PSoC5/IDAC8_1.c ****     #if(IDAC8_1_HARDWARE_ENABLE != 0u ) 
  77:Generated_Source\PSoC5/IDAC8_1.c ****         IDAC8_1_CR1 |= IDAC8_1_IDIR_CTL_UDB;
  78:Generated_Source\PSoC5/IDAC8_1.c ****     #endif /* (IDAC8_1_HARDWARE_ENABLE != 0u ) */ 
  79:Generated_Source\PSoC5/IDAC8_1.c ****     
  80:Generated_Source\PSoC5/IDAC8_1.c ****     /* Set default strobe mode */
  81:Generated_Source\PSoC5/IDAC8_1.c ****     #if(IDAC8_1_DEFAULT_STRB != 0u)
  82:Generated_Source\PSoC5/IDAC8_1.c ****         IDAC8_1_Strobe |= IDAC8_1_STRB_EN;
  83:Generated_Source\PSoC5/IDAC8_1.c ****     #endif /* (IDAC8_1_DEFAULT_STRB != 0u) */
  84:Generated_Source\PSoC5/IDAC8_1.c ****     
  85:Generated_Source\PSoC5/IDAC8_1.c ****     /* Set default speed */
  86:Generated_Source\PSoC5/IDAC8_1.c ****     IDAC8_1_SetSpeed(IDAC8_1_DEFAULT_SPEED);
  58              		.loc 1 86 0
  59 001a 0220     		movs	r0, #2
  60 001c FFF7FEFF 		bl	IDAC8_1_SetSpeed
  87:Generated_Source\PSoC5/IDAC8_1.c ****     
  88:Generated_Source\PSoC5/IDAC8_1.c ****     /* Set proper DAC trim */
  89:Generated_Source\PSoC5/IDAC8_1.c ****     IDAC8_1_DacTrim();
  61              		.loc 1 89 0
  62 0020 FFF7FEFF 		bl	IDAC8_1_DacTrim
  90:Generated_Source\PSoC5/IDAC8_1.c ****     
  91:Generated_Source\PSoC5/IDAC8_1.c **** }
  63              		.loc 1 91 0
  64 0024 00BF     		nop
  65 0026 80BD     		pop	{r7, pc}
  66              	.L3:
  67              		.align	2
  68              	.L2:
  69 0028 2C580040 		.word	1073764396
  70 002c 2D580040 		.word	1073764397
  71              		.cfi_endproc
  72              	.LFE0:
  73              		.size	IDAC8_1_Init, .-IDAC8_1_Init
  74              		.section	.text.IDAC8_1_Enable,"ax",%progbits
  75              		.align	2
  76              		.global	IDAC8_1_Enable
  77              		.thumb
  78              		.thumb_func
  79              		.type	IDAC8_1_Enable, %function
  80              	IDAC8_1_Enable:
ARM GAS  C:\Users\JEFFSN~1\AppData\Local\Temp\ccjGRBqo.s 			page 4


  81              	.LFB1:
  92:Generated_Source\PSoC5/IDAC8_1.c **** 
  93:Generated_Source\PSoC5/IDAC8_1.c **** 
  94:Generated_Source\PSoC5/IDAC8_1.c **** /*******************************************************************************
  95:Generated_Source\PSoC5/IDAC8_1.c **** * Function Name: IDAC8_1_Enable
  96:Generated_Source\PSoC5/IDAC8_1.c **** ********************************************************************************
  97:Generated_Source\PSoC5/IDAC8_1.c **** * Summary:
  98:Generated_Source\PSoC5/IDAC8_1.c **** *  Enable the IDAC8
  99:Generated_Source\PSoC5/IDAC8_1.c **** * 
 100:Generated_Source\PSoC5/IDAC8_1.c **** * Parameters:
 101:Generated_Source\PSoC5/IDAC8_1.c **** *  void:
 102:Generated_Source\PSoC5/IDAC8_1.c **** *
 103:Generated_Source\PSoC5/IDAC8_1.c **** * Return:
 104:Generated_Source\PSoC5/IDAC8_1.c **** *  (void)
 105:Generated_Source\PSoC5/IDAC8_1.c **** *
 106:Generated_Source\PSoC5/IDAC8_1.c **** * Theory:
 107:Generated_Source\PSoC5/IDAC8_1.c **** *
 108:Generated_Source\PSoC5/IDAC8_1.c **** * Side Effects:
 109:Generated_Source\PSoC5/IDAC8_1.c **** *
 110:Generated_Source\PSoC5/IDAC8_1.c **** *******************************************************************************/
 111:Generated_Source\PSoC5/IDAC8_1.c **** void IDAC8_1_Enable(void) 
 112:Generated_Source\PSoC5/IDAC8_1.c **** {
  82              		.loc 1 112 0
  83              		.cfi_startproc
  84              		@ args = 0, pretend = 0, frame = 0
  85              		@ frame_needed = 1, uses_anonymous_args = 0
  86              		@ link register save eliminated.
  87 0000 80B4     		push	{r7}
  88              		.cfi_def_cfa_offset 4
  89              		.cfi_offset 7, -4
  90 0002 00AF     		add	r7, sp, #0
  91              		.cfi_def_cfa_register 7
 113:Generated_Source\PSoC5/IDAC8_1.c ****     IDAC8_1_PWRMGR |= IDAC8_1_ACT_PWR_EN;
  92              		.loc 1 113 0
  93 0004 094A     		ldr	r2, .L5
  94 0006 094B     		ldr	r3, .L5
  95 0008 1B78     		ldrb	r3, [r3]
  96 000a DBB2     		uxtb	r3, r3
  97 000c 43F00803 		orr	r3, r3, #8
  98 0010 DBB2     		uxtb	r3, r3
  99 0012 1370     		strb	r3, [r2]
 114:Generated_Source\PSoC5/IDAC8_1.c ****     IDAC8_1_STBY_PWRMGR |= IDAC8_1_STBY_PWR_EN;
 100              		.loc 1 114 0
 101 0014 064A     		ldr	r2, .L5+4
 102 0016 064B     		ldr	r3, .L5+4
 103 0018 1B78     		ldrb	r3, [r3]
 104 001a DBB2     		uxtb	r3, r3
 105 001c 43F00803 		orr	r3, r3, #8
 106 0020 DBB2     		uxtb	r3, r3
 107 0022 1370     		strb	r3, [r2]
 115:Generated_Source\PSoC5/IDAC8_1.c **** 
 116:Generated_Source\PSoC5/IDAC8_1.c ****     /* This is to restore the value of register CR0 which is saved 
 117:Generated_Source\PSoC5/IDAC8_1.c ****       in prior to the modification in stop() API */
 118:Generated_Source\PSoC5/IDAC8_1.c ****     #if (CY_PSOC5A)
 119:Generated_Source\PSoC5/IDAC8_1.c ****         if(IDAC8_1_restoreReg == 1u)
 120:Generated_Source\PSoC5/IDAC8_1.c ****         {
 121:Generated_Source\PSoC5/IDAC8_1.c ****             IDAC8_1_CR0 = IDAC8_1_lowPowerBackup.DACCR0Reg;
ARM GAS  C:\Users\JEFFSN~1\AppData\Local\Temp\ccjGRBqo.s 			page 5


 122:Generated_Source\PSoC5/IDAC8_1.c **** 
 123:Generated_Source\PSoC5/IDAC8_1.c ****             /* Clear the flag */
 124:Generated_Source\PSoC5/IDAC8_1.c ****             IDAC8_1_restoreReg = 0u;
 125:Generated_Source\PSoC5/IDAC8_1.c ****         }
 126:Generated_Source\PSoC5/IDAC8_1.c ****     #endif /* CY_PSOC5A */
 127:Generated_Source\PSoC5/IDAC8_1.c **** }
 108              		.loc 1 127 0
 109 0024 00BF     		nop
 110 0026 BD46     		mov	sp, r7
 111              		.cfi_def_cfa_register 13
 112              		@ sp needed
 113 0028 80BC     		pop	{r7}
 114              		.cfi_restore 7
 115              		.cfi_def_cfa_offset 0
 116 002a 7047     		bx	lr
 117              	.L6:
 118              		.align	2
 119              	.L5:
 120 002c A8430040 		.word	1073759144
 121 0030 B8430040 		.word	1073759160
 122              		.cfi_endproc
 123              	.LFE1:
 124              		.size	IDAC8_1_Enable, .-IDAC8_1_Enable
 125              		.section	.text.IDAC8_1_Start,"ax",%progbits
 126              		.align	2
 127              		.global	IDAC8_1_Start
 128              		.thumb
 129              		.thumb_func
 130              		.type	IDAC8_1_Start, %function
 131              	IDAC8_1_Start:
 132              	.LFB2:
 128:Generated_Source\PSoC5/IDAC8_1.c **** 
 129:Generated_Source\PSoC5/IDAC8_1.c **** 
 130:Generated_Source\PSoC5/IDAC8_1.c **** /*******************************************************************************
 131:Generated_Source\PSoC5/IDAC8_1.c **** * Function Name: IDAC8_1_Start
 132:Generated_Source\PSoC5/IDAC8_1.c **** ********************************************************************************
 133:Generated_Source\PSoC5/IDAC8_1.c **** * Summary:
 134:Generated_Source\PSoC5/IDAC8_1.c **** *  Set power level then turn on IDAC8.
 135:Generated_Source\PSoC5/IDAC8_1.c **** *
 136:Generated_Source\PSoC5/IDAC8_1.c **** * Parameters:  
 137:Generated_Source\PSoC5/IDAC8_1.c **** *  power: Sets power level between off (0) and (3) high power
 138:Generated_Source\PSoC5/IDAC8_1.c **** *
 139:Generated_Source\PSoC5/IDAC8_1.c **** * Return:
 140:Generated_Source\PSoC5/IDAC8_1.c **** *  (void)
 141:Generated_Source\PSoC5/IDAC8_1.c **** *
 142:Generated_Source\PSoC5/IDAC8_1.c **** * Global variables:
 143:Generated_Source\PSoC5/IDAC8_1.c **** *  IDAC8_1_initVar: Is modified when this function is called for 
 144:Generated_Source\PSoC5/IDAC8_1.c **** *   the first time. Is used to ensure that initialization happens only once.
 145:Generated_Source\PSoC5/IDAC8_1.c **** *
 146:Generated_Source\PSoC5/IDAC8_1.c **** *******************************************************************************/
 147:Generated_Source\PSoC5/IDAC8_1.c **** void IDAC8_1_Start(void) 
 148:Generated_Source\PSoC5/IDAC8_1.c **** {
 133              		.loc 1 148 0
 134              		.cfi_startproc
 135              		@ args = 0, pretend = 0, frame = 0
 136              		@ frame_needed = 1, uses_anonymous_args = 0
 137 0000 80B5     		push	{r7, lr}
ARM GAS  C:\Users\JEFFSN~1\AppData\Local\Temp\ccjGRBqo.s 			page 6


 138              		.cfi_def_cfa_offset 8
 139              		.cfi_offset 7, -8
 140              		.cfi_offset 14, -4
 141 0002 00AF     		add	r7, sp, #0
 142              		.cfi_def_cfa_register 7
 149:Generated_Source\PSoC5/IDAC8_1.c ****     /* Hardware initiazation only needs to occur the first time */
 150:Generated_Source\PSoC5/IDAC8_1.c ****     if ( IDAC8_1_initVar == 0u)  
 143              		.loc 1 150 0
 144 0004 074B     		ldr	r3, .L9
 145 0006 1B78     		ldrb	r3, [r3]	@ zero_extendqisi2
 146 0008 002B     		cmp	r3, #0
 147 000a 04D1     		bne	.L8
 151:Generated_Source\PSoC5/IDAC8_1.c ****     {
 152:Generated_Source\PSoC5/IDAC8_1.c ****         IDAC8_1_Init();
 148              		.loc 1 152 0
 149 000c FFF7FEFF 		bl	IDAC8_1_Init
 153:Generated_Source\PSoC5/IDAC8_1.c ****         
 154:Generated_Source\PSoC5/IDAC8_1.c ****         IDAC8_1_initVar = 1u;
 150              		.loc 1 154 0
 151 0010 044B     		ldr	r3, .L9
 152 0012 0122     		movs	r2, #1
 153 0014 1A70     		strb	r2, [r3]
 154              	.L8:
 155:Generated_Source\PSoC5/IDAC8_1.c ****     }
 156:Generated_Source\PSoC5/IDAC8_1.c ****    
 157:Generated_Source\PSoC5/IDAC8_1.c ****     /* Enable power to DAC */
 158:Generated_Source\PSoC5/IDAC8_1.c ****     IDAC8_1_Enable();
 155              		.loc 1 158 0
 156 0016 FFF7FEFF 		bl	IDAC8_1_Enable
 159:Generated_Source\PSoC5/IDAC8_1.c **** 
 160:Generated_Source\PSoC5/IDAC8_1.c ****     /* Set default value */
 161:Generated_Source\PSoC5/IDAC8_1.c ****     IDAC8_1_SetValue(IDAC8_1_DEFAULT_DATA);
 157              		.loc 1 161 0
 158 001a 3220     		movs	r0, #50
 159 001c FFF7FEFF 		bl	IDAC8_1_SetValue
 162:Generated_Source\PSoC5/IDAC8_1.c **** 
 163:Generated_Source\PSoC5/IDAC8_1.c **** }
 160              		.loc 1 163 0
 161 0020 00BF     		nop
 162 0022 80BD     		pop	{r7, pc}
 163              	.L10:
 164              		.align	2
 165              	.L9:
 166 0024 00000000 		.word	IDAC8_1_initVar
 167              		.cfi_endproc
 168              	.LFE2:
 169              		.size	IDAC8_1_Start, .-IDAC8_1_Start
 170              		.section	.text.IDAC8_1_Stop,"ax",%progbits
 171              		.align	2
 172              		.global	IDAC8_1_Stop
 173              		.thumb
 174              		.thumb_func
 175              		.type	IDAC8_1_Stop, %function
 176              	IDAC8_1_Stop:
 177              	.LFB3:
 164:Generated_Source\PSoC5/IDAC8_1.c **** 
 165:Generated_Source\PSoC5/IDAC8_1.c **** 
ARM GAS  C:\Users\JEFFSN~1\AppData\Local\Temp\ccjGRBqo.s 			page 7


 166:Generated_Source\PSoC5/IDAC8_1.c **** /*******************************************************************************
 167:Generated_Source\PSoC5/IDAC8_1.c **** * Function Name: IDAC8_1_Stop
 168:Generated_Source\PSoC5/IDAC8_1.c **** ********************************************************************************
 169:Generated_Source\PSoC5/IDAC8_1.c **** * Summary:
 170:Generated_Source\PSoC5/IDAC8_1.c **** *  Powers down IDAC8 to lowest power state.
 171:Generated_Source\PSoC5/IDAC8_1.c **** *
 172:Generated_Source\PSoC5/IDAC8_1.c **** * Parameters:
 173:Generated_Source\PSoC5/IDAC8_1.c **** *  (void)
 174:Generated_Source\PSoC5/IDAC8_1.c **** *
 175:Generated_Source\PSoC5/IDAC8_1.c **** * Return:
 176:Generated_Source\PSoC5/IDAC8_1.c **** *  (void)
 177:Generated_Source\PSoC5/IDAC8_1.c **** *
 178:Generated_Source\PSoC5/IDAC8_1.c **** * Theory:
 179:Generated_Source\PSoC5/IDAC8_1.c **** *
 180:Generated_Source\PSoC5/IDAC8_1.c **** * Side Effects:
 181:Generated_Source\PSoC5/IDAC8_1.c **** *
 182:Generated_Source\PSoC5/IDAC8_1.c **** *******************************************************************************/
 183:Generated_Source\PSoC5/IDAC8_1.c **** void IDAC8_1_Stop(void) 
 184:Generated_Source\PSoC5/IDAC8_1.c **** {
 178              		.loc 1 184 0
 179              		.cfi_startproc
 180              		@ args = 0, pretend = 0, frame = 0
 181              		@ frame_needed = 1, uses_anonymous_args = 0
 182              		@ link register save eliminated.
 183 0000 80B4     		push	{r7}
 184              		.cfi_def_cfa_offset 4
 185              		.cfi_offset 7, -4
 186 0002 00AF     		add	r7, sp, #0
 187              		.cfi_def_cfa_register 7
 185:Generated_Source\PSoC5/IDAC8_1.c ****     /* Disble power to DAC */
 186:Generated_Source\PSoC5/IDAC8_1.c ****     IDAC8_1_PWRMGR &= (uint8)(~IDAC8_1_ACT_PWR_EN);
 188              		.loc 1 186 0
 189 0004 094A     		ldr	r2, .L12
 190 0006 094B     		ldr	r3, .L12
 191 0008 1B78     		ldrb	r3, [r3]
 192 000a DBB2     		uxtb	r3, r3
 193 000c 23F00803 		bic	r3, r3, #8
 194 0010 DBB2     		uxtb	r3, r3
 195 0012 1370     		strb	r3, [r2]
 187:Generated_Source\PSoC5/IDAC8_1.c ****     IDAC8_1_STBY_PWRMGR &= (uint8)(~IDAC8_1_STBY_PWR_EN);
 196              		.loc 1 187 0
 197 0014 064A     		ldr	r2, .L12+4
 198 0016 064B     		ldr	r3, .L12+4
 199 0018 1B78     		ldrb	r3, [r3]
 200 001a DBB2     		uxtb	r3, r3
 201 001c 23F00803 		bic	r3, r3, #8
 202 0020 DBB2     		uxtb	r3, r3
 203 0022 1370     		strb	r3, [r2]
 188:Generated_Source\PSoC5/IDAC8_1.c ****     
 189:Generated_Source\PSoC5/IDAC8_1.c ****     #if (CY_PSOC5A)
 190:Generated_Source\PSoC5/IDAC8_1.c ****     
 191:Generated_Source\PSoC5/IDAC8_1.c ****         /* Set the global variable  */
 192:Generated_Source\PSoC5/IDAC8_1.c ****         IDAC8_1_restoreReg = 1u;
 193:Generated_Source\PSoC5/IDAC8_1.c **** 
 194:Generated_Source\PSoC5/IDAC8_1.c ****         /* Save the control register and then Clear it. */
 195:Generated_Source\PSoC5/IDAC8_1.c ****         IDAC8_1_lowPowerBackup.DACCR0Reg = IDAC8_1_CR0;
 196:Generated_Source\PSoC5/IDAC8_1.c ****         IDAC8_1_CR0 = (IDAC8_1_MODE_I | IDAC8_1_RANGE_3 | IDAC8_1_HS_HIGHSPEED);
ARM GAS  C:\Users\JEFFSN~1\AppData\Local\Temp\ccjGRBqo.s 			page 8


 197:Generated_Source\PSoC5/IDAC8_1.c ****     #endif /* CY_PSOC5A */
 198:Generated_Source\PSoC5/IDAC8_1.c **** }
 204              		.loc 1 198 0
 205 0024 00BF     		nop
 206 0026 BD46     		mov	sp, r7
 207              		.cfi_def_cfa_register 13
 208              		@ sp needed
 209 0028 80BC     		pop	{r7}
 210              		.cfi_restore 7
 211              		.cfi_def_cfa_offset 0
 212 002a 7047     		bx	lr
 213              	.L13:
 214              		.align	2
 215              	.L12:
 216 002c A8430040 		.word	1073759144
 217 0030 B8430040 		.word	1073759160
 218              		.cfi_endproc
 219              	.LFE3:
 220              		.size	IDAC8_1_Stop, .-IDAC8_1_Stop
 221              		.section	.text.IDAC8_1_SetSpeed,"ax",%progbits
 222              		.align	2
 223              		.global	IDAC8_1_SetSpeed
 224              		.thumb
 225              		.thumb_func
 226              		.type	IDAC8_1_SetSpeed, %function
 227              	IDAC8_1_SetSpeed:
 228              	.LFB4:
 199:Generated_Source\PSoC5/IDAC8_1.c **** 
 200:Generated_Source\PSoC5/IDAC8_1.c **** 
 201:Generated_Source\PSoC5/IDAC8_1.c **** /*******************************************************************************
 202:Generated_Source\PSoC5/IDAC8_1.c **** * Function Name: IDAC8_1_SetSpeed
 203:Generated_Source\PSoC5/IDAC8_1.c **** ********************************************************************************
 204:Generated_Source\PSoC5/IDAC8_1.c **** * Summary:
 205:Generated_Source\PSoC5/IDAC8_1.c **** *  Set DAC speed
 206:Generated_Source\PSoC5/IDAC8_1.c **** *
 207:Generated_Source\PSoC5/IDAC8_1.c **** * Parameters:
 208:Generated_Source\PSoC5/IDAC8_1.c **** *  power: Sets speed value
 209:Generated_Source\PSoC5/IDAC8_1.c **** *
 210:Generated_Source\PSoC5/IDAC8_1.c **** * Return:
 211:Generated_Source\PSoC5/IDAC8_1.c **** *  (void)
 212:Generated_Source\PSoC5/IDAC8_1.c **** *
 213:Generated_Source\PSoC5/IDAC8_1.c **** * Theory:
 214:Generated_Source\PSoC5/IDAC8_1.c **** *
 215:Generated_Source\PSoC5/IDAC8_1.c **** * Side Effects:
 216:Generated_Source\PSoC5/IDAC8_1.c **** *
 217:Generated_Source\PSoC5/IDAC8_1.c **** *******************************************************************************/
 218:Generated_Source\PSoC5/IDAC8_1.c **** void IDAC8_1_SetSpeed(uint8 speed) 
 219:Generated_Source\PSoC5/IDAC8_1.c **** {
 229              		.loc 1 219 0
 230              		.cfi_startproc
 231              		@ args = 0, pretend = 0, frame = 8
 232              		@ frame_needed = 1, uses_anonymous_args = 0
 233              		@ link register save eliminated.
 234 0000 80B4     		push	{r7}
 235              		.cfi_def_cfa_offset 4
 236              		.cfi_offset 7, -4
 237 0002 83B0     		sub	sp, sp, #12
ARM GAS  C:\Users\JEFFSN~1\AppData\Local\Temp\ccjGRBqo.s 			page 9


 238              		.cfi_def_cfa_offset 16
 239 0004 00AF     		add	r7, sp, #0
 240              		.cfi_def_cfa_register 7
 241 0006 0346     		mov	r3, r0
 242 0008 FB71     		strb	r3, [r7, #7]
 220:Generated_Source\PSoC5/IDAC8_1.c ****     /* Clear power mask then write in new value */
 221:Generated_Source\PSoC5/IDAC8_1.c ****     IDAC8_1_CR0 &= (uint8)(~IDAC8_1_HS_MASK);
 243              		.loc 1 221 0
 244 000a 0C4A     		ldr	r2, .L15
 245 000c 0B4B     		ldr	r3, .L15
 246 000e 1B78     		ldrb	r3, [r3]
 247 0010 DBB2     		uxtb	r3, r3
 248 0012 23F00203 		bic	r3, r3, #2
 249 0016 DBB2     		uxtb	r3, r3
 250 0018 1370     		strb	r3, [r2]
 222:Generated_Source\PSoC5/IDAC8_1.c ****     IDAC8_1_CR0 |=  ( speed & IDAC8_1_HS_MASK);
 251              		.loc 1 222 0
 252 001a 0849     		ldr	r1, .L15
 253 001c 074B     		ldr	r3, .L15
 254 001e 1B78     		ldrb	r3, [r3]
 255 0020 DAB2     		uxtb	r2, r3
 256 0022 FB79     		ldrb	r3, [r7, #7]
 257 0024 03F00203 		and	r3, r3, #2
 258 0028 DBB2     		uxtb	r3, r3
 259 002a 1343     		orrs	r3, r3, r2
 260 002c DBB2     		uxtb	r3, r3
 261 002e 0B70     		strb	r3, [r1]
 223:Generated_Source\PSoC5/IDAC8_1.c **** }
 262              		.loc 1 223 0
 263 0030 00BF     		nop
 264 0032 0C37     		adds	r7, r7, #12
 265              		.cfi_def_cfa_offset 4
 266 0034 BD46     		mov	sp, r7
 267              		.cfi_def_cfa_register 13
 268              		@ sp needed
 269 0036 80BC     		pop	{r7}
 270              		.cfi_restore 7
 271              		.cfi_def_cfa_offset 0
 272 0038 7047     		bx	lr
 273              	.L16:
 274 003a 00BF     		.align	2
 275              	.L15:
 276 003c 2C580040 		.word	1073764396
 277              		.cfi_endproc
 278              	.LFE4:
 279              		.size	IDAC8_1_SetSpeed, .-IDAC8_1_SetSpeed
 280              		.section	.text.IDAC8_1_SetPolarity,"ax",%progbits
 281              		.align	2
 282              		.global	IDAC8_1_SetPolarity
 283              		.thumb
 284              		.thumb_func
 285              		.type	IDAC8_1_SetPolarity, %function
 286              	IDAC8_1_SetPolarity:
 287              	.LFB5:
 224:Generated_Source\PSoC5/IDAC8_1.c **** 
 225:Generated_Source\PSoC5/IDAC8_1.c **** 
 226:Generated_Source\PSoC5/IDAC8_1.c **** /*******************************************************************************
ARM GAS  C:\Users\JEFFSN~1\AppData\Local\Temp\ccjGRBqo.s 			page 10


 227:Generated_Source\PSoC5/IDAC8_1.c **** * Function Name: IDAC8_1_SetPolarity
 228:Generated_Source\PSoC5/IDAC8_1.c **** ********************************************************************************
 229:Generated_Source\PSoC5/IDAC8_1.c **** * Summary:
 230:Generated_Source\PSoC5/IDAC8_1.c **** *  Sets IDAC to Sink or Source current.
 231:Generated_Source\PSoC5/IDAC8_1.c **** *  
 232:Generated_Source\PSoC5/IDAC8_1.c **** * Parameters:
 233:Generated_Source\PSoC5/IDAC8_1.c **** *  Polarity: Sets the IDAC to Sink or Source 
 234:Generated_Source\PSoC5/IDAC8_1.c **** *  0x00 - Source
 235:Generated_Source\PSoC5/IDAC8_1.c **** *  0x04 - Sink
 236:Generated_Source\PSoC5/IDAC8_1.c **** *
 237:Generated_Source\PSoC5/IDAC8_1.c **** * Return:
 238:Generated_Source\PSoC5/IDAC8_1.c **** *  (void)
 239:Generated_Source\PSoC5/IDAC8_1.c **** *
 240:Generated_Source\PSoC5/IDAC8_1.c **** * Theory:
 241:Generated_Source\PSoC5/IDAC8_1.c **** *
 242:Generated_Source\PSoC5/IDAC8_1.c **** * Side Effects:
 243:Generated_Source\PSoC5/IDAC8_1.c **** *
 244:Generated_Source\PSoC5/IDAC8_1.c **** *******************************************************************************/
 245:Generated_Source\PSoC5/IDAC8_1.c **** #if(IDAC8_1_DEFAULT_POLARITY != IDAC8_1_HARDWARE_CONTROLLED)
 246:Generated_Source\PSoC5/IDAC8_1.c ****     void IDAC8_1_SetPolarity(uint8 polarity) 
 247:Generated_Source\PSoC5/IDAC8_1.c ****     {
 288              		.loc 1 247 0
 289              		.cfi_startproc
 290              		@ args = 0, pretend = 0, frame = 8
 291              		@ frame_needed = 1, uses_anonymous_args = 0
 292 0000 80B5     		push	{r7, lr}
 293              		.cfi_def_cfa_offset 8
 294              		.cfi_offset 7, -8
 295              		.cfi_offset 14, -4
 296 0002 82B0     		sub	sp, sp, #8
 297              		.cfi_def_cfa_offset 16
 298 0004 00AF     		add	r7, sp, #0
 299              		.cfi_def_cfa_register 7
 300 0006 0346     		mov	r3, r0
 301 0008 FB71     		strb	r3, [r7, #7]
 248:Generated_Source\PSoC5/IDAC8_1.c ****         IDAC8_1_CR1 &= (uint8)(~IDAC8_1_IDIR_MASK);                /* clear polarity bit */
 302              		.loc 1 248 0
 303 000a 0C4A     		ldr	r2, .L18
 304 000c 0B4B     		ldr	r3, .L18
 305 000e 1B78     		ldrb	r3, [r3]
 306 0010 DBB2     		uxtb	r3, r3
 307 0012 23F00403 		bic	r3, r3, #4
 308 0016 DBB2     		uxtb	r3, r3
 309 0018 1370     		strb	r3, [r2]
 249:Generated_Source\PSoC5/IDAC8_1.c ****         IDAC8_1_CR1 |= (polarity & IDAC8_1_IDIR_MASK);             /* set new value */
 310              		.loc 1 249 0
 311 001a 0849     		ldr	r1, .L18
 312 001c 074B     		ldr	r3, .L18
 313 001e 1B78     		ldrb	r3, [r3]
 314 0020 DAB2     		uxtb	r2, r3
 315 0022 FB79     		ldrb	r3, [r7, #7]
 316 0024 03F00403 		and	r3, r3, #4
 317 0028 DBB2     		uxtb	r3, r3
 318 002a 1343     		orrs	r3, r3, r2
 319 002c DBB2     		uxtb	r3, r3
 320 002e 0B70     		strb	r3, [r1]
 250:Generated_Source\PSoC5/IDAC8_1.c ****     
ARM GAS  C:\Users\JEFFSN~1\AppData\Local\Temp\ccjGRBqo.s 			page 11


 251:Generated_Source\PSoC5/IDAC8_1.c ****         IDAC8_1_DacTrim();
 321              		.loc 1 251 0
 322 0030 FFF7FEFF 		bl	IDAC8_1_DacTrim
 252:Generated_Source\PSoC5/IDAC8_1.c ****     }
 323              		.loc 1 252 0
 324 0034 00BF     		nop
 325 0036 0837     		adds	r7, r7, #8
 326              		.cfi_def_cfa_offset 8
 327 0038 BD46     		mov	sp, r7
 328              		.cfi_def_cfa_register 13
 329              		@ sp needed
 330 003a 80BD     		pop	{r7, pc}
 331              	.L19:
 332              		.align	2
 333              	.L18:
 334 003c 2D580040 		.word	1073764397
 335              		.cfi_endproc
 336              	.LFE5:
 337              		.size	IDAC8_1_SetPolarity, .-IDAC8_1_SetPolarity
 338              		.section	.text.IDAC8_1_SetRange,"ax",%progbits
 339              		.align	2
 340              		.global	IDAC8_1_SetRange
 341              		.thumb
 342              		.thumb_func
 343              		.type	IDAC8_1_SetRange, %function
 344              	IDAC8_1_SetRange:
 345              	.LFB6:
 253:Generated_Source\PSoC5/IDAC8_1.c **** #endif/*(IDAC8_1_DEFAULT_POLARITY != IDAC8_1_HARDWARE_CONTROLLED)*/
 254:Generated_Source\PSoC5/IDAC8_1.c **** 
 255:Generated_Source\PSoC5/IDAC8_1.c **** 
 256:Generated_Source\PSoC5/IDAC8_1.c **** /*******************************************************************************
 257:Generated_Source\PSoC5/IDAC8_1.c **** * Function Name: IDAC8_1_SetRange
 258:Generated_Source\PSoC5/IDAC8_1.c **** ********************************************************************************
 259:Generated_Source\PSoC5/IDAC8_1.c **** * Summary:
 260:Generated_Source\PSoC5/IDAC8_1.c **** *  Set current range
 261:Generated_Source\PSoC5/IDAC8_1.c **** *
 262:Generated_Source\PSoC5/IDAC8_1.c **** * Parameters:
 263:Generated_Source\PSoC5/IDAC8_1.c **** *  Range: Sets on of four valid ranges.
 264:Generated_Source\PSoC5/IDAC8_1.c **** *
 265:Generated_Source\PSoC5/IDAC8_1.c **** * Return:
 266:Generated_Source\PSoC5/IDAC8_1.c **** *  (void)
 267:Generated_Source\PSoC5/IDAC8_1.c **** *
 268:Generated_Source\PSoC5/IDAC8_1.c **** * Theory:
 269:Generated_Source\PSoC5/IDAC8_1.c **** *
 270:Generated_Source\PSoC5/IDAC8_1.c **** * Side Effects:
 271:Generated_Source\PSoC5/IDAC8_1.c **** *
 272:Generated_Source\PSoC5/IDAC8_1.c **** *******************************************************************************/
 273:Generated_Source\PSoC5/IDAC8_1.c **** void IDAC8_1_SetRange(uint8 range) 
 274:Generated_Source\PSoC5/IDAC8_1.c **** {
 346              		.loc 1 274 0
 347              		.cfi_startproc
 348              		@ args = 0, pretend = 0, frame = 8
 349              		@ frame_needed = 1, uses_anonymous_args = 0
 350 0000 80B5     		push	{r7, lr}
 351              		.cfi_def_cfa_offset 8
 352              		.cfi_offset 7, -8
 353              		.cfi_offset 14, -4
ARM GAS  C:\Users\JEFFSN~1\AppData\Local\Temp\ccjGRBqo.s 			page 12


 354 0002 82B0     		sub	sp, sp, #8
 355              		.cfi_def_cfa_offset 16
 356 0004 00AF     		add	r7, sp, #0
 357              		.cfi_def_cfa_register 7
 358 0006 0346     		mov	r3, r0
 359 0008 FB71     		strb	r3, [r7, #7]
 275:Generated_Source\PSoC5/IDAC8_1.c ****     IDAC8_1_CR0 &= (uint8)(~IDAC8_1_RANGE_MASK);       /* Clear existing mode */
 360              		.loc 1 275 0
 361 000a 0C4A     		ldr	r2, .L21
 362 000c 0B4B     		ldr	r3, .L21
 363 000e 1B78     		ldrb	r3, [r3]
 364 0010 DBB2     		uxtb	r3, r3
 365 0012 23F00C03 		bic	r3, r3, #12
 366 0016 DBB2     		uxtb	r3, r3
 367 0018 1370     		strb	r3, [r2]
 276:Generated_Source\PSoC5/IDAC8_1.c ****     IDAC8_1_CR0 |= ( range & IDAC8_1_RANGE_MASK );     /*  Set Range  */
 368              		.loc 1 276 0
 369 001a 0849     		ldr	r1, .L21
 370 001c 074B     		ldr	r3, .L21
 371 001e 1B78     		ldrb	r3, [r3]
 372 0020 DAB2     		uxtb	r2, r3
 373 0022 FB79     		ldrb	r3, [r7, #7]
 374 0024 03F00C03 		and	r3, r3, #12
 375 0028 DBB2     		uxtb	r3, r3
 376 002a 1343     		orrs	r3, r3, r2
 377 002c DBB2     		uxtb	r3, r3
 378 002e 0B70     		strb	r3, [r1]
 277:Generated_Source\PSoC5/IDAC8_1.c ****     IDAC8_1_DacTrim();
 379              		.loc 1 277 0
 380 0030 FFF7FEFF 		bl	IDAC8_1_DacTrim
 278:Generated_Source\PSoC5/IDAC8_1.c **** }
 381              		.loc 1 278 0
 382 0034 00BF     		nop
 383 0036 0837     		adds	r7, r7, #8
 384              		.cfi_def_cfa_offset 8
 385 0038 BD46     		mov	sp, r7
 386              		.cfi_def_cfa_register 13
 387              		@ sp needed
 388 003a 80BD     		pop	{r7, pc}
 389              	.L22:
 390              		.align	2
 391              	.L21:
 392 003c 2C580040 		.word	1073764396
 393              		.cfi_endproc
 394              	.LFE6:
 395              		.size	IDAC8_1_SetRange, .-IDAC8_1_SetRange
 396              		.section	.text.IDAC8_1_SetValue,"ax",%progbits
 397              		.align	2
 398              		.global	IDAC8_1_SetValue
 399              		.thumb
 400              		.thumb_func
 401              		.type	IDAC8_1_SetValue, %function
 402              	IDAC8_1_SetValue:
 403              	.LFB7:
 279:Generated_Source\PSoC5/IDAC8_1.c **** 
 280:Generated_Source\PSoC5/IDAC8_1.c **** 
 281:Generated_Source\PSoC5/IDAC8_1.c **** /*******************************************************************************
ARM GAS  C:\Users\JEFFSN~1\AppData\Local\Temp\ccjGRBqo.s 			page 13


 282:Generated_Source\PSoC5/IDAC8_1.c **** * Function Name: IDAC8_1_SetValue
 283:Generated_Source\PSoC5/IDAC8_1.c **** ********************************************************************************
 284:Generated_Source\PSoC5/IDAC8_1.c **** * Summary:
 285:Generated_Source\PSoC5/IDAC8_1.c **** *  Set DAC value
 286:Generated_Source\PSoC5/IDAC8_1.c **** *
 287:Generated_Source\PSoC5/IDAC8_1.c **** * Parameters:
 288:Generated_Source\PSoC5/IDAC8_1.c **** *  value: Sets DAC value between 0 and 255.
 289:Generated_Source\PSoC5/IDAC8_1.c **** *
 290:Generated_Source\PSoC5/IDAC8_1.c **** * Return:
 291:Generated_Source\PSoC5/IDAC8_1.c **** *  (void)
 292:Generated_Source\PSoC5/IDAC8_1.c **** *
 293:Generated_Source\PSoC5/IDAC8_1.c **** * Theory:
 294:Generated_Source\PSoC5/IDAC8_1.c **** *
 295:Generated_Source\PSoC5/IDAC8_1.c **** * Side Effects:
 296:Generated_Source\PSoC5/IDAC8_1.c **** *
 297:Generated_Source\PSoC5/IDAC8_1.c **** *******************************************************************************/
 298:Generated_Source\PSoC5/IDAC8_1.c **** void IDAC8_1_SetValue(uint8 value) 
 299:Generated_Source\PSoC5/IDAC8_1.c **** {
 404              		.loc 1 299 0
 405              		.cfi_startproc
 406              		@ args = 0, pretend = 0, frame = 8
 407              		@ frame_needed = 1, uses_anonymous_args = 0
 408              		@ link register save eliminated.
 409 0000 80B4     		push	{r7}
 410              		.cfi_def_cfa_offset 4
 411              		.cfi_offset 7, -4
 412 0002 83B0     		sub	sp, sp, #12
 413              		.cfi_def_cfa_offset 16
 414 0004 00AF     		add	r7, sp, #0
 415              		.cfi_def_cfa_register 7
 416 0006 0346     		mov	r3, r0
 417 0008 FB71     		strb	r3, [r7, #7]
 300:Generated_Source\PSoC5/IDAC8_1.c **** 
 301:Generated_Source\PSoC5/IDAC8_1.c ****     #if (CY_PSOC5A)
 302:Generated_Source\PSoC5/IDAC8_1.c ****         uint8 IDAC8_1_intrStatus = CyEnterCriticalSection();
 303:Generated_Source\PSoC5/IDAC8_1.c ****     #endif /* CY_PSOC5A */
 304:Generated_Source\PSoC5/IDAC8_1.c **** 
 305:Generated_Source\PSoC5/IDAC8_1.c ****     IDAC8_1_Data = value;         /*  Set Value  */
 418              		.loc 1 305 0
 419 000a 044A     		ldr	r2, .L24
 420 000c FB79     		ldrb	r3, [r7, #7]
 421 000e 1370     		strb	r3, [r2]
 306:Generated_Source\PSoC5/IDAC8_1.c ****     
 307:Generated_Source\PSoC5/IDAC8_1.c ****     /* PSOC5A silicons require a double write */
 308:Generated_Source\PSoC5/IDAC8_1.c ****     #if (CY_PSOC5A)
 309:Generated_Source\PSoC5/IDAC8_1.c ****         IDAC8_1_Data = value;
 310:Generated_Source\PSoC5/IDAC8_1.c ****         CyExitCriticalSection(IDAC8_1_intrStatus);
 311:Generated_Source\PSoC5/IDAC8_1.c ****     #endif /* CY_PSOC5A */
 312:Generated_Source\PSoC5/IDAC8_1.c **** }
 422              		.loc 1 312 0
 423 0010 00BF     		nop
 424 0012 0C37     		adds	r7, r7, #12
 425              		.cfi_def_cfa_offset 4
 426 0014 BD46     		mov	sp, r7
 427              		.cfi_def_cfa_register 13
 428              		@ sp needed
 429 0016 80BC     		pop	{r7}
ARM GAS  C:\Users\JEFFSN~1\AppData\Local\Temp\ccjGRBqo.s 			page 14


 430              		.cfi_restore 7
 431              		.cfi_def_cfa_offset 0
 432 0018 7047     		bx	lr
 433              	.L25:
 434 001a 00BF     		.align	2
 435              	.L24:
 436 001c 835B0040 		.word	1073765251
 437              		.cfi_endproc
 438              	.LFE7:
 439              		.size	IDAC8_1_SetValue, .-IDAC8_1_SetValue
 440              		.section	.text.IDAC8_1_DacTrim,"ax",%progbits
 441              		.align	2
 442              		.global	IDAC8_1_DacTrim
 443              		.thumb
 444              		.thumb_func
 445              		.type	IDAC8_1_DacTrim, %function
 446              	IDAC8_1_DacTrim:
 447              	.LFB8:
 313:Generated_Source\PSoC5/IDAC8_1.c **** 
 314:Generated_Source\PSoC5/IDAC8_1.c **** 
 315:Generated_Source\PSoC5/IDAC8_1.c **** /*******************************************************************************
 316:Generated_Source\PSoC5/IDAC8_1.c **** * Function Name: IDAC8_1_DacTrim
 317:Generated_Source\PSoC5/IDAC8_1.c **** ********************************************************************************
 318:Generated_Source\PSoC5/IDAC8_1.c **** * Summary:
 319:Generated_Source\PSoC5/IDAC8_1.c **** *  Set the trim value for the given range.
 320:Generated_Source\PSoC5/IDAC8_1.c **** *
 321:Generated_Source\PSoC5/IDAC8_1.c **** * Parameters:
 322:Generated_Source\PSoC5/IDAC8_1.c **** *  None
 323:Generated_Source\PSoC5/IDAC8_1.c **** *
 324:Generated_Source\PSoC5/IDAC8_1.c **** * Return:
 325:Generated_Source\PSoC5/IDAC8_1.c **** *  (void) 
 326:Generated_Source\PSoC5/IDAC8_1.c **** *
 327:Generated_Source\PSoC5/IDAC8_1.c **** * Theory:
 328:Generated_Source\PSoC5/IDAC8_1.c **** *  Trim values for the IDAC blocks are stored in the "Customer Table" area in 
 329:Generated_Source\PSoC5/IDAC8_1.c **** *  Row 1 of the Hidden Flash.  There are 8 bytes of trim data for each 
 330:Generated_Source\PSoC5/IDAC8_1.c **** *  IDAC block.
 331:Generated_Source\PSoC5/IDAC8_1.c **** *  The values are:
 332:Generated_Source\PSoC5/IDAC8_1.c **** *       I Gain offset, min range, Sourcing
 333:Generated_Source\PSoC5/IDAC8_1.c **** *       I Gain offset, min range, Sinking
 334:Generated_Source\PSoC5/IDAC8_1.c **** *       I Gain offset, med range, Sourcing
 335:Generated_Source\PSoC5/IDAC8_1.c **** *       I Gain offset, med range, Sinking
 336:Generated_Source\PSoC5/IDAC8_1.c **** *       I Gain offset, max range, Sourcing
 337:Generated_Source\PSoC5/IDAC8_1.c **** *       I Gain offset, max range, Sinking
 338:Generated_Source\PSoC5/IDAC8_1.c **** *       V Gain offset, 1V range
 339:Generated_Source\PSoC5/IDAC8_1.c **** *       V Gain offset, 4V range
 340:Generated_Source\PSoC5/IDAC8_1.c **** *
 341:Generated_Source\PSoC5/IDAC8_1.c **** * Side Effects:
 342:Generated_Source\PSoC5/IDAC8_1.c **** *
 343:Generated_Source\PSoC5/IDAC8_1.c **** *******************************************************************************/
 344:Generated_Source\PSoC5/IDAC8_1.c **** void IDAC8_1_DacTrim(void) 
 345:Generated_Source\PSoC5/IDAC8_1.c **** {
 448              		.loc 1 345 0
 449              		.cfi_startproc
 450              		@ args = 0, pretend = 0, frame = 8
 451              		@ frame_needed = 1, uses_anonymous_args = 0
 452              		@ link register save eliminated.
 453 0000 80B4     		push	{r7}
ARM GAS  C:\Users\JEFFSN~1\AppData\Local\Temp\ccjGRBqo.s 			page 15


 454              		.cfi_def_cfa_offset 4
 455              		.cfi_offset 7, -4
 456 0002 83B0     		sub	sp, sp, #12
 457              		.cfi_def_cfa_offset 16
 458 0004 00AF     		add	r7, sp, #0
 459              		.cfi_def_cfa_register 7
 346:Generated_Source\PSoC5/IDAC8_1.c ****     uint8 mode;
 347:Generated_Source\PSoC5/IDAC8_1.c **** 
 348:Generated_Source\PSoC5/IDAC8_1.c ****     mode = ((IDAC8_1_CR0 & IDAC8_1_RANGE_MASK) >> 1u);
 460              		.loc 1 348 0
 461 0006 104B     		ldr	r3, .L28
 462 0008 1B78     		ldrb	r3, [r3]
 463 000a DBB2     		uxtb	r3, r3
 464 000c 03F00C03 		and	r3, r3, #12
 465 0010 5B08     		lsrs	r3, r3, #1
 466 0012 FB71     		strb	r3, [r7, #7]
 349:Generated_Source\PSoC5/IDAC8_1.c ****     
 350:Generated_Source\PSoC5/IDAC8_1.c ****     if((IDAC8_1_IDIR_MASK & IDAC8_1_CR1) == IDAC8_1_IDIR_SINK)
 467              		.loc 1 350 0
 468 0014 0D4B     		ldr	r3, .L28+4
 469 0016 1B78     		ldrb	r3, [r3]
 470 0018 DBB2     		uxtb	r3, r3
 471 001a 03F00403 		and	r3, r3, #4
 472 001e DBB2     		uxtb	r3, r3
 473 0020 002B     		cmp	r3, #0
 474 0022 02D0     		beq	.L27
 351:Generated_Source\PSoC5/IDAC8_1.c ****     {
 352:Generated_Source\PSoC5/IDAC8_1.c ****         mode++;
 475              		.loc 1 352 0
 476 0024 FB79     		ldrb	r3, [r7, #7]	@ zero_extendqisi2
 477 0026 0133     		adds	r3, r3, #1
 478 0028 FB71     		strb	r3, [r7, #7]
 479              	.L27:
 353:Generated_Source\PSoC5/IDAC8_1.c ****     }
 354:Generated_Source\PSoC5/IDAC8_1.c **** 
 355:Generated_Source\PSoC5/IDAC8_1.c ****     IDAC8_1_TR = CY_GET_XTND_REG8((uint8 *)(IDAC8_1_DAC_TRIM_BASE + mode));
 480              		.loc 1 355 0
 481 002a 094A     		ldr	r2, .L28+8
 482 002c FB79     		ldrb	r3, [r7, #7]	@ zero_extendqisi2
 483 002e 03F19243 		add	r3, r3, #1224736768
 484 0032 03F59C73 		add	r3, r3, #312
 485 0036 1B78     		ldrb	r3, [r3]
 486 0038 DBB2     		uxtb	r3, r3
 487 003a 1370     		strb	r3, [r2]
 356:Generated_Source\PSoC5/IDAC8_1.c **** }
 488              		.loc 1 356 0
 489 003c 00BF     		nop
 490 003e 0C37     		adds	r7, r7, #12
 491              		.cfi_def_cfa_offset 4
 492 0040 BD46     		mov	sp, r7
 493              		.cfi_def_cfa_register 13
 494              		@ sp needed
 495 0042 80BC     		pop	{r7}
 496              		.cfi_restore 7
 497              		.cfi_def_cfa_offset 0
 498 0044 7047     		bx	lr
 499              	.L29:
ARM GAS  C:\Users\JEFFSN~1\AppData\Local\Temp\ccjGRBqo.s 			page 16


 500 0046 00BF     		.align	2
 501              	.L28:
 502 0048 2C580040 		.word	1073764396
 503 004c 2D580040 		.word	1073764397
 504 0050 0B460040 		.word	1073759755
 505              		.cfi_endproc
 506              	.LFE8:
 507              		.size	IDAC8_1_DacTrim, .-IDAC8_1_DacTrim
 508              		.text
 509              	.Letext0:
 510              		.file 2 "Generated_Source\\PSoC5\\cytypes.h"