ARM GAS  C:\Users\JEFFSN~1\AppData\Local\Temp\cc6y8e16.s 			page 1


   1              		.syntax unified
   2              		.cpu cortex-m3
   3              		.fpu softvfp
   4              		.eabi_attribute 20, 1
   5              		.eabi_attribute 21, 1
   6              		.eabi_attribute 23, 3
   7              		.eabi_attribute 24, 1
   8              		.eabi_attribute 25, 1
   9              		.eabi_attribute 26, 1
  10              		.eabi_attribute 30, 6
  11              		.eabi_attribute 34, 1
  12              		.eabi_attribute 18, 4
  13              		.thumb
  14              		.syntax unified
  15              		.file	"main.c"
  16              		.text
  17              	.Ltext0:
  18              		.cfi_sections	.debug_frame
  19              		.comm	stringCapSensorsOnOff,1,4
  20              		.comm	stringCapSensorsRaw,16,4
  21              		.global	thresholdArray
  22              		.data
  23              		.align	2
  24              		.type	thresholdArray, %object
  25              		.size	thresholdArray, 10
  26              	thresholdArray:
  27 0000 0F       		.byte	15
  28 0001 0F       		.byte	15
  29 0002 0F       		.byte	15
  30 0003 0F       		.byte	15
  31 0004 0F       		.byte	15
  32 0005 0F       		.byte	15
  33 0006 0F       		.byte	15
  34 0007 0F       		.byte	15
  35 0008 0F       		.byte	15
  36 0009 0F       		.byte	15
  37              		.comm	myArray,32,4
  38              		.comm	linearPotValue32Bit,16,4
  39              		.global	i
  40              		.bss
  41              		.type	i, %object
  42              		.size	i, 1
  43              	i:
  44 0000 00       		.space	1
  45              		.global	counter
  46              		.type	counter, %object
  47              		.size	counter, 1
  48              	counter:
  49 0001 00       		.space	1
  50              		.comm	returnedData,32,4
  51              		.comm	temper,4,4
  52              		.comm	previousButtons,44,4
  53              		.global	octave
  54 0002 0000     		.align	2
  55              		.type	octave, %object
  56              		.size	octave, 4
  57              	octave:
ARM GAS  C:\Users\JEFFSN~1\AppData\Local\Temp\cc6y8e16.s 			page 2


  58 0004 00000000 		.space	4
  59              		.section	.text.button_press_ISR,"ax",%progbits
  60              		.align	2
  61              		.global	button_press_ISR
  62              		.thumb
  63              		.thumb_func
  64              		.type	button_press_ISR, %function
  65              	button_press_ISR:
  66              	.LFB64:
  67              		.file 1 "main.c"
   1:main.c        **** /*****************************************************************************
   2:main.c        **** * File Name: main.c
   3:main.c        **** *
   4:main.c        **** * Version: 3.0
   5:main.c        **** *
   6:main.c        **** * Description:
   7:main.c        **** *   
   8:main.c        **** * 
   9:main.c        **** * Note:
  10:main.c        **** * 	The main project includes the ADC and other components required for the
  11:main.c        **** *   temperature measurement. The Thermistor component is a complete firmware component
  12:main.c        **** *   as decribed in the component datahseet and application note
  13:main.c        **** ******************************************************************************
  14:main.c        **** * Copyright (C) 2015, Cypress Semiconductor Corporation.
  15:main.c        **** ******************************************************************************
  16:main.c        **** * This software is owned by Cypress Semiconductor Corporation (Cypress) and is
  17:main.c        **** * protected by and subject to worldwide patent protection (United States and
  18:main.c        **** * foreign), United States copyright laws and international treaty provisions.
  19:main.c        **** * Cypress hereby grants to licensee a personal, non-exclusive, non-transferable
  20:main.c        **** * license to copy, use, modify, create derivative works of, and compile the
  21:main.c        **** * Cypress Source Code and derivative works for the sole purpose of creating
  22:main.c        **** * custom software in support of licensee product to be used only in conjunction
  23:main.c        **** * with a Cypress integrated circuit as specified in the applicable agreement.
  24:main.c        **** * Any reproduction, modification, translation, compilation, or representation of
  25:main.c        **** * this software except as specified above is prohibited without the express
  26:main.c        **** * written permission of Cypress.
  27:main.c        **** *
  28:main.c        **** * Disclaimer: CYPRESS MAKES NO WARRANTY OF ANY KIND, EXPRESS OR IMPLIED, WITH
  29:main.c        **** * REGARD TO THIS MATERIAL, INCLUDING, BUT NOT LIMITED TO, THE IMPLIED
  30:main.c        **** * WARRANTIES OF MERCHANTABILITY AND FITNESS FOR A PARTICULAR PURPOSE.
  31:main.c        **** * Cypress reserves the right to make changes without further notice to the
  32:main.c        **** * materials described herein. Cypress does not assume any liability arising out
  33:main.c        **** * of the application or use of any product or circuit described herein. Cypress
  34:main.c        **** * does not authorize its products for use as critical components in life-support
  35:main.c        **** * systems where a malfunction or failure may reasonably be expected to result in
  36:main.c        **** * significant injury to the user. The inclusion of Cypress' product in a life-
  37:main.c        **** * support systems application implies that the manufacturer assumes all risk of
  38:main.c        **** * such use and in doing so indemnifies Cypress against all charges. Use may be
  39:main.c        **** * limited by and subject to the applicable Cypress software license agreement.
  40:main.c        **** *****************************************************************************/
  41:main.c        **** #include <device.h>
  42:main.c        **** #include "removeOffsetNoise.h"
  43:main.c        **** #include "measurement.h"
  44:main.c        **** #include <stdio.h>
  45:main.c        **** 
  46:main.c        **** #define myBufferSize 32
  47:main.c        **** #define REFERENCE_RESISTOR 20000
ARM GAS  C:\Users\JEFFSN~1\AppData\Local\Temp\cc6y8e16.s 			page 3


  48:main.c        **** 
  49:main.c        **** 
  50:main.c        **** uint8_t stringCapSensorsOnOff[1];
  51:main.c        **** uint8_t stringCapSensorsRaw[16];
  52:main.c        **** uint8_t thresholdArray[10] = {15, 15, 15, 15, 15, 15, 15, 15, 15, 15};
  53:main.c        **** uint8 myArray[myBufferSize];
  54:main.c        **** int32_t linearPotValue32Bit[4];
  55:main.c        **** uint8_t i = 0;
  56:main.c        **** uint8_t counter = 0;
  57:main.c        **** uint8_t returnedData[myBufferSize];
  58:main.c        **** int32_t temper;
  59:main.c        **** int previousButtons[11];
  60:main.c        **** int octave = 0;
  61:main.c        **** void scanLinearResistor(uint8_t channel);
  62:main.c        **** 
  63:main.c        **** 
  64:main.c        **** CY_ISR(button_press_ISR) {     /* No need to clear any interrupt source; interrupt component should
  68              		.loc 1 64 0
  69              		.cfi_startproc
  70              		@ args = 0, pretend = 0, frame = 0
  71              		@ frame_needed = 1, uses_anonymous_args = 0
  72              		@ link register save eliminated.
  73 0000 80B4     		push	{r7}
  74              		.cfi_def_cfa_offset 4
  75              		.cfi_offset 7, -4
  76 0002 00AF     		add	r7, sp, #0
  77              		.cfi_def_cfa_register 7
  65:main.c        ****  //FiltReg_Read(); 
  66:main.c        ****     //
  67:main.c        **** }
  78              		.loc 1 67 0
  79 0004 00BF     		nop
  80 0006 BD46     		mov	sp, r7
  81              		.cfi_def_cfa_register 13
  82              		@ sp needed
  83 0008 80BC     		pop	{r7}
  84              		.cfi_restore 7
  85              		.cfi_def_cfa_offset 0
  86 000a 7047     		bx	lr
  87              		.cfi_endproc
  88              	.LFE64:
  89              		.size	button_press_ISR, .-button_press_ISR
  90              		.comm	ADC_values,24,4
  91              		.section	.text.main,"ax",%progbits
  92              		.align	2
  93              		.global	main
  94              		.thumb
  95              		.thumb_func
  96              		.type	main, %function
  97              	main:
  98              	.LFB65:
  68:main.c        **** 
  69:main.c        **** uint16_t ADC_values[12];
  70:main.c        **** 
  71:main.c        **** int main(void)
  72:main.c        **** {
  99              		.loc 1 72 0
ARM GAS  C:\Users\JEFFSN~1\AppData\Local\Temp\cc6y8e16.s 			page 4


 100              		.cfi_startproc
 101              		@ args = 0, pretend = 0, frame = 40
 102              		@ frame_needed = 1, uses_anonymous_args = 0
 103 0000 80B5     		push	{r7, lr}
 104              		.cfi_def_cfa_offset 8
 105              		.cfi_offset 7, -8
 106              		.cfi_offset 14, -4
 107 0002 8AB0     		sub	sp, sp, #40
 108              		.cfi_def_cfa_offset 48
 109 0004 00AF     		add	r7, sp, #0
 110              		.cfi_def_cfa_register 7
  73:main.c        ****     
  74:main.c        **** 	char printBuf[16]={'\0'};
 111              		.loc 1 74 0
 112 0006 3B1D     		adds	r3, r7, #4
 113 0008 0022     		movs	r2, #0
 114 000a 1A60     		str	r2, [r3]
 115 000c 5A60     		str	r2, [r3, #4]
 116 000e 9A60     		str	r2, [r3, #8]
 117 0010 DA60     		str	r2, [r3, #12]
  75:main.c        **** 
  76:main.c        **** 
  77:main.c        **** 	CYGlobalIntEnable; 
 118              		.loc 1 77 0
 119              		.syntax unified
 120              	@ 77 "main.c" 1
 121 0012 62B6     		CPSIE   i
 122              	@ 0 "" 2
  78:main.c        **** 	ADC_1_Start();
 123              		.loc 1 78 0
 124              		.thumb
 125              		.syntax unified
 126 0014 FFF7FEFF 		bl	ADC_1_Start
  79:main.c        **** 	AMux_1_Start();
 127              		.loc 1 79 0
 128 0018 FFF7FEFF 		bl	AMux_1_Start
  80:main.c        **** 
  81:main.c        **** 
  82:main.c        ****     SPIM_1_Start();
 129              		.loc 1 82 0
 130 001c FFF7FEFF 		bl	SPIM_1_Start
  83:main.c        ****     SPIM_1_Start();
 131              		.loc 1 83 0
 132 0020 FFF7FEFF 		bl	SPIM_1_Start
  84:main.c        ****     Opamp_1_Start();
 133              		.loc 1 84 0
 134 0024 FFF7FEFF 		bl	Opamp_1_Start
  85:main.c        ****     Opamp_2_Start();
 135              		.loc 1 85 0
 136 0028 FFF7FEFF 		bl	Opamp_2_Start
  86:main.c        ****     Opamp_1_Sleep();
 137              		.loc 1 86 0
 138 002c FFF7FEFF 		bl	Opamp_1_Sleep
  87:main.c        **** 
  88:main.c        ****    // VDAC8_1_Start();
  89:main.c        ****    // VDAC8_2_Start();
  90:main.c        ****     
ARM GAS  C:\Users\JEFFSN~1\AppData\Local\Temp\cc6y8e16.s 			page 5


  91:main.c        ****     CapSense_Start();     
 139              		.loc 1 91 0
 140 0030 FFF7FEFF 		bl	CapSense_Start
  92:main.c        ****     
  93:main.c        ****     CyDelay(500);
 141              		.loc 1 93 0
 142 0034 4FF4FA70 		mov	r0, #500
 143 0038 FFF7FEFF 		bl	CyDelay
  94:main.c        ****     CapSense_InitializeAllBaselines();
 144              		.loc 1 94 0
 145 003c FFF7FEFF 		bl	CapSense_InitializeAllBaselines
  95:main.c        ****     uint8_t myArrayCounter = 0;
 146              		.loc 1 95 0
 147 0040 0023     		movs	r3, #0
 148 0042 87F82330 		strb	r3, [r7, #35]
  96:main.c        ****     
  97:main.c        ****     CapSense_ScanEnabledWidgets();  
 149              		.loc 1 97 0
 150 0046 FFF7FEFF 		bl	CapSense_ScanEnabledWidgets
 151              	.L14:
 152              	.LBB2:
  98:main.c        **** 
  99:main.c        **** 
 100:main.c        **** 	for(;;)
 101:main.c        ****     {
 102:main.c        ****         CapSense_ClearSensors();
 153              		.loc 1 102 0
 154 004a FFF7FEFF 		bl	CapSense_ClearSensors
 103:main.c        ****         
 104:main.c        ****         for (i = 0; i < 2; i++)
 155              		.loc 1 104 0
 156 004e 714B     		ldr	r3, .L15
 157 0050 0022     		movs	r2, #0
 158 0052 1A70     		strb	r2, [r3]
 159 0054 0AE0     		b	.L3
 160              	.L4:
 105:main.c        ****         {
 106:main.c        ****            scanLinearResistor(i);
 161              		.loc 1 106 0 discriminator 3
 162 0056 6F4B     		ldr	r3, .L15
 163 0058 1B78     		ldrb	r3, [r3]	@ zero_extendqisi2
 164 005a 1846     		mov	r0, r3
 165 005c FFF7FEFF 		bl	scanLinearResistor
 104:main.c        ****         {
 166              		.loc 1 104 0 discriminator 3
 167 0060 6C4B     		ldr	r3, .L15
 168 0062 1B78     		ldrb	r3, [r3]	@ zero_extendqisi2
 169 0064 0133     		adds	r3, r3, #1
 170 0066 DAB2     		uxtb	r2, r3
 171 0068 6A4B     		ldr	r3, .L15
 172 006a 1A70     		strb	r2, [r3]
 173              	.L3:
 104:main.c        ****         {
 174              		.loc 1 104 0 is_stmt 0 discriminator 1
 175 006c 694B     		ldr	r3, .L15
 176 006e 1B78     		ldrb	r3, [r3]	@ zero_extendqisi2
 177 0070 012B     		cmp	r3, #1
ARM GAS  C:\Users\JEFFSN~1\AppData\Local\Temp\cc6y8e16.s 			page 6


 178 0072 F0D9     		bls	.L4
 107:main.c        ****         }
 108:main.c        **** 
 109:main.c        ****         uint8_t byteCounter = 0;
 179              		.loc 1 109 0 is_stmt 1
 180 0074 0023     		movs	r3, #0
 181 0076 87F82230 		strb	r3, [r7, #34]
 110:main.c        **** 
 111:main.c        ****         CapSense_UpdateEnabledBaselines();
 182              		.loc 1 111 0
 183 007a FFF7FEFF 		bl	CapSense_UpdateEnabledBaselines
 112:main.c        ****         CapSense_ScanEnabledWidgets();  
 184              		.loc 1 112 0
 185 007e FFF7FEFF 		bl	CapSense_ScanEnabledWidgets
 113:main.c        ****         
 114:main.c        ****         int isSensorOn1 = (CapSense_sensorRaw[0] - CapSense_sensorBaseline[0]) > thresholdArray[0];
 186              		.loc 1 114 0
 187 0082 654B     		ldr	r3, .L15+4
 188 0084 1B88     		ldrh	r3, [r3]
 189 0086 1A46     		mov	r2, r3
 190 0088 644B     		ldr	r3, .L15+8
 191 008a 1B88     		ldrh	r3, [r3]
 192 008c D31A     		subs	r3, r2, r3
 193 008e 644A     		ldr	r2, .L15+12
 194 0090 1278     		ldrb	r2, [r2]	@ zero_extendqisi2
 195 0092 9342     		cmp	r3, r2
 196 0094 CCBF     		ite	gt
 197 0096 0123     		movgt	r3, #1
 198 0098 0023     		movle	r3, #0
 199 009a DBB2     		uxtb	r3, r3
 200 009c FB61     		str	r3, [r7, #28]
 115:main.c        ****         if (isSensorOn1)
 116:main.c        ****         {
 117:main.c        ****             //LED_1_Write(1);
 118:main.c        ****         }
 119:main.c        ****         else
 120:main.c        ****         {
 121:main.c        ****             //LED_1_Write(0);
 122:main.c        ****         }
 123:main.c        **** 
 124:main.c        ****         counter = 0;
 201              		.loc 1 124 0
 202 009e 614B     		ldr	r3, .L15+16
 203 00a0 0022     		movs	r2, #0
 204 00a2 1A70     		strb	r2, [r3]
 125:main.c        ****         
 126:main.c        ****         for (i = 0; i < 2; i++)
 205              		.loc 1 126 0
 206 00a4 5B4B     		ldr	r3, .L15
 207 00a6 0022     		movs	r2, #0
 208 00a8 1A70     		strb	r2, [r3]
 209 00aa 26E0     		b	.L5
 210              	.L6:
 127:main.c        ****         {
 128:main.c        ****             myArray[counter++] = ((uint16_t) linearPotValue32Bit[i]) >> 8;
 211              		.loc 1 128 0 discriminator 3
 212 00ac 5D4B     		ldr	r3, .L15+16
ARM GAS  C:\Users\JEFFSN~1\AppData\Local\Temp\cc6y8e16.s 			page 7


 213 00ae 1B78     		ldrb	r3, [r3]	@ zero_extendqisi2
 214 00b0 5A1C     		adds	r2, r3, #1
 215 00b2 D1B2     		uxtb	r1, r2
 216 00b4 5B4A     		ldr	r2, .L15+16
 217 00b6 1170     		strb	r1, [r2]
 218 00b8 1A46     		mov	r2, r3
 219 00ba 564B     		ldr	r3, .L15
 220 00bc 1B78     		ldrb	r3, [r3]	@ zero_extendqisi2
 221 00be 1946     		mov	r1, r3
 222 00c0 594B     		ldr	r3, .L15+20
 223 00c2 53F82130 		ldr	r3, [r3, r1, lsl #2]
 224 00c6 1B12     		asrs	r3, r3, #8
 225 00c8 D9B2     		uxtb	r1, r3
 226 00ca 584B     		ldr	r3, .L15+24
 227 00cc 9954     		strb	r1, [r3, r2]
 129:main.c        ****             myArray[counter++] = linearPotValue32Bit[i] & 0xff;
 228              		.loc 1 129 0 discriminator 3
 229 00ce 554B     		ldr	r3, .L15+16
 230 00d0 1B78     		ldrb	r3, [r3]	@ zero_extendqisi2
 231 00d2 5A1C     		adds	r2, r3, #1
 232 00d4 D1B2     		uxtb	r1, r2
 233 00d6 534A     		ldr	r2, .L15+16
 234 00d8 1170     		strb	r1, [r2]
 235 00da 1A46     		mov	r2, r3
 236 00dc 4D4B     		ldr	r3, .L15
 237 00de 1B78     		ldrb	r3, [r3]	@ zero_extendqisi2
 238 00e0 1946     		mov	r1, r3
 239 00e2 514B     		ldr	r3, .L15+20
 240 00e4 53F82130 		ldr	r3, [r3, r1, lsl #2]
 241 00e8 D9B2     		uxtb	r1, r3
 242 00ea 504B     		ldr	r3, .L15+24
 243 00ec 9954     		strb	r1, [r3, r2]
 126:main.c        ****         {
 244              		.loc 1 126 0 discriminator 3
 245 00ee 494B     		ldr	r3, .L15
 246 00f0 1B78     		ldrb	r3, [r3]	@ zero_extendqisi2
 247 00f2 0133     		adds	r3, r3, #1
 248 00f4 DAB2     		uxtb	r2, r3
 249 00f6 474B     		ldr	r3, .L15
 250 00f8 1A70     		strb	r2, [r3]
 251              	.L5:
 126:main.c        ****         {
 252              		.loc 1 126 0 is_stmt 0 discriminator 1
 253 00fa 464B     		ldr	r3, .L15
 254 00fc 1B78     		ldrb	r3, [r3]	@ zero_extendqisi2
 255 00fe 012B     		cmp	r3, #1
 256 0100 D4D9     		bls	.L6
 130:main.c        ****         }
 131:main.c        **** 
 132:main.c        **** 
 133:main.c        **** 
 134:main.c        ****         
 135:main.c        ****         myArray[4] = 0;
 257              		.loc 1 135 0 is_stmt 1
 258 0102 4A4B     		ldr	r3, .L15+24
 259 0104 0022     		movs	r2, #0
 260 0106 1A71     		strb	r2, [r3, #4]
ARM GAS  C:\Users\JEFFSN~1\AppData\Local\Temp\cc6y8e16.s 			page 8


 136:main.c        ****         myArray[5] = 0;
 261              		.loc 1 136 0
 262 0108 484B     		ldr	r3, .L15+24
 263 010a 0022     		movs	r2, #0
 264 010c 5A71     		strb	r2, [r3, #5]
 137:main.c        ****         //int octButtons = Status_Reg_1_Read();
 138:main.c        ****         //int currentButtons[11];
 139:main.c        ****         
 140:main.c        ****         //for (i = 0; i < 4; i++)
 141:main.c        ****         //{
 142:main.c        ****            //currentButtons[i] = ((octButtons >> i) & 1);
 143:main.c        ****            // if ((previousButtons[i] == 1) &&  (currentButtons[i] == 0))
 144:main.c        ****             //{
 145:main.c        ****            //     octave = i;
 146:main.c        ****             //}
 147:main.c        ****           //  previousButtons[i] = currentButtons[i];
 148:main.c        ****         //}
 149:main.c        ****         //int fretButtons = Status_Reg_2_Read();
 150:main.c        ****         
 151:main.c        **** 
 152:main.c        ****         
 153:main.c        **** 
 154:main.c        ****         
 155:main.c        ****         
 156:main.c        ****         while(CapSense_IsBusy() != 0)  
 265              		.loc 1 156 0
 266 010e 00BF     		nop
 267              	.L7:
 268              		.loc 1 156 0 is_stmt 0 discriminator 1
 269 0110 FFF7FEFF 		bl	CapSense_IsBusy
 270 0114 0346     		mov	r3, r0
 271 0116 002B     		cmp	r3, #0
 272 0118 FAD1     		bne	.L7
 157:main.c        ****         {
 158:main.c        ****             ;//wait until scan is complete
 159:main.c        ****         }  
 160:main.c        ****         for (i = 0; i < 8; i++)
 273              		.loc 1 160 0 is_stmt 1
 274 011a 3E4B     		ldr	r3, .L15
 275 011c 0022     		movs	r2, #0
 276 011e 1A70     		strb	r2, [r3]
 277 0120 2CE0     		b	.L8
 278              	.L9:
 279              	.LBB3:
 161:main.c        ****         {
 162:main.c        ****            int isSensorOn = (CapSense_sensorRaw[i] - CapSense_sensorBaseline[i]) > thresholdArray[i
 280              		.loc 1 162 0 discriminator 3
 281 0122 3C4B     		ldr	r3, .L15
 282 0124 1B78     		ldrb	r3, [r3]	@ zero_extendqisi2
 283 0126 1A46     		mov	r2, r3
 284 0128 3B4B     		ldr	r3, .L15+4
 285 012a 33F81230 		ldrh	r3, [r3, r2, lsl #1]
 286 012e 1A46     		mov	r2, r3
 287 0130 384B     		ldr	r3, .L15
 288 0132 1B78     		ldrb	r3, [r3]	@ zero_extendqisi2
 289 0134 1946     		mov	r1, r3
 290 0136 394B     		ldr	r3, .L15+8
ARM GAS  C:\Users\JEFFSN~1\AppData\Local\Temp\cc6y8e16.s 			page 9


 291 0138 33F81130 		ldrh	r3, [r3, r1, lsl #1]
 292 013c D31A     		subs	r3, r2, r3
 293 013e 354A     		ldr	r2, .L15
 294 0140 1278     		ldrb	r2, [r2]	@ zero_extendqisi2
 295 0142 1146     		mov	r1, r2
 296 0144 364A     		ldr	r2, .L15+12
 297 0146 525C     		ldrb	r2, [r2, r1]	@ zero_extendqisi2
 298 0148 9342     		cmp	r3, r2
 299 014a CCBF     		ite	gt
 300 014c 0123     		movgt	r3, #1
 301 014e 0023     		movle	r3, #0
 302 0150 DBB2     		uxtb	r3, r3
 303 0152 BB61     		str	r3, [r7, #24]
 163:main.c        ****             myArray[4] |= (isSensorOn << i);
 304              		.loc 1 163 0 discriminator 3
 305 0154 354B     		ldr	r3, .L15+24
 306 0156 1B79     		ldrb	r3, [r3, #4]	@ zero_extendqisi2
 307 0158 5AB2     		sxtb	r2, r3
 308 015a 2E4B     		ldr	r3, .L15
 309 015c 1B78     		ldrb	r3, [r3]	@ zero_extendqisi2
 310 015e 1946     		mov	r1, r3
 311 0160 BB69     		ldr	r3, [r7, #24]
 312 0162 8B40     		lsls	r3, r3, r1
 313 0164 5BB2     		sxtb	r3, r3
 314 0166 1343     		orrs	r3, r3, r2
 315 0168 5BB2     		sxtb	r3, r3
 316 016a DAB2     		uxtb	r2, r3
 317 016c 2F4B     		ldr	r3, .L15+24
 318 016e 1A71     		strb	r2, [r3, #4]
 319              	.LBE3:
 160:main.c        ****         {
 320              		.loc 1 160 0 discriminator 3
 321 0170 284B     		ldr	r3, .L15
 322 0172 1B78     		ldrb	r3, [r3]	@ zero_extendqisi2
 323 0174 0133     		adds	r3, r3, #1
 324 0176 DAB2     		uxtb	r2, r3
 325 0178 264B     		ldr	r3, .L15
 326 017a 1A70     		strb	r2, [r3]
 327              	.L8:
 160:main.c        ****         {
 328              		.loc 1 160 0 is_stmt 0 discriminator 1
 329 017c 254B     		ldr	r3, .L15
 330 017e 1B78     		ldrb	r3, [r3]	@ zero_extendqisi2
 331 0180 072B     		cmp	r3, #7
 332 0182 CED9     		bls	.L9
 164:main.c        ****         }
 165:main.c        ****         for (i = 8; i < 10; i++)
 333              		.loc 1 165 0 is_stmt 1
 334 0184 234B     		ldr	r3, .L15
 335 0186 0822     		movs	r2, #8
 336 0188 1A70     		strb	r2, [r3]
 337 018a 2DE0     		b	.L10
 338              	.L11:
 339              	.LBB4:
 166:main.c        ****         {
 167:main.c        ****            int isSensorOn = (CapSense_sensorRaw[i] - CapSense_sensorBaseline[i]) > thresholdArray[i
 340              		.loc 1 167 0 discriminator 3
ARM GAS  C:\Users\JEFFSN~1\AppData\Local\Temp\cc6y8e16.s 			page 10


 341 018c 214B     		ldr	r3, .L15
 342 018e 1B78     		ldrb	r3, [r3]	@ zero_extendqisi2
 343 0190 1A46     		mov	r2, r3
 344 0192 214B     		ldr	r3, .L15+4
 345 0194 33F81230 		ldrh	r3, [r3, r2, lsl #1]
 346 0198 1A46     		mov	r2, r3
 347 019a 1E4B     		ldr	r3, .L15
 348 019c 1B78     		ldrb	r3, [r3]	@ zero_extendqisi2
 349 019e 1946     		mov	r1, r3
 350 01a0 1E4B     		ldr	r3, .L15+8
 351 01a2 33F81130 		ldrh	r3, [r3, r1, lsl #1]
 352 01a6 D31A     		subs	r3, r2, r3
 353 01a8 1A4A     		ldr	r2, .L15
 354 01aa 1278     		ldrb	r2, [r2]	@ zero_extendqisi2
 355 01ac 1146     		mov	r1, r2
 356 01ae 1C4A     		ldr	r2, .L15+12
 357 01b0 525C     		ldrb	r2, [r2, r1]	@ zero_extendqisi2
 358 01b2 9342     		cmp	r3, r2
 359 01b4 CCBF     		ite	gt
 360 01b6 0123     		movgt	r3, #1
 361 01b8 0023     		movle	r3, #0
 362 01ba DBB2     		uxtb	r3, r3
 363 01bc 7B61     		str	r3, [r7, #20]
 168:main.c        ****             myArray[5] |= (isSensorOn << (i - 8));
 364              		.loc 1 168 0 discriminator 3
 365 01be 1B4B     		ldr	r3, .L15+24
 366 01c0 5B79     		ldrb	r3, [r3, #5]	@ zero_extendqisi2
 367 01c2 5AB2     		sxtb	r2, r3
 368 01c4 134B     		ldr	r3, .L15
 369 01c6 1B78     		ldrb	r3, [r3]	@ zero_extendqisi2
 370 01c8 083B     		subs	r3, r3, #8
 371 01ca 7969     		ldr	r1, [r7, #20]
 372 01cc 01FA03F3 		lsl	r3, r1, r3
 373 01d0 5BB2     		sxtb	r3, r3
 374 01d2 1343     		orrs	r3, r3, r2
 375 01d4 5BB2     		sxtb	r3, r3
 376 01d6 DAB2     		uxtb	r2, r3
 377 01d8 144B     		ldr	r3, .L15+24
 378 01da 5A71     		strb	r2, [r3, #5]
 379              	.LBE4:
 165:main.c        ****         {
 380              		.loc 1 165 0 discriminator 3
 381 01dc 0D4B     		ldr	r3, .L15
 382 01de 1B78     		ldrb	r3, [r3]	@ zero_extendqisi2
 383 01e0 0133     		adds	r3, r3, #1
 384 01e2 DAB2     		uxtb	r2, r3
 385 01e4 0B4B     		ldr	r3, .L15
 386 01e6 1A70     		strb	r2, [r3]
 387              	.L10:
 165:main.c        ****         {
 388              		.loc 1 165 0 is_stmt 0 discriminator 1
 389 01e8 0A4B     		ldr	r3, .L15
 390 01ea 1B78     		ldrb	r3, [r3]	@ zero_extendqisi2
 391 01ec 092B     		cmp	r3, #9
 392 01ee CDD9     		bls	.L11
 393              	.LBB5:
 169:main.c        ****         }
ARM GAS  C:\Users\JEFFSN~1\AppData\Local\Temp\cc6y8e16.s 			page 11


 170:main.c        ****         
 171:main.c        ****         //send data over SPI to Genera boards
 172:main.c        ****          for (int i = 0; i < myBufferSize; i++)
 394              		.loc 1 172 0 is_stmt 1
 395 01f0 0023     		movs	r3, #0
 396 01f2 7B62     		str	r3, [r7, #36]
 397 01f4 09E0     		b	.L12
 398              	.L13:
 173:main.c        ****         {         
 174:main.c        **** 
 175:main.c        ****             SPIM_1_WriteTxData(myArray[i]);
 399              		.loc 1 175 0 discriminator 3
 400 01f6 0D4A     		ldr	r2, .L15+24
 401 01f8 7B6A     		ldr	r3, [r7, #36]
 402 01fa 1344     		add	r3, r3, r2
 403 01fc 1B78     		ldrb	r3, [r3]	@ zero_extendqisi2
 404 01fe 1846     		mov	r0, r3
 405 0200 FFF7FEFF 		bl	SPIM_1_WriteTxData
 172:main.c        ****         {         
 406              		.loc 1 172 0 discriminator 3
 407 0204 7B6A     		ldr	r3, [r7, #36]
 408 0206 0133     		adds	r3, r3, #1
 409 0208 7B62     		str	r3, [r7, #36]
 410              	.L12:
 172:main.c        ****         {         
 411              		.loc 1 172 0 is_stmt 0 discriminator 1
 412 020a 7B6A     		ldr	r3, [r7, #36]
 413 020c 1F2B     		cmp	r3, #31
 414 020e F2DD     		ble	.L13
 415              	.LBE5:
 416              	.LBE2:
 176:main.c        ****             /*
 177:main.c        ****             if ((SPIM_1_RX_STATUS_REG & SPIM_1_STS_RX_FIFO_NOT_EMPTY))
 178:main.c        ****             {
 179:main.c        ****                 returnedData[i] = CY_GET_REG8(SPIM_1_RXDATA_PTR);
 180:main.c        ****             }
 181:main.c        ****             */
 182:main.c        ****         }
 183:main.c        ****         
 184:main.c        ****         /*
 185:main.c        ****         //fill end of array with data from Genera 1 to send to Genera 2 
 186:main.c        ****         for (int i = 0; i < 7; i++)
 187:main.c        ****         {
 188:main.c        ****             myArray[i + 9] = returnedData[i];
 189:main.c        ****         }
 190:main.c        ****         */
 191:main.c        ****         //send and receive data over SPI from Genera 2
 192:main.c        ****         //for (int i = 0; i < myBufferSize; i++)
 193:main.c        ****         //{    
 194:main.c        **** 
 195:main.c        ****             //SPIS_1_WriteTxData(myArray[i]);
 196:main.c        ****             //if ((SPIM_2_RX_STATUS_REG & SPIM_2_STS_RX_FIFO_NOT_EMPTY))
 197:main.c        ****             //{
 198:main.c        ****            //     returnedData[i] = CY_GET_REG8(SPIM_2_RXDATA_PTR);
 199:main.c        ****            // }
 200:main.c        ****         //}
 201:main.c        ****         /*
ARM GAS  C:\Users\JEFFSN~1\AppData\Local\Temp\cc6y8e16.s 			page 12


 202:main.c        ****         //fill end of array with data from Genera 2 to send to Genera 1 
 203:main.c        ****         for (int i = 0; i < 7; i++)
 204:main.c        ****         {
 205:main.c        ****             myArray[i + 9] = returnedData[i];
 206:main.c        ****         }
 207:main.c        ****         */
 208:main.c        ****         
 209:main.c        ****         /*
 210:main.c        ****         if ((EZI2C_GetActivity() & EZI2C_STATUS_BUSY) == 0)
 211:main.c        ****         {
 212:main.c        ****            for (uint8_t i = 0; i < 16; i++)
 213:main.c        ****             {
 214:main.c        ****                 myArray[i] = stringCapSensorsRaw[i];
 215:main.c        ****             }
 216:main.c        ****             myArray[16] = CapSense_sensorOnMask[0];
 217:main.c        ****             
 218:main.c        ****             counter = 17;
 219:main.c        ****             for (i = 0; i < 4; i++)
 220:main.c        ****             {
 221:main.c        ****                 myArray[counter++] = ((uint16_t) linearPotValue32Bit[i]) >> 8;
 222:main.c        ****                 myArray[counter++] = linearPotValue32Bit[i] & 0xff;
 223:main.c        ****             }
 224:main.c        ****         }
 225:main.c        ****         */
 226:main.c        ****         
 227:main.c        ****      }
 417              		.loc 1 227 0 is_stmt 1
 418 0210 1BE7     		b	.L14
 419              	.L16:
 420 0212 00BF     		.align	2
 421              	.L15:
 422 0214 00000000 		.word	i
 423 0218 00000000 		.word	CapSense_sensorRaw
 424 021c 00000000 		.word	CapSense_sensorBaseline
 425 0220 00000000 		.word	thresholdArray
 426 0224 00000000 		.word	counter
 427 0228 00000000 		.word	linearPotValue32Bit
 428 022c 00000000 		.word	myArray
 429              		.cfi_endproc
 430              	.LFE65:
 431              		.size	main, .-main
 432              		.global	__aeabi_i2f
 433              		.global	__aeabi_fdiv
 434              		.global	__aeabi_fmul
 435              		.global	__aeabi_f2iz
 436              		.section	.text.scanLinearResistor,"ax",%progbits
 437              		.align	2
 438              		.global	scanLinearResistor
 439              		.thumb
 440              		.thumb_func
 441              		.type	scanLinearResistor, %function
 442              	scanLinearResistor:
 443              	.LFB66:
 228:main.c        **** }
 229:main.c        **** 
 230:main.c        **** void scanLinearResistor(uint8_t channel)
 231:main.c        **** {  
ARM GAS  C:\Users\JEFFSN~1\AppData\Local\Temp\cc6y8e16.s 			page 13


 444              		.loc 1 231 0
 445              		.cfi_startproc
 446              		@ args = 0, pretend = 0, frame = 24
 447              		@ frame_needed = 1, uses_anonymous_args = 0
 448 0000 90B5     		push	{r4, r7, lr}
 449              		.cfi_def_cfa_offset 12
 450              		.cfi_offset 4, -12
 451              		.cfi_offset 7, -8
 452              		.cfi_offset 14, -4
 453 0002 87B0     		sub	sp, sp, #28
 454              		.cfi_def_cfa_offset 40
 455 0004 00AF     		add	r7, sp, #0
 456              		.cfi_def_cfa_register 7
 457 0006 0346     		mov	r3, r0
 458 0008 FB71     		strb	r3, [r7, #7]
 232:main.c        ****         int32 iVtherm = 0;
 459              		.loc 1 232 0
 460 000a 0023     		movs	r3, #0
 461 000c 3B61     		str	r3, [r7, #16]
 233:main.c        ****         int32 iVref = 0;
 462              		.loc 1 233 0
 463 000e 0023     		movs	r3, #0
 464 0010 FB60     		str	r3, [r7, #12]
 234:main.c        ****         int32 iRes = 0;
 465              		.loc 1 234 0
 466 0012 0023     		movs	r3, #0
 467 0014 7B61     		str	r3, [r7, #20]
 235:main.c        ****         int32 offset = 0;
 468              		.loc 1 235 0
 469 0016 0023     		movs	r3, #0
 470 0018 BB60     		str	r3, [r7, #8]
 236:main.c        ****         
 237:main.c        ****         //select the high/low pins
 238:main.c        ****         if (channel == 0)
 471              		.loc 1 238 0
 472 001a FB79     		ldrb	r3, [r7, #7]	@ zero_extendqisi2
 473 001c 002B     		cmp	r3, #0
 474 001e 04D1     		bne	.L18
 239:main.c        ****         {
 240:main.c        ****             Opamp_2_Sleep();
 475              		.loc 1 240 0
 476 0020 FFF7FEFF 		bl	Opamp_2_Sleep
 241:main.c        ****             Opamp_1_Wakeup();
 477              		.loc 1 241 0
 478 0024 FFF7FEFF 		bl	Opamp_1_Wakeup
 479 0028 03E0     		b	.L19
 480              	.L18:
 242:main.c        ****         }
 243:main.c        ****         else
 244:main.c        ****         {   
 245:main.c        ****             Opamp_1_Sleep();
 481              		.loc 1 245 0
 482 002a FFF7FEFF 		bl	Opamp_1_Sleep
 246:main.c        ****             Opamp_2_Wakeup();
 483              		.loc 1 246 0
 484 002e FFF7FEFF 		bl	Opamp_2_Wakeup
 485              	.L19:
ARM GAS  C:\Users\JEFFSN~1\AppData\Local\Temp\cc6y8e16.s 			page 14


 247:main.c        ****         }
 248:main.c        ****     
 249:main.c        ****         //select the wiper pins
 250:main.c        ****         AMux_1_FastSelect(channel * 2);
 486              		.loc 1 250 0
 487 0032 FB79     		ldrb	r3, [r7, #7]
 488 0034 5B00     		lsls	r3, r3, #1
 489 0036 DBB2     		uxtb	r3, r3
 490 0038 1846     		mov	r0, r3
 491 003a FFF7FEFF 		bl	AMux_1_FastSelect
 251:main.c        ****         ADC_1_StartConvert();
 492              		.loc 1 251 0
 493 003e FFF7FEFF 		bl	ADC_1_StartConvert
 252:main.c        ****         ADC_1_IsEndConversion(ADC_1_WAIT_FOR_RESULT);
 494              		.loc 1 252 0
 495 0042 0020     		movs	r0, #0
 496 0044 FFF7FEFF 		bl	ADC_1_IsEndConversion
 253:main.c        ****         iVtherm = ADC_1_GetResult32();
 497              		.loc 1 253 0
 498 0048 FFF7FEFF 		bl	ADC_1_GetResult32
 499 004c 3861     		str	r0, [r7, #16]
 254:main.c        ****         
 255:main.c        ****         	/* Get the offset voltage*/
 256:main.c        **** 	    AMux_1_FastSelect(4);
 500              		.loc 1 256 0
 501 004e 0420     		movs	r0, #4
 502 0050 FFF7FEFF 		bl	AMux_1_FastSelect
 257:main.c        ****         ADC_1_StartConvert();
 503              		.loc 1 257 0
 504 0054 FFF7FEFF 		bl	ADC_1_StartConvert
 258:main.c        ****         ADC_1_IsEndConversion(ADC_1_WAIT_FOR_RESULT);
 505              		.loc 1 258 0
 506 0058 0020     		movs	r0, #0
 507 005a FFF7FEFF 		bl	ADC_1_IsEndConversion
 259:main.c        ****         offset = ADC_1_GetResult32();
 508              		.loc 1 259 0
 509 005e FFF7FEFF 		bl	ADC_1_GetResult32
 510 0062 B860     		str	r0, [r7, #8]
 260:main.c        ****         
 261:main.c        ****         iVtherm =  iVtherm - offset;
 511              		.loc 1 261 0
 512 0064 3A69     		ldr	r2, [r7, #16]
 513 0066 BB68     		ldr	r3, [r7, #8]
 514 0068 D31A     		subs	r3, r2, r3
 515 006a 3B61     		str	r3, [r7, #16]
 262:main.c        **** 	
 263:main.c        ****         AMux_1_FastSelect((channel * 2) + 1);
 516              		.loc 1 263 0
 517 006c FB79     		ldrb	r3, [r7, #7]
 518 006e 5B00     		lsls	r3, r3, #1
 519 0070 DBB2     		uxtb	r3, r3
 520 0072 0133     		adds	r3, r3, #1
 521 0074 DBB2     		uxtb	r3, r3
 522 0076 1846     		mov	r0, r3
 523 0078 FFF7FEFF 		bl	AMux_1_FastSelect
 264:main.c        ****         ADC_1_StartConvert();
 524              		.loc 1 264 0
ARM GAS  C:\Users\JEFFSN~1\AppData\Local\Temp\cc6y8e16.s 			page 15


 525 007c FFF7FEFF 		bl	ADC_1_StartConvert
 265:main.c        ****         ADC_1_IsEndConversion(ADC_1_WAIT_FOR_RESULT);
 526              		.loc 1 265 0
 527 0080 0020     		movs	r0, #0
 528 0082 FFF7FEFF 		bl	ADC_1_IsEndConversion
 266:main.c        ****         iVref = ADC_1_GetResult32();
 529              		.loc 1 266 0
 530 0086 FFF7FEFF 		bl	ADC_1_GetResult32
 531 008a F860     		str	r0, [r7, #12]
 267:main.c        ****         
 268:main.c        ****         iVref =  iVref - offset;
 532              		.loc 1 268 0
 533 008c FA68     		ldr	r2, [r7, #12]
 534 008e BB68     		ldr	r3, [r7, #8]
 535 0090 D31A     		subs	r3, r2, r3
 536 0092 FB60     		str	r3, [r7, #12]
 269:main.c        ****         
 270:main.c        ****         //iRes = Thermistor_GetResistance(iVtherm, iVref); //check if more efficient than my versio
 271:main.c        ****         if ((iVref > 10000) && (iVtherm < 100))
 537              		.loc 1 271 0
 538 0094 FB68     		ldr	r3, [r7, #12]
 539 0096 42F21072 		movw	r2, #10000
 540 009a 9342     		cmp	r3, r2
 541 009c 06DD     		ble	.L20
 542              		.loc 1 271 0 is_stmt 0 discriminator 1
 543 009e 3B69     		ldr	r3, [r7, #16]
 544 00a0 632B     		cmp	r3, #99
 545 00a2 03DC     		bgt	.L20
 272:main.c        ****         {
 273:main.c        ****             iRes = 65535;
 546              		.loc 1 273 0 is_stmt 1
 547 00a4 4FF6FF73 		movw	r3, #65535
 548 00a8 7B61     		str	r3, [r7, #20]
 549 00aa 16E0     		b	.L21
 550              	.L20:
 274:main.c        ****         }
 275:main.c        ****         else
 276:main.c        ****         
 277:main.c        ****         {
 278:main.c        ****             iRes = (int32)(((float)iVref / iVtherm) * REFERENCE_RESISTOR);
 551              		.loc 1 278 0
 552 00ac F868     		ldr	r0, [r7, #12]
 553 00ae FFF7FEFF 		bl	__aeabi_i2f
 554 00b2 0446     		mov	r4, r0
 555 00b4 3869     		ldr	r0, [r7, #16]
 556 00b6 FFF7FEFF 		bl	__aeabi_i2f
 557 00ba 0346     		mov	r3, r0
 558 00bc 1946     		mov	r1, r3
 559 00be 2046     		mov	r0, r4
 560 00c0 FFF7FEFF 		bl	__aeabi_fdiv
 561 00c4 0346     		mov	r3, r0
 562 00c6 0949     		ldr	r1, .L22
 563 00c8 1846     		mov	r0, r3
 564 00ca FFF7FEFF 		bl	__aeabi_fmul
 565 00ce 0346     		mov	r3, r0
 566 00d0 1846     		mov	r0, r3
 567 00d2 FFF7FEFF 		bl	__aeabi_f2iz
ARM GAS  C:\Users\JEFFSN~1\AppData\Local\Temp\cc6y8e16.s 			page 16


 568 00d6 0346     		mov	r3, r0
 569 00d8 7B61     		str	r3, [r7, #20]
 570              	.L21:
 279:main.c        ****         }
 280:main.c        ****         
 281:main.c        ****         linearPotValue32Bit[channel] = iRes;
 571              		.loc 1 281 0
 572 00da FB79     		ldrb	r3, [r7, #7]	@ zero_extendqisi2
 573 00dc 0449     		ldr	r1, .L22+4
 574 00de 7A69     		ldr	r2, [r7, #20]
 575 00e0 41F82320 		str	r2, [r1, r3, lsl #2]
 282:main.c        **** }
 576              		.loc 1 282 0
 577 00e4 00BF     		nop
 578 00e6 1C37     		adds	r7, r7, #28
 579              		.cfi_def_cfa_offset 12
 580 00e8 BD46     		mov	sp, r7
 581              		.cfi_def_cfa_register 13
 582              		@ sp needed
 583 00ea 90BD     		pop	{r4, r7, pc}
 584              	.L23:
 585              		.align	2
 586              	.L22:
 587 00ec 00409C46 		.word	1184645120
 588 00f0 00000000 		.word	linearPotValue32Bit
 589              		.cfi_endproc
 590              	.LFE66:
 591              		.size	scanLinearResistor, .-scanLinearResistor
 592              		.text
 593              	.Letext0:
 594              		.file 2 "c:\\program files (x86)\\cypress\\psoc creator\\4.4\\psoc creator\\import\\gnu\\arm\\5.4.
 595              		.file 3 "c:\\program files (x86)\\cypress\\psoc creator\\4.4\\psoc creator\\import\\gnu\\arm\\5.4.
 596              		.file 4 "Generated_Source\\PSoC5/cytypes.h"
 597              		.file 5 "Generated_Source\\PSoC5/CapSense.h"
 598              		.file 6 "Generated_Source\\PSoC5/CapSense_CSHL.h"
 599              		.file 7 "Generated_Source\\PSoC5/core_cm3.h"