ARM GAS  C:\Users\JEFFSN~1\AppData\Local\Temp\cch5Y03s.s 			page 1


   1              		.syntax unified
   2              		.cpu cortex-m3
   3              		.fpu softvfp
   4              		.eabi_attribute 20, 1
   5              		.eabi_attribute 21, 1
   6              		.eabi_attribute 23, 3
   7              		.eabi_attribute 24, 1
   8              		.eabi_attribute 25, 1
   9              		.eabi_attribute 26, 1
  10              		.eabi_attribute 30, 6
  11              		.eabi_attribute 34, 1
  12              		.eabi_attribute 18, 4
  13              		.thumb
  14              		.syntax unified
  15              		.file	"cyfitter_cfg.c"
  16              		.text
  17              	.Ltext0:
  18              		.cfi_sections	.debug_frame
  19              		.section	.text.CYMEMZERO,"ax",%progbits
  20              		.align	2
  21              		.thumb
  22              		.thumb_func
  23              		.type	CYMEMZERO, %function
  24              	CYMEMZERO:
  25              	.LFB0:
  26              		.file 1 "Generated_Source\\PSoC5\\cyfitter_cfg.c"
   1:Generated_Source\PSoC5/cyfitter_cfg.c **** 
   2:Generated_Source\PSoC5/cyfitter_cfg.c **** /*******************************************************************************
   3:Generated_Source\PSoC5/cyfitter_cfg.c **** * File Name: cyfitter_cfg.c
   4:Generated_Source\PSoC5/cyfitter_cfg.c **** * 
   5:Generated_Source\PSoC5/cyfitter_cfg.c **** * PSoC Creator  4.4
   6:Generated_Source\PSoC5/cyfitter_cfg.c **** *
   7:Generated_Source\PSoC5/cyfitter_cfg.c **** * Description:
   8:Generated_Source\PSoC5/cyfitter_cfg.c **** * This file contains device initialization code.
   9:Generated_Source\PSoC5/cyfitter_cfg.c **** * Except for the user defined sections in CyClockStartupError(), this file should not be modified.
  10:Generated_Source\PSoC5/cyfitter_cfg.c **** * This file is automatically generated by PSoC Creator.
  11:Generated_Source\PSoC5/cyfitter_cfg.c **** *
  12:Generated_Source\PSoC5/cyfitter_cfg.c **** ********************************************************************************
  13:Generated_Source\PSoC5/cyfitter_cfg.c **** * Copyright (c) 2007-2020 Cypress Semiconductor.  All rights reserved.
  14:Generated_Source\PSoC5/cyfitter_cfg.c **** * You may use this file only in accordance with the license, terms, conditions, 
  15:Generated_Source\PSoC5/cyfitter_cfg.c **** * disclaimers, and limitations in the end user license agreement accompanying 
  16:Generated_Source\PSoC5/cyfitter_cfg.c **** * the software package with which this file was provided.
  17:Generated_Source\PSoC5/cyfitter_cfg.c **** ********************************************************************************/
  18:Generated_Source\PSoC5/cyfitter_cfg.c **** 
  19:Generated_Source\PSoC5/cyfitter_cfg.c **** #include <string.h>
  20:Generated_Source\PSoC5/cyfitter_cfg.c **** #include "cytypes.h"
  21:Generated_Source\PSoC5/cyfitter_cfg.c **** #include "cydevice_trm.h"
  22:Generated_Source\PSoC5/cyfitter_cfg.c **** #include "cyfitter.h"
  23:Generated_Source\PSoC5/cyfitter_cfg.c **** #include "CyLib.h"
  24:Generated_Source\PSoC5/cyfitter_cfg.c **** #include "cyfitter_cfg.h"
  25:Generated_Source\PSoC5/cyfitter_cfg.c **** 
  26:Generated_Source\PSoC5/cyfitter_cfg.c **** #define CY_NEED_CYCLOCKSTARTUPERROR 1
  27:Generated_Source\PSoC5/cyfitter_cfg.c **** 
  28:Generated_Source\PSoC5/cyfitter_cfg.c **** 
  29:Generated_Source\PSoC5/cyfitter_cfg.c **** #if defined(__GNUC__) || defined(__ARMCC_VERSION)
  30:Generated_Source\PSoC5/cyfitter_cfg.c ****     #define CYPACKED 
  31:Generated_Source\PSoC5/cyfitter_cfg.c ****     #define CYPACKED_ATTR __attribute__ ((packed))
ARM GAS  C:\Users\JEFFSN~1\AppData\Local\Temp\cch5Y03s.s 			page 2


  32:Generated_Source\PSoC5/cyfitter_cfg.c ****     #define CYALIGNED __attribute__ ((aligned))
  33:Generated_Source\PSoC5/cyfitter_cfg.c ****     #define CY_CFG_UNUSED __attribute__ ((unused))
  34:Generated_Source\PSoC5/cyfitter_cfg.c ****     #ifndef CY_CFG_SECTION
  35:Generated_Source\PSoC5/cyfitter_cfg.c ****         #define CY_CFG_SECTION __attribute__ ((section(".psocinit")))
  36:Generated_Source\PSoC5/cyfitter_cfg.c ****     #endif
  37:Generated_Source\PSoC5/cyfitter_cfg.c ****     
  38:Generated_Source\PSoC5/cyfitter_cfg.c ****     #if defined(__ARMCC_VERSION)
  39:Generated_Source\PSoC5/cyfitter_cfg.c ****         #define CY_CFG_MEMORY_BARRIER() __memory_changed()
  40:Generated_Source\PSoC5/cyfitter_cfg.c ****     #else
  41:Generated_Source\PSoC5/cyfitter_cfg.c ****         #define CY_CFG_MEMORY_BARRIER() __sync_synchronize()
  42:Generated_Source\PSoC5/cyfitter_cfg.c ****     #endif
  43:Generated_Source\PSoC5/cyfitter_cfg.c ****     
  44:Generated_Source\PSoC5/cyfitter_cfg.c **** #elif defined(__ICCARM__)
  45:Generated_Source\PSoC5/cyfitter_cfg.c ****     #include <intrinsics.h>
  46:Generated_Source\PSoC5/cyfitter_cfg.c **** 
  47:Generated_Source\PSoC5/cyfitter_cfg.c ****     #define CYPACKED __packed
  48:Generated_Source\PSoC5/cyfitter_cfg.c ****     #define CYPACKED_ATTR 
  49:Generated_Source\PSoC5/cyfitter_cfg.c ****     #define CYALIGNED _Pragma("data_alignment=4")
  50:Generated_Source\PSoC5/cyfitter_cfg.c ****     #define CY_CFG_UNUSED _Pragma("diag_suppress=Pe177")
  51:Generated_Source\PSoC5/cyfitter_cfg.c ****     #define CY_CFG_SECTION _Pragma("location=\".psocinit\"")
  52:Generated_Source\PSoC5/cyfitter_cfg.c ****     
  53:Generated_Source\PSoC5/cyfitter_cfg.c ****     #define CY_CFG_MEMORY_BARRIER() __DMB()
  54:Generated_Source\PSoC5/cyfitter_cfg.c ****     
  55:Generated_Source\PSoC5/cyfitter_cfg.c **** #else
  56:Generated_Source\PSoC5/cyfitter_cfg.c ****     #error Unsupported toolchain
  57:Generated_Source\PSoC5/cyfitter_cfg.c **** #endif
  58:Generated_Source\PSoC5/cyfitter_cfg.c **** 
  59:Generated_Source\PSoC5/cyfitter_cfg.c **** #ifndef CYCODE
  60:Generated_Source\PSoC5/cyfitter_cfg.c ****     #define CYCODE
  61:Generated_Source\PSoC5/cyfitter_cfg.c **** #endif
  62:Generated_Source\PSoC5/cyfitter_cfg.c **** #ifndef CYDATA
  63:Generated_Source\PSoC5/cyfitter_cfg.c ****     #define CYDATA
  64:Generated_Source\PSoC5/cyfitter_cfg.c **** #endif
  65:Generated_Source\PSoC5/cyfitter_cfg.c **** #ifndef CYFAR
  66:Generated_Source\PSoC5/cyfitter_cfg.c ****     #define CYFAR
  67:Generated_Source\PSoC5/cyfitter_cfg.c **** #endif
  68:Generated_Source\PSoC5/cyfitter_cfg.c **** #ifndef CYXDATA
  69:Generated_Source\PSoC5/cyfitter_cfg.c ****     #define CYXDATA
  70:Generated_Source\PSoC5/cyfitter_cfg.c **** #endif
  71:Generated_Source\PSoC5/cyfitter_cfg.c **** 
  72:Generated_Source\PSoC5/cyfitter_cfg.c **** #if defined(__ARMCC_VERSION)
  73:Generated_Source\PSoC5/cyfitter_cfg.c ****     extern unsigned int Load$$LR$$CYCONFIGECC$$Base;
  74:Generated_Source\PSoC5/cyfitter_cfg.c ****     #pragma diag_suppress 170,1296
  75:Generated_Source\PSoC5/cyfitter_cfg.c ****     #define CYDEV_ECC_VIRT_BASE 0x80000000
  76:Generated_Source\PSoC5/cyfitter_cfg.c ****     #define CYAPP_ECC_OFFSET ((uint32)&Load$$LR$$CYCONFIGECC$$Base - CYDEV_ECC_VIRT_BASE)
  77:Generated_Source\PSoC5/cyfitter_cfg.c **** #elif defined (__GNUC__) || defined (__ICCARM__)
  78:Generated_Source\PSoC5/cyfitter_cfg.c ****     extern int CY_ECC_OFFSET;
  79:Generated_Source\PSoC5/cyfitter_cfg.c ****     #define CYAPP_ECC_OFFSET ((uint32)&CY_ECC_OFFSET)
  80:Generated_Source\PSoC5/cyfitter_cfg.c **** #endif
  81:Generated_Source\PSoC5/cyfitter_cfg.c **** 
  82:Generated_Source\PSoC5/cyfitter_cfg.c **** CY_CFG_UNUSED
  83:Generated_Source\PSoC5/cyfitter_cfg.c **** static void CYMEMZERO(void *s, size_t n);
  84:Generated_Source\PSoC5/cyfitter_cfg.c **** CY_CFG_UNUSED
  85:Generated_Source\PSoC5/cyfitter_cfg.c **** static void CYMEMZERO(void *s, size_t n)
  86:Generated_Source\PSoC5/cyfitter_cfg.c **** {
  27              		.loc 1 86 0
  28              		.cfi_startproc
ARM GAS  C:\Users\JEFFSN~1\AppData\Local\Temp\cch5Y03s.s 			page 3


  29              		@ args = 0, pretend = 0, frame = 8
  30              		@ frame_needed = 1, uses_anonymous_args = 0
  31 0000 80B5     		push	{r7, lr}
  32              		.cfi_def_cfa_offset 8
  33              		.cfi_offset 7, -8
  34              		.cfi_offset 14, -4
  35 0002 82B0     		sub	sp, sp, #8
  36              		.cfi_def_cfa_offset 16
  37 0004 00AF     		add	r7, sp, #0
  38              		.cfi_def_cfa_register 7
  39 0006 7860     		str	r0, [r7, #4]
  40 0008 3960     		str	r1, [r7]
  87:Generated_Source\PSoC5/cyfitter_cfg.c **** 	(void)memset(s, 0, n);
  41              		.loc 1 87 0
  42 000a 3A68     		ldr	r2, [r7]
  43 000c 0021     		movs	r1, #0
  44 000e 7868     		ldr	r0, [r7, #4]
  45 0010 FFF7FEFF 		bl	memset
  88:Generated_Source\PSoC5/cyfitter_cfg.c **** }
  46              		.loc 1 88 0
  47 0014 00BF     		nop
  48 0016 0837     		adds	r7, r7, #8
  49              		.cfi_def_cfa_offset 8
  50 0018 BD46     		mov	sp, r7
  51              		.cfi_def_cfa_register 13
  52              		@ sp needed
  53 001a 80BD     		pop	{r7, pc}
  54              		.cfi_endproc
  55              	.LFE0:
  56              		.size	CYMEMZERO, .-CYMEMZERO
  57              		.section	.text.CYCONFIGCPY,"ax",%progbits
  58              		.align	2
  59              		.thumb
  60              		.thumb_func
  61              		.type	CYCONFIGCPY, %function
  62              	CYCONFIGCPY:
  63              	.LFB1:
  89:Generated_Source\PSoC5/cyfitter_cfg.c **** CY_CFG_UNUSED
  90:Generated_Source\PSoC5/cyfitter_cfg.c **** static void CYCONFIGCPY(void *dest, const void *src, size_t n);
  91:Generated_Source\PSoC5/cyfitter_cfg.c **** CY_CFG_UNUSED
  92:Generated_Source\PSoC5/cyfitter_cfg.c **** static void CYCONFIGCPY(void *dest, const void *src, size_t n)
  93:Generated_Source\PSoC5/cyfitter_cfg.c **** {
  64              		.loc 1 93 0
  65              		.cfi_startproc
  66              		@ args = 0, pretend = 0, frame = 16
  67              		@ frame_needed = 1, uses_anonymous_args = 0
  68 0000 80B5     		push	{r7, lr}
  69              		.cfi_def_cfa_offset 8
  70              		.cfi_offset 7, -8
  71              		.cfi_offset 14, -4
  72 0002 84B0     		sub	sp, sp, #16
  73              		.cfi_def_cfa_offset 24
  74 0004 00AF     		add	r7, sp, #0
  75              		.cfi_def_cfa_register 7
  76 0006 F860     		str	r0, [r7, #12]
  77 0008 B960     		str	r1, [r7, #8]
  78 000a 7A60     		str	r2, [r7, #4]
ARM GAS  C:\Users\JEFFSN~1\AppData\Local\Temp\cch5Y03s.s 			page 4


  94:Generated_Source\PSoC5/cyfitter_cfg.c **** 	(void)memcpy(dest, src, n);
  79              		.loc 1 94 0
  80 000c 7A68     		ldr	r2, [r7, #4]
  81 000e B968     		ldr	r1, [r7, #8]
  82 0010 F868     		ldr	r0, [r7, #12]
  83 0012 FFF7FEFF 		bl	memcpy
  95:Generated_Source\PSoC5/cyfitter_cfg.c **** }
  84              		.loc 1 95 0
  85 0016 00BF     		nop
  86 0018 1037     		adds	r7, r7, #16
  87              		.cfi_def_cfa_offset 8
  88 001a BD46     		mov	sp, r7
  89              		.cfi_def_cfa_register 13
  90              		@ sp needed
  91 001c 80BD     		pop	{r7, pc}
  92              		.cfi_endproc
  93              	.LFE1:
  94              		.size	CYCONFIGCPY, .-CYCONFIGCPY
  95 001e 00BF     		.section	.text.CYCONFIGCPYCODE,"ax",%progbits
  96              		.align	2
  97              		.thumb
  98              		.thumb_func
  99              		.type	CYCONFIGCPYCODE, %function
 100              	CYCONFIGCPYCODE:
 101              	.LFB2:
  96:Generated_Source\PSoC5/cyfitter_cfg.c **** CY_CFG_UNUSED
  97:Generated_Source\PSoC5/cyfitter_cfg.c **** static void CYCONFIGCPYCODE(void *dest, const void *src, size_t n);
  98:Generated_Source\PSoC5/cyfitter_cfg.c **** CY_CFG_UNUSED
  99:Generated_Source\PSoC5/cyfitter_cfg.c **** static void CYCONFIGCPYCODE(void *dest, const void *src, size_t n)
 100:Generated_Source\PSoC5/cyfitter_cfg.c **** {
 102              		.loc 1 100 0
 103              		.cfi_startproc
 104              		@ args = 0, pretend = 0, frame = 16
 105              		@ frame_needed = 1, uses_anonymous_args = 0
 106 0000 80B5     		push	{r7, lr}
 107              		.cfi_def_cfa_offset 8
 108              		.cfi_offset 7, -8
 109              		.cfi_offset 14, -4
 110 0002 84B0     		sub	sp, sp, #16
 111              		.cfi_def_cfa_offset 24
 112 0004 00AF     		add	r7, sp, #0
 113              		.cfi_def_cfa_register 7
 114 0006 F860     		str	r0, [r7, #12]
 115 0008 B960     		str	r1, [r7, #8]
 116 000a 7A60     		str	r2, [r7, #4]
 101:Generated_Source\PSoC5/cyfitter_cfg.c **** 	(void)memcpy(dest, src, n);
 117              		.loc 1 101 0
 118 000c 7A68     		ldr	r2, [r7, #4]
 119 000e B968     		ldr	r1, [r7, #8]
 120 0010 F868     		ldr	r0, [r7, #12]
 121 0012 FFF7FEFF 		bl	memcpy
 102:Generated_Source\PSoC5/cyfitter_cfg.c **** }
 122              		.loc 1 102 0
 123 0016 00BF     		nop
 124 0018 1037     		adds	r7, r7, #16
 125              		.cfi_def_cfa_offset 8
 126 001a BD46     		mov	sp, r7
ARM GAS  C:\Users\JEFFSN~1\AppData\Local\Temp\cch5Y03s.s 			page 5


 127              		.cfi_def_cfa_register 13
 128              		@ sp needed
 129 001c 80BD     		pop	{r7, pc}
 130              		.cfi_endproc
 131              	.LFE2:
 132              		.size	CYCONFIGCPYCODE, .-CYCONFIGCPYCODE
 133 001e 00BF     		.section	.text.CyClockStartupError,"ax",%progbits
 134              		.align	2
 135              		.thumb
 136              		.thumb_func
 137              		.type	CyClockStartupError, %function
 138              	CyClockStartupError:
 139              	.LFB3:
 103:Generated_Source\PSoC5/cyfitter_cfg.c **** 
 104:Generated_Source\PSoC5/cyfitter_cfg.c **** 
 105:Generated_Source\PSoC5/cyfitter_cfg.c **** 
 106:Generated_Source\PSoC5/cyfitter_cfg.c **** 
 107:Generated_Source\PSoC5/cyfitter_cfg.c **** /* Clock startup error codes                                                   */
 108:Generated_Source\PSoC5/cyfitter_cfg.c **** #define CYCLOCKSTART_NO_ERROR    0u
 109:Generated_Source\PSoC5/cyfitter_cfg.c **** #define CYCLOCKSTART_XTAL_ERROR  1u
 110:Generated_Source\PSoC5/cyfitter_cfg.c **** #define CYCLOCKSTART_32KHZ_ERROR 2u
 111:Generated_Source\PSoC5/cyfitter_cfg.c **** #define CYCLOCKSTART_PLL_ERROR   3u
 112:Generated_Source\PSoC5/cyfitter_cfg.c **** #define CYCLOCKSTART_FLL_ERROR   4u
 113:Generated_Source\PSoC5/cyfitter_cfg.c **** #define CYCLOCKSTART_WCO_ERROR   5u
 114:Generated_Source\PSoC5/cyfitter_cfg.c **** 
 115:Generated_Source\PSoC5/cyfitter_cfg.c **** 
 116:Generated_Source\PSoC5/cyfitter_cfg.c **** #ifdef CY_NEED_CYCLOCKSTARTUPERROR
 117:Generated_Source\PSoC5/cyfitter_cfg.c **** /*******************************************************************************
 118:Generated_Source\PSoC5/cyfitter_cfg.c **** * Function Name: CyClockStartupError
 119:Generated_Source\PSoC5/cyfitter_cfg.c **** ********************************************************************************
 120:Generated_Source\PSoC5/cyfitter_cfg.c **** * Summary:
 121:Generated_Source\PSoC5/cyfitter_cfg.c **** *  If an error is encountered during clock configuration (crystal startup error,
 122:Generated_Source\PSoC5/cyfitter_cfg.c **** *  PLL lock error, etc.), the system will end up here.  Unless reimplemented by
 123:Generated_Source\PSoC5/cyfitter_cfg.c **** *  the customer, this function will stop in an infinite loop.
 124:Generated_Source\PSoC5/cyfitter_cfg.c **** *
 125:Generated_Source\PSoC5/cyfitter_cfg.c **** * Parameters:
 126:Generated_Source\PSoC5/cyfitter_cfg.c **** *   void
 127:Generated_Source\PSoC5/cyfitter_cfg.c **** *
 128:Generated_Source\PSoC5/cyfitter_cfg.c **** * Return:
 129:Generated_Source\PSoC5/cyfitter_cfg.c **** *   void
 130:Generated_Source\PSoC5/cyfitter_cfg.c **** *
 131:Generated_Source\PSoC5/cyfitter_cfg.c **** *******************************************************************************/
 132:Generated_Source\PSoC5/cyfitter_cfg.c **** CY_CFG_UNUSED
 133:Generated_Source\PSoC5/cyfitter_cfg.c **** static void CyClockStartupError(uint8 errorCode);
 134:Generated_Source\PSoC5/cyfitter_cfg.c **** CY_CFG_UNUSED
 135:Generated_Source\PSoC5/cyfitter_cfg.c **** static void CyClockStartupError(uint8 errorCode)
 136:Generated_Source\PSoC5/cyfitter_cfg.c **** {
 140              		.loc 1 136 0
 141              		.cfi_startproc
 142              		@ args = 0, pretend = 0, frame = 8
 143              		@ frame_needed = 1, uses_anonymous_args = 0
 144              		@ link register save eliminated.
 145 0000 80B4     		push	{r7}
 146              		.cfi_def_cfa_offset 4
 147              		.cfi_offset 7, -4
 148 0002 83B0     		sub	sp, sp, #12
 149              		.cfi_def_cfa_offset 16
ARM GAS  C:\Users\JEFFSN~1\AppData\Local\Temp\cch5Y03s.s 			page 6


 150 0004 00AF     		add	r7, sp, #0
 151              		.cfi_def_cfa_register 7
 152 0006 0346     		mov	r3, r0
 153 0008 FB71     		strb	r3, [r7, #7]
 154              	.L5:
 137:Generated_Source\PSoC5/cyfitter_cfg.c ****     /* To remove the compiler warning if errorCode not used.                */
 138:Generated_Source\PSoC5/cyfitter_cfg.c ****     errorCode = errorCode;
 139:Generated_Source\PSoC5/cyfitter_cfg.c **** 
 140:Generated_Source\PSoC5/cyfitter_cfg.c ****     /* If we have a clock startup error (bad MHz crystal, PLL lock, etc.),  */
 141:Generated_Source\PSoC5/cyfitter_cfg.c ****     /* we will end up here to allow the customer to implement something to  */
 142:Generated_Source\PSoC5/cyfitter_cfg.c ****     /* deal with the clock condition.                                       */
 143:Generated_Source\PSoC5/cyfitter_cfg.c **** 
 144:Generated_Source\PSoC5/cyfitter_cfg.c **** #ifdef CY_CFG_CLOCK_STARTUP_ERROR_CALLBACK
 145:Generated_Source\PSoC5/cyfitter_cfg.c ****     CY_CFG_Clock_Startup_ErrorCallback();
 146:Generated_Source\PSoC5/cyfitter_cfg.c **** #else
 147:Generated_Source\PSoC5/cyfitter_cfg.c ****     /*  If not using CY_CFG_CLOCK_STARTUP_ERROR_CALLBACK, place your clock startup code here. */
 148:Generated_Source\PSoC5/cyfitter_cfg.c ****     /* `#START CyClockStartupError` */
 149:Generated_Source\PSoC5/cyfitter_cfg.c **** 
 150:Generated_Source\PSoC5/cyfitter_cfg.c **** 
 151:Generated_Source\PSoC5/cyfitter_cfg.c **** 
 152:Generated_Source\PSoC5/cyfitter_cfg.c ****     /* `#END` */
 153:Generated_Source\PSoC5/cyfitter_cfg.c **** 
 154:Generated_Source\PSoC5/cyfitter_cfg.c ****     while(1) {}
 155              		.loc 1 154 0 discriminator 1
 156 000a FEE7     		b	.L5
 157              		.cfi_endproc
 158              	.LFE3:
 159              		.size	CyClockStartupError, .-CyClockStartupError
 160              		.section	.text.ClockSetup,"ax",%progbits
 161              		.align	2
 162              		.thumb
 163              		.thumb_func
 164              		.type	ClockSetup, %function
 165              	ClockSetup:
 166              	.LFB4:
 155:Generated_Source\PSoC5/cyfitter_cfg.c **** #endif /* CY_CFG_CLOCK_STARTUP_ERROR_CALLBACK */
 156:Generated_Source\PSoC5/cyfitter_cfg.c **** }
 157:Generated_Source\PSoC5/cyfitter_cfg.c **** #endif
 158:Generated_Source\PSoC5/cyfitter_cfg.c **** 
 159:Generated_Source\PSoC5/cyfitter_cfg.c **** /* IDMUX Address: CYREG_IDMUX_DRQ_CTL0 Size (bytes): 6 */
 160:Generated_Source\PSoC5/cyfitter_cfg.c **** #define BS_IDMUX_VAL ((const uint8 CYFAR *)(0x48000000u + CYAPP_ECC_OFFSET))
 161:Generated_Source\PSoC5/cyfitter_cfg.c **** 
 162:Generated_Source\PSoC5/cyfitter_cfg.c **** /* IOPORT_0 Address: CYDEV_PRTDSI_PRT0_BASE Size (bytes): 7 */
 163:Generated_Source\PSoC5/cyfitter_cfg.c **** #define BS_IOPORT_0_VAL ((const uint8 CYFAR *)(0x48000008u + CYAPP_ECC_OFFSET))
 164:Generated_Source\PSoC5/cyfitter_cfg.c **** 
 165:Generated_Source\PSoC5/cyfitter_cfg.c **** /* IOPORT_3 Address: CYDEV_PRTDSI_PRT3_BASE Size (bytes): 7 */
 166:Generated_Source\PSoC5/cyfitter_cfg.c **** #define BS_IOPORT_3_VAL ((const uint8 CYFAR *)(0x48000010u + CYAPP_ECC_OFFSET))
 167:Generated_Source\PSoC5/cyfitter_cfg.c **** 
 168:Generated_Source\PSoC5/cyfitter_cfg.c **** /* IOPORT_4 Address: CYDEV_PRTDSI_PRT4_BASE Size (bytes): 7 */
 169:Generated_Source\PSoC5/cyfitter_cfg.c **** #define BS_IOPORT_4_VAL ((const uint8 CYFAR *)(0x48000018u + CYAPP_ECC_OFFSET))
 170:Generated_Source\PSoC5/cyfitter_cfg.c **** 
 171:Generated_Source\PSoC5/cyfitter_cfg.c **** /* PICU_4 Address: CYDEV_PICU_INTTYPE_PICU4_BASE Size (bytes): 8 */
 172:Generated_Source\PSoC5/cyfitter_cfg.c **** #define BS_PICU_4_VAL ((const uint8 CYFAR *)(0x48000020u + CYAPP_ECC_OFFSET))
 173:Generated_Source\PSoC5/cyfitter_cfg.c **** 
 174:Generated_Source\PSoC5/cyfitter_cfg.c **** /* IOPORT_5 Address: CYDEV_PRTDSI_PRT5_BASE Size (bytes): 7 */
 175:Generated_Source\PSoC5/cyfitter_cfg.c **** #define BS_IOPORT_5_VAL ((const uint8 CYFAR *)(0x48000028u + CYAPP_ECC_OFFSET))
 176:Generated_Source\PSoC5/cyfitter_cfg.c **** 
ARM GAS  C:\Users\JEFFSN~1\AppData\Local\Temp\cch5Y03s.s 			page 7


 177:Generated_Source\PSoC5/cyfitter_cfg.c **** /* PICU_7 Address: CYDEV_PICU_INTTYPE_PICU12_BASE Size (bytes): 8 */
 178:Generated_Source\PSoC5/cyfitter_cfg.c **** #define BS_PICU_7_VAL ((const uint8 CYFAR *)(0x48000030u + CYAPP_ECC_OFFSET))
 179:Generated_Source\PSoC5/cyfitter_cfg.c **** 
 180:Generated_Source\PSoC5/cyfitter_cfg.c **** /* IOPORT_8 Address: CYDEV_PRTDSI_PRT15_BASE Size (bytes): 7 */
 181:Generated_Source\PSoC5/cyfitter_cfg.c **** #define BS_IOPORT_8_VAL ((const uint8 CYFAR *)(0x48000038u + CYAPP_ECC_OFFSET))
 182:Generated_Source\PSoC5/cyfitter_cfg.c **** 
 183:Generated_Source\PSoC5/cyfitter_cfg.c **** /* PICU_8 Address: CYDEV_PICU_INTTYPE_PICU15_BASE Size (bytes): 8 */
 184:Generated_Source\PSoC5/cyfitter_cfg.c **** #define BS_PICU_8_VAL ((const uint8 CYFAR *)(0x48000040u + CYAPP_ECC_OFFSET))
 185:Generated_Source\PSoC5/cyfitter_cfg.c **** 
 186:Generated_Source\PSoC5/cyfitter_cfg.c **** /* IDMUX_IRQ Address: CYREG_IDMUX_IRQ_CTL0 Size (bytes): 8 */
 187:Generated_Source\PSoC5/cyfitter_cfg.c **** #define BS_IDMUX_IRQ_VAL ((const uint8 CYFAR *)(0x48000048u + CYAPP_ECC_OFFSET))
 188:Generated_Source\PSoC5/cyfitter_cfg.c **** 
 189:Generated_Source\PSoC5/cyfitter_cfg.c **** /* SAR0 Address: CYREG_SAR0_SW0 Size (bytes): 8 */
 190:Generated_Source\PSoC5/cyfitter_cfg.c **** #define BS_SAR0_VAL ((const uint8 CYFAR *)(0x48000050u + CYAPP_ECC_OFFSET))
 191:Generated_Source\PSoC5/cyfitter_cfg.c **** 
 192:Generated_Source\PSoC5/cyfitter_cfg.c **** /* UDB_1_5_0_CONFIG Address: CYDEV_UCFG_B0_P0_U0_BASE Size (bytes): 128 */
 193:Generated_Source\PSoC5/cyfitter_cfg.c **** #define BS_UDB_1_5_0_CONFIG_VAL ((const uint8 CYFAR *)(0x48000058u + CYAPP_ECC_OFFSET))
 194:Generated_Source\PSoC5/cyfitter_cfg.c **** 
 195:Generated_Source\PSoC5/cyfitter_cfg.c **** /* UDB_1_5_1_CONFIG Address: CYDEV_UCFG_B0_P0_U1_BASE Size (bytes): 128 */
 196:Generated_Source\PSoC5/cyfitter_cfg.c **** #define BS_UDB_1_5_1_CONFIG_VAL ((const uint8 CYFAR *)(0x480000D8u + CYAPP_ECC_OFFSET))
 197:Generated_Source\PSoC5/cyfitter_cfg.c **** 
 198:Generated_Source\PSoC5/cyfitter_cfg.c **** /* UDB_1_4_1_CONFIG Address: CYDEV_UCFG_B0_P1_U0_BASE Size (bytes): 128 */
 199:Generated_Source\PSoC5/cyfitter_cfg.c **** #define BS_UDB_1_4_1_CONFIG_VAL ((const uint8 CYFAR *)(0x48000158u + CYAPP_ECC_OFFSET))
 200:Generated_Source\PSoC5/cyfitter_cfg.c **** 
 201:Generated_Source\PSoC5/cyfitter_cfg.c **** /* UDB_1_4_0_CONFIG Address: CYDEV_UCFG_B0_P1_U1_BASE Size (bytes): 128 */
 202:Generated_Source\PSoC5/cyfitter_cfg.c **** #define BS_UDB_1_4_0_CONFIG_VAL ((const uint8 CYFAR *)(0x480001D8u + CYAPP_ECC_OFFSET))
 203:Generated_Source\PSoC5/cyfitter_cfg.c **** 
 204:Generated_Source\PSoC5/cyfitter_cfg.c **** /* UDB_1_3_0_CONFIG Address: CYDEV_UCFG_B0_P2_U0_BASE Size (bytes): 128 */
 205:Generated_Source\PSoC5/cyfitter_cfg.c **** #define BS_UDB_1_3_0_CONFIG_VAL ((const uint8 CYFAR *)(0x48000258u + CYAPP_ECC_OFFSET))
 206:Generated_Source\PSoC5/cyfitter_cfg.c **** 
 207:Generated_Source\PSoC5/cyfitter_cfg.c **** /* UDB_1_3_1_CONFIG Address: CYDEV_UCFG_B0_P2_U1_BASE Size (bytes): 128 */
 208:Generated_Source\PSoC5/cyfitter_cfg.c **** #define BS_UDB_1_3_1_CONFIG_VAL ((const uint8 CYFAR *)(0x480002D8u + CYAPP_ECC_OFFSET))
 209:Generated_Source\PSoC5/cyfitter_cfg.c **** 
 210:Generated_Source\PSoC5/cyfitter_cfg.c **** /* UDB_1_2_1_CONFIG Address: CYDEV_UCFG_B0_P3_U0_BASE Size (bytes): 128 */
 211:Generated_Source\PSoC5/cyfitter_cfg.c **** #define BS_UDB_1_2_1_CONFIG_VAL ((const uint8 CYFAR *)(0x48000358u + CYAPP_ECC_OFFSET))
 212:Generated_Source\PSoC5/cyfitter_cfg.c **** 
 213:Generated_Source\PSoC5/cyfitter_cfg.c **** /* UDB_1_2_0_CONFIG Address: CYDEV_UCFG_B0_P3_U1_BASE Size (bytes): 128 */
 214:Generated_Source\PSoC5/cyfitter_cfg.c **** #define BS_UDB_1_2_0_CONFIG_VAL ((const uint8 CYFAR *)(0x480003D8u + CYAPP_ECC_OFFSET))
 215:Generated_Source\PSoC5/cyfitter_cfg.c **** 
 216:Generated_Source\PSoC5/cyfitter_cfg.c **** /* UDB_0_2_1_CONFIG Address: CYDEV_UCFG_B0_P4_U0_BASE Size (bytes): 128 */
 217:Generated_Source\PSoC5/cyfitter_cfg.c **** #define BS_UDB_0_2_1_CONFIG_VAL ((const uint8 CYFAR *)(0x48000458u + CYAPP_ECC_OFFSET))
 218:Generated_Source\PSoC5/cyfitter_cfg.c **** 
 219:Generated_Source\PSoC5/cyfitter_cfg.c **** /* UDB_0_2_0_CONFIG Address: CYDEV_UCFG_B0_P4_U1_BASE Size (bytes): 128 */
 220:Generated_Source\PSoC5/cyfitter_cfg.c **** #define BS_UDB_0_2_0_CONFIG_VAL ((const uint8 CYFAR *)(0x480004D8u + CYAPP_ECC_OFFSET))
 221:Generated_Source\PSoC5/cyfitter_cfg.c **** 
 222:Generated_Source\PSoC5/cyfitter_cfg.c **** /* UDB_0_3_0_CONFIG Address: CYDEV_UCFG_B0_P5_U0_BASE Size (bytes): 128 */
 223:Generated_Source\PSoC5/cyfitter_cfg.c **** #define BS_UDB_0_3_0_CONFIG_VAL ((const uint8 CYFAR *)(0x48000558u + CYAPP_ECC_OFFSET))
 224:Generated_Source\PSoC5/cyfitter_cfg.c **** 
 225:Generated_Source\PSoC5/cyfitter_cfg.c **** /* UDB_0_3_1_CONFIG Address: CYDEV_UCFG_B0_P5_U1_BASE Size (bytes): 128 */
 226:Generated_Source\PSoC5/cyfitter_cfg.c **** #define BS_UDB_0_3_1_CONFIG_VAL ((const uint8 CYFAR *)(0x480005D8u + CYAPP_ECC_OFFSET))
 227:Generated_Source\PSoC5/cyfitter_cfg.c **** 
 228:Generated_Source\PSoC5/cyfitter_cfg.c **** /* UDB_0_4_1_CONFIG Address: CYDEV_UCFG_B0_P6_U0_BASE Size (bytes): 128 */
 229:Generated_Source\PSoC5/cyfitter_cfg.c **** #define BS_UDB_0_4_1_CONFIG_VAL ((const uint8 CYFAR *)(0x48000658u + CYAPP_ECC_OFFSET))
 230:Generated_Source\PSoC5/cyfitter_cfg.c **** 
 231:Generated_Source\PSoC5/cyfitter_cfg.c **** /* UDB_0_4_0_CONFIG Address: CYDEV_UCFG_B0_P6_U1_BASE Size (bytes): 128 */
 232:Generated_Source\PSoC5/cyfitter_cfg.c **** #define BS_UDB_0_4_0_CONFIG_VAL ((const uint8 CYFAR *)(0x480006D8u + CYAPP_ECC_OFFSET))
 233:Generated_Source\PSoC5/cyfitter_cfg.c **** 
ARM GAS  C:\Users\JEFFSN~1\AppData\Local\Temp\cch5Y03s.s 			page 8


 234:Generated_Source\PSoC5/cyfitter_cfg.c **** /* UDB_0_5_0_CONFIG Address: CYDEV_UCFG_B0_P7_U0_BASE Size (bytes): 128 */
 235:Generated_Source\PSoC5/cyfitter_cfg.c **** #define BS_UDB_0_5_0_CONFIG_VAL ((const uint8 CYFAR *)(0x48000758u + CYAPP_ECC_OFFSET))
 236:Generated_Source\PSoC5/cyfitter_cfg.c **** 
 237:Generated_Source\PSoC5/cyfitter_cfg.c **** /* UDB_0_5_1_CONFIG Address: CYDEV_UCFG_B0_P7_U1_BASE Size (bytes): 128 */
 238:Generated_Source\PSoC5/cyfitter_cfg.c **** #define BS_UDB_0_5_1_CONFIG_VAL ((const uint8 CYFAR *)(0x480007D8u + CYAPP_ECC_OFFSET))
 239:Generated_Source\PSoC5/cyfitter_cfg.c **** 
 240:Generated_Source\PSoC5/cyfitter_cfg.c **** /* UDB_1_0_0_CONFIG Address: CYDEV_UCFG_B1_P2_U0_BASE Size (bytes): 128 */
 241:Generated_Source\PSoC5/cyfitter_cfg.c **** #define BS_UDB_1_0_0_CONFIG_VAL ((const uint8 CYFAR *)(0x48000858u + CYAPP_ECC_OFFSET))
 242:Generated_Source\PSoC5/cyfitter_cfg.c **** 
 243:Generated_Source\PSoC5/cyfitter_cfg.c **** /* UDB_1_0_1_CONFIG Address: CYDEV_UCFG_B1_P2_U1_BASE Size (bytes): 128 */
 244:Generated_Source\PSoC5/cyfitter_cfg.c **** #define BS_UDB_1_0_1_CONFIG_VAL ((const uint8 CYFAR *)(0x480008D8u + CYAPP_ECC_OFFSET))
 245:Generated_Source\PSoC5/cyfitter_cfg.c **** 
 246:Generated_Source\PSoC5/cyfitter_cfg.c **** /* UDB_1_1_1_CONFIG Address: CYDEV_UCFG_B1_P3_U0_BASE Size (bytes): 128 */
 247:Generated_Source\PSoC5/cyfitter_cfg.c **** #define BS_UDB_1_1_1_CONFIG_VAL ((const uint8 CYFAR *)(0x48000958u + CYAPP_ECC_OFFSET))
 248:Generated_Source\PSoC5/cyfitter_cfg.c **** 
 249:Generated_Source\PSoC5/cyfitter_cfg.c **** /* UDB_1_1_0_CONFIG Address: CYDEV_UCFG_B1_P3_U1_BASE Size (bytes): 128 */
 250:Generated_Source\PSoC5/cyfitter_cfg.c **** #define BS_UDB_1_1_0_CONFIG_VAL ((const uint8 CYFAR *)(0x480009D8u + CYAPP_ECC_OFFSET))
 251:Generated_Source\PSoC5/cyfitter_cfg.c **** 
 252:Generated_Source\PSoC5/cyfitter_cfg.c **** /* UDB_0_1_1_CONFIG Address: CYDEV_UCFG_B1_P4_U0_BASE Size (bytes): 128 */
 253:Generated_Source\PSoC5/cyfitter_cfg.c **** #define BS_UDB_0_1_1_CONFIG_VAL ((const uint8 CYFAR *)(0x48000A58u + CYAPP_ECC_OFFSET))
 254:Generated_Source\PSoC5/cyfitter_cfg.c **** 
 255:Generated_Source\PSoC5/cyfitter_cfg.c **** /* UDB_0_1_0_CONFIG Address: CYDEV_UCFG_B1_P4_U1_BASE Size (bytes): 128 */
 256:Generated_Source\PSoC5/cyfitter_cfg.c **** #define BS_UDB_0_1_0_CONFIG_VAL ((const uint8 CYFAR *)(0x48000AD8u + CYAPP_ECC_OFFSET))
 257:Generated_Source\PSoC5/cyfitter_cfg.c **** 
 258:Generated_Source\PSoC5/cyfitter_cfg.c **** /* UDB_0_0_0_CONFIG Address: CYDEV_UCFG_B1_P5_U0_BASE Size (bytes): 128 */
 259:Generated_Source\PSoC5/cyfitter_cfg.c **** #define BS_UDB_0_0_0_CONFIG_VAL ((const uint8 CYFAR *)(0x48000B58u + CYAPP_ECC_OFFSET))
 260:Generated_Source\PSoC5/cyfitter_cfg.c **** 
 261:Generated_Source\PSoC5/cyfitter_cfg.c **** /* UDB_0_0_1_CONFIG Address: CYDEV_UCFG_B1_P5_U1_BASE Size (bytes): 128 */
 262:Generated_Source\PSoC5/cyfitter_cfg.c **** #define BS_UDB_0_0_1_CONFIG_VAL ((const uint8 CYFAR *)(0x48000BD8u + CYAPP_ECC_OFFSET))
 263:Generated_Source\PSoC5/cyfitter_cfg.c **** 
 264:Generated_Source\PSoC5/cyfitter_cfg.c **** /* UWRK_B0_WRK_DP_BITS Address: CYDEV_UWRK_UWRK8_B0_BASE Size (bytes): 64 */
 265:Generated_Source\PSoC5/cyfitter_cfg.c **** #define BS_UWRK_B0_WRK_DP_BITS_VAL ((const uint8 CYFAR *)(0x48000C58u + CYAPP_ECC_OFFSET))
 266:Generated_Source\PSoC5/cyfitter_cfg.c **** 
 267:Generated_Source\PSoC5/cyfitter_cfg.c **** /* UWRK_B0_WRK_STATCTL_BITS Address: CYDEV_UWRK_UWRK8_B0_BASE + 0x00000070u Size (bytes): 32 */
 268:Generated_Source\PSoC5/cyfitter_cfg.c **** #define BS_UWRK_B0_WRK_STATCTL_BITS_VAL ((const uint8 CYFAR *)(0x48000C98u + CYAPP_ECC_OFFSET))
 269:Generated_Source\PSoC5/cyfitter_cfg.c **** 
 270:Generated_Source\PSoC5/cyfitter_cfg.c **** /* UWRK_B1_WRK_STATCTL_BITS Address: CYDEV_UWRK_UWRK8_B1_BASE + 0x00000070u Size (bytes): 32 */
 271:Generated_Source\PSoC5/cyfitter_cfg.c **** #define BS_UWRK_B1_WRK_STATCTL_BITS_VAL ((const uint8 CYFAR *)(0x48000CB8u + CYAPP_ECC_OFFSET))
 272:Generated_Source\PSoC5/cyfitter_cfg.c **** 
 273:Generated_Source\PSoC5/cyfitter_cfg.c **** /* UCFG_BCTL1 Address: CYREG_BCTL1_MDCLK_EN Size (bytes): 16 */
 274:Generated_Source\PSoC5/cyfitter_cfg.c **** #define BS_UCFG_BCTL1_VAL ((const uint8 CYFAR *)(0x48000CD8u + CYAPP_ECC_OFFSET))
 275:Generated_Source\PSoC5/cyfitter_cfg.c **** 
 276:Generated_Source\PSoC5/cyfitter_cfg.c **** /* UCFG_BCTL0 Address: CYREG_BCTL0_MDCLK_EN Size (bytes): 16 */
 277:Generated_Source\PSoC5/cyfitter_cfg.c **** #define BS_UCFG_BCTL0_VAL ((const uint8 CYFAR *)(0x48000CE8u + CYAPP_ECC_OFFSET))
 278:Generated_Source\PSoC5/cyfitter_cfg.c **** 
 279:Generated_Source\PSoC5/cyfitter_cfg.c **** /* DSISWITCH_0_0 Address: CYDEV_UCFG_DSI13_BASE Size (bytes): 128 */
 280:Generated_Source\PSoC5/cyfitter_cfg.c **** #define BS_DSISWITCH_0_0_VAL ((const uint8 CYFAR *)(0x48000CF8u + CYAPP_ECC_OFFSET))
 281:Generated_Source\PSoC5/cyfitter_cfg.c **** 
 282:Generated_Source\PSoC5/cyfitter_cfg.c **** /* DSI0_0_HV_ROUTING Address: CYDEV_UCFG_DSI13_BASE + 0x00000080u Size (bytes): 128 */
 283:Generated_Source\PSoC5/cyfitter_cfg.c **** #define BS_DSI0_0_HV_ROUTING_VAL ((const uint8 CYFAR *)(0x48000D78u + CYAPP_ECC_OFFSET))
 284:Generated_Source\PSoC5/cyfitter_cfg.c **** 
 285:Generated_Source\PSoC5/cyfitter_cfg.c **** /* DSISWITCH_0_1 Address: CYDEV_UCFG_DSI12_BASE Size (bytes): 128 */
 286:Generated_Source\PSoC5/cyfitter_cfg.c **** #define BS_DSISWITCH_0_1_VAL ((const uint8 CYFAR *)(0x48000DF8u + CYAPP_ECC_OFFSET))
 287:Generated_Source\PSoC5/cyfitter_cfg.c **** 
 288:Generated_Source\PSoC5/cyfitter_cfg.c **** /* DSI0_1_HV_ROUTING Address: CYDEV_UCFG_DSI12_BASE + 0x00000080u Size (bytes): 128 */
 289:Generated_Source\PSoC5/cyfitter_cfg.c **** #define BS_DSI0_1_HV_ROUTING_VAL ((const uint8 CYFAR *)(0x48000E78u + CYAPP_ECC_OFFSET))
 290:Generated_Source\PSoC5/cyfitter_cfg.c **** 
ARM GAS  C:\Users\JEFFSN~1\AppData\Local\Temp\cch5Y03s.s 			page 9


 291:Generated_Source\PSoC5/cyfitter_cfg.c **** /* DSISWITCH_0_2 Address: CYDEV_UCFG_DSI7_BASE Size (bytes): 128 */
 292:Generated_Source\PSoC5/cyfitter_cfg.c **** #define BS_DSISWITCH_0_2_VAL ((const uint8 CYFAR *)(0x48000EF8u + CYAPP_ECC_OFFSET))
 293:Generated_Source\PSoC5/cyfitter_cfg.c **** 
 294:Generated_Source\PSoC5/cyfitter_cfg.c **** /* DSI0_2_HV_ROUTING Address: CYDEV_UCFG_DSI7_BASE + 0x00000080u Size (bytes): 128 */
 295:Generated_Source\PSoC5/cyfitter_cfg.c **** #define BS_DSI0_2_HV_ROUTING_VAL ((const uint8 CYFAR *)(0x48000F78u + CYAPP_ECC_OFFSET))
 296:Generated_Source\PSoC5/cyfitter_cfg.c **** 
 297:Generated_Source\PSoC5/cyfitter_cfg.c **** /* DSISWITCH_0_3 Address: CYDEV_UCFG_DSI6_BASE Size (bytes): 128 */
 298:Generated_Source\PSoC5/cyfitter_cfg.c **** #define BS_DSISWITCH_0_3_VAL ((const uint8 CYFAR *)(0x48000FF8u + CYAPP_ECC_OFFSET))
 299:Generated_Source\PSoC5/cyfitter_cfg.c **** 
 300:Generated_Source\PSoC5/cyfitter_cfg.c **** /* DSI0_3_HV_ROUTING Address: CYDEV_UCFG_DSI6_BASE + 0x00000080u Size (bytes): 128 */
 301:Generated_Source\PSoC5/cyfitter_cfg.c **** #define BS_DSI0_3_HV_ROUTING_VAL ((const uint8 CYFAR *)(0x48001078u + CYAPP_ECC_OFFSET))
 302:Generated_Source\PSoC5/cyfitter_cfg.c **** 
 303:Generated_Source\PSoC5/cyfitter_cfg.c **** /* DSISWITCH_0_4 Address: CYDEV_UCFG_DSI5_BASE Size (bytes): 128 */
 304:Generated_Source\PSoC5/cyfitter_cfg.c **** #define BS_DSISWITCH_0_4_VAL ((const uint8 CYFAR *)(0x480010F8u + CYAPP_ECC_OFFSET))
 305:Generated_Source\PSoC5/cyfitter_cfg.c **** 
 306:Generated_Source\PSoC5/cyfitter_cfg.c **** /* DSI0_4_HV_ROUTING Address: CYDEV_UCFG_DSI5_BASE + 0x00000080u Size (bytes): 128 */
 307:Generated_Source\PSoC5/cyfitter_cfg.c **** #define BS_DSI0_4_HV_ROUTING_VAL ((const uint8 CYFAR *)(0x48001178u + CYAPP_ECC_OFFSET))
 308:Generated_Source\PSoC5/cyfitter_cfg.c **** 
 309:Generated_Source\PSoC5/cyfitter_cfg.c **** /* DSISWITCH_0_5 Address: CYDEV_UCFG_DSI4_BASE Size (bytes): 128 */
 310:Generated_Source\PSoC5/cyfitter_cfg.c **** #define BS_DSISWITCH_0_5_VAL ((const uint8 CYFAR *)(0x480011F8u + CYAPP_ECC_OFFSET))
 311:Generated_Source\PSoC5/cyfitter_cfg.c **** 
 312:Generated_Source\PSoC5/cyfitter_cfg.c **** /* DSI0_5_HV_ROUTING Address: CYDEV_UCFG_DSI4_BASE + 0x00000080u Size (bytes): 128 */
 313:Generated_Source\PSoC5/cyfitter_cfg.c **** #define BS_DSI0_5_HV_ROUTING_VAL ((const uint8 CYFAR *)(0x48001278u + CYAPP_ECC_OFFSET))
 314:Generated_Source\PSoC5/cyfitter_cfg.c **** 
 315:Generated_Source\PSoC5/cyfitter_cfg.c **** /* UDBSWITCH_0_0 Address: CYDEV_UCFG_B1_P5_ROUTE_BASE Size (bytes): 128 */
 316:Generated_Source\PSoC5/cyfitter_cfg.c **** #define BS_UDBSWITCH_0_0_VAL ((const uint8 CYFAR *)(0x480012F8u + CYAPP_ECC_OFFSET))
 317:Generated_Source\PSoC5/cyfitter_cfg.c **** 
 318:Generated_Source\PSoC5/cyfitter_cfg.c **** /* UDB_1_0_HV_ROUTING Address: CYDEV_UCFG_B1_P5_ROUTE_BASE + 0x00000080u Size (bytes): 128 */
 319:Generated_Source\PSoC5/cyfitter_cfg.c **** #define BS_UDB_1_0_HV_ROUTING_VAL ((const uint8 CYFAR *)(0x48001378u + CYAPP_ECC_OFFSET))
 320:Generated_Source\PSoC5/cyfitter_cfg.c **** 
 321:Generated_Source\PSoC5/cyfitter_cfg.c **** /* UDBSWITCH_1_0 Address: CYDEV_UCFG_B1_P2_ROUTE_BASE Size (bytes): 128 */
 322:Generated_Source\PSoC5/cyfitter_cfg.c **** #define BS_UDBSWITCH_1_0_VAL ((const uint8 CYFAR *)(0x480013F8u + CYAPP_ECC_OFFSET))
 323:Generated_Source\PSoC5/cyfitter_cfg.c **** 
 324:Generated_Source\PSoC5/cyfitter_cfg.c **** /* UDB_2_0_HV_ROUTING Address: CYDEV_UCFG_B1_P2_ROUTE_BASE + 0x00000080u Size (bytes): 128 */
 325:Generated_Source\PSoC5/cyfitter_cfg.c **** #define BS_UDB_2_0_HV_ROUTING_VAL ((const uint8 CYFAR *)(0x48001478u + CYAPP_ECC_OFFSET))
 326:Generated_Source\PSoC5/cyfitter_cfg.c **** 
 327:Generated_Source\PSoC5/cyfitter_cfg.c **** /* UDBSWITCH_0_1 Address: CYDEV_UCFG_B1_P4_ROUTE_BASE Size (bytes): 128 */
 328:Generated_Source\PSoC5/cyfitter_cfg.c **** #define BS_UDBSWITCH_0_1_VAL ((const uint8 CYFAR *)(0x480014F8u + CYAPP_ECC_OFFSET))
 329:Generated_Source\PSoC5/cyfitter_cfg.c **** 
 330:Generated_Source\PSoC5/cyfitter_cfg.c **** /* UDB_1_1_HV_ROUTING Address: CYDEV_UCFG_B1_P4_ROUTE_BASE + 0x00000080u Size (bytes): 128 */
 331:Generated_Source\PSoC5/cyfitter_cfg.c **** #define BS_UDB_1_1_HV_ROUTING_VAL ((const uint8 CYFAR *)(0x48001578u + CYAPP_ECC_OFFSET))
 332:Generated_Source\PSoC5/cyfitter_cfg.c **** 
 333:Generated_Source\PSoC5/cyfitter_cfg.c **** /* UDBSWITCH_1_1 Address: CYDEV_UCFG_B1_P3_ROUTE_BASE Size (bytes): 128 */
 334:Generated_Source\PSoC5/cyfitter_cfg.c **** #define BS_UDBSWITCH_1_1_VAL ((const uint8 CYFAR *)(0x480015F8u + CYAPP_ECC_OFFSET))
 335:Generated_Source\PSoC5/cyfitter_cfg.c **** 
 336:Generated_Source\PSoC5/cyfitter_cfg.c **** /* UDB_2_1_HV_ROUTING Address: CYDEV_UCFG_B1_P3_ROUTE_BASE + 0x00000080u Size (bytes): 128 */
 337:Generated_Source\PSoC5/cyfitter_cfg.c **** #define BS_UDB_2_1_HV_ROUTING_VAL ((const uint8 CYFAR *)(0x48001678u + CYAPP_ECC_OFFSET))
 338:Generated_Source\PSoC5/cyfitter_cfg.c **** 
 339:Generated_Source\PSoC5/cyfitter_cfg.c **** /* UDBSWITCH_0_2 Address: CYDEV_UCFG_B0_P4_ROUTE_BASE Size (bytes): 128 */
 340:Generated_Source\PSoC5/cyfitter_cfg.c **** #define BS_UDBSWITCH_0_2_VAL ((const uint8 CYFAR *)(0x480016F8u + CYAPP_ECC_OFFSET))
 341:Generated_Source\PSoC5/cyfitter_cfg.c **** 
 342:Generated_Source\PSoC5/cyfitter_cfg.c **** /* UDB_1_2_HV_ROUTING Address: CYDEV_UCFG_B0_P4_ROUTE_BASE + 0x00000080u Size (bytes): 128 */
 343:Generated_Source\PSoC5/cyfitter_cfg.c **** #define BS_UDB_1_2_HV_ROUTING_VAL ((const uint8 CYFAR *)(0x48001778u + CYAPP_ECC_OFFSET))
 344:Generated_Source\PSoC5/cyfitter_cfg.c **** 
 345:Generated_Source\PSoC5/cyfitter_cfg.c **** /* UDBSWITCH_1_2 Address: CYDEV_UCFG_B0_P3_ROUTE_BASE Size (bytes): 128 */
 346:Generated_Source\PSoC5/cyfitter_cfg.c **** #define BS_UDBSWITCH_1_2_VAL ((const uint8 CYFAR *)(0x480017F8u + CYAPP_ECC_OFFSET))
 347:Generated_Source\PSoC5/cyfitter_cfg.c **** 
ARM GAS  C:\Users\JEFFSN~1\AppData\Local\Temp\cch5Y03s.s 			page 10


 348:Generated_Source\PSoC5/cyfitter_cfg.c **** /* UDB_2_2_HV_ROUTING Address: CYDEV_UCFG_B0_P3_ROUTE_BASE + 0x00000080u Size (bytes): 128 */
 349:Generated_Source\PSoC5/cyfitter_cfg.c **** #define BS_UDB_2_2_HV_ROUTING_VAL ((const uint8 CYFAR *)(0x48001878u + CYAPP_ECC_OFFSET))
 350:Generated_Source\PSoC5/cyfitter_cfg.c **** 
 351:Generated_Source\PSoC5/cyfitter_cfg.c **** /* UDBSWITCH_0_3 Address: CYDEV_UCFG_B0_P5_ROUTE_BASE Size (bytes): 128 */
 352:Generated_Source\PSoC5/cyfitter_cfg.c **** #define BS_UDBSWITCH_0_3_VAL ((const uint8 CYFAR *)(0x480018F8u + CYAPP_ECC_OFFSET))
 353:Generated_Source\PSoC5/cyfitter_cfg.c **** 
 354:Generated_Source\PSoC5/cyfitter_cfg.c **** /* UDB_1_3_HV_ROUTING Address: CYDEV_UCFG_B0_P5_ROUTE_BASE + 0x00000080u Size (bytes): 128 */
 355:Generated_Source\PSoC5/cyfitter_cfg.c **** #define BS_UDB_1_3_HV_ROUTING_VAL ((const uint8 CYFAR *)(0x48001978u + CYAPP_ECC_OFFSET))
 356:Generated_Source\PSoC5/cyfitter_cfg.c **** 
 357:Generated_Source\PSoC5/cyfitter_cfg.c **** /* UDBSWITCH_1_3 Address: CYDEV_UCFG_B0_P2_ROUTE_BASE Size (bytes): 128 */
 358:Generated_Source\PSoC5/cyfitter_cfg.c **** #define BS_UDBSWITCH_1_3_VAL ((const uint8 CYFAR *)(0x480019F8u + CYAPP_ECC_OFFSET))
 359:Generated_Source\PSoC5/cyfitter_cfg.c **** 
 360:Generated_Source\PSoC5/cyfitter_cfg.c **** /* UDB_2_3_HV_ROUTING Address: CYDEV_UCFG_B0_P2_ROUTE_BASE + 0x00000080u Size (bytes): 128 */
 361:Generated_Source\PSoC5/cyfitter_cfg.c **** #define BS_UDB_2_3_HV_ROUTING_VAL ((const uint8 CYFAR *)(0x48001A78u + CYAPP_ECC_OFFSET))
 362:Generated_Source\PSoC5/cyfitter_cfg.c **** 
 363:Generated_Source\PSoC5/cyfitter_cfg.c **** /* UDBSWITCH_0_4 Address: CYDEV_UCFG_B0_P6_ROUTE_BASE Size (bytes): 128 */
 364:Generated_Source\PSoC5/cyfitter_cfg.c **** #define BS_UDBSWITCH_0_4_VAL ((const uint8 CYFAR *)(0x48001AF8u + CYAPP_ECC_OFFSET))
 365:Generated_Source\PSoC5/cyfitter_cfg.c **** 
 366:Generated_Source\PSoC5/cyfitter_cfg.c **** /* UDB_1_4_HV_ROUTING Address: CYDEV_UCFG_B0_P6_ROUTE_BASE + 0x00000080u Size (bytes): 128 */
 367:Generated_Source\PSoC5/cyfitter_cfg.c **** #define BS_UDB_1_4_HV_ROUTING_VAL ((const uint8 CYFAR *)(0x48001B78u + CYAPP_ECC_OFFSET))
 368:Generated_Source\PSoC5/cyfitter_cfg.c **** 
 369:Generated_Source\PSoC5/cyfitter_cfg.c **** /* UDBSWITCH_1_4 Address: CYDEV_UCFG_B0_P1_ROUTE_BASE Size (bytes): 128 */
 370:Generated_Source\PSoC5/cyfitter_cfg.c **** #define BS_UDBSWITCH_1_4_VAL ((const uint8 CYFAR *)(0x48001BF8u + CYAPP_ECC_OFFSET))
 371:Generated_Source\PSoC5/cyfitter_cfg.c **** 
 372:Generated_Source\PSoC5/cyfitter_cfg.c **** /* UDB_2_4_HV_ROUTING Address: CYDEV_UCFG_B0_P1_ROUTE_BASE + 0x00000080u Size (bytes): 128 */
 373:Generated_Source\PSoC5/cyfitter_cfg.c **** #define BS_UDB_2_4_HV_ROUTING_VAL ((const uint8 CYFAR *)(0x48001C78u + CYAPP_ECC_OFFSET))
 374:Generated_Source\PSoC5/cyfitter_cfg.c **** 
 375:Generated_Source\PSoC5/cyfitter_cfg.c **** /* UDBSWITCH_0_5 Address: CYDEV_UCFG_B0_P7_ROUTE_BASE Size (bytes): 128 */
 376:Generated_Source\PSoC5/cyfitter_cfg.c **** #define BS_UDBSWITCH_0_5_VAL ((const uint8 CYFAR *)(0x48001CF8u + CYAPP_ECC_OFFSET))
 377:Generated_Source\PSoC5/cyfitter_cfg.c **** 
 378:Generated_Source\PSoC5/cyfitter_cfg.c **** /* UDB_1_5_HV_ROUTING Address: CYDEV_UCFG_B0_P7_ROUTE_BASE + 0x00000080u Size (bytes): 128 */
 379:Generated_Source\PSoC5/cyfitter_cfg.c **** #define BS_UDB_1_5_HV_ROUTING_VAL ((const uint8 CYFAR *)(0x48001D78u + CYAPP_ECC_OFFSET))
 380:Generated_Source\PSoC5/cyfitter_cfg.c **** 
 381:Generated_Source\PSoC5/cyfitter_cfg.c **** /* UDBSWITCH_1_5 Address: CYDEV_UCFG_B0_P0_ROUTE_BASE Size (bytes): 128 */
 382:Generated_Source\PSoC5/cyfitter_cfg.c **** #define BS_UDBSWITCH_1_5_VAL ((const uint8 CYFAR *)(0x48001DF8u + CYAPP_ECC_OFFSET))
 383:Generated_Source\PSoC5/cyfitter_cfg.c **** 
 384:Generated_Source\PSoC5/cyfitter_cfg.c **** /* UDB_2_5_HV_ROUTING Address: CYDEV_UCFG_B0_P0_ROUTE_BASE + 0x00000080u Size (bytes): 128 */
 385:Generated_Source\PSoC5/cyfitter_cfg.c **** #define BS_UDB_2_5_HV_ROUTING_VAL ((const uint8 CYFAR *)(0x48001E78u + CYAPP_ECC_OFFSET))
 386:Generated_Source\PSoC5/cyfitter_cfg.c **** 
 387:Generated_Source\PSoC5/cyfitter_cfg.c **** /* DSISWITCH_1_0 Address: CYDEV_UCFG_DSI9_BASE Size (bytes): 128 */
 388:Generated_Source\PSoC5/cyfitter_cfg.c **** #define BS_DSISWITCH_1_0_VAL ((const uint8 CYFAR *)(0x48001EF8u + CYAPP_ECC_OFFSET))
 389:Generated_Source\PSoC5/cyfitter_cfg.c **** 
 390:Generated_Source\PSoC5/cyfitter_cfg.c **** /* DSI3_0_HV_ROUTING Address: CYDEV_UCFG_DSI9_BASE + 0x00000080u Size (bytes): 128 */
 391:Generated_Source\PSoC5/cyfitter_cfg.c **** #define BS_DSI3_0_HV_ROUTING_VAL ((const uint8 CYFAR *)(0x48001F78u + CYAPP_ECC_OFFSET))
 392:Generated_Source\PSoC5/cyfitter_cfg.c **** 
 393:Generated_Source\PSoC5/cyfitter_cfg.c **** /* DSISWITCH_1_1 Address: CYDEV_UCFG_DSI8_BASE Size (bytes): 128 */
 394:Generated_Source\PSoC5/cyfitter_cfg.c **** #define BS_DSISWITCH_1_1_VAL ((const uint8 CYFAR *)(0x48001FF8u + CYAPP_ECC_OFFSET))
 395:Generated_Source\PSoC5/cyfitter_cfg.c **** 
 396:Generated_Source\PSoC5/cyfitter_cfg.c **** /* DSI3_1_HV_ROUTING Address: CYDEV_UCFG_DSI8_BASE + 0x00000080u Size (bytes): 128 */
 397:Generated_Source\PSoC5/cyfitter_cfg.c **** #define BS_DSI3_1_HV_ROUTING_VAL ((const uint8 CYFAR *)(0x48002078u + CYAPP_ECC_OFFSET))
 398:Generated_Source\PSoC5/cyfitter_cfg.c **** 
 399:Generated_Source\PSoC5/cyfitter_cfg.c **** /* DSI3_2_HV_ROUTING Address: CYDEV_UCFG_DSI3_BASE + 0x00000080u Size (bytes): 128 */
 400:Generated_Source\PSoC5/cyfitter_cfg.c **** #define BS_DSI3_2_HV_ROUTING_VAL ((const uint8 CYFAR *)(0x480020F8u + CYAPP_ECC_OFFSET))
 401:Generated_Source\PSoC5/cyfitter_cfg.c **** 
 402:Generated_Source\PSoC5/cyfitter_cfg.c **** /* DSISWITCH_1_3 Address: CYDEV_UCFG_DSI2_BASE Size (bytes): 128 */
 403:Generated_Source\PSoC5/cyfitter_cfg.c **** #define BS_DSISWITCH_1_3_VAL ((const uint8 CYFAR *)(0x48002178u + CYAPP_ECC_OFFSET))
 404:Generated_Source\PSoC5/cyfitter_cfg.c **** 
ARM GAS  C:\Users\JEFFSN~1\AppData\Local\Temp\cch5Y03s.s 			page 11


 405:Generated_Source\PSoC5/cyfitter_cfg.c **** /* DSI3_3_HV_ROUTING Address: CYDEV_UCFG_DSI2_BASE + 0x00000080u Size (bytes): 128 */
 406:Generated_Source\PSoC5/cyfitter_cfg.c **** #define BS_DSI3_3_HV_ROUTING_VAL ((const uint8 CYFAR *)(0x480021F8u + CYAPP_ECC_OFFSET))
 407:Generated_Source\PSoC5/cyfitter_cfg.c **** 
 408:Generated_Source\PSoC5/cyfitter_cfg.c **** /* DSISWITCH_1_4 Address: CYDEV_UCFG_DSI1_BASE Size (bytes): 128 */
 409:Generated_Source\PSoC5/cyfitter_cfg.c **** #define BS_DSISWITCH_1_4_VAL ((const uint8 CYFAR *)(0x48002278u + CYAPP_ECC_OFFSET))
 410:Generated_Source\PSoC5/cyfitter_cfg.c **** 
 411:Generated_Source\PSoC5/cyfitter_cfg.c **** /* DSI3_4_HV_ROUTING Address: CYDEV_UCFG_DSI1_BASE + 0x00000080u Size (bytes): 128 */
 412:Generated_Source\PSoC5/cyfitter_cfg.c **** #define BS_DSI3_4_HV_ROUTING_VAL ((const uint8 CYFAR *)(0x480022F8u + CYAPP_ECC_OFFSET))
 413:Generated_Source\PSoC5/cyfitter_cfg.c **** 
 414:Generated_Source\PSoC5/cyfitter_cfg.c **** /* DSISWITCH_1_5 Address: CYDEV_UCFG_DSI0_BASE Size (bytes): 128 */
 415:Generated_Source\PSoC5/cyfitter_cfg.c **** #define BS_DSISWITCH_1_5_VAL ((const uint8 CYFAR *)(0x48002378u + CYAPP_ECC_OFFSET))
 416:Generated_Source\PSoC5/cyfitter_cfg.c **** 
 417:Generated_Source\PSoC5/cyfitter_cfg.c **** /* DSI3_5_HV_ROUTING Address: CYDEV_UCFG_DSI0_BASE + 0x00000080u Size (bytes): 128 */
 418:Generated_Source\PSoC5/cyfitter_cfg.c **** #define BS_DSI3_5_HV_ROUTING_VAL ((const uint8 CYFAR *)(0x480023F8u + CYAPP_ECC_OFFSET))
 419:Generated_Source\PSoC5/cyfitter_cfg.c **** 
 420:Generated_Source\PSoC5/cyfitter_cfg.c **** /* IOPINS0_0 Address: CYREG_PRT0_DM0 Size (bytes): 8 */
 421:Generated_Source\PSoC5/cyfitter_cfg.c **** #define BS_IOPINS0_0_VAL ((const uint8 CYFAR *)(0x48002478u + CYAPP_ECC_OFFSET))
 422:Generated_Source\PSoC5/cyfitter_cfg.c **** 
 423:Generated_Source\PSoC5/cyfitter_cfg.c **** /* IOPINS0_7 Address: CYREG_PRT12_DM0 Size (bytes): 8 */
 424:Generated_Source\PSoC5/cyfitter_cfg.c **** #define BS_IOPINS0_7_VAL ((const uint8 CYFAR *)(0x48002480u + CYAPP_ECC_OFFSET))
 425:Generated_Source\PSoC5/cyfitter_cfg.c **** 
 426:Generated_Source\PSoC5/cyfitter_cfg.c **** /* IOPINS0_8 Address: CYREG_PRT15_DR Size (bytes): 10 */
 427:Generated_Source\PSoC5/cyfitter_cfg.c **** #define BS_IOPINS0_8_VAL ((const uint8 CYFAR *)(0x48002488u + CYAPP_ECC_OFFSET))
 428:Generated_Source\PSoC5/cyfitter_cfg.c **** 
 429:Generated_Source\PSoC5/cyfitter_cfg.c **** /* IOPINS0_1 Address: CYREG_PRT1_DR Size (bytes): 10 */
 430:Generated_Source\PSoC5/cyfitter_cfg.c **** #define BS_IOPINS0_1_VAL ((const uint8 CYFAR *)(0x48002494u + CYAPP_ECC_OFFSET))
 431:Generated_Source\PSoC5/cyfitter_cfg.c **** 
 432:Generated_Source\PSoC5/cyfitter_cfg.c **** /* IOPINS0_2 Address: CYREG_PRT2_DR Size (bytes): 10 */
 433:Generated_Source\PSoC5/cyfitter_cfg.c **** #define BS_IOPINS0_2_VAL ((const uint8 CYFAR *)(0x480024A0u + CYAPP_ECC_OFFSET))
 434:Generated_Source\PSoC5/cyfitter_cfg.c **** 
 435:Generated_Source\PSoC5/cyfitter_cfg.c **** /* IOPINS0_3 Address: CYREG_PRT3_DM0 Size (bytes): 8 */
 436:Generated_Source\PSoC5/cyfitter_cfg.c **** #define BS_IOPINS0_3_VAL ((const uint8 CYFAR *)(0x480024ACu + CYAPP_ECC_OFFSET))
 437:Generated_Source\PSoC5/cyfitter_cfg.c **** 
 438:Generated_Source\PSoC5/cyfitter_cfg.c **** /* IOPINS0_4 Address: CYREG_PRT4_DR Size (bytes): 10 */
 439:Generated_Source\PSoC5/cyfitter_cfg.c **** #define BS_IOPINS0_4_VAL ((const uint8 CYFAR *)(0x480024B4u + CYAPP_ECC_OFFSET))
 440:Generated_Source\PSoC5/cyfitter_cfg.c **** 
 441:Generated_Source\PSoC5/cyfitter_cfg.c **** /* IOPINS0_5 Address: CYREG_PRT5_DR Size (bytes): 10 */
 442:Generated_Source\PSoC5/cyfitter_cfg.c **** #define BS_IOPINS0_5_VAL ((const uint8 CYFAR *)(0x480024C0u + CYAPP_ECC_OFFSET))
 443:Generated_Source\PSoC5/cyfitter_cfg.c **** 
 444:Generated_Source\PSoC5/cyfitter_cfg.c **** /* IOPINS0_6 Address: CYREG_PRT6_DR Size (bytes): 10 */
 445:Generated_Source\PSoC5/cyfitter_cfg.c **** #define BS_IOPINS0_6_VAL ((const uint8 CYFAR *)(0x480024CCu + CYAPP_ECC_OFFSET))
 446:Generated_Source\PSoC5/cyfitter_cfg.c **** 
 447:Generated_Source\PSoC5/cyfitter_cfg.c **** /* PHUB_CFGMEM0 Address: CYREG_PHUB_CFGMEM0_CFG0 Size (bytes): 4 */
 448:Generated_Source\PSoC5/cyfitter_cfg.c **** #define BS_PHUB_CFGMEM0_VAL ((const uint8 CYFAR *)(0x480024D8u + CYAPP_ECC_OFFSET))
 449:Generated_Source\PSoC5/cyfitter_cfg.c **** 
 450:Generated_Source\PSoC5/cyfitter_cfg.c **** /* PHUB_CFGMEM1 Address: CYREG_PHUB_CFGMEM1_CFG0 Size (bytes): 4 */
 451:Generated_Source\PSoC5/cyfitter_cfg.c **** #define BS_PHUB_CFGMEM1_VAL ((const uint8 CYFAR *)(0x480024DCu + CYAPP_ECC_OFFSET))
 452:Generated_Source\PSoC5/cyfitter_cfg.c **** 
 453:Generated_Source\PSoC5/cyfitter_cfg.c **** /* PHUB_CFGMEM4 Address: CYREG_PHUB_CFGMEM4_CFG0 Size (bytes): 4 */
 454:Generated_Source\PSoC5/cyfitter_cfg.c **** #define BS_PHUB_CFGMEM4_VAL ((const uint8 CYFAR *)(0x480024E0u + CYAPP_ECC_OFFSET))
 455:Generated_Source\PSoC5/cyfitter_cfg.c **** 
 456:Generated_Source\PSoC5/cyfitter_cfg.c **** /* PHUB_CFGMEM5 Address: CYREG_PHUB_CFGMEM5_CFG0 Size (bytes): 4 */
 457:Generated_Source\PSoC5/cyfitter_cfg.c **** #define BS_PHUB_CFGMEM5_VAL ((const uint8 CYFAR *)(0x480024E4u + CYAPP_ECC_OFFSET))
 458:Generated_Source\PSoC5/cyfitter_cfg.c **** 
 459:Generated_Source\PSoC5/cyfitter_cfg.c **** 
 460:Generated_Source\PSoC5/cyfitter_cfg.c **** /*******************************************************************************
 461:Generated_Source\PSoC5/cyfitter_cfg.c **** * Function Name: ClockSetup
ARM GAS  C:\Users\JEFFSN~1\AppData\Local\Temp\cch5Y03s.s 			page 12


 462:Generated_Source\PSoC5/cyfitter_cfg.c **** ********************************************************************************
 463:Generated_Source\PSoC5/cyfitter_cfg.c **** *
 464:Generated_Source\PSoC5/cyfitter_cfg.c **** * Summary:
 465:Generated_Source\PSoC5/cyfitter_cfg.c **** *  Performs the initialization of all of the clocks in the device based on the
 466:Generated_Source\PSoC5/cyfitter_cfg.c **** *  settings in the Clock tab of the DWR.  This includes enabling the requested
 467:Generated_Source\PSoC5/cyfitter_cfg.c **** *  clocks and setting the necessary dividers to produce the desired frequency. 
 468:Generated_Source\PSoC5/cyfitter_cfg.c **** *
 469:Generated_Source\PSoC5/cyfitter_cfg.c **** * Parameters:
 470:Generated_Source\PSoC5/cyfitter_cfg.c **** *  void
 471:Generated_Source\PSoC5/cyfitter_cfg.c **** *
 472:Generated_Source\PSoC5/cyfitter_cfg.c **** * Return:
 473:Generated_Source\PSoC5/cyfitter_cfg.c **** *  void
 474:Generated_Source\PSoC5/cyfitter_cfg.c **** *
 475:Generated_Source\PSoC5/cyfitter_cfg.c **** *******************************************************************************/
 476:Generated_Source\PSoC5/cyfitter_cfg.c **** static void ClockSetup(void);
 477:Generated_Source\PSoC5/cyfitter_cfg.c **** static void ClockSetup(void)
 478:Generated_Source\PSoC5/cyfitter_cfg.c **** {
 167              		.loc 1 478 0
 168              		.cfi_startproc
 169              		@ args = 0, pretend = 0, frame = 8
 170              		@ frame_needed = 1, uses_anonymous_args = 0
 171 0000 80B5     		push	{r7, lr}
 172              		.cfi_def_cfa_offset 8
 173              		.cfi_offset 7, -8
 174              		.cfi_offset 14, -4
 175 0002 82B0     		sub	sp, sp, #8
 176              		.cfi_def_cfa_offset 16
 177 0004 00AF     		add	r7, sp, #0
 178              		.cfi_def_cfa_register 7
 479:Generated_Source\PSoC5/cyfitter_cfg.c **** 	uint32 timeout;
 480:Generated_Source\PSoC5/cyfitter_cfg.c **** 	uint8 pllLock;
 481:Generated_Source\PSoC5/cyfitter_cfg.c **** 
 482:Generated_Source\PSoC5/cyfitter_cfg.c **** 
 483:Generated_Source\PSoC5/cyfitter_cfg.c **** 	/* Configure Digital Clocks based on settings from Clock DWR */
 484:Generated_Source\PSoC5/cyfitter_cfg.c **** 	CY_SET_XTND_REG16((void CYFAR *)(CYREG_CLKDIST_DCFG0_CFG0), 0x0004u);
 179              		.loc 1 484 0
 180 0006 404B     		ldr	r3, .L11
 181 0008 0422     		movs	r2, #4
 182 000a 1A80     		strh	r2, [r3]	@ movhi
 485:Generated_Source\PSoC5/cyfitter_cfg.c **** 	CY_SET_XTND_REG8((void CYFAR *)(CYREG_CLKDIST_DCFG0_CFG0 + 0x2u), 0x18u);
 183              		.loc 1 485 0
 184 000c 3F4B     		ldr	r3, .L11+4
 185 000e 1822     		movs	r2, #24
 186 0010 1A70     		strb	r2, [r3]
 486:Generated_Source\PSoC5/cyfitter_cfg.c **** 	CY_SET_XTND_REG16((void CYFAR *)(CYREG_CLKDIST_DCFG1_CFG0), 0x0007u);
 187              		.loc 1 486 0
 188 0012 3F4B     		ldr	r3, .L11+8
 189 0014 0722     		movs	r2, #7
 190 0016 1A80     		strh	r2, [r3]	@ movhi
 487:Generated_Source\PSoC5/cyfitter_cfg.c **** 	CY_SET_XTND_REG8((void CYFAR *)(CYREG_CLKDIST_DCFG1_CFG0 + 0x2u), 0x18u);
 191              		.loc 1 487 0
 192 0018 3E4B     		ldr	r3, .L11+12
 193 001a 1822     		movs	r2, #24
 194 001c 1A70     		strb	r2, [r3]
 488:Generated_Source\PSoC5/cyfitter_cfg.c **** 	CY_SET_XTND_REG16((void CYFAR *)(CYREG_CLKDIST_DCFG2_CFG0), 0x0007u);
 195              		.loc 1 488 0
 196 001e 3E4B     		ldr	r3, .L11+16
ARM GAS  C:\Users\JEFFSN~1\AppData\Local\Temp\cch5Y03s.s 			page 13


 197 0020 0722     		movs	r2, #7
 198 0022 1A80     		strh	r2, [r3]	@ movhi
 489:Generated_Source\PSoC5/cyfitter_cfg.c **** 	CY_SET_XTND_REG8((void CYFAR *)(CYREG_CLKDIST_DCFG2_CFG0 + 0x2u), 0x18u);
 199              		.loc 1 489 0
 200 0024 3D4B     		ldr	r3, .L11+20
 201 0026 1822     		movs	r2, #24
 202 0028 1A70     		strb	r2, [r3]
 490:Generated_Source\PSoC5/cyfitter_cfg.c **** 	CY_SET_XTND_REG16((void CYFAR *)(CYREG_CLKDIST_DCFG3_CFG0), 0x0017u);
 203              		.loc 1 490 0
 204 002a 3D4B     		ldr	r3, .L11+24
 205 002c 1722     		movs	r2, #23
 206 002e 1A80     		strh	r2, [r3]	@ movhi
 491:Generated_Source\PSoC5/cyfitter_cfg.c **** 	CY_SET_XTND_REG8((void CYFAR *)(CYREG_CLKDIST_DCFG3_CFG0 + 0x2u), 0x18u);
 207              		.loc 1 491 0
 208 0030 3C4B     		ldr	r3, .L11+28
 209 0032 1822     		movs	r2, #24
 210 0034 1A70     		strb	r2, [r3]
 492:Generated_Source\PSoC5/cyfitter_cfg.c **** 	CY_SET_XTND_REG16((void CYFAR *)(CYREG_CLKDIST_DCFG4_CFG0), 0x0047u);
 211              		.loc 1 492 0
 212 0036 3C4B     		ldr	r3, .L11+32
 213 0038 4722     		movs	r2, #71
 214 003a 1A80     		strh	r2, [r3]	@ movhi
 493:Generated_Source\PSoC5/cyfitter_cfg.c **** 	CY_SET_XTND_REG8((void CYFAR *)(CYREG_CLKDIST_DCFG4_CFG0 + 0x2u), 0x18u);
 215              		.loc 1 493 0
 216 003c 3B4B     		ldr	r3, .L11+36
 217 003e 1822     		movs	r2, #24
 218 0040 1A70     		strb	r2, [r3]
 494:Generated_Source\PSoC5/cyfitter_cfg.c **** 	CY_SET_XTND_REG16((void CYFAR *)(CYREG_CLKDIST_DCFG5_CFG0), 0xFFFFu);
 219              		.loc 1 494 0
 220 0042 3B4B     		ldr	r3, .L11+40
 221 0044 4FF6FF72 		movw	r2, #65535
 222 0048 1A80     		strh	r2, [r3]	@ movhi
 495:Generated_Source\PSoC5/cyfitter_cfg.c **** 	CY_SET_XTND_REG8((void CYFAR *)(CYREG_CLKDIST_DCFG5_CFG0 + 0x2u), 0x19u);
 223              		.loc 1 495 0
 224 004a 3A4B     		ldr	r3, .L11+44
 225 004c 1922     		movs	r2, #25
 226 004e 1A70     		strb	r2, [r3]
 496:Generated_Source\PSoC5/cyfitter_cfg.c **** 
 497:Generated_Source\PSoC5/cyfitter_cfg.c **** 	/* Configure ILO based on settings from Clock DWR */
 498:Generated_Source\PSoC5/cyfitter_cfg.c **** 	CY_SET_XTND_REG8((void CYFAR *)(CYREG_SLOWCLK_ILO_CR0), 0x06u);
 227              		.loc 1 498 0
 228 0050 394B     		ldr	r3, .L11+48
 229 0052 0622     		movs	r2, #6
 230 0054 1A70     		strb	r2, [r3]
 499:Generated_Source\PSoC5/cyfitter_cfg.c **** 
 500:Generated_Source\PSoC5/cyfitter_cfg.c **** 	/* Configure IMO based on settings from Clock DWR */
 501:Generated_Source\PSoC5/cyfitter_cfg.c **** 	CY_SET_XTND_REG8((void CYFAR *)(CYREG_FASTCLK_IMO_CR), 0x52u);
 231              		.loc 1 501 0
 232 0056 394B     		ldr	r3, .L11+52
 233 0058 5222     		movs	r2, #82
 234 005a 1A70     		strb	r2, [r3]
 502:Generated_Source\PSoC5/cyfitter_cfg.c **** 	CY_SET_XTND_REG8((void CYFAR *)(CYREG_IMO_TR1), (CY_GET_XTND_REG8((void CYFAR *)CYREG_FLSHID_CUST_
 235              		.loc 1 502 0
 236 005c 384B     		ldr	r3, .L11+56
 237 005e 394A     		ldr	r2, .L11+60
 238 0060 1278     		ldrb	r2, [r2]
 239 0062 D2B2     		uxtb	r2, r2
ARM GAS  C:\Users\JEFFSN~1\AppData\Local\Temp\cch5Y03s.s 			page 14


 240 0064 1A70     		strb	r2, [r3]
 503:Generated_Source\PSoC5/cyfitter_cfg.c **** 
 504:Generated_Source\PSoC5/cyfitter_cfg.c **** 	/* Configure PLL based on settings from Clock DWR */
 505:Generated_Source\PSoC5/cyfitter_cfg.c **** 	CY_SET_XTND_REG16((void CYFAR *)(CYREG_FASTCLK_PLL_P), 0x071Au);
 241              		.loc 1 505 0
 242 0066 384B     		ldr	r3, .L11+64
 243 0068 40F21A72 		movw	r2, #1818
 244 006c 1A80     		strh	r2, [r3]	@ movhi
 506:Generated_Source\PSoC5/cyfitter_cfg.c **** 	CY_SET_XTND_REG16((void CYFAR *)(CYREG_FASTCLK_PLL_CFG0), 0x2251u);
 245              		.loc 1 506 0
 246 006e 374B     		ldr	r3, .L11+68
 247 0070 42F25122 		movw	r2, #8785
 248 0074 1A80     		strh	r2, [r3]	@ movhi
 507:Generated_Source\PSoC5/cyfitter_cfg.c **** 	/* Wait up to 250us for the PLL to lock */
 508:Generated_Source\PSoC5/cyfitter_cfg.c **** 	pllLock = 0u;
 249              		.loc 1 508 0
 250 0076 0023     		movs	r3, #0
 251 0078 FB70     		strb	r3, [r7, #3]
 509:Generated_Source\PSoC5/cyfitter_cfg.c **** 	for (timeout = 250u / 10u; (timeout > 0u) && (pllLock != 0x03u); timeout--)
 252              		.loc 1 509 0
 253 007a 1923     		movs	r3, #25
 254 007c 7B60     		str	r3, [r7, #4]
 255 007e 14E0     		b	.L7
 256              	.L9:
 510:Generated_Source\PSoC5/cyfitter_cfg.c **** 	{ 
 511:Generated_Source\PSoC5/cyfitter_cfg.c **** 		pllLock = 0x03u & ((uint8)((uint8)pllLock << 1) | ((CY_GET_XTND_REG8((void CYFAR *)CYREG_FASTCLK_
 257              		.loc 1 511 0 discriminator 4
 258 0080 FB78     		ldrb	r3, [r7, #3]
 259 0082 5B00     		lsls	r3, r3, #1
 260 0084 DAB2     		uxtb	r2, r3
 261 0086 324B     		ldr	r3, .L11+72
 262 0088 1B78     		ldrb	r3, [r3]
 263 008a DBB2     		uxtb	r3, r3
 264 008c 03F00103 		and	r3, r3, #1
 265 0090 DBB2     		uxtb	r3, r3
 266 0092 1343     		orrs	r3, r3, r2
 267 0094 DBB2     		uxtb	r3, r3
 268 0096 03F00303 		and	r3, r3, #3
 269 009a FB70     		strb	r3, [r7, #3]
 512:Generated_Source\PSoC5/cyfitter_cfg.c **** 		CyDelayCycles(10u * 48u); /* Delay 10us based on 48MHz clock */
 270              		.loc 1 512 0 discriminator 4
 271 009c 4FF4F070 		mov	r0, #480
 272 00a0 FFF7FEFF 		bl	CyDelayCycles
 509:Generated_Source\PSoC5/cyfitter_cfg.c **** 	for (timeout = 250u / 10u; (timeout > 0u) && (pllLock != 0x03u); timeout--)
 273              		.loc 1 509 0 discriminator 4
 274 00a4 7B68     		ldr	r3, [r7, #4]
 275 00a6 013B     		subs	r3, r3, #1
 276 00a8 7B60     		str	r3, [r7, #4]
 277              	.L7:
 509:Generated_Source\PSoC5/cyfitter_cfg.c **** 	for (timeout = 250u / 10u; (timeout > 0u) && (pllLock != 0x03u); timeout--)
 278              		.loc 1 509 0 is_stmt 0 discriminator 1
 279 00aa 7B68     		ldr	r3, [r7, #4]
 280 00ac 002B     		cmp	r3, #0
 281 00ae 02D0     		beq	.L8
 509:Generated_Source\PSoC5/cyfitter_cfg.c **** 	for (timeout = 250u / 10u; (timeout > 0u) && (pllLock != 0x03u); timeout--)
 282              		.loc 1 509 0 discriminator 3
 283 00b0 FB78     		ldrb	r3, [r7, #3]	@ zero_extendqisi2
ARM GAS  C:\Users\JEFFSN~1\AppData\Local\Temp\cch5Y03s.s 			page 15


 284 00b2 032B     		cmp	r3, #3
 285 00b4 E4D1     		bne	.L9
 286              	.L8:
 513:Generated_Source\PSoC5/cyfitter_cfg.c **** 	}
 514:Generated_Source\PSoC5/cyfitter_cfg.c **** 	/* If we ran out of time the PLL didn't lock so go to the error function */
 515:Generated_Source\PSoC5/cyfitter_cfg.c **** 	if (timeout == 0u)
 287              		.loc 1 515 0 is_stmt 1
 288 00b6 7B68     		ldr	r3, [r7, #4]
 289 00b8 002B     		cmp	r3, #0
 290 00ba 02D1     		bne	.L10
 516:Generated_Source\PSoC5/cyfitter_cfg.c **** 	{
 517:Generated_Source\PSoC5/cyfitter_cfg.c **** 		CyClockStartupError(CYCLOCKSTART_PLL_ERROR);
 291              		.loc 1 517 0
 292 00bc 0320     		movs	r0, #3
 293 00be FFF7FEFF 		bl	CyClockStartupError
 294              	.L10:
 518:Generated_Source\PSoC5/cyfitter_cfg.c **** 	}
 519:Generated_Source\PSoC5/cyfitter_cfg.c **** 
 520:Generated_Source\PSoC5/cyfitter_cfg.c **** 	/* Configure Bus/Master Clock based on settings from Clock DWR */
 521:Generated_Source\PSoC5/cyfitter_cfg.c **** 	CY_SET_XTND_REG16((void CYFAR *)(CYREG_CLKDIST_MSTR0), 0x0100u);
 295              		.loc 1 521 0
 296 00c2 244B     		ldr	r3, .L11+76
 297 00c4 4FF48072 		mov	r2, #256
 298 00c8 1A80     		strh	r2, [r3]	@ movhi
 522:Generated_Source\PSoC5/cyfitter_cfg.c **** 	CY_SET_XTND_REG8((void CYFAR *)(CYREG_CLKDIST_MSTR0), 0x07u);
 299              		.loc 1 522 0
 300 00ca 224B     		ldr	r3, .L11+76
 301 00cc 0722     		movs	r2, #7
 302 00ce 1A70     		strb	r2, [r3]
 523:Generated_Source\PSoC5/cyfitter_cfg.c **** 	CY_SET_XTND_REG8((void CYFAR *)(CYREG_CLKDIST_BCFG0), 0x00u);
 303              		.loc 1 523 0
 304 00d0 214B     		ldr	r3, .L11+80
 305 00d2 0022     		movs	r2, #0
 306 00d4 1A70     		strb	r2, [r3]
 524:Generated_Source\PSoC5/cyfitter_cfg.c **** 	CY_SET_XTND_REG8((void CYFAR *)(CYREG_CLKDIST_BCFG2), 0x48u);
 307              		.loc 1 524 0
 308 00d6 214B     		ldr	r3, .L11+84
 309 00d8 4822     		movs	r2, #72
 310 00da 1A70     		strb	r2, [r3]
 525:Generated_Source\PSoC5/cyfitter_cfg.c **** 	CY_SET_XTND_REG8((void CYFAR *)(CYREG_CLKDIST_MSTR0), 0x00u);
 311              		.loc 1 525 0
 312 00dc 1D4B     		ldr	r3, .L11+76
 313 00de 0022     		movs	r2, #0
 314 00e0 1A70     		strb	r2, [r3]
 526:Generated_Source\PSoC5/cyfitter_cfg.c **** 
 527:Generated_Source\PSoC5/cyfitter_cfg.c **** 	/* Configure USB Clock based on settings from Clock DWR */
 528:Generated_Source\PSoC5/cyfitter_cfg.c **** 	CY_SET_XTND_REG8((void CYFAR *)(CYREG_CLKDIST_UCFG), 0x00u);
 315              		.loc 1 528 0
 316 00e2 1F4B     		ldr	r3, .L11+88
 317 00e4 0022     		movs	r2, #0
 318 00e6 1A70     		strb	r2, [r3]
 529:Generated_Source\PSoC5/cyfitter_cfg.c **** 	CY_SET_XTND_REG8((void CYFAR *)(CYREG_CLKDIST_LD), 0x02u);
 319              		.loc 1 529 0
 320 00e8 1E4B     		ldr	r3, .L11+92
 321 00ea 0222     		movs	r2, #2
 322 00ec 1A70     		strb	r2, [r3]
 530:Generated_Source\PSoC5/cyfitter_cfg.c **** 
ARM GAS  C:\Users\JEFFSN~1\AppData\Local\Temp\cch5Y03s.s 			page 16


 531:Generated_Source\PSoC5/cyfitter_cfg.c **** 	CY_SET_XTND_REG8((void CYFAR *)(CYREG_PM_ACT_CFG2), ((CY_GET_XTND_REG8((void CYFAR *)CYREG_PM_ACT_
 323              		.loc 1 531 0
 324 00ee 1E4A     		ldr	r2, .L11+96
 325 00f0 1D4B     		ldr	r3, .L11+96
 326 00f2 1B78     		ldrb	r3, [r3]
 327 00f4 DBB2     		uxtb	r3, r3
 328 00f6 43F03F03 		orr	r3, r3, #63
 329 00fa DBB2     		uxtb	r3, r3
 330 00fc 1370     		strb	r3, [r2]
 532:Generated_Source\PSoC5/cyfitter_cfg.c **** }
 331              		.loc 1 532 0
 332 00fe 00BF     		nop
 333 0100 0837     		adds	r7, r7, #8
 334              		.cfi_def_cfa_offset 8
 335 0102 BD46     		mov	sp, r7
 336              		.cfi_def_cfa_register 13
 337              		@ sp needed
 338 0104 80BD     		pop	{r7, pc}
 339              	.L12:
 340 0106 00BF     		.align	2
 341              	.L11:
 342 0108 80400040 		.word	1073758336
 343 010c 82400040 		.word	1073758338
 344 0110 84400040 		.word	1073758340
 345 0114 86400040 		.word	1073758342
 346 0118 88400040 		.word	1073758344
 347 011c 8A400040 		.word	1073758346
 348 0120 8C400040 		.word	1073758348
 349 0124 8E400040 		.word	1073758350
 350 0128 90400040 		.word	1073758352
 351 012c 92400040 		.word	1073758354
 352 0130 94400040 		.word	1073758356
 353 0134 96400040 		.word	1073758358
 354 0138 00430040 		.word	1073758976
 355 013c 00420040 		.word	1073758720
 356 0140 A1460040 		.word	1073759905
 357 0144 0F010049 		.word	1224737039
 358 0148 22420040 		.word	1073758754
 359 014c 20420040 		.word	1073758752
 360 0150 25420040 		.word	1073758757
 361 0154 04400040 		.word	1073758212
 362 0158 06400040 		.word	1073758214
 363 015c 08400040 		.word	1073758216
 364 0160 09400040 		.word	1073758217
 365 0164 01400040 		.word	1073758209
 366 0168 A2430040 		.word	1073759138
 367              		.cfi_endproc
 368              	.LFE4:
 369              		.size	ClockSetup, .-ClockSetup
 370              		.section	.text.AnalogSetDefault,"ax",%progbits
 371              		.align	2
 372              		.thumb
 373              		.thumb_func
 374              		.type	AnalogSetDefault, %function
 375              	AnalogSetDefault:
 376              	.LFB5:
 533:Generated_Source\PSoC5/cyfitter_cfg.c **** 
ARM GAS  C:\Users\JEFFSN~1\AppData\Local\Temp\cch5Y03s.s 			page 17


 534:Generated_Source\PSoC5/cyfitter_cfg.c **** 
 535:Generated_Source\PSoC5/cyfitter_cfg.c **** /* Analog API Functions */
 536:Generated_Source\PSoC5/cyfitter_cfg.c **** 
 537:Generated_Source\PSoC5/cyfitter_cfg.c **** 
 538:Generated_Source\PSoC5/cyfitter_cfg.c **** /*******************************************************************************
 539:Generated_Source\PSoC5/cyfitter_cfg.c **** * Function Name: AnalogSetDefault
 540:Generated_Source\PSoC5/cyfitter_cfg.c **** ********************************************************************************
 541:Generated_Source\PSoC5/cyfitter_cfg.c **** *
 542:Generated_Source\PSoC5/cyfitter_cfg.c **** * Summary:
 543:Generated_Source\PSoC5/cyfitter_cfg.c **** *  Sets up the analog portions of the chip to default values based on chip
 544:Generated_Source\PSoC5/cyfitter_cfg.c **** *  configuration options from the project.
 545:Generated_Source\PSoC5/cyfitter_cfg.c **** *
 546:Generated_Source\PSoC5/cyfitter_cfg.c **** * Parameters:
 547:Generated_Source\PSoC5/cyfitter_cfg.c **** *  void
 548:Generated_Source\PSoC5/cyfitter_cfg.c **** *
 549:Generated_Source\PSoC5/cyfitter_cfg.c **** * Return:
 550:Generated_Source\PSoC5/cyfitter_cfg.c **** *  void
 551:Generated_Source\PSoC5/cyfitter_cfg.c **** *
 552:Generated_Source\PSoC5/cyfitter_cfg.c **** *******************************************************************************/
 553:Generated_Source\PSoC5/cyfitter_cfg.c **** static void AnalogSetDefault(void);
 554:Generated_Source\PSoC5/cyfitter_cfg.c **** static void AnalogSetDefault(void)
 555:Generated_Source\PSoC5/cyfitter_cfg.c **** {
 377              		.loc 1 555 0
 378              		.cfi_startproc
 379              		@ args = 0, pretend = 0, frame = 8
 380              		@ frame_needed = 1, uses_anonymous_args = 0
 381 0000 80B5     		push	{r7, lr}
 382              		.cfi_def_cfa_offset 8
 383              		.cfi_offset 7, -8
 384              		.cfi_offset 14, -4
 385 0002 82B0     		sub	sp, sp, #8
 386              		.cfi_def_cfa_offset 16
 387 0004 00AF     		add	r7, sp, #0
 388              		.cfi_def_cfa_register 7
 556:Generated_Source\PSoC5/cyfitter_cfg.c **** 	uint8 bg_xover_inl_trim = CY_GET_XTND_REG8((void CYFAR *)(CYREG_FLSHID_MFG_CFG_BG_XOVER_INL_TRIM +
 389              		.loc 1 556 0
 390 0006 1F4B     		ldr	r3, .L14
 391 0008 1B78     		ldrb	r3, [r3]
 392 000a FB71     		strb	r3, [r7, #7]
 557:Generated_Source\PSoC5/cyfitter_cfg.c **** 	uint8 cr4 = CY_GET_XTND_REG8((void CYFAR *)(CYREG_RESET_CR4));
 393              		.loc 1 557 0
 394 000c 1E4B     		ldr	r3, .L14+4
 395 000e 1B78     		ldrb	r3, [r3]
 396 0010 BB71     		strb	r3, [r7, #6]
 558:Generated_Source\PSoC5/cyfitter_cfg.c **** 	uint8 cr5 = CY_GET_XTND_REG8((void CYFAR *)(CYREG_RESET_CR5));
 397              		.loc 1 558 0
 398 0012 1E4B     		ldr	r3, .L14+8
 399 0014 1B78     		ldrb	r3, [r3]
 400 0016 7B71     		strb	r3, [r7, #5]
 559:Generated_Source\PSoC5/cyfitter_cfg.c **** 	CY_SET_XTND_REG8((void CYFAR *)(CYREG_BG_DFT0), (bg_xover_inl_trim & 0x07u));
 401              		.loc 1 559 0
 402 0018 1D4A     		ldr	r2, .L14+12
 403 001a FB79     		ldrb	r3, [r7, #7]
 404 001c 03F00703 		and	r3, r3, #7
 405 0020 DBB2     		uxtb	r3, r3
 406 0022 1370     		strb	r3, [r2]
 560:Generated_Source\PSoC5/cyfitter_cfg.c **** 	CY_SET_XTND_REG8((void CYFAR *)(CYREG_BG_DFT1), ((bg_xover_inl_trim >> 4) & 0x0Fu));
ARM GAS  C:\Users\JEFFSN~1\AppData\Local\Temp\cch5Y03s.s 			page 18


 407              		.loc 1 560 0
 408 0024 1B4A     		ldr	r2, .L14+16
 409 0026 FB79     		ldrb	r3, [r7, #7]	@ zero_extendqisi2
 410 0028 1B09     		lsrs	r3, r3, #4
 411 002a DBB2     		uxtb	r3, r3
 412 002c 1370     		strb	r3, [r2]
 561:Generated_Source\PSoC5/cyfitter_cfg.c **** 	/* Disable PRES while setting up SAR voltage reference */
 562:Generated_Source\PSoC5/cyfitter_cfg.c **** 	CY_SET_XTND_REG8((void CYFAR *)(CYREG_RESET_CR4), (cr4 | 0x03u));
 413              		.loc 1 562 0
 414 002e 164A     		ldr	r2, .L14+4
 415 0030 BB79     		ldrb	r3, [r7, #6]
 416 0032 43F00303 		orr	r3, r3, #3
 417 0036 DBB2     		uxtb	r3, r3
 418 0038 1370     		strb	r3, [r2]
 563:Generated_Source\PSoC5/cyfitter_cfg.c **** 	CY_SET_XTND_REG8((void CYFAR *)(CYREG_RESET_CR5), (cr5 | 0x03u));
 419              		.loc 1 563 0
 420 003a 144A     		ldr	r2, .L14+8
 421 003c 7B79     		ldrb	r3, [r7, #5]
 422 003e 43F00303 		orr	r3, r3, #3
 423 0042 DBB2     		uxtb	r3, r3
 424 0044 1370     		strb	r3, [r2]
 564:Generated_Source\PSoC5/cyfitter_cfg.c **** 	CY_SET_XTND_REG8((void CYFAR *)CYREG_PRT0_AG, 0x0Fu);
 425              		.loc 1 564 0
 426 0046 144B     		ldr	r3, .L14+20
 427 0048 0F22     		movs	r2, #15
 428 004a 1A70     		strb	r2, [r3]
 565:Generated_Source\PSoC5/cyfitter_cfg.c **** 	CY_SET_XTND_REG8((void CYFAR *)CYREG_SAR0_CSR1, 0x40u);
 429              		.loc 1 565 0
 430 004c 134B     		ldr	r3, .L14+24
 431 004e 4022     		movs	r2, #64
 432 0050 1A70     		strb	r2, [r3]
 566:Generated_Source\PSoC5/cyfitter_cfg.c **** 	CY_SET_XTND_REG8((void CYFAR *)CYREG_SAR0_CSR3, 0x40u);
 433              		.loc 1 566 0
 434 0052 134B     		ldr	r3, .L14+28
 435 0054 4022     		movs	r2, #64
 436 0056 1A70     		strb	r2, [r3]
 567:Generated_Source\PSoC5/cyfitter_cfg.c **** 	CY_SET_XTND_REG8((void CYFAR *)CYREG_SAR0_SW0, 0xF0u);
 437              		.loc 1 567 0
 438 0058 124B     		ldr	r3, .L14+32
 439 005a F022     		movs	r2, #240
 440 005c 1A70     		strb	r2, [r3]
 568:Generated_Source\PSoC5/cyfitter_cfg.c **** 	CY_SET_XTND_REG8((void CYFAR *)CYREG_SAR0_SW3, 0x20u);
 441              		.loc 1 568 0
 442 005e 124B     		ldr	r3, .L14+36
 443 0060 2022     		movs	r2, #32
 444 0062 1A70     		strb	r2, [r3]
 569:Generated_Source\PSoC5/cyfitter_cfg.c **** 	CyDelayUs(10u); /* Allow vref to settle before re-enabling PRES */
 445              		.loc 1 569 0
 446 0064 0A20     		movs	r0, #10
 447 0066 FFF7FEFF 		bl	CyDelayUs
 570:Generated_Source\PSoC5/cyfitter_cfg.c **** 	CY_SET_XTND_REG8((void CYFAR *)(CYREG_RESET_CR5), (cr5));
 448              		.loc 1 570 0
 449 006a 084A     		ldr	r2, .L14+8
 450 006c 7B79     		ldrb	r3, [r7, #5]
 451 006e 1370     		strb	r3, [r2]
 571:Generated_Source\PSoC5/cyfitter_cfg.c **** 	CY_SET_XTND_REG8((void CYFAR *)(CYREG_RESET_CR4), (cr4));
 452              		.loc 1 571 0
ARM GAS  C:\Users\JEFFSN~1\AppData\Local\Temp\cch5Y03s.s 			page 19


 453 0070 054A     		ldr	r2, .L14+4
 454 0072 BB79     		ldrb	r3, [r7, #6]
 455 0074 1370     		strb	r3, [r2]
 572:Generated_Source\PSoC5/cyfitter_cfg.c **** 	CY_SET_XTND_REG8((void CYFAR *)CYREG_PUMP_CR0, 0x66u);
 456              		.loc 1 572 0
 457 0076 0D4B     		ldr	r3, .L14+40
 458 0078 6622     		movs	r2, #102
 459 007a 1A70     		strb	r2, [r3]
 573:Generated_Source\PSoC5/cyfitter_cfg.c **** }
 460              		.loc 1 573 0
 461 007c 00BF     		nop
 462 007e 0837     		adds	r7, r7, #8
 463              		.cfi_def_cfa_offset 8
 464 0080 BD46     		mov	sp, r7
 465              		.cfi_def_cfa_register 13
 466              		@ sp needed
 467 0082 80BD     		pop	{r7, pc}
 468              	.L15:
 469              		.align	2
 470              	.L14:
 471 0084 CF010049 		.word	1224737231
 472 0088 F8460040 		.word	1073759992
 473 008c F9460040 		.word	1073759993
 474 0090 6E580040 		.word	1073764462
 475 0094 6F580040 		.word	1073764463
 476 0098 0D510040 		.word	1073762573
 477 009c 01590040 		.word	1073764609
 478 00a0 03590040 		.word	1073764611
 479 00a4 205B0040 		.word	1073765152
 480 00a8 235B0040 		.word	1073765155
 481 00ac 76580040 		.word	1073764470
 482              		.cfi_endproc
 483              	.LFE5:
 484              		.size	AnalogSetDefault, .-AnalogSetDefault
 485              		.section	.text.SetAnalogRoutingPumps,"ax",%progbits
 486              		.align	2
 487              		.global	SetAnalogRoutingPumps
 488              		.thumb
 489              		.thumb_func
 490              		.type	SetAnalogRoutingPumps, %function
 491              	SetAnalogRoutingPumps:
 492              	.LFB6:
 574:Generated_Source\PSoC5/cyfitter_cfg.c **** 
 575:Generated_Source\PSoC5/cyfitter_cfg.c **** 
 576:Generated_Source\PSoC5/cyfitter_cfg.c **** /*******************************************************************************
 577:Generated_Source\PSoC5/cyfitter_cfg.c **** * Function Name: SetAnalogRoutingPumps
 578:Generated_Source\PSoC5/cyfitter_cfg.c **** ********************************************************************************
 579:Generated_Source\PSoC5/cyfitter_cfg.c **** *
 580:Generated_Source\PSoC5/cyfitter_cfg.c **** * Summary:
 581:Generated_Source\PSoC5/cyfitter_cfg.c **** * Enables or disables the analog pumps feeding analog routing switches.
 582:Generated_Source\PSoC5/cyfitter_cfg.c **** * Intended to be called at startup, based on the Vdda system configuration;
 583:Generated_Source\PSoC5/cyfitter_cfg.c **** * may be called during operation when the user informs us that the Vdda voltage
 584:Generated_Source\PSoC5/cyfitter_cfg.c **** * crossed the pump threshold.
 585:Generated_Source\PSoC5/cyfitter_cfg.c **** *
 586:Generated_Source\PSoC5/cyfitter_cfg.c **** * Parameters:
 587:Generated_Source\PSoC5/cyfitter_cfg.c **** *  enabled - 1 to enable the pumps, 0 to disable the pumps
 588:Generated_Source\PSoC5/cyfitter_cfg.c **** *
ARM GAS  C:\Users\JEFFSN~1\AppData\Local\Temp\cch5Y03s.s 			page 20


 589:Generated_Source\PSoC5/cyfitter_cfg.c **** * Return:
 590:Generated_Source\PSoC5/cyfitter_cfg.c **** *  void
 591:Generated_Source\PSoC5/cyfitter_cfg.c **** *
 592:Generated_Source\PSoC5/cyfitter_cfg.c **** *******************************************************************************/
 593:Generated_Source\PSoC5/cyfitter_cfg.c **** void SetAnalogRoutingPumps(uint8 enabled)
 594:Generated_Source\PSoC5/cyfitter_cfg.c **** {
 493              		.loc 1 594 0
 494              		.cfi_startproc
 495              		@ args = 0, pretend = 0, frame = 16
 496              		@ frame_needed = 1, uses_anonymous_args = 0
 497              		@ link register save eliminated.
 498 0000 80B4     		push	{r7}
 499              		.cfi_def_cfa_offset 4
 500              		.cfi_offset 7, -4
 501 0002 85B0     		sub	sp, sp, #20
 502              		.cfi_def_cfa_offset 24
 503 0004 00AF     		add	r7, sp, #0
 504              		.cfi_def_cfa_register 7
 505 0006 0346     		mov	r3, r0
 506 0008 FB71     		strb	r3, [r7, #7]
 595:Generated_Source\PSoC5/cyfitter_cfg.c **** 	uint8 regValue = CY_GET_XTND_REG8((void CYFAR *)CYREG_PUMP_CR0);
 507              		.loc 1 595 0
 508 000a 0B4B     		ldr	r3, .L19
 509 000c 1B78     		ldrb	r3, [r3]
 510 000e FB73     		strb	r3, [r7, #15]
 596:Generated_Source\PSoC5/cyfitter_cfg.c **** 	if (enabled != 0u)
 511              		.loc 1 596 0
 512 0010 FB79     		ldrb	r3, [r7, #7]	@ zero_extendqisi2
 513 0012 002B     		cmp	r3, #0
 514 0014 04D0     		beq	.L17
 597:Generated_Source\PSoC5/cyfitter_cfg.c **** 	{
 598:Generated_Source\PSoC5/cyfitter_cfg.c **** 		regValue |= 0x22u;
 515              		.loc 1 598 0
 516 0016 FB7B     		ldrb	r3, [r7, #15]
 517 0018 43F02203 		orr	r3, r3, #34
 518 001c FB73     		strb	r3, [r7, #15]
 519 001e 03E0     		b	.L18
 520              	.L17:
 599:Generated_Source\PSoC5/cyfitter_cfg.c **** 	}
 600:Generated_Source\PSoC5/cyfitter_cfg.c **** 	else
 601:Generated_Source\PSoC5/cyfitter_cfg.c **** 	{
 602:Generated_Source\PSoC5/cyfitter_cfg.c **** 		regValue &= (uint8)~0x22u;
 521              		.loc 1 602 0
 522 0020 FB7B     		ldrb	r3, [r7, #15]
 523 0022 23F02203 		bic	r3, r3, #34
 524 0026 FB73     		strb	r3, [r7, #15]
 525              	.L18:
 603:Generated_Source\PSoC5/cyfitter_cfg.c **** 	}
 604:Generated_Source\PSoC5/cyfitter_cfg.c **** 	CY_SET_XTND_REG8((void CYFAR *)CYREG_PUMP_CR0, regValue);
 526              		.loc 1 604 0
 527 0028 034A     		ldr	r2, .L19
 528 002a FB7B     		ldrb	r3, [r7, #15]
 529 002c 1370     		strb	r3, [r2]
 605:Generated_Source\PSoC5/cyfitter_cfg.c **** }
 530              		.loc 1 605 0
 531 002e 00BF     		nop
 532 0030 1437     		adds	r7, r7, #20
ARM GAS  C:\Users\JEFFSN~1\AppData\Local\Temp\cch5Y03s.s 			page 21


 533              		.cfi_def_cfa_offset 4
 534 0032 BD46     		mov	sp, r7
 535              		.cfi_def_cfa_register 13
 536              		@ sp needed
 537 0034 80BC     		pop	{r7}
 538              		.cfi_restore 7
 539              		.cfi_def_cfa_offset 0
 540 0036 7047     		bx	lr
 541              	.L20:
 542              		.align	2
 543              	.L19:
 544 0038 76580040 		.word	1073764470
 545              		.cfi_endproc
 546              	.LFE6:
 547              		.size	SetAnalogRoutingPumps, .-SetAnalogRoutingPumps
 548              		.section	.text.cyfitter_cfg,"ax",%progbits
 549              		.align	2
 550              		.global	cyfitter_cfg
 551              		.thumb
 552              		.thumb_func
 553              		.type	cyfitter_cfg, %function
 554              	cyfitter_cfg:
 555              	.LFB7:
 606:Generated_Source\PSoC5/cyfitter_cfg.c **** 
 607:Generated_Source\PSoC5/cyfitter_cfg.c **** 
 608:Generated_Source\PSoC5/cyfitter_cfg.c **** #define CY_AMUX_UNUSED CYREG_BOOST_SR
 609:Generated_Source\PSoC5/cyfitter_cfg.c **** 
 610:Generated_Source\PSoC5/cyfitter_cfg.c **** 
 611:Generated_Source\PSoC5/cyfitter_cfg.c **** /*******************************************************************************
 612:Generated_Source\PSoC5/cyfitter_cfg.c **** * Function Name: cyfitter_cfg
 613:Generated_Source\PSoC5/cyfitter_cfg.c **** ********************************************************************************
 614:Generated_Source\PSoC5/cyfitter_cfg.c **** * Summary:
 615:Generated_Source\PSoC5/cyfitter_cfg.c **** *  This function is called by the start-up code for the selected device. It
 616:Generated_Source\PSoC5/cyfitter_cfg.c **** *  performs all of the necessary device configuration based on the design
 617:Generated_Source\PSoC5/cyfitter_cfg.c **** *  settings.  This includes settings from the Design Wide Resources (DWR) such
 618:Generated_Source\PSoC5/cyfitter_cfg.c **** *  as Clocks and Pins as well as any component configuration that is necessary.
 619:Generated_Source\PSoC5/cyfitter_cfg.c **** *
 620:Generated_Source\PSoC5/cyfitter_cfg.c **** * Parameters:
 621:Generated_Source\PSoC5/cyfitter_cfg.c **** *   void
 622:Generated_Source\PSoC5/cyfitter_cfg.c **** *
 623:Generated_Source\PSoC5/cyfitter_cfg.c **** * Return:
 624:Generated_Source\PSoC5/cyfitter_cfg.c **** *   void
 625:Generated_Source\PSoC5/cyfitter_cfg.c **** *
 626:Generated_Source\PSoC5/cyfitter_cfg.c **** *******************************************************************************/
 627:Generated_Source\PSoC5/cyfitter_cfg.c **** 
 628:Generated_Source\PSoC5/cyfitter_cfg.c **** void cyfitter_cfg(void)
 629:Generated_Source\PSoC5/cyfitter_cfg.c **** {
 556              		.loc 1 629 0
 557              		.cfi_startproc
 558              		@ args = 0, pretend = 0, frame = 24
 559              		@ frame_needed = 1, uses_anonymous_args = 0
 560 0000 80B5     		push	{r7, lr}
 561              		.cfi_def_cfa_offset 8
 562              		.cfi_offset 7, -8
 563              		.cfi_offset 14, -4
 564 0002 86B0     		sub	sp, sp, #24
 565              		.cfi_def_cfa_offset 32
ARM GAS  C:\Users\JEFFSN~1\AppData\Local\Temp\cch5Y03s.s 			page 22


 566 0004 00AF     		add	r7, sp, #0
 567              		.cfi_def_cfa_register 7
 630:Generated_Source\PSoC5/cyfitter_cfg.c **** #ifdef CYGlobalIntDisable
 631:Generated_Source\PSoC5/cyfitter_cfg.c **** 	/* Disable interrupts by default. Let user enable if/when they want. */
 632:Generated_Source\PSoC5/cyfitter_cfg.c **** 	CYGlobalIntDisable
 568              		.loc 1 632 0
 569              		.syntax unified
 570              	@ 632 "Generated_Source\PSoC5\cyfitter_cfg.c" 1
 571 0006 72B6     		CPSID   i
 572              	@ 0 "" 2
 633:Generated_Source\PSoC5/cyfitter_cfg.c **** #endif
 634:Generated_Source\PSoC5/cyfitter_cfg.c **** 
 635:Generated_Source\PSoC5/cyfitter_cfg.c **** 
 636:Generated_Source\PSoC5/cyfitter_cfg.c **** 	/* Set Flash Cycles based on max possible frequency in case a glitch occurs during ClockSetup(). *
 637:Generated_Source\PSoC5/cyfitter_cfg.c **** 	CY_SET_XTND_REG8((void CYFAR *)(CYREG_CACHE_CC_CTL), (((CYDEV_INSTRUCT_CACHE_ENABLED) != 0) ? 0x61
 573              		.loc 1 637 0
 574              		.thumb
 575              		.syntax unified
 576 0008 774B     		ldr	r3, .L26
 577 000a 6122     		movs	r2, #97
 578 000c 1A70     		strb	r2, [r3]
 638:Generated_Source\PSoC5/cyfitter_cfg.c **** 	/* Setup clocks based on selections from Clock DWR */
 639:Generated_Source\PSoC5/cyfitter_cfg.c **** 	ClockSetup();
 579              		.loc 1 639 0
 580 000e FFF7FEFF 		bl	ClockSetup
 581              	.LBB2:
 640:Generated_Source\PSoC5/cyfitter_cfg.c **** 	{
 641:Generated_Source\PSoC5/cyfitter_cfg.c **** 
 642:Generated_Source\PSoC5/cyfitter_cfg.c **** 		CYPACKED typedef struct {
 643:Generated_Source\PSoC5/cyfitter_cfg.c **** 			void CYFAR *address;
 644:Generated_Source\PSoC5/cyfitter_cfg.c **** 			uint16 size;
 645:Generated_Source\PSoC5/cyfitter_cfg.c **** 		} CYPACKED_ATTR cfg_memset_t;
 646:Generated_Source\PSoC5/cyfitter_cfg.c **** 
 647:Generated_Source\PSoC5/cyfitter_cfg.c **** 
 648:Generated_Source\PSoC5/cyfitter_cfg.c **** 		CYPACKED typedef struct {
 649:Generated_Source\PSoC5/cyfitter_cfg.c **** 			void CYFAR *dest;
 650:Generated_Source\PSoC5/cyfitter_cfg.c **** 			const void CYFAR *src;
 651:Generated_Source\PSoC5/cyfitter_cfg.c **** 			uint16 size;
 652:Generated_Source\PSoC5/cyfitter_cfg.c **** 		} CYPACKED_ATTR cfg_memcpy_t;
 653:Generated_Source\PSoC5/cyfitter_cfg.c **** 
 654:Generated_Source\PSoC5/cyfitter_cfg.c **** 		static const cfg_memset_t CYCODE cfg_memset_list[] = {
 655:Generated_Source\PSoC5/cyfitter_cfg.c **** 			/* address, size */
 656:Generated_Source\PSoC5/cyfitter_cfg.c **** 			{(void CYFAR *)(CYDEV_UCFG_DSI3_BASE), 128u},
 657:Generated_Source\PSoC5/cyfitter_cfg.c **** 		};
 658:Generated_Source\PSoC5/cyfitter_cfg.c **** 
 659:Generated_Source\PSoC5/cyfitter_cfg.c **** 		static const cfg_memcpy_t CYCODE cfg_memcpy_list [] = {
 660:Generated_Source\PSoC5/cyfitter_cfg.c **** 			/* dest, src, size */
 661:Generated_Source\PSoC5/cyfitter_cfg.c **** 			{(void CYFAR *)(CYREG_IDMUX_DRQ_CTL0), BS_IDMUX_VAL, 6u},
 662:Generated_Source\PSoC5/cyfitter_cfg.c **** 			{(void CYFAR *)(CYDEV_PRTDSI_PRT0_BASE), BS_IOPORT_0_VAL, 7u},
 663:Generated_Source\PSoC5/cyfitter_cfg.c **** 			{(void CYFAR *)(CYDEV_PRTDSI_PRT3_BASE), BS_IOPORT_3_VAL, 7u},
 664:Generated_Source\PSoC5/cyfitter_cfg.c **** 			{(void CYFAR *)(CYDEV_PRTDSI_PRT4_BASE), BS_IOPORT_4_VAL, 7u},
 665:Generated_Source\PSoC5/cyfitter_cfg.c **** 			{(void CYFAR *)(CYDEV_PICU_INTTYPE_PICU4_BASE), BS_PICU_4_VAL, 8u},
 666:Generated_Source\PSoC5/cyfitter_cfg.c **** 			{(void CYFAR *)(CYDEV_PRTDSI_PRT5_BASE), BS_IOPORT_5_VAL, 7u},
 667:Generated_Source\PSoC5/cyfitter_cfg.c **** 			{(void CYFAR *)(CYDEV_PICU_INTTYPE_PICU12_BASE), BS_PICU_7_VAL, 8u},
 668:Generated_Source\PSoC5/cyfitter_cfg.c **** 			{(void CYFAR *)(CYDEV_PRTDSI_PRT15_BASE), BS_IOPORT_8_VAL, 7u},
 669:Generated_Source\PSoC5/cyfitter_cfg.c **** 			{(void CYFAR *)(CYDEV_PICU_INTTYPE_PICU15_BASE), BS_PICU_8_VAL, 8u},
 670:Generated_Source\PSoC5/cyfitter_cfg.c **** 			{(void CYFAR *)(CYREG_IDMUX_IRQ_CTL0), BS_IDMUX_IRQ_VAL, 8u},
ARM GAS  C:\Users\JEFFSN~1\AppData\Local\Temp\cch5Y03s.s 			page 23


 671:Generated_Source\PSoC5/cyfitter_cfg.c **** 			{(void CYFAR *)(CYREG_SAR0_SW0), BS_SAR0_VAL, 8u},
 672:Generated_Source\PSoC5/cyfitter_cfg.c **** 			{(void CYFAR *)(CYDEV_UCFG_B0_P0_U0_BASE), BS_UDB_1_5_0_CONFIG_VAL, 128u},
 673:Generated_Source\PSoC5/cyfitter_cfg.c **** 			{(void CYFAR *)(CYDEV_UCFG_B0_P0_U1_BASE), BS_UDB_1_5_1_CONFIG_VAL, 128u},
 674:Generated_Source\PSoC5/cyfitter_cfg.c **** 			{(void CYFAR *)(CYDEV_UCFG_B0_P1_U0_BASE), BS_UDB_1_4_1_CONFIG_VAL, 128u},
 675:Generated_Source\PSoC5/cyfitter_cfg.c **** 			{(void CYFAR *)(CYDEV_UCFG_B0_P1_U1_BASE), BS_UDB_1_4_0_CONFIG_VAL, 128u},
 676:Generated_Source\PSoC5/cyfitter_cfg.c **** 			{(void CYFAR *)(CYDEV_UCFG_B0_P2_U0_BASE), BS_UDB_1_3_0_CONFIG_VAL, 128u},
 677:Generated_Source\PSoC5/cyfitter_cfg.c **** 			{(void CYFAR *)(CYDEV_UCFG_B0_P2_U1_BASE), BS_UDB_1_3_1_CONFIG_VAL, 128u},
 678:Generated_Source\PSoC5/cyfitter_cfg.c **** 			{(void CYFAR *)(CYDEV_UCFG_B0_P3_U0_BASE), BS_UDB_1_2_1_CONFIG_VAL, 128u},
 679:Generated_Source\PSoC5/cyfitter_cfg.c **** 			{(void CYFAR *)(CYDEV_UCFG_B0_P3_U1_BASE), BS_UDB_1_2_0_CONFIG_VAL, 128u},
 680:Generated_Source\PSoC5/cyfitter_cfg.c **** 			{(void CYFAR *)(CYDEV_UCFG_B0_P4_U0_BASE), BS_UDB_0_2_1_CONFIG_VAL, 128u},
 681:Generated_Source\PSoC5/cyfitter_cfg.c **** 			{(void CYFAR *)(CYDEV_UCFG_B0_P4_U1_BASE), BS_UDB_0_2_0_CONFIG_VAL, 128u},
 682:Generated_Source\PSoC5/cyfitter_cfg.c **** 			{(void CYFAR *)(CYDEV_UCFG_B0_P5_U0_BASE), BS_UDB_0_3_0_CONFIG_VAL, 128u},
 683:Generated_Source\PSoC5/cyfitter_cfg.c **** 			{(void CYFAR *)(CYDEV_UCFG_B0_P5_U1_BASE), BS_UDB_0_3_1_CONFIG_VAL, 128u},
 684:Generated_Source\PSoC5/cyfitter_cfg.c **** 			{(void CYFAR *)(CYDEV_UCFG_B0_P6_U0_BASE), BS_UDB_0_4_1_CONFIG_VAL, 128u},
 685:Generated_Source\PSoC5/cyfitter_cfg.c **** 			{(void CYFAR *)(CYDEV_UCFG_B0_P6_U1_BASE), BS_UDB_0_4_0_CONFIG_VAL, 128u},
 686:Generated_Source\PSoC5/cyfitter_cfg.c **** 			{(void CYFAR *)(CYDEV_UCFG_B0_P7_U0_BASE), BS_UDB_0_5_0_CONFIG_VAL, 128u},
 687:Generated_Source\PSoC5/cyfitter_cfg.c **** 			{(void CYFAR *)(CYDEV_UCFG_B0_P7_U1_BASE), BS_UDB_0_5_1_CONFIG_VAL, 128u},
 688:Generated_Source\PSoC5/cyfitter_cfg.c **** 			{(void CYFAR *)(CYDEV_UCFG_B1_P2_U0_BASE), BS_UDB_1_0_0_CONFIG_VAL, 128u},
 689:Generated_Source\PSoC5/cyfitter_cfg.c **** 			{(void CYFAR *)(CYDEV_UCFG_B1_P2_U1_BASE), BS_UDB_1_0_1_CONFIG_VAL, 128u},
 690:Generated_Source\PSoC5/cyfitter_cfg.c **** 			{(void CYFAR *)(CYDEV_UCFG_B1_P3_U0_BASE), BS_UDB_1_1_1_CONFIG_VAL, 128u},
 691:Generated_Source\PSoC5/cyfitter_cfg.c **** 			{(void CYFAR *)(CYDEV_UCFG_B1_P3_U1_BASE), BS_UDB_1_1_0_CONFIG_VAL, 128u},
 692:Generated_Source\PSoC5/cyfitter_cfg.c **** 			{(void CYFAR *)(CYDEV_UCFG_B1_P4_U0_BASE), BS_UDB_0_1_1_CONFIG_VAL, 128u},
 693:Generated_Source\PSoC5/cyfitter_cfg.c **** 			{(void CYFAR *)(CYDEV_UCFG_B1_P4_U1_BASE), BS_UDB_0_1_0_CONFIG_VAL, 128u},
 694:Generated_Source\PSoC5/cyfitter_cfg.c **** 			{(void CYFAR *)(CYDEV_UCFG_B1_P5_U0_BASE), BS_UDB_0_0_0_CONFIG_VAL, 128u},
 695:Generated_Source\PSoC5/cyfitter_cfg.c **** 			{(void CYFAR *)(CYDEV_UCFG_B1_P5_U1_BASE), BS_UDB_0_0_1_CONFIG_VAL, 128u},
 696:Generated_Source\PSoC5/cyfitter_cfg.c **** 			{(void CYFAR *)(CYDEV_UWRK_UWRK8_B0_BASE), BS_UWRK_B0_WRK_DP_BITS_VAL, 64u},
 697:Generated_Source\PSoC5/cyfitter_cfg.c **** 			{(void CYFAR *)(CYDEV_UWRK_UWRK8_B0_BASE + 0x00000070u), BS_UWRK_B0_WRK_STATCTL_BITS_VAL, 32u},
 698:Generated_Source\PSoC5/cyfitter_cfg.c **** 			{(void CYFAR *)(CYDEV_UWRK_UWRK8_B1_BASE + 0x00000070u), BS_UWRK_B1_WRK_STATCTL_BITS_VAL, 32u},
 699:Generated_Source\PSoC5/cyfitter_cfg.c **** 			{(void CYFAR *)(CYREG_BCTL1_MDCLK_EN), BS_UCFG_BCTL1_VAL, 16u},
 700:Generated_Source\PSoC5/cyfitter_cfg.c **** 			{(void CYFAR *)(CYREG_BCTL0_MDCLK_EN), BS_UCFG_BCTL0_VAL, 16u},
 701:Generated_Source\PSoC5/cyfitter_cfg.c **** 			{(void CYFAR *)(CYDEV_UCFG_DSI13_BASE), BS_DSISWITCH_0_0_VAL, 128u},
 702:Generated_Source\PSoC5/cyfitter_cfg.c **** 			{(void CYFAR *)(CYDEV_UCFG_DSI13_BASE + 0x00000080u), BS_DSI0_0_HV_ROUTING_VAL, 128u},
 703:Generated_Source\PSoC5/cyfitter_cfg.c **** 			{(void CYFAR *)(CYDEV_UCFG_DSI12_BASE), BS_DSISWITCH_0_1_VAL, 128u},
 704:Generated_Source\PSoC5/cyfitter_cfg.c **** 			{(void CYFAR *)(CYDEV_UCFG_DSI12_BASE + 0x00000080u), BS_DSI0_1_HV_ROUTING_VAL, 128u},
 705:Generated_Source\PSoC5/cyfitter_cfg.c **** 			{(void CYFAR *)(CYDEV_UCFG_DSI7_BASE), BS_DSISWITCH_0_2_VAL, 128u},
 706:Generated_Source\PSoC5/cyfitter_cfg.c **** 			{(void CYFAR *)(CYDEV_UCFG_DSI7_BASE + 0x00000080u), BS_DSI0_2_HV_ROUTING_VAL, 128u},
 707:Generated_Source\PSoC5/cyfitter_cfg.c **** 			{(void CYFAR *)(CYDEV_UCFG_DSI6_BASE), BS_DSISWITCH_0_3_VAL, 128u},
 708:Generated_Source\PSoC5/cyfitter_cfg.c **** 			{(void CYFAR *)(CYDEV_UCFG_DSI6_BASE + 0x00000080u), BS_DSI0_3_HV_ROUTING_VAL, 128u},
 709:Generated_Source\PSoC5/cyfitter_cfg.c **** 			{(void CYFAR *)(CYDEV_UCFG_DSI5_BASE), BS_DSISWITCH_0_4_VAL, 128u},
 710:Generated_Source\PSoC5/cyfitter_cfg.c **** 			{(void CYFAR *)(CYDEV_UCFG_DSI5_BASE + 0x00000080u), BS_DSI0_4_HV_ROUTING_VAL, 128u},
 711:Generated_Source\PSoC5/cyfitter_cfg.c **** 			{(void CYFAR *)(CYDEV_UCFG_DSI4_BASE), BS_DSISWITCH_0_5_VAL, 128u},
 712:Generated_Source\PSoC5/cyfitter_cfg.c **** 			{(void CYFAR *)(CYDEV_UCFG_DSI4_BASE + 0x00000080u), BS_DSI0_5_HV_ROUTING_VAL, 128u},
 713:Generated_Source\PSoC5/cyfitter_cfg.c **** 			{(void CYFAR *)(CYDEV_UCFG_B1_P5_ROUTE_BASE), BS_UDBSWITCH_0_0_VAL, 128u},
 714:Generated_Source\PSoC5/cyfitter_cfg.c **** 			{(void CYFAR *)(CYDEV_UCFG_B1_P5_ROUTE_BASE + 0x00000080u), BS_UDB_1_0_HV_ROUTING_VAL, 128u},
 715:Generated_Source\PSoC5/cyfitter_cfg.c **** 			{(void CYFAR *)(CYDEV_UCFG_B1_P2_ROUTE_BASE), BS_UDBSWITCH_1_0_VAL, 128u},
 716:Generated_Source\PSoC5/cyfitter_cfg.c **** 			{(void CYFAR *)(CYDEV_UCFG_B1_P2_ROUTE_BASE + 0x00000080u), BS_UDB_2_0_HV_ROUTING_VAL, 128u},
 717:Generated_Source\PSoC5/cyfitter_cfg.c **** 			{(void CYFAR *)(CYDEV_UCFG_B1_P4_ROUTE_BASE), BS_UDBSWITCH_0_1_VAL, 128u},
 718:Generated_Source\PSoC5/cyfitter_cfg.c **** 			{(void CYFAR *)(CYDEV_UCFG_B1_P4_ROUTE_BASE + 0x00000080u), BS_UDB_1_1_HV_ROUTING_VAL, 128u},
 719:Generated_Source\PSoC5/cyfitter_cfg.c **** 			{(void CYFAR *)(CYDEV_UCFG_B1_P3_ROUTE_BASE), BS_UDBSWITCH_1_1_VAL, 128u},
 720:Generated_Source\PSoC5/cyfitter_cfg.c **** 			{(void CYFAR *)(CYDEV_UCFG_B1_P3_ROUTE_BASE + 0x00000080u), BS_UDB_2_1_HV_ROUTING_VAL, 128u},
 721:Generated_Source\PSoC5/cyfitter_cfg.c **** 			{(void CYFAR *)(CYDEV_UCFG_B0_P4_ROUTE_BASE), BS_UDBSWITCH_0_2_VAL, 128u},
 722:Generated_Source\PSoC5/cyfitter_cfg.c **** 			{(void CYFAR *)(CYDEV_UCFG_B0_P4_ROUTE_BASE + 0x00000080u), BS_UDB_1_2_HV_ROUTING_VAL, 128u},
 723:Generated_Source\PSoC5/cyfitter_cfg.c **** 			{(void CYFAR *)(CYDEV_UCFG_B0_P3_ROUTE_BASE), BS_UDBSWITCH_1_2_VAL, 128u},
 724:Generated_Source\PSoC5/cyfitter_cfg.c **** 			{(void CYFAR *)(CYDEV_UCFG_B0_P3_ROUTE_BASE + 0x00000080u), BS_UDB_2_2_HV_ROUTING_VAL, 128u},
 725:Generated_Source\PSoC5/cyfitter_cfg.c **** 			{(void CYFAR *)(CYDEV_UCFG_B0_P5_ROUTE_BASE), BS_UDBSWITCH_0_3_VAL, 128u},
 726:Generated_Source\PSoC5/cyfitter_cfg.c **** 			{(void CYFAR *)(CYDEV_UCFG_B0_P5_ROUTE_BASE + 0x00000080u), BS_UDB_1_3_HV_ROUTING_VAL, 128u},
 727:Generated_Source\PSoC5/cyfitter_cfg.c **** 			{(void CYFAR *)(CYDEV_UCFG_B0_P2_ROUTE_BASE), BS_UDBSWITCH_1_3_VAL, 128u},
ARM GAS  C:\Users\JEFFSN~1\AppData\Local\Temp\cch5Y03s.s 			page 24


 728:Generated_Source\PSoC5/cyfitter_cfg.c **** 			{(void CYFAR *)(CYDEV_UCFG_B0_P2_ROUTE_BASE + 0x00000080u), BS_UDB_2_3_HV_ROUTING_VAL, 128u},
 729:Generated_Source\PSoC5/cyfitter_cfg.c **** 			{(void CYFAR *)(CYDEV_UCFG_B0_P6_ROUTE_BASE), BS_UDBSWITCH_0_4_VAL, 128u},
 730:Generated_Source\PSoC5/cyfitter_cfg.c **** 			{(void CYFAR *)(CYDEV_UCFG_B0_P6_ROUTE_BASE + 0x00000080u), BS_UDB_1_4_HV_ROUTING_VAL, 128u},
 731:Generated_Source\PSoC5/cyfitter_cfg.c **** 			{(void CYFAR *)(CYDEV_UCFG_B0_P1_ROUTE_BASE), BS_UDBSWITCH_1_4_VAL, 128u},
 732:Generated_Source\PSoC5/cyfitter_cfg.c **** 			{(void CYFAR *)(CYDEV_UCFG_B0_P1_ROUTE_BASE + 0x00000080u), BS_UDB_2_4_HV_ROUTING_VAL, 128u},
 733:Generated_Source\PSoC5/cyfitter_cfg.c **** 			{(void CYFAR *)(CYDEV_UCFG_B0_P7_ROUTE_BASE), BS_UDBSWITCH_0_5_VAL, 128u},
 734:Generated_Source\PSoC5/cyfitter_cfg.c **** 			{(void CYFAR *)(CYDEV_UCFG_B0_P7_ROUTE_BASE + 0x00000080u), BS_UDB_1_5_HV_ROUTING_VAL, 128u},
 735:Generated_Source\PSoC5/cyfitter_cfg.c **** 			{(void CYFAR *)(CYDEV_UCFG_B0_P0_ROUTE_BASE), BS_UDBSWITCH_1_5_VAL, 128u},
 736:Generated_Source\PSoC5/cyfitter_cfg.c **** 			{(void CYFAR *)(CYDEV_UCFG_B0_P0_ROUTE_BASE + 0x00000080u), BS_UDB_2_5_HV_ROUTING_VAL, 128u},
 737:Generated_Source\PSoC5/cyfitter_cfg.c **** 			{(void CYFAR *)(CYDEV_UCFG_DSI9_BASE), BS_DSISWITCH_1_0_VAL, 128u},
 738:Generated_Source\PSoC5/cyfitter_cfg.c **** 			{(void CYFAR *)(CYDEV_UCFG_DSI9_BASE + 0x00000080u), BS_DSI3_0_HV_ROUTING_VAL, 128u},
 739:Generated_Source\PSoC5/cyfitter_cfg.c **** 			{(void CYFAR *)(CYDEV_UCFG_DSI8_BASE), BS_DSISWITCH_1_1_VAL, 128u},
 740:Generated_Source\PSoC5/cyfitter_cfg.c **** 			{(void CYFAR *)(CYDEV_UCFG_DSI8_BASE + 0x00000080u), BS_DSI3_1_HV_ROUTING_VAL, 128u},
 741:Generated_Source\PSoC5/cyfitter_cfg.c **** 			{(void CYFAR *)(CYDEV_UCFG_DSI3_BASE + 0x00000080u), BS_DSI3_2_HV_ROUTING_VAL, 128u},
 742:Generated_Source\PSoC5/cyfitter_cfg.c **** 			{(void CYFAR *)(CYDEV_UCFG_DSI2_BASE), BS_DSISWITCH_1_3_VAL, 128u},
 743:Generated_Source\PSoC5/cyfitter_cfg.c **** 			{(void CYFAR *)(CYDEV_UCFG_DSI2_BASE + 0x00000080u), BS_DSI3_3_HV_ROUTING_VAL, 128u},
 744:Generated_Source\PSoC5/cyfitter_cfg.c **** 			{(void CYFAR *)(CYDEV_UCFG_DSI1_BASE), BS_DSISWITCH_1_4_VAL, 128u},
 745:Generated_Source\PSoC5/cyfitter_cfg.c **** 			{(void CYFAR *)(CYDEV_UCFG_DSI1_BASE + 0x00000080u), BS_DSI3_4_HV_ROUTING_VAL, 128u},
 746:Generated_Source\PSoC5/cyfitter_cfg.c **** 			{(void CYFAR *)(CYDEV_UCFG_DSI0_BASE), BS_DSISWITCH_1_5_VAL, 128u},
 747:Generated_Source\PSoC5/cyfitter_cfg.c **** 			{(void CYFAR *)(CYDEV_UCFG_DSI0_BASE + 0x00000080u), BS_DSI3_5_HV_ROUTING_VAL, 128u},
 748:Generated_Source\PSoC5/cyfitter_cfg.c **** 		};
 749:Generated_Source\PSoC5/cyfitter_cfg.c **** 
 750:Generated_Source\PSoC5/cyfitter_cfg.c **** 		uint8 CYDATA i;
 751:Generated_Source\PSoC5/cyfitter_cfg.c **** 
 752:Generated_Source\PSoC5/cyfitter_cfg.c **** 		/* Zero out critical memory blocks before beginning configuration */
 753:Generated_Source\PSoC5/cyfitter_cfg.c **** 		for (i = 0u; i < (sizeof(cfg_memset_list)/sizeof(cfg_memset_list[0])); i++)
 582              		.loc 1 753 0
 583 0012 0023     		movs	r3, #0
 584 0014 FB75     		strb	r3, [r7, #23]
 585 0016 13E0     		b	.L22
 586              	.L23:
 587              	.LBB3:
 754:Generated_Source\PSoC5/cyfitter_cfg.c **** 		{
 755:Generated_Source\PSoC5/cyfitter_cfg.c **** 			const cfg_memset_t CYCODE * CYDATA ms = &cfg_memset_list[i];
 588              		.loc 1 755 0 discriminator 3
 589 0018 FA7D     		ldrb	r2, [r7, #23]	@ zero_extendqisi2
 590 001a 1346     		mov	r3, r2
 591 001c 5B00     		lsls	r3, r3, #1
 592 001e 1344     		add	r3, r3, r2
 593 0020 5B00     		lsls	r3, r3, #1
 594 0022 724A     		ldr	r2, .L26+4
 595 0024 1344     		add	r3, r3, r2
 596 0026 3B61     		str	r3, [r7, #16]
 756:Generated_Source\PSoC5/cyfitter_cfg.c **** 			CYMEMZERO(ms->address, (size_t)(uint32)(ms->size));
 597              		.loc 1 756 0 discriminator 3
 598 0028 3B69     		ldr	r3, [r7, #16]
 599 002a 1A68     		ldr	r2, [r3]	@ unaligned
 600 002c 3B69     		ldr	r3, [r7, #16]
 601 002e 9B88     		ldrh	r3, [r3, #4]	@ unaligned
 602 0030 9BB2     		uxth	r3, r3
 603 0032 1946     		mov	r1, r3
 604 0034 1046     		mov	r0, r2
 605 0036 FFF7FEFF 		bl	CYMEMZERO
 606              	.LBE3:
 753:Generated_Source\PSoC5/cyfitter_cfg.c **** 		{
 607              		.loc 1 753 0 discriminator 3
 608 003a FB7D     		ldrb	r3, [r7, #23]	@ zero_extendqisi2
ARM GAS  C:\Users\JEFFSN~1\AppData\Local\Temp\cch5Y03s.s 			page 25


 609 003c 0133     		adds	r3, r3, #1
 610 003e FB75     		strb	r3, [r7, #23]
 611              	.L22:
 753:Generated_Source\PSoC5/cyfitter_cfg.c **** 		{
 612              		.loc 1 753 0 is_stmt 0 discriminator 1
 613 0040 FB7D     		ldrb	r3, [r7, #23]	@ zero_extendqisi2
 614 0042 002B     		cmp	r3, #0
 615 0044 E8D0     		beq	.L23
 757:Generated_Source\PSoC5/cyfitter_cfg.c **** 		}
 758:Generated_Source\PSoC5/cyfitter_cfg.c **** 
 759:Generated_Source\PSoC5/cyfitter_cfg.c **** 		/* Copy device configuration data into registers */
 760:Generated_Source\PSoC5/cyfitter_cfg.c **** 		for (i = 0u; i < (sizeof(cfg_memcpy_list)/sizeof(cfg_memcpy_list[0])); i++)
 616              		.loc 1 760 0 is_stmt 1
 617 0046 0023     		movs	r3, #0
 618 0048 FB75     		strb	r3, [r7, #23]
 619 004a 1CE0     		b	.L24
 620              	.L25:
 621              	.LBB4:
 761:Generated_Source\PSoC5/cyfitter_cfg.c **** 		{
 762:Generated_Source\PSoC5/cyfitter_cfg.c **** 			const cfg_memcpy_t CYCODE * CYDATA mc = &cfg_memcpy_list[i];
 622              		.loc 1 762 0 discriminator 3
 623 004c FA7D     		ldrb	r2, [r7, #23]	@ zero_extendqisi2
 624 004e 1346     		mov	r3, r2
 625 0050 9B00     		lsls	r3, r3, #2
 626 0052 1344     		add	r3, r3, r2
 627 0054 5B00     		lsls	r3, r3, #1
 628 0056 664A     		ldr	r2, .L26+8
 629 0058 1344     		add	r3, r3, r2
 630 005a FB60     		str	r3, [r7, #12]
 763:Generated_Source\PSoC5/cyfitter_cfg.c **** 			void * CYDATA destPtr = mc->dest;
 631              		.loc 1 763 0 discriminator 3
 632 005c FB68     		ldr	r3, [r7, #12]
 633 005e 1B68     		ldr	r3, [r3]	@ unaligned
 634 0060 BB60     		str	r3, [r7, #8]
 764:Generated_Source\PSoC5/cyfitter_cfg.c **** 			const void * CYDATA srcPtr = mc->src;
 635              		.loc 1 764 0 discriminator 3
 636 0062 FB68     		ldr	r3, [r7, #12]
 637 0064 5B68     		ldr	r3, [r3, #4]	@ unaligned
 638 0066 7B60     		str	r3, [r7, #4]
 765:Generated_Source\PSoC5/cyfitter_cfg.c **** 			uint16 CYDATA numBytes = mc->size;
 639              		.loc 1 765 0 discriminator 3
 640 0068 FB68     		ldr	r3, [r7, #12]
 641 006a 1A7A     		ldrb	r2, [r3, #8]	@ zero_extendqisi2
 642 006c 5B7A     		ldrb	r3, [r3, #9]	@ zero_extendqisi2
 643 006e 1B02     		lsls	r3, r3, #8
 644 0070 1343     		orrs	r3, r3, r2
 645 0072 7B80     		strh	r3, [r7, #2]	@ movhi
 766:Generated_Source\PSoC5/cyfitter_cfg.c **** 			CYCONFIGCPY(destPtr, srcPtr, numBytes);
 646              		.loc 1 766 0 discriminator 3
 647 0074 7B88     		ldrh	r3, [r7, #2]
 648 0076 1A46     		mov	r2, r3
 649 0078 7968     		ldr	r1, [r7, #4]
 650 007a B868     		ldr	r0, [r7, #8]
 651 007c FFF7FEFF 		bl	CYCONFIGCPY
 652              	.LBE4:
 760:Generated_Source\PSoC5/cyfitter_cfg.c **** 		{
 653              		.loc 1 760 0 discriminator 3
ARM GAS  C:\Users\JEFFSN~1\AppData\Local\Temp\cch5Y03s.s 			page 26


 654 0080 FB7D     		ldrb	r3, [r7, #23]	@ zero_extendqisi2
 655 0082 0133     		adds	r3, r3, #1
 656 0084 FB75     		strb	r3, [r7, #23]
 657              	.L24:
 760:Generated_Source\PSoC5/cyfitter_cfg.c **** 		{
 658              		.loc 1 760 0 is_stmt 0 discriminator 1
 659 0086 FB7D     		ldrb	r3, [r7, #23]	@ zero_extendqisi2
 660 0088 562B     		cmp	r3, #86
 661 008a DFD9     		bls	.L25
 767:Generated_Source\PSoC5/cyfitter_cfg.c **** 		}
 768:Generated_Source\PSoC5/cyfitter_cfg.c **** 
 769:Generated_Source\PSoC5/cyfitter_cfg.c **** 		/* Perform normal device configuration. Order is not critical for these items. */
 770:Generated_Source\PSoC5/cyfitter_cfg.c **** 		CYCONFIGCPY((void CYFAR *)(CYREG_PHUB_CFGMEM0_CFG0), (const void CYFAR *)(BS_PHUB_CFGMEM0_VAL), 4
 662              		.loc 1 770 0 is_stmt 1
 663 008c 594A     		ldr	r2, .L26+12
 664 008e 5A4B     		ldr	r3, .L26+16
 665 0090 1344     		add	r3, r3, r2
 666 0092 0422     		movs	r2, #4
 667 0094 1946     		mov	r1, r3
 668 0096 5948     		ldr	r0, .L26+20
 669 0098 FFF7FEFF 		bl	CYCONFIGCPY
 771:Generated_Source\PSoC5/cyfitter_cfg.c **** 		CYCONFIGCPY((void CYFAR *)(CYREG_PHUB_CFGMEM1_CFG0), (const void CYFAR *)(BS_PHUB_CFGMEM1_VAL), 4
 670              		.loc 1 771 0
 671 009c 554A     		ldr	r2, .L26+12
 672 009e 584B     		ldr	r3, .L26+24
 673 00a0 1344     		add	r3, r3, r2
 674 00a2 0422     		movs	r2, #4
 675 00a4 1946     		mov	r1, r3
 676 00a6 5748     		ldr	r0, .L26+28
 677 00a8 FFF7FEFF 		bl	CYCONFIGCPY
 772:Generated_Source\PSoC5/cyfitter_cfg.c **** 		CYMEMZERO((void CYFAR *)(CYREG_PHUB_CFGMEM2_CFG0), 4u);
 678              		.loc 1 772 0
 679 00ac 0421     		movs	r1, #4
 680 00ae 5648     		ldr	r0, .L26+32
 681 00b0 FFF7FEFF 		bl	CYMEMZERO
 773:Generated_Source\PSoC5/cyfitter_cfg.c **** 		CYMEMZERO((void CYFAR *)(CYREG_PHUB_CFGMEM3_CFG0), 4u);
 682              		.loc 1 773 0
 683 00b4 0421     		movs	r1, #4
 684 00b6 5548     		ldr	r0, .L26+36
 685 00b8 FFF7FEFF 		bl	CYMEMZERO
 774:Generated_Source\PSoC5/cyfitter_cfg.c **** 		CYCONFIGCPY((void CYFAR *)(CYREG_PHUB_CFGMEM4_CFG0), (const void CYFAR *)(BS_PHUB_CFGMEM4_VAL), 4
 686              		.loc 1 774 0
 687 00bc 4D4A     		ldr	r2, .L26+12
 688 00be 544B     		ldr	r3, .L26+40
 689 00c0 1344     		add	r3, r3, r2
 690 00c2 0422     		movs	r2, #4
 691 00c4 1946     		mov	r1, r3
 692 00c6 5348     		ldr	r0, .L26+44
 693 00c8 FFF7FEFF 		bl	CYCONFIGCPY
 775:Generated_Source\PSoC5/cyfitter_cfg.c **** 		CYCONFIGCPY((void CYFAR *)(CYREG_PHUB_CFGMEM5_CFG0), (const void CYFAR *)(BS_PHUB_CFGMEM5_VAL), 4
 694              		.loc 1 775 0
 695 00cc 494A     		ldr	r2, .L26+12
 696 00ce 524B     		ldr	r3, .L26+48
 697 00d0 1344     		add	r3, r3, r2
 698 00d2 0422     		movs	r2, #4
 699 00d4 1946     		mov	r1, r3
 700 00d6 5148     		ldr	r0, .L26+52
ARM GAS  C:\Users\JEFFSN~1\AppData\Local\Temp\cch5Y03s.s 			page 27


 701 00d8 FFF7FEFF 		bl	CYCONFIGCPY
 776:Generated_Source\PSoC5/cyfitter_cfg.c **** 
 777:Generated_Source\PSoC5/cyfitter_cfg.c **** 		/* B0_P3_U1_CFG24 Starting address: CYDEV_UCFG_B0_P3_U1_CFG24 */
 778:Generated_Source\PSoC5/cyfitter_cfg.c **** 		CY_SET_XTND_REG32((void CYFAR *)(CYREG_B0_P3_U1_CFG24), 0xA4240404u);
 702              		.loc 1 778 0
 703 00dc 504B     		ldr	r3, .L26+56
 704 00de 514A     		ldr	r2, .L26+60
 705 00e0 1A60     		str	r2, [r3]
 779:Generated_Source\PSoC5/cyfitter_cfg.c **** 
 780:Generated_Source\PSoC5/cyfitter_cfg.c **** 		/* B1_P2_U0_CFG24 Starting address: CYDEV_UCFG_B1_P2_U0_CFG24 */
 781:Generated_Source\PSoC5/cyfitter_cfg.c **** 		CY_SET_XTND_REG32((void CYFAR *)(CYREG_B1_P2_U0_CFG24), 0x64000404u);
 706              		.loc 1 781 0
 707 00e2 514B     		ldr	r3, .L26+64
 708 00e4 514A     		ldr	r2, .L26+68
 709 00e6 1A60     		str	r2, [r3]
 782:Generated_Source\PSoC5/cyfitter_cfg.c **** 
 783:Generated_Source\PSoC5/cyfitter_cfg.c **** 		/* Enable digital routing */
 784:Generated_Source\PSoC5/cyfitter_cfg.c **** 		CY_SET_XTND_REG8((void CYFAR *)CYREG_BCTL0_BANK_CTL, CY_GET_XTND_REG8((void CYFAR *)CYREG_BCTL0_B
 710              		.loc 1 784 0
 711 00e8 514A     		ldr	r2, .L26+72
 712 00ea 514B     		ldr	r3, .L26+72
 713 00ec 1B78     		ldrb	r3, [r3]
 714 00ee DBB2     		uxtb	r3, r3
 715 00f0 43F00203 		orr	r3, r3, #2
 716 00f4 DBB2     		uxtb	r3, r3
 717 00f6 1370     		strb	r3, [r2]
 785:Generated_Source\PSoC5/cyfitter_cfg.c **** 		CY_SET_XTND_REG8((void CYFAR *)CYREG_BCTL1_BANK_CTL, CY_GET_XTND_REG8((void CYFAR *)CYREG_BCTL1_B
 718              		.loc 1 785 0
 719 00f8 4E4A     		ldr	r2, .L26+76
 720 00fa 4E4B     		ldr	r3, .L26+76
 721 00fc 1B78     		ldrb	r3, [r3]
 722 00fe DBB2     		uxtb	r3, r3
 723 0100 43F00203 		orr	r3, r3, #2
 724 0104 DBB2     		uxtb	r3, r3
 725 0106 1370     		strb	r3, [r2]
 786:Generated_Source\PSoC5/cyfitter_cfg.c **** 
 787:Generated_Source\PSoC5/cyfitter_cfg.c **** 		/* Enable UDB array */
 788:Generated_Source\PSoC5/cyfitter_cfg.c **** 		CY_SET_XTND_REG8((void CYFAR *)CYREG_PM_ACT_CFG0, CY_GET_XTND_REG8((void CYFAR *)CYREG_PM_ACT_CFG
 726              		.loc 1 788 0
 727 0108 4B4A     		ldr	r2, .L26+80
 728 010a 4B4B     		ldr	r3, .L26+80
 729 010c 1B78     		ldrb	r3, [r3]
 730 010e DBB2     		uxtb	r3, r3
 731 0110 43F04003 		orr	r3, r3, #64
 732 0114 DBB2     		uxtb	r3, r3
 733 0116 1370     		strb	r3, [r2]
 789:Generated_Source\PSoC5/cyfitter_cfg.c **** 		CY_SET_XTND_REG8((void CYFAR *)CYREG_PM_AVAIL_CR2, CY_GET_XTND_REG8((void CYFAR *)CYREG_PM_AVAIL_
 734              		.loc 1 789 0
 735 0118 484A     		ldr	r2, .L26+84
 736 011a 484B     		ldr	r3, .L26+84
 737 011c 1B78     		ldrb	r3, [r3]
 738 011e DBB2     		uxtb	r3, r3
 739 0120 43F01003 		orr	r3, r3, #16
 740 0124 DBB2     		uxtb	r3, r3
 741 0126 1370     		strb	r3, [r2]
 742              	.LBE2:
 790:Generated_Source\PSoC5/cyfitter_cfg.c **** 	}
ARM GAS  C:\Users\JEFFSN~1\AppData\Local\Temp\cch5Y03s.s 			page 28


 791:Generated_Source\PSoC5/cyfitter_cfg.c **** 
 792:Generated_Source\PSoC5/cyfitter_cfg.c **** 
 793:Generated_Source\PSoC5/cyfitter_cfg.c **** 	/* Perform second pass device configuration. These items must be configured in specific order afte
 794:Generated_Source\PSoC5/cyfitter_cfg.c **** 	CYCONFIGCPY((void CYFAR *)(CYREG_PRT0_DM0), (const void CYFAR *)(BS_IOPINS0_0_VAL), 8u);
 743              		.loc 1 794 0
 744 0128 324A     		ldr	r2, .L26+12
 745 012a 454B     		ldr	r3, .L26+88
 746 012c 1344     		add	r3, r3, r2
 747 012e 0822     		movs	r2, #8
 748 0130 1946     		mov	r1, r3
 749 0132 4448     		ldr	r0, .L26+92
 750 0134 FFF7FEFF 		bl	CYCONFIGCPY
 795:Generated_Source\PSoC5/cyfitter_cfg.c **** 	CYCONFIGCPY((void CYFAR *)(CYREG_PRT12_DM0), (const void CYFAR *)(BS_IOPINS0_7_VAL), 8u);
 751              		.loc 1 795 0
 752 0138 2E4B     		ldr	r3, .L26+12
 753 013a 03F19043 		add	r3, r3, #1207959552
 754 013e 03F51253 		add	r3, r3, #9344
 755 0142 0822     		movs	r2, #8
 756 0144 1946     		mov	r1, r3
 757 0146 4048     		ldr	r0, .L26+96
 758 0148 FFF7FEFF 		bl	CYCONFIGCPY
 796:Generated_Source\PSoC5/cyfitter_cfg.c **** 	CYCONFIGCPY((void CYFAR *)(CYREG_PRT15_DR), (const void CYFAR *)(BS_IOPINS0_8_VAL), 10u);
 759              		.loc 1 796 0
 760 014c 294A     		ldr	r2, .L26+12
 761 014e 3F4B     		ldr	r3, .L26+100
 762 0150 1344     		add	r3, r3, r2
 763 0152 0A22     		movs	r2, #10
 764 0154 1946     		mov	r1, r3
 765 0156 3E48     		ldr	r0, .L26+104
 766 0158 FFF7FEFF 		bl	CYCONFIGCPY
 797:Generated_Source\PSoC5/cyfitter_cfg.c **** 	CYCONFIGCPY((void CYFAR *)(CYREG_PRT1_DR), (const void CYFAR *)(BS_IOPINS0_1_VAL), 10u);
 767              		.loc 1 797 0
 768 015c 254A     		ldr	r2, .L26+12
 769 015e 3D4B     		ldr	r3, .L26+108
 770 0160 1344     		add	r3, r3, r2
 771 0162 0A22     		movs	r2, #10
 772 0164 1946     		mov	r1, r3
 773 0166 3C48     		ldr	r0, .L26+112
 774 0168 FFF7FEFF 		bl	CYCONFIGCPY
 798:Generated_Source\PSoC5/cyfitter_cfg.c **** 	CYCONFIGCPY((void CYFAR *)(CYREG_PRT2_DR), (const void CYFAR *)(BS_IOPINS0_2_VAL), 10u);
 775              		.loc 1 798 0
 776 016c 214A     		ldr	r2, .L26+12
 777 016e 3B4B     		ldr	r3, .L26+116
 778 0170 1344     		add	r3, r3, r2
 779 0172 0A22     		movs	r2, #10
 780 0174 1946     		mov	r1, r3
 781 0176 3A48     		ldr	r0, .L26+120
 782 0178 FFF7FEFF 		bl	CYCONFIGCPY
 799:Generated_Source\PSoC5/cyfitter_cfg.c **** 	CYCONFIGCPY((void CYFAR *)(CYREG_PRT3_DM0), (const void CYFAR *)(BS_IOPINS0_3_VAL), 8u);
 783              		.loc 1 799 0
 784 017c 1D4A     		ldr	r2, .L26+12
 785 017e 394B     		ldr	r3, .L26+124
 786 0180 1344     		add	r3, r3, r2
 787 0182 0822     		movs	r2, #8
 788 0184 1946     		mov	r1, r3
 789 0186 3848     		ldr	r0, .L26+128
 790 0188 FFF7FEFF 		bl	CYCONFIGCPY
ARM GAS  C:\Users\JEFFSN~1\AppData\Local\Temp\cch5Y03s.s 			page 29


 800:Generated_Source\PSoC5/cyfitter_cfg.c **** 	CYCONFIGCPY((void CYFAR *)(CYREG_PRT4_DR), (const void CYFAR *)(BS_IOPINS0_4_VAL), 10u);
 791              		.loc 1 800 0
 792 018c 194A     		ldr	r2, .L26+12
 793 018e 374B     		ldr	r3, .L26+132
 794 0190 1344     		add	r3, r3, r2
 795 0192 0A22     		movs	r2, #10
 796 0194 1946     		mov	r1, r3
 797 0196 3648     		ldr	r0, .L26+136
 798 0198 FFF7FEFF 		bl	CYCONFIGCPY
 801:Generated_Source\PSoC5/cyfitter_cfg.c **** 	CYCONFIGCPY((void CYFAR *)(CYREG_PRT5_DR), (const void CYFAR *)(BS_IOPINS0_5_VAL), 10u);
 799              		.loc 1 801 0
 800 019c 154B     		ldr	r3, .L26+12
 801 019e 03F19043 		add	r3, r3, #1207959552
 802 01a2 03F51353 		add	r3, r3, #9408
 803 01a6 0A22     		movs	r2, #10
 804 01a8 1946     		mov	r1, r3
 805 01aa 3248     		ldr	r0, .L26+140
 806 01ac FFF7FEFF 		bl	CYCONFIGCPY
 802:Generated_Source\PSoC5/cyfitter_cfg.c **** 	CYCONFIGCPY((void CYFAR *)(CYREG_PRT6_DR), (const void CYFAR *)(BS_IOPINS0_6_VAL), 10u);
 807              		.loc 1 802 0
 808 01b0 104A     		ldr	r2, .L26+12
 809 01b2 314B     		ldr	r3, .L26+144
 810 01b4 1344     		add	r3, r3, r2
 811 01b6 0A22     		movs	r2, #10
 812 01b8 1946     		mov	r1, r3
 813 01ba 3048     		ldr	r0, .L26+148
 814 01bc FFF7FEFF 		bl	CYCONFIGCPY
 803:Generated_Source\PSoC5/cyfitter_cfg.c **** 	/* Switch Boost to the precision bandgap reference from its internal reference */
 804:Generated_Source\PSoC5/cyfitter_cfg.c **** 	CY_SET_REG8((void CYXDATA *)CYREG_BOOST_CR2, (CY_GET_REG8((void CYXDATA *)CYREG_BOOST_CR2) | 0x08u
 815              		.loc 1 804 0
 816 01c0 2F4A     		ldr	r2, .L26+152
 817 01c2 2F4B     		ldr	r3, .L26+152
 818 01c4 1B78     		ldrb	r3, [r3]
 819 01c6 DBB2     		uxtb	r3, r3
 820 01c8 43F00803 		orr	r3, r3, #8
 821 01cc DBB2     		uxtb	r3, r3
 822 01ce 1370     		strb	r3, [r2]
 805:Generated_Source\PSoC5/cyfitter_cfg.c **** 
 806:Generated_Source\PSoC5/cyfitter_cfg.c **** 	/* Perform basic analog initialization to defaults */
 807:Generated_Source\PSoC5/cyfitter_cfg.c **** 	AnalogSetDefault();
 823              		.loc 1 807 0
 824 01d0 FFF7FEFF 		bl	AnalogSetDefault
 808:Generated_Source\PSoC5/cyfitter_cfg.c **** 
 809:Generated_Source\PSoC5/cyfitter_cfg.c **** 	/* Configure alternate active mode */
 810:Generated_Source\PSoC5/cyfitter_cfg.c **** 	CYCONFIGCPY((void CYFAR *)CYDEV_PM_STBY_BASE, (const void CYFAR *)CYDEV_PM_ACT_BASE, 14u);
 825              		.loc 1 810 0
 826 01d4 0E22     		movs	r2, #14
 827 01d6 1849     		ldr	r1, .L26+80
 828 01d8 2A48     		ldr	r0, .L26+156
 829 01da FFF7FEFF 		bl	CYCONFIGCPY
 811:Generated_Source\PSoC5/cyfitter_cfg.c **** }
 830              		.loc 1 811 0
 831 01de 00BF     		nop
 832 01e0 1837     		adds	r7, r7, #24
 833              		.cfi_def_cfa_offset 8
 834 01e2 BD46     		mov	sp, r7
 835              		.cfi_def_cfa_register 13
ARM GAS  C:\Users\JEFFSN~1\AppData\Local\Temp\cch5Y03s.s 			page 30


 836              		@ sp needed
 837 01e4 80BD     		pop	{r7, pc}
 838              	.L27:
 839 01e6 00BF     		.align	2
 840              	.L26:
 841 01e8 00480040 		.word	1073760256
 842 01ec 00000000 		.word	cfg_memset_list.5000
 843 01f0 08000000 		.word	cfg_memcpy_list.5001
 844 01f4 00000000 		.word	CY_ECC_OFFSET
 845 01f8 D8240048 		.word	1207968984
 846 01fc 00760040 		.word	1073772032
 847 0200 DC240048 		.word	1207968988
 848 0204 08760040 		.word	1073772040
 849 0208 10760040 		.word	1073772048
 850 020c 18760040 		.word	1073772056
 851 0210 E0240048 		.word	1207968992
 852 0214 20760040 		.word	1073772064
 853 0218 E4240048 		.word	1207968996
 854 021c 28760040 		.word	1073772072
 855 0220 D8060140 		.word	1073809112
 856 0224 040424A4 		.word	-1541143548
 857 0228 58140140 		.word	1073812568
 858 022c 04040064 		.word	1677722628
 859 0230 03500140 		.word	1073827843
 860 0234 13500140 		.word	1073827859
 861 0238 A0430040 		.word	1073759136
 862 023c C2430040 		.word	1073759170
 863 0240 78240048 		.word	1207968888
 864 0244 02510040 		.word	1073762562
 865 0248 C2510040 		.word	1073762754
 866 024c 88240048 		.word	1207968904
 867 0250 F0510040 		.word	1073762800
 868 0254 94240048 		.word	1207968916
 869 0258 10510040 		.word	1073762576
 870 025c A0240048 		.word	1207968928
 871 0260 20510040 		.word	1073762592
 872 0264 AC240048 		.word	1207968940
 873 0268 32510040 		.word	1073762610
 874 026c B4240048 		.word	1207968948
 875 0270 40510040 		.word	1073762624
 876 0274 50510040 		.word	1073762640
 877 0278 CC240048 		.word	1207968972
 878 027c 60510040 		.word	1073762656
 879 0280 22430040 		.word	1073759010
 880 0284 B0430040 		.word	1073759152
 881              		.cfi_endproc
 882              	.LFE7:
 883              		.size	cyfitter_cfg, .-cyfitter_cfg
 884              		.section	.rodata
 885              		.align	2
 886              		.type	cfg_memset_list.5000, %object
 887              		.size	cfg_memset_list.5000, 6
 888              	cfg_memset_list.5000:
 889 0000 00430140 		.word	1073824512
 890 0004 8000     		.short	128
 891 0006 0000     		.align	2
 892              		.type	cfg_memcpy_list.5001, %object
ARM GAS  C:\Users\JEFFSN~1\AppData\Local\Temp\cch5Y03s.s 			page 31


 893              		.size	cfg_memcpy_list.5001, 870
 894              	cfg_memcpy_list.5001:
 895 0008 10510140 		.word	1073828112
 896 000c 00000048 		.word	CY_ECC_OFFSET+1207959552
 897 0010 0600     		.short	6
 898 0012 00520040 		.4byte	1073762816
 899 0016 08000048 		.4byte	CY_ECC_OFFSET+1207959560
 900 001a 0700     		.short	7
 901 001c 18520040 		.word	1073762840
 902 0020 10000048 		.word	CY_ECC_OFFSET+1207959568
 903 0024 0700     		.short	7
 904 0026 20520040 		.4byte	1073762848
 905 002a 18000048 		.4byte	CY_ECC_OFFSET+1207959576
 906 002e 0700     		.short	7
 907 0030 20450040 		.word	1073759520
 908 0034 20000048 		.word	CY_ECC_OFFSET+1207959584
 909 0038 0800     		.short	8
 910 003a 28520040 		.4byte	1073762856
 911 003e 28000048 		.4byte	CY_ECC_OFFSET+1207959592
 912 0042 0700     		.short	7
 913 0044 60450040 		.word	1073759584
 914 0048 30000048 		.word	CY_ECC_OFFSET+1207959600
 915 004c 0800     		.short	8
 916 004e 78520040 		.4byte	1073762936
 917 0052 38000048 		.4byte	CY_ECC_OFFSET+1207959608
 918 0056 0700     		.short	7
 919 0058 78450040 		.word	1073759608
 920 005c 40000048 		.word	CY_ECC_OFFSET+1207959616
 921 0060 0800     		.short	8
 922 0062 00510140 		.4byte	1073828096
 923 0066 48000048 		.4byte	CY_ECC_OFFSET+1207959624
 924 006a 0800     		.short	8
 925 006c 205B0040 		.word	1073765152
 926 0070 50000048 		.word	CY_ECC_OFFSET+1207959632
 927 0074 0800     		.short	8
 928 0076 00000140 		.4byte	1073807360
 929 007a 58000048 		.4byte	CY_ECC_OFFSET+1207959640
 930 007e 8000     		.short	128
 931 0080 80000140 		.word	1073807488
 932 0084 D8000048 		.word	CY_ECC_OFFSET+1207959768
 933 0088 8000     		.short	128
 934 008a 00020140 		.4byte	1073807872
 935 008e 58010048 		.4byte	CY_ECC_OFFSET+1207959896
 936 0092 8000     		.short	128
 937 0094 80020140 		.word	1073808000
 938 0098 D8010048 		.word	CY_ECC_OFFSET+1207960024
 939 009c 8000     		.short	128
 940 009e 00040140 		.4byte	1073808384
 941 00a2 58020048 		.4byte	CY_ECC_OFFSET+1207960152
 942 00a6 8000     		.short	128
 943 00a8 80040140 		.word	1073808512
 944 00ac D8020048 		.word	CY_ECC_OFFSET+1207960280
 945 00b0 8000     		.short	128
 946 00b2 00060140 		.4byte	1073808896
 947 00b6 58030048 		.4byte	CY_ECC_OFFSET+1207960408
 948 00ba 8000     		.short	128
 949 00bc 80060140 		.word	1073809024
ARM GAS  C:\Users\JEFFSN~1\AppData\Local\Temp\cch5Y03s.s 			page 32


 950 00c0 D8030048 		.word	CY_ECC_OFFSET+1207960536
 951 00c4 8000     		.short	128
 952 00c6 00080140 		.4byte	1073809408
 953 00ca 58040048 		.4byte	CY_ECC_OFFSET+1207960664
 954 00ce 8000     		.short	128
 955 00d0 80080140 		.word	1073809536
 956 00d4 D8040048 		.word	CY_ECC_OFFSET+1207960792
 957 00d8 8000     		.short	128
 958 00da 000A0140 		.4byte	1073809920
 959 00de 58050048 		.4byte	CY_ECC_OFFSET+1207960920
 960 00e2 8000     		.short	128
 961 00e4 800A0140 		.word	1073810048
 962 00e8 D8050048 		.word	CY_ECC_OFFSET+1207961048
 963 00ec 8000     		.short	128
 964 00ee 000C0140 		.4byte	1073810432
 965 00f2 58060048 		.4byte	CY_ECC_OFFSET+1207961176
 966 00f6 8000     		.short	128
 967 00f8 800C0140 		.word	1073810560
 968 00fc D8060048 		.word	CY_ECC_OFFSET+1207961304
 969 0100 8000     		.short	128
 970 0102 000E0140 		.4byte	1073810944
 971 0106 58070048 		.4byte	CY_ECC_OFFSET+1207961432
 972 010a 8000     		.short	128
 973 010c 800E0140 		.word	1073811072
 974 0110 D8070048 		.word	CY_ECC_OFFSET+1207961560
 975 0114 8000     		.short	128
 976 0116 00140140 		.4byte	1073812480
 977 011a 58080048 		.4byte	CY_ECC_OFFSET+1207961688
 978 011e 8000     		.short	128
 979 0120 80140140 		.word	1073812608
 980 0124 D8080048 		.word	CY_ECC_OFFSET+1207961816
 981 0128 8000     		.short	128
 982 012a 00160140 		.4byte	1073812992
 983 012e 58090048 		.4byte	CY_ECC_OFFSET+1207961944
 984 0132 8000     		.short	128
 985 0134 80160140 		.word	1073813120
 986 0138 D8090048 		.word	CY_ECC_OFFSET+1207962072
 987 013c 8000     		.short	128
 988 013e 00180140 		.4byte	1073813504
 989 0142 580A0048 		.4byte	CY_ECC_OFFSET+1207962200
 990 0146 8000     		.short	128
 991 0148 80180140 		.word	1073813632
 992 014c D80A0048 		.word	CY_ECC_OFFSET+1207962328
 993 0150 8000     		.short	128
 994 0152 001A0140 		.4byte	1073814016
 995 0156 580B0048 		.4byte	CY_ECC_OFFSET+1207962456
 996 015a 8000     		.short	128
 997 015c 801A0140 		.word	1073814144
 998 0160 D80B0048 		.word	CY_ECC_OFFSET+1207962584
 999 0164 8000     		.short	128
 1000 0166 00640040 		.4byte	1073767424
 1001 016a 580C0048 		.4byte	CY_ECC_OFFSET+1207962712
 1002 016e 4000     		.short	64
 1003 0170 70640040 		.word	1073767536
 1004 0174 980C0048 		.word	CY_ECC_OFFSET+1207962776
 1005 0178 2000     		.short	32
 1006 017a 70650040 		.4byte	1073767792
ARM GAS  C:\Users\JEFFSN~1\AppData\Local\Temp\cch5Y03s.s 			page 33


 1007 017e B80C0048 		.4byte	CY_ECC_OFFSET+1207962808
 1008 0182 2000     		.short	32
 1009 0184 10500140 		.word	1073827856
 1010 0188 D80C0048 		.word	CY_ECC_OFFSET+1207962840
 1011 018c 1000     		.short	16
 1012 018e 00500140 		.4byte	1073827840
 1013 0192 E80C0048 		.4byte	CY_ECC_OFFSET+1207962856
 1014 0196 1000     		.short	16
 1015 0198 004D0140 		.word	1073827072
 1016 019c F80C0048 		.word	CY_ECC_OFFSET+1207962872
 1017 01a0 8000     		.short	128
 1018 01a2 804D0140 		.4byte	1073827200
 1019 01a6 780D0048 		.4byte	CY_ECC_OFFSET+1207963000
 1020 01aa 8000     		.short	128
 1021 01ac 004C0140 		.word	1073826816
 1022 01b0 F80D0048 		.word	CY_ECC_OFFSET+1207963128
 1023 01b4 8000     		.short	128
 1024 01b6 804C0140 		.4byte	1073826944
 1025 01ba 780E0048 		.4byte	CY_ECC_OFFSET+1207963256
 1026 01be 8000     		.short	128
 1027 01c0 00470140 		.word	1073825536
 1028 01c4 F80E0048 		.word	CY_ECC_OFFSET+1207963384
 1029 01c8 8000     		.short	128
 1030 01ca 80470140 		.4byte	1073825664
 1031 01ce 780F0048 		.4byte	CY_ECC_OFFSET+1207963512
 1032 01d2 8000     		.short	128
 1033 01d4 00460140 		.word	1073825280
 1034 01d8 F80F0048 		.word	CY_ECC_OFFSET+1207963640
 1035 01dc 8000     		.short	128
 1036 01de 80460140 		.4byte	1073825408
 1037 01e2 78100048 		.4byte	CY_ECC_OFFSET+1207963768
 1038 01e6 8000     		.short	128
 1039 01e8 00450140 		.word	1073825024
 1040 01ec F8100048 		.word	CY_ECC_OFFSET+1207963896
 1041 01f0 8000     		.short	128
 1042 01f2 80450140 		.4byte	1073825152
 1043 01f6 78110048 		.4byte	CY_ECC_OFFSET+1207964024
 1044 01fa 8000     		.short	128
 1045 01fc 00440140 		.word	1073824768
 1046 0200 F8110048 		.word	CY_ECC_OFFSET+1207964152
 1047 0204 8000     		.short	128
 1048 0206 80440140 		.4byte	1073824896
 1049 020a 78120048 		.4byte	CY_ECC_OFFSET+1207964280
 1050 020e 8000     		.short	128
 1051 0210 001B0140 		.word	1073814272
 1052 0214 F8120048 		.word	CY_ECC_OFFSET+1207964408
 1053 0218 8000     		.short	128
 1054 021a 801B0140 		.4byte	1073814400
 1055 021e 78130048 		.4byte	CY_ECC_OFFSET+1207964536
 1056 0222 8000     		.short	128
 1057 0224 00150140 		.word	1073812736
 1058 0228 F8130048 		.word	CY_ECC_OFFSET+1207964664
 1059 022c 8000     		.short	128
 1060 022e 80150140 		.4byte	1073812864
 1061 0232 78140048 		.4byte	CY_ECC_OFFSET+1207964792
 1062 0236 8000     		.short	128
 1063 0238 00190140 		.word	1073813760
ARM GAS  C:\Users\JEFFSN~1\AppData\Local\Temp\cch5Y03s.s 			page 34


 1064 023c F8140048 		.word	CY_ECC_OFFSET+1207964920
 1065 0240 8000     		.short	128
 1066 0242 80190140 		.4byte	1073813888
 1067 0246 78150048 		.4byte	CY_ECC_OFFSET+1207965048
 1068 024a 8000     		.short	128
 1069 024c 00170140 		.word	1073813248
 1070 0250 F8150048 		.word	CY_ECC_OFFSET+1207965176
 1071 0254 8000     		.short	128
 1072 0256 80170140 		.4byte	1073813376
 1073 025a 78160048 		.4byte	CY_ECC_OFFSET+1207965304
 1074 025e 8000     		.short	128
 1075 0260 00090140 		.word	1073809664
 1076 0264 F8160048 		.word	CY_ECC_OFFSET+1207965432
 1077 0268 8000     		.short	128
 1078 026a 80090140 		.4byte	1073809792
 1079 026e 78170048 		.4byte	CY_ECC_OFFSET+1207965560
 1080 0272 8000     		.short	128
 1081 0274 00070140 		.word	1073809152
 1082 0278 F8170048 		.word	CY_ECC_OFFSET+1207965688
 1083 027c 8000     		.short	128
 1084 027e 80070140 		.4byte	1073809280
 1085 0282 78180048 		.4byte	CY_ECC_OFFSET+1207965816
 1086 0286 8000     		.short	128
 1087 0288 000B0140 		.word	1073810176
 1088 028c F8180048 		.word	CY_ECC_OFFSET+1207965944
 1089 0290 8000     		.short	128
 1090 0292 800B0140 		.4byte	1073810304
 1091 0296 78190048 		.4byte	CY_ECC_OFFSET+1207966072
 1092 029a 8000     		.short	128
 1093 029c 00050140 		.word	1073808640
 1094 02a0 F8190048 		.word	CY_ECC_OFFSET+1207966200
 1095 02a4 8000     		.short	128
 1096 02a6 80050140 		.4byte	1073808768
 1097 02aa 781A0048 		.4byte	CY_ECC_OFFSET+1207966328
 1098 02ae 8000     		.short	128
 1099 02b0 000D0140 		.word	1073810688
 1100 02b4 F81A0048 		.word	CY_ECC_OFFSET+1207966456
 1101 02b8 8000     		.short	128
 1102 02ba 800D0140 		.4byte	1073810816
 1103 02be 781B0048 		.4byte	CY_ECC_OFFSET+1207966584
 1104 02c2 8000     		.short	128
 1105 02c4 00030140 		.word	1073808128
 1106 02c8 F81B0048 		.word	CY_ECC_OFFSET+1207966712
 1107 02cc 8000     		.short	128
 1108 02ce 80030140 		.4byte	1073808256
 1109 02d2 781C0048 		.4byte	CY_ECC_OFFSET+1207966840
 1110 02d6 8000     		.short	128
 1111 02d8 000F0140 		.word	1073811200
 1112 02dc F81C0048 		.word	CY_ECC_OFFSET+1207966968
 1113 02e0 8000     		.short	128
 1114 02e2 800F0140 		.4byte	1073811328
 1115 02e6 781D0048 		.4byte	CY_ECC_OFFSET+1207967096
 1116 02ea 8000     		.short	128
 1117 02ec 00010140 		.word	1073807616
 1118 02f0 F81D0048 		.word	CY_ECC_OFFSET+1207967224
 1119 02f4 8000     		.short	128
 1120 02f6 80010140 		.4byte	1073807744
ARM GAS  C:\Users\JEFFSN~1\AppData\Local\Temp\cch5Y03s.s 			page 35


 1121 02fa 781E0048 		.4byte	CY_ECC_OFFSET+1207967352
 1122 02fe 8000     		.short	128
 1123 0300 00490140 		.word	1073826048
 1124 0304 F81E0048 		.word	CY_ECC_OFFSET+1207967480
 1125 0308 8000     		.short	128
 1126 030a 80490140 		.4byte	1073826176
 1127 030e 781F0048 		.4byte	CY_ECC_OFFSET+1207967608
 1128 0312 8000     		.short	128
 1129 0314 00480140 		.word	1073825792
 1130 0318 F81F0048 		.word	CY_ECC_OFFSET+1207967736
 1131 031c 8000     		.short	128
 1132 031e 80480140 		.4byte	1073825920
 1133 0322 78200048 		.4byte	CY_ECC_OFFSET+1207967864
 1134 0326 8000     		.short	128
 1135 0328 80430140 		.word	1073824640
 1136 032c F8200048 		.word	CY_ECC_OFFSET+1207967992
 1137 0330 8000     		.short	128
 1138 0332 00420140 		.4byte	1073824256
 1139 0336 78210048 		.4byte	CY_ECC_OFFSET+1207968120
 1140 033a 8000     		.short	128
 1141 033c 80420140 		.word	1073824384
 1142 0340 F8210048 		.word	CY_ECC_OFFSET+1207968248
 1143 0344 8000     		.short	128
 1144 0346 00410140 		.4byte	1073824000
 1145 034a 78220048 		.4byte	CY_ECC_OFFSET+1207968376
 1146 034e 8000     		.short	128
 1147 0350 80410140 		.word	1073824128
 1148 0354 F8220048 		.word	CY_ECC_OFFSET+1207968504
 1149 0358 8000     		.short	128
 1150 035a 00400140 		.4byte	1073823744
 1151 035e 78230048 		.4byte	CY_ECC_OFFSET+1207968632
 1152 0362 8000     		.short	128
 1153 0364 80400140 		.word	1073823872
 1154 0368 F8230048 		.word	CY_ECC_OFFSET+1207968760
 1155 036c 8000     		.short	128
 1156              		.text
 1157              	.Letext0:
 1158              		.file 2 "c:\\program files (x86)\\cypress\\psoc creator\\4.4\\psoc creator\\import\\gnu\\arm\\5.4.
 1159              		.file 3 "Generated_Source\\PSoC5\\cytypes.h"