ARM GAS  C:\Users\JEFFSN~1\AppData\Local\Temp\ccvCo3LR.s 			page 1


   1              		.syntax unified
   2              		.cpu cortex-m3
   3              		.fpu softvfp
   4              		.eabi_attribute 20, 1
   5              		.eabi_attribute 21, 1
   6              		.eabi_attribute 23, 3
   7              		.eabi_attribute 24, 1
   8              		.eabi_attribute 25, 1
   9              		.eabi_attribute 26, 1
  10              		.eabi_attribute 30, 6
  11              		.eabi_attribute 34, 1
  12              		.eabi_attribute 18, 4
  13              		.thumb
  14              		.syntax unified
  15              		.file	"Decoder_1_PINS2.c"
  16              		.text
  17              	.Ltext0:
  18              		.cfi_sections	.debug_frame
  19              		.section	.text.Decoder_1_PINS2_Write,"ax",%progbits
  20              		.align	2
  21              		.global	Decoder_1_PINS2_Write
  22              		.thumb
  23              		.thumb_func
  24              		.type	Decoder_1_PINS2_Write, %function
  25              	Decoder_1_PINS2_Write:
  26              	.LFB0:
  27              		.file 1 "Generated_Source\\PSoC5\\Decoder_1_PINS2.c"
   1:Generated_Source\PSoC5/Decoder_1_PINS2.c **** /*******************************************************************************
   2:Generated_Source\PSoC5/Decoder_1_PINS2.c **** * File Name: Decoder_1_PINS2.c  
   3:Generated_Source\PSoC5/Decoder_1_PINS2.c **** * Version 2.20
   4:Generated_Source\PSoC5/Decoder_1_PINS2.c **** *
   5:Generated_Source\PSoC5/Decoder_1_PINS2.c **** * Description:
   6:Generated_Source\PSoC5/Decoder_1_PINS2.c **** *  This file contains API to enable firmware control of a Pins component.
   7:Generated_Source\PSoC5/Decoder_1_PINS2.c **** *
   8:Generated_Source\PSoC5/Decoder_1_PINS2.c **** * Note:
   9:Generated_Source\PSoC5/Decoder_1_PINS2.c **** *
  10:Generated_Source\PSoC5/Decoder_1_PINS2.c **** ********************************************************************************
  11:Generated_Source\PSoC5/Decoder_1_PINS2.c **** * Copyright 2008-2015, Cypress Semiconductor Corporation.  All rights reserved.
  12:Generated_Source\PSoC5/Decoder_1_PINS2.c **** * You may use this file only in accordance with the license, terms, conditions, 
  13:Generated_Source\PSoC5/Decoder_1_PINS2.c **** * disclaimers, and limitations in the end user license agreement accompanying 
  14:Generated_Source\PSoC5/Decoder_1_PINS2.c **** * the software package with which this file was provided.
  15:Generated_Source\PSoC5/Decoder_1_PINS2.c **** *******************************************************************************/
  16:Generated_Source\PSoC5/Decoder_1_PINS2.c **** 
  17:Generated_Source\PSoC5/Decoder_1_PINS2.c **** #include "cytypes.h"
  18:Generated_Source\PSoC5/Decoder_1_PINS2.c **** #include "Decoder_1_PINS2.h"
  19:Generated_Source\PSoC5/Decoder_1_PINS2.c **** 
  20:Generated_Source\PSoC5/Decoder_1_PINS2.c **** /* APIs are not generated for P15[7:6] on PSoC 5 */
  21:Generated_Source\PSoC5/Decoder_1_PINS2.c **** #if !(CY_PSOC5A &&\
  22:Generated_Source\PSoC5/Decoder_1_PINS2.c **** 	 Decoder_1_PINS2__PORT == 15 && ((Decoder_1_PINS2__MASK & 0xC0) != 0))
  23:Generated_Source\PSoC5/Decoder_1_PINS2.c **** 
  24:Generated_Source\PSoC5/Decoder_1_PINS2.c **** 
  25:Generated_Source\PSoC5/Decoder_1_PINS2.c **** /*******************************************************************************
  26:Generated_Source\PSoC5/Decoder_1_PINS2.c **** * Function Name: Decoder_1_PINS2_Write
  27:Generated_Source\PSoC5/Decoder_1_PINS2.c **** ****************************************************************************//**
  28:Generated_Source\PSoC5/Decoder_1_PINS2.c **** *
  29:Generated_Source\PSoC5/Decoder_1_PINS2.c **** * \brief Writes the value to the physical port (data output register), masking
  30:Generated_Source\PSoC5/Decoder_1_PINS2.c **** *  and shifting the bits appropriately. 
ARM GAS  C:\Users\JEFFSN~1\AppData\Local\Temp\ccvCo3LR.s 			page 2


  31:Generated_Source\PSoC5/Decoder_1_PINS2.c **** *
  32:Generated_Source\PSoC5/Decoder_1_PINS2.c **** * The data output register controls the signal applied to the physical pin in 
  33:Generated_Source\PSoC5/Decoder_1_PINS2.c **** * conjunction with the drive mode parameter. This function avoids changing 
  34:Generated_Source\PSoC5/Decoder_1_PINS2.c **** * other bits in the port by using the appropriate method (read-modify-write or
  35:Generated_Source\PSoC5/Decoder_1_PINS2.c **** * bit banding).
  36:Generated_Source\PSoC5/Decoder_1_PINS2.c **** *
  37:Generated_Source\PSoC5/Decoder_1_PINS2.c **** * <b>Note</b> This function should not be used on a hardware digital output pin 
  38:Generated_Source\PSoC5/Decoder_1_PINS2.c **** * as it is driven by the hardware signal attached to it.
  39:Generated_Source\PSoC5/Decoder_1_PINS2.c **** *
  40:Generated_Source\PSoC5/Decoder_1_PINS2.c **** * \param value
  41:Generated_Source\PSoC5/Decoder_1_PINS2.c **** *  Value to write to the component instance.
  42:Generated_Source\PSoC5/Decoder_1_PINS2.c **** *
  43:Generated_Source\PSoC5/Decoder_1_PINS2.c **** * \return 
  44:Generated_Source\PSoC5/Decoder_1_PINS2.c **** *  None 
  45:Generated_Source\PSoC5/Decoder_1_PINS2.c **** *
  46:Generated_Source\PSoC5/Decoder_1_PINS2.c **** * \sideeffect
  47:Generated_Source\PSoC5/Decoder_1_PINS2.c **** *  If you use read-modify-write operations that are not atomic; the Interrupt 
  48:Generated_Source\PSoC5/Decoder_1_PINS2.c **** *  Service Routines (ISR) can cause corruption of this function. An ISR that 
  49:Generated_Source\PSoC5/Decoder_1_PINS2.c **** *  interrupts this function and performs writes to the Pins component data 
  50:Generated_Source\PSoC5/Decoder_1_PINS2.c **** *  register can cause corrupted port data. To avoid this issue, you should 
  51:Generated_Source\PSoC5/Decoder_1_PINS2.c **** *  either use the Per-Pin APIs (primary method) or disable interrupts around 
  52:Generated_Source\PSoC5/Decoder_1_PINS2.c **** *  this function.
  53:Generated_Source\PSoC5/Decoder_1_PINS2.c **** *
  54:Generated_Source\PSoC5/Decoder_1_PINS2.c **** * \funcusage
  55:Generated_Source\PSoC5/Decoder_1_PINS2.c **** *  \snippet Decoder_1_PINS2_SUT.c usage_Decoder_1_PINS2_Write
  56:Generated_Source\PSoC5/Decoder_1_PINS2.c **** *******************************************************************************/
  57:Generated_Source\PSoC5/Decoder_1_PINS2.c **** void Decoder_1_PINS2_Write(uint8 value)
  58:Generated_Source\PSoC5/Decoder_1_PINS2.c **** {
  28              		.loc 1 58 0
  29              		.cfi_startproc
  30              		@ args = 0, pretend = 0, frame = 16
  31              		@ frame_needed = 1, uses_anonymous_args = 0
  32              		@ link register save eliminated.
  33 0000 80B4     		push	{r7}
  34              		.cfi_def_cfa_offset 4
  35              		.cfi_offset 7, -4
  36 0002 85B0     		sub	sp, sp, #20
  37              		.cfi_def_cfa_offset 24
  38 0004 00AF     		add	r7, sp, #0
  39              		.cfi_def_cfa_register 7
  40 0006 0346     		mov	r3, r0
  41 0008 FB71     		strb	r3, [r7, #7]
  59:Generated_Source\PSoC5/Decoder_1_PINS2.c ****     uint8 staticBits = (Decoder_1_PINS2_DR & (uint8)(~Decoder_1_PINS2_MASK));
  42              		.loc 1 59 0
  43 000a 0B4B     		ldr	r3, .L2
  44 000c 1B78     		ldrb	r3, [r3]
  45 000e DBB2     		uxtb	r3, r3
  46 0010 23F00C03 		bic	r3, r3, #12
  47 0014 FB73     		strb	r3, [r7, #15]
  60:Generated_Source\PSoC5/Decoder_1_PINS2.c ****     Decoder_1_PINS2_DR = staticBits | ((uint8)(value << Decoder_1_PINS2_SHIFT) & Decoder_1_PINS2_MA
  48              		.loc 1 60 0
  49 0016 0849     		ldr	r1, .L2
  50 0018 FB79     		ldrb	r3, [r7, #7]
  51 001a 9B00     		lsls	r3, r3, #2
  52 001c DBB2     		uxtb	r3, r3
  53 001e 03F00C03 		and	r3, r3, #12
  54 0022 DAB2     		uxtb	r2, r3
ARM GAS  C:\Users\JEFFSN~1\AppData\Local\Temp\ccvCo3LR.s 			page 3


  55 0024 FB7B     		ldrb	r3, [r7, #15]
  56 0026 1343     		orrs	r3, r3, r2
  57 0028 DBB2     		uxtb	r3, r3
  58 002a 0B70     		strb	r3, [r1]
  61:Generated_Source\PSoC5/Decoder_1_PINS2.c **** }
  59              		.loc 1 61 0
  60 002c 00BF     		nop
  61 002e 1437     		adds	r7, r7, #20
  62              		.cfi_def_cfa_offset 4
  63 0030 BD46     		mov	sp, r7
  64              		.cfi_def_cfa_register 13
  65              		@ sp needed
  66 0032 80BC     		pop	{r7}
  67              		.cfi_restore 7
  68              		.cfi_def_cfa_offset 0
  69 0034 7047     		bx	lr
  70              	.L3:
  71 0036 00BF     		.align	2
  72              	.L2:
  73 0038 40510040 		.word	1073762624
  74              		.cfi_endproc
  75              	.LFE0:
  76              		.size	Decoder_1_PINS2_Write, .-Decoder_1_PINS2_Write
  77              		.section	.text.Decoder_1_PINS2_SetDriveMode,"ax",%progbits
  78              		.align	2
  79              		.global	Decoder_1_PINS2_SetDriveMode
  80              		.thumb
  81              		.thumb_func
  82              		.type	Decoder_1_PINS2_SetDriveMode, %function
  83              	Decoder_1_PINS2_SetDriveMode:
  84              	.LFB1:
  62:Generated_Source\PSoC5/Decoder_1_PINS2.c **** 
  63:Generated_Source\PSoC5/Decoder_1_PINS2.c **** 
  64:Generated_Source\PSoC5/Decoder_1_PINS2.c **** /*******************************************************************************
  65:Generated_Source\PSoC5/Decoder_1_PINS2.c **** * Function Name: Decoder_1_PINS2_SetDriveMode
  66:Generated_Source\PSoC5/Decoder_1_PINS2.c **** ****************************************************************************//**
  67:Generated_Source\PSoC5/Decoder_1_PINS2.c **** *
  68:Generated_Source\PSoC5/Decoder_1_PINS2.c **** * \brief Sets the drive mode for each of the Pins component's pins.
  69:Generated_Source\PSoC5/Decoder_1_PINS2.c **** * 
  70:Generated_Source\PSoC5/Decoder_1_PINS2.c **** * <b>Note</b> This affects all pins in the Pins component instance. Use the
  71:Generated_Source\PSoC5/Decoder_1_PINS2.c **** * Per-Pin APIs if you wish to control individual pin's drive modes.
  72:Generated_Source\PSoC5/Decoder_1_PINS2.c **** *
  73:Generated_Source\PSoC5/Decoder_1_PINS2.c **** * \param mode
  74:Generated_Source\PSoC5/Decoder_1_PINS2.c **** *  Mode for the selected signals. Valid options are documented in 
  75:Generated_Source\PSoC5/Decoder_1_PINS2.c **** *  \ref driveMode.
  76:Generated_Source\PSoC5/Decoder_1_PINS2.c **** *
  77:Generated_Source\PSoC5/Decoder_1_PINS2.c **** * \return
  78:Generated_Source\PSoC5/Decoder_1_PINS2.c **** *  None
  79:Generated_Source\PSoC5/Decoder_1_PINS2.c **** *
  80:Generated_Source\PSoC5/Decoder_1_PINS2.c **** * \sideeffect
  81:Generated_Source\PSoC5/Decoder_1_PINS2.c **** *  If you use read-modify-write operations that are not atomic, the ISR can
  82:Generated_Source\PSoC5/Decoder_1_PINS2.c **** *  cause corruption of this function. An ISR that interrupts this function 
  83:Generated_Source\PSoC5/Decoder_1_PINS2.c **** *  and performs writes to the Pins component Drive Mode registers can cause 
  84:Generated_Source\PSoC5/Decoder_1_PINS2.c **** *  corrupted port data. To avoid this issue, you should either use the Per-Pin
  85:Generated_Source\PSoC5/Decoder_1_PINS2.c **** *  APIs (primary method) or disable interrupts around this function.
  86:Generated_Source\PSoC5/Decoder_1_PINS2.c **** *
  87:Generated_Source\PSoC5/Decoder_1_PINS2.c **** * \funcusage
ARM GAS  C:\Users\JEFFSN~1\AppData\Local\Temp\ccvCo3LR.s 			page 4


  88:Generated_Source\PSoC5/Decoder_1_PINS2.c **** *  \snippet Decoder_1_PINS2_SUT.c usage_Decoder_1_PINS2_SetDriveMode
  89:Generated_Source\PSoC5/Decoder_1_PINS2.c **** *******************************************************************************/
  90:Generated_Source\PSoC5/Decoder_1_PINS2.c **** void Decoder_1_PINS2_SetDriveMode(uint8 mode)
  91:Generated_Source\PSoC5/Decoder_1_PINS2.c **** {
  85              		.loc 1 91 0
  86              		.cfi_startproc
  87              		@ args = 0, pretend = 0, frame = 8
  88              		@ frame_needed = 1, uses_anonymous_args = 0
  89              		@ link register save eliminated.
  90 0000 80B4     		push	{r7}
  91              		.cfi_def_cfa_offset 4
  92              		.cfi_offset 7, -4
  93 0002 83B0     		sub	sp, sp, #12
  94              		.cfi_def_cfa_offset 16
  95 0004 00AF     		add	r7, sp, #0
  96              		.cfi_def_cfa_register 7
  97 0006 0346     		mov	r3, r0
  98 0008 FB71     		strb	r3, [r7, #7]
  92:Generated_Source\PSoC5/Decoder_1_PINS2.c **** 	CyPins_SetPinDriveMode(Decoder_1_PINS2_0, mode);
  99              		.loc 1 92 0
 100 000a 1349     		ldr	r1, .L5
 101 000c 124B     		ldr	r3, .L5
 102 000e 1B78     		ldrb	r3, [r3]
 103 0010 DBB2     		uxtb	r3, r3
 104 0012 5BB2     		sxtb	r3, r3
 105 0014 23F00E03 		bic	r3, r3, #14
 106 0018 5AB2     		sxtb	r2, r3
 107 001a 97F90730 		ldrsb	r3, [r7, #7]
 108 001e 03F00E03 		and	r3, r3, #14
 109 0022 5BB2     		sxtb	r3, r3
 110 0024 1343     		orrs	r3, r3, r2
 111 0026 5BB2     		sxtb	r3, r3
 112 0028 DBB2     		uxtb	r3, r3
 113 002a 0B70     		strb	r3, [r1]
  93:Generated_Source\PSoC5/Decoder_1_PINS2.c **** 	CyPins_SetPinDriveMode(Decoder_1_PINS2_1, mode);
 114              		.loc 1 93 0
 115 002c 0B49     		ldr	r1, .L5+4
 116 002e 0B4B     		ldr	r3, .L5+4
 117 0030 1B78     		ldrb	r3, [r3]
 118 0032 DBB2     		uxtb	r3, r3
 119 0034 5BB2     		sxtb	r3, r3
 120 0036 23F00E03 		bic	r3, r3, #14
 121 003a 5AB2     		sxtb	r2, r3
 122 003c 97F90730 		ldrsb	r3, [r7, #7]
 123 0040 03F00E03 		and	r3, r3, #14
 124 0044 5BB2     		sxtb	r3, r3
 125 0046 1343     		orrs	r3, r3, r2
 126 0048 5BB2     		sxtb	r3, r3
 127 004a DBB2     		uxtb	r3, r3
 128 004c 0B70     		strb	r3, [r1]
  94:Generated_Source\PSoC5/Decoder_1_PINS2.c **** }
 129              		.loc 1 94 0
 130 004e 00BF     		nop
 131 0050 0C37     		adds	r7, r7, #12
 132              		.cfi_def_cfa_offset 4
 133 0052 BD46     		mov	sp, r7
 134              		.cfi_def_cfa_register 13
ARM GAS  C:\Users\JEFFSN~1\AppData\Local\Temp\ccvCo3LR.s 			page 5


 135              		@ sp needed
 136 0054 80BC     		pop	{r7}
 137              		.cfi_restore 7
 138              		.cfi_def_cfa_offset 0
 139 0056 7047     		bx	lr
 140              	.L6:
 141              		.align	2
 142              	.L5:
 143 0058 22500040 		.word	1073762338
 144 005c 23500040 		.word	1073762339
 145              		.cfi_endproc
 146              	.LFE1:
 147              		.size	Decoder_1_PINS2_SetDriveMode, .-Decoder_1_PINS2_SetDriveMode
 148              		.section	.text.Decoder_1_PINS2_Read,"ax",%progbits
 149              		.align	2
 150              		.global	Decoder_1_PINS2_Read
 151              		.thumb
 152              		.thumb_func
 153              		.type	Decoder_1_PINS2_Read, %function
 154              	Decoder_1_PINS2_Read:
 155              	.LFB2:
  95:Generated_Source\PSoC5/Decoder_1_PINS2.c **** 
  96:Generated_Source\PSoC5/Decoder_1_PINS2.c **** 
  97:Generated_Source\PSoC5/Decoder_1_PINS2.c **** /*******************************************************************************
  98:Generated_Source\PSoC5/Decoder_1_PINS2.c **** * Function Name: Decoder_1_PINS2_Read
  99:Generated_Source\PSoC5/Decoder_1_PINS2.c **** ****************************************************************************//**
 100:Generated_Source\PSoC5/Decoder_1_PINS2.c **** *
 101:Generated_Source\PSoC5/Decoder_1_PINS2.c **** * \brief Reads the associated physical port (pin status register) and masks 
 102:Generated_Source\PSoC5/Decoder_1_PINS2.c **** *  the required bits according to the width and bit position of the component
 103:Generated_Source\PSoC5/Decoder_1_PINS2.c **** *  instance. 
 104:Generated_Source\PSoC5/Decoder_1_PINS2.c **** *
 105:Generated_Source\PSoC5/Decoder_1_PINS2.c **** * The pin's status register returns the current logic level present on the 
 106:Generated_Source\PSoC5/Decoder_1_PINS2.c **** * physical pin.
 107:Generated_Source\PSoC5/Decoder_1_PINS2.c **** *
 108:Generated_Source\PSoC5/Decoder_1_PINS2.c **** * \return 
 109:Generated_Source\PSoC5/Decoder_1_PINS2.c **** *  The current value for the pins in the component as a right justified number.
 110:Generated_Source\PSoC5/Decoder_1_PINS2.c **** *
 111:Generated_Source\PSoC5/Decoder_1_PINS2.c **** * \funcusage
 112:Generated_Source\PSoC5/Decoder_1_PINS2.c **** *  \snippet Decoder_1_PINS2_SUT.c usage_Decoder_1_PINS2_Read  
 113:Generated_Source\PSoC5/Decoder_1_PINS2.c **** *******************************************************************************/
 114:Generated_Source\PSoC5/Decoder_1_PINS2.c **** uint8 Decoder_1_PINS2_Read(void)
 115:Generated_Source\PSoC5/Decoder_1_PINS2.c **** {
 156              		.loc 1 115 0
 157              		.cfi_startproc
 158              		@ args = 0, pretend = 0, frame = 0
 159              		@ frame_needed = 1, uses_anonymous_args = 0
 160              		@ link register save eliminated.
 161 0000 80B4     		push	{r7}
 162              		.cfi_def_cfa_offset 4
 163              		.cfi_offset 7, -4
 164 0002 00AF     		add	r7, sp, #0
 165              		.cfi_def_cfa_register 7
 116:Generated_Source\PSoC5/Decoder_1_PINS2.c ****     return (Decoder_1_PINS2_PS & Decoder_1_PINS2_MASK) >> Decoder_1_PINS2_SHIFT;
 166              		.loc 1 116 0
 167 0004 054B     		ldr	r3, .L9
 168 0006 1B78     		ldrb	r3, [r3]
 169 0008 DBB2     		uxtb	r3, r3
ARM GAS  C:\Users\JEFFSN~1\AppData\Local\Temp\ccvCo3LR.s 			page 6


 170 000a 03F00C03 		and	r3, r3, #12
 171 000e 9B08     		lsrs	r3, r3, #2
 172 0010 DBB2     		uxtb	r3, r3
 117:Generated_Source\PSoC5/Decoder_1_PINS2.c **** }
 173              		.loc 1 117 0
 174 0012 1846     		mov	r0, r3
 175 0014 BD46     		mov	sp, r7
 176              		.cfi_def_cfa_register 13
 177              		@ sp needed
 178 0016 80BC     		pop	{r7}
 179              		.cfi_restore 7
 180              		.cfi_def_cfa_offset 0
 181 0018 7047     		bx	lr
 182              	.L10:
 183 001a 00BF     		.align	2
 184              	.L9:
 185 001c 41510040 		.word	1073762625
 186              		.cfi_endproc
 187              	.LFE2:
 188              		.size	Decoder_1_PINS2_Read, .-Decoder_1_PINS2_Read
 189              		.section	.text.Decoder_1_PINS2_ReadDataReg,"ax",%progbits
 190              		.align	2
 191              		.global	Decoder_1_PINS2_ReadDataReg
 192              		.thumb
 193              		.thumb_func
 194              		.type	Decoder_1_PINS2_ReadDataReg, %function
 195              	Decoder_1_PINS2_ReadDataReg:
 196              	.LFB3:
 118:Generated_Source\PSoC5/Decoder_1_PINS2.c **** 
 119:Generated_Source\PSoC5/Decoder_1_PINS2.c **** 
 120:Generated_Source\PSoC5/Decoder_1_PINS2.c **** /*******************************************************************************
 121:Generated_Source\PSoC5/Decoder_1_PINS2.c **** * Function Name: Decoder_1_PINS2_ReadDataReg
 122:Generated_Source\PSoC5/Decoder_1_PINS2.c **** ****************************************************************************//**
 123:Generated_Source\PSoC5/Decoder_1_PINS2.c **** *
 124:Generated_Source\PSoC5/Decoder_1_PINS2.c **** * \brief Reads the associated physical port's data output register and masks 
 125:Generated_Source\PSoC5/Decoder_1_PINS2.c **** *  the correct bits according to the width and bit position of the component 
 126:Generated_Source\PSoC5/Decoder_1_PINS2.c **** *  instance. 
 127:Generated_Source\PSoC5/Decoder_1_PINS2.c **** *
 128:Generated_Source\PSoC5/Decoder_1_PINS2.c **** * The data output register controls the signal applied to the physical pin in 
 129:Generated_Source\PSoC5/Decoder_1_PINS2.c **** * conjunction with the drive mode parameter. This is not the same as the 
 130:Generated_Source\PSoC5/Decoder_1_PINS2.c **** * preferred Decoder_1_PINS2_Read() API because the 
 131:Generated_Source\PSoC5/Decoder_1_PINS2.c **** * Decoder_1_PINS2_ReadDataReg() reads the data register instead of the status 
 132:Generated_Source\PSoC5/Decoder_1_PINS2.c **** * register. For output pins this is a useful function to determine the value 
 133:Generated_Source\PSoC5/Decoder_1_PINS2.c **** * just written to the pin.
 134:Generated_Source\PSoC5/Decoder_1_PINS2.c **** *
 135:Generated_Source\PSoC5/Decoder_1_PINS2.c **** * \return 
 136:Generated_Source\PSoC5/Decoder_1_PINS2.c **** *  The current value of the data register masked and shifted into a right 
 137:Generated_Source\PSoC5/Decoder_1_PINS2.c **** *  justified number for the component instance.
 138:Generated_Source\PSoC5/Decoder_1_PINS2.c **** *
 139:Generated_Source\PSoC5/Decoder_1_PINS2.c **** * \funcusage
 140:Generated_Source\PSoC5/Decoder_1_PINS2.c **** *  \snippet Decoder_1_PINS2_SUT.c usage_Decoder_1_PINS2_ReadDataReg 
 141:Generated_Source\PSoC5/Decoder_1_PINS2.c **** *******************************************************************************/
 142:Generated_Source\PSoC5/Decoder_1_PINS2.c **** uint8 Decoder_1_PINS2_ReadDataReg(void)
 143:Generated_Source\PSoC5/Decoder_1_PINS2.c **** {
 197              		.loc 1 143 0
 198              		.cfi_startproc
 199              		@ args = 0, pretend = 0, frame = 0
ARM GAS  C:\Users\JEFFSN~1\AppData\Local\Temp\ccvCo3LR.s 			page 7


 200              		@ frame_needed = 1, uses_anonymous_args = 0
 201              		@ link register save eliminated.
 202 0000 80B4     		push	{r7}
 203              		.cfi_def_cfa_offset 4
 204              		.cfi_offset 7, -4
 205 0002 00AF     		add	r7, sp, #0
 206              		.cfi_def_cfa_register 7
 144:Generated_Source\PSoC5/Decoder_1_PINS2.c ****     return (Decoder_1_PINS2_DR & Decoder_1_PINS2_MASK) >> Decoder_1_PINS2_SHIFT;
 207              		.loc 1 144 0
 208 0004 054B     		ldr	r3, .L13
 209 0006 1B78     		ldrb	r3, [r3]
 210 0008 DBB2     		uxtb	r3, r3
 211 000a 03F00C03 		and	r3, r3, #12
 212 000e 9B08     		lsrs	r3, r3, #2
 213 0010 DBB2     		uxtb	r3, r3
 145:Generated_Source\PSoC5/Decoder_1_PINS2.c **** }
 214              		.loc 1 145 0
 215 0012 1846     		mov	r0, r3
 216 0014 BD46     		mov	sp, r7
 217              		.cfi_def_cfa_register 13
 218              		@ sp needed
 219 0016 80BC     		pop	{r7}
 220              		.cfi_restore 7
 221              		.cfi_def_cfa_offset 0
 222 0018 7047     		bx	lr
 223              	.L14:
 224 001a 00BF     		.align	2
 225              	.L13:
 226 001c 40510040 		.word	1073762624
 227              		.cfi_endproc
 228              	.LFE3:
 229              		.size	Decoder_1_PINS2_ReadDataReg, .-Decoder_1_PINS2_ReadDataReg
 230              		.section	.text.Decoder_1_PINS2_SetInterruptMode,"ax",%progbits
 231              		.align	2
 232              		.global	Decoder_1_PINS2_SetInterruptMode
 233              		.thumb
 234              		.thumb_func
 235              		.type	Decoder_1_PINS2_SetInterruptMode, %function
 236              	Decoder_1_PINS2_SetInterruptMode:
 237              	.LFB4:
 146:Generated_Source\PSoC5/Decoder_1_PINS2.c **** 
 147:Generated_Source\PSoC5/Decoder_1_PINS2.c **** 
 148:Generated_Source\PSoC5/Decoder_1_PINS2.c **** /* If interrupt is connected for this Pins component */ 
 149:Generated_Source\PSoC5/Decoder_1_PINS2.c **** #if defined(Decoder_1_PINS2_INTSTAT) 
 150:Generated_Source\PSoC5/Decoder_1_PINS2.c **** 
 151:Generated_Source\PSoC5/Decoder_1_PINS2.c ****     /*******************************************************************************
 152:Generated_Source\PSoC5/Decoder_1_PINS2.c ****     * Function Name: Decoder_1_PINS2_SetInterruptMode
 153:Generated_Source\PSoC5/Decoder_1_PINS2.c ****     ****************************************************************************//**
 154:Generated_Source\PSoC5/Decoder_1_PINS2.c ****     *
 155:Generated_Source\PSoC5/Decoder_1_PINS2.c ****     * \brief Configures the interrupt mode for each of the Pins component's
 156:Generated_Source\PSoC5/Decoder_1_PINS2.c ****     *  pins. Alternatively you may set the interrupt mode for all the pins
 157:Generated_Source\PSoC5/Decoder_1_PINS2.c ****     *  specified in the Pins component.
 158:Generated_Source\PSoC5/Decoder_1_PINS2.c ****     *
 159:Generated_Source\PSoC5/Decoder_1_PINS2.c ****     *  <b>Note</b> The interrupt is port-wide and therefore any enabled pin
 160:Generated_Source\PSoC5/Decoder_1_PINS2.c ****     *  interrupt may trigger it.
 161:Generated_Source\PSoC5/Decoder_1_PINS2.c ****     *
 162:Generated_Source\PSoC5/Decoder_1_PINS2.c ****     * \param position
ARM GAS  C:\Users\JEFFSN~1\AppData\Local\Temp\ccvCo3LR.s 			page 8


 163:Generated_Source\PSoC5/Decoder_1_PINS2.c ****     *  The pin position as listed in the Pins component. You may OR these to be 
 164:Generated_Source\PSoC5/Decoder_1_PINS2.c ****     *  able to configure the interrupt mode of multiple pins within a Pins 
 165:Generated_Source\PSoC5/Decoder_1_PINS2.c ****     *  component. Or you may use Decoder_1_PINS2_INTR_ALL to configure the
 166:Generated_Source\PSoC5/Decoder_1_PINS2.c ****     *  interrupt mode of all the pins in the Pins component.       
 167:Generated_Source\PSoC5/Decoder_1_PINS2.c ****     *  - Decoder_1_PINS2_0_INTR       (First pin in the list)
 168:Generated_Source\PSoC5/Decoder_1_PINS2.c ****     *  - Decoder_1_PINS2_1_INTR       (Second pin in the list)
 169:Generated_Source\PSoC5/Decoder_1_PINS2.c ****     *  - ...
 170:Generated_Source\PSoC5/Decoder_1_PINS2.c ****     *  - Decoder_1_PINS2_INTR_ALL     (All pins in Pins component)
 171:Generated_Source\PSoC5/Decoder_1_PINS2.c ****     *
 172:Generated_Source\PSoC5/Decoder_1_PINS2.c ****     * \param mode
 173:Generated_Source\PSoC5/Decoder_1_PINS2.c ****     *  Interrupt mode for the selected pins. Valid options are documented in
 174:Generated_Source\PSoC5/Decoder_1_PINS2.c ****     *  \ref intrMode.
 175:Generated_Source\PSoC5/Decoder_1_PINS2.c ****     *
 176:Generated_Source\PSoC5/Decoder_1_PINS2.c ****     * \return 
 177:Generated_Source\PSoC5/Decoder_1_PINS2.c ****     *  None
 178:Generated_Source\PSoC5/Decoder_1_PINS2.c ****     *  
 179:Generated_Source\PSoC5/Decoder_1_PINS2.c ****     * \sideeffect
 180:Generated_Source\PSoC5/Decoder_1_PINS2.c ****     *  It is recommended that the interrupt be disabled before calling this 
 181:Generated_Source\PSoC5/Decoder_1_PINS2.c ****     *  function to avoid unintended interrupt requests. Note that the interrupt
 182:Generated_Source\PSoC5/Decoder_1_PINS2.c ****     *  type is port wide, and therefore will trigger for any enabled pin on the 
 183:Generated_Source\PSoC5/Decoder_1_PINS2.c ****     *  port.
 184:Generated_Source\PSoC5/Decoder_1_PINS2.c ****     *
 185:Generated_Source\PSoC5/Decoder_1_PINS2.c ****     * \funcusage
 186:Generated_Source\PSoC5/Decoder_1_PINS2.c ****     *  \snippet Decoder_1_PINS2_SUT.c usage_Decoder_1_PINS2_SetInterruptMode
 187:Generated_Source\PSoC5/Decoder_1_PINS2.c ****     *******************************************************************************/
 188:Generated_Source\PSoC5/Decoder_1_PINS2.c ****     void Decoder_1_PINS2_SetInterruptMode(uint16 position, uint16 mode)
 189:Generated_Source\PSoC5/Decoder_1_PINS2.c ****     {
 238              		.loc 1 189 0
 239              		.cfi_startproc
 240              		@ args = 0, pretend = 0, frame = 8
 241              		@ frame_needed = 1, uses_anonymous_args = 0
 242              		@ link register save eliminated.
 243 0000 80B4     		push	{r7}
 244              		.cfi_def_cfa_offset 4
 245              		.cfi_offset 7, -4
 246 0002 83B0     		sub	sp, sp, #12
 247              		.cfi_def_cfa_offset 16
 248 0004 00AF     		add	r7, sp, #0
 249              		.cfi_def_cfa_register 7
 250 0006 0346     		mov	r3, r0
 251 0008 0A46     		mov	r2, r1
 252 000a FB80     		strh	r3, [r7, #6]	@ movhi
 253 000c 1346     		mov	r3, r2	@ movhi
 254 000e BB80     		strh	r3, [r7, #4]	@ movhi
 190:Generated_Source\PSoC5/Decoder_1_PINS2.c **** 		if((position & Decoder_1_PINS2_0_INTR) != 0u) 
 255              		.loc 1 190 0
 256 0010 FB88     		ldrh	r3, [r7, #6]
 257 0012 03F00403 		and	r3, r3, #4
 258 0016 002B     		cmp	r3, #0
 259 0018 03D0     		beq	.L16
 191:Generated_Source\PSoC5/Decoder_1_PINS2.c **** 		{ 
 192:Generated_Source\PSoC5/Decoder_1_PINS2.c **** 			 Decoder_1_PINS2_0_INTTYPE_REG = (uint8)mode; 
 260              		.loc 1 192 0
 261 001a 094B     		ldr	r3, .L19
 262 001c BA88     		ldrh	r2, [r7, #4]	@ movhi
 263 001e D2B2     		uxtb	r2, r2
 264 0020 1A70     		strb	r2, [r3]
ARM GAS  C:\Users\JEFFSN~1\AppData\Local\Temp\ccvCo3LR.s 			page 9


 265              	.L16:
 193:Generated_Source\PSoC5/Decoder_1_PINS2.c **** 		} 
 194:Generated_Source\PSoC5/Decoder_1_PINS2.c **** 		if((position & Decoder_1_PINS2_1_INTR) != 0u) 
 266              		.loc 1 194 0
 267 0022 FB88     		ldrh	r3, [r7, #6]
 268 0024 03F00803 		and	r3, r3, #8
 269 0028 002B     		cmp	r3, #0
 270 002a 03D0     		beq	.L18
 195:Generated_Source\PSoC5/Decoder_1_PINS2.c **** 		{ 
 196:Generated_Source\PSoC5/Decoder_1_PINS2.c **** 			 Decoder_1_PINS2_1_INTTYPE_REG = (uint8)mode; 
 271              		.loc 1 196 0
 272 002c 054B     		ldr	r3, .L19+4
 273 002e BA88     		ldrh	r2, [r7, #4]	@ movhi
 274 0030 D2B2     		uxtb	r2, r2
 275 0032 1A70     		strb	r2, [r3]
 276              	.L18:
 197:Generated_Source\PSoC5/Decoder_1_PINS2.c **** 		}
 198:Generated_Source\PSoC5/Decoder_1_PINS2.c ****     }
 277              		.loc 1 198 0
 278 0034 00BF     		nop
 279 0036 0C37     		adds	r7, r7, #12
 280              		.cfi_def_cfa_offset 4
 281 0038 BD46     		mov	sp, r7
 282              		.cfi_def_cfa_register 13
 283              		@ sp needed
 284 003a 80BC     		pop	{r7}
 285              		.cfi_restore 7
 286              		.cfi_def_cfa_offset 0
 287 003c 7047     		bx	lr
 288              	.L20:
 289 003e 00BF     		.align	2
 290              	.L19:
 291 0040 22450040 		.word	1073759522
 292 0044 23450040 		.word	1073759523
 293              		.cfi_endproc
 294              	.LFE4:
 295              		.size	Decoder_1_PINS2_SetInterruptMode, .-Decoder_1_PINS2_SetInterruptMode
 296              		.section	.text.Decoder_1_PINS2_ClearInterrupt,"ax",%progbits
 297              		.align	2
 298              		.global	Decoder_1_PINS2_ClearInterrupt
 299              		.thumb
 300              		.thumb_func
 301              		.type	Decoder_1_PINS2_ClearInterrupt, %function
 302              	Decoder_1_PINS2_ClearInterrupt:
 303              	.LFB5:
 199:Generated_Source\PSoC5/Decoder_1_PINS2.c ****     
 200:Generated_Source\PSoC5/Decoder_1_PINS2.c ****     
 201:Generated_Source\PSoC5/Decoder_1_PINS2.c ****     /*******************************************************************************
 202:Generated_Source\PSoC5/Decoder_1_PINS2.c ****     * Function Name: Decoder_1_PINS2_ClearInterrupt
 203:Generated_Source\PSoC5/Decoder_1_PINS2.c ****     ****************************************************************************//**
 204:Generated_Source\PSoC5/Decoder_1_PINS2.c ****     *
 205:Generated_Source\PSoC5/Decoder_1_PINS2.c ****     * \brief Clears any active interrupts attached with the component and returns 
 206:Generated_Source\PSoC5/Decoder_1_PINS2.c ****     *  the value of the interrupt status register allowing determination of which
 207:Generated_Source\PSoC5/Decoder_1_PINS2.c ****     *  pins generated an interrupt event.
 208:Generated_Source\PSoC5/Decoder_1_PINS2.c ****     *
 209:Generated_Source\PSoC5/Decoder_1_PINS2.c ****     * \return 
 210:Generated_Source\PSoC5/Decoder_1_PINS2.c ****     *  The right-shifted current value of the interrupt status register. Each pin 
ARM GAS  C:\Users\JEFFSN~1\AppData\Local\Temp\ccvCo3LR.s 			page 10


 211:Generated_Source\PSoC5/Decoder_1_PINS2.c ****     *  has one bit set if it generated an interrupt event. For example, bit 0 is 
 212:Generated_Source\PSoC5/Decoder_1_PINS2.c ****     *  for pin 0 and bit 1 is for pin 1 of the Pins component.
 213:Generated_Source\PSoC5/Decoder_1_PINS2.c ****     *  
 214:Generated_Source\PSoC5/Decoder_1_PINS2.c ****     * \sideeffect
 215:Generated_Source\PSoC5/Decoder_1_PINS2.c ****     *  Clears all bits of the physical port's interrupt status register, not just
 216:Generated_Source\PSoC5/Decoder_1_PINS2.c ****     *  those associated with the Pins component.
 217:Generated_Source\PSoC5/Decoder_1_PINS2.c ****     *
 218:Generated_Source\PSoC5/Decoder_1_PINS2.c ****     * \funcusage
 219:Generated_Source\PSoC5/Decoder_1_PINS2.c ****     *  \snippet Decoder_1_PINS2_SUT.c usage_Decoder_1_PINS2_ClearInterrupt
 220:Generated_Source\PSoC5/Decoder_1_PINS2.c ****     *******************************************************************************/
 221:Generated_Source\PSoC5/Decoder_1_PINS2.c ****     uint8 Decoder_1_PINS2_ClearInterrupt(void)
 222:Generated_Source\PSoC5/Decoder_1_PINS2.c ****     {
 304              		.loc 1 222 0
 305              		.cfi_startproc
 306              		@ args = 0, pretend = 0, frame = 0
 307              		@ frame_needed = 1, uses_anonymous_args = 0
 308              		@ link register save eliminated.
 309 0000 80B4     		push	{r7}
 310              		.cfi_def_cfa_offset 4
 311              		.cfi_offset 7, -4
 312 0002 00AF     		add	r7, sp, #0
 313              		.cfi_def_cfa_register 7
 223:Generated_Source\PSoC5/Decoder_1_PINS2.c ****         return (Decoder_1_PINS2_INTSTAT & Decoder_1_PINS2_MASK) >> Decoder_1_PINS2_SHIFT;
 314              		.loc 1 223 0
 315 0004 054B     		ldr	r3, .L23
 316 0006 1B78     		ldrb	r3, [r3]
 317 0008 DBB2     		uxtb	r3, r3
 318 000a 03F00C03 		and	r3, r3, #12
 319 000e 9B08     		lsrs	r3, r3, #2
 320 0010 DBB2     		uxtb	r3, r3
 224:Generated_Source\PSoC5/Decoder_1_PINS2.c ****     }
 321              		.loc 1 224 0
 322 0012 1846     		mov	r0, r3
 323 0014 BD46     		mov	sp, r7
 324              		.cfi_def_cfa_register 13
 325              		@ sp needed
 326 0016 80BC     		pop	{r7}
 327              		.cfi_restore 7
 328              		.cfi_def_cfa_offset 0
 329 0018 7047     		bx	lr
 330              	.L24:
 331 001a 00BF     		.align	2
 332              	.L23:
 333 001c 84450040 		.word	1073759620
 334              		.cfi_endproc
 335              	.LFE5:
 336              		.size	Decoder_1_PINS2_ClearInterrupt, .-Decoder_1_PINS2_ClearInterrupt
 337              		.text
 338              	.Letext0:
 339              		.file 2 "Generated_Source\\PSoC5\\cytypes.h"