ARM GAS  C:\Users\JEFFSN~1\AppData\Local\Temp\ccY6zsBN.s 			page 1


   1              		.syntax unified
   2              		.cpu cortex-m3
   3              		.fpu softvfp
   4              		.eabi_attribute 20, 1
   5              		.eabi_attribute 21, 1
   6              		.eabi_attribute 23, 3
   7              		.eabi_attribute 24, 1
   8              		.eabi_attribute 25, 1
   9              		.eabi_attribute 26, 1
  10              		.eabi_attribute 30, 6
  11              		.eabi_attribute 34, 1
  12              		.eabi_attribute 18, 4
  13              		.thumb
  14              		.syntax unified
  15              		.file	"Decoder_1.c"
  16              		.text
  17              	.Ltext0:
  18              		.cfi_sections	.debug_frame
  19              		.global	Decoder_1_Enabled
  20              		.data
  21              		.type	Decoder_1_Enabled, %object
  22              		.size	Decoder_1_Enabled, 1
  23              	Decoder_1_Enabled:
  24 0000 01       		.byte	1
  25              		.section	.rodata
  26              		.align	2
  27              		.type	enc_states, %object
  28              		.size	enc_states, 16
  29              	enc_states:
  30 0000 00       		.byte	0
  31 0001 FF       		.byte	-1
  32 0002 01       		.byte	1
  33 0003 00       		.byte	0
  34 0004 01       		.byte	1
  35 0005 00       		.byte	0
  36 0006 00       		.byte	0
  37 0007 FF       		.byte	-1
  38 0008 FF       		.byte	-1
  39 0009 00       		.byte	0
  40 000a 00       		.byte	0
  41 000b 01       		.byte	1
  42 000c 00       		.byte	0
  43 000d 01       		.byte	1
  44 000e FF       		.byte	-1
  45 000f 00       		.byte	0
  46              		.bss
  47              	SW_timeout:
  48 0000 00       		.space	1
  49              	aPosition:
  50 0001 00       		.space	1
  51              	aDirection:
  52 0002 00       		.space	1
  53              	fPositionChanged:
  54 0003 00       		.space	1
  55              	aInitialized:
  56 0004 00       		.space	1
  57              		.data
ARM GAS  C:\Users\JEFFSN~1\AppData\Local\Temp\ccY6zsBN.s 			page 2


  58              		.type	aIncrement, %object
  59              		.size	aIncrement, 1
  60              	aIncrement:
  61 0001 01       		.byte	1
  62              		.type	aLowerBound, %object
  63              		.size	aLowerBound, 1
  64              	aLowerBound:
  65 0002 80       		.byte	-128
  66              		.type	aUpperBound, %object
  67              		.size	aUpperBound, 1
  68              	aUpperBound:
  69 0003 7F       		.byte	127
  70              		.bss
  71              	aCheckBounds:
  72 0005 00       		.space	1
  73              		.section	.text.Decoder_1_CheckStatus,"ax",%progbits
  74              		.align	2
  75              		.global	Decoder_1_CheckStatus
  76              		.thumb
  77              		.thumb_func
  78              		.type	Decoder_1_CheckStatus, %function
  79              	Decoder_1_CheckStatus:
  80              	.LFB63:
  81              		.file 1 "Generated_Source\\PSoC5\\Decoder_1.c"
   1:Generated_Source\PSoC5/Decoder_1.c **** /* ============================================================================
   2:Generated_Source\PSoC5/Decoder_1.c ****  * File Name: QuadDecoder_SW
   3:Generated_Source\PSoC5/Decoder_1.c ****  *   Version 0.2  (build 20_8)
   4:Generated_Source\PSoC5/Decoder_1.c ****  *
   5:Generated_Source\PSoC5/Decoder_1.c ****  * Description:
   6:Generated_Source\PSoC5/Decoder_1.c ****  *   Software implementation of quadrature decoder for rotary shaft encoders
   7:Generated_Source\PSoC5/Decoder_1.c ****  *   Implements quadrature decoder for rotary shaft encoders.
   8:Generated_Source\PSoC5/Decoder_1.c ****  *   Returns position and direction of rotation.
   9:Generated_Source\PSoC5/Decoder_1.c ****  *   8-bit, 16-bit, 32-bit, single or double position range.
  10:Generated_Source\PSoC5/Decoder_1.c ****  *   Optional button switch with debouncing.
  11:Generated_Source\PSoC5/Decoder_1.c ****  *   Optional increment step size.
  12:Generated_Source\PSoC5/Decoder_1.c ****  *   Optional range limits.
  13:Generated_Source\PSoC5/Decoder_1.c ****  *   Uses interrupt or polling technique.
  14:Generated_Source\PSoC5/Decoder_1.c ****  *
  15:Generated_Source\PSoC5/Decoder_1.c ****  * Credits:
  16:Generated_Source\PSoC5/Decoder_1.c ****  *   based on original algorithm by M. Kellett, Interfacing Micro-controllers with Incremental Shaf
  17:Generated_Source\PSoC5/Decoder_1.c ****  *   http://www.mkesc.co.uk/ise.pdf
  18:Generated_Source\PSoC5/Decoder_1.c ****  *
  19:Generated_Source\PSoC5/Decoder_1.c ****  * Note:
  20:Generated_Source\PSoC5/Decoder_1.c ****  *
  21:Generated_Source\PSoC5/Decoder_1.c ****  * ============================================================================
  22:Generated_Source\PSoC5/Decoder_1.c ****  * PROVIDED AS-IS, NO WARRANTY OF ANY KIND, INCLUDING, BUT NOT LIMITED TO, THE
  23:Generated_Source\PSoC5/Decoder_1.c ****  * IMPLIED WARRANTIES OF MERCHANTABILITY AND FITNESS FOR A PARTICULAR PURPOSE.
  24:Generated_Source\PSoC5/Decoder_1.c ****  * FREE TO SHARE, USE AND MODIFY UNDER TERMS: CREATIVE COMMONS - SHARE ALIKE
  25:Generated_Source\PSoC5/Decoder_1.c ****  * ============================================================================
  26:Generated_Source\PSoC5/Decoder_1.c **** */
  27:Generated_Source\PSoC5/Decoder_1.c ****    
  28:Generated_Source\PSoC5/Decoder_1.c **** #include <Decoder_1.h> // must specify API prefix in Symbol->Properties->Doc.APIPrefix
  29:Generated_Source\PSoC5/Decoder_1.c **** 
  30:Generated_Source\PSoC5/Decoder_1.c **** 
  31:Generated_Source\PSoC5/Decoder_1.c **** // local type declaration does not need Decoder_1_ prefix
  32:Generated_Source\PSoC5/Decoder_1.c **** #define er_t int8_t // int8_t, uint8_t, ..., uint32_t, float32(single), float64(double)
  33:Generated_Source\PSoC5/Decoder_1.c **** 
ARM GAS  C:\Users\JEFFSN~1\AppData\Local\Temp\ccY6zsBN.s 			page 3


  34:Generated_Source\PSoC5/Decoder_1.c **** static const signed char enc_states[] = {0,-1,1,0,1,0,0,-1,-1,0,0,1,0,1,-1,0}; // 
  35:Generated_Source\PSoC5/Decoder_1.c **** 
  36:Generated_Source\PSoC5/Decoder_1.c **** #define TIMED_OUT  0
  37:Generated_Source\PSoC5/Decoder_1.c **** #define SW_MASK  0x4                        // button  pin: 2
  38:Generated_Source\PSoC5/Decoder_1.c **** #define EN_MASK  0x3                        // encoder pins: 0,1
  39:Generated_Source\PSoC5/Decoder_1.c **** static volatile uint8 CYDATA SW_timeout;
  40:Generated_Source\PSoC5/Decoder_1.c **** 
  41:Generated_Source\PSoC5/Decoder_1.c **** CY_ISR_PROTO(Decoder_1_Tick_ISR);    // ISR for button switch timeout
  42:Generated_Source\PSoC5/Decoder_1.c **** CY_ISR_PROTO(Decoder_1_myDtrInt);    // interrupt on encoder pin states change
  43:Generated_Source\PSoC5/Decoder_1.c **** CY_ISR_PROTO(Decoder_1_myPollInt);   // interrupt on external polling clock
  44:Generated_Source\PSoC5/Decoder_1.c **** 
  45:Generated_Source\PSoC5/Decoder_1.c **** //====================================
  46:Generated_Source\PSoC5/Decoder_1.c **** //        private variables
  47:Generated_Source\PSoC5/Decoder_1.c **** //====================================
  48:Generated_Source\PSoC5/Decoder_1.c **** 
  49:Generated_Source\PSoC5/Decoder_1.c **** // ('static' is required for multiple instances)
  50:Generated_Source\PSoC5/Decoder_1.c **** // todo: move to Start()?
  51:Generated_Source\PSoC5/Decoder_1.c **** static er_t aPosition = Decoder_1_StartPosition; // encoder position (auto initialize to StartPosit
  52:Generated_Source\PSoC5/Decoder_1.c **** static int8 aDirection;                                 // save last valid rotation direction:  +1 
  53:Generated_Source\PSoC5/Decoder_1.c **** static volatile uint8 fPositionChanged;                 // flag indicating position change
  54:Generated_Source\PSoC5/Decoder_1.c **** #if (Decoder_1_BtnEnable)                      
  55:Generated_Source\PSoC5/Decoder_1.c ****     static uint8 fBtnPressed;                           // flag indicating button pressed
  56:Generated_Source\PSoC5/Decoder_1.c **** #endif    
  57:Generated_Source\PSoC5/Decoder_1.c **** 
  58:Generated_Source\PSoC5/Decoder_1.c **** static uint8 aInitialized = false;                      // started(1)/stopped(0)
  59:Generated_Source\PSoC5/Decoder_1.c **** uint8 Decoder_1_Enabled = true;                  // enabled(1)/disabled(0) (btn excluded)
  60:Generated_Source\PSoC5/Decoder_1.c **** 
  61:Generated_Source\PSoC5/Decoder_1.c **** 
  62:Generated_Source\PSoC5/Decoder_1.c **** // initialize values
  63:Generated_Source\PSoC5/Decoder_1.c **** static  er_t aIncrement   = 1;      // position increment
  64:Generated_Source\PSoC5/Decoder_1.c **** static  er_t aLowerBound  = -128;    // position lower bound
  65:Generated_Source\PSoC5/Decoder_1.c **** static  er_t aUpperBound  = 127;    // position upper bound
  66:Generated_Source\PSoC5/Decoder_1.c **** static uint8 aCheckBounds = false;   // check bounds flag
  67:Generated_Source\PSoC5/Decoder_1.c **** 
  68:Generated_Source\PSoC5/Decoder_1.c **** //====================================
  69:Generated_Source\PSoC5/Decoder_1.c **** //        private functions
  70:Generated_Source\PSoC5/Decoder_1.c **** //====================================
  71:Generated_Source\PSoC5/Decoder_1.c **** void  Decoder_1_SetInputsPullUp();       // set input pins state to Resistive Pull Up
  72:Generated_Source\PSoC5/Decoder_1.c **** void  Decoder_1_SetInputsHiZ();          // set input pins state to High Impedance Digital
  73:Generated_Source\PSoC5/Decoder_1.c **** //CY_INLINE
  74:Generated_Source\PSoC5/Decoder_1.c **** int8  Decoder_1_CheckRotation();         // rotation:  -1=CCW, 0=NAN, 1=CW (pol: 69->55 tic)
  75:Generated_Source\PSoC5/Decoder_1.c **** 
  76:Generated_Source\PSoC5/Decoder_1.c **** 
  77:Generated_Source\PSoC5/Decoder_1.c **** //==============================================================================
  78:Generated_Source\PSoC5/Decoder_1.c **** // Checks all asigned pins events and signals that encoder position changed
  79:Generated_Source\PSoC5/Decoder_1.c **** // return: 0-no change, -1-rotated CCW, +1-rotated CW
  80:Generated_Source\PSoC5/Decoder_1.c **** //==============================================================================
  81:Generated_Source\PSoC5/Decoder_1.c **** 
  82:Generated_Source\PSoC5/Decoder_1.c **** CY_INLINE int8 Decoder_1_CheckStatus() // todo: need return value?
  83:Generated_Source\PSoC5/Decoder_1.c **** { 
  82              		.loc 1 83 0
  83              		.cfi_startproc
  84              		@ args = 0, pretend = 0, frame = 8
  85              		@ frame_needed = 1, uses_anonymous_args = 0
  86 0000 80B5     		push	{r7, lr}
  87              		.cfi_def_cfa_offset 8
  88              		.cfi_offset 7, -8
ARM GAS  C:\Users\JEFFSN~1\AppData\Local\Temp\ccY6zsBN.s 			page 4


  89              		.cfi_offset 14, -4
  90 0002 82B0     		sub	sp, sp, #8
  91              		.cfi_def_cfa_offset 16
  92 0004 00AF     		add	r7, sp, #0
  93              		.cfi_def_cfa_register 7
  84:Generated_Source\PSoC5/Decoder_1.c ****     // 1. clear pins isr
  85:Generated_Source\PSoC5/Decoder_1.c ****     // 2. check button if enabled
  86:Generated_Source\PSoC5/Decoder_1.c ****     // 3. check rotation
  87:Generated_Source\PSoC5/Decoder_1.c ****       
  88:Generated_Source\PSoC5/Decoder_1.c ****     
  89:Generated_Source\PSoC5/Decoder_1.c ****     int8 en_dir = Decoder_1_CheckRotation(); // +11 ticks 
  94              		.loc 1 89 0
  95 0006 FFF7FEFF 		bl	Decoder_1_CheckRotation
  96 000a 0346     		mov	r3, r0
  97 000c FB71     		strb	r3, [r7, #7]
  90:Generated_Source\PSoC5/Decoder_1.c ****     
  91:Generated_Source\PSoC5/Decoder_1.c ****     if (en_dir==0) return 0;                        // no changes
  98              		.loc 1 91 0
  99 000e 97F90730 		ldrsb	r3, [r7, #7]
 100 0012 002B     		cmp	r3, #0
 101 0014 01D1     		bne	.L2
 102              		.loc 1 91 0 is_stmt 0 discriminator 1
 103 0016 0023     		movs	r3, #0
 104 0018 07E0     		b	.L3
 105              	.L2:
  92:Generated_Source\PSoC5/Decoder_1.c ****     
  93:Generated_Source\PSoC5/Decoder_1.c ****     aDirection = en_dir;                            // store last (non-zero) direction of rotation
 106              		.loc 1 93 0 is_stmt 1
 107 001a 064A     		ldr	r2, .L4
 108 001c FB79     		ldrb	r3, [r7, #7]
 109 001e 1370     		strb	r3, [r2]
  94:Generated_Source\PSoC5/Decoder_1.c ****    
  95:Generated_Source\PSoC5/Decoder_1.c ****     fPositionChanged = 1;                           // update flag 
 110              		.loc 1 95 0
 111 0020 054B     		ldr	r3, .L4+4
 112 0022 0122     		movs	r2, #1
 113 0024 1A70     		strb	r2, [r3]
  96:Generated_Source\PSoC5/Decoder_1.c ****     
  97:Generated_Source\PSoC5/Decoder_1.c ****     return en_dir;                                  // value changed: -1=CCW, 1=CW 
 114              		.loc 1 97 0
 115 0026 97F90730 		ldrsb	r3, [r7, #7]
 116              	.L3:
  98:Generated_Source\PSoC5/Decoder_1.c **** } 
 117              		.loc 1 98 0
 118 002a 1846     		mov	r0, r3
 119 002c 0837     		adds	r7, r7, #8
 120              		.cfi_def_cfa_offset 8
 121 002e BD46     		mov	sp, r7
 122              		.cfi_def_cfa_register 13
 123              		@ sp needed
 124 0030 80BD     		pop	{r7, pc}
 125              	.L5:
 126 0032 00BF     		.align	2
 127              	.L4:
 128 0034 02000000 		.word	aDirection
 129 0038 03000000 		.word	fPositionChanged
 130              		.cfi_endproc
ARM GAS  C:\Users\JEFFSN~1\AppData\Local\Temp\ccY6zsBN.s 			page 5


 131              	.LFE63:
 132              		.size	Decoder_1_CheckStatus, .-Decoder_1_CheckStatus
 133              		.section	.text.Decoder_1_CheckRotation,"ax",%progbits
 134              		.align	2
 135              		.global	Decoder_1_CheckRotation
 136              		.thumb
 137              		.thumb_func
 138              		.type	Decoder_1_CheckRotation, %function
 139              	Decoder_1_CheckRotation:
 140              	.LFB64:
  99:Generated_Source\PSoC5/Decoder_1.c **** 
 100:Generated_Source\PSoC5/Decoder_1.c **** 
 101:Generated_Source\PSoC5/Decoder_1.c **** #if Decoder_1_IsrMode
 102:Generated_Source\PSoC5/Decoder_1.c ****     
 103:Generated_Source\PSoC5/Decoder_1.c **** //==============================================================================
 104:Generated_Source\PSoC5/Decoder_1.c **** // 
 105:Generated_Source\PSoC5/Decoder_1.c **** //  
 106:Generated_Source\PSoC5/Decoder_1.c **** // 
 107:Generated_Source\PSoC5/Decoder_1.c **** //                    STATE CHECK USING INTERRUPT METHOD->
 108:Generated_Source\PSoC5/Decoder_1.c **** // 
 109:Generated_Source\PSoC5/Decoder_1.c **** //  
 110:Generated_Source\PSoC5/Decoder_1.c **** // 
 111:Generated_Source\PSoC5/Decoder_1.c **** //  
 112:Generated_Source\PSoC5/Decoder_1.c **** //==============================================================================    
 113:Generated_Source\PSoC5/Decoder_1.c ****     
 114:Generated_Source\PSoC5/Decoder_1.c ****     
 115:Generated_Source\PSoC5/Decoder_1.c **** //==============================================================================
 116:Generated_Source\PSoC5/Decoder_1.c **** // Circuits@Home algorithm with pin interrupts
 117:Generated_Source\PSoC5/Decoder_1.c **** // returns direction of rotation:  -1=CCW, 0=NAN, 1=CW 
 118:Generated_Source\PSoC5/Decoder_1.c **** //==============================================================================
 119:Generated_Source\PSoC5/Decoder_1.c **** 
 120:Generated_Source\PSoC5/Decoder_1.c **** CY_INLINE int8 Decoder_1_CheckRotation() // checks pin status
 121:Generated_Source\PSoC5/Decoder_1.c **** {
 141              		.loc 1 121 0
 142              		.cfi_startproc
 143              		@ args = 0, pretend = 0, frame = 8
 144              		@ frame_needed = 1, uses_anonymous_args = 0
 145              		@ link register save eliminated.
 146 0000 80B4     		push	{r7}
 147              		.cfi_def_cfa_offset 4
 148              		.cfi_offset 7, -4
 149 0002 83B0     		sub	sp, sp, #12
 150              		.cfi_def_cfa_offset 16
 151 0004 00AF     		add	r7, sp, #0
 152              		.cfi_def_cfa_register 7
 122:Generated_Source\PSoC5/Decoder_1.c ****     static uint8 index = 0;
 123:Generated_Source\PSoC5/Decoder_1.c ****     static  int8 Acc   = 0;                     //internal accumulator to accumulate 1/4 microsteps
 124:Generated_Source\PSoC5/Decoder_1.c ****     
 125:Generated_Source\PSoC5/Decoder_1.c ****     
 126:Generated_Source\PSoC5/Decoder_1.c ****     #if (Decoder_1_BtnEnable) 
 127:Generated_Source\PSoC5/Decoder_1.c ****         uint8 bits  = (Decoder_1_PINS3_PS & Decoder_1_PINS3_MASK) >> Decoder_1_PINS3_SHIFT;//+7tic 
 128:Generated_Source\PSoC5/Decoder_1.c ****         
 129:Generated_Source\PSoC5/Decoder_1.c ****         if(((bits & SW_MASK) == 0) && (SW_timeout == TIMED_OUT))            // Btn pressed 
 130:Generated_Source\PSoC5/Decoder_1.c **** 	    {
 131:Generated_Source\PSoC5/Decoder_1.c ****             SW_timeout = SW_DEBOUNCE_TIME;      // reset the debounce timer for this button
 132:Generated_Source\PSoC5/Decoder_1.c ****             Decoder_1_isrBtnSW_StartEx(Decoder_1_Tick_ISR);   // start debouncing timer isr
 133:Generated_Source\PSoC5/Decoder_1.c ****             return 0; // ignore encoder if button pressed
ARM GAS  C:\Users\JEFFSN~1\AppData\Local\Temp\ccY6zsBN.s 			page 6


 134:Generated_Source\PSoC5/Decoder_1.c **** 	    }             
 135:Generated_Source\PSoC5/Decoder_1.c ****         
 136:Generated_Source\PSoC5/Decoder_1.c ****         bits &= EN_MASK;  // pins state
 137:Generated_Source\PSoC5/Decoder_1.c ****     #else
 138:Generated_Source\PSoC5/Decoder_1.c ****         uint8 bits  = (Decoder_1_PINS2_PS & Decoder_1_PINS2_MASK) >> Decoder_1_PINS2_SHIFT;//+7tic 
 153              		.loc 1 138 0
 154 0006 1E4B     		ldr	r3, .L9
 155 0008 1B78     		ldrb	r3, [r3]
 156 000a DBB2     		uxtb	r3, r3
 157 000c 03F00C03 		and	r3, r3, #12
 158 0010 9B08     		lsrs	r3, r3, #2
 159 0012 FB71     		strb	r3, [r7, #7]
 139:Generated_Source\PSoC5/Decoder_1.c ****     #endif   
 140:Generated_Source\PSoC5/Decoder_1.c ****     
 141:Generated_Source\PSoC5/Decoder_1.c **** 
 142:Generated_Source\PSoC5/Decoder_1.c ****     if (Decoder_1_Enabled==0) return 0;  // decoder disabled
 160              		.loc 1 142 0
 161 0014 1B4B     		ldr	r3, .L9+4
 162 0016 1B78     		ldrb	r3, [r3]	@ zero_extendqisi2
 163 0018 002B     		cmp	r3, #0
 164 001a 01D1     		bne	.L7
 165              		.loc 1 142 0 is_stmt 0 discriminator 1
 166 001c 0023     		movs	r3, #0
 167 001e 29E0     		b	.L8
 168              	.L7:
 143:Generated_Source\PSoC5/Decoder_1.c ****     
 144:Generated_Source\PSoC5/Decoder_1.c **** 
 145:Generated_Source\PSoC5/Decoder_1.c ****     #if (Decoder_1_InvertDir)
 146:Generated_Source\PSoC5/Decoder_1.c ****         bits  = ((bits&1)<<1) | ((bits&2)>>1);  // swap bits 1&2
 147:Generated_Source\PSoC5/Decoder_1.c ****     #endif
 148:Generated_Source\PSoC5/Decoder_1.c ****     
 149:Generated_Source\PSoC5/Decoder_1.c ****     
 150:Generated_Source\PSoC5/Decoder_1.c ****     index <<= 2;                                // remember previous state by shifting the lower bi
 169              		.loc 1 150 0 is_stmt 1
 170 0020 194B     		ldr	r3, .L9+8
 171 0022 1B78     		ldrb	r3, [r3]	@ zero_extendqisi2
 172 0024 9B00     		lsls	r3, r3, #2
 173 0026 DAB2     		uxtb	r2, r3
 174 0028 174B     		ldr	r3, .L9+8
 175 002a 1A70     		strb	r2, [r3]
 151:Generated_Source\PSoC5/Decoder_1.c ****     index |= bits;                              // OR bits with var old_AB to set new value     
 176              		.loc 1 151 0
 177 002c 164B     		ldr	r3, .L9+8
 178 002e 1A78     		ldrb	r2, [r3]	@ zero_extendqisi2
 179 0030 FB79     		ldrb	r3, [r7, #7]
 180 0032 1343     		orrs	r3, r3, r2
 181 0034 DAB2     		uxtb	r2, r3
 182 0036 144B     		ldr	r3, .L9+8
 183 0038 1A70     		strb	r2, [r3]
 152:Generated_Source\PSoC5/Decoder_1.c ****     Acc &= 0x03;                                // dont let it grow >3 or <-3
 184              		.loc 1 152 0
 185 003a 144B     		ldr	r3, .L9+12
 186 003c 93F90030 		ldrsb	r3, [r3]
 187 0040 03F00303 		and	r3, r3, #3
 188 0044 5AB2     		sxtb	r2, r3
 189 0046 114B     		ldr	r3, .L9+12
 190 0048 1A70     		strb	r2, [r3]
ARM GAS  C:\Users\JEFFSN~1\AppData\Local\Temp\ccY6zsBN.s 			page 7


 153:Generated_Source\PSoC5/Decoder_1.c ****     Acc += enc_states[ index & 0x0f ];          // accumulate 1/4 steps   
 191              		.loc 1 153 0
 192 004a 0F4B     		ldr	r3, .L9+8
 193 004c 1B78     		ldrb	r3, [r3]	@ zero_extendqisi2
 194 004e 03F00F03 		and	r3, r3, #15
 195 0052 0F4A     		ldr	r2, .L9+16
 196 0054 D356     		ldrsb	r3, [r2, r3]
 197 0056 DAB2     		uxtb	r2, r3
 198 0058 0C4B     		ldr	r3, .L9+12
 199 005a 93F90030 		ldrsb	r3, [r3]
 200 005e DBB2     		uxtb	r3, r3
 201 0060 1344     		add	r3, r3, r2
 202 0062 DBB2     		uxtb	r3, r3
 203 0064 5AB2     		sxtb	r2, r3
 204 0066 094B     		ldr	r3, .L9+12
 205 0068 1A70     		strb	r2, [r3]
 154:Generated_Source\PSoC5/Decoder_1.c ****   
 155:Generated_Source\PSoC5/Decoder_1.c ****     return Acc>>2;                              // -1=CCW, 0=NAN, 1=CW 
 206              		.loc 1 155 0
 207 006a 084B     		ldr	r3, .L9+12
 208 006c 93F90030 		ldrsb	r3, [r3]
 209 0070 9B10     		asrs	r3, r3, #2
 210 0072 5BB2     		sxtb	r3, r3
 211              	.L8:
 156:Generated_Source\PSoC5/Decoder_1.c **** }
 212              		.loc 1 156 0
 213 0074 1846     		mov	r0, r3
 214 0076 0C37     		adds	r7, r7, #12
 215              		.cfi_def_cfa_offset 4
 216 0078 BD46     		mov	sp, r7
 217              		.cfi_def_cfa_register 13
 218              		@ sp needed
 219 007a 80BC     		pop	{r7}
 220              		.cfi_restore 7
 221              		.cfi_def_cfa_offset 0
 222 007c 7047     		bx	lr
 223              	.L10:
 224 007e 00BF     		.align	2
 225              	.L9:
 226 0080 41510040 		.word	1073762625
 227 0084 00000000 		.word	Decoder_1_Enabled
 228 0088 06000000 		.word	index.7280
 229 008c 07000000 		.word	Acc.7281
 230 0090 00000000 		.word	enc_states
 231              		.cfi_endproc
 232              	.LFE64:
 233              		.size	Decoder_1_CheckRotation, .-Decoder_1_CheckRotation
 234              		.section	.text.Decoder_1_ClearInterrupt,"ax",%progbits
 235              		.align	2
 236              		.global	Decoder_1_ClearInterrupt
 237              		.thumb
 238              		.thumb_func
 239              		.type	Decoder_1_ClearInterrupt, %function
 240              	Decoder_1_ClearInterrupt:
 241              	.LFB65:
 157:Generated_Source\PSoC5/Decoder_1.c **** 
 158:Generated_Source\PSoC5/Decoder_1.c **** //==============================================================================
ARM GAS  C:\Users\JEFFSN~1\AppData\Local\Temp\ccY6zsBN.s 			page 8


 159:Generated_Source\PSoC5/Decoder_1.c **** // Debouncing ISR - counts milliseconds elapsed after button press
 160:Generated_Source\PSoC5/Decoder_1.c **** // Rises semaphore flag when timeout
 161:Generated_Source\PSoC5/Decoder_1.c **** // Works on Button Pressed event
 162:Generated_Source\PSoC5/Decoder_1.c **** //==============================================================================
 163:Generated_Source\PSoC5/Decoder_1.c ****     
 164:Generated_Source\PSoC5/Decoder_1.c **** #if (Decoder_1_BtnEnable)
 165:Generated_Source\PSoC5/Decoder_1.c **** CY_ISR(Decoder_1_Tick_ISR)
 166:Generated_Source\PSoC5/Decoder_1.c **** {
 167:Generated_Source\PSoC5/Decoder_1.c **** 	if(SW_timeout != 0) 
 168:Generated_Source\PSoC5/Decoder_1.c **** 	{
 169:Generated_Source\PSoC5/Decoder_1.c **** 		if(--SW_timeout == TIMED_OUT)   // edge was detected by the PICU. Decrement and check timeout.
 170:Generated_Source\PSoC5/Decoder_1.c **** 		{
 171:Generated_Source\PSoC5/Decoder_1.c ****             // Timed out -> check if SW still pressed
 172:Generated_Source\PSoC5/Decoder_1.c **** 			if((Decoder_1_PINS3_Read() & SW_MASK) == 0)  
 173:Generated_Source\PSoC5/Decoder_1.c **** 			{
 174:Generated_Source\PSoC5/Decoder_1.c ****                 Decoder_1_isrBtnSW_Stop();
 175:Generated_Source\PSoC5/Decoder_1.c ****                 fBtnPressed = 1;        // set flag
 176:Generated_Source\PSoC5/Decoder_1.c **** 			}
 177:Generated_Source\PSoC5/Decoder_1.c **** 		}
 178:Generated_Source\PSoC5/Decoder_1.c **** 	}
 179:Generated_Source\PSoC5/Decoder_1.c **** }
 180:Generated_Source\PSoC5/Decoder_1.c **** 
 181:Generated_Source\PSoC5/Decoder_1.c **** #endif //(_BtnEnable)
 182:Generated_Source\PSoC5/Decoder_1.c **** 
 183:Generated_Source\PSoC5/Decoder_1.c **** 
 184:Generated_Source\PSoC5/Decoder_1.c **** //==============================================================================
 185:Generated_Source\PSoC5/Decoder_1.c **** // Clears pins interrupt
 186:Generated_Source\PSoC5/Decoder_1.c **** // If pins isr is enabled, then must clear inside ISR to allow further isr events
 187:Generated_Source\PSoC5/Decoder_1.c **** //==============================================================================
 188:Generated_Source\PSoC5/Decoder_1.c **** 
 189:Generated_Source\PSoC5/Decoder_1.c **** CY_INLINE void Decoder_1_ClearInterrupt() // 
 190:Generated_Source\PSoC5/Decoder_1.c **** {
 242              		.loc 1 190 0
 243              		.cfi_startproc
 244              		@ args = 0, pretend = 0, frame = 0
 245              		@ frame_needed = 1, uses_anonymous_args = 0
 246              		@ link register save eliminated.
 247 0000 80B4     		push	{r7}
 248              		.cfi_def_cfa_offset 4
 249              		.cfi_offset 7, -4
 250 0002 00AF     		add	r7, sp, #0
 251              		.cfi_def_cfa_register 7
 191:Generated_Source\PSoC5/Decoder_1.c ****     
 192:Generated_Source\PSoC5/Decoder_1.c ****         #if (Decoder_1_BtnEnable)
 193:Generated_Source\PSoC5/Decoder_1.c ****             
 194:Generated_Source\PSoC5/Decoder_1.c ****             #if (CY_PSOC5)
 195:Generated_Source\PSoC5/Decoder_1.c ****                 Decoder_1_PINS3_INTSTAT; 
 196:Generated_Source\PSoC5/Decoder_1.c ****             #else
 197:Generated_Source\PSoC5/Decoder_1.c ****                 Decoder_1_PINS3_ClearInterrupt(); 
 198:Generated_Source\PSoC5/Decoder_1.c ****             #endif
 199:Generated_Source\PSoC5/Decoder_1.c ****             
 200:Generated_Source\PSoC5/Decoder_1.c ****         #else
 201:Generated_Source\PSoC5/Decoder_1.c ****             
 202:Generated_Source\PSoC5/Decoder_1.c ****             #if (CY_PSOC5)
 203:Generated_Source\PSoC5/Decoder_1.c ****                 Decoder_1_PINS2_INTSTAT;     
 252              		.loc 1 203 0
 253 0004 024B     		ldr	r3, .L12
ARM GAS  C:\Users\JEFFSN~1\AppData\Local\Temp\ccY6zsBN.s 			page 9


 254 0006 1B78     		ldrb	r3, [r3]
 204:Generated_Source\PSoC5/Decoder_1.c ****             #else
 205:Generated_Source\PSoC5/Decoder_1.c ****                 Decoder_1_PINS2_ClearInterrupt(); 
 206:Generated_Source\PSoC5/Decoder_1.c ****             #endif    
 207:Generated_Source\PSoC5/Decoder_1.c ****             
 208:Generated_Source\PSoC5/Decoder_1.c ****         #endif    
 209:Generated_Source\PSoC5/Decoder_1.c **** }
 255              		.loc 1 209 0
 256 0008 00BF     		nop
 257 000a BD46     		mov	sp, r7
 258              		.cfi_def_cfa_register 13
 259              		@ sp needed
 260 000c 80BC     		pop	{r7}
 261              		.cfi_restore 7
 262              		.cfi_def_cfa_offset 0
 263 000e 7047     		bx	lr
 264              	.L13:
 265              		.align	2
 266              	.L12:
 267 0010 84450040 		.word	1073759620
 268              		.cfi_endproc
 269              	.LFE65:
 270              		.size	Decoder_1_ClearInterrupt, .-Decoder_1_ClearInterrupt
 271              		.section	.text.Decoder_1_myDtrInt,"ax",%progbits
 272              		.align	2
 273              		.global	Decoder_1_myDtrInt
 274              		.thumb
 275              		.thumb_func
 276              		.type	Decoder_1_myDtrInt, %function
 277              	Decoder_1_myDtrInt:
 278              	.LFB66:
 210:Generated_Source\PSoC5/Decoder_1.c **** 
 211:Generated_Source\PSoC5/Decoder_1.c **** 
 212:Generated_Source\PSoC5/Decoder_1.c **** //==============================================================================
 213:Generated_Source\PSoC5/Decoder_1.c **** // interrupt on encoder pin states change
 214:Generated_Source\PSoC5/Decoder_1.c **** //==============================================================================
 215:Generated_Source\PSoC5/Decoder_1.c **** 
 216:Generated_Source\PSoC5/Decoder_1.c **** CY_ISR(Decoder_1_myDtrInt) 
 217:Generated_Source\PSoC5/Decoder_1.c **** {   
 279              		.loc 1 217 0
 280              		.cfi_startproc
 281              		@ args = 0, pretend = 0, frame = 0
 282              		@ frame_needed = 1, uses_anonymous_args = 0
 283 0000 80B5     		push	{r7, lr}
 284              		.cfi_def_cfa_offset 8
 285              		.cfi_offset 7, -8
 286              		.cfi_offset 14, -4
 287 0002 00AF     		add	r7, sp, #0
 288              		.cfi_def_cfa_register 7
 218:Generated_Source\PSoC5/Decoder_1.c ****     Decoder_1_ClearInterrupt(); // must clear
 289              		.loc 1 218 0
 290 0004 FFF7FEFF 		bl	Decoder_1_ClearInterrupt
 219:Generated_Source\PSoC5/Decoder_1.c ****     Decoder_1_CheckStatus();  
 291              		.loc 1 219 0
 292 0008 FFF7FEFF 		bl	Decoder_1_CheckStatus
 220:Generated_Source\PSoC5/Decoder_1.c ****     Decoder_1_GetPositionChanged();
 293              		.loc 1 220 0
ARM GAS  C:\Users\JEFFSN~1\AppData\Local\Temp\ccY6zsBN.s 			page 10


 294 000c FFF7FEFF 		bl	Decoder_1_GetPositionChanged
 221:Generated_Source\PSoC5/Decoder_1.c **** }    
 295              		.loc 1 221 0
 296 0010 00BF     		nop
 297 0012 80BD     		pop	{r7, pc}
 298              		.cfi_endproc
 299              	.LFE66:
 300              		.size	Decoder_1_myDtrInt, .-Decoder_1_myDtrInt
 301              		.section	.text.Decoder_1_Start,"ax",%progbits
 302              		.align	2
 303              		.global	Decoder_1_Start
 304              		.thumb
 305              		.thumb_func
 306              		.type	Decoder_1_Start, %function
 307              	Decoder_1_Start:
 308              	.LFB67:
 222:Generated_Source\PSoC5/Decoder_1.c **** 
 223:Generated_Source\PSoC5/Decoder_1.c **** 
 224:Generated_Source\PSoC5/Decoder_1.c **** 
 225:Generated_Source\PSoC5/Decoder_1.c **** 
 226:Generated_Source\PSoC5/Decoder_1.c **** 
 227:Generated_Source\PSoC5/Decoder_1.c **** #else // (!IsrMode)
 228:Generated_Source\PSoC5/Decoder_1.c ****  
 229:Generated_Source\PSoC5/Decoder_1.c **** //==============================================================================
 230:Generated_Source\PSoC5/Decoder_1.c **** // 
 231:Generated_Source\PSoC5/Decoder_1.c **** //  
 232:Generated_Source\PSoC5/Decoder_1.c **** // 
 233:Generated_Source\PSoC5/Decoder_1.c **** //                     STATE CHECK USING POLLING METHOD->
 234:Generated_Source\PSoC5/Decoder_1.c **** // 
 235:Generated_Source\PSoC5/Decoder_1.c **** //  
 236:Generated_Source\PSoC5/Decoder_1.c **** // 
 237:Generated_Source\PSoC5/Decoder_1.c **** //  
 238:Generated_Source\PSoC5/Decoder_1.c **** //==============================================================================    
 239:Generated_Source\PSoC5/Decoder_1.c ****     
 240:Generated_Source\PSoC5/Decoder_1.c ****     
 241:Generated_Source\PSoC5/Decoder_1.c **** //==============================================================================
 242:Generated_Source\PSoC5/Decoder_1.c **** // Circuits@Home algorithm w/o pins interrupt
 243:Generated_Source\PSoC5/Decoder_1.c **** // returns direction of rotation: -1=CCW, 0=NAN, 1=CW 
 244:Generated_Source\PSoC5/Decoder_1.c **** //==============================================================================
 245:Generated_Source\PSoC5/Decoder_1.c **** 
 246:Generated_Source\PSoC5/Decoder_1.c **** CY_INLINE int8 Decoder_1_CheckRotation()
 247:Generated_Source\PSoC5/Decoder_1.c **** {
 248:Generated_Source\PSoC5/Decoder_1.c ****     static uint8 index = 0;
 249:Generated_Source\PSoC5/Decoder_1.c ****     static  int8 Acc = 0;                       // internal accumulator to accumulate 1/4 microstep
 250:Generated_Source\PSoC5/Decoder_1.c **** 
 251:Generated_Source\PSoC5/Decoder_1.c ****     #if (Decoder_1_BtnEnable)
 252:Generated_Source\PSoC5/Decoder_1.c ****         
 253:Generated_Source\PSoC5/Decoder_1.c **** 	    if(SW_timeout == TIMED_OUT) // in idle state
 254:Generated_Source\PSoC5/Decoder_1.c **** 	    {
 255:Generated_Source\PSoC5/Decoder_1.c ****             uint8 bit_SW = Decoder_1_pin_btn_Read(); // Btn pressed
 256:Generated_Source\PSoC5/Decoder_1.c ****             
 257:Generated_Source\PSoC5/Decoder_1.c ****             if(bit_SW != 0)                                 // Btn pressed while in idle state
 258:Generated_Source\PSoC5/Decoder_1.c ****             {
 259:Generated_Source\PSoC5/Decoder_1.c **** 	        	SW_timeout = SW_DEBOUNCE_TIME;              // reset the debounce timer for this button
 260:Generated_Source\PSoC5/Decoder_1.c ****                 return 0;                                   
 261:Generated_Source\PSoC5/Decoder_1.c ****             }    
 262:Generated_Source\PSoC5/Decoder_1.c **** 	    }
ARM GAS  C:\Users\JEFFSN~1\AppData\Local\Temp\ccY6zsBN.s 			page 11


 263:Generated_Source\PSoC5/Decoder_1.c ****         else                                                // debouncing countdown after button pr
 264:Generated_Source\PSoC5/Decoder_1.c **** 	    {
 265:Generated_Source\PSoC5/Decoder_1.c **** 		    if(--SW_timeout == TIMED_OUT)                   // Decrement and check for timeout.
 266:Generated_Source\PSoC5/Decoder_1.c **** 		    { 
 267:Generated_Source\PSoC5/Decoder_1.c ****                 if (Decoder_1_pin_btn_Read() == 0)   // check if SW still pressed 
 268:Generated_Source\PSoC5/Decoder_1.c **** 			    {
 269:Generated_Source\PSoC5/Decoder_1.c ****                     fBtnPressed = 1;                        // Rises semaphore flag
 270:Generated_Source\PSoC5/Decoder_1.c **** 			    }
 271:Generated_Source\PSoC5/Decoder_1.c **** 		    }
 272:Generated_Source\PSoC5/Decoder_1.c **** 	    }
 273:Generated_Source\PSoC5/Decoder_1.c ****                 
 274:Generated_Source\PSoC5/Decoder_1.c ****         // read pins  
 275:Generated_Source\PSoC5/Decoder_1.c ****         uint8 bit_a = (Decoder_1_pin_A_PS & Decoder_1_pin_A_MASK) >> Decoder_1_pin_A_SHIFT; 
 276:Generated_Source\PSoC5/Decoder_1.c ****         uint8 bit_b = (Decoder_1_pin_B_PS & Decoder_1_pin_B_MASK) >> Decoder_1_pin_B_SHIFT;
 277:Generated_Source\PSoC5/Decoder_1.c ****         
 278:Generated_Source\PSoC5/Decoder_1.c ****     #else
 279:Generated_Source\PSoC5/Decoder_1.c ****         
 280:Generated_Source\PSoC5/Decoder_1.c ****         // read pins  
 281:Generated_Source\PSoC5/Decoder_1.c ****         uint8 bit_a = (Decoder_1_pin_A_PS & Decoder_1_pin_A_MASK) >> Decoder_1_pin_A_SHIFT; 
 282:Generated_Source\PSoC5/Decoder_1.c ****         uint8 bit_b = (Decoder_1_pin_B_PS & Decoder_1_pin_B_MASK) >> Decoder_1_pin_B_SHIFT;
 283:Generated_Source\PSoC5/Decoder_1.c **** 
 284:Generated_Source\PSoC5/Decoder_1.c ****     #endif    
 285:Generated_Source\PSoC5/Decoder_1.c ****     
 286:Generated_Source\PSoC5/Decoder_1.c ****     
 287:Generated_Source\PSoC5/Decoder_1.c ****     if (Decoder_1_Enabled==0) return 0;  // decoder disabled
 288:Generated_Source\PSoC5/Decoder_1.c ****     
 289:Generated_Source\PSoC5/Decoder_1.c ****     
 290:Generated_Source\PSoC5/Decoder_1.c ****     #if (Decoder_1_InvertDir)
 291:Generated_Source\PSoC5/Decoder_1.c ****         uint8 bits = ((bit_a << 1) | bit_b);
 292:Generated_Source\PSoC5/Decoder_1.c ****     #else
 293:Generated_Source\PSoC5/Decoder_1.c ****         uint8 bits = ((bit_b << 1) | bit_a);
 294:Generated_Source\PSoC5/Decoder_1.c ****     #endif
 295:Generated_Source\PSoC5/Decoder_1.c **** 
 296:Generated_Source\PSoC5/Decoder_1.c ****     
 297:Generated_Source\PSoC5/Decoder_1.c ****     index <<= 2;                                // remember previous state by shifting the lower bi
 298:Generated_Source\PSoC5/Decoder_1.c ****     index |= bits;                              // OR bits with var old_AB to set new value  
 299:Generated_Source\PSoC5/Decoder_1.c ****     Acc &= 0x03;                                // dont let it grow >3 or <-3
 300:Generated_Source\PSoC5/Decoder_1.c ****     Acc += enc_states[ index & 0x0f ];          // accumulate 1/4 steps                            
 301:Generated_Source\PSoC5/Decoder_1.c ****     
 302:Generated_Source\PSoC5/Decoder_1.c ****     return Acc>>2;                              // -1=CCW, 0=NAN, 1=CW  
 303:Generated_Source\PSoC5/Decoder_1.c **** }
 304:Generated_Source\PSoC5/Decoder_1.c **** 
 305:Generated_Source\PSoC5/Decoder_1.c **** 
 306:Generated_Source\PSoC5/Decoder_1.c **** //==============================================================================
 307:Generated_Source\PSoC5/Decoder_1.c **** // interrupt on external clock for polling states
 308:Generated_Source\PSoC5/Decoder_1.c **** //==============================================================================
 309:Generated_Source\PSoC5/Decoder_1.c **** 
 310:Generated_Source\PSoC5/Decoder_1.c **** CY_ISR(Decoder_1_myPollInt) 
 311:Generated_Source\PSoC5/Decoder_1.c **** {   
 312:Generated_Source\PSoC5/Decoder_1.c ****     Decoder_1_CheckStatus(); 
 313:Generated_Source\PSoC5/Decoder_1.c **** }    
 314:Generated_Source\PSoC5/Decoder_1.c **** 
 315:Generated_Source\PSoC5/Decoder_1.c **** 
 316:Generated_Source\PSoC5/Decoder_1.c **** #endif //!IsrMode   
 317:Generated_Source\PSoC5/Decoder_1.c **** 
 318:Generated_Source\PSoC5/Decoder_1.c **** 
 319:Generated_Source\PSoC5/Decoder_1.c **** //==============================================================================
ARM GAS  C:\Users\JEFFSN~1\AppData\Local\Temp\ccY6zsBN.s 			page 12


 320:Generated_Source\PSoC5/Decoder_1.c **** // 
 321:Generated_Source\PSoC5/Decoder_1.c **** //  
 322:Generated_Source\PSoC5/Decoder_1.c **** // 
 323:Generated_Source\PSoC5/Decoder_1.c **** //                   COMMON ROUTINES (ISR / POLL MODE)->
 324:Generated_Source\PSoC5/Decoder_1.c **** // 
 325:Generated_Source\PSoC5/Decoder_1.c **** //  
 326:Generated_Source\PSoC5/Decoder_1.c **** // 
 327:Generated_Source\PSoC5/Decoder_1.c **** //  
 328:Generated_Source\PSoC5/Decoder_1.c **** //==============================================================================
 329:Generated_Source\PSoC5/Decoder_1.c **** 
 330:Generated_Source\PSoC5/Decoder_1.c **** //==============================================================================
 331:Generated_Source\PSoC5/Decoder_1.c **** // Initialize encoder 
 332:Generated_Source\PSoC5/Decoder_1.c **** //==============================================================================
 333:Generated_Source\PSoC5/Decoder_1.c **** 
 334:Generated_Source\PSoC5/Decoder_1.c **** void Decoder_1_Start()
 335:Generated_Source\PSoC5/Decoder_1.c **** { 
 309              		.loc 1 335 0
 310              		.cfi_startproc
 311              		@ args = 0, pretend = 0, frame = 0
 312              		@ frame_needed = 1, uses_anonymous_args = 0
 313 0000 80B5     		push	{r7, lr}
 314              		.cfi_def_cfa_offset 8
 315              		.cfi_offset 7, -8
 316              		.cfi_offset 14, -4
 317 0002 00AF     		add	r7, sp, #0
 318              		.cfi_def_cfa_register 7
 336:Generated_Source\PSoC5/Decoder_1.c ****     #if Decoder_1_IsrMode
 337:Generated_Source\PSoC5/Decoder_1.c ****         Decoder_1_isrDtr_StartEx(Decoder_1_myDtrInt);//start isrDtr interrupt
 319              		.loc 1 337 0
 320 0004 0448     		ldr	r0, .L16
 321 0006 FFF7FEFF 		bl	Decoder_1_isrDtr_StartEx
 338:Generated_Source\PSoC5/Decoder_1.c ****     #else    
 339:Generated_Source\PSoC5/Decoder_1.c ****     #if Decoder_1_IsrInternal
 340:Generated_Source\PSoC5/Decoder_1.c ****         Decoder_1_isrPoll_StartEx(Decoder_1_myPollInt);//start isrPoll interrupt
 341:Generated_Source\PSoC5/Decoder_1.c ****     #endif 
 342:Generated_Source\PSoC5/Decoder_1.c ****     #endif 
 343:Generated_Source\PSoC5/Decoder_1.c ****     
 344:Generated_Source\PSoC5/Decoder_1.c ****     
 345:Generated_Source\PSoC5/Decoder_1.c ****     if (Decoder_1_InputsPullUp)
 346:Generated_Source\PSoC5/Decoder_1.c ****         Decoder_1_SetInputsPullUp();
 322              		.loc 1 346 0
 323 000a FFF7FEFF 		bl	Decoder_1_SetInputsPullUp
 347:Generated_Source\PSoC5/Decoder_1.c ****     else    
 348:Generated_Source\PSoC5/Decoder_1.c ****         Decoder_1_SetInputsHiZ();
 349:Generated_Source\PSoC5/Decoder_1.c ****         
 350:Generated_Source\PSoC5/Decoder_1.c ****     aInitialized = true;                    // started
 324              		.loc 1 350 0
 325 000e 034B     		ldr	r3, .L16+4
 326 0010 0122     		movs	r2, #1
 327 0012 1A70     		strb	r2, [r3]
 351:Generated_Source\PSoC5/Decoder_1.c **** } 
 328              		.loc 1 351 0
 329 0014 00BF     		nop
 330 0016 80BD     		pop	{r7, pc}
 331              	.L17:
 332              		.align	2
 333              	.L16:
ARM GAS  C:\Users\JEFFSN~1\AppData\Local\Temp\ccY6zsBN.s 			page 13


 334 0018 00000000 		.word	Decoder_1_myDtrInt
 335 001c 04000000 		.word	aInitialized
 336              		.cfi_endproc
 337              	.LFE67:
 338              		.size	Decoder_1_Start, .-Decoder_1_Start
 339              		.section	.text.Decoder_1_Stop,"ax",%progbits
 340              		.align	2
 341              		.global	Decoder_1_Stop
 342              		.thumb
 343              		.thumb_func
 344              		.type	Decoder_1_Stop, %function
 345              	Decoder_1_Stop:
 346              	.LFB68:
 352:Generated_Source\PSoC5/Decoder_1.c **** 
 353:Generated_Source\PSoC5/Decoder_1.c **** //==============================================================================
 354:Generated_Source\PSoC5/Decoder_1.c **** // Stop encoder 
 355:Generated_Source\PSoC5/Decoder_1.c **** //==============================================================================
 356:Generated_Source\PSoC5/Decoder_1.c **** 
 357:Generated_Source\PSoC5/Decoder_1.c **** void Decoder_1_Stop()
 358:Generated_Source\PSoC5/Decoder_1.c **** {
 347              		.loc 1 358 0
 348              		.cfi_startproc
 349              		@ args = 0, pretend = 0, frame = 0
 350              		@ frame_needed = 1, uses_anonymous_args = 0
 351 0000 80B5     		push	{r7, lr}
 352              		.cfi_def_cfa_offset 8
 353              		.cfi_offset 7, -8
 354              		.cfi_offset 14, -4
 355 0002 00AF     		add	r7, sp, #0
 356              		.cfi_def_cfa_register 7
 359:Generated_Source\PSoC5/Decoder_1.c ****     #if Decoder_1_IsrMode
 360:Generated_Source\PSoC5/Decoder_1.c ****         Decoder_1_isrDtr_Stop();     //stop isrDtr interrupt
 357              		.loc 1 360 0
 358 0004 FFF7FEFF 		bl	Decoder_1_isrDtr_Stop
 361:Generated_Source\PSoC5/Decoder_1.c ****     #else    
 362:Generated_Source\PSoC5/Decoder_1.c ****     #if Decoder_1_IsrInternal
 363:Generated_Source\PSoC5/Decoder_1.c ****         Decoder_1_isrPoll_Stop();    //staop isrPoll interrupt
 364:Generated_Source\PSoC5/Decoder_1.c ****     #endif
 365:Generated_Source\PSoC5/Decoder_1.c ****     #endif
 366:Generated_Source\PSoC5/Decoder_1.c ****     
 367:Generated_Source\PSoC5/Decoder_1.c ****     Decoder_1_SetInputsHiZ();
 359              		.loc 1 367 0
 360 0008 FFF7FEFF 		bl	Decoder_1_SetInputsHiZ
 368:Generated_Source\PSoC5/Decoder_1.c ****     
 369:Generated_Source\PSoC5/Decoder_1.c ****     aInitialized = false;                   // stopped
 361              		.loc 1 369 0
 362 000c 024B     		ldr	r3, .L19
 363 000e 0022     		movs	r2, #0
 364 0010 1A70     		strb	r2, [r3]
 370:Generated_Source\PSoC5/Decoder_1.c **** } 
 365              		.loc 1 370 0
 366 0012 00BF     		nop
 367 0014 80BD     		pop	{r7, pc}
 368              	.L20:
 369 0016 00BF     		.align	2
 370              	.L19:
 371 0018 04000000 		.word	aInitialized
ARM GAS  C:\Users\JEFFSN~1\AppData\Local\Temp\ccY6zsBN.s 			page 14


 372              		.cfi_endproc
 373              	.LFE68:
 374              		.size	Decoder_1_Stop, .-Decoder_1_Stop
 375              		.section	.text.Decoder_1_SetInputsPullUp,"ax",%progbits
 376              		.align	2
 377              		.global	Decoder_1_SetInputsPullUp
 378              		.thumb
 379              		.thumb_func
 380              		.type	Decoder_1_SetInputsPullUp, %function
 381              	Decoder_1_SetInputsPullUp:
 382              	.LFB69:
 371:Generated_Source\PSoC5/Decoder_1.c **** 
 372:Generated_Source\PSoC5/Decoder_1.c **** //==============================================================================
 373:Generated_Source\PSoC5/Decoder_1.c **** // Set input pins state to Resistive Pull Up 
 374:Generated_Source\PSoC5/Decoder_1.c **** //==============================================================================
 375:Generated_Source\PSoC5/Decoder_1.c **** 
 376:Generated_Source\PSoC5/Decoder_1.c **** void Decoder_1_SetInputsPullUp()
 377:Generated_Source\PSoC5/Decoder_1.c **** {
 383              		.loc 1 377 0
 384              		.cfi_startproc
 385              		@ args = 0, pretend = 0, frame = 0
 386              		@ frame_needed = 1, uses_anonymous_args = 0
 387 0000 80B5     		push	{r7, lr}
 388              		.cfi_def_cfa_offset 8
 389              		.cfi_offset 7, -8
 390              		.cfi_offset 14, -4
 391 0002 00AF     		add	r7, sp, #0
 392              		.cfi_def_cfa_register 7
 378:Generated_Source\PSoC5/Decoder_1.c ****     // important! Though initial drive mode is HiZ, the Initial Drive State must be set to High (1)
 379:Generated_Source\PSoC5/Decoder_1.c ****     // else button behavior is erratical
 380:Generated_Source\PSoC5/Decoder_1.c ****     
 381:Generated_Source\PSoC5/Decoder_1.c ****     #if Decoder_1_IsrMode
 382:Generated_Source\PSoC5/Decoder_1.c ****         
 383:Generated_Source\PSoC5/Decoder_1.c ****          #if (Decoder_1_BtnEnable)
 384:Generated_Source\PSoC5/Decoder_1.c ****             Decoder_1_PINS3_SetDriveMode (Decoder_1_PINS3_DM_RES_UP); // Resistive Pull Up
 385:Generated_Source\PSoC5/Decoder_1.c ****         #else
 386:Generated_Source\PSoC5/Decoder_1.c ****             Decoder_1_PINS2_SetDriveMode (Decoder_1_PINS2_DM_RES_UP); // Resistive Pull Up
 393              		.loc 1 386 0
 394 0004 0420     		movs	r0, #4
 395 0006 FFF7FEFF 		bl	Decoder_1_PINS2_SetDriveMode
 387:Generated_Source\PSoC5/Decoder_1.c ****         #endif 
 388:Generated_Source\PSoC5/Decoder_1.c ****         
 389:Generated_Source\PSoC5/Decoder_1.c ****     #else
 390:Generated_Source\PSoC5/Decoder_1.c ****         Decoder_1_pin_A_SetDriveMode (Decoder_1_pin_A_DM_RES_UP);     // Resistive Pull Up
 391:Generated_Source\PSoC5/Decoder_1.c ****         Decoder_1_pin_B_SetDriveMode (Decoder_1_pin_B_DM_RES_UP);     // Resistive Pull Up
 392:Generated_Source\PSoC5/Decoder_1.c ****         
 393:Generated_Source\PSoC5/Decoder_1.c ****         #if (Decoder_1_BtnEnable)
 394:Generated_Source\PSoC5/Decoder_1.c ****             Decoder_1_pin_btn_SetDriveMode (Decoder_1_pin_btn_DM_RES_UP); // Resistive Pull Up
 395:Generated_Source\PSoC5/Decoder_1.c ****         #endif
 396:Generated_Source\PSoC5/Decoder_1.c ****         
 397:Generated_Source\PSoC5/Decoder_1.c ****     #endif
 398:Generated_Source\PSoC5/Decoder_1.c ****     
 399:Generated_Source\PSoC5/Decoder_1.c **** }
 396              		.loc 1 399 0
 397 000a 00BF     		nop
 398 000c 80BD     		pop	{r7, pc}
 399              		.cfi_endproc
ARM GAS  C:\Users\JEFFSN~1\AppData\Local\Temp\ccY6zsBN.s 			page 15


 400              	.LFE69:
 401              		.size	Decoder_1_SetInputsPullUp, .-Decoder_1_SetInputsPullUp
 402 000e 00BF     		.section	.text.Decoder_1_SetInputsHiZ,"ax",%progbits
 403              		.align	2
 404              		.global	Decoder_1_SetInputsHiZ
 405              		.thumb
 406              		.thumb_func
 407              		.type	Decoder_1_SetInputsHiZ, %function
 408              	Decoder_1_SetInputsHiZ:
 409              	.LFB70:
 400:Generated_Source\PSoC5/Decoder_1.c **** 
 401:Generated_Source\PSoC5/Decoder_1.c **** //==============================================================================
 402:Generated_Source\PSoC5/Decoder_1.c **** // Set input pins state to High Impedance Digital 
 403:Generated_Source\PSoC5/Decoder_1.c **** //==============================================================================
 404:Generated_Source\PSoC5/Decoder_1.c **** 
 405:Generated_Source\PSoC5/Decoder_1.c **** void Decoder_1_SetInputsHiZ()
 406:Generated_Source\PSoC5/Decoder_1.c **** {
 410              		.loc 1 406 0
 411              		.cfi_startproc
 412              		@ args = 0, pretend = 0, frame = 0
 413              		@ frame_needed = 1, uses_anonymous_args = 0
 414 0000 80B5     		push	{r7, lr}
 415              		.cfi_def_cfa_offset 8
 416              		.cfi_offset 7, -8
 417              		.cfi_offset 14, -4
 418 0002 00AF     		add	r7, sp, #0
 419              		.cfi_def_cfa_register 7
 407:Generated_Source\PSoC5/Decoder_1.c ****     #if Decoder_1_IsrMode
 408:Generated_Source\PSoC5/Decoder_1.c ****         
 409:Generated_Source\PSoC5/Decoder_1.c ****          #if (Decoder_1_BtnEnable)
 410:Generated_Source\PSoC5/Decoder_1.c ****             Decoder_1_PINS3_SetDriveMode (Decoder_1_PINS3_DM_DIG_HIZ); // High Impedance Digital
 411:Generated_Source\PSoC5/Decoder_1.c ****         #else
 412:Generated_Source\PSoC5/Decoder_1.c ****             Decoder_1_PINS2_SetDriveMode (Decoder_1_PINS2_DM_DIG_HIZ); // High Impedance Digital
 420              		.loc 1 412 0
 421 0004 0220     		movs	r0, #2
 422 0006 FFF7FEFF 		bl	Decoder_1_PINS2_SetDriveMode
 413:Generated_Source\PSoC5/Decoder_1.c ****         #endif 
 414:Generated_Source\PSoC5/Decoder_1.c ****         
 415:Generated_Source\PSoC5/Decoder_1.c ****     #else
 416:Generated_Source\PSoC5/Decoder_1.c ****         Decoder_1_pin_A_SetDriveMode (Decoder_1_pin_A_DM_DIG_HIZ);     // High Impedance Digital
 417:Generated_Source\PSoC5/Decoder_1.c ****         Decoder_1_pin_B_SetDriveMode (Decoder_1_pin_B_DM_DIG_HIZ);     // High Impedance Digital
 418:Generated_Source\PSoC5/Decoder_1.c ****         
 419:Generated_Source\PSoC5/Decoder_1.c ****         #if (Decoder_1_BtnEnable)
 420:Generated_Source\PSoC5/Decoder_1.c ****             Decoder_1_pin_btn_SetDriveMode (Decoder_1_pin_btn_DM_DIG_HIZ); //High Impedance Digital
 421:Generated_Source\PSoC5/Decoder_1.c ****         #endif
 422:Generated_Source\PSoC5/Decoder_1.c ****         
 423:Generated_Source\PSoC5/Decoder_1.c ****     #endif    
 424:Generated_Source\PSoC5/Decoder_1.c **** }
 423              		.loc 1 424 0
 424 000a 00BF     		nop
 425 000c 80BD     		pop	{r7, pc}
 426              		.cfi_endproc
 427              	.LFE70:
 428              		.size	Decoder_1_SetInputsHiZ, .-Decoder_1_SetInputsHiZ
 429 000e 00BF     		.section	.text.Decoder_1_GetPosition,"ax",%progbits
 430              		.align	2
 431              		.global	Decoder_1_GetPosition
ARM GAS  C:\Users\JEFFSN~1\AppData\Local\Temp\ccY6zsBN.s 			page 16


 432              		.thumb
 433              		.thumb_func
 434              		.type	Decoder_1_GetPosition, %function
 435              	Decoder_1_GetPosition:
 436              	.LFB71:
 425:Generated_Source\PSoC5/Decoder_1.c **** 
 426:Generated_Source\PSoC5/Decoder_1.c **** //==============================================================================
 427:Generated_Source\PSoC5/Decoder_1.c **** // Get encoder current position 
 428:Generated_Source\PSoC5/Decoder_1.c **** //==============================================================================
 429:Generated_Source\PSoC5/Decoder_1.c **** 
 430:Generated_Source\PSoC5/Decoder_1.c **** er_t  Decoder_1_GetPosition() { return aPosition; }
 437              		.loc 1 430 0
 438              		.cfi_startproc
 439              		@ args = 0, pretend = 0, frame = 0
 440              		@ frame_needed = 1, uses_anonymous_args = 0
 441              		@ link register save eliminated.
 442 0000 80B4     		push	{r7}
 443              		.cfi_def_cfa_offset 4
 444              		.cfi_offset 7, -4
 445 0002 00AF     		add	r7, sp, #0
 446              		.cfi_def_cfa_register 7
 447              		.loc 1 430 0
 448 0004 034B     		ldr	r3, .L25
 449 0006 93F90030 		ldrsb	r3, [r3]
 450 000a 1846     		mov	r0, r3
 451 000c BD46     		mov	sp, r7
 452              		.cfi_def_cfa_register 13
 453              		@ sp needed
 454 000e 80BC     		pop	{r7}
 455              		.cfi_restore 7
 456              		.cfi_def_cfa_offset 0
 457 0010 7047     		bx	lr
 458              	.L26:
 459 0012 00BF     		.align	2
 460              	.L25:
 461 0014 01000000 		.word	aPosition
 462              		.cfi_endproc
 463              	.LFE71:
 464              		.size	Decoder_1_GetPosition, .-Decoder_1_GetPosition
 465              		.section	.text.Decoder_1_SetPosition,"ax",%progbits
 466              		.align	2
 467              		.global	Decoder_1_SetPosition
 468              		.thumb
 469              		.thumb_func
 470              		.type	Decoder_1_SetPosition, %function
 471              	Decoder_1_SetPosition:
 472              	.LFB72:
 431:Generated_Source\PSoC5/Decoder_1.c **** 
 432:Generated_Source\PSoC5/Decoder_1.c **** 
 433:Generated_Source\PSoC5/Decoder_1.c **** //==============================================================================
 434:Generated_Source\PSoC5/Decoder_1.c **** // Set encoder position
 435:Generated_Source\PSoC5/Decoder_1.c **** // value must be in range [lower_bound, upper_bound]
 436:Generated_Source\PSoC5/Decoder_1.c **** // return: 0-failed, 1-success
 437:Generated_Source\PSoC5/Decoder_1.c **** //==============================================================================
 438:Generated_Source\PSoC5/Decoder_1.c **** 
 439:Generated_Source\PSoC5/Decoder_1.c **** uint8 Decoder_1_SetPosition(er_t value)
 440:Generated_Source\PSoC5/Decoder_1.c **** {
ARM GAS  C:\Users\JEFFSN~1\AppData\Local\Temp\ccY6zsBN.s 			page 17


 473              		.loc 1 440 0
 474              		.cfi_startproc
 475              		@ args = 0, pretend = 0, frame = 16
 476              		@ frame_needed = 1, uses_anonymous_args = 0
 477              		@ link register save eliminated.
 478 0000 80B4     		push	{r7}
 479              		.cfi_def_cfa_offset 4
 480              		.cfi_offset 7, -4
 481 0002 85B0     		sub	sp, sp, #20
 482              		.cfi_def_cfa_offset 24
 483 0004 00AF     		add	r7, sp, #0
 484              		.cfi_def_cfa_register 7
 485 0006 0346     		mov	r3, r0
 486 0008 FB71     		strb	r3, [r7, #7]
 441:Generated_Source\PSoC5/Decoder_1.c ****     uint8 result = 0;
 487              		.loc 1 441 0
 488 000a 0023     		movs	r3, #0
 489 000c FB73     		strb	r3, [r7, #15]
 442:Generated_Source\PSoC5/Decoder_1.c ****     
 443:Generated_Source\PSoC5/Decoder_1.c ****     if (aCheckBounds)
 490              		.loc 1 443 0
 491 000e 174B     		ldr	r3, .L32
 492 0010 1B78     		ldrb	r3, [r3]	@ zero_extendqisi2
 493 0012 002B     		cmp	r3, #0
 494 0014 19D0     		beq	.L28
 444:Generated_Source\PSoC5/Decoder_1.c ****     {  
 445:Generated_Source\PSoC5/Decoder_1.c ****         if ((value >= aLowerBound) && (value <= aUpperBound))
 495              		.loc 1 445 0
 496 0016 164B     		ldr	r3, .L32+4
 497 0018 93F90030 		ldrsb	r3, [r3]
 498 001c 97F90720 		ldrsb	r2, [r7, #7]
 499 0020 9A42     		cmp	r2, r3
 500 0022 1DDB     		blt	.L30
 501              		.loc 1 445 0 is_stmt 0 discriminator 1
 502 0024 134B     		ldr	r3, .L32+8
 503 0026 93F90030 		ldrsb	r3, [r3]
 504 002a 97F90720 		ldrsb	r2, [r7, #7]
 505 002e 9A42     		cmp	r2, r3
 506 0030 16DC     		bgt	.L30
 446:Generated_Source\PSoC5/Decoder_1.c ****         {
 447:Generated_Source\PSoC5/Decoder_1.c ****             {
 448:Generated_Source\PSoC5/Decoder_1.c ****                 aPosition = value;      // update position
 507              		.loc 1 448 0 is_stmt 1
 508 0032 114A     		ldr	r2, .L32+12
 509 0034 FB79     		ldrb	r3, [r7, #7]
 510 0036 1370     		strb	r3, [r2]
 449:Generated_Source\PSoC5/Decoder_1.c ****                 aDirection = 0;         // no rotation (required if position updated in the main lo
 511              		.loc 1 449 0
 512 0038 104B     		ldr	r3, .L32+16
 513 003a 0022     		movs	r2, #0
 514 003c 1A70     		strb	r2, [r3]
 450:Generated_Source\PSoC5/Decoder_1.c ****                 fPositionChanged = 1;   // fire position changed event
 515              		.loc 1 450 0
 516 003e 104B     		ldr	r3, .L32+20
 517 0040 0122     		movs	r2, #1
 518 0042 1A70     		strb	r2, [r3]
 451:Generated_Source\PSoC5/Decoder_1.c ****             }    
ARM GAS  C:\Users\JEFFSN~1\AppData\Local\Temp\ccY6zsBN.s 			page 18


 452:Generated_Source\PSoC5/Decoder_1.c ****             result = 1;                 // success
 519              		.loc 1 452 0
 520 0044 0123     		movs	r3, #1
 521 0046 FB73     		strb	r3, [r7, #15]
 522 0048 0AE0     		b	.L30
 523              	.L28:
 453:Generated_Source\PSoC5/Decoder_1.c ****         }
 454:Generated_Source\PSoC5/Decoder_1.c ****     }
 455:Generated_Source\PSoC5/Decoder_1.c ****     else
 456:Generated_Source\PSoC5/Decoder_1.c ****     {
 457:Generated_Source\PSoC5/Decoder_1.c ****             {
 458:Generated_Source\PSoC5/Decoder_1.c ****                 aPosition = value;      // update position
 524              		.loc 1 458 0
 525 004a 0B4A     		ldr	r2, .L32+12
 526 004c FB79     		ldrb	r3, [r7, #7]
 527 004e 1370     		strb	r3, [r2]
 459:Generated_Source\PSoC5/Decoder_1.c ****                 aDirection = 0;         // no rotation (required if position updated in the main lo
 528              		.loc 1 459 0
 529 0050 0A4B     		ldr	r3, .L32+16
 530 0052 0022     		movs	r2, #0
 531 0054 1A70     		strb	r2, [r3]
 460:Generated_Source\PSoC5/Decoder_1.c ****                 fPositionChanged = 1;   // fire position changed event
 532              		.loc 1 460 0
 533 0056 0A4B     		ldr	r3, .L32+20
 534 0058 0122     		movs	r2, #1
 535 005a 1A70     		strb	r2, [r3]
 461:Generated_Source\PSoC5/Decoder_1.c ****             }    
 462:Generated_Source\PSoC5/Decoder_1.c ****             result = 1;                 // success
 536              		.loc 1 462 0
 537 005c 0123     		movs	r3, #1
 538 005e FB73     		strb	r3, [r7, #15]
 539              	.L30:
 463:Generated_Source\PSoC5/Decoder_1.c ****     }  
 464:Generated_Source\PSoC5/Decoder_1.c ****     
 465:Generated_Source\PSoC5/Decoder_1.c ****     return result;
 540              		.loc 1 465 0
 541 0060 FB7B     		ldrb	r3, [r7, #15]	@ zero_extendqisi2
 466:Generated_Source\PSoC5/Decoder_1.c **** }
 542              		.loc 1 466 0
 543 0062 1846     		mov	r0, r3
 544 0064 1437     		adds	r7, r7, #20
 545              		.cfi_def_cfa_offset 4
 546 0066 BD46     		mov	sp, r7
 547              		.cfi_def_cfa_register 13
 548              		@ sp needed
 549 0068 80BC     		pop	{r7}
 550              		.cfi_restore 7
 551              		.cfi_def_cfa_offset 0
 552 006a 7047     		bx	lr
 553              	.L33:
 554              		.align	2
 555              	.L32:
 556 006c 05000000 		.word	aCheckBounds
 557 0070 02000000 		.word	aLowerBound
 558 0074 03000000 		.word	aUpperBound
 559 0078 01000000 		.word	aPosition
 560 007c 02000000 		.word	aDirection
ARM GAS  C:\Users\JEFFSN~1\AppData\Local\Temp\ccY6zsBN.s 			page 19


 561 0080 03000000 		.word	fPositionChanged
 562              		.cfi_endproc
 563              	.LFE72:
 564              		.size	Decoder_1_SetPosition, .-Decoder_1_SetPosition
 565              		.section	.text.Decoder_1_GetDirection,"ax",%progbits
 566              		.align	2
 567              		.global	Decoder_1_GetDirection
 568              		.thumb
 569              		.thumb_func
 570              		.type	Decoder_1_GetDirection, %function
 571              	Decoder_1_GetDirection:
 572              	.LFB73:
 467:Generated_Source\PSoC5/Decoder_1.c **** 
 468:Generated_Source\PSoC5/Decoder_1.c **** 
 469:Generated_Source\PSoC5/Decoder_1.c **** //==============================================================================
 470:Generated_Source\PSoC5/Decoder_1.c **** // Get last direction of encoder rotation:
 471:Generated_Source\PSoC5/Decoder_1.c **** // return: -1=CCW, 1=CW, 0-none
 472:Generated_Source\PSoC5/Decoder_1.c **** //==============================================================================
 473:Generated_Source\PSoC5/Decoder_1.c **** 
 474:Generated_Source\PSoC5/Decoder_1.c **** int8  Decoder_1_GetDirection() { return aDirection; }
 573              		.loc 1 474 0
 574              		.cfi_startproc
 575              		@ args = 0, pretend = 0, frame = 0
 576              		@ frame_needed = 1, uses_anonymous_args = 0
 577              		@ link register save eliminated.
 578 0000 80B4     		push	{r7}
 579              		.cfi_def_cfa_offset 4
 580              		.cfi_offset 7, -4
 581 0002 00AF     		add	r7, sp, #0
 582              		.cfi_def_cfa_register 7
 583              		.loc 1 474 0
 584 0004 034B     		ldr	r3, .L36
 585 0006 93F90030 		ldrsb	r3, [r3]
 586 000a 1846     		mov	r0, r3
 587 000c BD46     		mov	sp, r7
 588              		.cfi_def_cfa_register 13
 589              		@ sp needed
 590 000e 80BC     		pop	{r7}
 591              		.cfi_restore 7
 592              		.cfi_def_cfa_offset 0
 593 0010 7047     		bx	lr
 594              	.L37:
 595 0012 00BF     		.align	2
 596              	.L36:
 597 0014 02000000 		.word	aDirection
 598              		.cfi_endproc
 599              	.LFE73:
 600              		.size	Decoder_1_GetDirection, .-Decoder_1_GetDirection
 601              		.section	.text.Decoder_1_GetPositionChanged,"ax",%progbits
 602              		.align	2
 603              		.global	Decoder_1_GetPositionChanged
 604              		.thumb
 605              		.thumb_func
 606              		.type	Decoder_1_GetPositionChanged, %function
 607              	Decoder_1_GetPositionChanged:
 608              	.LFB74:
 475:Generated_Source\PSoC5/Decoder_1.c **** 
ARM GAS  C:\Users\JEFFSN~1\AppData\Local\Temp\ccY6zsBN.s 			page 20


 476:Generated_Source\PSoC5/Decoder_1.c **** 
 477:Generated_Source\PSoC5/Decoder_1.c **** //==============================================================================
 478:Generated_Source\PSoC5/Decoder_1.c **** // Read button pressed flag, reset flag if non-zero
 479:Generated_Source\PSoC5/Decoder_1.c **** // return: 1- pressed, 0-not pressed
 480:Generated_Source\PSoC5/Decoder_1.c **** //==============================================================================
 481:Generated_Source\PSoC5/Decoder_1.c **** #if (Decoder_1_BtnEnable)
 482:Generated_Source\PSoC5/Decoder_1.c **** uint8 Decoder_1_GetBtnPressed()  
 483:Generated_Source\PSoC5/Decoder_1.c **** {
 484:Generated_Source\PSoC5/Decoder_1.c ****     uint8 result = fBtnPressed;
 485:Generated_Source\PSoC5/Decoder_1.c ****     if (fBtnPressed) fBtnPressed = 0; // reset flag for one-time use only
 486:Generated_Source\PSoC5/Decoder_1.c ****     return result;
 487:Generated_Source\PSoC5/Decoder_1.c **** }
 488:Generated_Source\PSoC5/Decoder_1.c **** #endif
 489:Generated_Source\PSoC5/Decoder_1.c **** 
 490:Generated_Source\PSoC5/Decoder_1.c **** //==============================================================================
 491:Generated_Source\PSoC5/Decoder_1.c **** // Return position changed flag, reset flag if non-zero
 492:Generated_Source\PSoC5/Decoder_1.c **** //
 493:Generated_Source\PSoC5/Decoder_1.c **** //==============================================================================
 494:Generated_Source\PSoC5/Decoder_1.c **** 
 495:Generated_Source\PSoC5/Decoder_1.c **** uint8 Decoder_1_GetPositionChanged()  
 496:Generated_Source\PSoC5/Decoder_1.c **** {
 609              		.loc 1 496 0
 610              		.cfi_startproc
 611              		@ args = 0, pretend = 0, frame = 0
 612              		@ frame_needed = 1, uses_anonymous_args = 0
 613              		@ link register save eliminated.
 614 0000 80B4     		push	{r7}
 615              		.cfi_def_cfa_offset 4
 616              		.cfi_offset 7, -4
 617 0002 00AF     		add	r7, sp, #0
 618              		.cfi_def_cfa_register 7
 497:Generated_Source\PSoC5/Decoder_1.c ****         
 498:Generated_Source\PSoC5/Decoder_1.c ****     // 4. check position bounds
 499:Generated_Source\PSoC5/Decoder_1.c ****     // 5. update position
 500:Generated_Source\PSoC5/Decoder_1.c ****     
 501:Generated_Source\PSoC5/Decoder_1.c ****     // this occures in the main loop->
 502:Generated_Source\PSoC5/Decoder_1.c ****     
 503:Generated_Source\PSoC5/Decoder_1.c ****     if (fPositionChanged==0) return 0;  // position did not change
 619              		.loc 1 503 0
 620 0004 3C4B     		ldr	r3, .L50
 621 0006 1B78     		ldrb	r3, [r3]
 622 0008 DBB2     		uxtb	r3, r3
 623 000a 002B     		cmp	r3, #0
 624 000c 01D1     		bne	.L39
 625              		.loc 1 503 0 is_stmt 0 discriminator 1
 626 000e 0023     		movs	r3, #0
 627 0010 6DE0     		b	.L40
 628              	.L39:
 504:Generated_Source\PSoC5/Decoder_1.c ****        
 505:Generated_Source\PSoC5/Decoder_1.c ****     fPositionChanged=0;                 // reset flag 
 629              		.loc 1 505 0 is_stmt 1
 630 0012 394B     		ldr	r3, .L50
 631 0014 0022     		movs	r2, #0
 632 0016 1A70     		strb	r2, [r3]
 506:Generated_Source\PSoC5/Decoder_1.c ****     
 507:Generated_Source\PSoC5/Decoder_1.c ****     if (aDirection==0) return 1;        // typically when set position
 633              		.loc 1 507 0
ARM GAS  C:\Users\JEFFSN~1\AppData\Local\Temp\ccY6zsBN.s 			page 21


 634 0018 384B     		ldr	r3, .L50+4
 635 001a 93F90030 		ldrsb	r3, [r3]
 636 001e 002B     		cmp	r3, #0
 637 0020 01D1     		bne	.L41
 638              		.loc 1 507 0 is_stmt 0 discriminator 1
 639 0022 0123     		movs	r3, #1
 640 0024 63E0     		b	.L40
 641              	.L41:
 508:Generated_Source\PSoC5/Decoder_1.c ****     
 509:Generated_Source\PSoC5/Decoder_1.c ****     
 510:Generated_Source\PSoC5/Decoder_1.c ****     if (aCheckBounds)                   // check bounds 
 642              		.loc 1 510 0 is_stmt 1
 643 0026 364B     		ldr	r3, .L50+8
 644 0028 1B78     		ldrb	r3, [r3]	@ zero_extendqisi2
 645 002a 002B     		cmp	r3, #0
 646 002c 40D0     		beq	.L42
 511:Generated_Source\PSoC5/Decoder_1.c ****                               
 512:Generated_Source\PSoC5/Decoder_1.c ****         if (aDirection > 0) {
 647              		.loc 1 512 0
 648 002e 334B     		ldr	r3, .L50+4
 649 0030 93F90030 		ldrsb	r3, [r3]
 650 0034 002B     		cmp	r3, #0
 651 0036 1DDD     		ble	.L43
 513:Generated_Source\PSoC5/Decoder_1.c ****             if ( aPosition > aUpperBound - aIncrement) return 0; // over or repeated UB            
 652              		.loc 1 513 0
 653 0038 324B     		ldr	r3, .L50+12
 654 003a 93F90030 		ldrsb	r3, [r3]
 655 003e 1A46     		mov	r2, r3
 656 0040 314B     		ldr	r3, .L50+16
 657 0042 93F90030 		ldrsb	r3, [r3]
 658 0046 1946     		mov	r1, r3
 659 0048 304B     		ldr	r3, .L50+20
 660 004a 93F90030 		ldrsb	r3, [r3]
 661 004e CB1A     		subs	r3, r1, r3
 662 0050 9A42     		cmp	r2, r3
 663 0052 01DD     		ble	.L44
 664              		.loc 1 513 0 is_stmt 0 discriminator 1
 665 0054 0023     		movs	r3, #0
 666 0056 4AE0     		b	.L40
 667              	.L44:
 514:Generated_Source\PSoC5/Decoder_1.c ****             aPosition += aIncrement;
 668              		.loc 1 514 0 is_stmt 1
 669 0058 2A4B     		ldr	r3, .L50+12
 670 005a 93F90030 		ldrsb	r3, [r3]
 671 005e DAB2     		uxtb	r2, r3
 672 0060 2A4B     		ldr	r3, .L50+20
 673 0062 93F90030 		ldrsb	r3, [r3]
 674 0066 DBB2     		uxtb	r3, r3
 675 0068 1344     		add	r3, r3, r2
 676 006a DBB2     		uxtb	r3, r3
 677 006c 5AB2     		sxtb	r2, r3
 678 006e 254B     		ldr	r3, .L50+12
 679 0070 1A70     		strb	r2, [r3]
 680 0072 3BE0     		b	.L47
 681              	.L43:
 515:Generated_Source\PSoC5/Decoder_1.c ****         }
 516:Generated_Source\PSoC5/Decoder_1.c ****         else
ARM GAS  C:\Users\JEFFSN~1\AppData\Local\Temp\ccY6zsBN.s 			page 22


 517:Generated_Source\PSoC5/Decoder_1.c ****         //if (aDirection < 0)
 518:Generated_Source\PSoC5/Decoder_1.c ****         {
 519:Generated_Source\PSoC5/Decoder_1.c ****             if ( aPosition < aLowerBound + aIncrement) return 0; // below or repeated LB 
 682              		.loc 1 519 0
 683 0074 234B     		ldr	r3, .L50+12
 684 0076 93F90030 		ldrsb	r3, [r3]
 685 007a 1A46     		mov	r2, r3
 686 007c 244B     		ldr	r3, .L50+24
 687 007e 93F90030 		ldrsb	r3, [r3]
 688 0082 1946     		mov	r1, r3
 689 0084 214B     		ldr	r3, .L50+20
 690 0086 93F90030 		ldrsb	r3, [r3]
 691 008a 0B44     		add	r3, r3, r1
 692 008c 9A42     		cmp	r2, r3
 693 008e 01DA     		bge	.L46
 694              		.loc 1 519 0 is_stmt 0 discriminator 1
 695 0090 0023     		movs	r3, #0
 696 0092 2CE0     		b	.L40
 697              	.L46:
 520:Generated_Source\PSoC5/Decoder_1.c ****             aPosition -= aIncrement;
 698              		.loc 1 520 0 is_stmt 1
 699 0094 1B4B     		ldr	r3, .L50+12
 700 0096 93F90030 		ldrsb	r3, [r3]
 701 009a DAB2     		uxtb	r2, r3
 702 009c 1B4B     		ldr	r3, .L50+20
 703 009e 93F90030 		ldrsb	r3, [r3]
 704 00a2 DBB2     		uxtb	r3, r3
 705 00a4 D31A     		subs	r3, r2, r3
 706 00a6 DBB2     		uxtb	r3, r3
 707 00a8 5AB2     		sxtb	r2, r3
 708 00aa 164B     		ldr	r3, .L50+12
 709 00ac 1A70     		strb	r2, [r3]
 710 00ae 1DE0     		b	.L47
 711              	.L42:
 521:Generated_Source\PSoC5/Decoder_1.c ****         }
 522:Generated_Source\PSoC5/Decoder_1.c **** 
 523:Generated_Source\PSoC5/Decoder_1.c ****     else
 524:Generated_Source\PSoC5/Decoder_1.c ****             
 525:Generated_Source\PSoC5/Decoder_1.c ****         aPosition = (aDirection==1)? aPosition + aIncrement : aPosition - aIncrement;  // update po
 712              		.loc 1 525 0
 713 00b0 124B     		ldr	r3, .L50+4
 714 00b2 93F90030 		ldrsb	r3, [r3]
 715 00b6 012B     		cmp	r3, #1
 716 00b8 0BD1     		bne	.L48
 717              		.loc 1 525 0 is_stmt 0 discriminator 1
 718 00ba 124B     		ldr	r3, .L50+12
 719 00bc 93F90030 		ldrsb	r3, [r3]
 720 00c0 DAB2     		uxtb	r2, r3
 721 00c2 124B     		ldr	r3, .L50+20
 722 00c4 93F90030 		ldrsb	r3, [r3]
 723 00c8 DBB2     		uxtb	r3, r3
 724 00ca 1344     		add	r3, r3, r2
 725 00cc DBB2     		uxtb	r3, r3
 726 00ce 5BB2     		sxtb	r3, r3
 727 00d0 0AE0     		b	.L49
 728              	.L48:
 729              		.loc 1 525 0 discriminator 2
ARM GAS  C:\Users\JEFFSN~1\AppData\Local\Temp\ccY6zsBN.s 			page 23


 730 00d2 0C4B     		ldr	r3, .L50+12
 731 00d4 93F90030 		ldrsb	r3, [r3]
 732 00d8 DAB2     		uxtb	r2, r3
 733 00da 0C4B     		ldr	r3, .L50+20
 734 00dc 93F90030 		ldrsb	r3, [r3]
 735 00e0 DBB2     		uxtb	r3, r3
 736 00e2 D31A     		subs	r3, r2, r3
 737 00e4 DBB2     		uxtb	r3, r3
 738 00e6 5BB2     		sxtb	r3, r3
 739              	.L49:
 740              		.loc 1 525 0 discriminator 4
 741 00e8 064A     		ldr	r2, .L50+12
 742 00ea 1370     		strb	r3, [r2]
 743              	.L47:
 526:Generated_Source\PSoC5/Decoder_1.c **** 
 527:Generated_Source\PSoC5/Decoder_1.c ****     
 528:Generated_Source\PSoC5/Decoder_1.c ****     return 1;                           // position changed
 744              		.loc 1 528 0 is_stmt 1
 745 00ec 0123     		movs	r3, #1
 746              	.L40:
 529:Generated_Source\PSoC5/Decoder_1.c **** }
 747              		.loc 1 529 0
 748 00ee 1846     		mov	r0, r3
 749 00f0 BD46     		mov	sp, r7
 750              		.cfi_def_cfa_register 13
 751              		@ sp needed
 752 00f2 80BC     		pop	{r7}
 753              		.cfi_restore 7
 754              		.cfi_def_cfa_offset 0
 755 00f4 7047     		bx	lr
 756              	.L51:
 757 00f6 00BF     		.align	2
 758              	.L50:
 759 00f8 03000000 		.word	fPositionChanged
 760 00fc 02000000 		.word	aDirection
 761 0100 05000000 		.word	aCheckBounds
 762 0104 01000000 		.word	aPosition
 763 0108 03000000 		.word	aUpperBound
 764 010c 01000000 		.word	aIncrement
 765 0110 02000000 		.word	aLowerBound
 766              		.cfi_endproc
 767              	.LFE74:
 768              		.size	Decoder_1_GetPositionChanged, .-Decoder_1_GetPositionChanged
 769              		.section	.text.Decoder_1_GetInitStatus,"ax",%progbits
 770              		.align	2
 771              		.global	Decoder_1_GetInitStatus
 772              		.thumb
 773              		.thumb_func
 774              		.type	Decoder_1_GetInitStatus, %function
 775              	Decoder_1_GetInitStatus:
 776              	.LFB75:
 530:Generated_Source\PSoC5/Decoder_1.c **** 
 531:Generated_Source\PSoC5/Decoder_1.c **** //==============================================================================
 532:Generated_Source\PSoC5/Decoder_1.c **** // Get Initialized status
 533:Generated_Source\PSoC5/Decoder_1.c **** // return: 1= started, 0= stopped
 534:Generated_Source\PSoC5/Decoder_1.c **** //==============================================================================
 535:Generated_Source\PSoC5/Decoder_1.c **** 
ARM GAS  C:\Users\JEFFSN~1\AppData\Local\Temp\ccY6zsBN.s 			page 24


 536:Generated_Source\PSoC5/Decoder_1.c **** uint8 Decoder_1_GetInitStatus() { return aInitialized; }
 777              		.loc 1 536 0
 778              		.cfi_startproc
 779              		@ args = 0, pretend = 0, frame = 0
 780              		@ frame_needed = 1, uses_anonymous_args = 0
 781              		@ link register save eliminated.
 782 0000 80B4     		push	{r7}
 783              		.cfi_def_cfa_offset 4
 784              		.cfi_offset 7, -4
 785 0002 00AF     		add	r7, sp, #0
 786              		.cfi_def_cfa_register 7
 787              		.loc 1 536 0
 788 0004 024B     		ldr	r3, .L54
 789 0006 1B78     		ldrb	r3, [r3]	@ zero_extendqisi2
 790 0008 1846     		mov	r0, r3
 791 000a BD46     		mov	sp, r7
 792              		.cfi_def_cfa_register 13
 793              		@ sp needed
 794 000c 80BC     		pop	{r7}
 795              		.cfi_restore 7
 796              		.cfi_def_cfa_offset 0
 797 000e 7047     		bx	lr
 798              	.L55:
 799              		.align	2
 800              	.L54:
 801 0010 04000000 		.word	aInitialized
 802              		.cfi_endproc
 803              	.LFE75:
 804              		.size	Decoder_1_GetInitStatus, .-Decoder_1_GetInitStatus
 805              		.section	.text.Decoder_1_SetIncrement,"ax",%progbits
 806              		.align	2
 807              		.global	Decoder_1_SetIncrement
 808              		.thumb
 809              		.thumb_func
 810              		.type	Decoder_1_SetIncrement, %function
 811              	Decoder_1_SetIncrement:
 812              	.LFB76:
 537:Generated_Source\PSoC5/Decoder_1.c **** 
 538:Generated_Source\PSoC5/Decoder_1.c **** 
 539:Generated_Source\PSoC5/Decoder_1.c **** //==============================================================================
 540:Generated_Source\PSoC5/Decoder_1.c **** // Set encoder increment
 541:Generated_Source\PSoC5/Decoder_1.c **** // value must be positive, non-zero value
 542:Generated_Source\PSoC5/Decoder_1.c **** // return: 0-fail, 1-success
 543:Generated_Source\PSoC5/Decoder_1.c **** //==============================================================================
 544:Generated_Source\PSoC5/Decoder_1.c **** 
 545:Generated_Source\PSoC5/Decoder_1.c **** uint8 Decoder_1_SetIncrement(er_t value)
 546:Generated_Source\PSoC5/Decoder_1.c **** {
 813              		.loc 1 546 0
 814              		.cfi_startproc
 815              		@ args = 0, pretend = 0, frame = 16
 816              		@ frame_needed = 1, uses_anonymous_args = 0
 817              		@ link register save eliminated.
 818 0000 80B4     		push	{r7}
 819              		.cfi_def_cfa_offset 4
 820              		.cfi_offset 7, -4
 821 0002 85B0     		sub	sp, sp, #20
 822              		.cfi_def_cfa_offset 24
ARM GAS  C:\Users\JEFFSN~1\AppData\Local\Temp\ccY6zsBN.s 			page 25


 823 0004 00AF     		add	r7, sp, #0
 824              		.cfi_def_cfa_register 7
 825 0006 0346     		mov	r3, r0
 826 0008 FB71     		strb	r3, [r7, #7]
 547:Generated_Source\PSoC5/Decoder_1.c ****     uint8 result = 0;
 827              		.loc 1 547 0
 828 000a 0023     		movs	r3, #0
 829 000c FB73     		strb	r3, [r7, #15]
 548:Generated_Source\PSoC5/Decoder_1.c **** 
 549:Generated_Source\PSoC5/Decoder_1.c ****     if ( value > 0 ) 
 830              		.loc 1 549 0
 831 000e 97F90730 		ldrsb	r3, [r7, #7]
 832 0012 002B     		cmp	r3, #0
 833 0014 04DD     		ble	.L57
 550:Generated_Source\PSoC5/Decoder_1.c ****     {
 551:Generated_Source\PSoC5/Decoder_1.c ****         aIncrement = value;
 834              		.loc 1 551 0
 835 0016 054A     		ldr	r2, .L59
 836 0018 FB79     		ldrb	r3, [r7, #7]
 837 001a 1370     		strb	r3, [r2]
 552:Generated_Source\PSoC5/Decoder_1.c ****         result = 1;
 838              		.loc 1 552 0
 839 001c 0123     		movs	r3, #1
 840 001e FB73     		strb	r3, [r7, #15]
 841              	.L57:
 553:Generated_Source\PSoC5/Decoder_1.c ****     }
 554:Generated_Source\PSoC5/Decoder_1.c ****     
 555:Generated_Source\PSoC5/Decoder_1.c ****     return result;
 842              		.loc 1 555 0
 843 0020 FB7B     		ldrb	r3, [r7, #15]	@ zero_extendqisi2
 556:Generated_Source\PSoC5/Decoder_1.c **** }
 844              		.loc 1 556 0
 845 0022 1846     		mov	r0, r3
 846 0024 1437     		adds	r7, r7, #20
 847              		.cfi_def_cfa_offset 4
 848 0026 BD46     		mov	sp, r7
 849              		.cfi_def_cfa_register 13
 850              		@ sp needed
 851 0028 80BC     		pop	{r7}
 852              		.cfi_restore 7
 853              		.cfi_def_cfa_offset 0
 854 002a 7047     		bx	lr
 855              	.L60:
 856              		.align	2
 857              	.L59:
 858 002c 01000000 		.word	aIncrement
 859              		.cfi_endproc
 860              	.LFE76:
 861              		.size	Decoder_1_SetIncrement, .-Decoder_1_SetIncrement
 862              		.section	.text.Decoder_1_SetCheckBounds,"ax",%progbits
 863              		.align	2
 864              		.global	Decoder_1_SetCheckBounds
 865              		.thumb
 866              		.thumb_func
 867              		.type	Decoder_1_SetCheckBounds, %function
 868              	Decoder_1_SetCheckBounds:
 869              	.LFB77:
ARM GAS  C:\Users\JEFFSN~1\AppData\Local\Temp\ccY6zsBN.s 			page 26


 557:Generated_Source\PSoC5/Decoder_1.c **** 
 558:Generated_Source\PSoC5/Decoder_1.c **** //==============================================================================
 559:Generated_Source\PSoC5/Decoder_1.c **** // Set check bounds flag
 560:Generated_Source\PSoC5/Decoder_1.c **** // input: 1 - true, 0 - false 
 561:Generated_Source\PSoC5/Decoder_1.c **** //==============================================================================
 562:Generated_Source\PSoC5/Decoder_1.c **** 
 563:Generated_Source\PSoC5/Decoder_1.c **** uint8  Decoder_1_SetCheckBounds (uint8 value)
 564:Generated_Source\PSoC5/Decoder_1.c **** {
 870              		.loc 1 564 0
 871              		.cfi_startproc
 872              		@ args = 0, pretend = 0, frame = 16
 873              		@ frame_needed = 1, uses_anonymous_args = 0
 874              		@ link register save eliminated.
 875 0000 80B4     		push	{r7}
 876              		.cfi_def_cfa_offset 4
 877              		.cfi_offset 7, -4
 878 0002 85B0     		sub	sp, sp, #20
 879              		.cfi_def_cfa_offset 24
 880 0004 00AF     		add	r7, sp, #0
 881              		.cfi_def_cfa_register 7
 882 0006 0346     		mov	r3, r0
 883 0008 FB71     		strb	r3, [r7, #7]
 565:Generated_Source\PSoC5/Decoder_1.c ****     uint8 result = 0;
 884              		.loc 1 565 0
 885 000a 0023     		movs	r3, #0
 886 000c FB73     		strb	r3, [r7, #15]
 566:Generated_Source\PSoC5/Decoder_1.c **** 
 567:Generated_Source\PSoC5/Decoder_1.c ****     aCheckBounds = value;
 887              		.loc 1 567 0
 888 000e 124A     		ldr	r2, .L67
 889 0010 FB79     		ldrb	r3, [r7, #7]
 890 0012 1370     		strb	r3, [r2]
 568:Generated_Source\PSoC5/Decoder_1.c **** 
 569:Generated_Source\PSoC5/Decoder_1.c ****     if (aCheckBounds)  
 891              		.loc 1 569 0
 892 0014 104B     		ldr	r3, .L67
 893 0016 1B78     		ldrb	r3, [r3]	@ zero_extendqisi2
 894 0018 002B     		cmp	r3, #0
 895 001a 14D0     		beq	.L62
 570:Generated_Source\PSoC5/Decoder_1.c ****         result = (aLowerBound<=aPosition) && (aPosition<=aUpperBound);
 896              		.loc 1 570 0
 897 001c 0F4B     		ldr	r3, .L67+4
 898 001e 93F90020 		ldrsb	r2, [r3]
 899 0022 0F4B     		ldr	r3, .L67+8
 900 0024 93F90030 		ldrsb	r3, [r3]
 901 0028 9A42     		cmp	r2, r3
 902 002a 09DC     		bgt	.L63
 903              		.loc 1 570 0 is_stmt 0 discriminator 1
 904 002c 0C4B     		ldr	r3, .L67+8
 905 002e 93F90020 		ldrsb	r2, [r3]
 906 0032 0C4B     		ldr	r3, .L67+12
 907 0034 93F90030 		ldrsb	r3, [r3]
 908 0038 9A42     		cmp	r2, r3
 909 003a 01DC     		bgt	.L63
 910              		.loc 1 570 0 discriminator 3
 911 003c 0123     		movs	r3, #1
 912 003e 00E0     		b	.L64
ARM GAS  C:\Users\JEFFSN~1\AppData\Local\Temp\ccY6zsBN.s 			page 27


 913              	.L63:
 914              		.loc 1 570 0 discriminator 4
 915 0040 0023     		movs	r3, #0
 916              	.L64:
 917              		.loc 1 570 0 discriminator 6
 918 0042 FB73     		strb	r3, [r7, #15]
 919 0044 01E0     		b	.L65
 920              	.L62:
 571:Generated_Source\PSoC5/Decoder_1.c ****     else
 572:Generated_Source\PSoC5/Decoder_1.c ****         result = 1;
 921              		.loc 1 572 0 is_stmt 1
 922 0046 0123     		movs	r3, #1
 923 0048 FB73     		strb	r3, [r7, #15]
 924              	.L65:
 573:Generated_Source\PSoC5/Decoder_1.c **** 
 574:Generated_Source\PSoC5/Decoder_1.c ****     return result;
 925              		.loc 1 574 0
 926 004a FB7B     		ldrb	r3, [r7, #15]	@ zero_extendqisi2
 575:Generated_Source\PSoC5/Decoder_1.c **** }
 927              		.loc 1 575 0
 928 004c 1846     		mov	r0, r3
 929 004e 1437     		adds	r7, r7, #20
 930              		.cfi_def_cfa_offset 4
 931 0050 BD46     		mov	sp, r7
 932              		.cfi_def_cfa_register 13
 933              		@ sp needed
 934 0052 80BC     		pop	{r7}
 935              		.cfi_restore 7
 936              		.cfi_def_cfa_offset 0
 937 0054 7047     		bx	lr
 938              	.L68:
 939 0056 00BF     		.align	2
 940              	.L67:
 941 0058 05000000 		.word	aCheckBounds
 942 005c 02000000 		.word	aLowerBound
 943 0060 01000000 		.word	aPosition
 944 0064 03000000 		.word	aUpperBound
 945              		.cfi_endproc
 946              	.LFE77:
 947              		.size	Decoder_1_SetCheckBounds, .-Decoder_1_SetCheckBounds
 948              		.section	.text.Decoder_1_SetBounds,"ax",%progbits
 949              		.align	2
 950              		.global	Decoder_1_SetBounds
 951              		.thumb
 952              		.thumb_func
 953              		.type	Decoder_1_SetBounds, %function
 954              	Decoder_1_SetBounds:
 955              	.LFB78:
 576:Generated_Source\PSoC5/Decoder_1.c **** 
 577:Generated_Source\PSoC5/Decoder_1.c **** 
 578:Generated_Source\PSoC5/Decoder_1.c **** //==============================================================================
 579:Generated_Source\PSoC5/Decoder_1.c **** // Set encoder lower and upper bounds and resets position if out of range
 580:Generated_Source\PSoC5/Decoder_1.c **** // to avoid confusion, set new position prior to to updating bounds
 581:Generated_Source\PSoC5/Decoder_1.c **** // return: 0-failed, 1-success
 582:Generated_Source\PSoC5/Decoder_1.c **** //==============================================================================
 583:Generated_Source\PSoC5/Decoder_1.c **** 
 584:Generated_Source\PSoC5/Decoder_1.c **** uint8 Decoder_1_SetBounds (er_t lBound, er_t uBound)
ARM GAS  C:\Users\JEFFSN~1\AppData\Local\Temp\ccY6zsBN.s 			page 28


 585:Generated_Source\PSoC5/Decoder_1.c **** {
 956              		.loc 1 585 0
 957              		.cfi_startproc
 958              		@ args = 0, pretend = 0, frame = 16
 959              		@ frame_needed = 1, uses_anonymous_args = 0
 960              		@ link register save eliminated.
 961 0000 80B4     		push	{r7}
 962              		.cfi_def_cfa_offset 4
 963              		.cfi_offset 7, -4
 964 0002 85B0     		sub	sp, sp, #20
 965              		.cfi_def_cfa_offset 24
 966 0004 00AF     		add	r7, sp, #0
 967              		.cfi_def_cfa_register 7
 968 0006 0346     		mov	r3, r0
 969 0008 0A46     		mov	r2, r1
 970 000a FB71     		strb	r3, [r7, #7]
 971 000c 1346     		mov	r3, r2
 972 000e BB71     		strb	r3, [r7, #6]
 586:Generated_Source\PSoC5/Decoder_1.c ****     uint8 result = 0;
 973              		.loc 1 586 0
 974 0010 0023     		movs	r3, #0
 975 0012 FB73     		strb	r3, [r7, #15]
 587:Generated_Source\PSoC5/Decoder_1.c ****     
 588:Generated_Source\PSoC5/Decoder_1.c ****     if (lBound <= uBound) 
 976              		.loc 1 588 0
 977 0014 97F90720 		ldrsb	r2, [r7, #7]
 978 0018 97F90630 		ldrsb	r3, [r7, #6]
 979 001c 9A42     		cmp	r2, r3
 980 001e 07DC     		bgt	.L70
 589:Generated_Source\PSoC5/Decoder_1.c ****     {
 590:Generated_Source\PSoC5/Decoder_1.c ****         aLowerBound = lBound;
 981              		.loc 1 590 0
 982 0020 064A     		ldr	r2, .L72
 983 0022 FB79     		ldrb	r3, [r7, #7]
 984 0024 1370     		strb	r3, [r2]
 591:Generated_Source\PSoC5/Decoder_1.c ****         aUpperBound = uBound;
 985              		.loc 1 591 0
 986 0026 064A     		ldr	r2, .L72+4
 987 0028 BB79     		ldrb	r3, [r7, #6]
 988 002a 1370     		strb	r3, [r2]
 592:Generated_Source\PSoC5/Decoder_1.c ****         
 593:Generated_Source\PSoC5/Decoder_1.c ****         result = 1;
 989              		.loc 1 593 0
 990 002c 0123     		movs	r3, #1
 991 002e FB73     		strb	r3, [r7, #15]
 992              	.L70:
 594:Generated_Source\PSoC5/Decoder_1.c ****     }
 595:Generated_Source\PSoC5/Decoder_1.c ****     
 596:Generated_Source\PSoC5/Decoder_1.c ****     return result;
 993              		.loc 1 596 0
 994 0030 FB7B     		ldrb	r3, [r7, #15]	@ zero_extendqisi2
 597:Generated_Source\PSoC5/Decoder_1.c **** }
 995              		.loc 1 597 0
 996 0032 1846     		mov	r0, r3
 997 0034 1437     		adds	r7, r7, #20
 998              		.cfi_def_cfa_offset 4
 999 0036 BD46     		mov	sp, r7
ARM GAS  C:\Users\JEFFSN~1\AppData\Local\Temp\ccY6zsBN.s 			page 29


 1000              		.cfi_def_cfa_register 13
 1001              		@ sp needed
 1002 0038 80BC     		pop	{r7}
 1003              		.cfi_restore 7
 1004              		.cfi_def_cfa_offset 0
 1005 003a 7047     		bx	lr
 1006              	.L73:
 1007              		.align	2
 1008              	.L72:
 1009 003c 02000000 		.word	aLowerBound
 1010 0040 03000000 		.word	aUpperBound
 1011              		.cfi_endproc
 1012              	.LFE78:
 1013              		.size	Decoder_1_SetBounds, .-Decoder_1_SetBounds
 1014              		.section	.text.Decoder_1_Setup,"ax",%progbits
 1015              		.align	2
 1016              		.global	Decoder_1_Setup
 1017              		.thumb
 1018              		.thumb_func
 1019              		.type	Decoder_1_Setup, %function
 1020              	Decoder_1_Setup:
 1021              	.LFB79:
 598:Generated_Source\PSoC5/Decoder_1.c **** 
 599:Generated_Source\PSoC5/Decoder_1.c **** //==============================================================================
 600:Generated_Source\PSoC5/Decoder_1.c **** // Assign multiple encoder parameters at once
 601:Generated_Source\PSoC5/Decoder_1.c **** // return: 1= success, 0= fail
 602:Generated_Source\PSoC5/Decoder_1.c **** //==============================================================================
 603:Generated_Source\PSoC5/Decoder_1.c **** 
 604:Generated_Source\PSoC5/Decoder_1.c **** uint8 Decoder_1_Setup(er_t position, er_t increment, er_t lBound, er_t uBound, uint8 bounds)
 605:Generated_Source\PSoC5/Decoder_1.c **** {
 1022              		.loc 1 605 0
 1023              		.cfi_startproc
 1024              		@ args = 4, pretend = 0, frame = 16
 1025              		@ frame_needed = 1, uses_anonymous_args = 0
 1026 0000 90B5     		push	{r4, r7, lr}
 1027              		.cfi_def_cfa_offset 12
 1028              		.cfi_offset 4, -12
 1029              		.cfi_offset 7, -8
 1030              		.cfi_offset 14, -4
 1031 0002 85B0     		sub	sp, sp, #20
 1032              		.cfi_def_cfa_offset 32
 1033 0004 00AF     		add	r7, sp, #0
 1034              		.cfi_def_cfa_register 7
 1035 0006 0446     		mov	r4, r0
 1036 0008 0846     		mov	r0, r1
 1037 000a 1146     		mov	r1, r2
 1038 000c 1A46     		mov	r2, r3
 1039 000e 2346     		mov	r3, r4
 1040 0010 FB71     		strb	r3, [r7, #7]
 1041 0012 0346     		mov	r3, r0
 1042 0014 BB71     		strb	r3, [r7, #6]
 1043 0016 0B46     		mov	r3, r1
 1044 0018 7B71     		strb	r3, [r7, #5]
 1045 001a 1346     		mov	r3, r2
 1046 001c 3B71     		strb	r3, [r7, #4]
 606:Generated_Source\PSoC5/Decoder_1.c ****     uint8  result = Decoder_1_SetBounds ( lBound, uBound ) &&
 1047              		.loc 1 606 0
ARM GAS  C:\Users\JEFFSN~1\AppData\Local\Temp\ccY6zsBN.s 			page 30


 1048 001e 97F90420 		ldrsb	r2, [r7, #4]
 1049 0022 97F90530 		ldrsb	r3, [r7, #5]
 1050 0026 1146     		mov	r1, r2
 1051 0028 1846     		mov	r0, r3
 1052 002a FFF7FEFF 		bl	Decoder_1_SetBounds
 1053 002e 0346     		mov	r3, r0
 607:Generated_Source\PSoC5/Decoder_1.c ****                     Decoder_1_SetPosition ( position )     && 
 608:Generated_Source\PSoC5/Decoder_1.c ****                     Decoder_1_SetIncrement ( increment )   &&
 1054              		.loc 1 608 0
 1055 0030 002B     		cmp	r3, #0
 1056 0032 19D0     		beq	.L75
 607:Generated_Source\PSoC5/Decoder_1.c ****                     Decoder_1_SetPosition ( position )     && 
 1057              		.loc 1 607 0
 1058 0034 97F90730 		ldrsb	r3, [r7, #7]
 1059 0038 1846     		mov	r0, r3
 1060 003a FFF7FEFF 		bl	Decoder_1_SetPosition
 1061 003e 0346     		mov	r3, r0
 606:Generated_Source\PSoC5/Decoder_1.c ****     uint8  result = Decoder_1_SetBounds ( lBound, uBound ) &&
 1062              		.loc 1 606 0
 1063 0040 002B     		cmp	r3, #0
 1064 0042 11D0     		beq	.L75
 1065              		.loc 1 608 0
 1066 0044 97F90630 		ldrsb	r3, [r7, #6]
 1067 0048 1846     		mov	r0, r3
 1068 004a FFF7FEFF 		bl	Decoder_1_SetIncrement
 1069 004e 0346     		mov	r3, r0
 607:Generated_Source\PSoC5/Decoder_1.c ****                     Decoder_1_SetPosition ( position )     && 
 1070              		.loc 1 607 0
 1071 0050 002B     		cmp	r3, #0
 1072 0052 09D0     		beq	.L75
 609:Generated_Source\PSoC5/Decoder_1.c ****                     Decoder_1_SetCheckBounds( bounds );
 1073              		.loc 1 609 0 discriminator 3
 1074 0054 97F82030 		ldrb	r3, [r7, #32]	@ zero_extendqisi2
 1075 0058 1846     		mov	r0, r3
 1076 005a FFF7FEFF 		bl	Decoder_1_SetCheckBounds
 1077 005e 0346     		mov	r3, r0
 608:Generated_Source\PSoC5/Decoder_1.c ****                     Decoder_1_SetCheckBounds( bounds );
 1078              		.loc 1 608 0 discriminator 3
 1079 0060 002B     		cmp	r3, #0
 1080 0062 01D0     		beq	.L75
 608:Generated_Source\PSoC5/Decoder_1.c ****                     Decoder_1_SetCheckBounds( bounds );
 1081              		.loc 1 608 0 is_stmt 0 discriminator 2
 1082 0064 0123     		movs	r3, #1
 1083 0066 00E0     		b	.L76
 1084              	.L75:
 608:Generated_Source\PSoC5/Decoder_1.c ****                     Decoder_1_SetCheckBounds( bounds );
 1085              		.loc 1 608 0 discriminator 1
 1086 0068 0023     		movs	r3, #0
 1087              	.L76:
 606:Generated_Source\PSoC5/Decoder_1.c ****                     Decoder_1_SetPosition ( position )     && 
 1088              		.loc 1 606 0 is_stmt 1
 1089 006a FB73     		strb	r3, [r7, #15]
 610:Generated_Source\PSoC5/Decoder_1.c ****     
 611:Generated_Source\PSoC5/Decoder_1.c ****     return result;
 1090              		.loc 1 611 0
 1091 006c FB7B     		ldrb	r3, [r7, #15]	@ zero_extendqisi2
 612:Generated_Source\PSoC5/Decoder_1.c **** }
ARM GAS  C:\Users\JEFFSN~1\AppData\Local\Temp\ccY6zsBN.s 			page 31


 1092              		.loc 1 612 0
 1093 006e 1846     		mov	r0, r3
 1094 0070 1437     		adds	r7, r7, #20
 1095              		.cfi_def_cfa_offset 12
 1096 0072 BD46     		mov	sp, r7
 1097              		.cfi_def_cfa_register 13
 1098              		@ sp needed
 1099 0074 90BD     		pop	{r4, r7, pc}
 1100              		.cfi_endproc
 1101              	.LFE79:
 1102              		.size	Decoder_1_Setup, .-Decoder_1_Setup
 1103 0076 00BF     		.section	.text.Decoder_1_GetIncrement,"ax",%progbits
 1104              		.align	2
 1105              		.global	Decoder_1_GetIncrement
 1106              		.thumb
 1107              		.thumb_func
 1108              		.type	Decoder_1_GetIncrement, %function
 1109              	Decoder_1_GetIncrement:
 1110              	.LFB80:
 613:Generated_Source\PSoC5/Decoder_1.c **** 
 614:Generated_Source\PSoC5/Decoder_1.c **** //==============================================================================
 615:Generated_Source\PSoC5/Decoder_1.c **** // Getters for Increment, LowerBound, UpperBound and CheckBounds
 616:Generated_Source\PSoC5/Decoder_1.c **** //==============================================================================
 617:Generated_Source\PSoC5/Decoder_1.c **** 
 618:Generated_Source\PSoC5/Decoder_1.c **** er_t  Decoder_1_GetIncrement()   { return aIncrement;   }
 1111              		.loc 1 618 0
 1112              		.cfi_startproc
 1113              		@ args = 0, pretend = 0, frame = 0
 1114              		@ frame_needed = 1, uses_anonymous_args = 0
 1115              		@ link register save eliminated.
 1116 0000 80B4     		push	{r7}
 1117              		.cfi_def_cfa_offset 4
 1118              		.cfi_offset 7, -4
 1119 0002 00AF     		add	r7, sp, #0
 1120              		.cfi_def_cfa_register 7
 1121              		.loc 1 618 0
 1122 0004 034B     		ldr	r3, .L80
 1123 0006 93F90030 		ldrsb	r3, [r3]
 1124 000a 1846     		mov	r0, r3
 1125 000c BD46     		mov	sp, r7
 1126              		.cfi_def_cfa_register 13
 1127              		@ sp needed
 1128 000e 80BC     		pop	{r7}
 1129              		.cfi_restore 7
 1130              		.cfi_def_cfa_offset 0
 1131 0010 7047     		bx	lr
 1132              	.L81:
 1133 0012 00BF     		.align	2
 1134              	.L80:
 1135 0014 01000000 		.word	aIncrement
 1136              		.cfi_endproc
 1137              	.LFE80:
 1138              		.size	Decoder_1_GetIncrement, .-Decoder_1_GetIncrement
 1139              		.section	.text.Decoder_1_GetLowerBound,"ax",%progbits
 1140              		.align	2
 1141              		.global	Decoder_1_GetLowerBound
 1142              		.thumb
ARM GAS  C:\Users\JEFFSN~1\AppData\Local\Temp\ccY6zsBN.s 			page 32


 1143              		.thumb_func
 1144              		.type	Decoder_1_GetLowerBound, %function
 1145              	Decoder_1_GetLowerBound:
 1146              	.LFB81:
 619:Generated_Source\PSoC5/Decoder_1.c **** er_t  Decoder_1_GetLowerBound()  { return aLowerBound;  }
 1147              		.loc 1 619 0
 1148              		.cfi_startproc
 1149              		@ args = 0, pretend = 0, frame = 0
 1150              		@ frame_needed = 1, uses_anonymous_args = 0
 1151              		@ link register save eliminated.
 1152 0000 80B4     		push	{r7}
 1153              		.cfi_def_cfa_offset 4
 1154              		.cfi_offset 7, -4
 1155 0002 00AF     		add	r7, sp, #0
 1156              		.cfi_def_cfa_register 7
 1157              		.loc 1 619 0
 1158 0004 034B     		ldr	r3, .L84
 1159 0006 93F90030 		ldrsb	r3, [r3]
 1160 000a 1846     		mov	r0, r3
 1161 000c BD46     		mov	sp, r7
 1162              		.cfi_def_cfa_register 13
 1163              		@ sp needed
 1164 000e 80BC     		pop	{r7}
 1165              		.cfi_restore 7
 1166              		.cfi_def_cfa_offset 0
 1167 0010 7047     		bx	lr
 1168              	.L85:
 1169 0012 00BF     		.align	2
 1170              	.L84:
 1171 0014 02000000 		.word	aLowerBound
 1172              		.cfi_endproc
 1173              	.LFE81:
 1174              		.size	Decoder_1_GetLowerBound, .-Decoder_1_GetLowerBound
 1175              		.section	.text.Decoder_1_GetUpperBound,"ax",%progbits
 1176              		.align	2
 1177              		.global	Decoder_1_GetUpperBound
 1178              		.thumb
 1179              		.thumb_func
 1180              		.type	Decoder_1_GetUpperBound, %function
 1181              	Decoder_1_GetUpperBound:
 1182              	.LFB82:
 620:Generated_Source\PSoC5/Decoder_1.c **** er_t  Decoder_1_GetUpperBound()  { return aUpperBound;  }
 1183              		.loc 1 620 0
 1184              		.cfi_startproc
 1185              		@ args = 0, pretend = 0, frame = 0
 1186              		@ frame_needed = 1, uses_anonymous_args = 0
 1187              		@ link register save eliminated.
 1188 0000 80B4     		push	{r7}
 1189              		.cfi_def_cfa_offset 4
 1190              		.cfi_offset 7, -4
 1191 0002 00AF     		add	r7, sp, #0
 1192              		.cfi_def_cfa_register 7
 1193              		.loc 1 620 0
 1194 0004 034B     		ldr	r3, .L88
 1195 0006 93F90030 		ldrsb	r3, [r3]
 1196 000a 1846     		mov	r0, r3
 1197 000c BD46     		mov	sp, r7
ARM GAS  C:\Users\JEFFSN~1\AppData\Local\Temp\ccY6zsBN.s 			page 33


 1198              		.cfi_def_cfa_register 13
 1199              		@ sp needed
 1200 000e 80BC     		pop	{r7}
 1201              		.cfi_restore 7
 1202              		.cfi_def_cfa_offset 0
 1203 0010 7047     		bx	lr
 1204              	.L89:
 1205 0012 00BF     		.align	2
 1206              	.L88:
 1207 0014 03000000 		.word	aUpperBound
 1208              		.cfi_endproc
 1209              	.LFE82:
 1210              		.size	Decoder_1_GetUpperBound, .-Decoder_1_GetUpperBound
 1211              		.section	.text.Decoder_1_GetCheckBounds,"ax",%progbits
 1212              		.align	2
 1213              		.global	Decoder_1_GetCheckBounds
 1214              		.thumb
 1215              		.thumb_func
 1216              		.type	Decoder_1_GetCheckBounds, %function
 1217              	Decoder_1_GetCheckBounds:
 1218              	.LFB83:
 621:Generated_Source\PSoC5/Decoder_1.c **** uint8 Decoder_1_GetCheckBounds() { return aCheckBounds; }
 1219              		.loc 1 621 0
 1220              		.cfi_startproc
 1221              		@ args = 0, pretend = 0, frame = 0
 1222              		@ frame_needed = 1, uses_anonymous_args = 0
 1223              		@ link register save eliminated.
 1224 0000 80B4     		push	{r7}
 1225              		.cfi_def_cfa_offset 4
 1226              		.cfi_offset 7, -4
 1227 0002 00AF     		add	r7, sp, #0
 1228              		.cfi_def_cfa_register 7
 1229              		.loc 1 621 0
 1230 0004 024B     		ldr	r3, .L92
 1231 0006 1B78     		ldrb	r3, [r3]	@ zero_extendqisi2
 1232 0008 1846     		mov	r0, r3
 1233 000a BD46     		mov	sp, r7
 1234              		.cfi_def_cfa_register 13
 1235              		@ sp needed
 1236 000c 80BC     		pop	{r7}
 1237              		.cfi_restore 7
 1238              		.cfi_def_cfa_offset 0
 1239 000e 7047     		bx	lr
 1240              	.L93:
 1241              		.align	2
 1242              	.L92:
 1243 0010 05000000 		.word	aCheckBounds
 1244              		.cfi_endproc
 1245              	.LFE83:
 1246              		.size	Decoder_1_GetCheckBounds, .-Decoder_1_GetCheckBounds
 1247              		.bss
 1248              	index.7280:
 1249 0006 00       		.space	1
 1250              	Acc.7281:
 1251 0007 00       		.space	1
 1252              		.text
 1253              	.Letext0:
ARM GAS  C:\Users\JEFFSN~1\AppData\Local\Temp\ccY6zsBN.s 			page 34


 1254              		.file 2 "c:\\program files (x86)\\cypress\\psoc creator\\4.4\\psoc creator\\import\\gnu\\arm\\5.4.
 1255              		.file 3 "c:\\program files (x86)\\cypress\\psoc creator\\4.4\\psoc creator\\import\\gnu\\arm\\5.4.
 1256              		.file 4 "Generated_Source\\PSoC5/cytypes.h"
 1257              		.file 5 "Generated_Source\\PSoC5/core_cm3.h"