ARM GAS  C:\Users\JEFFSN~1\AppData\Local\Temp\ccogK82D.s 			page 1


   1              		.syntax unified
   2              		.cpu cortex-m3
   3              		.fpu softvfp
   4              		.eabi_attribute 20, 1
   5              		.eabi_attribute 21, 1
   6              		.eabi_attribute 23, 3
   7              		.eabi_attribute 24, 1
   8              		.eabi_attribute 25, 1
   9              		.eabi_attribute 26, 1
  10              		.eabi_attribute 30, 6
  11              		.eabi_attribute 34, 1
  12              		.eabi_attribute 18, 4
  13              		.thumb
  14              		.syntax unified
  15              		.file	"gfx.c"
  16              		.text
  17              	.Ltext0:
  18              		.cfi_sections	.debug_frame
  19              		.section	.text.GFXinit,"ax",%progbits
  20              		.align	2
  21              		.global	GFXinit
  22              		.thumb
  23              		.thumb_func
  24              		.type	GFXinit, %function
  25              	GFXinit:
  26              	.LFB64:
  27              		.file 1 "gfx.c"
   1:gfx.c         **** /*
   2:gfx.c         ****  * gfx.c
   3:gfx.c         ****  *  a C port of the Adafruit GFX library
   4:gfx.c         ****  *  Created on: Jul 8, 2018
   5:gfx.c         ****  *      Author: jeffsnyder
   6:gfx.c         ****  */
   7:gfx.c         **** 
   8:gfx.c         **** 
   9:gfx.c         **** /*
  10:gfx.c         ****  This is the core graphics library for all our displays, providing a common
  11:gfx.c         ****  set of graphics primitives (points, lines, circles, etc.).  It needs to be
  12:gfx.c         ****  paired with a hardware-specific library for each display device we carry
  13:gfx.c         ****  (to handle the lower-level functions).
  14:gfx.c         ****  
  15:gfx.c         ****  Adafruit invests time and resources providing this open source code, please
  16:gfx.c         ****  support Adafruit & open-source hardware by purchasing products from Adafruit!
  17:gfx.c         ****  
  18:gfx.c         ****  Copyright (c) 2013 Adafruit Industries.  All rights reserved.
  19:gfx.c         ****  
  20:gfx.c         ****  Redistribution and use in source and binary forms, with or without
  21:gfx.c         ****  modification, are permitted provided that the following conditions are met:
  22:gfx.c         ****  
  23:gfx.c         ****  - Redistributions of source code must retain the above copyright notice,
  24:gfx.c         ****  this list of conditions and the following disclaimer.
  25:gfx.c         ****  - Redistributions in binary form must reproduce the above copyright notice,
  26:gfx.c         ****  this list of conditions and the following disclaimer in the documentation
  27:gfx.c         ****  and/or other materials provided with the distribution.
  28:gfx.c         ****  
  29:gfx.c         ****  THIS SOFTWARE IS PROVIDED BY THE COPYRIGHT HOLDERS AND CONTRIBUTORS "AS IS"
  30:gfx.c         ****  AND ANY EXPRESS OR IMPLIED WARRANTIES, INCLUDING, BUT NOT LIMITED TO, THE
ARM GAS  C:\Users\JEFFSN~1\AppData\Local\Temp\ccogK82D.s 			page 2


  31:gfx.c         ****  IMPLIED WARRANTIES OF MERCHANTABILITY AND FITNESS FOR A PARTICULAR PURPOSE
  32:gfx.c         ****  ARE DISCLAIMED. IN NO EVENT SHALL THE COPYRIGHT HOLDER OR CONTRIBUTORS BE
  33:gfx.c         ****  LIABLE FOR ANY DIRECT, INDIRECT, INCIDENTAL, SPECIAL, EXEMPLARY, OR
  34:gfx.c         ****  CONSEQUENTIAL DAMAGES (INCLUDING, BUT NOT LIMITED TO, PROCUREMENT OF
  35:gfx.c         ****  SUBSTITUTE GOODS OR SERVICES; LOSS OF USE, DATA, OR PROFITS; OR BUSINESS
  36:gfx.c         ****  INTERRUPTION) HOWEVER CAUSED AND ON ANY THEORY OF LIABILITY, WHETHER IN
  37:gfx.c         ****  CONTRACT, STRICT LIABILITY, OR TORT (INCLUDING NEGLIGENCE OR OTHERWISE)
  38:gfx.c         ****  ARISING IN ANY WAY OUT OF THE USE OF THIS SOFTWARE, EVEN IF ADVISED OF THE
  39:gfx.c         ****  POSSIBILITY OF SUCH DAMAGE.
  40:gfx.c         ****  */
  41:gfx.c         **** 
  42:gfx.c         **** 
  43:gfx.c         **** #include "gfx.h"
  44:gfx.c         **** #include <stdint.h>
  45:gfx.c         **** #include <stdlib.h>
  46:gfx.c         **** 
  47:gfx.c         ****         
  48:gfx.c         ****         // Many (but maybe not all) non-AVR board installs define macros
  49:gfx.c         ****         // for compatibility with existing PROGMEM-reading AVR code.
  50:gfx.c         ****         // Do our own checks and defines here for good measure...
  51:gfx.c         ****         
  52:gfx.c         **** #ifndef pgm_read_byte
  53:gfx.c         **** #define pgm_read_byte(addr) (*(const unsigned char *)(addr))
  54:gfx.c         **** #endif
  55:gfx.c         **** #ifndef pgm_read_word
  56:gfx.c         **** #define pgm_read_word(addr) (*(const unsigned short *)(addr))
  57:gfx.c         **** #endif
  58:gfx.c         **** #ifndef pgm_read_dword
  59:gfx.c         **** #define pgm_read_dword(addr) (*(const unsigned long long *)(addr))
  60:gfx.c         **** #endif
  61:gfx.c         ****         
  62:gfx.c         ****         // Pointers are a peculiar case...typically 16-bit on AVR boards,
  63:gfx.c         ****         // 32 bits elsewhere.  Try to accommodate both...
  64:gfx.c         ****         
  65:gfx.c         ****         
  66:gfx.c         **** #define pgm_read_pointer(addr) ((void *)pgm_read_dword(addr))
  67:gfx.c         ****         
  68:gfx.c         ****         
  69:gfx.c         **** #ifndef min
  70:gfx.c         **** #define min(a,b) (((a) < (b)) ? (a) : (b))
  71:gfx.c         **** #endif
  72:gfx.c         ****         
  73:gfx.c         **** #ifndef _swap_int16_t
  74:gfx.c         **** #define _swap_int16_t(a, b) { int16_t t = a; a = b; b = t; }
  75:gfx.c         **** #endif
  76:gfx.c         ****         
  77:gfx.c         ****         void GFXinit(GFX* myGfx, int16_t w, int16_t h)
  78:gfx.c         ****         {
  28              		.loc 1 78 0
  29              		.cfi_startproc
  30              		@ args = 0, pretend = 0, frame = 8
  31              		@ frame_needed = 1, uses_anonymous_args = 0
  32              		@ link register save eliminated.
  33 0000 80B4     		push	{r7}
  34              		.cfi_def_cfa_offset 4
  35              		.cfi_offset 7, -4
  36 0002 83B0     		sub	sp, sp, #12
ARM GAS  C:\Users\JEFFSN~1\AppData\Local\Temp\ccogK82D.s 			page 3


  37              		.cfi_def_cfa_offset 16
  38 0004 00AF     		add	r7, sp, #0
  39              		.cfi_def_cfa_register 7
  40 0006 7860     		str	r0, [r7, #4]
  41 0008 0B46     		mov	r3, r1
  42 000a 7B80     		strh	r3, [r7, #2]	@ movhi
  43 000c 1346     		mov	r3, r2	@ movhi
  44 000e 3B80     		strh	r3, [r7]	@ movhi
  79:gfx.c         ****             myGfx->WIDTH = w;
  45              		.loc 1 79 0
  46 0010 7B68     		ldr	r3, [r7, #4]
  47 0012 7A88     		ldrh	r2, [r7, #2]	@ movhi
  48 0014 1A80     		strh	r2, [r3]	@ movhi
  80:gfx.c         ****             myGfx->HEIGHT = h;
  49              		.loc 1 80 0
  50 0016 7B68     		ldr	r3, [r7, #4]
  51 0018 3A88     		ldrh	r2, [r7]	@ movhi
  52 001a 5A80     		strh	r2, [r3, #2]	@ movhi
  81:gfx.c         ****             myGfx->_width    = w;
  53              		.loc 1 81 0
  54 001c 7A88     		ldrh	r2, [r7, #2]
  55 001e 7B68     		ldr	r3, [r7, #4]
  56 0020 9A80     		strh	r2, [r3, #4]	@ movhi
  82:gfx.c         ****             myGfx->_height   = h;
  57              		.loc 1 82 0
  58 0022 3A88     		ldrh	r2, [r7]
  59 0024 7B68     		ldr	r3, [r7, #4]
  60 0026 DA80     		strh	r2, [r3, #6]	@ movhi
  83:gfx.c         ****             myGfx->rotation  = 0;
  61              		.loc 1 83 0
  62 0028 7B68     		ldr	r3, [r7, #4]
  63 002a 0022     		movs	r2, #0
  64 002c 1A81     		strh	r2, [r3, #8]	@ movhi
  84:gfx.c         ****             myGfx->cursor_y  = 0;
  65              		.loc 1 84 0
  66 002e 7B68     		ldr	r3, [r7, #4]
  67 0030 0022     		movs	r2, #0
  68 0032 5A81     		strh	r2, [r3, #10]	@ movhi
  85:gfx.c         ****             myGfx->cursor_x = 0;
  69              		.loc 1 85 0
  70 0034 7B68     		ldr	r3, [r7, #4]
  71 0036 0022     		movs	r2, #0
  72 0038 9A81     		strh	r2, [r3, #12]	@ movhi
  86:gfx.c         ****             myGfx->textsize  = 1;
  73              		.loc 1 86 0
  74 003a 7B68     		ldr	r3, [r7, #4]
  75 003c 0122     		movs	r2, #1
  76 003e DA81     		strh	r2, [r3, #14]	@ movhi
  87:gfx.c         ****             myGfx->textcolor = 0xFFFF;
  77              		.loc 1 87 0
  78 0040 7B68     		ldr	r3, [r7, #4]
  79 0042 4FF6FF72 		movw	r2, #65535
  80 0046 1A82     		strh	r2, [r3, #16]	@ movhi
  88:gfx.c         ****             myGfx->textbgcolor = 0xFFFF;
  81              		.loc 1 88 0
  82 0048 7B68     		ldr	r3, [r7, #4]
  83 004a 4FF6FF72 		movw	r2, #65535
ARM GAS  C:\Users\JEFFSN~1\AppData\Local\Temp\ccogK82D.s 			page 4


  84 004e 5A82     		strh	r2, [r3, #18]	@ movhi
  89:gfx.c         ****             myGfx->wrap      = 1;
  85              		.loc 1 89 0
  86 0050 7B68     		ldr	r3, [r7, #4]
  87 0052 0122     		movs	r2, #1
  88 0054 9A82     		strh	r2, [r3, #20]	@ movhi
  90:gfx.c         ****             myGfx->_cp437    = 0;
  89              		.loc 1 90 0
  90 0056 7B68     		ldr	r3, [r7, #4]
  91 0058 0022     		movs	r2, #0
  92 005a DA82     		strh	r2, [r3, #22]	@ movhi
  91:gfx.c         ****             myGfx->gfxFont   = NULL;
  93              		.loc 1 91 0
  94 005c 7B68     		ldr	r3, [r7, #4]
  95 005e 0022     		movs	r2, #0
  96 0060 9A61     		str	r2, [r3, #24]
  92:gfx.c         ****             myGfx->rotation = 0;
  97              		.loc 1 92 0
  98 0062 7B68     		ldr	r3, [r7, #4]
  99 0064 0022     		movs	r2, #0
 100 0066 1A81     		strh	r2, [r3, #8]	@ movhi
  93:gfx.c         ****             myGfx->fontDesc = 0;
 101              		.loc 1 93 0
 102 0068 7B68     		ldr	r3, [r7, #4]
 103 006a 0022     		movs	r2, #0
 104 006c DA83     		strh	r2, [r3, #30]	@ movhi
  94:gfx.c         ****             myGfx->fontHeight = 8;
 105              		.loc 1 94 0
 106 006e 7B68     		ldr	r3, [r7, #4]
 107 0070 0822     		movs	r2, #8
 108 0072 9A83     		strh	r2, [r3, #28]	@ movhi
  95:gfx.c         ****         }
 109              		.loc 1 95 0
 110 0074 00BF     		nop
 111 0076 0C37     		adds	r7, r7, #12
 112              		.cfi_def_cfa_offset 4
 113 0078 BD46     		mov	sp, r7
 114              		.cfi_def_cfa_register 13
 115              		@ sp needed
 116 007a 80BC     		pop	{r7}
 117              		.cfi_restore 7
 118              		.cfi_def_cfa_offset 0
 119 007c 7047     		bx	lr
 120              		.cfi_endproc
 121              	.LFE64:
 122              		.size	GFXinit, .-GFXinit
 123 007e 00BF     		.section	.text.GFXwriteLine,"ax",%progbits
 124              		.align	2
 125              		.global	GFXwriteLine
 126              		.thumb
 127              		.thumb_func
 128              		.type	GFXwriteLine, %function
 129              	GFXwriteLine:
 130              	.LFB65:
  96:gfx.c         ****         
  97:gfx.c         ****         // Bresenham's algorithm - thx wikpedia
  98:gfx.c         ****         void GFXwriteLine(GFX* myGFX, int16_t x0, int16_t y0, int16_t x1, int16_t y1,
ARM GAS  C:\Users\JEFFSN~1\AppData\Local\Temp\ccogK82D.s 			page 5


  99:gfx.c         ****                           uint16_t color) {
 131              		.loc 1 99 0
 132              		.cfi_startproc
 133              		@ args = 8, pretend = 0, frame = 40
 134              		@ frame_needed = 1, uses_anonymous_args = 0
 135 0000 80B5     		push	{r7, lr}
 136              		.cfi_def_cfa_offset 8
 137              		.cfi_offset 7, -8
 138              		.cfi_offset 14, -4
 139 0002 8AB0     		sub	sp, sp, #40
 140              		.cfi_def_cfa_offset 48
 141 0004 00AF     		add	r7, sp, #0
 142              		.cfi_def_cfa_register 7
 143 0006 F860     		str	r0, [r7, #12]
 144 0008 0846     		mov	r0, r1
 145 000a 1146     		mov	r1, r2
 146 000c 1A46     		mov	r2, r3
 147 000e 0346     		mov	r3, r0	@ movhi
 148 0010 7B81     		strh	r3, [r7, #10]	@ movhi
 149 0012 0B46     		mov	r3, r1	@ movhi
 150 0014 3B81     		strh	r3, [r7, #8]	@ movhi
 151 0016 1346     		mov	r3, r2	@ movhi
 152 0018 FB80     		strh	r3, [r7, #6]	@ movhi
 100:gfx.c         ****             int16_t steep = abs(y1 - y0) > abs(x1 - x0);
 153              		.loc 1 100 0
 154 001a B7F93020 		ldrsh	r2, [r7, #48]
 155 001e B7F90830 		ldrsh	r3, [r7, #8]
 156 0022 D31A     		subs	r3, r2, r3
 157 0024 83EAE372 		eor	r2, r3, r3, asr #31
 158 0028 A2EBE372 		sub	r2, r2, r3, asr #31
 159 002c B7F90610 		ldrsh	r1, [r7, #6]
 160 0030 B7F90A30 		ldrsh	r3, [r7, #10]
 161 0034 CB1A     		subs	r3, r1, r3
 162 0036 002B     		cmp	r3, #0
 163 0038 B8BF     		it	lt
 164 003a 5B42     		rsblt	r3, r3, #0
 165 003c 9A42     		cmp	r2, r3
 166 003e CCBF     		ite	gt
 167 0040 0123     		movgt	r3, #1
 168 0042 0023     		movle	r3, #0
 169 0044 DBB2     		uxtb	r3, r3
 170 0046 7B84     		strh	r3, [r7, #34]	@ movhi
 101:gfx.c         ****             if (steep) {
 171              		.loc 1 101 0
 172 0048 B7F92230 		ldrsh	r3, [r7, #34]
 173 004c 002B     		cmp	r3, #0
 174 004e 0BD0     		beq	.L3
 175              	.LBB2:
 102:gfx.c         ****                 _swap_int16_t(x0, y0);
 176              		.loc 1 102 0
 177 0050 7B89     		ldrh	r3, [r7, #10]	@ movhi
 178 0052 3B84     		strh	r3, [r7, #32]	@ movhi
 179 0054 3B89     		ldrh	r3, [r7, #8]	@ movhi
 180 0056 7B81     		strh	r3, [r7, #10]	@ movhi
 181 0058 3B8C     		ldrh	r3, [r7, #32]	@ movhi
 182 005a 3B81     		strh	r3, [r7, #8]	@ movhi
 183              	.LBE2:
ARM GAS  C:\Users\JEFFSN~1\AppData\Local\Temp\ccogK82D.s 			page 6


 184              	.LBB3:
 103:gfx.c         ****                 _swap_int16_t(x1, y1);
 185              		.loc 1 103 0
 186 005c FB88     		ldrh	r3, [r7, #6]	@ movhi
 187 005e FB83     		strh	r3, [r7, #30]	@ movhi
 188 0060 3B8E     		ldrh	r3, [r7, #48]	@ movhi
 189 0062 FB80     		strh	r3, [r7, #6]	@ movhi
 190 0064 FB8B     		ldrh	r3, [r7, #30]	@ movhi
 191 0066 3B86     		strh	r3, [r7, #48]	@ movhi
 192              	.L3:
 193              	.LBE3:
 104:gfx.c         ****             }
 105:gfx.c         ****             
 106:gfx.c         ****             if (x0 > x1) {
 194              		.loc 1 106 0
 195 0068 B7F90A20 		ldrsh	r2, [r7, #10]
 196 006c B7F90630 		ldrsh	r3, [r7, #6]
 197 0070 9A42     		cmp	r2, r3
 198 0072 0BDD     		ble	.L4
 199              	.LBB4:
 107:gfx.c         ****                 _swap_int16_t(x0, x1);
 200              		.loc 1 107 0
 201 0074 7B89     		ldrh	r3, [r7, #10]	@ movhi
 202 0076 BB83     		strh	r3, [r7, #28]	@ movhi
 203 0078 FB88     		ldrh	r3, [r7, #6]	@ movhi
 204 007a 7B81     		strh	r3, [r7, #10]	@ movhi
 205 007c BB8B     		ldrh	r3, [r7, #28]	@ movhi
 206 007e FB80     		strh	r3, [r7, #6]	@ movhi
 207              	.LBE4:
 208              	.LBB5:
 108:gfx.c         ****                 _swap_int16_t(y0, y1);
 209              		.loc 1 108 0
 210 0080 3B89     		ldrh	r3, [r7, #8]	@ movhi
 211 0082 7B83     		strh	r3, [r7, #26]	@ movhi
 212 0084 3B8E     		ldrh	r3, [r7, #48]	@ movhi
 213 0086 3B81     		strh	r3, [r7, #8]	@ movhi
 214 0088 7B8B     		ldrh	r3, [r7, #26]	@ movhi
 215 008a 3B86     		strh	r3, [r7, #48]	@ movhi
 216              	.L4:
 217              	.LBE5:
 109:gfx.c         ****             }
 110:gfx.c         ****             
 111:gfx.c         ****             int16_t dx, dy;
 112:gfx.c         ****             dx = x1 - x0;
 218              		.loc 1 112 0
 219 008c FA88     		ldrh	r2, [r7, #6]
 220 008e 7B89     		ldrh	r3, [r7, #10]
 221 0090 D31A     		subs	r3, r2, r3
 222 0092 9BB2     		uxth	r3, r3
 223 0094 3B83     		strh	r3, [r7, #24]	@ movhi
 113:gfx.c         ****             dy = abs(y1 - y0);
 224              		.loc 1 113 0
 225 0096 B7F93020 		ldrsh	r2, [r7, #48]
 226 009a B7F90830 		ldrsh	r3, [r7, #8]
 227 009e D31A     		subs	r3, r2, r3
 228 00a0 002B     		cmp	r3, #0
 229 00a2 B8BF     		it	lt
ARM GAS  C:\Users\JEFFSN~1\AppData\Local\Temp\ccogK82D.s 			page 7


 230 00a4 5B42     		rsblt	r3, r3, #0
 231 00a6 FB82     		strh	r3, [r7, #22]	@ movhi
 114:gfx.c         ****             
 115:gfx.c         ****             int16_t err = dx / 2;
 232              		.loc 1 115 0
 233 00a8 B7F91830 		ldrsh	r3, [r7, #24]
 234 00ac DA0F     		lsrs	r2, r3, #31
 235 00ae 1344     		add	r3, r3, r2
 236 00b0 5B10     		asrs	r3, r3, #1
 237 00b2 FB84     		strh	r3, [r7, #38]	@ movhi
 116:gfx.c         ****             int16_t ystep;
 117:gfx.c         ****             
 118:gfx.c         ****             if (y0 < y1) {
 238              		.loc 1 118 0
 239 00b4 B7F90820 		ldrsh	r2, [r7, #8]
 240 00b8 B7F93030 		ldrsh	r3, [r7, #48]
 241 00bc 9A42     		cmp	r2, r3
 242 00be 02DA     		bge	.L5
 119:gfx.c         ****                 ystep = 1;
 243              		.loc 1 119 0
 244 00c0 0123     		movs	r3, #1
 245 00c2 BB84     		strh	r3, [r7, #36]	@ movhi
 246 00c4 31E0     		b	.L7
 247              	.L5:
 120:gfx.c         ****             } else {
 121:gfx.c         ****                 ystep = -1;
 248              		.loc 1 121 0
 249 00c6 4FF6FF73 		movw	r3, #65535
 250 00ca BB84     		strh	r3, [r7, #36]	@ movhi
 122:gfx.c         ****             }
 123:gfx.c         ****             
 124:gfx.c         ****             for (; x0<=x1; x0++) {
 251              		.loc 1 124 0
 252 00cc 2DE0     		b	.L7
 253              	.L11:
 125:gfx.c         ****                 if (steep) {
 254              		.loc 1 125 0
 255 00ce B7F92230 		ldrsh	r3, [r7, #34]
 256 00d2 002B     		cmp	r3, #0
 257 00d4 08D0     		beq	.L8
 126:gfx.c         ****                     GFXwritePixel(myGFX, y0, x0, color);
 258              		.loc 1 126 0
 259 00d6 BB8E     		ldrh	r3, [r7, #52]
 260 00d8 B7F90A20 		ldrsh	r2, [r7, #10]
 261 00dc B7F90810 		ldrsh	r1, [r7, #8]
 262 00e0 F868     		ldr	r0, [r7, #12]
 263 00e2 FFF7FEFF 		bl	GFXwritePixel
 264 00e6 07E0     		b	.L9
 265              	.L8:
 127:gfx.c         ****                 } else {
 128:gfx.c         ****                     GFXwritePixel(myGFX, x0, y0, color);
 266              		.loc 1 128 0
 267 00e8 BB8E     		ldrh	r3, [r7, #52]
 268 00ea B7F90820 		ldrsh	r2, [r7, #8]
 269 00ee B7F90A10 		ldrsh	r1, [r7, #10]
 270 00f2 F868     		ldr	r0, [r7, #12]
 271 00f4 FFF7FEFF 		bl	GFXwritePixel
ARM GAS  C:\Users\JEFFSN~1\AppData\Local\Temp\ccogK82D.s 			page 8


 272              	.L9:
 129:gfx.c         ****                 }
 130:gfx.c         ****                 err -= dy;
 273              		.loc 1 130 0
 274 00f8 FA8C     		ldrh	r2, [r7, #38]
 275 00fa FB8A     		ldrh	r3, [r7, #22]
 276 00fc D31A     		subs	r3, r2, r3
 277 00fe 9BB2     		uxth	r3, r3
 278 0100 FB84     		strh	r3, [r7, #38]	@ movhi
 131:gfx.c         ****                 if (err < 0) {
 279              		.loc 1 131 0
 280 0102 B7F92630 		ldrsh	r3, [r7, #38]
 281 0106 002B     		cmp	r3, #0
 282 0108 09DA     		bge	.L10
 132:gfx.c         ****                     y0 += ystep;
 283              		.loc 1 132 0
 284 010a 3A89     		ldrh	r2, [r7, #8]
 285 010c BB8C     		ldrh	r3, [r7, #36]
 286 010e 1344     		add	r3, r3, r2
 287 0110 9BB2     		uxth	r3, r3
 288 0112 3B81     		strh	r3, [r7, #8]	@ movhi
 133:gfx.c         ****                     err += dx;
 289              		.loc 1 133 0
 290 0114 FA8C     		ldrh	r2, [r7, #38]
 291 0116 3B8B     		ldrh	r3, [r7, #24]
 292 0118 1344     		add	r3, r3, r2
 293 011a 9BB2     		uxth	r3, r3
 294 011c FB84     		strh	r3, [r7, #38]	@ movhi
 295              	.L10:
 124:gfx.c         ****                 if (steep) {
 296              		.loc 1 124 0
 297 011e B7F90A30 		ldrsh	r3, [r7, #10]
 298 0122 9BB2     		uxth	r3, r3
 299 0124 0133     		adds	r3, r3, #1
 300 0126 9BB2     		uxth	r3, r3
 301 0128 7B81     		strh	r3, [r7, #10]	@ movhi
 302              	.L7:
 124:gfx.c         ****                 if (steep) {
 303              		.loc 1 124 0 is_stmt 0 discriminator 1
 304 012a B7F90A20 		ldrsh	r2, [r7, #10]
 305 012e B7F90630 		ldrsh	r3, [r7, #6]
 306 0132 9A42     		cmp	r2, r3
 307 0134 CBDD     		ble	.L11
 134:gfx.c         ****                 }
 135:gfx.c         ****             }
 136:gfx.c         ****         }
 308              		.loc 1 136 0 is_stmt 1
 309 0136 00BF     		nop
 310 0138 2837     		adds	r7, r7, #40
 311              		.cfi_def_cfa_offset 8
 312 013a BD46     		mov	sp, r7
 313              		.cfi_def_cfa_register 13
 314              		@ sp needed
 315 013c 80BD     		pop	{r7, pc}
 316              		.cfi_endproc
 317              	.LFE65:
 318              		.size	GFXwriteLine, .-GFXwriteLine
ARM GAS  C:\Users\JEFFSN~1\AppData\Local\Temp\ccogK82D.s 			page 9


 319 013e 00BF     		.section	.text.GFXstartWrite,"ax",%progbits
 320              		.align	2
 321              		.global	GFXstartWrite
 322              		.thumb
 323              		.thumb_func
 324              		.type	GFXstartWrite, %function
 325              	GFXstartWrite:
 326              	.LFB66:
 137:gfx.c         ****         
 138:gfx.c         ****         void GFXstartWrite(GFX* myGFX){
 327              		.loc 1 138 0
 328              		.cfi_startproc
 329              		@ args = 0, pretend = 0, frame = 8
 330              		@ frame_needed = 1, uses_anonymous_args = 0
 331              		@ link register save eliminated.
 332 0000 80B4     		push	{r7}
 333              		.cfi_def_cfa_offset 4
 334              		.cfi_offset 7, -4
 335 0002 83B0     		sub	sp, sp, #12
 336              		.cfi_def_cfa_offset 16
 337 0004 00AF     		add	r7, sp, #0
 338              		.cfi_def_cfa_register 7
 339 0006 7860     		str	r0, [r7, #4]
 139:gfx.c         ****             // Overwrite in subclasses if desired!
 140:gfx.c         ****         }
 340              		.loc 1 140 0
 341 0008 00BF     		nop
 342 000a 0C37     		adds	r7, r7, #12
 343              		.cfi_def_cfa_offset 4
 344 000c BD46     		mov	sp, r7
 345              		.cfi_def_cfa_register 13
 346              		@ sp needed
 347 000e 80BC     		pop	{r7}
 348              		.cfi_restore 7
 349              		.cfi_def_cfa_offset 0
 350 0010 7047     		bx	lr
 351              		.cfi_endproc
 352              	.LFE66:
 353              		.size	GFXstartWrite, .-GFXstartWrite
 354 0012 00BF     		.section	.text.GFXdrawPixel,"ax",%progbits
 355              		.align	2
 356              		.global	GFXdrawPixel
 357              		.thumb
 358              		.thumb_func
 359              		.type	GFXdrawPixel, %function
 360              	GFXdrawPixel:
 361              	.LFB67:
 141:gfx.c         ****         
 142:gfx.c         ****         // the most basic function, set a single pixel
 143:gfx.c         ****         void GFXdrawPixel(GFX* myGFX, int16_t x, int16_t y, uint16_t color) {
 362              		.loc 1 143 0
 363              		.cfi_startproc
 364              		@ args = 0, pretend = 0, frame = 24
 365              		@ frame_needed = 1, uses_anonymous_args = 0
 366 0000 80B5     		push	{r7, lr}
 367              		.cfi_def_cfa_offset 8
 368              		.cfi_offset 7, -8
ARM GAS  C:\Users\JEFFSN~1\AppData\Local\Temp\ccogK82D.s 			page 10


 369              		.cfi_offset 14, -4
 370 0002 86B0     		sub	sp, sp, #24
 371              		.cfi_def_cfa_offset 32
 372 0004 00AF     		add	r7, sp, #0
 373              		.cfi_def_cfa_register 7
 374 0006 F860     		str	r0, [r7, #12]
 375 0008 0846     		mov	r0, r1
 376 000a 1146     		mov	r1, r2
 377 000c 1A46     		mov	r2, r3
 378 000e 0346     		mov	r3, r0	@ movhi
 379 0010 7B81     		strh	r3, [r7, #10]	@ movhi
 380 0012 0B46     		mov	r3, r1	@ movhi
 381 0014 3B81     		strh	r3, [r7, #8]	@ movhi
 382 0016 1346     		mov	r3, r2	@ movhi
 383 0018 FB80     		strh	r3, [r7, #6]	@ movhi
 144:gfx.c         ****             if ((x < 0) || (x >= myGFX->_width) || (y < 0) || (y >= myGFX->_height))
 384              		.loc 1 144 0
 385 001a B7F90A30 		ldrsh	r3, [r7, #10]
 386 001e 002B     		cmp	r3, #0
 387 0020 C0F2D780 		blt	.L27
 388              		.loc 1 144 0 is_stmt 0 discriminator 1
 389 0024 B7F90A30 		ldrsh	r3, [r7, #10]
 390 0028 FA68     		ldr	r2, [r7, #12]
 391 002a 9288     		ldrh	r2, [r2, #4]
 392 002c 9342     		cmp	r3, r2
 393 002e 80F2D080 		bge	.L27
 394              		.loc 1 144 0 discriminator 2
 395 0032 B7F90830 		ldrsh	r3, [r7, #8]
 396 0036 002B     		cmp	r3, #0
 397 0038 C0F2CB80 		blt	.L27
 398              		.loc 1 144 0 discriminator 3
 399 003c B7F90830 		ldrsh	r3, [r7, #8]
 400 0040 FA68     		ldr	r2, [r7, #12]
 401 0042 D288     		ldrh	r2, [r2, #6]
 402 0044 9342     		cmp	r3, r2
 403 0046 80F2C480 		bge	.L27
 145:gfx.c         ****                 return;
 146:gfx.c         ****             
 147:gfx.c         ****             // check rotation, move pixel around if necessary
 148:gfx.c         ****             switch (GFXgetRotation(myGFX)) {
 404              		.loc 1 148 0 is_stmt 1
 405 004a F868     		ldr	r0, [r7, #12]
 406 004c FFF7FEFF 		bl	GFXgetRotation
 407 0050 0346     		mov	r3, r0
 408 0052 022B     		cmp	r3, #2
 409 0054 14D0     		beq	.L18
 410 0056 032B     		cmp	r3, #3
 411 0058 27D0     		beq	.L19
 412 005a 012B     		cmp	r3, #1
 413 005c 36D1     		bne	.L17
 414              	.LBB6:
 149:gfx.c         ****                 case 1:
 150:gfx.c         ****                     _swap_int16_t(x, y);
 415              		.loc 1 150 0
 416 005e 7B89     		ldrh	r3, [r7, #10]	@ movhi
 417 0060 FB82     		strh	r3, [r7, #22]	@ movhi
 418 0062 3B89     		ldrh	r3, [r7, #8]	@ movhi
ARM GAS  C:\Users\JEFFSN~1\AppData\Local\Temp\ccogK82D.s 			page 11


 419 0064 7B81     		strh	r3, [r7, #10]	@ movhi
 420 0066 FB8A     		ldrh	r3, [r7, #22]	@ movhi
 421 0068 3B81     		strh	r3, [r7, #8]	@ movhi
 422              	.LBE6:
 151:gfx.c         ****                     x = myGFX->WIDTH - x - 1;
 423              		.loc 1 151 0
 424 006a FB68     		ldr	r3, [r7, #12]
 425 006c B3F90030 		ldrsh	r3, [r3]
 426 0070 9AB2     		uxth	r2, r3
 427 0072 7B89     		ldrh	r3, [r7, #10]
 428 0074 D31A     		subs	r3, r2, r3
 429 0076 9BB2     		uxth	r3, r3
 430 0078 013B     		subs	r3, r3, #1
 431 007a 9BB2     		uxth	r3, r3
 432 007c 7B81     		strh	r3, [r7, #10]	@ movhi
 152:gfx.c         ****                     break;
 433              		.loc 1 152 0
 434 007e 25E0     		b	.L17
 435              	.L18:
 153:gfx.c         ****                 case 2:
 154:gfx.c         ****                     x = myGFX->WIDTH - x - 1;
 436              		.loc 1 154 0
 437 0080 FB68     		ldr	r3, [r7, #12]
 438 0082 B3F90030 		ldrsh	r3, [r3]
 439 0086 9AB2     		uxth	r2, r3
 440 0088 7B89     		ldrh	r3, [r7, #10]
 441 008a D31A     		subs	r3, r2, r3
 442 008c 9BB2     		uxth	r3, r3
 443 008e 013B     		subs	r3, r3, #1
 444 0090 9BB2     		uxth	r3, r3
 445 0092 7B81     		strh	r3, [r7, #10]	@ movhi
 155:gfx.c         ****                     y = myGFX->HEIGHT - y - 1;
 446              		.loc 1 155 0
 447 0094 FB68     		ldr	r3, [r7, #12]
 448 0096 B3F90230 		ldrsh	r3, [r3, #2]
 449 009a 9AB2     		uxth	r2, r3
 450 009c 3B89     		ldrh	r3, [r7, #8]
 451 009e D31A     		subs	r3, r2, r3
 452 00a0 9BB2     		uxth	r3, r3
 453 00a2 013B     		subs	r3, r3, #1
 454 00a4 9BB2     		uxth	r3, r3
 455 00a6 3B81     		strh	r3, [r7, #8]	@ movhi
 156:gfx.c         ****                     break;
 456              		.loc 1 156 0
 457 00a8 10E0     		b	.L17
 458              	.L19:
 459              	.LBB7:
 157:gfx.c         ****                 case 3:
 158:gfx.c         ****                     _swap_int16_t(x, y);
 460              		.loc 1 158 0
 461 00aa 7B89     		ldrh	r3, [r7, #10]	@ movhi
 462 00ac BB82     		strh	r3, [r7, #20]	@ movhi
 463 00ae 3B89     		ldrh	r3, [r7, #8]	@ movhi
 464 00b0 7B81     		strh	r3, [r7, #10]	@ movhi
 465 00b2 BB8A     		ldrh	r3, [r7, #20]	@ movhi
 466 00b4 3B81     		strh	r3, [r7, #8]	@ movhi
 467              	.LBE7:
ARM GAS  C:\Users\JEFFSN~1\AppData\Local\Temp\ccogK82D.s 			page 12


 159:gfx.c         ****                     y = myGFX->HEIGHT - y - 1;
 468              		.loc 1 159 0
 469 00b6 FB68     		ldr	r3, [r7, #12]
 470 00b8 B3F90230 		ldrsh	r3, [r3, #2]
 471 00bc 9AB2     		uxth	r2, r3
 472 00be 3B89     		ldrh	r3, [r7, #8]
 473 00c0 D31A     		subs	r3, r2, r3
 474 00c2 9BB2     		uxth	r3, r3
 475 00c4 013B     		subs	r3, r3, #1
 476 00c6 9BB2     		uxth	r3, r3
 477 00c8 3B81     		strh	r3, [r7, #8]	@ movhi
 160:gfx.c         ****                     break;
 478              		.loc 1 160 0
 479 00ca 00BF     		nop
 480              	.L17:
 161:gfx.c         ****             }
 162:gfx.c         ****             
 163:gfx.c         ****             // x is which column
 164:gfx.c         ****             switch (color)
 481              		.loc 1 164 0
 482 00cc FB88     		ldrh	r3, [r7, #6]
 483 00ce 012B     		cmp	r3, #1
 484 00d0 04D0     		beq	.L21
 485 00d2 022B     		cmp	r3, #2
 486 00d4 54D0     		beq	.L22
 487 00d6 002B     		cmp	r3, #0
 488 00d8 28D0     		beq	.L23
 489 00da 7BE0     		b	.L13
 490              	.L21:
 165:gfx.c         ****             {
 166:gfx.c         ****                 case WHITE:   buffer[x+ (y/8)*myGFX->WIDTH] |=  (1 << (y&7)); break;
 491              		.loc 1 166 0
 492 00dc B7F90A20 		ldrsh	r2, [r7, #10]
 493 00e0 B7F90830 		ldrsh	r3, [r7, #8]
 494 00e4 002B     		cmp	r3, #0
 495 00e6 00DA     		bge	.L24
 496 00e8 0733     		adds	r3, r3, #7
 497              	.L24:
 498 00ea DB10     		asrs	r3, r3, #3
 499 00ec 18B2     		sxth	r0, r3
 500 00ee 0146     		mov	r1, r0
 501 00f0 FB68     		ldr	r3, [r7, #12]
 502 00f2 B3F90030 		ldrsh	r3, [r3]
 503 00f6 03FB01F3 		mul	r3, r3, r1
 504 00fa 1344     		add	r3, r3, r2
 505 00fc B7F90A10 		ldrsh	r1, [r7, #10]
 506 0100 FA68     		ldr	r2, [r7, #12]
 507 0102 B2F90020 		ldrsh	r2, [r2]
 508 0106 02FB00F2 		mul	r2, r2, r0
 509 010a 0A44     		add	r2, r2, r1
 510 010c 3349     		ldr	r1, .L28
 511 010e 8A5C     		ldrb	r2, [r1, r2]	@ zero_extendqisi2
 512 0110 51B2     		sxtb	r1, r2
 513 0112 3A89     		ldrh	r2, [r7, #8]
 514 0114 02F00702 		and	r2, r2, #7
 515 0118 0120     		movs	r0, #1
 516 011a 00FA02F2 		lsl	r2, r0, r2
ARM GAS  C:\Users\JEFFSN~1\AppData\Local\Temp\ccogK82D.s 			page 13


 517 011e 52B2     		sxtb	r2, r2
 518 0120 0A43     		orrs	r2, r2, r1
 519 0122 52B2     		sxtb	r2, r2
 520 0124 D1B2     		uxtb	r1, r2
 521 0126 2D4A     		ldr	r2, .L28
 522 0128 D154     		strb	r1, [r2, r3]
 523 012a 53E0     		b	.L13
 524              	.L23:
 167:gfx.c         ****                 case BLACK:   buffer[x+ (y/8)*myGFX->WIDTH] &= ~(1 << (y&7)); break;
 525              		.loc 1 167 0
 526 012c B7F90A20 		ldrsh	r2, [r7, #10]
 527 0130 B7F90830 		ldrsh	r3, [r7, #8]
 528 0134 002B     		cmp	r3, #0
 529 0136 00DA     		bge	.L25
 530 0138 0733     		adds	r3, r3, #7
 531              	.L25:
 532 013a DB10     		asrs	r3, r3, #3
 533 013c 18B2     		sxth	r0, r3
 534 013e 0146     		mov	r1, r0
 535 0140 FB68     		ldr	r3, [r7, #12]
 536 0142 B3F90030 		ldrsh	r3, [r3]
 537 0146 03FB01F3 		mul	r3, r3, r1
 538 014a 1344     		add	r3, r3, r2
 539 014c B7F90A10 		ldrsh	r1, [r7, #10]
 540 0150 FA68     		ldr	r2, [r7, #12]
 541 0152 B2F90020 		ldrsh	r2, [r2]
 542 0156 02FB00F2 		mul	r2, r2, r0
 543 015a 0A44     		add	r2, r2, r1
 544 015c 1F49     		ldr	r1, .L28
 545 015e 8A5C     		ldrb	r2, [r1, r2]	@ zero_extendqisi2
 546 0160 51B2     		sxtb	r1, r2
 547 0162 3A89     		ldrh	r2, [r7, #8]
 548 0164 02F00702 		and	r2, r2, #7
 549 0168 0120     		movs	r0, #1
 550 016a 00FA02F2 		lsl	r2, r0, r2
 551 016e 52B2     		sxtb	r2, r2
 552 0170 D243     		mvns	r2, r2
 553 0172 52B2     		sxtb	r2, r2
 554 0174 0A40     		ands	r2, r2, r1
 555 0176 52B2     		sxtb	r2, r2
 556 0178 D1B2     		uxtb	r1, r2
 557 017a 184A     		ldr	r2, .L28
 558 017c D154     		strb	r1, [r2, r3]
 559 017e 29E0     		b	.L13
 560              	.L22:
 168:gfx.c         ****                 case INVERSE: buffer[x+ (y/8)*myGFX->WIDTH] ^=  (1 << (y&7)); break;
 561              		.loc 1 168 0
 562 0180 B7F90A20 		ldrsh	r2, [r7, #10]
 563 0184 B7F90830 		ldrsh	r3, [r7, #8]
 564 0188 002B     		cmp	r3, #0
 565 018a 00DA     		bge	.L26
 566 018c 0733     		adds	r3, r3, #7
 567              	.L26:
 568 018e DB10     		asrs	r3, r3, #3
 569 0190 18B2     		sxth	r0, r3
 570 0192 0146     		mov	r1, r0
 571 0194 FB68     		ldr	r3, [r7, #12]
ARM GAS  C:\Users\JEFFSN~1\AppData\Local\Temp\ccogK82D.s 			page 14


 572 0196 B3F90030 		ldrsh	r3, [r3]
 573 019a 03FB01F3 		mul	r3, r3, r1
 574 019e 1344     		add	r3, r3, r2
 575 01a0 B7F90A10 		ldrsh	r1, [r7, #10]
 576 01a4 FA68     		ldr	r2, [r7, #12]
 577 01a6 B2F90020 		ldrsh	r2, [r2]
 578 01aa 02FB00F2 		mul	r2, r2, r0
 579 01ae 0A44     		add	r2, r2, r1
 580 01b0 0A49     		ldr	r1, .L28
 581 01b2 8A5C     		ldrb	r2, [r1, r2]	@ zero_extendqisi2
 582 01b4 51B2     		sxtb	r1, r2
 583 01b6 3A89     		ldrh	r2, [r7, #8]
 584 01b8 02F00702 		and	r2, r2, #7
 585 01bc 0120     		movs	r0, #1
 586 01be 00FA02F2 		lsl	r2, r0, r2
 587 01c2 52B2     		sxtb	r2, r2
 588 01c4 4A40     		eors	r2, r2, r1
 589 01c6 52B2     		sxtb	r2, r2
 590 01c8 D1B2     		uxtb	r1, r2
 591 01ca 044A     		ldr	r2, .L28
 592 01cc D154     		strb	r1, [r2, r3]
 593 01ce 00BF     		nop
 594 01d0 00E0     		b	.L13
 595              	.L27:
 145:gfx.c         ****             
 596              		.loc 1 145 0
 597 01d2 00BF     		nop
 598              	.L13:
 169:gfx.c         ****             }
 170:gfx.c         ****             
 171:gfx.c         ****         }
 599              		.loc 1 171 0
 600 01d4 1837     		adds	r7, r7, #24
 601              		.cfi_def_cfa_offset 8
 602 01d6 BD46     		mov	sp, r7
 603              		.cfi_def_cfa_register 13
 604              		@ sp needed
 605 01d8 80BD     		pop	{r7, pc}
 606              	.L29:
 607 01da 00BF     		.align	2
 608              	.L28:
 609 01dc 00000000 		.word	buffer
 610              		.cfi_endproc
 611              	.LFE67:
 612              		.size	GFXdrawPixel, .-GFXdrawPixel
 613              		.section	.text.GFXwritePixel,"ax",%progbits
 614              		.align	2
 615              		.global	GFXwritePixel
 616              		.thumb
 617              		.thumb_func
 618              		.type	GFXwritePixel, %function
 619              	GFXwritePixel:
 620              	.LFB68:
 172:gfx.c         ****         
 173:gfx.c         ****         void GFXwritePixel(GFX* myGFX,int16_t x, int16_t y, uint16_t color){
 621              		.loc 1 173 0
 622              		.cfi_startproc
ARM GAS  C:\Users\JEFFSN~1\AppData\Local\Temp\ccogK82D.s 			page 15


 623              		@ args = 0, pretend = 0, frame = 16
 624              		@ frame_needed = 1, uses_anonymous_args = 0
 625 0000 80B5     		push	{r7, lr}
 626              		.cfi_def_cfa_offset 8
 627              		.cfi_offset 7, -8
 628              		.cfi_offset 14, -4
 629 0002 84B0     		sub	sp, sp, #16
 630              		.cfi_def_cfa_offset 24
 631 0004 00AF     		add	r7, sp, #0
 632              		.cfi_def_cfa_register 7
 633 0006 F860     		str	r0, [r7, #12]
 634 0008 0846     		mov	r0, r1
 635 000a 1146     		mov	r1, r2
 636 000c 1A46     		mov	r2, r3
 637 000e 0346     		mov	r3, r0	@ movhi
 638 0010 7B81     		strh	r3, [r7, #10]	@ movhi
 639 0012 0B46     		mov	r3, r1	@ movhi
 640 0014 3B81     		strh	r3, [r7, #8]	@ movhi
 641 0016 1346     		mov	r3, r2	@ movhi
 642 0018 FB80     		strh	r3, [r7, #6]	@ movhi
 174:gfx.c         ****             // Overwrite in subclasses if startWrite is defined!
 175:gfx.c         ****             GFXdrawPixel(myGFX, x, y, color);
 643              		.loc 1 175 0
 644 001a FB88     		ldrh	r3, [r7, #6]
 645 001c B7F90820 		ldrsh	r2, [r7, #8]
 646 0020 B7F90A10 		ldrsh	r1, [r7, #10]
 647 0024 F868     		ldr	r0, [r7, #12]
 648 0026 FFF7FEFF 		bl	GFXdrawPixel
 176:gfx.c         ****         }
 649              		.loc 1 176 0
 650 002a 00BF     		nop
 651 002c 1037     		adds	r7, r7, #16
 652              		.cfi_def_cfa_offset 8
 653 002e BD46     		mov	sp, r7
 654              		.cfi_def_cfa_register 13
 655              		@ sp needed
 656 0030 80BD     		pop	{r7, pc}
 657              		.cfi_endproc
 658              	.LFE68:
 659              		.size	GFXwritePixel, .-GFXwritePixel
 660 0032 00BF     		.section	.text.GFXwriteFastVLine,"ax",%progbits
 661              		.align	2
 662              		.global	GFXwriteFastVLine
 663              		.thumb
 664              		.thumb_func
 665              		.type	GFXwriteFastVLine, %function
 666              	GFXwriteFastVLine:
 667              	.LFB69:
 177:gfx.c         ****         
 178:gfx.c         ****         // (x,y) is topmost point; if unsure, calling function
 179:gfx.c         ****         // should sort endpoints or call writeLine() instead
 180:gfx.c         ****         void GFXwriteFastVLine(GFX* myGFX,int16_t x, int16_t y,
 181:gfx.c         ****                                int16_t h, uint16_t color) {
 668              		.loc 1 181 0
 669              		.cfi_startproc
 670              		@ args = 4, pretend = 0, frame = 16
 671              		@ frame_needed = 1, uses_anonymous_args = 0
ARM GAS  C:\Users\JEFFSN~1\AppData\Local\Temp\ccogK82D.s 			page 16


 672 0000 80B5     		push	{r7, lr}
 673              		.cfi_def_cfa_offset 8
 674              		.cfi_offset 7, -8
 675              		.cfi_offset 14, -4
 676 0002 86B0     		sub	sp, sp, #24
 677              		.cfi_def_cfa_offset 32
 678 0004 02AF     		add	r7, sp, #8
 679              		.cfi_def_cfa 7, 24
 680 0006 F860     		str	r0, [r7, #12]
 681 0008 0846     		mov	r0, r1
 682 000a 1146     		mov	r1, r2
 683 000c 1A46     		mov	r2, r3
 684 000e 0346     		mov	r3, r0	@ movhi
 685 0010 7B81     		strh	r3, [r7, #10]	@ movhi
 686 0012 0B46     		mov	r3, r1	@ movhi
 687 0014 3B81     		strh	r3, [r7, #8]	@ movhi
 688 0016 1346     		mov	r3, r2	@ movhi
 689 0018 FB80     		strh	r3, [r7, #6]	@ movhi
 182:gfx.c         ****             // Overwrite in subclasses if startWrite is defined!
 183:gfx.c         ****             // Can be just writeLine(x, y, x, y+h-1, color);
 184:gfx.c         ****             // or writeFillRect(x, y, 1, h, color);
 185:gfx.c         ****             GFXdrawFastVLine(myGFX, x, y, h, color);
 690              		.loc 1 185 0
 691 001a B7F90600 		ldrsh	r0, [r7, #6]
 692 001e B7F90820 		ldrsh	r2, [r7, #8]
 693 0022 B7F90A10 		ldrsh	r1, [r7, #10]
 694 0026 3B8B     		ldrh	r3, [r7, #24]
 695 0028 0093     		str	r3, [sp]
 696 002a 0346     		mov	r3, r0
 697 002c F868     		ldr	r0, [r7, #12]
 698 002e FFF7FEFF 		bl	GFXdrawFastVLine
 186:gfx.c         ****         }
 699              		.loc 1 186 0
 700 0032 00BF     		nop
 701 0034 1037     		adds	r7, r7, #16
 702              		.cfi_def_cfa_offset 8
 703 0036 BD46     		mov	sp, r7
 704              		.cfi_def_cfa_register 13
 705              		@ sp needed
 706 0038 80BD     		pop	{r7, pc}
 707              		.cfi_endproc
 708              	.LFE69:
 709              		.size	GFXwriteFastVLine, .-GFXwriteFastVLine
 710 003a 00BF     		.section	.text.GFXwriteFastHLine,"ax",%progbits
 711              		.align	2
 712              		.global	GFXwriteFastHLine
 713              		.thumb
 714              		.thumb_func
 715              		.type	GFXwriteFastHLine, %function
 716              	GFXwriteFastHLine:
 717              	.LFB70:
 187:gfx.c         ****         
 188:gfx.c         ****         // (x,y) is leftmost point; if unsure, calling function
 189:gfx.c         ****         // should sort endpoints or call writeLine() instead
 190:gfx.c         ****         void GFXwriteFastHLine(GFX* myGFX, int16_t x, int16_t y,
 191:gfx.c         ****                                int16_t w, uint16_t color) {
 718              		.loc 1 191 0
ARM GAS  C:\Users\JEFFSN~1\AppData\Local\Temp\ccogK82D.s 			page 17


 719              		.cfi_startproc
 720              		@ args = 4, pretend = 0, frame = 16
 721              		@ frame_needed = 1, uses_anonymous_args = 0
 722 0000 80B5     		push	{r7, lr}
 723              		.cfi_def_cfa_offset 8
 724              		.cfi_offset 7, -8
 725              		.cfi_offset 14, -4
 726 0002 86B0     		sub	sp, sp, #24
 727              		.cfi_def_cfa_offset 32
 728 0004 02AF     		add	r7, sp, #8
 729              		.cfi_def_cfa 7, 24
 730 0006 F860     		str	r0, [r7, #12]
 731 0008 0846     		mov	r0, r1
 732 000a 1146     		mov	r1, r2
 733 000c 1A46     		mov	r2, r3
 734 000e 0346     		mov	r3, r0	@ movhi
 735 0010 7B81     		strh	r3, [r7, #10]	@ movhi
 736 0012 0B46     		mov	r3, r1	@ movhi
 737 0014 3B81     		strh	r3, [r7, #8]	@ movhi
 738 0016 1346     		mov	r3, r2	@ movhi
 739 0018 FB80     		strh	r3, [r7, #6]	@ movhi
 192:gfx.c         ****             // Overwrite in subclasses if startWrite is defined!
 193:gfx.c         ****             // Example: writeLine(x, y, x+w-1, y, color);
 194:gfx.c         ****             // or writeFillRect(x, y, w, 1, color);
 195:gfx.c         ****             GFXdrawFastHLine(myGFX,x, y, w, color);
 740              		.loc 1 195 0
 741 001a B7F90600 		ldrsh	r0, [r7, #6]
 742 001e B7F90820 		ldrsh	r2, [r7, #8]
 743 0022 B7F90A10 		ldrsh	r1, [r7, #10]
 744 0026 3B8B     		ldrh	r3, [r7, #24]
 745 0028 0093     		str	r3, [sp]
 746 002a 0346     		mov	r3, r0
 747 002c F868     		ldr	r0, [r7, #12]
 748 002e FFF7FEFF 		bl	GFXdrawFastHLine
 196:gfx.c         ****         }
 749              		.loc 1 196 0
 750 0032 00BF     		nop
 751 0034 1037     		adds	r7, r7, #16
 752              		.cfi_def_cfa_offset 8
 753 0036 BD46     		mov	sp, r7
 754              		.cfi_def_cfa_register 13
 755              		@ sp needed
 756 0038 80BD     		pop	{r7, pc}
 757              		.cfi_endproc
 758              	.LFE70:
 759              		.size	GFXwriteFastHLine, .-GFXwriteFastHLine
 760 003a 00BF     		.section	.text.GFXwriteFillRect,"ax",%progbits
 761              		.align	2
 762              		.global	GFXwriteFillRect
 763              		.thumb
 764              		.thumb_func
 765              		.type	GFXwriteFillRect, %function
 766              	GFXwriteFillRect:
 767              	.LFB71:
 197:gfx.c         ****         
 198:gfx.c         ****         void GFXwriteFillRect(GFX* myGFX,int16_t x, int16_t y, int16_t w, int16_t h,
 199:gfx.c         ****                               uint16_t color) {
ARM GAS  C:\Users\JEFFSN~1\AppData\Local\Temp\ccogK82D.s 			page 18


 768              		.loc 1 199 0
 769              		.cfi_startproc
 770              		@ args = 8, pretend = 0, frame = 16
 771              		@ frame_needed = 1, uses_anonymous_args = 0
 772 0000 80B5     		push	{r7, lr}
 773              		.cfi_def_cfa_offset 8
 774              		.cfi_offset 7, -8
 775              		.cfi_offset 14, -4
 776 0002 86B0     		sub	sp, sp, #24
 777              		.cfi_def_cfa_offset 32
 778 0004 02AF     		add	r7, sp, #8
 779              		.cfi_def_cfa 7, 24
 780 0006 F860     		str	r0, [r7, #12]
 781 0008 0846     		mov	r0, r1
 782 000a 1146     		mov	r1, r2
 783 000c 1A46     		mov	r2, r3
 784 000e 0346     		mov	r3, r0	@ movhi
 785 0010 7B81     		strh	r3, [r7, #10]	@ movhi
 786 0012 0B46     		mov	r3, r1	@ movhi
 787 0014 3B81     		strh	r3, [r7, #8]	@ movhi
 788 0016 1346     		mov	r3, r2	@ movhi
 789 0018 FB80     		strh	r3, [r7, #6]	@ movhi
 200:gfx.c         ****             // Overwrite in subclasses if desired!
 201:gfx.c         ****             GFXfillRect(myGFX,x,y,w,h,color);
 790              		.loc 1 201 0
 791 001a B7F90600 		ldrsh	r0, [r7, #6]
 792 001e B7F90820 		ldrsh	r2, [r7, #8]
 793 0022 B7F90A10 		ldrsh	r1, [r7, #10]
 794 0026 BB8B     		ldrh	r3, [r7, #28]
 795 0028 0193     		str	r3, [sp, #4]
 796 002a B7F91830 		ldrsh	r3, [r7, #24]
 797 002e 0093     		str	r3, [sp]
 798 0030 0346     		mov	r3, r0
 799 0032 F868     		ldr	r0, [r7, #12]
 800 0034 FFF7FEFF 		bl	GFXfillRect
 202:gfx.c         ****         }
 801              		.loc 1 202 0
 802 0038 00BF     		nop
 803 003a 1037     		adds	r7, r7, #16
 804              		.cfi_def_cfa_offset 8
 805 003c BD46     		mov	sp, r7
 806              		.cfi_def_cfa_register 13
 807              		@ sp needed
 808 003e 80BD     		pop	{r7, pc}
 809              		.cfi_endproc
 810              	.LFE71:
 811              		.size	GFXwriteFillRect, .-GFXwriteFillRect
 812              		.section	.text.GFXendWrite,"ax",%progbits
 813              		.align	2
 814              		.global	GFXendWrite
 815              		.thumb
 816              		.thumb_func
 817              		.type	GFXendWrite, %function
 818              	GFXendWrite:
 819              	.LFB72:
 203:gfx.c         ****         
 204:gfx.c         ****         void GFXendWrite(GFX* myGFX){
ARM GAS  C:\Users\JEFFSN~1\AppData\Local\Temp\ccogK82D.s 			page 19


 820              		.loc 1 204 0
 821              		.cfi_startproc
 822              		@ args = 0, pretend = 0, frame = 8
 823              		@ frame_needed = 1, uses_anonymous_args = 0
 824              		@ link register save eliminated.
 825 0000 80B4     		push	{r7}
 826              		.cfi_def_cfa_offset 4
 827              		.cfi_offset 7, -4
 828 0002 83B0     		sub	sp, sp, #12
 829              		.cfi_def_cfa_offset 16
 830 0004 00AF     		add	r7, sp, #0
 831              		.cfi_def_cfa_register 7
 832 0006 7860     		str	r0, [r7, #4]
 205:gfx.c         ****             // Overwrite in subclasses if startWrite is defined!
 206:gfx.c         ****         }
 833              		.loc 1 206 0
 834 0008 00BF     		nop
 835 000a 0C37     		adds	r7, r7, #12
 836              		.cfi_def_cfa_offset 4
 837 000c BD46     		mov	sp, r7
 838              		.cfi_def_cfa_register 13
 839              		@ sp needed
 840 000e 80BC     		pop	{r7}
 841              		.cfi_restore 7
 842              		.cfi_def_cfa_offset 0
 843 0010 7047     		bx	lr
 844              		.cfi_endproc
 845              	.LFE72:
 846              		.size	GFXendWrite, .-GFXendWrite
 847 0012 00BF     		.section	.text.GFXdrawFastVLine,"ax",%progbits
 848              		.align	2
 849              		.global	GFXdrawFastVLine
 850              		.thumb
 851              		.thumb_func
 852              		.type	GFXdrawFastVLine, %function
 853              	GFXdrawFastVLine:
 854              	.LFB73:
 207:gfx.c         ****         
 208:gfx.c         ****         // (x,y) is topmost point; if unsure, calling function
 209:gfx.c         ****         // should sort endpoints or call drawLine() instead
 210:gfx.c         ****         void GFXdrawFastVLine(GFX* myGFX,int16_t x, int16_t y,
 211:gfx.c         ****                               int16_t h, uint16_t color) {
 855              		.loc 1 211 0
 856              		.cfi_startproc
 857              		@ args = 4, pretend = 0, frame = 16
 858              		@ frame_needed = 1, uses_anonymous_args = 0
 859 0000 90B5     		push	{r4, r7, lr}
 860              		.cfi_def_cfa_offset 12
 861              		.cfi_offset 4, -12
 862              		.cfi_offset 7, -8
 863              		.cfi_offset 14, -4
 864 0002 87B0     		sub	sp, sp, #28
 865              		.cfi_def_cfa_offset 40
 866 0004 02AF     		add	r7, sp, #8
 867              		.cfi_def_cfa 7, 32
 868 0006 F860     		str	r0, [r7, #12]
 869 0008 0846     		mov	r0, r1
ARM GAS  C:\Users\JEFFSN~1\AppData\Local\Temp\ccogK82D.s 			page 20


 870 000a 1146     		mov	r1, r2
 871 000c 1A46     		mov	r2, r3
 872 000e 0346     		mov	r3, r0	@ movhi
 873 0010 7B81     		strh	r3, [r7, #10]	@ movhi
 874 0012 0B46     		mov	r3, r1	@ movhi
 875 0014 3B81     		strh	r3, [r7, #8]	@ movhi
 876 0016 1346     		mov	r3, r2	@ movhi
 877 0018 FB80     		strh	r3, [r7, #6]	@ movhi
 212:gfx.c         ****             // Update in subclasses if desired!
 213:gfx.c         ****             GFXwriteLine(myGFX,x, y, x, y+h-1, color);
 878              		.loc 1 213 0
 879 001a 3A89     		ldrh	r2, [r7, #8]
 880 001c FB88     		ldrh	r3, [r7, #6]
 881 001e 1344     		add	r3, r3, r2
 882 0020 9BB2     		uxth	r3, r3
 883 0022 013B     		subs	r3, r3, #1
 884 0024 9BB2     		uxth	r3, r3
 885 0026 1BB2     		sxth	r3, r3
 886 0028 B7F90A40 		ldrsh	r4, [r7, #10]
 887 002c B7F90800 		ldrsh	r0, [r7, #8]
 888 0030 B7F90A10 		ldrsh	r1, [r7, #10]
 889 0034 3A8C     		ldrh	r2, [r7, #32]
 890 0036 0192     		str	r2, [sp, #4]
 891 0038 0093     		str	r3, [sp]
 892 003a 2346     		mov	r3, r4
 893 003c 0246     		mov	r2, r0
 894 003e F868     		ldr	r0, [r7, #12]
 895 0040 FFF7FEFF 		bl	GFXwriteLine
 214:gfx.c         ****         }
 896              		.loc 1 214 0
 897 0044 00BF     		nop
 898 0046 1437     		adds	r7, r7, #20
 899              		.cfi_def_cfa_offset 12
 900 0048 BD46     		mov	sp, r7
 901              		.cfi_def_cfa_register 13
 902              		@ sp needed
 903 004a 90BD     		pop	{r4, r7, pc}
 904              		.cfi_endproc
 905              	.LFE73:
 906              		.size	GFXdrawFastVLine, .-GFXdrawFastVLine
 907              		.section	.text.GFXdrawFastHLine,"ax",%progbits
 908              		.align	2
 909              		.global	GFXdrawFastHLine
 910              		.thumb
 911              		.thumb_func
 912              		.type	GFXdrawFastHLine, %function
 913              	GFXdrawFastHLine:
 914              	.LFB74:
 215:gfx.c         ****         
 216:gfx.c         ****         // (x,y) is leftmost point; if unsure, calling function
 217:gfx.c         ****         // should sort endpoints or call drawLine() instead
 218:gfx.c         ****         void GFXdrawFastHLine(GFX* myGFX,int16_t x, int16_t y,
 219:gfx.c         ****                               int16_t w, uint16_t color) {
 915              		.loc 1 219 0
 916              		.cfi_startproc
 917              		@ args = 4, pretend = 0, frame = 16
 918              		@ frame_needed = 1, uses_anonymous_args = 0
ARM GAS  C:\Users\JEFFSN~1\AppData\Local\Temp\ccogK82D.s 			page 21


 919 0000 80B5     		push	{r7, lr}
 920              		.cfi_def_cfa_offset 8
 921              		.cfi_offset 7, -8
 922              		.cfi_offset 14, -4
 923 0002 86B0     		sub	sp, sp, #24
 924              		.cfi_def_cfa_offset 32
 925 0004 02AF     		add	r7, sp, #8
 926              		.cfi_def_cfa 7, 24
 927 0006 F860     		str	r0, [r7, #12]
 928 0008 0846     		mov	r0, r1
 929 000a 1146     		mov	r1, r2
 930 000c 1A46     		mov	r2, r3
 931 000e 0346     		mov	r3, r0	@ movhi
 932 0010 7B81     		strh	r3, [r7, #10]	@ movhi
 933 0012 0B46     		mov	r3, r1	@ movhi
 934 0014 3B81     		strh	r3, [r7, #8]	@ movhi
 935 0016 1346     		mov	r3, r2	@ movhi
 936 0018 FB80     		strh	r3, [r7, #6]	@ movhi
 220:gfx.c         ****             // Update in subclasses if desired!
 221:gfx.c         ****             GFXwriteLine(myGFX,x, y, x+w-1, y, color);
 937              		.loc 1 221 0
 938 001a 7A89     		ldrh	r2, [r7, #10]
 939 001c FB88     		ldrh	r3, [r7, #6]
 940 001e 1344     		add	r3, r3, r2
 941 0020 9BB2     		uxth	r3, r3
 942 0022 013B     		subs	r3, r3, #1
 943 0024 9BB2     		uxth	r3, r3
 944 0026 18B2     		sxth	r0, r3
 945 0028 B7F90820 		ldrsh	r2, [r7, #8]
 946 002c B7F90A10 		ldrsh	r1, [r7, #10]
 947 0030 3B8B     		ldrh	r3, [r7, #24]
 948 0032 0193     		str	r3, [sp, #4]
 949 0034 B7F90830 		ldrsh	r3, [r7, #8]
 950 0038 0093     		str	r3, [sp]
 951 003a 0346     		mov	r3, r0
 952 003c F868     		ldr	r0, [r7, #12]
 953 003e FFF7FEFF 		bl	GFXwriteLine
 222:gfx.c         ****         }
 954              		.loc 1 222 0
 955 0042 00BF     		nop
 956 0044 1037     		adds	r7, r7, #16
 957              		.cfi_def_cfa_offset 8
 958 0046 BD46     		mov	sp, r7
 959              		.cfi_def_cfa_register 13
 960              		@ sp needed
 961 0048 80BD     		pop	{r7, pc}
 962              		.cfi_endproc
 963              	.LFE74:
 964              		.size	GFXdrawFastHLine, .-GFXdrawFastHLine
 965 004a 00BF     		.section	.text.GFXfillRect,"ax",%progbits
 966              		.align	2
 967              		.global	GFXfillRect
 968              		.thumb
 969              		.thumb_func
 970              		.type	GFXfillRect, %function
 971              	GFXfillRect:
 972              	.LFB75:
ARM GAS  C:\Users\JEFFSN~1\AppData\Local\Temp\ccogK82D.s 			page 22


 223:gfx.c         ****         
 224:gfx.c         ****         void GFXfillRect(GFX* myGFX,int16_t x, int16_t y, int16_t w, int16_t h,
 225:gfx.c         ****                          uint16_t color) {
 973              		.loc 1 225 0
 974              		.cfi_startproc
 975              		@ args = 8, pretend = 0, frame = 24
 976              		@ frame_needed = 1, uses_anonymous_args = 0
 977 0000 80B5     		push	{r7, lr}
 978              		.cfi_def_cfa_offset 8
 979              		.cfi_offset 7, -8
 980              		.cfi_offset 14, -4
 981 0002 88B0     		sub	sp, sp, #32
 982              		.cfi_def_cfa_offset 40
 983 0004 02AF     		add	r7, sp, #8
 984              		.cfi_def_cfa 7, 32
 985 0006 F860     		str	r0, [r7, #12]
 986 0008 0846     		mov	r0, r1
 987 000a 1146     		mov	r1, r2
 988 000c 1A46     		mov	r2, r3
 989 000e 0346     		mov	r3, r0	@ movhi
 990 0010 7B81     		strh	r3, [r7, #10]	@ movhi
 991 0012 0B46     		mov	r3, r1	@ movhi
 992 0014 3B81     		strh	r3, [r7, #8]	@ movhi
 993 0016 1346     		mov	r3, r2	@ movhi
 994 0018 FB80     		strh	r3, [r7, #6]	@ movhi
 995              	.LBB8:
 226:gfx.c         ****             // Update in subclasses if desired!
 227:gfx.c         ****             for (int16_t i=x; i<x+w; i++) {
 996              		.loc 1 227 0
 997 001a 7B89     		ldrh	r3, [r7, #10]	@ movhi
 998 001c FB82     		strh	r3, [r7, #22]	@ movhi
 999 001e 11E0     		b	.L38
 1000              	.L39:
 228:gfx.c         ****                 GFXwriteFastVLine(myGFX,i, y, h, color);
 1001              		.loc 1 228 0 discriminator 3
 1002 0020 B7F92000 		ldrsh	r0, [r7, #32]
 1003 0024 B7F90820 		ldrsh	r2, [r7, #8]
 1004 0028 B7F91610 		ldrsh	r1, [r7, #22]
 1005 002c BB8C     		ldrh	r3, [r7, #36]
 1006 002e 0093     		str	r3, [sp]
 1007 0030 0346     		mov	r3, r0
 1008 0032 F868     		ldr	r0, [r7, #12]
 1009 0034 FFF7FEFF 		bl	GFXwriteFastVLine
 227:gfx.c         ****                 GFXwriteFastVLine(myGFX,i, y, h, color);
 1010              		.loc 1 227 0 discriminator 3
 1011 0038 B7F91630 		ldrsh	r3, [r7, #22]
 1012 003c 9BB2     		uxth	r3, r3
 1013 003e 0133     		adds	r3, r3, #1
 1014 0040 9BB2     		uxth	r3, r3
 1015 0042 FB82     		strh	r3, [r7, #22]	@ movhi
 1016              	.L38:
 227:gfx.c         ****                 GFXwriteFastVLine(myGFX,i, y, h, color);
 1017              		.loc 1 227 0 is_stmt 0 discriminator 1
 1018 0044 B7F91620 		ldrsh	r2, [r7, #22]
 1019 0048 B7F90A10 		ldrsh	r1, [r7, #10]
 1020 004c B7F90630 		ldrsh	r3, [r7, #6]
 1021 0050 0B44     		add	r3, r3, r1
ARM GAS  C:\Users\JEFFSN~1\AppData\Local\Temp\ccogK82D.s 			page 23


 1022 0052 9A42     		cmp	r2, r3
 1023 0054 E4DB     		blt	.L39
 1024              	.LBE8:
 229:gfx.c         ****             }
 230:gfx.c         ****         }
 1025              		.loc 1 230 0 is_stmt 1
 1026 0056 00BF     		nop
 1027 0058 1837     		adds	r7, r7, #24
 1028              		.cfi_def_cfa_offset 8
 1029 005a BD46     		mov	sp, r7
 1030              		.cfi_def_cfa_register 13
 1031              		@ sp needed
 1032 005c 80BD     		pop	{r7, pc}
 1033              		.cfi_endproc
 1034              	.LFE75:
 1035              		.size	GFXfillRect, .-GFXfillRect
 1036 005e 00BF     		.section	.text.GFXfillScreen,"ax",%progbits
 1037              		.align	2
 1038              		.global	GFXfillScreen
 1039              		.thumb
 1040              		.thumb_func
 1041              		.type	GFXfillScreen, %function
 1042              	GFXfillScreen:
 1043              	.LFB76:
 231:gfx.c         ****         
 232:gfx.c         ****         void GFXfillScreen(GFX* myGFX,uint16_t color) {
 1044              		.loc 1 232 0
 1045              		.cfi_startproc
 1046              		@ args = 0, pretend = 0, frame = 8
 1047              		@ frame_needed = 1, uses_anonymous_args = 0
 1048 0000 80B5     		push	{r7, lr}
 1049              		.cfi_def_cfa_offset 8
 1050              		.cfi_offset 7, -8
 1051              		.cfi_offset 14, -4
 1052 0002 84B0     		sub	sp, sp, #16
 1053              		.cfi_def_cfa_offset 24
 1054 0004 02AF     		add	r7, sp, #8
 1055              		.cfi_def_cfa 7, 16
 1056 0006 7860     		str	r0, [r7, #4]
 1057 0008 0B46     		mov	r3, r1
 1058 000a 7B80     		strh	r3, [r7, #2]	@ movhi
 233:gfx.c         ****             // Update in subclasses if desired!
 234:gfx.c         ****             GFXfillRect(myGFX,0, 0, myGFX->_width, myGFX->_height, color);
 1059              		.loc 1 234 0
 1060 000c 7B68     		ldr	r3, [r7, #4]
 1061 000e 9B88     		ldrh	r3, [r3, #4]
 1062 0010 19B2     		sxth	r1, r3
 1063 0012 7B68     		ldr	r3, [r7, #4]
 1064 0014 DB88     		ldrh	r3, [r3, #6]
 1065 0016 1BB2     		sxth	r3, r3
 1066 0018 7A88     		ldrh	r2, [r7, #2]
 1067 001a 0192     		str	r2, [sp, #4]
 1068 001c 0093     		str	r3, [sp]
 1069 001e 0B46     		mov	r3, r1
 1070 0020 0022     		movs	r2, #0
 1071 0022 0021     		movs	r1, #0
 1072 0024 7868     		ldr	r0, [r7, #4]
ARM GAS  C:\Users\JEFFSN~1\AppData\Local\Temp\ccogK82D.s 			page 24


 1073 0026 FFF7FEFF 		bl	GFXfillRect
 235:gfx.c         ****         }
 1074              		.loc 1 235 0
 1075 002a 00BF     		nop
 1076 002c 0837     		adds	r7, r7, #8
 1077              		.cfi_def_cfa_offset 8
 1078 002e BD46     		mov	sp, r7
 1079              		.cfi_def_cfa_register 13
 1080              		@ sp needed
 1081 0030 80BD     		pop	{r7, pc}
 1082              		.cfi_endproc
 1083              	.LFE76:
 1084              		.size	GFXfillScreen, .-GFXfillScreen
 1085 0032 00BF     		.section	.text.GFXdrawLine,"ax",%progbits
 1086              		.align	2
 1087              		.global	GFXdrawLine
 1088              		.thumb
 1089              		.thumb_func
 1090              		.type	GFXdrawLine, %function
 1091              	GFXdrawLine:
 1092              	.LFB77:
 236:gfx.c         ****         
 237:gfx.c         ****         void GFXdrawLine(GFX* myGFX,int16_t x0, int16_t y0, int16_t x1, int16_t y1,
 238:gfx.c         ****                          uint16_t color) {
 1093              		.loc 1 238 0
 1094              		.cfi_startproc
 1095              		@ args = 8, pretend = 0, frame = 24
 1096              		@ frame_needed = 1, uses_anonymous_args = 0
 1097 0000 80B5     		push	{r7, lr}
 1098              		.cfi_def_cfa_offset 8
 1099              		.cfi_offset 7, -8
 1100              		.cfi_offset 14, -4
 1101 0002 88B0     		sub	sp, sp, #32
 1102              		.cfi_def_cfa_offset 40
 1103 0004 02AF     		add	r7, sp, #8
 1104              		.cfi_def_cfa 7, 32
 1105 0006 F860     		str	r0, [r7, #12]
 1106 0008 0846     		mov	r0, r1
 1107 000a 1146     		mov	r1, r2
 1108 000c 1A46     		mov	r2, r3
 1109 000e 0346     		mov	r3, r0	@ movhi
 1110 0010 7B81     		strh	r3, [r7, #10]	@ movhi
 1111 0012 0B46     		mov	r3, r1	@ movhi
 1112 0014 3B81     		strh	r3, [r7, #8]	@ movhi
 1113 0016 1346     		mov	r3, r2	@ movhi
 1114 0018 FB80     		strh	r3, [r7, #6]	@ movhi
 239:gfx.c         ****             // Update in subclasses if desired!
 240:gfx.c         ****             if(x0 == x1){
 1115              		.loc 1 240 0
 1116 001a B7F90A20 		ldrsh	r2, [r7, #10]
 1117 001e B7F90630 		ldrsh	r3, [r7, #6]
 1118 0022 9A42     		cmp	r2, r3
 1119 0024 1DD1     		bne	.L42
 241:gfx.c         ****                 if(y0 > y1) _swap_int16_t(y0, y1);
 1120              		.loc 1 241 0
 1121 0026 B7F90820 		ldrsh	r2, [r7, #8]
 1122 002a B7F92030 		ldrsh	r3, [r7, #32]
ARM GAS  C:\Users\JEFFSN~1\AppData\Local\Temp\ccogK82D.s 			page 25


 1123 002e 9A42     		cmp	r2, r3
 1124 0030 05DD     		ble	.L43
 1125              	.LBB9:
 1126              		.loc 1 241 0 is_stmt 0 discriminator 1
 1127 0032 3B89     		ldrh	r3, [r7, #8]	@ movhi
 1128 0034 FB82     		strh	r3, [r7, #22]	@ movhi
 1129 0036 3B8C     		ldrh	r3, [r7, #32]	@ movhi
 1130 0038 3B81     		strh	r3, [r7, #8]	@ movhi
 1131 003a FB8A     		ldrh	r3, [r7, #22]	@ movhi
 1132 003c 3B84     		strh	r3, [r7, #32]	@ movhi
 1133              	.L43:
 1134              	.LBE9:
 242:gfx.c         ****                 GFXdrawFastVLine(myGFX,x0, y0, y1 - y0 + 1, color);
 1135              		.loc 1 242 0 is_stmt 1
 1136 003e 3A8C     		ldrh	r2, [r7, #32]
 1137 0040 3B89     		ldrh	r3, [r7, #8]
 1138 0042 D31A     		subs	r3, r2, r3
 1139 0044 9BB2     		uxth	r3, r3
 1140 0046 0133     		adds	r3, r3, #1
 1141 0048 9BB2     		uxth	r3, r3
 1142 004a 18B2     		sxth	r0, r3
 1143 004c B7F90820 		ldrsh	r2, [r7, #8]
 1144 0050 B7F90A10 		ldrsh	r1, [r7, #10]
 1145 0054 BB8C     		ldrh	r3, [r7, #36]
 1146 0056 0093     		str	r3, [sp]
 1147 0058 0346     		mov	r3, r0
 1148 005a F868     		ldr	r0, [r7, #12]
 1149 005c FFF7FEFF 		bl	GFXdrawFastVLine
 243:gfx.c         ****             } else if(y0 == y1){
 244:gfx.c         ****                 if(x0 > x1) _swap_int16_t(x0, x1);
 245:gfx.c         ****                 GFXdrawFastHLine(myGFX,x0, y0, x1 - x0 + 1, color);
 246:gfx.c         ****             } else {
 247:gfx.c         ****                 GFXwriteLine(myGFX,x0, y0, x1, y1, color);
 248:gfx.c         ****             }
 249:gfx.c         ****         }
 1150              		.loc 1 249 0
 1151 0060 32E0     		b	.L47
 1152              	.L42:
 243:gfx.c         ****             } else if(y0 == y1){
 1153              		.loc 1 243 0
 1154 0062 B7F90820 		ldrsh	r2, [r7, #8]
 1155 0066 B7F92030 		ldrsh	r3, [r7, #32]
 1156 006a 9A42     		cmp	r2, r3
 1157 006c 1DD1     		bne	.L45
 244:gfx.c         ****                 GFXdrawFastHLine(myGFX,x0, y0, x1 - x0 + 1, color);
 1158              		.loc 1 244 0
 1159 006e B7F90A20 		ldrsh	r2, [r7, #10]
 1160 0072 B7F90630 		ldrsh	r3, [r7, #6]
 1161 0076 9A42     		cmp	r2, r3
 1162 0078 05DD     		ble	.L46
 1163              	.LBB10:
 244:gfx.c         ****                 GFXdrawFastHLine(myGFX,x0, y0, x1 - x0 + 1, color);
 1164              		.loc 1 244 0 is_stmt 0 discriminator 1
 1165 007a 7B89     		ldrh	r3, [r7, #10]	@ movhi
 1166 007c BB82     		strh	r3, [r7, #20]	@ movhi
 1167 007e FB88     		ldrh	r3, [r7, #6]	@ movhi
 1168 0080 7B81     		strh	r3, [r7, #10]	@ movhi
ARM GAS  C:\Users\JEFFSN~1\AppData\Local\Temp\ccogK82D.s 			page 26


 1169 0082 BB8A     		ldrh	r3, [r7, #20]	@ movhi
 1170 0084 FB80     		strh	r3, [r7, #6]	@ movhi
 1171              	.L46:
 1172              	.LBE10:
 245:gfx.c         ****             } else {
 1173              		.loc 1 245 0 is_stmt 1
 1174 0086 FA88     		ldrh	r2, [r7, #6]
 1175 0088 7B89     		ldrh	r3, [r7, #10]
 1176 008a D31A     		subs	r3, r2, r3
 1177 008c 9BB2     		uxth	r3, r3
 1178 008e 0133     		adds	r3, r3, #1
 1179 0090 9BB2     		uxth	r3, r3
 1180 0092 18B2     		sxth	r0, r3
 1181 0094 B7F90820 		ldrsh	r2, [r7, #8]
 1182 0098 B7F90A10 		ldrsh	r1, [r7, #10]
 1183 009c BB8C     		ldrh	r3, [r7, #36]
 1184 009e 0093     		str	r3, [sp]
 1185 00a0 0346     		mov	r3, r0
 1186 00a2 F868     		ldr	r0, [r7, #12]
 1187 00a4 FFF7FEFF 		bl	GFXdrawFastHLine
 1188              		.loc 1 249 0
 1189 00a8 0EE0     		b	.L47
 1190              	.L45:
 247:gfx.c         ****             }
 1191              		.loc 1 247 0
 1192 00aa B7F90600 		ldrsh	r0, [r7, #6]
 1193 00ae B7F90820 		ldrsh	r2, [r7, #8]
 1194 00b2 B7F90A10 		ldrsh	r1, [r7, #10]
 1195 00b6 BB8C     		ldrh	r3, [r7, #36]
 1196 00b8 0193     		str	r3, [sp, #4]
 1197 00ba B7F92030 		ldrsh	r3, [r7, #32]
 1198 00be 0093     		str	r3, [sp]
 1199 00c0 0346     		mov	r3, r0
 1200 00c2 F868     		ldr	r0, [r7, #12]
 1201 00c4 FFF7FEFF 		bl	GFXwriteLine
 1202              	.L47:
 1203              		.loc 1 249 0
 1204 00c8 00BF     		nop
 1205 00ca 1837     		adds	r7, r7, #24
 1206              		.cfi_def_cfa_offset 8
 1207 00cc BD46     		mov	sp, r7
 1208              		.cfi_def_cfa_register 13
 1209              		@ sp needed
 1210 00ce 80BD     		pop	{r7, pc}
 1211              		.cfi_endproc
 1212              	.LFE77:
 1213              		.size	GFXdrawLine, .-GFXdrawLine
 1214              		.section	.text.GFXdrawCircle,"ax",%progbits
 1215              		.align	2
 1216              		.global	GFXdrawCircle
 1217              		.thumb
 1218              		.thumb_func
 1219              		.type	GFXdrawCircle, %function
 1220              	GFXdrawCircle:
 1221              	.LFB78:
 250:gfx.c         ****         
 251:gfx.c         ****         // Draw a circle outline
ARM GAS  C:\Users\JEFFSN~1\AppData\Local\Temp\ccogK82D.s 			page 27


 252:gfx.c         ****         void GFXdrawCircle(GFX* myGFX,int16_t x0, int16_t y0, int16_t r,
 253:gfx.c         ****                            uint16_t color) {
 1222              		.loc 1 253 0
 1223              		.cfi_startproc
 1224              		@ args = 4, pretend = 0, frame = 32
 1225              		@ frame_needed = 1, uses_anonymous_args = 0
 1226 0000 80B5     		push	{r7, lr}
 1227              		.cfi_def_cfa_offset 8
 1228              		.cfi_offset 7, -8
 1229              		.cfi_offset 14, -4
 1230 0002 88B0     		sub	sp, sp, #32
 1231              		.cfi_def_cfa_offset 40
 1232 0004 00AF     		add	r7, sp, #0
 1233              		.cfi_def_cfa_register 7
 1234 0006 F860     		str	r0, [r7, #12]
 1235 0008 0846     		mov	r0, r1
 1236 000a 1146     		mov	r1, r2
 1237 000c 1A46     		mov	r2, r3
 1238 000e 0346     		mov	r3, r0	@ movhi
 1239 0010 7B81     		strh	r3, [r7, #10]	@ movhi
 1240 0012 0B46     		mov	r3, r1	@ movhi
 1241 0014 3B81     		strh	r3, [r7, #8]	@ movhi
 1242 0016 1346     		mov	r3, r2	@ movhi
 1243 0018 FB80     		strh	r3, [r7, #6]	@ movhi
 254:gfx.c         ****             int16_t f = 1 - r;
 1244              		.loc 1 254 0
 1245 001a FB88     		ldrh	r3, [r7, #6]
 1246 001c C3F10103 		rsb	r3, r3, #1
 1247 0020 9BB2     		uxth	r3, r3
 1248 0022 FB83     		strh	r3, [r7, #30]	@ movhi
 255:gfx.c         ****             int16_t ddF_x = 1;
 1249              		.loc 1 255 0
 1250 0024 0123     		movs	r3, #1
 1251 0026 BB83     		strh	r3, [r7, #28]	@ movhi
 256:gfx.c         ****             int16_t ddF_y = -2 * r;
 1252              		.loc 1 256 0
 1253 0028 FB88     		ldrh	r3, [r7, #6]
 1254 002a 1A46     		mov	r2, r3	@ movhi
 1255 002c D203     		lsls	r2, r2, #15
 1256 002e D31A     		subs	r3, r2, r3
 1257 0030 5B00     		lsls	r3, r3, #1
 1258 0032 9BB2     		uxth	r3, r3
 1259 0034 7B83     		strh	r3, [r7, #26]	@ movhi
 257:gfx.c         ****             int16_t x = 0;
 1260              		.loc 1 257 0
 1261 0036 0023     		movs	r3, #0
 1262 0038 3B83     		strh	r3, [r7, #24]	@ movhi
 258:gfx.c         ****             int16_t y = r;
 1263              		.loc 1 258 0
 1264 003a FB88     		ldrh	r3, [r7, #6]	@ movhi
 1265 003c FB82     		strh	r3, [r7, #22]	@ movhi
 259:gfx.c         ****             
 260:gfx.c         ****             GFXwritePixel(myGFX,x0  , y0+r, color);
 1266              		.loc 1 260 0
 1267 003e 3A89     		ldrh	r2, [r7, #8]
 1268 0040 FB88     		ldrh	r3, [r7, #6]
 1269 0042 1344     		add	r3, r3, r2
ARM GAS  C:\Users\JEFFSN~1\AppData\Local\Temp\ccogK82D.s 			page 28


 1270 0044 9BB2     		uxth	r3, r3
 1271 0046 1AB2     		sxth	r2, r3
 1272 0048 3B8D     		ldrh	r3, [r7, #40]
 1273 004a B7F90A10 		ldrsh	r1, [r7, #10]
 1274 004e F868     		ldr	r0, [r7, #12]
 1275 0050 FFF7FEFF 		bl	GFXwritePixel
 261:gfx.c         ****             GFXwritePixel(myGFX,x0  , y0-r, color);
 1276              		.loc 1 261 0
 1277 0054 3A89     		ldrh	r2, [r7, #8]
 1278 0056 FB88     		ldrh	r3, [r7, #6]
 1279 0058 D31A     		subs	r3, r2, r3
 1280 005a 9BB2     		uxth	r3, r3
 1281 005c 1AB2     		sxth	r2, r3
 1282 005e 3B8D     		ldrh	r3, [r7, #40]
 1283 0060 B7F90A10 		ldrsh	r1, [r7, #10]
 1284 0064 F868     		ldr	r0, [r7, #12]
 1285 0066 FFF7FEFF 		bl	GFXwritePixel
 262:gfx.c         ****             GFXwritePixel(myGFX,x0+r, y0  , color);
 1286              		.loc 1 262 0
 1287 006a 7A89     		ldrh	r2, [r7, #10]
 1288 006c FB88     		ldrh	r3, [r7, #6]
 1289 006e 1344     		add	r3, r3, r2
 1290 0070 9BB2     		uxth	r3, r3
 1291 0072 19B2     		sxth	r1, r3
 1292 0074 3B8D     		ldrh	r3, [r7, #40]
 1293 0076 B7F90820 		ldrsh	r2, [r7, #8]
 1294 007a F868     		ldr	r0, [r7, #12]
 1295 007c FFF7FEFF 		bl	GFXwritePixel
 263:gfx.c         ****             GFXwritePixel(myGFX,x0-r, y0  , color);
 1296              		.loc 1 263 0
 1297 0080 7A89     		ldrh	r2, [r7, #10]
 1298 0082 FB88     		ldrh	r3, [r7, #6]
 1299 0084 D31A     		subs	r3, r2, r3
 1300 0086 9BB2     		uxth	r3, r3
 1301 0088 19B2     		sxth	r1, r3
 1302 008a 3B8D     		ldrh	r3, [r7, #40]
 1303 008c B7F90820 		ldrsh	r2, [r7, #8]
 1304 0090 F868     		ldr	r0, [r7, #12]
 1305 0092 FFF7FEFF 		bl	GFXwritePixel
 264:gfx.c         ****             
 265:gfx.c         ****             while (x<y) {
 1306              		.loc 1 265 0
 1307 0096 91E0     		b	.L49
 1308              	.L51:
 266:gfx.c         ****                 if (f >= 0) {
 1309              		.loc 1 266 0
 1310 0098 B7F91E30 		ldrsh	r3, [r7, #30]
 1311 009c 002B     		cmp	r3, #0
 1312 009e 0EDB     		blt	.L50
 267:gfx.c         ****                     y--;
 1313              		.loc 1 267 0
 1314 00a0 B7F91630 		ldrsh	r3, [r7, #22]
 1315 00a4 9BB2     		uxth	r3, r3
 1316 00a6 013B     		subs	r3, r3, #1
 1317 00a8 9BB2     		uxth	r3, r3
 1318 00aa FB82     		strh	r3, [r7, #22]	@ movhi
 268:gfx.c         ****                     ddF_y += 2;
ARM GAS  C:\Users\JEFFSN~1\AppData\Local\Temp\ccogK82D.s 			page 29


 1319              		.loc 1 268 0
 1320 00ac 7B8B     		ldrh	r3, [r7, #26]
 1321 00ae 0233     		adds	r3, r3, #2
 1322 00b0 9BB2     		uxth	r3, r3
 1323 00b2 7B83     		strh	r3, [r7, #26]	@ movhi
 269:gfx.c         ****                     f += ddF_y;
 1324              		.loc 1 269 0
 1325 00b4 FA8B     		ldrh	r2, [r7, #30]
 1326 00b6 7B8B     		ldrh	r3, [r7, #26]
 1327 00b8 1344     		add	r3, r3, r2
 1328 00ba 9BB2     		uxth	r3, r3
 1329 00bc FB83     		strh	r3, [r7, #30]	@ movhi
 1330              	.L50:
 270:gfx.c         ****                 }
 271:gfx.c         ****                 x++;
 1331              		.loc 1 271 0
 1332 00be B7F91830 		ldrsh	r3, [r7, #24]
 1333 00c2 9BB2     		uxth	r3, r3
 1334 00c4 0133     		adds	r3, r3, #1
 1335 00c6 9BB2     		uxth	r3, r3
 1336 00c8 3B83     		strh	r3, [r7, #24]	@ movhi
 272:gfx.c         ****                 ddF_x += 2;
 1337              		.loc 1 272 0
 1338 00ca BB8B     		ldrh	r3, [r7, #28]
 1339 00cc 0233     		adds	r3, r3, #2
 1340 00ce 9BB2     		uxth	r3, r3
 1341 00d0 BB83     		strh	r3, [r7, #28]	@ movhi
 273:gfx.c         ****                 f += ddF_x;
 1342              		.loc 1 273 0
 1343 00d2 FA8B     		ldrh	r2, [r7, #30]
 1344 00d4 BB8B     		ldrh	r3, [r7, #28]
 1345 00d6 1344     		add	r3, r3, r2
 1346 00d8 9BB2     		uxth	r3, r3
 1347 00da FB83     		strh	r3, [r7, #30]	@ movhi
 274:gfx.c         ****                 
 275:gfx.c         ****                 GFXwritePixel(myGFX,x0 + x, y0 + y, color);
 1348              		.loc 1 275 0
 1349 00dc 7A89     		ldrh	r2, [r7, #10]
 1350 00de 3B8B     		ldrh	r3, [r7, #24]
 1351 00e0 1344     		add	r3, r3, r2
 1352 00e2 9BB2     		uxth	r3, r3
 1353 00e4 19B2     		sxth	r1, r3
 1354 00e6 3A89     		ldrh	r2, [r7, #8]
 1355 00e8 FB8A     		ldrh	r3, [r7, #22]
 1356 00ea 1344     		add	r3, r3, r2
 1357 00ec 9BB2     		uxth	r3, r3
 1358 00ee 1AB2     		sxth	r2, r3
 1359 00f0 3B8D     		ldrh	r3, [r7, #40]
 1360 00f2 F868     		ldr	r0, [r7, #12]
 1361 00f4 FFF7FEFF 		bl	GFXwritePixel
 276:gfx.c         ****                 GFXwritePixel(myGFX,x0 - x, y0 + y, color);
 1362              		.loc 1 276 0
 1363 00f8 7A89     		ldrh	r2, [r7, #10]
 1364 00fa 3B8B     		ldrh	r3, [r7, #24]
 1365 00fc D31A     		subs	r3, r2, r3
 1366 00fe 9BB2     		uxth	r3, r3
 1367 0100 19B2     		sxth	r1, r3
ARM GAS  C:\Users\JEFFSN~1\AppData\Local\Temp\ccogK82D.s 			page 30


 1368 0102 3A89     		ldrh	r2, [r7, #8]
 1369 0104 FB8A     		ldrh	r3, [r7, #22]
 1370 0106 1344     		add	r3, r3, r2
 1371 0108 9BB2     		uxth	r3, r3
 1372 010a 1AB2     		sxth	r2, r3
 1373 010c 3B8D     		ldrh	r3, [r7, #40]
 1374 010e F868     		ldr	r0, [r7, #12]
 1375 0110 FFF7FEFF 		bl	GFXwritePixel
 277:gfx.c         ****                 GFXwritePixel(myGFX,x0 + x, y0 - y, color);
 1376              		.loc 1 277 0
 1377 0114 7A89     		ldrh	r2, [r7, #10]
 1378 0116 3B8B     		ldrh	r3, [r7, #24]
 1379 0118 1344     		add	r3, r3, r2
 1380 011a 9BB2     		uxth	r3, r3
 1381 011c 19B2     		sxth	r1, r3
 1382 011e 3A89     		ldrh	r2, [r7, #8]
 1383 0120 FB8A     		ldrh	r3, [r7, #22]
 1384 0122 D31A     		subs	r3, r2, r3
 1385 0124 9BB2     		uxth	r3, r3
 1386 0126 1AB2     		sxth	r2, r3
 1387 0128 3B8D     		ldrh	r3, [r7, #40]
 1388 012a F868     		ldr	r0, [r7, #12]
 1389 012c FFF7FEFF 		bl	GFXwritePixel
 278:gfx.c         ****                 GFXwritePixel(myGFX,x0 - x, y0 - y, color);
 1390              		.loc 1 278 0
 1391 0130 7A89     		ldrh	r2, [r7, #10]
 1392 0132 3B8B     		ldrh	r3, [r7, #24]
 1393 0134 D31A     		subs	r3, r2, r3
 1394 0136 9BB2     		uxth	r3, r3
 1395 0138 19B2     		sxth	r1, r3
 1396 013a 3A89     		ldrh	r2, [r7, #8]
 1397 013c FB8A     		ldrh	r3, [r7, #22]
 1398 013e D31A     		subs	r3, r2, r3
 1399 0140 9BB2     		uxth	r3, r3
 1400 0142 1AB2     		sxth	r2, r3
 1401 0144 3B8D     		ldrh	r3, [r7, #40]
 1402 0146 F868     		ldr	r0, [r7, #12]
 1403 0148 FFF7FEFF 		bl	GFXwritePixel
 279:gfx.c         ****                 GFXwritePixel(myGFX,x0 + y, y0 + x, color);
 1404              		.loc 1 279 0
 1405 014c 7A89     		ldrh	r2, [r7, #10]
 1406 014e FB8A     		ldrh	r3, [r7, #22]
 1407 0150 1344     		add	r3, r3, r2
 1408 0152 9BB2     		uxth	r3, r3
 1409 0154 19B2     		sxth	r1, r3
 1410 0156 3A89     		ldrh	r2, [r7, #8]
 1411 0158 3B8B     		ldrh	r3, [r7, #24]
 1412 015a 1344     		add	r3, r3, r2
 1413 015c 9BB2     		uxth	r3, r3
 1414 015e 1AB2     		sxth	r2, r3
 1415 0160 3B8D     		ldrh	r3, [r7, #40]
 1416 0162 F868     		ldr	r0, [r7, #12]
 1417 0164 FFF7FEFF 		bl	GFXwritePixel
 280:gfx.c         ****                 GFXwritePixel(myGFX,x0 - y, y0 + x, color);
 1418              		.loc 1 280 0
 1419 0168 7A89     		ldrh	r2, [r7, #10]
 1420 016a FB8A     		ldrh	r3, [r7, #22]
ARM GAS  C:\Users\JEFFSN~1\AppData\Local\Temp\ccogK82D.s 			page 31


 1421 016c D31A     		subs	r3, r2, r3
 1422 016e 9BB2     		uxth	r3, r3
 1423 0170 19B2     		sxth	r1, r3
 1424 0172 3A89     		ldrh	r2, [r7, #8]
 1425 0174 3B8B     		ldrh	r3, [r7, #24]
 1426 0176 1344     		add	r3, r3, r2
 1427 0178 9BB2     		uxth	r3, r3
 1428 017a 1AB2     		sxth	r2, r3
 1429 017c 3B8D     		ldrh	r3, [r7, #40]
 1430 017e F868     		ldr	r0, [r7, #12]
 1431 0180 FFF7FEFF 		bl	GFXwritePixel
 281:gfx.c         ****                 GFXwritePixel(myGFX,x0 + y, y0 - x, color);
 1432              		.loc 1 281 0
 1433 0184 7A89     		ldrh	r2, [r7, #10]
 1434 0186 FB8A     		ldrh	r3, [r7, #22]
 1435 0188 1344     		add	r3, r3, r2
 1436 018a 9BB2     		uxth	r3, r3
 1437 018c 19B2     		sxth	r1, r3
 1438 018e 3A89     		ldrh	r2, [r7, #8]
 1439 0190 3B8B     		ldrh	r3, [r7, #24]
 1440 0192 D31A     		subs	r3, r2, r3
 1441 0194 9BB2     		uxth	r3, r3
 1442 0196 1AB2     		sxth	r2, r3
 1443 0198 3B8D     		ldrh	r3, [r7, #40]
 1444 019a F868     		ldr	r0, [r7, #12]
 1445 019c FFF7FEFF 		bl	GFXwritePixel
 282:gfx.c         ****                 GFXwritePixel(myGFX,x0 - y, y0 - x, color);
 1446              		.loc 1 282 0
 1447 01a0 7A89     		ldrh	r2, [r7, #10]
 1448 01a2 FB8A     		ldrh	r3, [r7, #22]
 1449 01a4 D31A     		subs	r3, r2, r3
 1450 01a6 9BB2     		uxth	r3, r3
 1451 01a8 19B2     		sxth	r1, r3
 1452 01aa 3A89     		ldrh	r2, [r7, #8]
 1453 01ac 3B8B     		ldrh	r3, [r7, #24]
 1454 01ae D31A     		subs	r3, r2, r3
 1455 01b0 9BB2     		uxth	r3, r3
 1456 01b2 1AB2     		sxth	r2, r3
 1457 01b4 3B8D     		ldrh	r3, [r7, #40]
 1458 01b6 F868     		ldr	r0, [r7, #12]
 1459 01b8 FFF7FEFF 		bl	GFXwritePixel
 1460              	.L49:
 265:gfx.c         ****                 if (f >= 0) {
 1461              		.loc 1 265 0
 1462 01bc B7F91820 		ldrsh	r2, [r7, #24]
 1463 01c0 B7F91630 		ldrsh	r3, [r7, #22]
 1464 01c4 9A42     		cmp	r2, r3
 1465 01c6 FFF667AF 		blt	.L51
 283:gfx.c         ****             }
 284:gfx.c         ****             
 285:gfx.c         ****         }
 1466              		.loc 1 285 0
 1467 01ca 00BF     		nop
 1468 01cc 2037     		adds	r7, r7, #32
 1469              		.cfi_def_cfa_offset 8
 1470 01ce BD46     		mov	sp, r7
 1471              		.cfi_def_cfa_register 13
ARM GAS  C:\Users\JEFFSN~1\AppData\Local\Temp\ccogK82D.s 			page 32


 1472              		@ sp needed
 1473 01d0 80BD     		pop	{r7, pc}
 1474              		.cfi_endproc
 1475              	.LFE78:
 1476              		.size	GFXdrawCircle, .-GFXdrawCircle
 1477 01d2 00BF     		.section	.text.GFXdrawCircleHelper,"ax",%progbits
 1478              		.align	2
 1479              		.global	GFXdrawCircleHelper
 1480              		.thumb
 1481              		.thumb_func
 1482              		.type	GFXdrawCircleHelper, %function
 1483              	GFXdrawCircleHelper:
 1484              	.LFB79:
 286:gfx.c         ****         
 287:gfx.c         ****         void GFXdrawCircleHelper(GFX* myGFX,int16_t x0, int16_t y0,
 288:gfx.c         ****                                  int16_t r, uint8_t cornername, uint16_t color) {
 1485              		.loc 1 288 0
 1486              		.cfi_startproc
 1487              		@ args = 8, pretend = 0, frame = 32
 1488              		@ frame_needed = 1, uses_anonymous_args = 0
 1489 0000 80B5     		push	{r7, lr}
 1490              		.cfi_def_cfa_offset 8
 1491              		.cfi_offset 7, -8
 1492              		.cfi_offset 14, -4
 1493 0002 88B0     		sub	sp, sp, #32
 1494              		.cfi_def_cfa_offset 40
 1495 0004 00AF     		add	r7, sp, #0
 1496              		.cfi_def_cfa_register 7
 1497 0006 F860     		str	r0, [r7, #12]
 1498 0008 0846     		mov	r0, r1
 1499 000a 1146     		mov	r1, r2
 1500 000c 1A46     		mov	r2, r3
 1501 000e 0346     		mov	r3, r0	@ movhi
 1502 0010 7B81     		strh	r3, [r7, #10]	@ movhi
 1503 0012 0B46     		mov	r3, r1	@ movhi
 1504 0014 3B81     		strh	r3, [r7, #8]	@ movhi
 1505 0016 1346     		mov	r3, r2	@ movhi
 1506 0018 FB80     		strh	r3, [r7, #6]	@ movhi
 289:gfx.c         ****             int16_t f     = 1 - r;
 1507              		.loc 1 289 0
 1508 001a FB88     		ldrh	r3, [r7, #6]
 1509 001c C3F10103 		rsb	r3, r3, #1
 1510 0020 9BB2     		uxth	r3, r3
 1511 0022 FB83     		strh	r3, [r7, #30]	@ movhi
 290:gfx.c         ****             int16_t ddF_x = 1;
 1512              		.loc 1 290 0
 1513 0024 0123     		movs	r3, #1
 1514 0026 BB83     		strh	r3, [r7, #28]	@ movhi
 291:gfx.c         ****             int16_t ddF_y = -2 * r;
 1515              		.loc 1 291 0
 1516 0028 FB88     		ldrh	r3, [r7, #6]
 1517 002a 1A46     		mov	r2, r3	@ movhi
 1518 002c D203     		lsls	r2, r2, #15
 1519 002e D31A     		subs	r3, r2, r3
 1520 0030 5B00     		lsls	r3, r3, #1
 1521 0032 9BB2     		uxth	r3, r3
 1522 0034 7B83     		strh	r3, [r7, #26]	@ movhi
ARM GAS  C:\Users\JEFFSN~1\AppData\Local\Temp\ccogK82D.s 			page 33


 292:gfx.c         ****             int16_t x     = 0;
 1523              		.loc 1 292 0
 1524 0036 0023     		movs	r3, #0
 1525 0038 3B83     		strh	r3, [r7, #24]	@ movhi
 293:gfx.c         ****             int16_t y     = r;
 1526              		.loc 1 293 0
 1527 003a FB88     		ldrh	r3, [r7, #6]	@ movhi
 1528 003c FB82     		strh	r3, [r7, #22]	@ movhi
 294:gfx.c         ****             
 295:gfx.c         ****             while (x<y) {
 1529              		.loc 1 295 0
 1530 003e A9E0     		b	.L53
 1531              	.L58:
 296:gfx.c         ****                 if (f >= 0) {
 1532              		.loc 1 296 0
 1533 0040 B7F91E30 		ldrsh	r3, [r7, #30]
 1534 0044 002B     		cmp	r3, #0
 1535 0046 0EDB     		blt	.L54
 297:gfx.c         ****                     y--;
 1536              		.loc 1 297 0
 1537 0048 B7F91630 		ldrsh	r3, [r7, #22]
 1538 004c 9BB2     		uxth	r3, r3
 1539 004e 013B     		subs	r3, r3, #1
 1540 0050 9BB2     		uxth	r3, r3
 1541 0052 FB82     		strh	r3, [r7, #22]	@ movhi
 298:gfx.c         ****                     ddF_y += 2;
 1542              		.loc 1 298 0
 1543 0054 7B8B     		ldrh	r3, [r7, #26]
 1544 0056 0233     		adds	r3, r3, #2
 1545 0058 9BB2     		uxth	r3, r3
 1546 005a 7B83     		strh	r3, [r7, #26]	@ movhi
 299:gfx.c         ****                     f     += ddF_y;
 1547              		.loc 1 299 0
 1548 005c FA8B     		ldrh	r2, [r7, #30]
 1549 005e 7B8B     		ldrh	r3, [r7, #26]
 1550 0060 1344     		add	r3, r3, r2
 1551 0062 9BB2     		uxth	r3, r3
 1552 0064 FB83     		strh	r3, [r7, #30]	@ movhi
 1553              	.L54:
 300:gfx.c         ****                 }
 301:gfx.c         ****                 x++;
 1554              		.loc 1 301 0
 1555 0066 B7F91830 		ldrsh	r3, [r7, #24]
 1556 006a 9BB2     		uxth	r3, r3
 1557 006c 0133     		adds	r3, r3, #1
 1558 006e 9BB2     		uxth	r3, r3
 1559 0070 3B83     		strh	r3, [r7, #24]	@ movhi
 302:gfx.c         ****                 ddF_x += 2;
 1560              		.loc 1 302 0
 1561 0072 BB8B     		ldrh	r3, [r7, #28]
 1562 0074 0233     		adds	r3, r3, #2
 1563 0076 9BB2     		uxth	r3, r3
 1564 0078 BB83     		strh	r3, [r7, #28]	@ movhi
 303:gfx.c         ****                 f     += ddF_x;
 1565              		.loc 1 303 0
 1566 007a FA8B     		ldrh	r2, [r7, #30]
 1567 007c BB8B     		ldrh	r3, [r7, #28]
ARM GAS  C:\Users\JEFFSN~1\AppData\Local\Temp\ccogK82D.s 			page 34


 1568 007e 1344     		add	r3, r3, r2
 1569 0080 9BB2     		uxth	r3, r3
 1570 0082 FB83     		strh	r3, [r7, #30]	@ movhi
 304:gfx.c         ****                 if (cornername & 0x4) {
 1571              		.loc 1 304 0
 1572 0084 97F82830 		ldrb	r3, [r7, #40]	@ zero_extendqisi2
 1573 0088 03F00403 		and	r3, r3, #4
 1574 008c 002B     		cmp	r3, #0
 1575 008e 1BD0     		beq	.L55
 305:gfx.c         ****                     GFXwritePixel(myGFX, x0 + x, y0 + y, color);
 1576              		.loc 1 305 0
 1577 0090 7A89     		ldrh	r2, [r7, #10]
 1578 0092 3B8B     		ldrh	r3, [r7, #24]
 1579 0094 1344     		add	r3, r3, r2
 1580 0096 9BB2     		uxth	r3, r3
 1581 0098 19B2     		sxth	r1, r3
 1582 009a 3A89     		ldrh	r2, [r7, #8]
 1583 009c FB8A     		ldrh	r3, [r7, #22]
 1584 009e 1344     		add	r3, r3, r2
 1585 00a0 9BB2     		uxth	r3, r3
 1586 00a2 1AB2     		sxth	r2, r3
 1587 00a4 BB8D     		ldrh	r3, [r7, #44]
 1588 00a6 F868     		ldr	r0, [r7, #12]
 1589 00a8 FFF7FEFF 		bl	GFXwritePixel
 306:gfx.c         ****                     GFXwritePixel(myGFX, x0 + y, y0 + x, color);
 1590              		.loc 1 306 0
 1591 00ac 7A89     		ldrh	r2, [r7, #10]
 1592 00ae FB8A     		ldrh	r3, [r7, #22]
 1593 00b0 1344     		add	r3, r3, r2
 1594 00b2 9BB2     		uxth	r3, r3
 1595 00b4 19B2     		sxth	r1, r3
 1596 00b6 3A89     		ldrh	r2, [r7, #8]
 1597 00b8 3B8B     		ldrh	r3, [r7, #24]
 1598 00ba 1344     		add	r3, r3, r2
 1599 00bc 9BB2     		uxth	r3, r3
 1600 00be 1AB2     		sxth	r2, r3
 1601 00c0 BB8D     		ldrh	r3, [r7, #44]
 1602 00c2 F868     		ldr	r0, [r7, #12]
 1603 00c4 FFF7FEFF 		bl	GFXwritePixel
 1604              	.L55:
 307:gfx.c         ****                 }
 308:gfx.c         ****                 if (cornername & 0x2) {
 1605              		.loc 1 308 0
 1606 00c8 97F82830 		ldrb	r3, [r7, #40]	@ zero_extendqisi2
 1607 00cc 03F00203 		and	r3, r3, #2
 1608 00d0 002B     		cmp	r3, #0
 1609 00d2 1BD0     		beq	.L56
 309:gfx.c         ****                     GFXwritePixel(myGFX, x0 + x, y0 - y, color);
 1610              		.loc 1 309 0
 1611 00d4 7A89     		ldrh	r2, [r7, #10]
 1612 00d6 3B8B     		ldrh	r3, [r7, #24]
 1613 00d8 1344     		add	r3, r3, r2
 1614 00da 9BB2     		uxth	r3, r3
 1615 00dc 19B2     		sxth	r1, r3
 1616 00de 3A89     		ldrh	r2, [r7, #8]
 1617 00e0 FB8A     		ldrh	r3, [r7, #22]
 1618 00e2 D31A     		subs	r3, r2, r3
ARM GAS  C:\Users\JEFFSN~1\AppData\Local\Temp\ccogK82D.s 			page 35


 1619 00e4 9BB2     		uxth	r3, r3
 1620 00e6 1AB2     		sxth	r2, r3
 1621 00e8 BB8D     		ldrh	r3, [r7, #44]
 1622 00ea F868     		ldr	r0, [r7, #12]
 1623 00ec FFF7FEFF 		bl	GFXwritePixel
 310:gfx.c         ****                     GFXwritePixel(myGFX, x0 + y, y0 - x, color);
 1624              		.loc 1 310 0
 1625 00f0 7A89     		ldrh	r2, [r7, #10]
 1626 00f2 FB8A     		ldrh	r3, [r7, #22]
 1627 00f4 1344     		add	r3, r3, r2
 1628 00f6 9BB2     		uxth	r3, r3
 1629 00f8 19B2     		sxth	r1, r3
 1630 00fa 3A89     		ldrh	r2, [r7, #8]
 1631 00fc 3B8B     		ldrh	r3, [r7, #24]
 1632 00fe D31A     		subs	r3, r2, r3
 1633 0100 9BB2     		uxth	r3, r3
 1634 0102 1AB2     		sxth	r2, r3
 1635 0104 BB8D     		ldrh	r3, [r7, #44]
 1636 0106 F868     		ldr	r0, [r7, #12]
 1637 0108 FFF7FEFF 		bl	GFXwritePixel
 1638              	.L56:
 311:gfx.c         ****                 }
 312:gfx.c         ****                 if (cornername & 0x8) {
 1639              		.loc 1 312 0
 1640 010c 97F82830 		ldrb	r3, [r7, #40]	@ zero_extendqisi2
 1641 0110 03F00803 		and	r3, r3, #8
 1642 0114 002B     		cmp	r3, #0
 1643 0116 1BD0     		beq	.L57
 313:gfx.c         ****                     GFXwritePixel(myGFX, x0 - y, y0 + x, color);
 1644              		.loc 1 313 0
 1645 0118 7A89     		ldrh	r2, [r7, #10]
 1646 011a FB8A     		ldrh	r3, [r7, #22]
 1647 011c D31A     		subs	r3, r2, r3
 1648 011e 9BB2     		uxth	r3, r3
 1649 0120 19B2     		sxth	r1, r3
 1650 0122 3A89     		ldrh	r2, [r7, #8]
 1651 0124 3B8B     		ldrh	r3, [r7, #24]
 1652 0126 1344     		add	r3, r3, r2
 1653 0128 9BB2     		uxth	r3, r3
 1654 012a 1AB2     		sxth	r2, r3
 1655 012c BB8D     		ldrh	r3, [r7, #44]
 1656 012e F868     		ldr	r0, [r7, #12]
 1657 0130 FFF7FEFF 		bl	GFXwritePixel
 314:gfx.c         ****                     GFXwritePixel(myGFX, x0 - x, y0 + y, color);
 1658              		.loc 1 314 0
 1659 0134 7A89     		ldrh	r2, [r7, #10]
 1660 0136 3B8B     		ldrh	r3, [r7, #24]
 1661 0138 D31A     		subs	r3, r2, r3
 1662 013a 9BB2     		uxth	r3, r3
 1663 013c 19B2     		sxth	r1, r3
 1664 013e 3A89     		ldrh	r2, [r7, #8]
 1665 0140 FB8A     		ldrh	r3, [r7, #22]
 1666 0142 1344     		add	r3, r3, r2
 1667 0144 9BB2     		uxth	r3, r3
 1668 0146 1AB2     		sxth	r2, r3
 1669 0148 BB8D     		ldrh	r3, [r7, #44]
 1670 014a F868     		ldr	r0, [r7, #12]
ARM GAS  C:\Users\JEFFSN~1\AppData\Local\Temp\ccogK82D.s 			page 36


 1671 014c FFF7FEFF 		bl	GFXwritePixel
 1672              	.L57:
 315:gfx.c         ****                 }
 316:gfx.c         ****                 if (cornername & 0x1) {
 1673              		.loc 1 316 0
 1674 0150 97F82830 		ldrb	r3, [r7, #40]	@ zero_extendqisi2
 1675 0154 03F00103 		and	r3, r3, #1
 1676 0158 002B     		cmp	r3, #0
 1677 015a 1BD0     		beq	.L53
 317:gfx.c         ****                     GFXwritePixel(myGFX, x0 - y, y0 - x, color);
 1678              		.loc 1 317 0
 1679 015c 7A89     		ldrh	r2, [r7, #10]
 1680 015e FB8A     		ldrh	r3, [r7, #22]
 1681 0160 D31A     		subs	r3, r2, r3
 1682 0162 9BB2     		uxth	r3, r3
 1683 0164 19B2     		sxth	r1, r3
 1684 0166 3A89     		ldrh	r2, [r7, #8]
 1685 0168 3B8B     		ldrh	r3, [r7, #24]
 1686 016a D31A     		subs	r3, r2, r3
 1687 016c 9BB2     		uxth	r3, r3
 1688 016e 1AB2     		sxth	r2, r3
 1689 0170 BB8D     		ldrh	r3, [r7, #44]
 1690 0172 F868     		ldr	r0, [r7, #12]
 1691 0174 FFF7FEFF 		bl	GFXwritePixel
 318:gfx.c         ****                     GFXwritePixel(myGFX, x0 - x, y0 - y, color);
 1692              		.loc 1 318 0
 1693 0178 7A89     		ldrh	r2, [r7, #10]
 1694 017a 3B8B     		ldrh	r3, [r7, #24]
 1695 017c D31A     		subs	r3, r2, r3
 1696 017e 9BB2     		uxth	r3, r3
 1697 0180 19B2     		sxth	r1, r3
 1698 0182 3A89     		ldrh	r2, [r7, #8]
 1699 0184 FB8A     		ldrh	r3, [r7, #22]
 1700 0186 D31A     		subs	r3, r2, r3
 1701 0188 9BB2     		uxth	r3, r3
 1702 018a 1AB2     		sxth	r2, r3
 1703 018c BB8D     		ldrh	r3, [r7, #44]
 1704 018e F868     		ldr	r0, [r7, #12]
 1705 0190 FFF7FEFF 		bl	GFXwritePixel
 1706              	.L53:
 295:gfx.c         ****                 if (f >= 0) {
 1707              		.loc 1 295 0
 1708 0194 B7F91820 		ldrsh	r2, [r7, #24]
 1709 0198 B7F91630 		ldrsh	r3, [r7, #22]
 1710 019c 9A42     		cmp	r2, r3
 1711 019e FFF64FAF 		blt	.L58
 319:gfx.c         ****                 }
 320:gfx.c         ****             }
 321:gfx.c         ****         }
 1712              		.loc 1 321 0
 1713 01a2 00BF     		nop
 1714 01a4 2037     		adds	r7, r7, #32
 1715              		.cfi_def_cfa_offset 8
 1716 01a6 BD46     		mov	sp, r7
 1717              		.cfi_def_cfa_register 13
 1718              		@ sp needed
 1719 01a8 80BD     		pop	{r7, pc}
ARM GAS  C:\Users\JEFFSN~1\AppData\Local\Temp\ccogK82D.s 			page 37


 1720              		.cfi_endproc
 1721              	.LFE79:
 1722              		.size	GFXdrawCircleHelper, .-GFXdrawCircleHelper
 1723 01aa 00BF     		.section	.text.GFXfillCircle,"ax",%progbits
 1724              		.align	2
 1725              		.global	GFXfillCircle
 1726              		.thumb
 1727              		.thumb_func
 1728              		.type	GFXfillCircle, %function
 1729              	GFXfillCircle:
 1730              	.LFB80:
 322:gfx.c         ****         
 323:gfx.c         ****         void GFXfillCircle(GFX* myGFX, int16_t x0, int16_t y0, int16_t r,
 324:gfx.c         ****                            uint16_t color) {
 1731              		.loc 1 324 0
 1732              		.cfi_startproc
 1733              		@ args = 4, pretend = 0, frame = 16
 1734              		@ frame_needed = 1, uses_anonymous_args = 0
 1735 0000 80B5     		push	{r7, lr}
 1736              		.cfi_def_cfa_offset 8
 1737              		.cfi_offset 7, -8
 1738              		.cfi_offset 14, -4
 1739 0002 88B0     		sub	sp, sp, #32
 1740              		.cfi_def_cfa_offset 40
 1741 0004 04AF     		add	r7, sp, #16
 1742              		.cfi_def_cfa 7, 24
 1743 0006 F860     		str	r0, [r7, #12]
 1744 0008 0846     		mov	r0, r1
 1745 000a 1146     		mov	r1, r2
 1746 000c 1A46     		mov	r2, r3
 1747 000e 0346     		mov	r3, r0	@ movhi
 1748 0010 7B81     		strh	r3, [r7, #10]	@ movhi
 1749 0012 0B46     		mov	r3, r1	@ movhi
 1750 0014 3B81     		strh	r3, [r7, #8]	@ movhi
 1751 0016 1346     		mov	r3, r2	@ movhi
 1752 0018 FB80     		strh	r3, [r7, #6]	@ movhi
 325:gfx.c         ****             
 326:gfx.c         ****             GFXwriteFastVLine(myGFX, x0, y0-r, 2*r+1, color);
 1753              		.loc 1 326 0
 1754 001a 3A89     		ldrh	r2, [r7, #8]
 1755 001c FB88     		ldrh	r3, [r7, #6]
 1756 001e D31A     		subs	r3, r2, r3
 1757 0020 9BB2     		uxth	r3, r3
 1758 0022 1AB2     		sxth	r2, r3
 1759 0024 FB88     		ldrh	r3, [r7, #6]
 1760 0026 5B00     		lsls	r3, r3, #1
 1761 0028 9BB2     		uxth	r3, r3
 1762 002a 0133     		adds	r3, r3, #1
 1763 002c 9BB2     		uxth	r3, r3
 1764 002e 18B2     		sxth	r0, r3
 1765 0030 B7F90A10 		ldrsh	r1, [r7, #10]
 1766 0034 3B8B     		ldrh	r3, [r7, #24]
 1767 0036 0093     		str	r3, [sp]
 1768 0038 0346     		mov	r3, r0
 1769 003a F868     		ldr	r0, [r7, #12]
 1770 003c FFF7FEFF 		bl	GFXwriteFastVLine
 327:gfx.c         ****             GFXfillCircleHelper(myGFX, x0, y0, r, 3, 0, color);
ARM GAS  C:\Users\JEFFSN~1\AppData\Local\Temp\ccogK82D.s 			page 38


 1771              		.loc 1 327 0
 1772 0040 B7F90600 		ldrsh	r0, [r7, #6]
 1773 0044 B7F90820 		ldrsh	r2, [r7, #8]
 1774 0048 B7F90A10 		ldrsh	r1, [r7, #10]
 1775 004c 3B8B     		ldrh	r3, [r7, #24]
 1776 004e 0293     		str	r3, [sp, #8]
 1777 0050 0023     		movs	r3, #0
 1778 0052 0193     		str	r3, [sp, #4]
 1779 0054 0323     		movs	r3, #3
 1780 0056 0093     		str	r3, [sp]
 1781 0058 0346     		mov	r3, r0
 1782 005a F868     		ldr	r0, [r7, #12]
 1783 005c FFF7FEFF 		bl	GFXfillCircleHelper
 328:gfx.c         ****             
 329:gfx.c         ****         }
 1784              		.loc 1 329 0
 1785 0060 00BF     		nop
 1786 0062 1037     		adds	r7, r7, #16
 1787              		.cfi_def_cfa_offset 8
 1788 0064 BD46     		mov	sp, r7
 1789              		.cfi_def_cfa_register 13
 1790              		@ sp needed
 1791 0066 80BD     		pop	{r7, pc}
 1792              		.cfi_endproc
 1793              	.LFE80:
 1794              		.size	GFXfillCircle, .-GFXfillCircle
 1795              		.section	.text.GFXfillCircleHelper,"ax",%progbits
 1796              		.align	2
 1797              		.global	GFXfillCircleHelper
 1798              		.thumb
 1799              		.thumb_func
 1800              		.type	GFXfillCircleHelper, %function
 1801              	GFXfillCircleHelper:
 1802              	.LFB81:
 330:gfx.c         ****         
 331:gfx.c         ****         // Used to do circles and roundrects
 332:gfx.c         ****         void GFXfillCircleHelper(GFX* myGFX, int16_t x0, int16_t y0, int16_t r,
 333:gfx.c         ****                                  uint8_t cornername, int16_t delta, uint16_t color) {
 1803              		.loc 1 333 0
 1804              		.cfi_startproc
 1805              		@ args = 12, pretend = 0, frame = 32
 1806              		@ frame_needed = 1, uses_anonymous_args = 0
 1807 0000 80B5     		push	{r7, lr}
 1808              		.cfi_def_cfa_offset 8
 1809              		.cfi_offset 7, -8
 1810              		.cfi_offset 14, -4
 1811 0002 8AB0     		sub	sp, sp, #40
 1812              		.cfi_def_cfa_offset 48
 1813 0004 02AF     		add	r7, sp, #8
 1814              		.cfi_def_cfa 7, 40
 1815 0006 F860     		str	r0, [r7, #12]
 1816 0008 0846     		mov	r0, r1
 1817 000a 1146     		mov	r1, r2
 1818 000c 1A46     		mov	r2, r3
 1819 000e 0346     		mov	r3, r0	@ movhi
 1820 0010 7B81     		strh	r3, [r7, #10]	@ movhi
 1821 0012 0B46     		mov	r3, r1	@ movhi
ARM GAS  C:\Users\JEFFSN~1\AppData\Local\Temp\ccogK82D.s 			page 39


 1822 0014 3B81     		strh	r3, [r7, #8]	@ movhi
 1823 0016 1346     		mov	r3, r2	@ movhi
 1824 0018 FB80     		strh	r3, [r7, #6]	@ movhi
 334:gfx.c         ****             
 335:gfx.c         ****             int16_t f     = 1 - r;
 1825              		.loc 1 335 0
 1826 001a FB88     		ldrh	r3, [r7, #6]
 1827 001c C3F10103 		rsb	r3, r3, #1
 1828 0020 9BB2     		uxth	r3, r3
 1829 0022 FB83     		strh	r3, [r7, #30]	@ movhi
 336:gfx.c         ****             int16_t ddF_x = 1;
 1830              		.loc 1 336 0
 1831 0024 0123     		movs	r3, #1
 1832 0026 BB83     		strh	r3, [r7, #28]	@ movhi
 337:gfx.c         ****             int16_t ddF_y = -2 * r;
 1833              		.loc 1 337 0
 1834 0028 FB88     		ldrh	r3, [r7, #6]
 1835 002a 1A46     		mov	r2, r3	@ movhi
 1836 002c D203     		lsls	r2, r2, #15
 1837 002e D31A     		subs	r3, r2, r3
 1838 0030 5B00     		lsls	r3, r3, #1
 1839 0032 9BB2     		uxth	r3, r3
 1840 0034 7B83     		strh	r3, [r7, #26]	@ movhi
 338:gfx.c         ****             int16_t x     = 0;
 1841              		.loc 1 338 0
 1842 0036 0023     		movs	r3, #0
 1843 0038 3B83     		strh	r3, [r7, #24]	@ movhi
 339:gfx.c         ****             int16_t y     = r;
 1844              		.loc 1 339 0
 1845 003a FB88     		ldrh	r3, [r7, #6]	@ movhi
 1846 003c FB82     		strh	r3, [r7, #22]	@ movhi
 340:gfx.c         ****             
 341:gfx.c         ****             while (x<y) {
 1847              		.loc 1 341 0
 1848 003e 95E0     		b	.L61
 1849              	.L64:
 342:gfx.c         ****                 if (f >= 0) {
 1850              		.loc 1 342 0
 1851 0040 B7F91E30 		ldrsh	r3, [r7, #30]
 1852 0044 002B     		cmp	r3, #0
 1853 0046 0EDB     		blt	.L62
 343:gfx.c         ****                     y--;
 1854              		.loc 1 343 0
 1855 0048 B7F91630 		ldrsh	r3, [r7, #22]
 1856 004c 9BB2     		uxth	r3, r3
 1857 004e 013B     		subs	r3, r3, #1
 1858 0050 9BB2     		uxth	r3, r3
 1859 0052 FB82     		strh	r3, [r7, #22]	@ movhi
 344:gfx.c         ****                     ddF_y += 2;
 1860              		.loc 1 344 0
 1861 0054 7B8B     		ldrh	r3, [r7, #26]
 1862 0056 0233     		adds	r3, r3, #2
 1863 0058 9BB2     		uxth	r3, r3
 1864 005a 7B83     		strh	r3, [r7, #26]	@ movhi
 345:gfx.c         ****                     f     += ddF_y;
 1865              		.loc 1 345 0
 1866 005c FA8B     		ldrh	r2, [r7, #30]
ARM GAS  C:\Users\JEFFSN~1\AppData\Local\Temp\ccogK82D.s 			page 40


 1867 005e 7B8B     		ldrh	r3, [r7, #26]
 1868 0060 1344     		add	r3, r3, r2
 1869 0062 9BB2     		uxth	r3, r3
 1870 0064 FB83     		strh	r3, [r7, #30]	@ movhi
 1871              	.L62:
 346:gfx.c         ****                 }
 347:gfx.c         ****                 x++;
 1872              		.loc 1 347 0
 1873 0066 B7F91830 		ldrsh	r3, [r7, #24]
 1874 006a 9BB2     		uxth	r3, r3
 1875 006c 0133     		adds	r3, r3, #1
 1876 006e 9BB2     		uxth	r3, r3
 1877 0070 3B83     		strh	r3, [r7, #24]	@ movhi
 348:gfx.c         ****                 ddF_x += 2;
 1878              		.loc 1 348 0
 1879 0072 BB8B     		ldrh	r3, [r7, #28]
 1880 0074 0233     		adds	r3, r3, #2
 1881 0076 9BB2     		uxth	r3, r3
 1882 0078 BB83     		strh	r3, [r7, #28]	@ movhi
 349:gfx.c         ****                 f     += ddF_x;
 1883              		.loc 1 349 0
 1884 007a FA8B     		ldrh	r2, [r7, #30]
 1885 007c BB8B     		ldrh	r3, [r7, #28]
 1886 007e 1344     		add	r3, r3, r2
 1887 0080 9BB2     		uxth	r3, r3
 1888 0082 FB83     		strh	r3, [r7, #30]	@ movhi
 350:gfx.c         ****                 
 351:gfx.c         ****                 if (cornername & 0x1) {
 1889              		.loc 1 351 0
 1890 0084 97F82830 		ldrb	r3, [r7, #40]	@ zero_extendqisi2
 1891 0088 03F00103 		and	r3, r3, #1
 1892 008c 002B     		cmp	r3, #0
 1893 008e 33D0     		beq	.L63
 352:gfx.c         ****                     GFXwriteFastVLine(myGFX, x0+x, y0-y, 2*y+1+delta, color);
 1894              		.loc 1 352 0
 1895 0090 7A89     		ldrh	r2, [r7, #10]
 1896 0092 3B8B     		ldrh	r3, [r7, #24]
 1897 0094 1344     		add	r3, r3, r2
 1898 0096 9BB2     		uxth	r3, r3
 1899 0098 19B2     		sxth	r1, r3
 1900 009a 3A89     		ldrh	r2, [r7, #8]
 1901 009c FB8A     		ldrh	r3, [r7, #22]
 1902 009e D31A     		subs	r3, r2, r3
 1903 00a0 9BB2     		uxth	r3, r3
 1904 00a2 18B2     		sxth	r0, r3
 1905 00a4 FB8A     		ldrh	r3, [r7, #22]
 1906 00a6 5B00     		lsls	r3, r3, #1
 1907 00a8 9AB2     		uxth	r2, r3
 1908 00aa BB8D     		ldrh	r3, [r7, #44]
 1909 00ac 1344     		add	r3, r3, r2
 1910 00ae 9BB2     		uxth	r3, r3
 1911 00b0 0133     		adds	r3, r3, #1
 1912 00b2 9BB2     		uxth	r3, r3
 1913 00b4 1AB2     		sxth	r2, r3
 1914 00b6 3B8E     		ldrh	r3, [r7, #48]
 1915 00b8 0093     		str	r3, [sp]
 1916 00ba 1346     		mov	r3, r2
ARM GAS  C:\Users\JEFFSN~1\AppData\Local\Temp\ccogK82D.s 			page 41


 1917 00bc 0246     		mov	r2, r0
 1918 00be F868     		ldr	r0, [r7, #12]
 1919 00c0 FFF7FEFF 		bl	GFXwriteFastVLine
 353:gfx.c         ****                     GFXwriteFastVLine(myGFX, x0+y, y0-x, 2*x+1+delta, color);
 1920              		.loc 1 353 0
 1921 00c4 7A89     		ldrh	r2, [r7, #10]
 1922 00c6 FB8A     		ldrh	r3, [r7, #22]
 1923 00c8 1344     		add	r3, r3, r2
 1924 00ca 9BB2     		uxth	r3, r3
 1925 00cc 19B2     		sxth	r1, r3
 1926 00ce 3A89     		ldrh	r2, [r7, #8]
 1927 00d0 3B8B     		ldrh	r3, [r7, #24]
 1928 00d2 D31A     		subs	r3, r2, r3
 1929 00d4 9BB2     		uxth	r3, r3
 1930 00d6 18B2     		sxth	r0, r3
 1931 00d8 3B8B     		ldrh	r3, [r7, #24]
 1932 00da 5B00     		lsls	r3, r3, #1
 1933 00dc 9AB2     		uxth	r2, r3
 1934 00de BB8D     		ldrh	r3, [r7, #44]
 1935 00e0 1344     		add	r3, r3, r2
 1936 00e2 9BB2     		uxth	r3, r3
 1937 00e4 0133     		adds	r3, r3, #1
 1938 00e6 9BB2     		uxth	r3, r3
 1939 00e8 1AB2     		sxth	r2, r3
 1940 00ea 3B8E     		ldrh	r3, [r7, #48]
 1941 00ec 0093     		str	r3, [sp]
 1942 00ee 1346     		mov	r3, r2
 1943 00f0 0246     		mov	r2, r0
 1944 00f2 F868     		ldr	r0, [r7, #12]
 1945 00f4 FFF7FEFF 		bl	GFXwriteFastVLine
 1946              	.L63:
 354:gfx.c         ****                 }
 355:gfx.c         ****                 if (cornername & 0x2) {
 1947              		.loc 1 355 0
 1948 00f8 97F82830 		ldrb	r3, [r7, #40]	@ zero_extendqisi2
 1949 00fc 03F00203 		and	r3, r3, #2
 1950 0100 002B     		cmp	r3, #0
 1951 0102 33D0     		beq	.L61
 356:gfx.c         ****                     GFXwriteFastVLine(myGFX, x0-x, y0-y, 2*y+1+delta, color);
 1952              		.loc 1 356 0
 1953 0104 7A89     		ldrh	r2, [r7, #10]
 1954 0106 3B8B     		ldrh	r3, [r7, #24]
 1955 0108 D31A     		subs	r3, r2, r3
 1956 010a 9BB2     		uxth	r3, r3
 1957 010c 19B2     		sxth	r1, r3
 1958 010e 3A89     		ldrh	r2, [r7, #8]
 1959 0110 FB8A     		ldrh	r3, [r7, #22]
 1960 0112 D31A     		subs	r3, r2, r3
 1961 0114 9BB2     		uxth	r3, r3
 1962 0116 18B2     		sxth	r0, r3
 1963 0118 FB8A     		ldrh	r3, [r7, #22]
 1964 011a 5B00     		lsls	r3, r3, #1
 1965 011c 9AB2     		uxth	r2, r3
 1966 011e BB8D     		ldrh	r3, [r7, #44]
 1967 0120 1344     		add	r3, r3, r2
 1968 0122 9BB2     		uxth	r3, r3
 1969 0124 0133     		adds	r3, r3, #1
ARM GAS  C:\Users\JEFFSN~1\AppData\Local\Temp\ccogK82D.s 			page 42


 1970 0126 9BB2     		uxth	r3, r3
 1971 0128 1AB2     		sxth	r2, r3
 1972 012a 3B8E     		ldrh	r3, [r7, #48]
 1973 012c 0093     		str	r3, [sp]
 1974 012e 1346     		mov	r3, r2
 1975 0130 0246     		mov	r2, r0
 1976 0132 F868     		ldr	r0, [r7, #12]
 1977 0134 FFF7FEFF 		bl	GFXwriteFastVLine
 357:gfx.c         ****                     GFXwriteFastVLine(myGFX, x0-y, y0-x, 2*x+1+delta, color);
 1978              		.loc 1 357 0
 1979 0138 7A89     		ldrh	r2, [r7, #10]
 1980 013a FB8A     		ldrh	r3, [r7, #22]
 1981 013c D31A     		subs	r3, r2, r3
 1982 013e 9BB2     		uxth	r3, r3
 1983 0140 19B2     		sxth	r1, r3
 1984 0142 3A89     		ldrh	r2, [r7, #8]
 1985 0144 3B8B     		ldrh	r3, [r7, #24]
 1986 0146 D31A     		subs	r3, r2, r3
 1987 0148 9BB2     		uxth	r3, r3
 1988 014a 18B2     		sxth	r0, r3
 1989 014c 3B8B     		ldrh	r3, [r7, #24]
 1990 014e 5B00     		lsls	r3, r3, #1
 1991 0150 9AB2     		uxth	r2, r3
 1992 0152 BB8D     		ldrh	r3, [r7, #44]
 1993 0154 1344     		add	r3, r3, r2
 1994 0156 9BB2     		uxth	r3, r3
 1995 0158 0133     		adds	r3, r3, #1
 1996 015a 9BB2     		uxth	r3, r3
 1997 015c 1AB2     		sxth	r2, r3
 1998 015e 3B8E     		ldrh	r3, [r7, #48]
 1999 0160 0093     		str	r3, [sp]
 2000 0162 1346     		mov	r3, r2
 2001 0164 0246     		mov	r2, r0
 2002 0166 F868     		ldr	r0, [r7, #12]
 2003 0168 FFF7FEFF 		bl	GFXwriteFastVLine
 2004              	.L61:
 341:gfx.c         ****                 if (f >= 0) {
 2005              		.loc 1 341 0
 2006 016c B7F91820 		ldrsh	r2, [r7, #24]
 2007 0170 B7F91630 		ldrsh	r3, [r7, #22]
 2008 0174 9A42     		cmp	r2, r3
 2009 0176 FFF663AF 		blt	.L64
 358:gfx.c         ****                 }
 359:gfx.c         ****             }
 360:gfx.c         ****         }
 2010              		.loc 1 360 0
 2011 017a 00BF     		nop
 2012 017c 2037     		adds	r7, r7, #32
 2013              		.cfi_def_cfa_offset 8
 2014 017e BD46     		mov	sp, r7
 2015              		.cfi_def_cfa_register 13
 2016              		@ sp needed
 2017 0180 80BD     		pop	{r7, pc}
 2018              		.cfi_endproc
 2019              	.LFE81:
 2020              		.size	GFXfillCircleHelper, .-GFXfillCircleHelper
 2021 0182 00BF     		.section	.text.GFXdrawRect,"ax",%progbits
ARM GAS  C:\Users\JEFFSN~1\AppData\Local\Temp\ccogK82D.s 			page 43


 2022              		.align	2
 2023              		.global	GFXdrawRect
 2024              		.thumb
 2025              		.thumb_func
 2026              		.type	GFXdrawRect, %function
 2027              	GFXdrawRect:
 2028              	.LFB82:
 361:gfx.c         ****         
 362:gfx.c         ****         // Draw a rectangle
 363:gfx.c         ****         void GFXdrawRect(GFX* myGFX, int16_t x, int16_t y, int16_t w, int16_t h,
 364:gfx.c         ****                          uint16_t color) {
 2029              		.loc 1 364 0
 2030              		.cfi_startproc
 2031              		@ args = 8, pretend = 0, frame = 16
 2032              		@ frame_needed = 1, uses_anonymous_args = 0
 2033 0000 80B5     		push	{r7, lr}
 2034              		.cfi_def_cfa_offset 8
 2035              		.cfi_offset 7, -8
 2036              		.cfi_offset 14, -4
 2037 0002 86B0     		sub	sp, sp, #24
 2038              		.cfi_def_cfa_offset 32
 2039 0004 02AF     		add	r7, sp, #8
 2040              		.cfi_def_cfa 7, 24
 2041 0006 F860     		str	r0, [r7, #12]
 2042 0008 0846     		mov	r0, r1
 2043 000a 1146     		mov	r1, r2
 2044 000c 1A46     		mov	r2, r3
 2045 000e 0346     		mov	r3, r0	@ movhi
 2046 0010 7B81     		strh	r3, [r7, #10]	@ movhi
 2047 0012 0B46     		mov	r3, r1	@ movhi
 2048 0014 3B81     		strh	r3, [r7, #8]	@ movhi
 2049 0016 1346     		mov	r3, r2	@ movhi
 2050 0018 FB80     		strh	r3, [r7, #6]	@ movhi
 365:gfx.c         ****             
 366:gfx.c         ****             GFXwriteFastHLine(myGFX, x, y, w, color);
 2051              		.loc 1 366 0
 2052 001a B7F90600 		ldrsh	r0, [r7, #6]
 2053 001e B7F90820 		ldrsh	r2, [r7, #8]
 2054 0022 B7F90A10 		ldrsh	r1, [r7, #10]
 2055 0026 BB8B     		ldrh	r3, [r7, #28]
 2056 0028 0093     		str	r3, [sp]
 2057 002a 0346     		mov	r3, r0
 2058 002c F868     		ldr	r0, [r7, #12]
 2059 002e FFF7FEFF 		bl	GFXwriteFastHLine
 367:gfx.c         ****             GFXwriteFastHLine(myGFX, x, y+h-1, w, color);
 2060              		.loc 1 367 0
 2061 0032 3A89     		ldrh	r2, [r7, #8]
 2062 0034 3B8B     		ldrh	r3, [r7, #24]
 2063 0036 1344     		add	r3, r3, r2
 2064 0038 9BB2     		uxth	r3, r3
 2065 003a 013B     		subs	r3, r3, #1
 2066 003c 9BB2     		uxth	r3, r3
 2067 003e 1AB2     		sxth	r2, r3
 2068 0040 B7F90600 		ldrsh	r0, [r7, #6]
 2069 0044 B7F90A10 		ldrsh	r1, [r7, #10]
 2070 0048 BB8B     		ldrh	r3, [r7, #28]
 2071 004a 0093     		str	r3, [sp]
ARM GAS  C:\Users\JEFFSN~1\AppData\Local\Temp\ccogK82D.s 			page 44


 2072 004c 0346     		mov	r3, r0
 2073 004e F868     		ldr	r0, [r7, #12]
 2074 0050 FFF7FEFF 		bl	GFXwriteFastHLine
 368:gfx.c         ****             GFXwriteFastVLine(myGFX, x, y, h, color);
 2075              		.loc 1 368 0
 2076 0054 B7F91800 		ldrsh	r0, [r7, #24]
 2077 0058 B7F90820 		ldrsh	r2, [r7, #8]
 2078 005c B7F90A10 		ldrsh	r1, [r7, #10]
 2079 0060 BB8B     		ldrh	r3, [r7, #28]
 2080 0062 0093     		str	r3, [sp]
 2081 0064 0346     		mov	r3, r0
 2082 0066 F868     		ldr	r0, [r7, #12]
 2083 0068 FFF7FEFF 		bl	GFXwriteFastVLine
 369:gfx.c         ****             GFXwriteFastVLine(myGFX, x+w-1, y, h, color);
 2084              		.loc 1 369 0
 2085 006c 7A89     		ldrh	r2, [r7, #10]
 2086 006e FB88     		ldrh	r3, [r7, #6]
 2087 0070 1344     		add	r3, r3, r2
 2088 0072 9BB2     		uxth	r3, r3
 2089 0074 013B     		subs	r3, r3, #1
 2090 0076 9BB2     		uxth	r3, r3
 2091 0078 19B2     		sxth	r1, r3
 2092 007a B7F91800 		ldrsh	r0, [r7, #24]
 2093 007e B7F90820 		ldrsh	r2, [r7, #8]
 2094 0082 BB8B     		ldrh	r3, [r7, #28]
 2095 0084 0093     		str	r3, [sp]
 2096 0086 0346     		mov	r3, r0
 2097 0088 F868     		ldr	r0, [r7, #12]
 2098 008a FFF7FEFF 		bl	GFXwriteFastVLine
 370:gfx.c         ****             
 371:gfx.c         ****         }
 2099              		.loc 1 371 0
 2100 008e 00BF     		nop
 2101 0090 1037     		adds	r7, r7, #16
 2102              		.cfi_def_cfa_offset 8
 2103 0092 BD46     		mov	sp, r7
 2104              		.cfi_def_cfa_register 13
 2105              		@ sp needed
 2106 0094 80BD     		pop	{r7, pc}
 2107              		.cfi_endproc
 2108              	.LFE82:
 2109              		.size	GFXdrawRect, .-GFXdrawRect
 2110 0096 00BF     		.section	.text.GFXdrawRoundRect,"ax",%progbits
 2111              		.align	2
 2112              		.global	GFXdrawRoundRect
 2113              		.thumb
 2114              		.thumb_func
 2115              		.type	GFXdrawRoundRect, %function
 2116              	GFXdrawRoundRect:
 2117              	.LFB83:
 372:gfx.c         ****         
 373:gfx.c         ****         // Draw a rounded rectangle
 374:gfx.c         ****         void GFXdrawRoundRect(GFX* myGFX, int16_t x, int16_t y, int16_t w,
 375:gfx.c         ****                               int16_t h, int16_t r, uint16_t color) {
 2118              		.loc 1 375 0
 2119              		.cfi_startproc
 2120              		@ args = 12, pretend = 0, frame = 16
ARM GAS  C:\Users\JEFFSN~1\AppData\Local\Temp\ccogK82D.s 			page 45


 2121              		@ frame_needed = 1, uses_anonymous_args = 0
 2122 0000 80B5     		push	{r7, lr}
 2123              		.cfi_def_cfa_offset 8
 2124              		.cfi_offset 7, -8
 2125              		.cfi_offset 14, -4
 2126 0002 86B0     		sub	sp, sp, #24
 2127              		.cfi_def_cfa_offset 32
 2128 0004 02AF     		add	r7, sp, #8
 2129              		.cfi_def_cfa 7, 24
 2130 0006 F860     		str	r0, [r7, #12]
 2131 0008 0846     		mov	r0, r1
 2132 000a 1146     		mov	r1, r2
 2133 000c 1A46     		mov	r2, r3
 2134 000e 0346     		mov	r3, r0	@ movhi
 2135 0010 7B81     		strh	r3, [r7, #10]	@ movhi
 2136 0012 0B46     		mov	r3, r1	@ movhi
 2137 0014 3B81     		strh	r3, [r7, #8]	@ movhi
 2138 0016 1346     		mov	r3, r2	@ movhi
 2139 0018 FB80     		strh	r3, [r7, #6]	@ movhi
 376:gfx.c         ****             // smarter version
 377:gfx.c         ****             GFXwriteFastHLine(myGFX, x+r  , y    , w-2*r, color); // Top
 2140              		.loc 1 377 0
 2141 001a 7A89     		ldrh	r2, [r7, #10]
 2142 001c BB8B     		ldrh	r3, [r7, #28]
 2143 001e 1344     		add	r3, r3, r2
 2144 0020 9BB2     		uxth	r3, r3
 2145 0022 19B2     		sxth	r1, r3
 2146 0024 FA88     		ldrh	r2, [r7, #6]
 2147 0026 BB8B     		ldrh	r3, [r7, #28]
 2148 0028 5B00     		lsls	r3, r3, #1
 2149 002a 9BB2     		uxth	r3, r3
 2150 002c D31A     		subs	r3, r2, r3
 2151 002e 9BB2     		uxth	r3, r3
 2152 0030 18B2     		sxth	r0, r3
 2153 0032 B7F90820 		ldrsh	r2, [r7, #8]
 2154 0036 3B8C     		ldrh	r3, [r7, #32]
 2155 0038 0093     		str	r3, [sp]
 2156 003a 0346     		mov	r3, r0
 2157 003c F868     		ldr	r0, [r7, #12]
 2158 003e FFF7FEFF 		bl	GFXwriteFastHLine
 378:gfx.c         ****             GFXwriteFastHLine(myGFX, x+r  , y+h-1, w-2*r, color); // Bottom
 2159              		.loc 1 378 0
 2160 0042 7A89     		ldrh	r2, [r7, #10]
 2161 0044 BB8B     		ldrh	r3, [r7, #28]
 2162 0046 1344     		add	r3, r3, r2
 2163 0048 9BB2     		uxth	r3, r3
 2164 004a 19B2     		sxth	r1, r3
 2165 004c 3A89     		ldrh	r2, [r7, #8]
 2166 004e 3B8B     		ldrh	r3, [r7, #24]
 2167 0050 1344     		add	r3, r3, r2
 2168 0052 9BB2     		uxth	r3, r3
 2169 0054 013B     		subs	r3, r3, #1
 2170 0056 9BB2     		uxth	r3, r3
 2171 0058 18B2     		sxth	r0, r3
 2172 005a FA88     		ldrh	r2, [r7, #6]
 2173 005c BB8B     		ldrh	r3, [r7, #28]
 2174 005e 5B00     		lsls	r3, r3, #1
ARM GAS  C:\Users\JEFFSN~1\AppData\Local\Temp\ccogK82D.s 			page 46


 2175 0060 9BB2     		uxth	r3, r3
 2176 0062 D31A     		subs	r3, r2, r3
 2177 0064 9BB2     		uxth	r3, r3
 2178 0066 1AB2     		sxth	r2, r3
 2179 0068 3B8C     		ldrh	r3, [r7, #32]
 2180 006a 0093     		str	r3, [sp]
 2181 006c 1346     		mov	r3, r2
 2182 006e 0246     		mov	r2, r0
 2183 0070 F868     		ldr	r0, [r7, #12]
 2184 0072 FFF7FEFF 		bl	GFXwriteFastHLine
 379:gfx.c         ****             GFXwriteFastVLine(myGFX, x    , y+r  , h-2*r, color); // Left
 2185              		.loc 1 379 0
 2186 0076 3A89     		ldrh	r2, [r7, #8]
 2187 0078 BB8B     		ldrh	r3, [r7, #28]
 2188 007a 1344     		add	r3, r3, r2
 2189 007c 9BB2     		uxth	r3, r3
 2190 007e 18B2     		sxth	r0, r3
 2191 0080 3A8B     		ldrh	r2, [r7, #24]
 2192 0082 BB8B     		ldrh	r3, [r7, #28]
 2193 0084 5B00     		lsls	r3, r3, #1
 2194 0086 9BB2     		uxth	r3, r3
 2195 0088 D31A     		subs	r3, r2, r3
 2196 008a 9BB2     		uxth	r3, r3
 2197 008c 1AB2     		sxth	r2, r3
 2198 008e B7F90A10 		ldrsh	r1, [r7, #10]
 2199 0092 3B8C     		ldrh	r3, [r7, #32]
 2200 0094 0093     		str	r3, [sp]
 2201 0096 1346     		mov	r3, r2
 2202 0098 0246     		mov	r2, r0
 2203 009a F868     		ldr	r0, [r7, #12]
 2204 009c FFF7FEFF 		bl	GFXwriteFastVLine
 380:gfx.c         ****             GFXwriteFastVLine(myGFX, x+w-1, y+r  , h-2*r, color); // Right
 2205              		.loc 1 380 0
 2206 00a0 7A89     		ldrh	r2, [r7, #10]
 2207 00a2 FB88     		ldrh	r3, [r7, #6]
 2208 00a4 1344     		add	r3, r3, r2
 2209 00a6 9BB2     		uxth	r3, r3
 2210 00a8 013B     		subs	r3, r3, #1
 2211 00aa 9BB2     		uxth	r3, r3
 2212 00ac 19B2     		sxth	r1, r3
 2213 00ae 3A89     		ldrh	r2, [r7, #8]
 2214 00b0 BB8B     		ldrh	r3, [r7, #28]
 2215 00b2 1344     		add	r3, r3, r2
 2216 00b4 9BB2     		uxth	r3, r3
 2217 00b6 18B2     		sxth	r0, r3
 2218 00b8 3A8B     		ldrh	r2, [r7, #24]
 2219 00ba BB8B     		ldrh	r3, [r7, #28]
 2220 00bc 5B00     		lsls	r3, r3, #1
 2221 00be 9BB2     		uxth	r3, r3
 2222 00c0 D31A     		subs	r3, r2, r3
 2223 00c2 9BB2     		uxth	r3, r3
 2224 00c4 1AB2     		sxth	r2, r3
 2225 00c6 3B8C     		ldrh	r3, [r7, #32]
 2226 00c8 0093     		str	r3, [sp]
 2227 00ca 1346     		mov	r3, r2
 2228 00cc 0246     		mov	r2, r0
 2229 00ce F868     		ldr	r0, [r7, #12]
ARM GAS  C:\Users\JEFFSN~1\AppData\Local\Temp\ccogK82D.s 			page 47


 2230 00d0 FFF7FEFF 		bl	GFXwriteFastVLine
 381:gfx.c         ****             // draw four corners
 382:gfx.c         ****             GFXdrawCircleHelper(myGFX, x+r    , y+r    , r, 1, color);
 2231              		.loc 1 382 0
 2232 00d4 7A89     		ldrh	r2, [r7, #10]
 2233 00d6 BB8B     		ldrh	r3, [r7, #28]
 2234 00d8 1344     		add	r3, r3, r2
 2235 00da 9BB2     		uxth	r3, r3
 2236 00dc 19B2     		sxth	r1, r3
 2237 00de 3A89     		ldrh	r2, [r7, #8]
 2238 00e0 BB8B     		ldrh	r3, [r7, #28]
 2239 00e2 1344     		add	r3, r3, r2
 2240 00e4 9BB2     		uxth	r3, r3
 2241 00e6 1AB2     		sxth	r2, r3
 2242 00e8 B7F91C00 		ldrsh	r0, [r7, #28]
 2243 00ec 3B8C     		ldrh	r3, [r7, #32]
 2244 00ee 0193     		str	r3, [sp, #4]
 2245 00f0 0123     		movs	r3, #1
 2246 00f2 0093     		str	r3, [sp]
 2247 00f4 0346     		mov	r3, r0
 2248 00f6 F868     		ldr	r0, [r7, #12]
 2249 00f8 FFF7FEFF 		bl	GFXdrawCircleHelper
 383:gfx.c         ****             GFXdrawCircleHelper(myGFX, x+w-r-1, y+r    , r, 2, color);
 2250              		.loc 1 383 0
 2251 00fc 7A89     		ldrh	r2, [r7, #10]
 2252 00fe FB88     		ldrh	r3, [r7, #6]
 2253 0100 1344     		add	r3, r3, r2
 2254 0102 9AB2     		uxth	r2, r3
 2255 0104 BB8B     		ldrh	r3, [r7, #28]
 2256 0106 D31A     		subs	r3, r2, r3
 2257 0108 9BB2     		uxth	r3, r3
 2258 010a 013B     		subs	r3, r3, #1
 2259 010c 9BB2     		uxth	r3, r3
 2260 010e 19B2     		sxth	r1, r3
 2261 0110 3A89     		ldrh	r2, [r7, #8]
 2262 0112 BB8B     		ldrh	r3, [r7, #28]
 2263 0114 1344     		add	r3, r3, r2
 2264 0116 9BB2     		uxth	r3, r3
 2265 0118 1AB2     		sxth	r2, r3
 2266 011a B7F91C00 		ldrsh	r0, [r7, #28]
 2267 011e 3B8C     		ldrh	r3, [r7, #32]
 2268 0120 0193     		str	r3, [sp, #4]
 2269 0122 0223     		movs	r3, #2
 2270 0124 0093     		str	r3, [sp]
 2271 0126 0346     		mov	r3, r0
 2272 0128 F868     		ldr	r0, [r7, #12]
 2273 012a FFF7FEFF 		bl	GFXdrawCircleHelper
 384:gfx.c         ****             GFXdrawCircleHelper(myGFX, x+w-r-1, y+h-r-1, r, 4, color);
 2274              		.loc 1 384 0
 2275 012e 7A89     		ldrh	r2, [r7, #10]
 2276 0130 FB88     		ldrh	r3, [r7, #6]
 2277 0132 1344     		add	r3, r3, r2
 2278 0134 9AB2     		uxth	r2, r3
 2279 0136 BB8B     		ldrh	r3, [r7, #28]
 2280 0138 D31A     		subs	r3, r2, r3
 2281 013a 9BB2     		uxth	r3, r3
 2282 013c 013B     		subs	r3, r3, #1
ARM GAS  C:\Users\JEFFSN~1\AppData\Local\Temp\ccogK82D.s 			page 48


 2283 013e 9BB2     		uxth	r3, r3
 2284 0140 19B2     		sxth	r1, r3
 2285 0142 3A89     		ldrh	r2, [r7, #8]
 2286 0144 3B8B     		ldrh	r3, [r7, #24]
 2287 0146 1344     		add	r3, r3, r2
 2288 0148 9AB2     		uxth	r2, r3
 2289 014a BB8B     		ldrh	r3, [r7, #28]
 2290 014c D31A     		subs	r3, r2, r3
 2291 014e 9BB2     		uxth	r3, r3
 2292 0150 013B     		subs	r3, r3, #1
 2293 0152 9BB2     		uxth	r3, r3
 2294 0154 1AB2     		sxth	r2, r3
 2295 0156 B7F91C00 		ldrsh	r0, [r7, #28]
 2296 015a 3B8C     		ldrh	r3, [r7, #32]
 2297 015c 0193     		str	r3, [sp, #4]
 2298 015e 0423     		movs	r3, #4
 2299 0160 0093     		str	r3, [sp]
 2300 0162 0346     		mov	r3, r0
 2301 0164 F868     		ldr	r0, [r7, #12]
 2302 0166 FFF7FEFF 		bl	GFXdrawCircleHelper
 385:gfx.c         ****             GFXdrawCircleHelper(myGFX, x+r    , y+h-r-1, r, 8, color);
 2303              		.loc 1 385 0
 2304 016a 7A89     		ldrh	r2, [r7, #10]
 2305 016c BB8B     		ldrh	r3, [r7, #28]
 2306 016e 1344     		add	r3, r3, r2
 2307 0170 9BB2     		uxth	r3, r3
 2308 0172 19B2     		sxth	r1, r3
 2309 0174 3A89     		ldrh	r2, [r7, #8]
 2310 0176 3B8B     		ldrh	r3, [r7, #24]
 2311 0178 1344     		add	r3, r3, r2
 2312 017a 9AB2     		uxth	r2, r3
 2313 017c BB8B     		ldrh	r3, [r7, #28]
 2314 017e D31A     		subs	r3, r2, r3
 2315 0180 9BB2     		uxth	r3, r3
 2316 0182 013B     		subs	r3, r3, #1
 2317 0184 9BB2     		uxth	r3, r3
 2318 0186 1AB2     		sxth	r2, r3
 2319 0188 B7F91C00 		ldrsh	r0, [r7, #28]
 2320 018c 3B8C     		ldrh	r3, [r7, #32]
 2321 018e 0193     		str	r3, [sp, #4]
 2322 0190 0823     		movs	r3, #8
 2323 0192 0093     		str	r3, [sp]
 2324 0194 0346     		mov	r3, r0
 2325 0196 F868     		ldr	r0, [r7, #12]
 2326 0198 FFF7FEFF 		bl	GFXdrawCircleHelper
 386:gfx.c         ****             
 387:gfx.c         ****         }
 2327              		.loc 1 387 0
 2328 019c 00BF     		nop
 2329 019e 1037     		adds	r7, r7, #16
 2330              		.cfi_def_cfa_offset 8
 2331 01a0 BD46     		mov	sp, r7
 2332              		.cfi_def_cfa_register 13
 2333              		@ sp needed
 2334 01a2 80BD     		pop	{r7, pc}
 2335              		.cfi_endproc
 2336              	.LFE83:
ARM GAS  C:\Users\JEFFSN~1\AppData\Local\Temp\ccogK82D.s 			page 49


 2337              		.size	GFXdrawRoundRect, .-GFXdrawRoundRect
 2338              		.section	.text.GFXfillRoundRect,"ax",%progbits
 2339              		.align	2
 2340              		.global	GFXfillRoundRect
 2341              		.thumb
 2342              		.thumb_func
 2343              		.type	GFXfillRoundRect, %function
 2344              	GFXfillRoundRect:
 2345              	.LFB84:
 388:gfx.c         ****         
 389:gfx.c         ****         // Fill a rounded rectangle
 390:gfx.c         ****         void GFXfillRoundRect(GFX* myGFX, int16_t x, int16_t y, int16_t w,
 391:gfx.c         ****                               int16_t h, int16_t r, uint16_t color) {
 2346              		.loc 1 391 0
 2347              		.cfi_startproc
 2348              		@ args = 12, pretend = 0, frame = 16
 2349              		@ frame_needed = 1, uses_anonymous_args = 0
 2350 0000 90B5     		push	{r4, r7, lr}
 2351              		.cfi_def_cfa_offset 12
 2352              		.cfi_offset 4, -12
 2353              		.cfi_offset 7, -8
 2354              		.cfi_offset 14, -4
 2355 0002 89B0     		sub	sp, sp, #36
 2356              		.cfi_def_cfa_offset 48
 2357 0004 04AF     		add	r7, sp, #16
 2358              		.cfi_def_cfa 7, 32
 2359 0006 F860     		str	r0, [r7, #12]
 2360 0008 0846     		mov	r0, r1
 2361 000a 1146     		mov	r1, r2
 2362 000c 1A46     		mov	r2, r3
 2363 000e 0346     		mov	r3, r0	@ movhi
 2364 0010 7B81     		strh	r3, [r7, #10]	@ movhi
 2365 0012 0B46     		mov	r3, r1	@ movhi
 2366 0014 3B81     		strh	r3, [r7, #8]	@ movhi
 2367 0016 1346     		mov	r3, r2	@ movhi
 2368 0018 FB80     		strh	r3, [r7, #6]	@ movhi
 392:gfx.c         ****             // smarter version
 393:gfx.c         ****             GFXwriteFillRect(myGFX, x+r, y, w-2*r, h, color);
 2369              		.loc 1 393 0
 2370 001a 7A89     		ldrh	r2, [r7, #10]
 2371 001c BB8C     		ldrh	r3, [r7, #36]
 2372 001e 1344     		add	r3, r3, r2
 2373 0020 9BB2     		uxth	r3, r3
 2374 0022 19B2     		sxth	r1, r3
 2375 0024 FA88     		ldrh	r2, [r7, #6]
 2376 0026 BB8C     		ldrh	r3, [r7, #36]
 2377 0028 5B00     		lsls	r3, r3, #1
 2378 002a 9BB2     		uxth	r3, r3
 2379 002c D31A     		subs	r3, r2, r3
 2380 002e 9BB2     		uxth	r3, r3
 2381 0030 18B2     		sxth	r0, r3
 2382 0032 B7F90820 		ldrsh	r2, [r7, #8]
 2383 0036 3B8D     		ldrh	r3, [r7, #40]
 2384 0038 0193     		str	r3, [sp, #4]
 2385 003a B7F92030 		ldrsh	r3, [r7, #32]
 2386 003e 0093     		str	r3, [sp]
 2387 0040 0346     		mov	r3, r0
ARM GAS  C:\Users\JEFFSN~1\AppData\Local\Temp\ccogK82D.s 			page 50


 2388 0042 F868     		ldr	r0, [r7, #12]
 2389 0044 FFF7FEFF 		bl	GFXwriteFillRect
 394:gfx.c         ****             // draw four corners
 395:gfx.c         ****             GFXfillCircleHelper(myGFX, x+w-r-1, y+r, r, 1, h-2*r-1, color);
 2390              		.loc 1 395 0
 2391 0048 7A89     		ldrh	r2, [r7, #10]
 2392 004a FB88     		ldrh	r3, [r7, #6]
 2393 004c 1344     		add	r3, r3, r2
 2394 004e 9AB2     		uxth	r2, r3
 2395 0050 BB8C     		ldrh	r3, [r7, #36]
 2396 0052 D31A     		subs	r3, r2, r3
 2397 0054 9BB2     		uxth	r3, r3
 2398 0056 013B     		subs	r3, r3, #1
 2399 0058 9BB2     		uxth	r3, r3
 2400 005a 19B2     		sxth	r1, r3
 2401 005c 3A89     		ldrh	r2, [r7, #8]
 2402 005e BB8C     		ldrh	r3, [r7, #36]
 2403 0060 1344     		add	r3, r3, r2
 2404 0062 9BB2     		uxth	r3, r3
 2405 0064 18B2     		sxth	r0, r3
 2406 0066 3A8C     		ldrh	r2, [r7, #32]
 2407 0068 BB8C     		ldrh	r3, [r7, #36]
 2408 006a 5B00     		lsls	r3, r3, #1
 2409 006c 9BB2     		uxth	r3, r3
 2410 006e D31A     		subs	r3, r2, r3
 2411 0070 9BB2     		uxth	r3, r3
 2412 0072 013B     		subs	r3, r3, #1
 2413 0074 9BB2     		uxth	r3, r3
 2414 0076 1BB2     		sxth	r3, r3
 2415 0078 B7F92440 		ldrsh	r4, [r7, #36]
 2416 007c 3A8D     		ldrh	r2, [r7, #40]
 2417 007e 0292     		str	r2, [sp, #8]
 2418 0080 0193     		str	r3, [sp, #4]
 2419 0082 0123     		movs	r3, #1
 2420 0084 0093     		str	r3, [sp]
 2421 0086 2346     		mov	r3, r4
 2422 0088 0246     		mov	r2, r0
 2423 008a F868     		ldr	r0, [r7, #12]
 2424 008c FFF7FEFF 		bl	GFXfillCircleHelper
 396:gfx.c         ****             GFXfillCircleHelper(myGFX, x+r    , y+r, r, 2, h-2*r-1, color);
 2425              		.loc 1 396 0
 2426 0090 7A89     		ldrh	r2, [r7, #10]
 2427 0092 BB8C     		ldrh	r3, [r7, #36]
 2428 0094 1344     		add	r3, r3, r2
 2429 0096 9BB2     		uxth	r3, r3
 2430 0098 19B2     		sxth	r1, r3
 2431 009a 3A89     		ldrh	r2, [r7, #8]
 2432 009c BB8C     		ldrh	r3, [r7, #36]
 2433 009e 1344     		add	r3, r3, r2
 2434 00a0 9BB2     		uxth	r3, r3
 2435 00a2 18B2     		sxth	r0, r3
 2436 00a4 3A8C     		ldrh	r2, [r7, #32]
 2437 00a6 BB8C     		ldrh	r3, [r7, #36]
 2438 00a8 5B00     		lsls	r3, r3, #1
 2439 00aa 9BB2     		uxth	r3, r3
 2440 00ac D31A     		subs	r3, r2, r3
 2441 00ae 9BB2     		uxth	r3, r3
ARM GAS  C:\Users\JEFFSN~1\AppData\Local\Temp\ccogK82D.s 			page 51


 2442 00b0 013B     		subs	r3, r3, #1
 2443 00b2 9BB2     		uxth	r3, r3
 2444 00b4 1BB2     		sxth	r3, r3
 2445 00b6 B7F92440 		ldrsh	r4, [r7, #36]
 2446 00ba 3A8D     		ldrh	r2, [r7, #40]
 2447 00bc 0292     		str	r2, [sp, #8]
 2448 00be 0193     		str	r3, [sp, #4]
 2449 00c0 0223     		movs	r3, #2
 2450 00c2 0093     		str	r3, [sp]
 2451 00c4 2346     		mov	r3, r4
 2452 00c6 0246     		mov	r2, r0
 2453 00c8 F868     		ldr	r0, [r7, #12]
 2454 00ca FFF7FEFF 		bl	GFXfillCircleHelper
 397:gfx.c         ****             
 398:gfx.c         ****         }
 2455              		.loc 1 398 0
 2456 00ce 00BF     		nop
 2457 00d0 1437     		adds	r7, r7, #20
 2458              		.cfi_def_cfa_offset 12
 2459 00d2 BD46     		mov	sp, r7
 2460              		.cfi_def_cfa_register 13
 2461              		@ sp needed
 2462 00d4 90BD     		pop	{r4, r7, pc}
 2463              		.cfi_endproc
 2464              	.LFE84:
 2465              		.size	GFXfillRoundRect, .-GFXfillRoundRect
 2466 00d6 00BF     		.section	.text.GFXdrawTriangle,"ax",%progbits
 2467              		.align	2
 2468              		.global	GFXdrawTriangle
 2469              		.thumb
 2470              		.thumb_func
 2471              		.type	GFXdrawTriangle, %function
 2472              	GFXdrawTriangle:
 2473              	.LFB85:
 399:gfx.c         ****         
 400:gfx.c         ****         // Draw a triangle
 401:gfx.c         ****         void GFXdrawTriangle(GFX* myGFX, int16_t x0, int16_t y0,
 402:gfx.c         ****                              int16_t x1, int16_t y1, int16_t x2, int16_t y2, uint16_t color) {
 2474              		.loc 1 402 0
 2475              		.cfi_startproc
 2476              		@ args = 16, pretend = 0, frame = 16
 2477              		@ frame_needed = 1, uses_anonymous_args = 0
 2478 0000 80B5     		push	{r7, lr}
 2479              		.cfi_def_cfa_offset 8
 2480              		.cfi_offset 7, -8
 2481              		.cfi_offset 14, -4
 2482 0002 86B0     		sub	sp, sp, #24
 2483              		.cfi_def_cfa_offset 32
 2484 0004 02AF     		add	r7, sp, #8
 2485              		.cfi_def_cfa 7, 24
 2486 0006 F860     		str	r0, [r7, #12]
 2487 0008 0846     		mov	r0, r1
 2488 000a 1146     		mov	r1, r2
 2489 000c 1A46     		mov	r2, r3
 2490 000e 0346     		mov	r3, r0	@ movhi
 2491 0010 7B81     		strh	r3, [r7, #10]	@ movhi
 2492 0012 0B46     		mov	r3, r1	@ movhi
ARM GAS  C:\Users\JEFFSN~1\AppData\Local\Temp\ccogK82D.s 			page 52


 2493 0014 3B81     		strh	r3, [r7, #8]	@ movhi
 2494 0016 1346     		mov	r3, r2	@ movhi
 2495 0018 FB80     		strh	r3, [r7, #6]	@ movhi
 403:gfx.c         ****             GFXdrawLine(myGFX, x0, y0, x1, y1, color);
 2496              		.loc 1 403 0
 2497 001a B7F90600 		ldrsh	r0, [r7, #6]
 2498 001e B7F90820 		ldrsh	r2, [r7, #8]
 2499 0022 B7F90A10 		ldrsh	r1, [r7, #10]
 2500 0026 BB8C     		ldrh	r3, [r7, #36]
 2501 0028 0193     		str	r3, [sp, #4]
 2502 002a B7F91830 		ldrsh	r3, [r7, #24]
 2503 002e 0093     		str	r3, [sp]
 2504 0030 0346     		mov	r3, r0
 2505 0032 F868     		ldr	r0, [r7, #12]
 2506 0034 FFF7FEFF 		bl	GFXdrawLine
 404:gfx.c         ****             GFXdrawLine(myGFX, x1, y1, x2, y2, color);
 2507              		.loc 1 404 0
 2508 0038 B7F91C00 		ldrsh	r0, [r7, #28]
 2509 003c B7F91820 		ldrsh	r2, [r7, #24]
 2510 0040 B7F90610 		ldrsh	r1, [r7, #6]
 2511 0044 BB8C     		ldrh	r3, [r7, #36]
 2512 0046 0193     		str	r3, [sp, #4]
 2513 0048 B7F92030 		ldrsh	r3, [r7, #32]
 2514 004c 0093     		str	r3, [sp]
 2515 004e 0346     		mov	r3, r0
 2516 0050 F868     		ldr	r0, [r7, #12]
 2517 0052 FFF7FEFF 		bl	GFXdrawLine
 405:gfx.c         ****             GFXdrawLine(myGFX, x2, y2, x0, y0, color);
 2518              		.loc 1 405 0
 2519 0056 B7F90A00 		ldrsh	r0, [r7, #10]
 2520 005a B7F92020 		ldrsh	r2, [r7, #32]
 2521 005e B7F91C10 		ldrsh	r1, [r7, #28]
 2522 0062 BB8C     		ldrh	r3, [r7, #36]
 2523 0064 0193     		str	r3, [sp, #4]
 2524 0066 B7F90830 		ldrsh	r3, [r7, #8]
 2525 006a 0093     		str	r3, [sp]
 2526 006c 0346     		mov	r3, r0
 2527 006e F868     		ldr	r0, [r7, #12]
 2528 0070 FFF7FEFF 		bl	GFXdrawLine
 406:gfx.c         ****         }
 2529              		.loc 1 406 0
 2530 0074 00BF     		nop
 2531 0076 1037     		adds	r7, r7, #16
 2532              		.cfi_def_cfa_offset 8
 2533 0078 BD46     		mov	sp, r7
 2534              		.cfi_def_cfa_register 13
 2535              		@ sp needed
 2536 007a 80BD     		pop	{r7, pc}
 2537              		.cfi_endproc
 2538              	.LFE85:
 2539              		.size	GFXdrawTriangle, .-GFXdrawTriangle
 2540              		.section	.text.GFXfillTriangle,"ax",%progbits
 2541              		.align	2
 2542              		.global	GFXfillTriangle
 2543              		.thumb
 2544              		.thumb_func
 2545              		.type	GFXfillTriangle, %function
ARM GAS  C:\Users\JEFFSN~1\AppData\Local\Temp\ccogK82D.s 			page 53


 2546              	GFXfillTriangle:
 2547              	.LFB86:
 407:gfx.c         ****         
 408:gfx.c         ****         // Fill a triangle
 409:gfx.c         ****         void GFXfillTriangle(GFX* myGFX, int16_t x0, int16_t y0,
 410:gfx.c         ****                              int16_t x1, int16_t y1, int16_t x2, int16_t y2, uint16_t color) {
 2548              		.loc 1 410 0
 2549              		.cfi_startproc
 2550              		@ args = 16, pretend = 0, frame = 64
 2551              		@ frame_needed = 1, uses_anonymous_args = 0
 2552 0000 80B5     		push	{r7, lr}
 2553              		.cfi_def_cfa_offset 8
 2554              		.cfi_offset 7, -8
 2555              		.cfi_offset 14, -4
 2556 0002 92B0     		sub	sp, sp, #72
 2557              		.cfi_def_cfa_offset 80
 2558 0004 02AF     		add	r7, sp, #8
 2559              		.cfi_def_cfa 7, 72
 2560 0006 F860     		str	r0, [r7, #12]
 2561 0008 0846     		mov	r0, r1
 2562 000a 1146     		mov	r1, r2
 2563 000c 1A46     		mov	r2, r3
 2564 000e 0346     		mov	r3, r0	@ movhi
 2565 0010 7B81     		strh	r3, [r7, #10]	@ movhi
 2566 0012 0B46     		mov	r3, r1	@ movhi
 2567 0014 3B81     		strh	r3, [r7, #8]	@ movhi
 2568 0016 1346     		mov	r3, r2	@ movhi
 2569 0018 FB80     		strh	r3, [r7, #6]	@ movhi
 411:gfx.c         ****             
 412:gfx.c         ****             int16_t a, b, y, last;
 413:gfx.c         ****             
 414:gfx.c         ****             // Sort coordinates by Y order (y2 >= y1 >= y0)
 415:gfx.c         ****             if (y0 > y1) {
 2570              		.loc 1 415 0
 2571 001a B7F90820 		ldrsh	r2, [r7, #8]
 2572 001e B7F94830 		ldrsh	r3, [r7, #72]
 2573 0022 9A42     		cmp	r2, r3
 2574 0024 0DDD     		ble	.L70
 2575              	.LBB11:
 416:gfx.c         ****                 _swap_int16_t(y0, y1); _swap_int16_t(x0, x1);
 2576              		.loc 1 416 0
 2577 0026 3B89     		ldrh	r3, [r7, #8]	@ movhi
 2578 0028 FB85     		strh	r3, [r7, #46]	@ movhi
 2579 002a B7F84830 		ldrh	r3, [r7, #72]	@ movhi
 2580 002e 3B81     		strh	r3, [r7, #8]	@ movhi
 2581 0030 FB8D     		ldrh	r3, [r7, #46]	@ movhi
 2582 0032 A7F84830 		strh	r3, [r7, #72]	@ movhi
 2583              	.LBE11:
 2584              	.LBB12:
 2585 0036 7B89     		ldrh	r3, [r7, #10]	@ movhi
 2586 0038 BB85     		strh	r3, [r7, #44]	@ movhi
 2587 003a FB88     		ldrh	r3, [r7, #6]	@ movhi
 2588 003c 7B81     		strh	r3, [r7, #10]	@ movhi
 2589 003e BB8D     		ldrh	r3, [r7, #44]	@ movhi
 2590 0040 FB80     		strh	r3, [r7, #6]	@ movhi
 2591              	.L70:
 2592              	.LBE12:
ARM GAS  C:\Users\JEFFSN~1\AppData\Local\Temp\ccogK82D.s 			page 54


 417:gfx.c         ****             }
 418:gfx.c         ****             if (y1 > y2) {
 2593              		.loc 1 418 0
 2594 0042 B7F94820 		ldrsh	r2, [r7, #72]
 2595 0046 B7F95030 		ldrsh	r3, [r7, #80]
 2596 004a 9A42     		cmp	r2, r3
 2597 004c 11DD     		ble	.L71
 2598              	.LBB13:
 419:gfx.c         ****                 _swap_int16_t(y2, y1); _swap_int16_t(x2, x1);
 2599              		.loc 1 419 0
 2600 004e B7F85030 		ldrh	r3, [r7, #80]	@ movhi
 2601 0052 7B85     		strh	r3, [r7, #42]	@ movhi
 2602 0054 B7F84830 		ldrh	r3, [r7, #72]	@ movhi
 2603 0058 A7F85030 		strh	r3, [r7, #80]	@ movhi
 2604 005c 7B8D     		ldrh	r3, [r7, #42]	@ movhi
 2605 005e A7F84830 		strh	r3, [r7, #72]	@ movhi
 2606              	.LBE13:
 2607              	.LBB14:
 2608 0062 B7F84C30 		ldrh	r3, [r7, #76]	@ movhi
 2609 0066 3B85     		strh	r3, [r7, #40]	@ movhi
 2610 0068 FB88     		ldrh	r3, [r7, #6]	@ movhi
 2611 006a A7F84C30 		strh	r3, [r7, #76]	@ movhi
 2612 006e 3B8D     		ldrh	r3, [r7, #40]	@ movhi
 2613 0070 FB80     		strh	r3, [r7, #6]	@ movhi
 2614              	.L71:
 2615              	.LBE14:
 420:gfx.c         ****             }
 421:gfx.c         ****             if (y0 > y1) {
 2616              		.loc 1 421 0
 2617 0072 B7F90820 		ldrsh	r2, [r7, #8]
 2618 0076 B7F94830 		ldrsh	r3, [r7, #72]
 2619 007a 9A42     		cmp	r2, r3
 2620 007c 0DDD     		ble	.L72
 2621              	.LBB15:
 422:gfx.c         ****                 _swap_int16_t(y0, y1); _swap_int16_t(x0, x1);
 2622              		.loc 1 422 0
 2623 007e 3B89     		ldrh	r3, [r7, #8]	@ movhi
 2624 0080 FB84     		strh	r3, [r7, #38]	@ movhi
 2625 0082 B7F84830 		ldrh	r3, [r7, #72]	@ movhi
 2626 0086 3B81     		strh	r3, [r7, #8]	@ movhi
 2627 0088 FB8C     		ldrh	r3, [r7, #38]	@ movhi
 2628 008a A7F84830 		strh	r3, [r7, #72]	@ movhi
 2629              	.LBE15:
 2630              	.LBB16:
 2631 008e 7B89     		ldrh	r3, [r7, #10]	@ movhi
 2632 0090 BB84     		strh	r3, [r7, #36]	@ movhi
 2633 0092 FB88     		ldrh	r3, [r7, #6]	@ movhi
 2634 0094 7B81     		strh	r3, [r7, #10]	@ movhi
 2635 0096 BB8C     		ldrh	r3, [r7, #36]	@ movhi
 2636 0098 FB80     		strh	r3, [r7, #6]	@ movhi
 2637              	.L72:
 2638              	.LBE16:
 423:gfx.c         ****             }
 424:gfx.c         ****             
 425:gfx.c         ****             
 426:gfx.c         ****             if(y0 == y2) { // Handle awkward all-on-same-line case as its own thing
 2639              		.loc 1 426 0
ARM GAS  C:\Users\JEFFSN~1\AppData\Local\Temp\ccogK82D.s 			page 55


 2640 009a B7F90820 		ldrsh	r2, [r7, #8]
 2641 009e B7F95030 		ldrsh	r3, [r7, #80]
 2642 00a2 9A42     		cmp	r2, r3
 2643 00a4 3AD1     		bne	.L73
 427:gfx.c         ****                 a = b = x0;
 2644              		.loc 1 427 0
 2645 00a6 7B89     		ldrh	r3, [r7, #10]	@ movhi
 2646 00a8 BB87     		strh	r3, [r7, #60]	@ movhi
 2647 00aa BB8F     		ldrh	r3, [r7, #60]	@ movhi
 2648 00ac FB87     		strh	r3, [r7, #62]	@ movhi
 428:gfx.c         ****                 if(x1 < a)      a = x1;
 2649              		.loc 1 428 0
 2650 00ae B7F90620 		ldrsh	r2, [r7, #6]
 2651 00b2 B7F93E30 		ldrsh	r3, [r7, #62]
 2652 00b6 9A42     		cmp	r2, r3
 2653 00b8 02DA     		bge	.L74
 2654              		.loc 1 428 0 is_stmt 0 discriminator 1
 2655 00ba FB88     		ldrh	r3, [r7, #6]	@ movhi
 2656 00bc FB87     		strh	r3, [r7, #62]	@ movhi
 2657 00be 07E0     		b	.L75
 2658              	.L74:
 429:gfx.c         ****                 else if(x1 > b) b = x1;
 2659              		.loc 1 429 0 is_stmt 1
 2660 00c0 B7F90620 		ldrsh	r2, [r7, #6]
 2661 00c4 B7F93C30 		ldrsh	r3, [r7, #60]
 2662 00c8 9A42     		cmp	r2, r3
 2663 00ca 01DD     		ble	.L75
 2664              		.loc 1 429 0 is_stmt 0 discriminator 1
 2665 00cc FB88     		ldrh	r3, [r7, #6]	@ movhi
 2666 00ce BB87     		strh	r3, [r7, #60]	@ movhi
 2667              	.L75:
 430:gfx.c         ****                 if(x2 < a)      a = x2;
 2668              		.loc 1 430 0 is_stmt 1
 2669 00d0 B7F94C20 		ldrsh	r2, [r7, #76]
 2670 00d4 B7F93E30 		ldrsh	r3, [r7, #62]
 2671 00d8 9A42     		cmp	r2, r3
 2672 00da 03DA     		bge	.L76
 2673              		.loc 1 430 0 is_stmt 0 discriminator 1
 2674 00dc B7F84C30 		ldrh	r3, [r7, #76]	@ movhi
 2675 00e0 FB87     		strh	r3, [r7, #62]	@ movhi
 2676 00e2 08E0     		b	.L77
 2677              	.L76:
 431:gfx.c         ****                 else if(x2 > b) b = x2;
 2678              		.loc 1 431 0 is_stmt 1
 2679 00e4 B7F94C20 		ldrsh	r2, [r7, #76]
 2680 00e8 B7F93C30 		ldrsh	r3, [r7, #60]
 2681 00ec 9A42     		cmp	r2, r3
 2682 00ee 02DD     		ble	.L77
 2683              		.loc 1 431 0 is_stmt 0 discriminator 1
 2684 00f0 B7F84C30 		ldrh	r3, [r7, #76]	@ movhi
 2685 00f4 BB87     		strh	r3, [r7, #60]	@ movhi
 2686              	.L77:
 432:gfx.c         ****                 GFXwriteFastHLine(myGFX, a, y0, b-a+1, color);
 2687              		.loc 1 432 0 is_stmt 1
 2688 00f6 BA8F     		ldrh	r2, [r7, #60]
 2689 00f8 FB8F     		ldrh	r3, [r7, #62]
 2690 00fa D31A     		subs	r3, r2, r3
ARM GAS  C:\Users\JEFFSN~1\AppData\Local\Temp\ccogK82D.s 			page 56


 2691 00fc 9BB2     		uxth	r3, r3
 2692 00fe 0133     		adds	r3, r3, #1
 2693 0100 9BB2     		uxth	r3, r3
 2694 0102 18B2     		sxth	r0, r3
 2695 0104 B7F90820 		ldrsh	r2, [r7, #8]
 2696 0108 B7F93E10 		ldrsh	r1, [r7, #62]
 2697 010c B7F85430 		ldrh	r3, [r7, #84]
 2698 0110 0093     		str	r3, [sp]
 2699 0112 0346     		mov	r3, r0
 2700 0114 F868     		ldr	r0, [r7, #12]
 2701 0116 FFF7FEFF 		bl	GFXwriteFastHLine
 433:gfx.c         ****                 
 434:gfx.c         ****                 return;
 2702              		.loc 1 434 0
 2703 011a DEE0     		b	.L69
 2704              	.L73:
 435:gfx.c         ****             }
 436:gfx.c         ****             
 437:gfx.c         ****             int16_t
 438:gfx.c         ****             dx01 = x1 - x0,
 2705              		.loc 1 438 0
 2706 011c FA88     		ldrh	r2, [r7, #6]
 2707 011e 7B89     		ldrh	r3, [r7, #10]
 2708 0120 D31A     		subs	r3, r2, r3
 2709 0122 9BB2     		uxth	r3, r3
 2710 0124 7B84     		strh	r3, [r7, #34]	@ movhi
 439:gfx.c         ****             dy01 = y1 - y0,
 2711              		.loc 1 439 0
 2712 0126 B7F84820 		ldrh	r2, [r7, #72]
 2713 012a 3B89     		ldrh	r3, [r7, #8]
 2714 012c D31A     		subs	r3, r2, r3
 2715 012e 9BB2     		uxth	r3, r3
 2716 0130 3B84     		strh	r3, [r7, #32]	@ movhi
 440:gfx.c         ****             dx02 = x2 - x0,
 2717              		.loc 1 440 0
 2718 0132 B7F84C20 		ldrh	r2, [r7, #76]
 2719 0136 7B89     		ldrh	r3, [r7, #10]
 2720 0138 D31A     		subs	r3, r2, r3
 2721 013a 9BB2     		uxth	r3, r3
 2722 013c FB83     		strh	r3, [r7, #30]	@ movhi
 441:gfx.c         ****             dy02 = y2 - y0,
 2723              		.loc 1 441 0
 2724 013e B7F85020 		ldrh	r2, [r7, #80]
 2725 0142 3B89     		ldrh	r3, [r7, #8]
 2726 0144 D31A     		subs	r3, r2, r3
 2727 0146 9BB2     		uxth	r3, r3
 2728 0148 BB83     		strh	r3, [r7, #28]	@ movhi
 442:gfx.c         ****             dx12 = x2 - x1,
 2729              		.loc 1 442 0
 2730 014a B7F84C20 		ldrh	r2, [r7, #76]
 2731 014e FB88     		ldrh	r3, [r7, #6]
 2732 0150 D31A     		subs	r3, r2, r3
 2733 0152 9BB2     		uxth	r3, r3
 2734 0154 7B83     		strh	r3, [r7, #26]	@ movhi
 443:gfx.c         ****             dy12 = y2 - y1;
 2735              		.loc 1 443 0
 2736 0156 B7F85020 		ldrh	r2, [r7, #80]
ARM GAS  C:\Users\JEFFSN~1\AppData\Local\Temp\ccogK82D.s 			page 57


 2737 015a B7F84830 		ldrh	r3, [r7, #72]
 2738 015e D31A     		subs	r3, r2, r3
 2739 0160 9BB2     		uxth	r3, r3
 2740 0162 3B83     		strh	r3, [r7, #24]	@ movhi
 444:gfx.c         ****             int32_t
 445:gfx.c         ****             sa   = 0,
 2741              		.loc 1 445 0
 2742 0164 0023     		movs	r3, #0
 2743 0166 7B63     		str	r3, [r7, #52]
 446:gfx.c         ****             sb   = 0;
 2744              		.loc 1 446 0
 2745 0168 0023     		movs	r3, #0
 2746 016a 3B63     		str	r3, [r7, #48]
 447:gfx.c         ****             
 448:gfx.c         ****             // For upper part of triangle, find scanline crossings for segments
 449:gfx.c         ****             // 0-1 and 0-2.  If y1=y2 (flat-bottomed triangle), the scanline y1
 450:gfx.c         ****             // is included here (and second loop will be skipped, avoiding a /0
 451:gfx.c         ****             // error there), otherwise scanline y1 is skipped here and handled
 452:gfx.c         ****             // in the second loop...which also avoids a /0 error here if y0=y1
 453:gfx.c         ****             // (flat-topped triangle).
 454:gfx.c         ****             if(y1 == y2) last = y1;   // Include y1 scanline
 2747              		.loc 1 454 0
 2748 016c B7F94820 		ldrsh	r2, [r7, #72]
 2749 0170 B7F95030 		ldrsh	r3, [r7, #80]
 2750 0174 9A42     		cmp	r2, r3
 2751 0176 03D1     		bne	.L79
 2752              		.loc 1 454 0 is_stmt 0 discriminator 1
 2753 0178 B7F84830 		ldrh	r3, [r7, #72]	@ movhi
 2754 017c 3B87     		strh	r3, [r7, #56]	@ movhi
 2755 017e 04E0     		b	.L80
 2756              	.L79:
 455:gfx.c         ****             else         last = y1-1; // Skip it
 2757              		.loc 1 455 0 is_stmt 1
 2758 0180 B7F84830 		ldrh	r3, [r7, #72]
 2759 0184 013B     		subs	r3, r3, #1
 2760 0186 9BB2     		uxth	r3, r3
 2761 0188 3B87     		strh	r3, [r7, #56]	@ movhi
 2762              	.L80:
 456:gfx.c         ****             
 457:gfx.c         ****             for(y=y0; y<=last; y++) {
 2763              		.loc 1 457 0
 2764 018a 3B89     		ldrh	r3, [r7, #8]	@ movhi
 2765 018c 7B87     		strh	r3, [r7, #58]	@ movhi
 2766 018e 41E0     		b	.L81
 2767              	.L83:
 458:gfx.c         ****                 a   = x0 + sa / dy01;
 2768              		.loc 1 458 0
 2769 0190 B7F92030 		ldrsh	r3, [r7, #32]
 2770 0194 7A6B     		ldr	r2, [r7, #52]
 2771 0196 92FBF3F3 		sdiv	r3, r2, r3
 2772 019a 9AB2     		uxth	r2, r3
 2773 019c 7B89     		ldrh	r3, [r7, #10]
 2774 019e 1344     		add	r3, r3, r2
 2775 01a0 9BB2     		uxth	r3, r3
 2776 01a2 FB87     		strh	r3, [r7, #62]	@ movhi
 459:gfx.c         ****                 b   = x0 + sb / dy02;
 2777              		.loc 1 459 0
ARM GAS  C:\Users\JEFFSN~1\AppData\Local\Temp\ccogK82D.s 			page 58


 2778 01a4 B7F91C30 		ldrsh	r3, [r7, #28]
 2779 01a8 3A6B     		ldr	r2, [r7, #48]
 2780 01aa 92FBF3F3 		sdiv	r3, r2, r3
 2781 01ae 9AB2     		uxth	r2, r3
 2782 01b0 7B89     		ldrh	r3, [r7, #10]
 2783 01b2 1344     		add	r3, r3, r2
 2784 01b4 9BB2     		uxth	r3, r3
 2785 01b6 BB87     		strh	r3, [r7, #60]	@ movhi
 460:gfx.c         ****                 sa += dx01;
 2786              		.loc 1 460 0
 2787 01b8 B7F92230 		ldrsh	r3, [r7, #34]
 2788 01bc 7A6B     		ldr	r2, [r7, #52]
 2789 01be 1344     		add	r3, r3, r2
 2790 01c0 7B63     		str	r3, [r7, #52]
 461:gfx.c         ****                 sb += dx02;
 2791              		.loc 1 461 0
 2792 01c2 B7F91E30 		ldrsh	r3, [r7, #30]
 2793 01c6 3A6B     		ldr	r2, [r7, #48]
 2794 01c8 1344     		add	r3, r3, r2
 2795 01ca 3B63     		str	r3, [r7, #48]
 462:gfx.c         ****                 /* longhand:
 463:gfx.c         ****                  a = x0 + (x1 - x0) * (y - y0) / (y1 - y0);
 464:gfx.c         ****                  b = x0 + (x2 - x0) * (y - y0) / (y2 - y0);
 465:gfx.c         ****                  */
 466:gfx.c         ****                 if(a > b) _swap_int16_t(a,b);
 2796              		.loc 1 466 0
 2797 01cc B7F93E20 		ldrsh	r2, [r7, #62]
 2798 01d0 B7F93C30 		ldrsh	r3, [r7, #60]
 2799 01d4 9A42     		cmp	r2, r3
 2800 01d6 05DD     		ble	.L82
 2801              	.LBB17:
 2802              		.loc 1 466 0 is_stmt 0 discriminator 1
 2803 01d8 FB8F     		ldrh	r3, [r7, #62]	@ movhi
 2804 01da FB82     		strh	r3, [r7, #22]	@ movhi
 2805 01dc BB8F     		ldrh	r3, [r7, #60]	@ movhi
 2806 01de FB87     		strh	r3, [r7, #62]	@ movhi
 2807 01e0 FB8A     		ldrh	r3, [r7, #22]	@ movhi
 2808 01e2 BB87     		strh	r3, [r7, #60]	@ movhi
 2809              	.L82:
 2810              	.LBE17:
 467:gfx.c         ****                 GFXwriteFastHLine(myGFX,a, y, b-a+1, color);
 2811              		.loc 1 467 0 is_stmt 1 discriminator 2
 2812 01e4 BA8F     		ldrh	r2, [r7, #60]
 2813 01e6 FB8F     		ldrh	r3, [r7, #62]
 2814 01e8 D31A     		subs	r3, r2, r3
 2815 01ea 9BB2     		uxth	r3, r3
 2816 01ec 0133     		adds	r3, r3, #1
 2817 01ee 9BB2     		uxth	r3, r3
 2818 01f0 18B2     		sxth	r0, r3
 2819 01f2 B7F93A20 		ldrsh	r2, [r7, #58]
 2820 01f6 B7F93E10 		ldrsh	r1, [r7, #62]
 2821 01fa B7F85430 		ldrh	r3, [r7, #84]
 2822 01fe 0093     		str	r3, [sp]
 2823 0200 0346     		mov	r3, r0
 2824 0202 F868     		ldr	r0, [r7, #12]
 2825 0204 FFF7FEFF 		bl	GFXwriteFastHLine
 457:gfx.c         ****                 a   = x0 + sa / dy01;
ARM GAS  C:\Users\JEFFSN~1\AppData\Local\Temp\ccogK82D.s 			page 59


 2826              		.loc 1 457 0 discriminator 2
 2827 0208 B7F93A30 		ldrsh	r3, [r7, #58]
 2828 020c 9BB2     		uxth	r3, r3
 2829 020e 0133     		adds	r3, r3, #1
 2830 0210 9BB2     		uxth	r3, r3
 2831 0212 7B87     		strh	r3, [r7, #58]	@ movhi
 2832              	.L81:
 457:gfx.c         ****                 a   = x0 + sa / dy01;
 2833              		.loc 1 457 0 is_stmt 0 discriminator 1
 2834 0214 B7F93A20 		ldrsh	r2, [r7, #58]
 2835 0218 B7F93830 		ldrsh	r3, [r7, #56]
 2836 021c 9A42     		cmp	r2, r3
 2837 021e B7DD     		ble	.L83
 468:gfx.c         ****             }
 469:gfx.c         ****             
 470:gfx.c         ****             // For lower part of triangle, find scanline crossings for segments
 471:gfx.c         ****             // 0-2 and 1-2.  This loop is skipped if y1=y2.
 472:gfx.c         ****             sa = dx12 * (y - y1);
 2838              		.loc 1 472 0 is_stmt 1
 2839 0220 B7F91A30 		ldrsh	r3, [r7, #26]
 2840 0224 B7F93A10 		ldrsh	r1, [r7, #58]
 2841 0228 B7F94820 		ldrsh	r2, [r7, #72]
 2842 022c 8A1A     		subs	r2, r1, r2
 2843 022e 02FB03F3 		mul	r3, r2, r3
 2844 0232 7B63     		str	r3, [r7, #52]
 473:gfx.c         ****             sb = dx02 * (y - y0);
 2845              		.loc 1 473 0
 2846 0234 B7F91E30 		ldrsh	r3, [r7, #30]
 2847 0238 B7F93A10 		ldrsh	r1, [r7, #58]
 2848 023c B7F90820 		ldrsh	r2, [r7, #8]
 2849 0240 8A1A     		subs	r2, r1, r2
 2850 0242 02FB03F3 		mul	r3, r2, r3
 2851 0246 3B63     		str	r3, [r7, #48]
 474:gfx.c         ****             for(; y<=y2; y++) {
 2852              		.loc 1 474 0
 2853 0248 41E0     		b	.L84
 2854              	.L86:
 475:gfx.c         ****                 a   = x1 + sa / dy12;
 2855              		.loc 1 475 0
 2856 024a B7F91830 		ldrsh	r3, [r7, #24]
 2857 024e 7A6B     		ldr	r2, [r7, #52]
 2858 0250 92FBF3F3 		sdiv	r3, r2, r3
 2859 0254 9AB2     		uxth	r2, r3
 2860 0256 FB88     		ldrh	r3, [r7, #6]
 2861 0258 1344     		add	r3, r3, r2
 2862 025a 9BB2     		uxth	r3, r3
 2863 025c FB87     		strh	r3, [r7, #62]	@ movhi
 476:gfx.c         ****                 b   = x0 + sb / dy02;
 2864              		.loc 1 476 0
 2865 025e B7F91C30 		ldrsh	r3, [r7, #28]
 2866 0262 3A6B     		ldr	r2, [r7, #48]
 2867 0264 92FBF3F3 		sdiv	r3, r2, r3
 2868 0268 9AB2     		uxth	r2, r3
 2869 026a 7B89     		ldrh	r3, [r7, #10]
 2870 026c 1344     		add	r3, r3, r2
 2871 026e 9BB2     		uxth	r3, r3
 2872 0270 BB87     		strh	r3, [r7, #60]	@ movhi
ARM GAS  C:\Users\JEFFSN~1\AppData\Local\Temp\ccogK82D.s 			page 60


 477:gfx.c         ****                 sa += dx12;
 2873              		.loc 1 477 0
 2874 0272 B7F91A30 		ldrsh	r3, [r7, #26]
 2875 0276 7A6B     		ldr	r2, [r7, #52]
 2876 0278 1344     		add	r3, r3, r2
 2877 027a 7B63     		str	r3, [r7, #52]
 478:gfx.c         ****                 sb += dx02;
 2878              		.loc 1 478 0
 2879 027c B7F91E30 		ldrsh	r3, [r7, #30]
 2880 0280 3A6B     		ldr	r2, [r7, #48]
 2881 0282 1344     		add	r3, r3, r2
 2882 0284 3B63     		str	r3, [r7, #48]
 479:gfx.c         ****                 /* longhand:
 480:gfx.c         ****                  a = x1 + (x2 - x1) * (y - y1) / (y2 - y1);
 481:gfx.c         ****                  b = x0 + (x2 - x0) * (y - y0) / (y2 - y0);
 482:gfx.c         ****                  */
 483:gfx.c         ****                 if(a > b) _swap_int16_t(a,b);
 2883              		.loc 1 483 0
 2884 0286 B7F93E20 		ldrsh	r2, [r7, #62]
 2885 028a B7F93C30 		ldrsh	r3, [r7, #60]
 2886 028e 9A42     		cmp	r2, r3
 2887 0290 05DD     		ble	.L85
 2888              	.LBB18:
 2889              		.loc 1 483 0 is_stmt 0 discriminator 1
 2890 0292 FB8F     		ldrh	r3, [r7, #62]	@ movhi
 2891 0294 BB82     		strh	r3, [r7, #20]	@ movhi
 2892 0296 BB8F     		ldrh	r3, [r7, #60]	@ movhi
 2893 0298 FB87     		strh	r3, [r7, #62]	@ movhi
 2894 029a BB8A     		ldrh	r3, [r7, #20]	@ movhi
 2895 029c BB87     		strh	r3, [r7, #60]	@ movhi
 2896              	.L85:
 2897              	.LBE18:
 484:gfx.c         ****                 GFXwriteFastHLine(myGFX, a, y, b-a+1, color);
 2898              		.loc 1 484 0 is_stmt 1
 2899 029e BA8F     		ldrh	r2, [r7, #60]
 2900 02a0 FB8F     		ldrh	r3, [r7, #62]
 2901 02a2 D31A     		subs	r3, r2, r3
 2902 02a4 9BB2     		uxth	r3, r3
 2903 02a6 0133     		adds	r3, r3, #1
 2904 02a8 9BB2     		uxth	r3, r3
 2905 02aa 18B2     		sxth	r0, r3
 2906 02ac B7F93A20 		ldrsh	r2, [r7, #58]
 2907 02b0 B7F93E10 		ldrsh	r1, [r7, #62]
 2908 02b4 B7F85430 		ldrh	r3, [r7, #84]
 2909 02b8 0093     		str	r3, [sp]
 2910 02ba 0346     		mov	r3, r0
 2911 02bc F868     		ldr	r0, [r7, #12]
 2912 02be FFF7FEFF 		bl	GFXwriteFastHLine
 474:gfx.c         ****                 a   = x1 + sa / dy12;
 2913              		.loc 1 474 0
 2914 02c2 B7F93A30 		ldrsh	r3, [r7, #58]
 2915 02c6 9BB2     		uxth	r3, r3
 2916 02c8 0133     		adds	r3, r3, #1
 2917 02ca 9BB2     		uxth	r3, r3
 2918 02cc 7B87     		strh	r3, [r7, #58]	@ movhi
 2919              	.L84:
 474:gfx.c         ****                 a   = x1 + sa / dy12;
ARM GAS  C:\Users\JEFFSN~1\AppData\Local\Temp\ccogK82D.s 			page 61


 2920              		.loc 1 474 0 is_stmt 0 discriminator 1
 2921 02ce B7F93A20 		ldrsh	r2, [r7, #58]
 2922 02d2 B7F95030 		ldrsh	r3, [r7, #80]
 2923 02d6 9A42     		cmp	r2, r3
 2924 02d8 B7DD     		ble	.L86
 2925              	.L69:
 485:gfx.c         ****             }
 486:gfx.c         ****             
 487:gfx.c         ****         }
 2926              		.loc 1 487 0 is_stmt 1
 2927 02da 4037     		adds	r7, r7, #64
 2928              		.cfi_def_cfa_offset 8
 2929 02dc BD46     		mov	sp, r7
 2930              		.cfi_def_cfa_register 13
 2931              		@ sp needed
 2932 02de 80BD     		pop	{r7, pc}
 2933              		.cfi_endproc
 2934              	.LFE86:
 2935              		.size	GFXfillTriangle, .-GFXfillTriangle
 2936              		.section	.text.GFXdrawBitmap,"ax",%progbits
 2937              		.align	2
 2938              		.global	GFXdrawBitmap
 2939              		.thumb
 2940              		.thumb_func
 2941              		.type	GFXdrawBitmap, %function
 2942              	GFXdrawBitmap:
 2943              	.LFB87:
 488:gfx.c         ****         
 489:gfx.c         ****         // BITMAP / XBITMAP / GRAYSCALE / RGB BITMAP FUNCTIONS ---------------------
 490:gfx.c         ****         
 491:gfx.c         ****         
 492:gfx.c         ****         
 493:gfx.c         ****         // Draw a RAM-resident 1-bit image at the specified (x,y) position,
 494:gfx.c         ****         // using the specified foreground (for set bits) and background (unset
 495:gfx.c         ****         // bits) colors.
 496:gfx.c         ****         void GFXdrawBitmap(GFX* myGFX, int16_t x, int16_t y,
 497:gfx.c         ****                            uint8_t *bitmap, int16_t w, int16_t h, uint16_t color, uint16_t bg) {
 2944              		.loc 1 497 0
 2945              		.cfi_startproc
 2946              		@ args = 16, pretend = 0, frame = 24
 2947              		@ frame_needed = 1, uses_anonymous_args = 0
 2948 0000 80B5     		push	{r7, lr}
 2949              		.cfi_def_cfa_offset 8
 2950              		.cfi_offset 7, -8
 2951              		.cfi_offset 14, -4
 2952 0002 86B0     		sub	sp, sp, #24
 2953              		.cfi_def_cfa_offset 32
 2954 0004 00AF     		add	r7, sp, #0
 2955              		.cfi_def_cfa_register 7
 2956 0006 F860     		str	r0, [r7, #12]
 2957 0008 7B60     		str	r3, [r7, #4]
 2958 000a 0B46     		mov	r3, r1	@ movhi
 2959 000c 7B81     		strh	r3, [r7, #10]	@ movhi
 2960 000e 1346     		mov	r3, r2	@ movhi
 2961 0010 3B81     		strh	r3, [r7, #8]	@ movhi
 498:gfx.c         ****             
 499:gfx.c         **** // Getting a bit messy with these #ifndefs but startWrite() and endWrite()
ARM GAS  C:\Users\JEFFSN~1\AppData\Local\Temp\ccogK82D.s 			page 62


 500:gfx.c         **** // don't seem to exist anywhere in the Vocodec code. Doesn't cause a build
 501:gfx.c         **** // error for the hardware version but does for JUCE version.
 502:gfx.c         **** #ifndef __cplusplus
 503:gfx.c         ****             int16_t byteWidth = (w + 7) / 8; // Bitmap scanline pad = whole byte
 2962              		.loc 1 503 0
 2963 0012 B7F92030 		ldrsh	r3, [r7, #32]
 2964 0016 0733     		adds	r3, r3, #7
 2965 0018 002B     		cmp	r3, #0
 2966 001a 00DA     		bge	.L88
 2967 001c 0733     		adds	r3, r3, #7
 2968              	.L88:
 2969 001e DB10     		asrs	r3, r3, #3
 2970 0020 3B82     		strh	r3, [r7, #16]	@ movhi
 504:gfx.c         ****             uint8_t byte = 0;
 2971              		.loc 1 504 0
 2972 0022 0023     		movs	r3, #0
 2973 0024 FB75     		strb	r3, [r7, #23]
 505:gfx.c         ****             startWrite();
 2974              		.loc 1 505 0
 2975 0026 FFF7FEFF 		bl	startWrite
 2976              	.LBB19:
 506:gfx.c         ****             for(int16_t j=0; j<h; j++, y++) {
 2977              		.loc 1 506 0
 2978 002a 0023     		movs	r3, #0
 2979 002c BB82     		strh	r3, [r7, #20]	@ movhi
 2980 002e 47E0     		b	.L89
 2981              	.L97:
 2982              	.LBB20:
 507:gfx.c         ****                 for(int16_t i=0; i<w; i++ ) {
 2983              		.loc 1 507 0
 2984 0030 0023     		movs	r3, #0
 2985 0032 7B82     		strh	r3, [r7, #18]	@ movhi
 2986 0034 32E0     		b	.L90
 2987              	.L96:
 508:gfx.c         ****                     if(i & 7) byte <<= 1;
 2988              		.loc 1 508 0
 2989 0036 7B8A     		ldrh	r3, [r7, #18]
 2990 0038 03F00703 		and	r3, r3, #7
 2991 003c 002B     		cmp	r3, #0
 2992 003e 03D0     		beq	.L91
 2993              		.loc 1 508 0 is_stmt 0 discriminator 1
 2994 0040 FB7D     		ldrb	r3, [r7, #23]
 2995 0042 5B00     		lsls	r3, r3, #1
 2996 0044 FB75     		strb	r3, [r7, #23]
 2997 0046 12E0     		b	.L92
 2998              	.L91:
 509:gfx.c         ****                     else      byte   = bitmap[j * byteWidth + i / 8];
 2999              		.loc 1 509 0 is_stmt 1
 3000 0048 B7F91430 		ldrsh	r3, [r7, #20]
 3001 004c B7F91020 		ldrsh	r2, [r7, #16]
 3002 0050 02FB03F2 		mul	r2, r2, r3
 3003 0054 B7F91230 		ldrsh	r3, [r7, #18]
 3004 0058 002B     		cmp	r3, #0
 3005 005a 00DA     		bge	.L93
 3006 005c 0733     		adds	r3, r3, #7
 3007              	.L93:
 3008 005e DB10     		asrs	r3, r3, #3
ARM GAS  C:\Users\JEFFSN~1\AppData\Local\Temp\ccogK82D.s 			page 63


 3009 0060 1BB2     		sxth	r3, r3
 3010 0062 1344     		add	r3, r3, r2
 3011 0064 1A46     		mov	r2, r3
 3012 0066 7B68     		ldr	r3, [r7, #4]
 3013 0068 1344     		add	r3, r3, r2
 3014 006a 1B78     		ldrb	r3, [r3]
 3015 006c FB75     		strb	r3, [r7, #23]
 3016              	.L92:
 510:gfx.c         ****                     GFXwritePixel(myGFX, x+i, y, (byte & 0x80) ? color : bg);
 3017              		.loc 1 510 0
 3018 006e 7A89     		ldrh	r2, [r7, #10]
 3019 0070 7B8A     		ldrh	r3, [r7, #18]
 3020 0072 1344     		add	r3, r3, r2
 3021 0074 9BB2     		uxth	r3, r3
 3022 0076 19B2     		sxth	r1, r3
 3023 0078 97F91730 		ldrsb	r3, [r7, #23]
 3024 007c 002B     		cmp	r3, #0
 3025 007e 01DA     		bge	.L94
 3026              		.loc 1 510 0 is_stmt 0 discriminator 1
 3027 0080 3B8D     		ldrh	r3, [r7, #40]
 3028 0082 00E0     		b	.L95
 3029              	.L94:
 3030              		.loc 1 510 0 discriminator 2
 3031 0084 BB8D     		ldrh	r3, [r7, #44]
 3032              	.L95:
 3033              		.loc 1 510 0 discriminator 4
 3034 0086 B7F90820 		ldrsh	r2, [r7, #8]
 3035 008a F868     		ldr	r0, [r7, #12]
 3036 008c FFF7FEFF 		bl	GFXwritePixel
 507:gfx.c         ****                     if(i & 7) byte <<= 1;
 3037              		.loc 1 507 0 is_stmt 1 discriminator 4
 3038 0090 B7F91230 		ldrsh	r3, [r7, #18]
 3039 0094 9BB2     		uxth	r3, r3
 3040 0096 0133     		adds	r3, r3, #1
 3041 0098 9BB2     		uxth	r3, r3
 3042 009a 7B82     		strh	r3, [r7, #18]	@ movhi
 3043              	.L90:
 507:gfx.c         ****                     if(i & 7) byte <<= 1;
 3044              		.loc 1 507 0 is_stmt 0 discriminator 2
 3045 009c B7F91220 		ldrsh	r2, [r7, #18]
 3046 00a0 B7F92030 		ldrsh	r3, [r7, #32]
 3047 00a4 9A42     		cmp	r2, r3
 3048 00a6 C6DB     		blt	.L96
 3049              	.LBE20:
 506:gfx.c         ****                 for(int16_t i=0; i<w; i++ ) {
 3050              		.loc 1 506 0 is_stmt 1 discriminator 2
 3051 00a8 B7F91430 		ldrsh	r3, [r7, #20]
 3052 00ac 9BB2     		uxth	r3, r3
 3053 00ae 0133     		adds	r3, r3, #1
 3054 00b0 9BB2     		uxth	r3, r3
 3055 00b2 BB82     		strh	r3, [r7, #20]	@ movhi
 3056 00b4 B7F90830 		ldrsh	r3, [r7, #8]
 3057 00b8 9BB2     		uxth	r3, r3
 3058 00ba 0133     		adds	r3, r3, #1
 3059 00bc 9BB2     		uxth	r3, r3
 3060 00be 3B81     		strh	r3, [r7, #8]	@ movhi
 3061              	.L89:
ARM GAS  C:\Users\JEFFSN~1\AppData\Local\Temp\ccogK82D.s 			page 64


 506:gfx.c         ****                 for(int16_t i=0; i<w; i++ ) {
 3062              		.loc 1 506 0 is_stmt 0 discriminator 1
 3063 00c0 B7F91420 		ldrsh	r2, [r7, #20]
 3064 00c4 B7F92430 		ldrsh	r3, [r7, #36]
 3065 00c8 9A42     		cmp	r2, r3
 3066 00ca B1DB     		blt	.L97
 3067              	.LBE19:
 511:gfx.c         ****                 }
 512:gfx.c         ****             }
 513:gfx.c         ****             endWrite();
 3068              		.loc 1 513 0 is_stmt 1
 3069 00cc FFF7FEFF 		bl	endWrite
 514:gfx.c         **** #endif
 515:gfx.c         ****         }
 3070              		.loc 1 515 0
 3071 00d0 00BF     		nop
 3072 00d2 1837     		adds	r7, r7, #24
 3073              		.cfi_def_cfa_offset 8
 3074 00d4 BD46     		mov	sp, r7
 3075              		.cfi_def_cfa_register 13
 3076              		@ sp needed
 3077 00d6 80BD     		pop	{r7, pc}
 3078              		.cfi_endproc
 3079              	.LFE87:
 3080              		.size	GFXdrawBitmap, .-GFXdrawBitmap
 3081              		.section	.text.GFXdrawChar,"ax",%progbits
 3082              		.align	2
 3083              		.global	GFXdrawChar
 3084              		.thumb
 3085              		.thumb_func
 3086              		.type	GFXdrawChar, %function
 3087              	GFXdrawChar:
 3088              	.LFB88:
 516:gfx.c         ****         
 517:gfx.c         ****         
 518:gfx.c         ****         
 519:gfx.c         ****         // TEXT- AND CHARACTER-HANDLING FUNCTIONS ----------------------------------
 520:gfx.c         ****         
 521:gfx.c         ****         // Draw a character
 522:gfx.c         ****         void GFXdrawChar(GFX* myGFX, int16_t x, int16_t y, unsigned char c,
 523:gfx.c         ****                          uint16_t color, uint16_t bg, uint8_t size) {
 3089              		.loc 1 523 0
 3090              		.cfi_startproc
 3091              		@ args = 12, pretend = 0, frame = 48
 3092              		@ frame_needed = 1, uses_anonymous_args = 0
 3093 0000 90B5     		push	{r4, r7, lr}
 3094              		.cfi_def_cfa_offset 12
 3095              		.cfi_offset 4, -12
 3096              		.cfi_offset 7, -8
 3097              		.cfi_offset 14, -4
 3098 0002 8FB0     		sub	sp, sp, #60
 3099              		.cfi_def_cfa_offset 72
 3100 0004 02AF     		add	r7, sp, #8
 3101              		.cfi_def_cfa 7, 64
 3102 0006 F860     		str	r0, [r7, #12]
 3103 0008 0846     		mov	r0, r1
 3104 000a 1146     		mov	r1, r2
ARM GAS  C:\Users\JEFFSN~1\AppData\Local\Temp\ccogK82D.s 			page 65


 3105 000c 1A46     		mov	r2, r3
 3106 000e 0346     		mov	r3, r0	@ movhi
 3107 0010 7B81     		strh	r3, [r7, #10]	@ movhi
 3108 0012 0B46     		mov	r3, r1	@ movhi
 3109 0014 3B81     		strh	r3, [r7, #8]	@ movhi
 3110 0016 1346     		mov	r3, r2
 3111 0018 FB71     		strb	r3, [r7, #7]
 524:gfx.c         ****             
 525:gfx.c         ****             if(!myGFX->gfxFont) { // 'Classic' built-in font
 3112              		.loc 1 525 0
 3113 001a FB68     		ldr	r3, [r7, #12]
 3114 001c 9B69     		ldr	r3, [r3, #24]
 3115 001e 002B     		cmp	r3, #0
 3116 0020 40F02E81 		bne	.L99
 526:gfx.c         ****                 
 527:gfx.c         ****                 if((x >= myGFX->_width)            || // Clip right
 3117              		.loc 1 527 0
 3118 0024 B7F90A30 		ldrsh	r3, [r7, #10]
 3119 0028 FA68     		ldr	r2, [r7, #12]
 3120 002a 9288     		ldrh	r2, [r2, #4]
 3121 002c 9342     		cmp	r3, r2
 3122 002e 80F2E981 		bge	.L123
 528:gfx.c         ****                    (y >= myGFX->_height)           || // Clip bottom
 3123              		.loc 1 528 0 discriminator 1
 3124 0032 B7F90830 		ldrsh	r3, [r7, #8]
 3125 0036 FA68     		ldr	r2, [r7, #12]
 3126 0038 D288     		ldrh	r2, [r2, #6]
 527:gfx.c         ****                    (y >= myGFX->_height)           || // Clip bottom
 3127              		.loc 1 527 0 discriminator 1
 3128 003a 9342     		cmp	r3, r2
 3129 003c 80F2E281 		bge	.L123
 529:gfx.c         ****                    ((x + 6 * size - 1) < 0) || // Clip left
 3130              		.loc 1 529 0
 3131 0040 B7F90A10 		ldrsh	r1, [r7, #10]
 3132 0044 97F84820 		ldrb	r2, [r7, #72]	@ zero_extendqisi2
 3133 0048 1346     		mov	r3, r2
 3134 004a 5B00     		lsls	r3, r3, #1
 3135 004c 1344     		add	r3, r3, r2
 3136 004e 5B00     		lsls	r3, r3, #1
 3137 0050 0B44     		add	r3, r3, r1
 3138 0052 013B     		subs	r3, r3, #1
 528:gfx.c         ****                    (y >= myGFX->_height)           || // Clip bottom
 3139              		.loc 1 528 0
 3140 0054 002B     		cmp	r3, #0
 3141 0056 C0F2D581 		blt	.L123
 530:gfx.c         ****                    ((y + 8 * size - 1) < 0))   // Clip top
 3142              		.loc 1 530 0
 3143 005a B7F90820 		ldrsh	r2, [r7, #8]
 3144 005e 97F84830 		ldrb	r3, [r7, #72]	@ zero_extendqisi2
 3145 0062 DB00     		lsls	r3, r3, #3
 3146 0064 1344     		add	r3, r3, r2
 3147 0066 013B     		subs	r3, r3, #1
 529:gfx.c         ****                    ((x + 6 * size - 1) < 0) || // Clip left
 3148              		.loc 1 529 0
 3149 0068 002B     		cmp	r3, #0
 3150 006a C0F2CB81 		blt	.L123
 531:gfx.c         ****                     return;
ARM GAS  C:\Users\JEFFSN~1\AppData\Local\Temp\ccogK82D.s 			page 66


 532:gfx.c         ****                 
 533:gfx.c         ****                 if(!myGFX->_cp437 && (c >= 176)) c++; // Handle 'classic' charset behavior
 3151              		.loc 1 533 0
 3152 006e FB68     		ldr	r3, [r7, #12]
 3153 0070 DB8A     		ldrh	r3, [r3, #22]
 3154 0072 002B     		cmp	r3, #0
 3155 0074 05D1     		bne	.L103
 3156              		.loc 1 533 0 is_stmt 0 discriminator 1
 3157 0076 FB79     		ldrb	r3, [r7, #7]	@ zero_extendqisi2
 3158 0078 AF2B     		cmp	r3, #175
 3159 007a 02D9     		bls	.L103
 3160              		.loc 1 533 0 discriminator 2
 3161 007c FB79     		ldrb	r3, [r7, #7]	@ zero_extendqisi2
 3162 007e 0133     		adds	r3, r3, #1
 3163 0080 FB71     		strb	r3, [r7, #7]
 3164              	.L103:
 3165              	.LBB21:
 534:gfx.c         ****                 
 535:gfx.c         ****                 //startWrite();
 536:gfx.c         ****                 for(int8_t i=0; i<5; i++ ) { // Char bitmap = 5 columns
 3166              		.loc 1 536 0 is_stmt 1
 3167 0082 0023     		movs	r3, #0
 3168 0084 87F82F30 		strb	r3, [r7, #47]
 3169 0088 BCE0     		b	.L104
 3170              	.L112:
 3171              	.LBB22:
 537:gfx.c         ****                     uint8_t line = pgm_read_byte(&myGFX->gfxFont[c * 5 + i]);
 3172              		.loc 1 537 0
 3173 008a FB68     		ldr	r3, [r7, #12]
 3174 008c 9969     		ldr	r1, [r3, #24]
 3175 008e FA79     		ldrb	r2, [r7, #7]	@ zero_extendqisi2
 3176 0090 1346     		mov	r3, r2
 3177 0092 9B00     		lsls	r3, r3, #2
 3178 0094 1A44     		add	r2, r2, r3
 3179 0096 97F92F30 		ldrsb	r3, [r7, #47]
 3180 009a 1344     		add	r3, r3, r2
 3181 009c 1A46     		mov	r2, r3
 3182 009e 1346     		mov	r3, r2
 3183 00a0 5B00     		lsls	r3, r3, #1
 3184 00a2 1344     		add	r3, r3, r2
 3185 00a4 9B00     		lsls	r3, r3, #2
 3186 00a6 0B44     		add	r3, r3, r1
 3187 00a8 1B78     		ldrb	r3, [r3]
 3188 00aa 87F82E30 		strb	r3, [r7, #46]
 3189              	.LBB23:
 538:gfx.c         ****                     for(int8_t j=0; j<8; j++, line >>= 1) {
 3190              		.loc 1 538 0
 3191 00ae 0023     		movs	r3, #0
 3192 00b0 87F82D30 		strb	r3, [r7, #45]
 3193 00b4 9AE0     		b	.L105
 3194              	.L111:
 539:gfx.c         ****                         if(line & 1) {
 3195              		.loc 1 539 0
 3196 00b6 97F82E30 		ldrb	r3, [r7, #46]	@ zero_extendqisi2
 3197 00ba 03F00103 		and	r3, r3, #1
 3198 00be 002B     		cmp	r3, #0
 3199 00c0 41D0     		beq	.L106
ARM GAS  C:\Users\JEFFSN~1\AppData\Local\Temp\ccogK82D.s 			page 67


 540:gfx.c         ****                             if(size == 1)
 3200              		.loc 1 540 0
 3201 00c2 97F84830 		ldrb	r3, [r7, #72]	@ zero_extendqisi2
 3202 00c6 012B     		cmp	r3, #1
 3203 00c8 13D1     		bne	.L107
 541:gfx.c         ****                                 GFXwritePixel(myGFX,x+i, y+j, color);
 3204              		.loc 1 541 0
 3205 00ca 97F92F30 		ldrsb	r3, [r7, #47]
 3206 00ce 9AB2     		uxth	r2, r3
 3207 00d0 7B89     		ldrh	r3, [r7, #10]
 3208 00d2 1344     		add	r3, r3, r2
 3209 00d4 9BB2     		uxth	r3, r3
 3210 00d6 19B2     		sxth	r1, r3
 3211 00d8 97F92D30 		ldrsb	r3, [r7, #45]
 3212 00dc 9AB2     		uxth	r2, r3
 3213 00de 3B89     		ldrh	r3, [r7, #8]
 3214 00e0 1344     		add	r3, r3, r2
 3215 00e2 9BB2     		uxth	r3, r3
 3216 00e4 1AB2     		sxth	r2, r3
 3217 00e6 B7F84030 		ldrh	r3, [r7, #64]
 3218 00ea F868     		ldr	r0, [r7, #12]
 3219 00ec FFF7FEFF 		bl	GFXwritePixel
 3220 00f0 70E0     		b	.L109
 3221              	.L107:
 542:gfx.c         ****                             else
 543:gfx.c         ****                                 GFXwriteFillRect(myGFX,x+i*size, y+j*size, size, size, color);
 3222              		.loc 1 543 0
 3223 00f2 97F92F30 		ldrsb	r3, [r7, #47]
 3224 00f6 9BB2     		uxth	r3, r3
 3225 00f8 97F84820 		ldrb	r2, [r7, #72]	@ zero_extendqisi2
 3226 00fc 92B2     		uxth	r2, r2
 3227 00fe 02FB03F3 		mul	r3, r2, r3
 3228 0102 9AB2     		uxth	r2, r3
 3229 0104 7B89     		ldrh	r3, [r7, #10]
 3230 0106 1344     		add	r3, r3, r2
 3231 0108 9BB2     		uxth	r3, r3
 3232 010a 19B2     		sxth	r1, r3
 3233 010c 97F92D30 		ldrsb	r3, [r7, #45]
 3234 0110 9BB2     		uxth	r3, r3
 3235 0112 97F84820 		ldrb	r2, [r7, #72]	@ zero_extendqisi2
 3236 0116 92B2     		uxth	r2, r2
 3237 0118 02FB03F3 		mul	r3, r2, r3
 3238 011c 9AB2     		uxth	r2, r3
 3239 011e 3B89     		ldrh	r3, [r7, #8]
 3240 0120 1344     		add	r3, r3, r2
 3241 0122 9BB2     		uxth	r3, r3
 3242 0124 18B2     		sxth	r0, r3
 3243 0126 97F84830 		ldrb	r3, [r7, #72]	@ zero_extendqisi2
 3244 012a 1CB2     		sxth	r4, r3
 3245 012c 97F84830 		ldrb	r3, [r7, #72]	@ zero_extendqisi2
 3246 0130 1BB2     		sxth	r3, r3
 3247 0132 B7F84020 		ldrh	r2, [r7, #64]
 3248 0136 0192     		str	r2, [sp, #4]
 3249 0138 0093     		str	r3, [sp]
 3250 013a 2346     		mov	r3, r4
 3251 013c 0246     		mov	r2, r0
 3252 013e F868     		ldr	r0, [r7, #12]
ARM GAS  C:\Users\JEFFSN~1\AppData\Local\Temp\ccogK82D.s 			page 68


 3253 0140 FFF7FEFF 		bl	GFXwriteFillRect
 3254 0144 46E0     		b	.L109
 3255              	.L106:
 544:gfx.c         ****                         } else if(bg != color) {
 3256              		.loc 1 544 0
 3257 0146 B7F84420 		ldrh	r2, [r7, #68]
 3258 014a B7F84030 		ldrh	r3, [r7, #64]
 3259 014e 9A42     		cmp	r2, r3
 3260 0150 40D0     		beq	.L109
 545:gfx.c         ****                             if(size == 1)
 3261              		.loc 1 545 0
 3262 0152 97F84830 		ldrb	r3, [r7, #72]	@ zero_extendqisi2
 3263 0156 012B     		cmp	r3, #1
 3264 0158 13D1     		bne	.L110
 546:gfx.c         ****                                 GFXwritePixel(myGFX,x+i, y+j, bg);
 3265              		.loc 1 546 0
 3266 015a 97F92F30 		ldrsb	r3, [r7, #47]
 3267 015e 9AB2     		uxth	r2, r3
 3268 0160 7B89     		ldrh	r3, [r7, #10]
 3269 0162 1344     		add	r3, r3, r2
 3270 0164 9BB2     		uxth	r3, r3
 3271 0166 19B2     		sxth	r1, r3
 3272 0168 97F92D30 		ldrsb	r3, [r7, #45]
 3273 016c 9AB2     		uxth	r2, r3
 3274 016e 3B89     		ldrh	r3, [r7, #8]
 3275 0170 1344     		add	r3, r3, r2
 3276 0172 9BB2     		uxth	r3, r3
 3277 0174 1AB2     		sxth	r2, r3
 3278 0176 B7F84430 		ldrh	r3, [r7, #68]
 3279 017a F868     		ldr	r0, [r7, #12]
 3280 017c FFF7FEFF 		bl	GFXwritePixel
 3281 0180 28E0     		b	.L109
 3282              	.L110:
 547:gfx.c         ****                             else
 548:gfx.c         ****                                 GFXwriteFillRect(myGFX,x+i*size, y+j*size, size, size, bg);
 3283              		.loc 1 548 0
 3284 0182 97F92F30 		ldrsb	r3, [r7, #47]
 3285 0186 9BB2     		uxth	r3, r3
 3286 0188 97F84820 		ldrb	r2, [r7, #72]	@ zero_extendqisi2
 3287 018c 92B2     		uxth	r2, r2
 3288 018e 02FB03F3 		mul	r3, r2, r3
 3289 0192 9AB2     		uxth	r2, r3
 3290 0194 7B89     		ldrh	r3, [r7, #10]
 3291 0196 1344     		add	r3, r3, r2
 3292 0198 9BB2     		uxth	r3, r3
 3293 019a 19B2     		sxth	r1, r3
 3294 019c 97F92D30 		ldrsb	r3, [r7, #45]
 3295 01a0 9BB2     		uxth	r3, r3
 3296 01a2 97F84820 		ldrb	r2, [r7, #72]	@ zero_extendqisi2
 3297 01a6 92B2     		uxth	r2, r2
 3298 01a8 02FB03F3 		mul	r3, r2, r3
 3299 01ac 9AB2     		uxth	r2, r3
 3300 01ae 3B89     		ldrh	r3, [r7, #8]
 3301 01b0 1344     		add	r3, r3, r2
 3302 01b2 9BB2     		uxth	r3, r3
 3303 01b4 18B2     		sxth	r0, r3
 3304 01b6 97F84830 		ldrb	r3, [r7, #72]	@ zero_extendqisi2
ARM GAS  C:\Users\JEFFSN~1\AppData\Local\Temp\ccogK82D.s 			page 69


 3305 01ba 1CB2     		sxth	r4, r3
 3306 01bc 97F84830 		ldrb	r3, [r7, #72]	@ zero_extendqisi2
 3307 01c0 1BB2     		sxth	r3, r3
 3308 01c2 B7F84420 		ldrh	r2, [r7, #68]
 3309 01c6 0192     		str	r2, [sp, #4]
 3310 01c8 0093     		str	r3, [sp]
 3311 01ca 2346     		mov	r3, r4
 3312 01cc 0246     		mov	r2, r0
 3313 01ce F868     		ldr	r0, [r7, #12]
 3314 01d0 FFF7FEFF 		bl	GFXwriteFillRect
 3315              	.L109:
 538:gfx.c         ****                         if(line & 1) {
 3316              		.loc 1 538 0 discriminator 2
 3317 01d4 97F92D30 		ldrsb	r3, [r7, #45]
 3318 01d8 DBB2     		uxtb	r3, r3
 3319 01da 0133     		adds	r3, r3, #1
 3320 01dc DBB2     		uxtb	r3, r3
 3321 01de 87F82D30 		strb	r3, [r7, #45]
 3322 01e2 97F82E30 		ldrb	r3, [r7, #46]	@ zero_extendqisi2
 3323 01e6 5B08     		lsrs	r3, r3, #1
 3324 01e8 87F82E30 		strb	r3, [r7, #46]
 3325              	.L105:
 538:gfx.c         ****                         if(line & 1) {
 3326              		.loc 1 538 0 is_stmt 0 discriminator 1
 3327 01ec 97F92D30 		ldrsb	r3, [r7, #45]
 3328 01f0 072B     		cmp	r3, #7
 3329 01f2 7FF760AF 		ble	.L111
 3330              	.LBE23:
 3331              	.LBE22:
 536:gfx.c         ****                     uint8_t line = pgm_read_byte(&myGFX->gfxFont[c * 5 + i]);
 3332              		.loc 1 536 0 is_stmt 1 discriminator 2
 3333 01f6 97F92F30 		ldrsb	r3, [r7, #47]
 3334 01fa DBB2     		uxtb	r3, r3
 3335 01fc 0133     		adds	r3, r3, #1
 3336 01fe DBB2     		uxtb	r3, r3
 3337 0200 87F82F30 		strb	r3, [r7, #47]
 3338              	.L104:
 536:gfx.c         ****                     uint8_t line = pgm_read_byte(&myGFX->gfxFont[c * 5 + i]);
 3339              		.loc 1 536 0 is_stmt 0 discriminator 1
 3340 0204 97F92F30 		ldrsb	r3, [r7, #47]
 3341 0208 042B     		cmp	r3, #4
 3342 020a 7FF73EAF 		ble	.L112
 3343              	.LBE21:
 549:gfx.c         ****                         }
 550:gfx.c         ****                     }
 551:gfx.c         ****                 }
 552:gfx.c         ****                 if(bg != color) { // If opaque, draw vertical line for last column
 3344              		.loc 1 552 0 is_stmt 1
 3345 020e B7F84420 		ldrh	r2, [r7, #68]
 3346 0212 B7F84030 		ldrh	r3, [r7, #64]
 3347 0216 9A42     		cmp	r2, r3
 3348 0218 00F0F580 		beq	.L98
 553:gfx.c         ****                     if(size == 1) GFXwriteFastVLine(myGFX,x+5, y, 8, bg);
 3349              		.loc 1 553 0
 3350 021c 97F84830 		ldrb	r3, [r7, #72]	@ zero_extendqisi2
 3351 0220 012B     		cmp	r3, #1
 3352 0222 0DD1     		bne	.L114
ARM GAS  C:\Users\JEFFSN~1\AppData\Local\Temp\ccogK82D.s 			page 70


 3353              		.loc 1 553 0 is_stmt 0 discriminator 1
 3354 0224 7B89     		ldrh	r3, [r7, #10]
 3355 0226 0533     		adds	r3, r3, #5
 3356 0228 9BB2     		uxth	r3, r3
 3357 022a 19B2     		sxth	r1, r3
 3358 022c B7F90820 		ldrsh	r2, [r7, #8]
 3359 0230 B7F84430 		ldrh	r3, [r7, #68]
 3360 0234 0093     		str	r3, [sp]
 3361 0236 0823     		movs	r3, #8
 3362 0238 F868     		ldr	r0, [r7, #12]
 3363 023a FFF7FEFF 		bl	GFXwriteFastVLine
 3364 023e E2E0     		b	.L98
 3365              	.L114:
 554:gfx.c         ****                     else          GFXwriteFillRect(myGFX,x+5*size, y, size, 8*size, bg);
 3366              		.loc 1 554 0 is_stmt 1
 3367 0240 97F84830 		ldrb	r3, [r7, #72]	@ zero_extendqisi2
 3368 0244 9BB2     		uxth	r3, r3
 3369 0246 1A46     		mov	r2, r3	@ movhi
 3370 0248 9200     		lsls	r2, r2, #2
 3371 024a 1344     		add	r3, r3, r2
 3372 024c 9AB2     		uxth	r2, r3
 3373 024e 7B89     		ldrh	r3, [r7, #10]
 3374 0250 1344     		add	r3, r3, r2
 3375 0252 9BB2     		uxth	r3, r3
 3376 0254 19B2     		sxth	r1, r3
 3377 0256 97F84830 		ldrb	r3, [r7, #72]	@ zero_extendqisi2
 3378 025a 1CB2     		sxth	r4, r3
 3379 025c 97F84830 		ldrb	r3, [r7, #72]	@ zero_extendqisi2
 3380 0260 9BB2     		uxth	r3, r3
 3381 0262 DB00     		lsls	r3, r3, #3
 3382 0264 9BB2     		uxth	r3, r3
 3383 0266 1BB2     		sxth	r3, r3
 3384 0268 B7F90800 		ldrsh	r0, [r7, #8]
 3385 026c B7F84420 		ldrh	r2, [r7, #68]
 3386 0270 0192     		str	r2, [sp, #4]
 3387 0272 0093     		str	r3, [sp]
 3388 0274 2346     		mov	r3, r4
 3389 0276 0246     		mov	r2, r0
 3390 0278 F868     		ldr	r0, [r7, #12]
 3391 027a FFF7FEFF 		bl	GFXwriteFillRect
 3392 027e C2E0     		b	.L98
 3393              	.L99:
 3394              	.LBB24:
 555:gfx.c         ****                 }
 556:gfx.c         ****                 //endWrite();
 557:gfx.c         ****                 
 558:gfx.c         ****             } else { // Custom font
 559:gfx.c         ****                 
 560:gfx.c         ****                 // Character is assumed previously filtered by write() to eliminate
 561:gfx.c         ****                 // newlines, returns, non-printable characters, etc.  Calling
 562:gfx.c         ****                 // drawChar() directly with 'bad' characters of font may cause mayhem!
 563:gfx.c         ****                 
 564:gfx.c         ****                 c -= (uint8_t)pgm_read_byte(&myGFX->gfxFont->first);
 3395              		.loc 1 564 0
 3396 0280 FB68     		ldr	r3, [r7, #12]
 3397 0282 9B69     		ldr	r3, [r3, #24]
 3398 0284 0833     		adds	r3, r3, #8
ARM GAS  C:\Users\JEFFSN~1\AppData\Local\Temp\ccogK82D.s 			page 71


 3399 0286 1B78     		ldrb	r3, [r3]	@ zero_extendqisi2
 3400 0288 FA79     		ldrb	r2, [r7, #7]
 3401 028a D31A     		subs	r3, r2, r3
 3402 028c FB71     		strb	r3, [r7, #7]
 565:gfx.c         ****                 GFXglyph *glyph  = &(((GFXglyph *)pgm_read_pointer(&myGFX->gfxFont->glyph))[c]);
 3403              		.loc 1 565 0
 3404 028e FB79     		ldrb	r3, [r7, #7]	@ zero_extendqisi2
 3405 0290 DA00     		lsls	r2, r3, #3
 3406 0292 FB68     		ldr	r3, [r7, #12]
 3407 0294 9B69     		ldr	r3, [r3, #24]
 3408 0296 0433     		adds	r3, r3, #4
 3409 0298 18CB     		ldmia	r3, {r3-r4}
 3410 029a 1344     		add	r3, r3, r2
 3411 029c FB61     		str	r3, [r7, #28]
 566:gfx.c         ****                 uint8_t  *bitmap = (uint8_t *)pgm_read_pointer(&myGFX->gfxFont->bitmap);
 3412              		.loc 1 566 0
 3413 029e FB68     		ldr	r3, [r7, #12]
 3414 02a0 9B69     		ldr	r3, [r3, #24]
 3415 02a2 18CB     		ldmia	r3, {r3-r4}
 3416 02a4 BB61     		str	r3, [r7, #24]
 567:gfx.c         ****                 
 568:gfx.c         ****                 uint16_t bo = pgm_read_word(&glyph->bitmapOffset);
 3417              		.loc 1 568 0
 3418 02a6 FB69     		ldr	r3, [r7, #28]
 3419 02a8 1B88     		ldrh	r3, [r3]	@ movhi
 3420 02aa 7B85     		strh	r3, [r7, #42]	@ movhi
 569:gfx.c         ****                 uint8_t  w  = pgm_read_byte(&glyph->width),
 3421              		.loc 1 569 0
 3422 02ac FB69     		ldr	r3, [r7, #28]
 3423 02ae 9B78     		ldrb	r3, [r3, #2]
 3424 02b0 FB75     		strb	r3, [r7, #23]
 570:gfx.c         ****                 h  = pgm_read_byte(&glyph->height);
 3425              		.loc 1 570 0
 3426 02b2 FB69     		ldr	r3, [r7, #28]
 3427 02b4 DB78     		ldrb	r3, [r3, #3]
 3428 02b6 BB75     		strb	r3, [r7, #22]
 571:gfx.c         ****                 int8_t   xo = pgm_read_byte(&glyph->xOffset),
 3429              		.loc 1 571 0
 3430 02b8 FB69     		ldr	r3, [r7, #28]
 3431 02ba 0533     		adds	r3, r3, #5
 3432 02bc 1B78     		ldrb	r3, [r3]	@ zero_extendqisi2
 3433 02be 7B75     		strb	r3, [r7, #21]
 572:gfx.c         ****                 yo = pgm_read_byte(&glyph->yOffset);
 3434              		.loc 1 572 0
 3435 02c0 FB69     		ldr	r3, [r7, #28]
 3436 02c2 0633     		adds	r3, r3, #6
 3437 02c4 1B78     		ldrb	r3, [r3]	@ zero_extendqisi2
 3438 02c6 3B75     		strb	r3, [r7, #20]
 573:gfx.c         ****                 uint8_t  xx, yy, bits = 0, bit = 0;
 3439              		.loc 1 573 0
 3440 02c8 0023     		movs	r3, #0
 3441 02ca 87F82730 		strb	r3, [r7, #39]
 3442 02ce 0023     		movs	r3, #0
 3443 02d0 87F82630 		strb	r3, [r7, #38]
 574:gfx.c         ****                 int16_t  xo16 = 0, yo16 = 0;
 3444              		.loc 1 574 0
 3445 02d4 0023     		movs	r3, #0
ARM GAS  C:\Users\JEFFSN~1\AppData\Local\Temp\ccogK82D.s 			page 72


 3446 02d6 BB84     		strh	r3, [r7, #36]	@ movhi
 3447 02d8 0023     		movs	r3, #0
 3448 02da 7B84     		strh	r3, [r7, #34]	@ movhi
 575:gfx.c         ****                 
 576:gfx.c         ****                 if(size > 1) {
 3449              		.loc 1 576 0
 3450 02dc 97F84830 		ldrb	r3, [r7, #72]	@ zero_extendqisi2
 3451 02e0 012B     		cmp	r3, #1
 3452 02e2 05D9     		bls	.L115
 577:gfx.c         ****                     xo16 = xo;
 3453              		.loc 1 577 0
 3454 02e4 97F91530 		ldrsb	r3, [r7, #21]
 3455 02e8 BB84     		strh	r3, [r7, #36]	@ movhi
 578:gfx.c         ****                     yo16 = yo;
 3456              		.loc 1 578 0
 3457 02ea 97F91430 		ldrsb	r3, [r7, #20]
 3458 02ee 7B84     		strh	r3, [r7, #34]	@ movhi
 3459              	.L115:
 579:gfx.c         ****                 }
 580:gfx.c         ****                 
 581:gfx.c         ****                 // Todo: Add character clipping here
 582:gfx.c         ****                 
 583:gfx.c         ****                 // NOTE: THERE IS NO 'BACKGROUND' COLOR OPTION ON CUSTOM FONTS.
 584:gfx.c         ****                 // THIS IS ON PURPOSE AND BY DESIGN.  The background color feature
 585:gfx.c         ****                 // has typically been used with the 'classic' font to overwrite old
 586:gfx.c         ****                 // screen contents with new data.  This ONLY works because the
 587:gfx.c         ****                 // characters are a uniform size; it's not a sensible thing to do with
 588:gfx.c         ****                 // proportionally-spaced fonts with glyphs of varying sizes (and that
 589:gfx.c         ****                 // may overlap).  To replace previously-drawn text when using a custom
 590:gfx.c         ****                 // font, use the getTextBounds() function to determine the smallest
 591:gfx.c         ****                 // rectangle encompassing a string, erase the area with fillRect(),
 592:gfx.c         ****                 // then draw new text.  This WILL infortunately 'blink' the text, but
 593:gfx.c         ****                 // is unavoidable.  Drawing 'background' pixels will NOT fix this,
 594:gfx.c         ****                 // only creates a new set of problems.  Have an idea to work around
 595:gfx.c         ****                 // this (a canvas object type for MCUs that can afford the RAM and
 596:gfx.c         ****                 // displays supporting setAddrWindow() and pushColors()), but haven't
 597:gfx.c         ****                 // implemented this yet.
 598:gfx.c         ****                 
 599:gfx.c         ****                 //startWrite();
 600:gfx.c         ****                 for(yy=0; yy<h; yy++) {
 3460              		.loc 1 600 0
 3461 02f0 0023     		movs	r3, #0
 3462 02f2 87F82830 		strb	r3, [r7, #40]
 3463 02f6 7EE0     		b	.L116
 3464              	.L122:
 601:gfx.c         ****                     for(xx=0; xx<w; xx++) {
 3465              		.loc 1 601 0
 3466 02f8 0023     		movs	r3, #0
 3467 02fa 87F82930 		strb	r3, [r7, #41]
 3468 02fe 70E0     		b	.L117
 3469              	.L121:
 602:gfx.c         ****                         if(!(bit++ & 7)) {
 3470              		.loc 1 602 0
 3471 0300 97F82630 		ldrb	r3, [r7, #38]	@ zero_extendqisi2
 3472 0304 5A1C     		adds	r2, r3, #1
 3473 0306 87F82620 		strb	r2, [r7, #38]
 3474 030a 03F00703 		and	r3, r3, #7
ARM GAS  C:\Users\JEFFSN~1\AppData\Local\Temp\ccogK82D.s 			page 73


 3475 030e 002B     		cmp	r3, #0
 3476 0310 08D1     		bne	.L118
 603:gfx.c         ****                             bits = pgm_read_byte(&bitmap[bo++]);
 3477              		.loc 1 603 0
 3478 0312 7B8D     		ldrh	r3, [r7, #42]
 3479 0314 5A1C     		adds	r2, r3, #1
 3480 0316 7A85     		strh	r2, [r7, #42]	@ movhi
 3481 0318 1A46     		mov	r2, r3
 3482 031a BB69     		ldr	r3, [r7, #24]
 3483 031c 1344     		add	r3, r3, r2
 3484 031e 1B78     		ldrb	r3, [r3]
 3485 0320 87F82730 		strb	r3, [r7, #39]
 3486              	.L118:
 604:gfx.c         ****                         }
 605:gfx.c         ****                         if(bits & 0x80) {
 3487              		.loc 1 605 0
 3488 0324 97F92730 		ldrsb	r3, [r7, #39]
 3489 0328 002B     		cmp	r3, #0
 3490 032a 50DA     		bge	.L119
 606:gfx.c         ****                             if(size == 1) {
 3491              		.loc 1 606 0
 3492 032c 97F84830 		ldrb	r3, [r7, #72]	@ zero_extendqisi2
 3493 0330 012B     		cmp	r3, #1
 3494 0332 1DD1     		bne	.L120
 607:gfx.c         ****                                 GFXwritePixel(myGFX,x+xo+xx, y+yo+yy, color);
 3495              		.loc 1 607 0
 3496 0334 97F91530 		ldrsb	r3, [r7, #21]
 3497 0338 9AB2     		uxth	r2, r3
 3498 033a 7B89     		ldrh	r3, [r7, #10]
 3499 033c 1344     		add	r3, r3, r2
 3500 033e 9AB2     		uxth	r2, r3
 3501 0340 97F82930 		ldrb	r3, [r7, #41]	@ zero_extendqisi2
 3502 0344 9BB2     		uxth	r3, r3
 3503 0346 1344     		add	r3, r3, r2
 3504 0348 9BB2     		uxth	r3, r3
 3505 034a 19B2     		sxth	r1, r3
 3506 034c 97F91430 		ldrsb	r3, [r7, #20]
 3507 0350 9AB2     		uxth	r2, r3
 3508 0352 3B89     		ldrh	r3, [r7, #8]
 3509 0354 1344     		add	r3, r3, r2
 3510 0356 9AB2     		uxth	r2, r3
 3511 0358 97F82830 		ldrb	r3, [r7, #40]	@ zero_extendqisi2
 3512 035c 9BB2     		uxth	r3, r3
 3513 035e 1344     		add	r3, r3, r2
 3514 0360 9BB2     		uxth	r3, r3
 3515 0362 1AB2     		sxth	r2, r3
 3516 0364 B7F84030 		ldrh	r3, [r7, #64]
 3517 0368 F868     		ldr	r0, [r7, #12]
 3518 036a FFF7FEFF 		bl	GFXwritePixel
 3519 036e 2EE0     		b	.L119
 3520              	.L120:
 608:gfx.c         ****                             } else {
 609:gfx.c         ****                                 GFXwriteFillRect(myGFX,x+(xo16+xx)*size, y+(yo16+yy)*size,
 3521              		.loc 1 609 0
 3522 0370 B7F92420 		ldrsh	r2, [r7, #36]
 3523 0374 97F82930 		ldrb	r3, [r7, #41]	@ zero_extendqisi2
 3524 0378 1344     		add	r3, r3, r2
ARM GAS  C:\Users\JEFFSN~1\AppData\Local\Temp\ccogK82D.s 			page 74


 3525 037a 9BB2     		uxth	r3, r3
 3526 037c 97F84820 		ldrb	r2, [r7, #72]	@ zero_extendqisi2
 3527 0380 92B2     		uxth	r2, r2
 3528 0382 02FB03F3 		mul	r3, r2, r3
 3529 0386 9AB2     		uxth	r2, r3
 3530 0388 7B89     		ldrh	r3, [r7, #10]
 3531 038a 1344     		add	r3, r3, r2
 3532 038c 9BB2     		uxth	r3, r3
 3533 038e 19B2     		sxth	r1, r3
 3534 0390 B7F92220 		ldrsh	r2, [r7, #34]
 3535 0394 97F82830 		ldrb	r3, [r7, #40]	@ zero_extendqisi2
 3536 0398 1344     		add	r3, r3, r2
 3537 039a 9BB2     		uxth	r3, r3
 3538 039c 97F84820 		ldrb	r2, [r7, #72]	@ zero_extendqisi2
 3539 03a0 92B2     		uxth	r2, r2
 3540 03a2 02FB03F3 		mul	r3, r2, r3
 3541 03a6 9AB2     		uxth	r2, r3
 3542 03a8 3B89     		ldrh	r3, [r7, #8]
 3543 03aa 1344     		add	r3, r3, r2
 3544 03ac 9BB2     		uxth	r3, r3
 3545 03ae 18B2     		sxth	r0, r3
 3546 03b0 97F84830 		ldrb	r3, [r7, #72]	@ zero_extendqisi2
 3547 03b4 1CB2     		sxth	r4, r3
 3548 03b6 97F84830 		ldrb	r3, [r7, #72]	@ zero_extendqisi2
 3549 03ba 1BB2     		sxth	r3, r3
 3550 03bc B7F84020 		ldrh	r2, [r7, #64]
 3551 03c0 0192     		str	r2, [sp, #4]
 3552 03c2 0093     		str	r3, [sp]
 3553 03c4 2346     		mov	r3, r4
 3554 03c6 0246     		mov	r2, r0
 3555 03c8 F868     		ldr	r0, [r7, #12]
 3556 03ca FFF7FEFF 		bl	GFXwriteFillRect
 3557              	.L119:
 610:gfx.c         ****                                                  size, size, color);
 611:gfx.c         ****                             }
 612:gfx.c         ****                         }
 613:gfx.c         ****                         bits <<= 1;
 3558              		.loc 1 613 0 discriminator 2
 3559 03ce 97F82730 		ldrb	r3, [r7, #39]
 3560 03d2 5B00     		lsls	r3, r3, #1
 3561 03d4 87F82730 		strb	r3, [r7, #39]
 601:gfx.c         ****                         if(!(bit++ & 7)) {
 3562              		.loc 1 601 0 discriminator 2
 3563 03d8 97F82930 		ldrb	r3, [r7, #41]	@ zero_extendqisi2
 3564 03dc 0133     		adds	r3, r3, #1
 3565 03de 87F82930 		strb	r3, [r7, #41]
 3566              	.L117:
 601:gfx.c         ****                         if(!(bit++ & 7)) {
 3567              		.loc 1 601 0 is_stmt 0 discriminator 1
 3568 03e2 97F82920 		ldrb	r2, [r7, #41]	@ zero_extendqisi2
 3569 03e6 FB7D     		ldrb	r3, [r7, #23]	@ zero_extendqisi2
 3570 03e8 9A42     		cmp	r2, r3
 3571 03ea 89D3     		bcc	.L121
 600:gfx.c         ****                     for(xx=0; xx<w; xx++) {
 3572              		.loc 1 600 0 is_stmt 1 discriminator 2
 3573 03ec 97F82830 		ldrb	r3, [r7, #40]	@ zero_extendqisi2
 3574 03f0 0133     		adds	r3, r3, #1
ARM GAS  C:\Users\JEFFSN~1\AppData\Local\Temp\ccogK82D.s 			page 75


 3575 03f2 87F82830 		strb	r3, [r7, #40]
 3576              	.L116:
 600:gfx.c         ****                     for(xx=0; xx<w; xx++) {
 3577              		.loc 1 600 0 is_stmt 0 discriminator 1
 3578 03f6 97F82820 		ldrb	r2, [r7, #40]	@ zero_extendqisi2
 3579 03fa BB7D     		ldrb	r3, [r7, #22]	@ zero_extendqisi2
 3580 03fc 9A42     		cmp	r2, r3
 3581 03fe FFF47BAF 		bcc	.L122
 3582 0402 00E0     		b	.L98
 3583              	.L123:
 3584              	.LBE24:
 531:gfx.c         ****                 
 3585              		.loc 1 531 0 is_stmt 1
 3586 0404 00BF     		nop
 3587              	.L98:
 614:gfx.c         ****                     }
 615:gfx.c         ****                 }
 616:gfx.c         ****                 //endWrite();
 617:gfx.c         ****                 
 618:gfx.c         ****             } // End classic vs custom font
 619:gfx.c         ****         }
 3588              		.loc 1 619 0
 3589 0406 3437     		adds	r7, r7, #52
 3590              		.cfi_def_cfa_offset 12
 3591 0408 BD46     		mov	sp, r7
 3592              		.cfi_def_cfa_register 13
 3593              		@ sp needed
 3594 040a 90BD     		pop	{r4, r7, pc}
 3595              		.cfi_endproc
 3596              	.LFE88:
 3597              		.size	GFXdrawChar, .-GFXdrawChar
 3598              		.section	.text.GFXcheckScrollWrap,"ax",%progbits
 3599              		.align	2
 3600              		.global	GFXcheckScrollWrap
 3601              		.thumb
 3602              		.thumb_func
 3603              		.type	GFXcheckScrollWrap, %function
 3604              	GFXcheckScrollWrap:
 3605              	.LFB89:
 620:gfx.c         ****         
 621:gfx.c         ****         
 622:gfx.c         ****         void GFXcheckScrollWrap(GFX* myGFX, int16_t fontWidth) {
 3606              		.loc 1 622 0
 3607              		.cfi_startproc
 3608              		@ args = 0, pretend = 0, frame = 16
 3609              		@ frame_needed = 1, uses_anonymous_args = 0
 3610 0000 80B5     		push	{r7, lr}
 3611              		.cfi_def_cfa_offset 8
 3612              		.cfi_offset 7, -8
 3613              		.cfi_offset 14, -4
 3614 0002 84B0     		sub	sp, sp, #16
 3615              		.cfi_def_cfa_offset 24
 3616 0004 00AF     		add	r7, sp, #0
 3617              		.cfi_def_cfa_register 7
 3618 0006 7860     		str	r0, [r7, #4]
 3619 0008 0B46     		mov	r3, r1
 3620 000a 7B80     		strh	r3, [r7, #2]	@ movhi
ARM GAS  C:\Users\JEFFSN~1\AppData\Local\Temp\ccogK82D.s 			page 76


 623:gfx.c         ****             if(myGFX->wrap && ((myGFX->cursor_x + fontWidth) >= myGFX->_width)) { // Heading off ed
 3621              		.loc 1 623 0
 3622 000c 7B68     		ldr	r3, [r7, #4]
 3623 000e 9B8A     		ldrh	r3, [r3, #20]
 3624 0010 002B     		cmp	r3, #0
 3625 0012 19D0     		beq	.L125
 3626              		.loc 1 623 0 is_stmt 0 discriminator 1
 3627 0014 7B68     		ldr	r3, [r7, #4]
 3628 0016 9B89     		ldrh	r3, [r3, #12]
 3629 0018 1A46     		mov	r2, r3
 3630 001a B7F90230 		ldrsh	r3, [r7, #2]
 3631 001e 1344     		add	r3, r3, r2
 3632 0020 7A68     		ldr	r2, [r7, #4]
 3633 0022 9288     		ldrh	r2, [r2, #4]
 3634 0024 9342     		cmp	r3, r2
 3635 0026 0FDB     		blt	.L125
 624:gfx.c         ****                 myGFX->cursor_x  = 0;            // Reset x to zero
 3636              		.loc 1 624 0 is_stmt 1
 3637 0028 7B68     		ldr	r3, [r7, #4]
 3638 002a 0022     		movs	r2, #0
 3639 002c 9A81     		strh	r2, [r3, #12]	@ movhi
 625:gfx.c         ****                 myGFX->cursor_y += myGFX->fontHeight * myGFX->textsize; // Advance y one line
 3640              		.loc 1 625 0
 3641 002e 7B68     		ldr	r3, [r7, #4]
 3642 0030 5A89     		ldrh	r2, [r3, #10]
 3643 0032 7B68     		ldr	r3, [r7, #4]
 3644 0034 9B8B     		ldrh	r3, [r3, #28]
 3645 0036 7968     		ldr	r1, [r7, #4]
 3646 0038 C989     		ldrh	r1, [r1, #14]
 3647 003a 01FB03F3 		mul	r3, r1, r3
 3648 003e 9BB2     		uxth	r3, r3
 3649 0040 1344     		add	r3, r3, r2
 3650 0042 9AB2     		uxth	r2, r3
 3651 0044 7B68     		ldr	r3, [r7, #4]
 3652 0046 5A81     		strh	r2, [r3, #10]	@ movhi
 3653              	.L125:
 626:gfx.c         ****             }
 627:gfx.c         ****             
 628:gfx.c         ****             if (myGFX->autoscroll) {
 3654              		.loc 1 628 0
 3655 0048 7B68     		ldr	r3, [r7, #4]
 3656 004a 1B8C     		ldrh	r3, [r3, #32]
 3657 004c 002B     		cmp	r3, #0
 3658 004e 4FD0     		beq	.L131
 3659              	.LBB25:
 629:gfx.c         ****                 int16_t fontOffset;
 630:gfx.c         ****                 
 631:gfx.c         ****                 if(!myGFX->gfxFont) { // 'Classic' built-in font
 3660              		.loc 1 631 0
 3661 0050 7B68     		ldr	r3, [r7, #4]
 3662 0052 9B69     		ldr	r3, [r3, #24]
 3663 0054 002B     		cmp	r3, #0
 3664 0056 0AD1     		bne	.L127
 632:gfx.c         ****                     fontOffset = (myGFX->fontHeight * myGFX->textsize)-1; // cursor defines upper l
 3665              		.loc 1 632 0
 3666 0058 7B68     		ldr	r3, [r7, #4]
 3667 005a 9B8B     		ldrh	r3, [r3, #28]
ARM GAS  C:\Users\JEFFSN~1\AppData\Local\Temp\ccogK82D.s 			page 77


 3668 005c 7A68     		ldr	r2, [r7, #4]
 3669 005e D289     		ldrh	r2, [r2, #14]
 3670 0060 02FB03F3 		mul	r3, r2, r3
 3671 0064 9BB2     		uxth	r3, r3
 3672 0066 013B     		subs	r3, r3, #1
 3673 0068 9BB2     		uxth	r3, r3
 3674 006a FB81     		strh	r3, [r7, #14]	@ movhi
 3675 006c 01E0     		b	.L128
 3676              	.L127:
 633:gfx.c         ****                 } else {       // Custom font
 634:gfx.c         ****                     fontOffset = 0;                         // cursor defines lower left corner of 
 3677              		.loc 1 634 0
 3678 006e 0023     		movs	r3, #0
 3679 0070 FB81     		strh	r3, [r7, #14]	@ movhi
 3680              	.L128:
 635:gfx.c         ****                 }
 636:gfx.c         ****                 
 637:gfx.c         ****                 // lower unified border of character
 638:gfx.c         ****                 // these does not apply to charachters like "g" oder "j" which will be cut off
 639:gfx.c         ****                 uint16_t cursor = myGFX->cursor_y + fontOffset + myGFX->fontDesc * myGFX->textsize;
 3681              		.loc 1 639 0
 3682 0072 7B68     		ldr	r3, [r7, #4]
 3683 0074 5A89     		ldrh	r2, [r3, #10]
 3684 0076 FB89     		ldrh	r3, [r7, #14]
 3685 0078 1344     		add	r3, r3, r2
 3686 007a 9AB2     		uxth	r2, r3
 3687 007c 7B68     		ldr	r3, [r7, #4]
 3688 007e DB8B     		ldrh	r3, [r3, #30]
 3689 0080 7968     		ldr	r1, [r7, #4]
 3690 0082 C989     		ldrh	r1, [r1, #14]
 3691 0084 01FB03F3 		mul	r3, r1, r3
 3692 0088 9BB2     		uxth	r3, r3
 3693 008a 1344     		add	r3, r3, r2
 3694 008c BB81     		strh	r3, [r7, #12]	@ movhi
 640:gfx.c         ****                 
 641:gfx.c         ****                 if (cursor >= myGFX->_height) {
 3695              		.loc 1 641 0
 3696 008e 7B68     		ldr	r3, [r7, #4]
 3697 0090 DB88     		ldrh	r3, [r3, #6]
 3698 0092 BA89     		ldrh	r2, [r7, #12]
 3699 0094 9A42     		cmp	r2, r3
 3700 0096 2BD3     		bcc	.L131
 642:gfx.c         ****                     GFXscrollUp(myGFX, cursor - myGFX->_height+1, myGFX->textcolor != myGFX->textbg
 3701              		.loc 1 642 0
 3702 0098 BB89     		ldrh	r3, [r7, #12]	@ movhi
 3703 009a DAB2     		uxtb	r2, r3
 3704 009c 7B68     		ldr	r3, [r7, #4]
 3705 009e DB88     		ldrh	r3, [r3, #6]
 3706 00a0 DBB2     		uxtb	r3, r3
 3707 00a2 D31A     		subs	r3, r2, r3
 3708 00a4 DBB2     		uxtb	r3, r3
 3709 00a6 0133     		adds	r3, r3, #1
 3710 00a8 D9B2     		uxtb	r1, r3
 3711 00aa 7B68     		ldr	r3, [r7, #4]
 3712 00ac 1A8A     		ldrh	r2, [r3, #16]
 3713 00ae 7B68     		ldr	r3, [r7, #4]
 3714 00b0 5B8A     		ldrh	r3, [r3, #18]
ARM GAS  C:\Users\JEFFSN~1\AppData\Local\Temp\ccogK82D.s 			page 78


 3715 00b2 9A42     		cmp	r2, r3
 3716 00b4 02D0     		beq	.L129
 3717              		.loc 1 642 0 is_stmt 0 discriminator 1
 3718 00b6 7B68     		ldr	r3, [r7, #4]
 3719 00b8 5B8A     		ldrh	r3, [r3, #18]
 3720 00ba 00E0     		b	.L130
 3721              	.L129:
 3722              		.loc 1 642 0 discriminator 2
 3723 00bc 0023     		movs	r3, #0
 3724              	.L130:
 3725              		.loc 1 642 0 discriminator 4
 3726 00be 1A46     		mov	r2, r3
 3727 00c0 7868     		ldr	r0, [r7, #4]
 3728 00c2 FFF7FEFF 		bl	GFXscrollUp
 643:gfx.c         ****                     
 644:gfx.c         ****                     myGFX->cursor_x  = 0;
 3729              		.loc 1 644 0 is_stmt 1 discriminator 4
 3730 00c6 7B68     		ldr	r3, [r7, #4]
 3731 00c8 0022     		movs	r2, #0
 3732 00ca 9A81     		strh	r2, [r3, #12]	@ movhi
 645:gfx.c         ****                     myGFX->cursor_y = myGFX->_height - fontOffset-1 - myGFX->fontDesc * myGFX->text
 3733              		.loc 1 645 0 discriminator 4
 3734 00cc 7B68     		ldr	r3, [r7, #4]
 3735 00ce DA88     		ldrh	r2, [r3, #6]
 3736 00d0 FB89     		ldrh	r3, [r7, #14]
 3737 00d2 D31A     		subs	r3, r2, r3
 3738 00d4 9AB2     		uxth	r2, r3
 3739 00d6 7B68     		ldr	r3, [r7, #4]
 3740 00d8 DB8B     		ldrh	r3, [r3, #30]
 3741 00da 7968     		ldr	r1, [r7, #4]
 3742 00dc C989     		ldrh	r1, [r1, #14]
 3743 00de 01FB03F3 		mul	r3, r1, r3
 3744 00e2 9BB2     		uxth	r3, r3
 3745 00e4 D31A     		subs	r3, r2, r3
 3746 00e6 9BB2     		uxth	r3, r3
 3747 00e8 013B     		subs	r3, r3, #1
 3748 00ea 9AB2     		uxth	r2, r3
 3749 00ec 7B68     		ldr	r3, [r7, #4]
 3750 00ee 5A81     		strh	r2, [r3, #10]	@ movhi
 3751              	.L131:
 3752              	.LBE25:
 646:gfx.c         ****                 }
 647:gfx.c         ****             }
 648:gfx.c         ****         }
 3753              		.loc 1 648 0
 3754 00f0 00BF     		nop
 3755 00f2 1037     		adds	r7, r7, #16
 3756              		.cfi_def_cfa_offset 8
 3757 00f4 BD46     		mov	sp, r7
 3758              		.cfi_def_cfa_register 13
 3759              		@ sp needed
 3760 00f6 80BD     		pop	{r7, pc}
 3761              		.cfi_endproc
 3762              	.LFE89:
 3763              		.size	GFXcheckScrollWrap, .-GFXcheckScrollWrap
 3764              		.section	.text.GFXwrite,"ax",%progbits
 3765              		.align	2
ARM GAS  C:\Users\JEFFSN~1\AppData\Local\Temp\ccogK82D.s 			page 79


 3766              		.global	GFXwrite
 3767              		.thumb
 3768              		.thumb_func
 3769              		.type	GFXwrite, %function
 3770              	GFXwrite:
 3771              	.LFB90:
 649:gfx.c         ****         
 650:gfx.c         ****         
 651:gfx.c         ****         void GFXwrite(GFX* myGFX, uint8_t c) {
 3772              		.loc 1 651 0
 3773              		.cfi_startproc
 3774              		@ args = 0, pretend = 0, frame = 24
 3775              		@ frame_needed = 1, uses_anonymous_args = 0
 3776 0000 B0B5     		push	{r4, r5, r7, lr}
 3777              		.cfi_def_cfa_offset 16
 3778              		.cfi_offset 4, -16
 3779              		.cfi_offset 5, -12
 3780              		.cfi_offset 7, -8
 3781              		.cfi_offset 14, -4
 3782 0002 8AB0     		sub	sp, sp, #40
 3783              		.cfi_def_cfa_offset 56
 3784 0004 04AF     		add	r7, sp, #16
 3785              		.cfi_def_cfa 7, 40
 3786 0006 7860     		str	r0, [r7, #4]
 3787 0008 0B46     		mov	r3, r1
 3788 000a FB70     		strb	r3, [r7, #3]
 652:gfx.c         ****             if(!myGFX->gfxFont) { // 'Classic' built-in font
 3789              		.loc 1 652 0
 3790 000c 7B68     		ldr	r3, [r7, #4]
 3791 000e 9B69     		ldr	r3, [r3, #24]
 3792 0010 002B     		cmp	r3, #0
 3793 0012 45D1     		bne	.L133
 653:gfx.c         ****                 if(c == '\n') {                        // Newline?
 3794              		.loc 1 653 0
 3795 0014 FB78     		ldrb	r3, [r7, #3]	@ zero_extendqisi2
 3796 0016 0A2B     		cmp	r3, #10
 3797 0018 10D1     		bne	.L134
 654:gfx.c         ****                     myGFX->cursor_y += myGFX->fontHeight * myGFX->textsize;
 3798              		.loc 1 654 0
 3799 001a 7B68     		ldr	r3, [r7, #4]
 3800 001c 5A89     		ldrh	r2, [r3, #10]
 3801 001e 7B68     		ldr	r3, [r7, #4]
 3802 0020 9B8B     		ldrh	r3, [r3, #28]
 3803 0022 7968     		ldr	r1, [r7, #4]
 3804 0024 C989     		ldrh	r1, [r1, #14]
 3805 0026 01FB03F3 		mul	r3, r1, r3
 3806 002a 9BB2     		uxth	r3, r3
 3807 002c 1344     		add	r3, r3, r2
 3808 002e 9AB2     		uxth	r2, r3
 3809 0030 7B68     		ldr	r3, [r7, #4]
 3810 0032 5A81     		strh	r2, [r3, #10]	@ movhi
 655:gfx.c         ****                     myGFX->cursor_x  = 0;                     // Reset x to zero,
 3811              		.loc 1 655 0
 3812 0034 7B68     		ldr	r3, [r7, #4]
 3813 0036 0022     		movs	r2, #0
 3814 0038 9A81     		strh	r2, [r3, #12]	@ movhi
 656:gfx.c         ****                     //cursor_y += textsize * 8;          // advance y one line
ARM GAS  C:\Users\JEFFSN~1\AppData\Local\Temp\ccogK82D.s 			page 80


 657:gfx.c         ****                 } else if(c != '\r') {                 // Ignore carriage returns
 658:gfx.c         ****                     // if(wrap && ((cursor_x + textsize * 6) > _width)) { // Off right?
 659:gfx.c         ****                     //     cursor_x  = 0;                 // Reset x to zero,
 660:gfx.c         ****                     //     cursor_y += textsize * 8;      // advance y one line
 661:gfx.c         ****                     // }
 662:gfx.c         ****                     GFXcheckScrollWrap(myGFX, myGFX->textsize * 6 - myGFX->textsize * 2);
 663:gfx.c         ****                     GFXdrawChar(myGFX, myGFX->cursor_x, myGFX->cursor_y, c, myGFX->textcolor, myGFX
 664:gfx.c         ****                     myGFX->cursor_x += myGFX->textsize * 6;          // Advance x one char
 665:gfx.c         ****                 }
 666:gfx.c         ****                 
 667:gfx.c         ****             } else { // Custom font
 668:gfx.c         ****                 
 669:gfx.c         ****                 if(c == '\n') {
 670:gfx.c         ****                     myGFX->cursor_x  = 0;
 671:gfx.c         ****                     myGFX->cursor_y += (int16_t)myGFX->textsize *
 672:gfx.c         ****                     (uint8_t)pgm_read_byte(&myGFX->gfxFont->yAdvance);
 673:gfx.c         ****                 } else if(c != '\r') {
 674:gfx.c         ****                     uint8_t first = pgm_read_byte(&myGFX->gfxFont->first);
 675:gfx.c         ****                     if((c >= first) && (c <= (uint8_t)pgm_read_byte(&myGFX->gfxFont->last))) {
 676:gfx.c         ****                         GFXglyph *glyph = &(((GFXglyph *)pgm_read_pointer(
 677:gfx.c         ****                                                                           &myGFX->gfxFont->glyph))[
 678:gfx.c         ****                         uint8_t   w     = pgm_read_byte(&glyph->width),
 679:gfx.c         ****                         h     = pgm_read_byte(&glyph->height);
 680:gfx.c         ****                         if((w > 0) && (h > 0)) { // Is there an associated bitmap?
 681:gfx.c         ****                             int16_t xo = (int8_t)pgm_read_byte(&glyph->xOffset); // sic
 682:gfx.c         ****                             GFXcheckScrollWrap(myGFX, myGFX->textsize * (xo + w));
 683:gfx.c         ****                             // if(wrap && ((cursor_x + textsize * (xo + w)) > _width)) {
 684:gfx.c         ****                             //     cursor_x  = 0;
 685:gfx.c         ****                             //     cursor_y += (int16_t)textsize *
 686:gfx.c         ****                             //       (uint8_t)pgm_read_byte(&gfxFont->yAdvance);
 687:gfx.c         ****                             // }
 688:gfx.c         ****                             GFXdrawChar(myGFX, myGFX->cursor_x, myGFX->cursor_y, c, myGFX->textcolo
 689:gfx.c         ****                         }
 690:gfx.c         ****                         myGFX->cursor_x += (uint8_t)pgm_read_byte(&glyph->xAdvance) * (int16_t)myGF
 691:gfx.c         ****                     }
 692:gfx.c         ****                 }
 693:gfx.c         ****                 
 694:gfx.c         ****             }
 695:gfx.c         ****         }
 3815              		.loc 1 695 0
 3816 003a AAE0     		b	.L139
 3817              	.L134:
 657:gfx.c         ****                     // if(wrap && ((cursor_x + textsize * 6) > _width)) { // Off right?
 3818              		.loc 1 657 0
 3819 003c FB78     		ldrb	r3, [r7, #3]	@ zero_extendqisi2
 3820 003e 0D2B     		cmp	r3, #13
 3821 0040 00F0A780 		beq	.L139
 662:gfx.c         ****                     GFXdrawChar(myGFX, myGFX->cursor_x, myGFX->cursor_y, c, myGFX->textcolor, myGFX
 3822              		.loc 1 662 0
 3823 0044 7B68     		ldr	r3, [r7, #4]
 3824 0046 DB89     		ldrh	r3, [r3, #14]
 3825 0048 9B00     		lsls	r3, r3, #2
 3826 004a 9BB2     		uxth	r3, r3
 3827 004c 1BB2     		sxth	r3, r3
 3828 004e 1946     		mov	r1, r3
 3829 0050 7868     		ldr	r0, [r7, #4]
 3830 0052 FFF7FEFF 		bl	GFXcheckScrollWrap
ARM GAS  C:\Users\JEFFSN~1\AppData\Local\Temp\ccogK82D.s 			page 81


 663:gfx.c         ****                     myGFX->cursor_x += myGFX->textsize * 6;          // Advance x one char
 3831              		.loc 1 663 0
 3832 0056 7B68     		ldr	r3, [r7, #4]
 3833 0058 9B89     		ldrh	r3, [r3, #12]
 3834 005a 18B2     		sxth	r0, r3
 3835 005c 7B68     		ldr	r3, [r7, #4]
 3836 005e 5B89     		ldrh	r3, [r3, #10]
 3837 0060 1CB2     		sxth	r4, r3
 3838 0062 7B68     		ldr	r3, [r7, #4]
 3839 0064 1B8A     		ldrh	r3, [r3, #16]
 3840 0066 7A68     		ldr	r2, [r7, #4]
 3841 0068 528A     		ldrh	r2, [r2, #18]
 3842 006a 7968     		ldr	r1, [r7, #4]
 3843 006c C989     		ldrh	r1, [r1, #14]
 3844 006e C9B2     		uxtb	r1, r1
 3845 0070 FD78     		ldrb	r5, [r7, #3]	@ zero_extendqisi2
 3846 0072 0291     		str	r1, [sp, #8]
 3847 0074 0192     		str	r2, [sp, #4]
 3848 0076 0093     		str	r3, [sp]
 3849 0078 2B46     		mov	r3, r5
 3850 007a 2246     		mov	r2, r4
 3851 007c 0146     		mov	r1, r0
 3852 007e 7868     		ldr	r0, [r7, #4]
 3853 0080 FFF7FEFF 		bl	GFXdrawChar
 664:gfx.c         ****                 }
 3854              		.loc 1 664 0
 3855 0084 7B68     		ldr	r3, [r7, #4]
 3856 0086 9A89     		ldrh	r2, [r3, #12]
 3857 0088 7B68     		ldr	r3, [r7, #4]
 3858 008a DB89     		ldrh	r3, [r3, #14]
 3859 008c 1946     		mov	r1, r3	@ movhi
 3860 008e 4900     		lsls	r1, r1, #1
 3861 0090 0B44     		add	r3, r3, r1
 3862 0092 5B00     		lsls	r3, r3, #1
 3863 0094 9BB2     		uxth	r3, r3
 3864 0096 1344     		add	r3, r3, r2
 3865 0098 9AB2     		uxth	r2, r3
 3866 009a 7B68     		ldr	r3, [r7, #4]
 3867 009c 9A81     		strh	r2, [r3, #12]	@ movhi
 3868              		.loc 1 695 0
 3869 009e 78E0     		b	.L139
 3870              	.L133:
 669:gfx.c         ****                     myGFX->cursor_x  = 0;
 3871              		.loc 1 669 0
 3872 00a0 FB78     		ldrb	r3, [r7, #3]	@ zero_extendqisi2
 3873 00a2 0A2B     		cmp	r3, #10
 3874 00a4 13D1     		bne	.L137
 670:gfx.c         ****                     myGFX->cursor_y += (int16_t)myGFX->textsize *
 3875              		.loc 1 670 0
 3876 00a6 7B68     		ldr	r3, [r7, #4]
 3877 00a8 0022     		movs	r2, #0
 3878 00aa 9A81     		strh	r2, [r3, #12]	@ movhi
 671:gfx.c         ****                     (uint8_t)pgm_read_byte(&myGFX->gfxFont->yAdvance);
 3879              		.loc 1 671 0
 3880 00ac 7B68     		ldr	r3, [r7, #4]
 3881 00ae 5A89     		ldrh	r2, [r3, #10]
 3882 00b0 7B68     		ldr	r3, [r7, #4]
ARM GAS  C:\Users\JEFFSN~1\AppData\Local\Temp\ccogK82D.s 			page 82


 3883 00b2 DB89     		ldrh	r3, [r3, #14]
 672:gfx.c         ****                 } else if(c != '\r') {
 3884              		.loc 1 672 0
 3885 00b4 7968     		ldr	r1, [r7, #4]
 3886 00b6 8969     		ldr	r1, [r1, #24]
 3887 00b8 0A31     		adds	r1, r1, #10
 3888 00ba 0978     		ldrb	r1, [r1]	@ zero_extendqisi2
 671:gfx.c         ****                     (uint8_t)pgm_read_byte(&myGFX->gfxFont->yAdvance);
 3889              		.loc 1 671 0
 3890 00bc 89B2     		uxth	r1, r1
 3891 00be 01FB03F3 		mul	r3, r1, r3
 3892 00c2 9BB2     		uxth	r3, r3
 3893 00c4 1344     		add	r3, r3, r2
 3894 00c6 9AB2     		uxth	r2, r3
 3895 00c8 7B68     		ldr	r3, [r7, #4]
 3896 00ca 5A81     		strh	r2, [r3, #10]	@ movhi
 3897              		.loc 1 695 0
 3898 00cc 61E0     		b	.L139
 3899              	.L137:
 673:gfx.c         ****                     uint8_t first = pgm_read_byte(&myGFX->gfxFont->first);
 3900              		.loc 1 673 0
 3901 00ce FB78     		ldrb	r3, [r7, #3]	@ zero_extendqisi2
 3902 00d0 0D2B     		cmp	r3, #13
 3903 00d2 5ED0     		beq	.L139
 3904              	.LBB26:
 674:gfx.c         ****                     if((c >= first) && (c <= (uint8_t)pgm_read_byte(&myGFX->gfxFont->last))) {
 3905              		.loc 1 674 0
 3906 00d4 7B68     		ldr	r3, [r7, #4]
 3907 00d6 9B69     		ldr	r3, [r3, #24]
 3908 00d8 1B7A     		ldrb	r3, [r3, #8]
 3909 00da FB75     		strb	r3, [r7, #23]
 675:gfx.c         ****                         GFXglyph *glyph = &(((GFXglyph *)pgm_read_pointer(
 3910              		.loc 1 675 0
 3911 00dc FA78     		ldrb	r2, [r7, #3]	@ zero_extendqisi2
 3912 00de FB7D     		ldrb	r3, [r7, #23]	@ zero_extendqisi2
 3913 00e0 9A42     		cmp	r2, r3
 3914 00e2 56D3     		bcc	.L139
 675:gfx.c         ****                         GFXglyph *glyph = &(((GFXglyph *)pgm_read_pointer(
 3915              		.loc 1 675 0 is_stmt 0 discriminator 1
 3916 00e4 7B68     		ldr	r3, [r7, #4]
 3917 00e6 9B69     		ldr	r3, [r3, #24]
 3918 00e8 0933     		adds	r3, r3, #9
 3919 00ea 1B78     		ldrb	r3, [r3]	@ zero_extendqisi2
 3920 00ec FA78     		ldrb	r2, [r7, #3]	@ zero_extendqisi2
 3921 00ee 9A42     		cmp	r2, r3
 3922 00f0 4FD8     		bhi	.L139
 3923              	.LBB27:
 677:gfx.c         ****                         uint8_t   w     = pgm_read_byte(&glyph->width),
 3924              		.loc 1 677 0 is_stmt 1
 3925 00f2 FA78     		ldrb	r2, [r7, #3]	@ zero_extendqisi2
 3926 00f4 FB7D     		ldrb	r3, [r7, #23]	@ zero_extendqisi2
 3927 00f6 D31A     		subs	r3, r2, r3
 3928 00f8 DA00     		lsls	r2, r3, #3
 676:gfx.c         ****                                                                           &myGFX->gfxFont->glyph))[
 3929              		.loc 1 676 0
 3930 00fa 7B68     		ldr	r3, [r7, #4]
 3931 00fc 9B69     		ldr	r3, [r3, #24]
ARM GAS  C:\Users\JEFFSN~1\AppData\Local\Temp\ccogK82D.s 			page 83


 3932 00fe 0433     		adds	r3, r3, #4
 3933 0100 18CB     		ldmia	r3, {r3-r4}
 677:gfx.c         ****                         uint8_t   w     = pgm_read_byte(&glyph->width),
 3934              		.loc 1 677 0
 3935 0102 1344     		add	r3, r3, r2
 676:gfx.c         ****                                                                           &myGFX->gfxFont->glyph))[
 3936              		.loc 1 676 0
 3937 0104 3B61     		str	r3, [r7, #16]
 678:gfx.c         ****                         h     = pgm_read_byte(&glyph->height);
 3938              		.loc 1 678 0
 3939 0106 3B69     		ldr	r3, [r7, #16]
 3940 0108 9B78     		ldrb	r3, [r3, #2]
 3941 010a FB73     		strb	r3, [r7, #15]
 679:gfx.c         ****                         if((w > 0) && (h > 0)) { // Is there an associated bitmap?
 3942              		.loc 1 679 0
 3943 010c 3B69     		ldr	r3, [r7, #16]
 3944 010e DB78     		ldrb	r3, [r3, #3]
 3945 0110 BB73     		strb	r3, [r7, #14]
 680:gfx.c         ****                             int16_t xo = (int8_t)pgm_read_byte(&glyph->xOffset); // sic
 3946              		.loc 1 680 0
 3947 0112 FB7B     		ldrb	r3, [r7, #15]	@ zero_extendqisi2
 3948 0114 002B     		cmp	r3, #0
 3949 0116 2DD0     		beq	.L138
 680:gfx.c         ****                             int16_t xo = (int8_t)pgm_read_byte(&glyph->xOffset); // sic
 3950              		.loc 1 680 0 is_stmt 0 discriminator 1
 3951 0118 BB7B     		ldrb	r3, [r7, #14]	@ zero_extendqisi2
 3952 011a 002B     		cmp	r3, #0
 3953 011c 2AD0     		beq	.L138
 3954              	.LBB28:
 681:gfx.c         ****                             GFXcheckScrollWrap(myGFX, myGFX->textsize * (xo + w));
 3955              		.loc 1 681 0 is_stmt 1
 3956 011e 3B69     		ldr	r3, [r7, #16]
 3957 0120 0533     		adds	r3, r3, #5
 3958 0122 1B78     		ldrb	r3, [r3]	@ zero_extendqisi2
 3959 0124 5BB2     		sxtb	r3, r3
 3960 0126 BB81     		strh	r3, [r7, #12]	@ movhi
 682:gfx.c         ****                             // if(wrap && ((cursor_x + textsize * (xo + w)) > _width)) {
 3961              		.loc 1 682 0
 3962 0128 7B68     		ldr	r3, [r7, #4]
 3963 012a DB89     		ldrh	r3, [r3, #14]
 3964 012c B7F90C10 		ldrsh	r1, [r7, #12]
 3965 0130 FA7B     		ldrb	r2, [r7, #15]	@ zero_extendqisi2
 3966 0132 0A44     		add	r2, r2, r1
 3967 0134 92B2     		uxth	r2, r2
 3968 0136 02FB03F3 		mul	r3, r2, r3
 3969 013a 9BB2     		uxth	r3, r3
 3970 013c 1BB2     		sxth	r3, r3
 3971 013e 1946     		mov	r1, r3
 3972 0140 7868     		ldr	r0, [r7, #4]
 3973 0142 FFF7FEFF 		bl	GFXcheckScrollWrap
 688:gfx.c         ****                         }
 3974              		.loc 1 688 0
 3975 0146 7B68     		ldr	r3, [r7, #4]
 3976 0148 9B89     		ldrh	r3, [r3, #12]
 3977 014a 18B2     		sxth	r0, r3
 3978 014c 7B68     		ldr	r3, [r7, #4]
 3979 014e 5B89     		ldrh	r3, [r3, #10]
ARM GAS  C:\Users\JEFFSN~1\AppData\Local\Temp\ccogK82D.s 			page 84


 3980 0150 1CB2     		sxth	r4, r3
 3981 0152 7B68     		ldr	r3, [r7, #4]
 3982 0154 1B8A     		ldrh	r3, [r3, #16]
 3983 0156 7A68     		ldr	r2, [r7, #4]
 3984 0158 528A     		ldrh	r2, [r2, #18]
 3985 015a 7968     		ldr	r1, [r7, #4]
 3986 015c C989     		ldrh	r1, [r1, #14]
 3987 015e C9B2     		uxtb	r1, r1
 3988 0160 FD78     		ldrb	r5, [r7, #3]	@ zero_extendqisi2
 3989 0162 0291     		str	r1, [sp, #8]
 3990 0164 0192     		str	r2, [sp, #4]
 3991 0166 0093     		str	r3, [sp]
 3992 0168 2B46     		mov	r3, r5
 3993 016a 2246     		mov	r2, r4
 3994 016c 0146     		mov	r1, r0
 3995 016e 7868     		ldr	r0, [r7, #4]
 3996 0170 FFF7FEFF 		bl	GFXdrawChar
 3997              	.L138:
 3998              	.LBE28:
 690:gfx.c         ****                     }
 3999              		.loc 1 690 0
 4000 0174 7B68     		ldr	r3, [r7, #4]
 4001 0176 9A89     		ldrh	r2, [r3, #12]
 4002 0178 3B69     		ldr	r3, [r7, #16]
 4003 017a 0433     		adds	r3, r3, #4
 4004 017c 1B78     		ldrb	r3, [r3]	@ zero_extendqisi2
 4005 017e 9BB2     		uxth	r3, r3
 4006 0180 7968     		ldr	r1, [r7, #4]
 4007 0182 C989     		ldrh	r1, [r1, #14]
 4008 0184 01FB03F3 		mul	r3, r1, r3
 4009 0188 9BB2     		uxth	r3, r3
 4010 018a 1344     		add	r3, r3, r2
 4011 018c 9AB2     		uxth	r2, r3
 4012 018e 7B68     		ldr	r3, [r7, #4]
 4013 0190 9A81     		strh	r2, [r3, #12]	@ movhi
 4014              	.L139:
 4015              	.LBE27:
 4016              	.LBE26:
 4017              		.loc 1 695 0
 4018 0192 00BF     		nop
 4019 0194 1837     		adds	r7, r7, #24
 4020              		.cfi_def_cfa_offset 16
 4021 0196 BD46     		mov	sp, r7
 4022              		.cfi_def_cfa_register 13
 4023              		@ sp needed
 4024 0198 B0BD     		pop	{r4, r5, r7, pc}
 4025              		.cfi_endproc
 4026              	.LFE90:
 4027              		.size	GFXwrite, .-GFXwrite
 4028 019a 00BF     		.section	.text.GFXsetCursor,"ax",%progbits
 4029              		.align	2
 4030              		.global	GFXsetCursor
 4031              		.thumb
 4032              		.thumb_func
 4033              		.type	GFXsetCursor, %function
 4034              	GFXsetCursor:
 4035              	.LFB91:
ARM GAS  C:\Users\JEFFSN~1\AppData\Local\Temp\ccogK82D.s 			page 85


 696:gfx.c         ****         
 697:gfx.c         ****         void GFXsetCursor(GFX* myGFX, int16_t x, int16_t y) {
 4036              		.loc 1 697 0
 4037              		.cfi_startproc
 4038              		@ args = 0, pretend = 0, frame = 8
 4039              		@ frame_needed = 1, uses_anonymous_args = 0
 4040              		@ link register save eliminated.
 4041 0000 80B4     		push	{r7}
 4042              		.cfi_def_cfa_offset 4
 4043              		.cfi_offset 7, -4
 4044 0002 83B0     		sub	sp, sp, #12
 4045              		.cfi_def_cfa_offset 16
 4046 0004 00AF     		add	r7, sp, #0
 4047              		.cfi_def_cfa_register 7
 4048 0006 7860     		str	r0, [r7, #4]
 4049 0008 0B46     		mov	r3, r1
 4050 000a 7B80     		strh	r3, [r7, #2]	@ movhi
 4051 000c 1346     		mov	r3, r2	@ movhi
 4052 000e 3B80     		strh	r3, [r7]	@ movhi
 698:gfx.c         ****             myGFX->cursor_x = x;
 4053              		.loc 1 698 0
 4054 0010 7A88     		ldrh	r2, [r7, #2]
 4055 0012 7B68     		ldr	r3, [r7, #4]
 4056 0014 9A81     		strh	r2, [r3, #12]	@ movhi
 699:gfx.c         ****             myGFX->cursor_y = y;
 4057              		.loc 1 699 0
 4058 0016 3A88     		ldrh	r2, [r7]
 4059 0018 7B68     		ldr	r3, [r7, #4]
 4060 001a 5A81     		strh	r2, [r3, #10]	@ movhi
 700:gfx.c         ****         }
 4061              		.loc 1 700 0
 4062 001c 00BF     		nop
 4063 001e 0C37     		adds	r7, r7, #12
 4064              		.cfi_def_cfa_offset 4
 4065 0020 BD46     		mov	sp, r7
 4066              		.cfi_def_cfa_register 13
 4067              		@ sp needed
 4068 0022 80BC     		pop	{r7}
 4069              		.cfi_restore 7
 4070              		.cfi_def_cfa_offset 0
 4071 0024 7047     		bx	lr
 4072              		.cfi_endproc
 4073              	.LFE91:
 4074              		.size	GFXsetCursor, .-GFXsetCursor
 4075 0026 00BF     		.section	.text.GFXgetCursorX,"ax",%progbits
 4076              		.align	2
 4077              		.global	GFXgetCursorX
 4078              		.thumb
 4079              		.thumb_func
 4080              		.type	GFXgetCursorX, %function
 4081              	GFXgetCursorX:
 4082              	.LFB92:
 701:gfx.c         ****         
 702:gfx.c         ****         int16_t GFXgetCursorX(GFX* myGFX)
 703:gfx.c         ****         {
 4083              		.loc 1 703 0
 4084              		.cfi_startproc
ARM GAS  C:\Users\JEFFSN~1\AppData\Local\Temp\ccogK82D.s 			page 86


 4085              		@ args = 0, pretend = 0, frame = 8
 4086              		@ frame_needed = 1, uses_anonymous_args = 0
 4087              		@ link register save eliminated.
 4088 0000 80B4     		push	{r7}
 4089              		.cfi_def_cfa_offset 4
 4090              		.cfi_offset 7, -4
 4091 0002 83B0     		sub	sp, sp, #12
 4092              		.cfi_def_cfa_offset 16
 4093 0004 00AF     		add	r7, sp, #0
 4094              		.cfi_def_cfa_register 7
 4095 0006 7860     		str	r0, [r7, #4]
 704:gfx.c         ****             return myGFX->cursor_x;
 4096              		.loc 1 704 0
 4097 0008 7B68     		ldr	r3, [r7, #4]
 4098 000a 9B89     		ldrh	r3, [r3, #12]
 4099 000c 1BB2     		sxth	r3, r3
 705:gfx.c         ****         }
 4100              		.loc 1 705 0
 4101 000e 1846     		mov	r0, r3
 4102 0010 0C37     		adds	r7, r7, #12
 4103              		.cfi_def_cfa_offset 4
 4104 0012 BD46     		mov	sp, r7
 4105              		.cfi_def_cfa_register 13
 4106              		@ sp needed
 4107 0014 80BC     		pop	{r7}
 4108              		.cfi_restore 7
 4109              		.cfi_def_cfa_offset 0
 4110 0016 7047     		bx	lr
 4111              		.cfi_endproc
 4112              	.LFE92:
 4113              		.size	GFXgetCursorX, .-GFXgetCursorX
 4114              		.section	.text.GFXgetCursorY,"ax",%progbits
 4115              		.align	2
 4116              		.global	GFXgetCursorY
 4117              		.thumb
 4118              		.thumb_func
 4119              		.type	GFXgetCursorY, %function
 4120              	GFXgetCursorY:
 4121              	.LFB93:
 706:gfx.c         ****         
 707:gfx.c         ****         int16_t GFXgetCursorY(GFX* myGFX)
 708:gfx.c         ****         {
 4122              		.loc 1 708 0
 4123              		.cfi_startproc
 4124              		@ args = 0, pretend = 0, frame = 8
 4125              		@ frame_needed = 1, uses_anonymous_args = 0
 4126              		@ link register save eliminated.
 4127 0000 80B4     		push	{r7}
 4128              		.cfi_def_cfa_offset 4
 4129              		.cfi_offset 7, -4
 4130 0002 83B0     		sub	sp, sp, #12
 4131              		.cfi_def_cfa_offset 16
 4132 0004 00AF     		add	r7, sp, #0
 4133              		.cfi_def_cfa_register 7
 4134 0006 7860     		str	r0, [r7, #4]
 709:gfx.c         ****             return myGFX->cursor_y;
 4135              		.loc 1 709 0
ARM GAS  C:\Users\JEFFSN~1\AppData\Local\Temp\ccogK82D.s 			page 87


 4136 0008 7B68     		ldr	r3, [r7, #4]
 4137 000a 5B89     		ldrh	r3, [r3, #10]
 4138 000c 1BB2     		sxth	r3, r3
 710:gfx.c         ****         }
 4139              		.loc 1 710 0
 4140 000e 1846     		mov	r0, r3
 4141 0010 0C37     		adds	r7, r7, #12
 4142              		.cfi_def_cfa_offset 4
 4143 0012 BD46     		mov	sp, r7
 4144              		.cfi_def_cfa_register 13
 4145              		@ sp needed
 4146 0014 80BC     		pop	{r7}
 4147              		.cfi_restore 7
 4148              		.cfi_def_cfa_offset 0
 4149 0016 7047     		bx	lr
 4150              		.cfi_endproc
 4151              	.LFE93:
 4152              		.size	GFXgetCursorY, .-GFXgetCursorY
 4153              		.section	.text.GFXsetTextSize,"ax",%progbits
 4154              		.align	2
 4155              		.global	GFXsetTextSize
 4156              		.thumb
 4157              		.thumb_func
 4158              		.type	GFXsetTextSize, %function
 4159              	GFXsetTextSize:
 4160              	.LFB94:
 711:gfx.c         ****         
 712:gfx.c         ****         void GFXsetTextSize(GFX* myGFX, uint8_t s) {
 4161              		.loc 1 712 0
 4162              		.cfi_startproc
 4163              		@ args = 0, pretend = 0, frame = 8
 4164              		@ frame_needed = 1, uses_anonymous_args = 0
 4165              		@ link register save eliminated.
 4166 0000 80B4     		push	{r7}
 4167              		.cfi_def_cfa_offset 4
 4168              		.cfi_offset 7, -4
 4169 0002 83B0     		sub	sp, sp, #12
 4170              		.cfi_def_cfa_offset 16
 4171 0004 00AF     		add	r7, sp, #0
 4172              		.cfi_def_cfa_register 7
 4173 0006 7860     		str	r0, [r7, #4]
 4174 0008 0B46     		mov	r3, r1
 4175 000a FB70     		strb	r3, [r7, #3]
 713:gfx.c         ****             myGFX->textsize = (s > 0) ? s : 1;
 4176              		.loc 1 713 0
 4177 000c FB78     		ldrb	r3, [r7, #3]	@ zero_extendqisi2
 4178 000e 002B     		cmp	r3, #0
 4179 0010 02D0     		beq	.L146
 4180              		.loc 1 713 0 is_stmt 0 discriminator 1
 4181 0012 FB78     		ldrb	r3, [r7, #3]	@ zero_extendqisi2
 4182 0014 9AB2     		uxth	r2, r3
 4183 0016 00E0     		b	.L147
 4184              	.L146:
 4185              		.loc 1 713 0 discriminator 2
 4186 0018 0122     		movs	r2, #1
 4187              	.L147:
 4188              		.loc 1 713 0 discriminator 4
ARM GAS  C:\Users\JEFFSN~1\AppData\Local\Temp\ccogK82D.s 			page 88


 4189 001a 7B68     		ldr	r3, [r7, #4]
 4190 001c DA81     		strh	r2, [r3, #14]	@ movhi
 714:gfx.c         ****         }
 4191              		.loc 1 714 0 is_stmt 1 discriminator 4
 4192 001e 00BF     		nop
 4193 0020 0C37     		adds	r7, r7, #12
 4194              		.cfi_def_cfa_offset 4
 4195 0022 BD46     		mov	sp, r7
 4196              		.cfi_def_cfa_register 13
 4197              		@ sp needed
 4198 0024 80BC     		pop	{r7}
 4199              		.cfi_restore 7
 4200              		.cfi_def_cfa_offset 0
 4201 0026 7047     		bx	lr
 4202              		.cfi_endproc
 4203              	.LFE94:
 4204              		.size	GFXsetTextSize, .-GFXsetTextSize
 4205              		.section	.text.GFXsetTextColor,"ax",%progbits
 4206              		.align	2
 4207              		.global	GFXsetTextColor
 4208              		.thumb
 4209              		.thumb_func
 4210              		.type	GFXsetTextColor, %function
 4211              	GFXsetTextColor:
 4212              	.LFB95:
 715:gfx.c         ****         
 716:gfx.c         ****         void GFXsetTextColor(GFX* myGFX, uint16_t c, uint16_t b) {
 4213              		.loc 1 716 0
 4214              		.cfi_startproc
 4215              		@ args = 0, pretend = 0, frame = 8
 4216              		@ frame_needed = 1, uses_anonymous_args = 0
 4217              		@ link register save eliminated.
 4218 0000 80B4     		push	{r7}
 4219              		.cfi_def_cfa_offset 4
 4220              		.cfi_offset 7, -4
 4221 0002 83B0     		sub	sp, sp, #12
 4222              		.cfi_def_cfa_offset 16
 4223 0004 00AF     		add	r7, sp, #0
 4224              		.cfi_def_cfa_register 7
 4225 0006 7860     		str	r0, [r7, #4]
 4226 0008 0B46     		mov	r3, r1
 4227 000a 7B80     		strh	r3, [r7, #2]	@ movhi
 4228 000c 1346     		mov	r3, r2	@ movhi
 4229 000e 3B80     		strh	r3, [r7]	@ movhi
 717:gfx.c         ****             myGFX->textcolor   = c;
 4230              		.loc 1 717 0
 4231 0010 7B68     		ldr	r3, [r7, #4]
 4232 0012 7A88     		ldrh	r2, [r7, #2]	@ movhi
 4233 0014 1A82     		strh	r2, [r3, #16]	@ movhi
 718:gfx.c         ****             myGFX->textbgcolor = b;
 4234              		.loc 1 718 0
 4235 0016 7B68     		ldr	r3, [r7, #4]
 4236 0018 3A88     		ldrh	r2, [r7]	@ movhi
 4237 001a 5A82     		strh	r2, [r3, #18]	@ movhi
 719:gfx.c         ****         }
 4238              		.loc 1 719 0
 4239 001c 00BF     		nop
ARM GAS  C:\Users\JEFFSN~1\AppData\Local\Temp\ccogK82D.s 			page 89


 4240 001e 0C37     		adds	r7, r7, #12
 4241              		.cfi_def_cfa_offset 4
 4242 0020 BD46     		mov	sp, r7
 4243              		.cfi_def_cfa_register 13
 4244              		@ sp needed
 4245 0022 80BC     		pop	{r7}
 4246              		.cfi_restore 7
 4247              		.cfi_def_cfa_offset 0
 4248 0024 7047     		bx	lr
 4249              		.cfi_endproc
 4250              	.LFE95:
 4251              		.size	GFXsetTextColor, .-GFXsetTextColor
 4252 0026 00BF     		.section	.text.GFXsetTextWrap,"ax",%progbits
 4253              		.align	2
 4254              		.global	GFXsetTextWrap
 4255              		.thumb
 4256              		.thumb_func
 4257              		.type	GFXsetTextWrap, %function
 4258              	GFXsetTextWrap:
 4259              	.LFB96:
 720:gfx.c         ****         
 721:gfx.c         ****         void GFXsetTextWrap(GFX* myGFX, uint8_t w) {
 4260              		.loc 1 721 0
 4261              		.cfi_startproc
 4262              		@ args = 0, pretend = 0, frame = 8
 4263              		@ frame_needed = 1, uses_anonymous_args = 0
 4264              		@ link register save eliminated.
 4265 0000 80B4     		push	{r7}
 4266              		.cfi_def_cfa_offset 4
 4267              		.cfi_offset 7, -4
 4268 0002 83B0     		sub	sp, sp, #12
 4269              		.cfi_def_cfa_offset 16
 4270 0004 00AF     		add	r7, sp, #0
 4271              		.cfi_def_cfa_register 7
 4272 0006 7860     		str	r0, [r7, #4]
 4273 0008 0B46     		mov	r3, r1
 4274 000a FB70     		strb	r3, [r7, #3]
 722:gfx.c         ****             myGFX->wrap = w;
 4275              		.loc 1 722 0
 4276 000c FB78     		ldrb	r3, [r7, #3]	@ zero_extendqisi2
 4277 000e 9AB2     		uxth	r2, r3
 4278 0010 7B68     		ldr	r3, [r7, #4]
 4279 0012 9A82     		strh	r2, [r3, #20]	@ movhi
 723:gfx.c         ****         }
 4280              		.loc 1 723 0
 4281 0014 00BF     		nop
 4282 0016 0C37     		adds	r7, r7, #12
 4283              		.cfi_def_cfa_offset 4
 4284 0018 BD46     		mov	sp, r7
 4285              		.cfi_def_cfa_register 13
 4286              		@ sp needed
 4287 001a 80BC     		pop	{r7}
 4288              		.cfi_restore 7
 4289              		.cfi_def_cfa_offset 0
 4290 001c 7047     		bx	lr
 4291              		.cfi_endproc
 4292              	.LFE96:
ARM GAS  C:\Users\JEFFSN~1\AppData\Local\Temp\ccogK82D.s 			page 90


 4293              		.size	GFXsetTextWrap, .-GFXsetTextWrap
 4294 001e 00BF     		.section	.text.GFXgetRotation,"ax",%progbits
 4295              		.align	2
 4296              		.global	GFXgetRotation
 4297              		.thumb
 4298              		.thumb_func
 4299              		.type	GFXgetRotation, %function
 4300              	GFXgetRotation:
 4301              	.LFB97:
 724:gfx.c         ****         
 725:gfx.c         ****         uint8_t GFXgetRotation(GFX* myGFX)  {
 4302              		.loc 1 725 0
 4303              		.cfi_startproc
 4304              		@ args = 0, pretend = 0, frame = 8
 4305              		@ frame_needed = 1, uses_anonymous_args = 0
 4306              		@ link register save eliminated.
 4307 0000 80B4     		push	{r7}
 4308              		.cfi_def_cfa_offset 4
 4309              		.cfi_offset 7, -4
 4310 0002 83B0     		sub	sp, sp, #12
 4311              		.cfi_def_cfa_offset 16
 4312 0004 00AF     		add	r7, sp, #0
 4313              		.cfi_def_cfa_register 7
 4314 0006 7860     		str	r0, [r7, #4]
 726:gfx.c         ****             return myGFX->rotation;
 4315              		.loc 1 726 0
 4316 0008 7B68     		ldr	r3, [r7, #4]
 4317 000a 1B89     		ldrh	r3, [r3, #8]
 4318 000c DBB2     		uxtb	r3, r3
 727:gfx.c         ****         }
 4319              		.loc 1 727 0
 4320 000e 1846     		mov	r0, r3
 4321 0010 0C37     		adds	r7, r7, #12
 4322              		.cfi_def_cfa_offset 4
 4323 0012 BD46     		mov	sp, r7
 4324              		.cfi_def_cfa_register 13
 4325              		@ sp needed
 4326 0014 80BC     		pop	{r7}
 4327              		.cfi_restore 7
 4328              		.cfi_def_cfa_offset 0
 4329 0016 7047     		bx	lr
 4330              		.cfi_endproc
 4331              	.LFE97:
 4332              		.size	GFXgetRotation, .-GFXgetRotation
 4333              		.section	.text.GFXsetRotation,"ax",%progbits
 4334              		.align	2
 4335              		.global	GFXsetRotation
 4336              		.thumb
 4337              		.thumb_func
 4338              		.type	GFXsetRotation, %function
 4339              	GFXsetRotation:
 4340              	.LFB98:
 728:gfx.c         ****         
 729:gfx.c         ****         void GFXsetRotation(GFX* myGFX, uint8_t x) {
 4341              		.loc 1 729 0
 4342              		.cfi_startproc
 4343              		@ args = 0, pretend = 0, frame = 8
ARM GAS  C:\Users\JEFFSN~1\AppData\Local\Temp\ccogK82D.s 			page 91


 4344              		@ frame_needed = 1, uses_anonymous_args = 0
 4345              		@ link register save eliminated.
 4346 0000 80B4     		push	{r7}
 4347              		.cfi_def_cfa_offset 4
 4348              		.cfi_offset 7, -4
 4349 0002 83B0     		sub	sp, sp, #12
 4350              		.cfi_def_cfa_offset 16
 4351 0004 00AF     		add	r7, sp, #0
 4352              		.cfi_def_cfa_register 7
 4353 0006 7860     		str	r0, [r7, #4]
 4354 0008 0B46     		mov	r3, r1
 4355 000a FB70     		strb	r3, [r7, #3]
 730:gfx.c         ****             myGFX->rotation = (x & 3);
 4356              		.loc 1 730 0
 4357 000c FB78     		ldrb	r3, [r7, #3]	@ zero_extendqisi2
 4358 000e 9BB2     		uxth	r3, r3
 4359 0010 03F00303 		and	r3, r3, #3
 4360 0014 9AB2     		uxth	r2, r3
 4361 0016 7B68     		ldr	r3, [r7, #4]
 4362 0018 1A81     		strh	r2, [r3, #8]	@ movhi
 731:gfx.c         ****             switch(myGFX->rotation) {
 4363              		.loc 1 731 0
 4364 001a 7B68     		ldr	r3, [r7, #4]
 4365 001c 1B89     		ldrh	r3, [r3, #8]
 4366 001e 032B     		cmp	r3, #3
 4367 0020 24D8     		bhi	.L157
 4368 0022 01A2     		adr	r2, .L155
 4369 0024 52F823F0 		ldr	pc, [r2, r3, lsl #2]
 4370              		.p2align 2
 4371              	.L155:
 4372 0028 39000000 		.word	.L154+1
 4373 002c 53000000 		.word	.L156+1
 4374 0030 39000000 		.word	.L154+1
 4375 0034 53000000 		.word	.L156+1
 4376              		.p2align 1
 4377              	.L154:
 732:gfx.c         ****                 case 0:
 733:gfx.c         ****                 case 2:
 734:gfx.c         ****                     myGFX->_width  = myGFX->WIDTH;
 4378              		.loc 1 734 0
 4379 0038 7B68     		ldr	r3, [r7, #4]
 4380 003a B3F90030 		ldrsh	r3, [r3]
 4381 003e 9AB2     		uxth	r2, r3
 4382 0040 7B68     		ldr	r3, [r7, #4]
 4383 0042 9A80     		strh	r2, [r3, #4]	@ movhi
 735:gfx.c         ****                     myGFX->_height = myGFX->HEIGHT;
 4384              		.loc 1 735 0
 4385 0044 7B68     		ldr	r3, [r7, #4]
 4386 0046 B3F90230 		ldrsh	r3, [r3, #2]
 4387 004a 9AB2     		uxth	r2, r3
 4388 004c 7B68     		ldr	r3, [r7, #4]
 4389 004e DA80     		strh	r2, [r3, #6]	@ movhi
 736:gfx.c         ****                     break;
 4390              		.loc 1 736 0
 4391 0050 0CE0     		b	.L153
 4392              	.L156:
 737:gfx.c         ****                 case 1:
ARM GAS  C:\Users\JEFFSN~1\AppData\Local\Temp\ccogK82D.s 			page 92


 738:gfx.c         ****                 case 3:
 739:gfx.c         ****                     myGFX->_width  = myGFX->HEIGHT;
 4393              		.loc 1 739 0
 4394 0052 7B68     		ldr	r3, [r7, #4]
 4395 0054 B3F90230 		ldrsh	r3, [r3, #2]
 4396 0058 9AB2     		uxth	r2, r3
 4397 005a 7B68     		ldr	r3, [r7, #4]
 4398 005c 9A80     		strh	r2, [r3, #4]	@ movhi
 740:gfx.c         ****                     myGFX->_height = myGFX->WIDTH;
 4399              		.loc 1 740 0
 4400 005e 7B68     		ldr	r3, [r7, #4]
 4401 0060 B3F90030 		ldrsh	r3, [r3]
 4402 0064 9AB2     		uxth	r2, r3
 4403 0066 7B68     		ldr	r3, [r7, #4]
 4404 0068 DA80     		strh	r2, [r3, #6]	@ movhi
 741:gfx.c         ****                     break;
 4405              		.loc 1 741 0
 4406 006a 00BF     		nop
 4407              	.L153:
 4408              	.L157:
 742:gfx.c         ****             }
 743:gfx.c         ****         }
 4409              		.loc 1 743 0
 4410 006c 00BF     		nop
 4411 006e 0C37     		adds	r7, r7, #12
 4412              		.cfi_def_cfa_offset 4
 4413 0070 BD46     		mov	sp, r7
 4414              		.cfi_def_cfa_register 13
 4415              		@ sp needed
 4416 0072 80BC     		pop	{r7}
 4417              		.cfi_restore 7
 4418              		.cfi_def_cfa_offset 0
 4419 0074 7047     		bx	lr
 4420              		.cfi_endproc
 4421              	.LFE98:
 4422              		.size	GFXsetRotation, .-GFXsetRotation
 4423 0076 00BF     		.section	.text.GFXcp437,"ax",%progbits
 4424              		.align	2
 4425              		.global	GFXcp437
 4426              		.thumb
 4427              		.thumb_func
 4428              		.type	GFXcp437, %function
 4429              	GFXcp437:
 4430              	.LFB99:
 744:gfx.c         ****         
 745:gfx.c         ****         // Enable (or disable) Code Page 437-compatible charset.
 746:gfx.c         ****         // There was an error in glcdfont.c for the longest time -- one character
 747:gfx.c         ****         // (#176, the 'light shade' block) was missing -- this threw off the index
 748:gfx.c         ****         // of every character that followed it.  But a TON of code has been written
 749:gfx.c         ****         // with the erroneous character indices.  By default, the library uses the
 750:gfx.c         ****         // original 'wrong' behavior and old sketches will still work.  Pass 'true'
 751:gfx.c         ****         // to this function to use correct CP437 character values in your code.
 752:gfx.c         ****         void GFXcp437(GFX* myGFX, uint8_t x) {
 4431              		.loc 1 752 0
 4432              		.cfi_startproc
 4433              		@ args = 0, pretend = 0, frame = 8
 4434              		@ frame_needed = 1, uses_anonymous_args = 0
ARM GAS  C:\Users\JEFFSN~1\AppData\Local\Temp\ccogK82D.s 			page 93


 4435              		@ link register save eliminated.
 4436 0000 80B4     		push	{r7}
 4437              		.cfi_def_cfa_offset 4
 4438              		.cfi_offset 7, -4
 4439 0002 83B0     		sub	sp, sp, #12
 4440              		.cfi_def_cfa_offset 16
 4441 0004 00AF     		add	r7, sp, #0
 4442              		.cfi_def_cfa_register 7
 4443 0006 7860     		str	r0, [r7, #4]
 4444 0008 0B46     		mov	r3, r1
 4445 000a FB70     		strb	r3, [r7, #3]
 753:gfx.c         ****             myGFX->_cp437 = x;
 4446              		.loc 1 753 0
 4447 000c FB78     		ldrb	r3, [r7, #3]	@ zero_extendqisi2
 4448 000e 9AB2     		uxth	r2, r3
 4449 0010 7B68     		ldr	r3, [r7, #4]
 4450 0012 DA82     		strh	r2, [r3, #22]	@ movhi
 754:gfx.c         ****         }
 4451              		.loc 1 754 0
 4452 0014 00BF     		nop
 4453 0016 0C37     		adds	r7, r7, #12
 4454              		.cfi_def_cfa_offset 4
 4455 0018 BD46     		mov	sp, r7
 4456              		.cfi_def_cfa_register 13
 4457              		@ sp needed
 4458 001a 80BC     		pop	{r7}
 4459              		.cfi_restore 7
 4460              		.cfi_def_cfa_offset 0
 4461 001c 7047     		bx	lr
 4462              		.cfi_endproc
 4463              	.LFE99:
 4464              		.size	GFXcp437, .-GFXcp437
 4465 001e 00BF     		.section	.text.GFXsetFont,"ax",%progbits
 4466              		.align	2
 4467              		.global	GFXsetFont
 4468              		.thumb
 4469              		.thumb_func
 4470              		.type	GFXsetFont, %function
 4471              	GFXsetFont:
 4472              	.LFB100:
 755:gfx.c         ****         
 756:gfx.c         ****         void GFXsetFont(GFX* myGFX, const GFXfont *f) {
 4473              		.loc 1 756 0
 4474              		.cfi_startproc
 4475              		@ args = 0, pretend = 0, frame = 24
 4476              		@ frame_needed = 1, uses_anonymous_args = 0
 4477              		@ link register save eliminated.
 4478 0000 90B4     		push	{r4, r7}
 4479              		.cfi_def_cfa_offset 8
 4480              		.cfi_offset 4, -8
 4481              		.cfi_offset 7, -4
 4482 0002 86B0     		sub	sp, sp, #24
 4483              		.cfi_def_cfa_offset 32
 4484 0004 00AF     		add	r7, sp, #0
 4485              		.cfi_def_cfa_register 7
 4486 0006 7860     		str	r0, [r7, #4]
 4487 0008 3960     		str	r1, [r7]
ARM GAS  C:\Users\JEFFSN~1\AppData\Local\Temp\ccogK82D.s 			page 94


 757:gfx.c         ****             
 758:gfx.c         ****             if(f)
 4488              		.loc 1 758 0
 4489 000a 3B68     		ldr	r3, [r7]
 4490 000c 002B     		cmp	r3, #0
 4491 000e 0AD0     		beq	.L160
 759:gfx.c         ****             {            // Font struct pointer passed in?
 760:gfx.c         ****                 if(!myGFX->gfxFont) { // And no current font struct?
 4492              		.loc 1 760 0
 4493 0010 7B68     		ldr	r3, [r7, #4]
 4494 0012 9B69     		ldr	r3, [r3, #24]
 4495 0014 002B     		cmp	r3, #0
 4496 0016 59D1     		bne	.L162
 761:gfx.c         ****                     // Switching from classic to new font behavior.
 762:gfx.c         ****                     // Move cursor pos down 6 pixels so it's on baseline.
 763:gfx.c         ****                     myGFX->cursor_y += 6;
 4497              		.loc 1 763 0
 4498 0018 7B68     		ldr	r3, [r7, #4]
 4499 001a 5B89     		ldrh	r3, [r3, #10]
 4500 001c 0633     		adds	r3, r3, #6
 4501 001e 9AB2     		uxth	r2, r3
 4502 0020 7B68     		ldr	r3, [r7, #4]
 4503 0022 5A81     		strh	r2, [r3, #10]	@ movhi
 4504 0024 52E0     		b	.L162
 4505              	.L160:
 764:gfx.c         ****                 }
 765:gfx.c         ****             }
 766:gfx.c         ****             else if(myGFX->gfxFont)
 4506              		.loc 1 766 0
 4507 0026 7B68     		ldr	r3, [r7, #4]
 4508 0028 9B69     		ldr	r3, [r3, #24]
 4509 002a 002B     		cmp	r3, #0
 4510 002c 3ED0     		beq	.L163
 4511              	.LBB29:
 767:gfx.c         ****             { // NULL passed.  Current font struct defined?
 768:gfx.c         ****                 // Switching from new to classic font behavior.
 769:gfx.c         ****                 // Move cursor pos up 6 pixels so it's at top-left of char.
 770:gfx.c         ****                 //cursor_y -= 6;
 771:gfx.c         ****                 // calculate max descender ("j" or "g")
 772:gfx.c         ****                 myGFX->fontDesc = 0;
 4512              		.loc 1 772 0
 4513 002e 7B68     		ldr	r3, [r7, #4]
 4514 0030 0022     		movs	r2, #0
 4515 0032 DA83     		strh	r2, [r3, #30]	@ movhi
 773:gfx.c         ****                 
 774:gfx.c         ****                 uint8_t first  = (uint8_t) pgm_read_byte(&f->first);
 4516              		.loc 1 774 0
 4517 0034 3B68     		ldr	r3, [r7]
 4518 0036 0833     		adds	r3, r3, #8
 4519 0038 1B78     		ldrb	r3, [r3]
 4520 003a BB75     		strb	r3, [r7, #22]
 775:gfx.c         ****                 uint8_t last  = (uint8_t) pgm_read_byte(&f->last);
 4521              		.loc 1 775 0
 4522 003c 3B68     		ldr	r3, [r7]
 4523 003e 0933     		adds	r3, r3, #9
 4524 0040 1B78     		ldrb	r3, [r3]
 4525 0042 7B75     		strb	r3, [r7, #21]
ARM GAS  C:\Users\JEFFSN~1\AppData\Local\Temp\ccogK82D.s 			page 95


 4526              	.LBB30:
 776:gfx.c         ****                 for (uint8_t i = first; i <= last; i++)
 4527              		.loc 1 776 0
 4528 0044 BB7D     		ldrb	r3, [r7, #22]
 4529 0046 FB75     		strb	r3, [r7, #23]
 4530 0048 25E0     		b	.L164
 4531              	.L166:
 4532              	.LBB31:
 777:gfx.c         ****                 {
 778:gfx.c         ****                     GFXglyph *glyph;
 779:gfx.c         ****                     uint8_t gh;
 780:gfx.c         ****                     int8_t  yo;
 781:gfx.c         ****                     
 782:gfx.c         ****                     glyph = &(((GFXglyph *)pgm_read_pointer(&f->glyph))[i-first]);
 4533              		.loc 1 782 0
 4534 004a FA7D     		ldrb	r2, [r7, #23]	@ zero_extendqisi2
 4535 004c BB7D     		ldrb	r3, [r7, #22]	@ zero_extendqisi2
 4536 004e D31A     		subs	r3, r2, r3
 4537 0050 DA00     		lsls	r2, r3, #3
 4538 0052 3B68     		ldr	r3, [r7]
 4539 0054 0433     		adds	r3, r3, #4
 4540 0056 18CB     		ldmia	r3, {r3-r4}
 4541 0058 1344     		add	r3, r3, r2
 4542 005a 3B61     		str	r3, [r7, #16]
 783:gfx.c         ****                     
 784:gfx.c         ****                     gh = (uint8_t) pgm_read_byte(&glyph->height);
 4543              		.loc 1 784 0
 4544 005c 3B69     		ldr	r3, [r7, #16]
 4545 005e 0333     		adds	r3, r3, #3
 4546 0060 1B78     		ldrb	r3, [r3]
 4547 0062 FB73     		strb	r3, [r7, #15]
 785:gfx.c         ****                     yo = (int8_t) pgm_read_byte(&glyph->yOffset);
 4548              		.loc 1 785 0
 4549 0064 3B69     		ldr	r3, [r7, #16]
 4550 0066 0633     		adds	r3, r3, #6
 4551 0068 1B78     		ldrb	r3, [r3]	@ zero_extendqisi2
 4552 006a BB73     		strb	r3, [r7, #14]
 786:gfx.c         ****                     
 787:gfx.c         ****                     if (gh + yo > myGFX->fontDesc)
 4553              		.loc 1 787 0
 4554 006c FA7B     		ldrb	r2, [r7, #15]	@ zero_extendqisi2
 4555 006e 97F90E30 		ldrsb	r3, [r7, #14]
 4556 0072 1344     		add	r3, r3, r2
 4557 0074 7A68     		ldr	r2, [r7, #4]
 4558 0076 D28B     		ldrh	r2, [r2, #30]
 4559 0078 9342     		cmp	r3, r2
 4560 007a 09DD     		ble	.L165
 788:gfx.c         ****                     {
 789:gfx.c         ****                         myGFX->fontDesc = gh + yo;
 4561              		.loc 1 789 0
 4562 007c FB7B     		ldrb	r3, [r7, #15]	@ zero_extendqisi2
 4563 007e 1AB2     		sxth	r2, r3
 4564 0080 97F90E30 		ldrsb	r3, [r7, #14]
 4565 0084 1BB2     		sxth	r3, r3
 4566 0086 1344     		add	r3, r3, r2
 4567 0088 1BB2     		sxth	r3, r3
 4568 008a 9AB2     		uxth	r2, r3
ARM GAS  C:\Users\JEFFSN~1\AppData\Local\Temp\ccogK82D.s 			page 96


 4569 008c 7B68     		ldr	r3, [r7, #4]
 4570 008e DA83     		strh	r2, [r3, #30]	@ movhi
 4571              	.L165:
 4572              	.LBE31:
 776:gfx.c         ****                 {
 4573              		.loc 1 776 0 discriminator 2
 4574 0090 FB7D     		ldrb	r3, [r7, #23]	@ zero_extendqisi2
 4575 0092 0133     		adds	r3, r3, #1
 4576 0094 FB75     		strb	r3, [r7, #23]
 4577              	.L164:
 776:gfx.c         ****                 {
 4578              		.loc 1 776 0 is_stmt 0 discriminator 1
 4579 0096 FA7D     		ldrb	r2, [r7, #23]	@ zero_extendqisi2
 4580 0098 7B7D     		ldrb	r3, [r7, #21]	@ zero_extendqisi2
 4581 009a 9A42     		cmp	r2, r3
 4582 009c D5D9     		bls	.L166
 4583              	.LBE30:
 790:gfx.c         ****                     }
 791:gfx.c         ****                 }
 792:gfx.c         ****                 
 793:gfx.c         ****                 myGFX->fontHeight = (int16_t) pgm_read_byte(&f->yAdvance);
 4584              		.loc 1 793 0 is_stmt 1
 4585 009e 3B68     		ldr	r3, [r7]
 4586 00a0 0A33     		adds	r3, r3, #10
 4587 00a2 1B78     		ldrb	r3, [r3]	@ zero_extendqisi2
 4588 00a4 9AB2     		uxth	r2, r3
 4589 00a6 7B68     		ldr	r3, [r7, #4]
 4590 00a8 9A83     		strh	r2, [r3, #28]	@ movhi
 4591              	.LBE29:
 4592 00aa 0FE0     		b	.L162
 4593              	.L163:
 794:gfx.c         ****             }
 795:gfx.c         ****             else
 796:gfx.c         ****             {
 797:gfx.c         ****                 if(myGFX->gfxFont)
 4594              		.loc 1 797 0
 4595 00ac 7B68     		ldr	r3, [r7, #4]
 4596 00ae 9B69     		ldr	r3, [r3, #24]
 4597 00b0 002B     		cmp	r3, #0
 4598 00b2 05D0     		beq	.L167
 798:gfx.c         ****                 { // NULL passed.  Current font struct defined?
 799:gfx.c         ****                     // Switching from new to classic font behavior.
 800:gfx.c         ****                     // Move cursor pos up 6 pixels so it's at top-left of char.
 801:gfx.c         ****                     myGFX->cursor_y -= 6;
 4599              		.loc 1 801 0
 4600 00b4 7B68     		ldr	r3, [r7, #4]
 4601 00b6 5B89     		ldrh	r3, [r3, #10]
 4602 00b8 063B     		subs	r3, r3, #6
 4603 00ba 9AB2     		uxth	r2, r3
 4604 00bc 7B68     		ldr	r3, [r7, #4]
 4605 00be 5A81     		strh	r2, [r3, #10]	@ movhi
 4606              	.L167:
 802:gfx.c         ****                 }
 803:gfx.c         ****                 
 804:gfx.c         ****                 myGFX->fontHeight = 8;
 4607              		.loc 1 804 0
 4608 00c0 7B68     		ldr	r3, [r7, #4]
ARM GAS  C:\Users\JEFFSN~1\AppData\Local\Temp\ccogK82D.s 			page 97


 4609 00c2 0822     		movs	r2, #8
 4610 00c4 9A83     		strh	r2, [r3, #28]	@ movhi
 805:gfx.c         ****                 myGFX->fontDesc = 0;
 4611              		.loc 1 805 0
 4612 00c6 7B68     		ldr	r3, [r7, #4]
 4613 00c8 0022     		movs	r2, #0
 4614 00ca DA83     		strh	r2, [r3, #30]	@ movhi
 4615              	.L162:
 806:gfx.c         ****             }
 807:gfx.c         ****             myGFX->gfxFont = (GFXfont *)f;
 4616              		.loc 1 807 0
 4617 00cc 7B68     		ldr	r3, [r7, #4]
 4618 00ce 3A68     		ldr	r2, [r7]
 4619 00d0 9A61     		str	r2, [r3, #24]
 808:gfx.c         ****         }
 4620              		.loc 1 808 0
 4621 00d2 00BF     		nop
 4622 00d4 1837     		adds	r7, r7, #24
 4623              		.cfi_def_cfa_offset 8
 4624 00d6 BD46     		mov	sp, r7
 4625              		.cfi_def_cfa_register 13
 4626              		@ sp needed
 4627 00d8 90BC     		pop	{r4, r7}
 4628              		.cfi_restore 7
 4629              		.cfi_restore 4
 4630              		.cfi_def_cfa_offset 0
 4631 00da 7047     		bx	lr
 4632              		.cfi_endproc
 4633              	.LFE100:
 4634              		.size	GFXsetFont, .-GFXsetFont
 4635              		.section	.text.GFXcharBounds,"ax",%progbits
 4636              		.align	2
 4637              		.global	GFXcharBounds
 4638              		.thumb
 4639              		.thumb_func
 4640              		.type	GFXcharBounds, %function
 4641              	GFXcharBounds:
 4642              	.LFB101:
 809:gfx.c         ****         
 810:gfx.c         ****         
 811:gfx.c         ****         
 812:gfx.c         ****         
 813:gfx.c         ****         
 814:gfx.c         ****         
 815:gfx.c         ****         
 816:gfx.c         ****         // Broke this out as it's used by both the PROGMEM- and RAM-resident
 817:gfx.c         ****         // getTextBounds() functions.
 818:gfx.c         ****         void GFXcharBounds(GFX* myGFX, char c, int16_t *x, int16_t *y,
 819:gfx.c         ****                            int16_t *minx, int16_t *miny, int16_t *maxx, int16_t *maxy) {
 4643              		.loc 1 819 0
 4644              		.cfi_startproc
 4645              		@ args = 16, pretend = 0, frame = 48
 4646              		@ frame_needed = 1, uses_anonymous_args = 0
 4647              		@ link register save eliminated.
 4648 0000 90B4     		push	{r4, r7}
 4649              		.cfi_def_cfa_offset 8
 4650              		.cfi_offset 4, -8
ARM GAS  C:\Users\JEFFSN~1\AppData\Local\Temp\ccogK82D.s 			page 98


 4651              		.cfi_offset 7, -4
 4652 0002 8CB0     		sub	sp, sp, #48
 4653              		.cfi_def_cfa_offset 56
 4654 0004 00AF     		add	r7, sp, #0
 4655              		.cfi_def_cfa_register 7
 4656 0006 F860     		str	r0, [r7, #12]
 4657 0008 7A60     		str	r2, [r7, #4]
 4658 000a 3B60     		str	r3, [r7]
 4659 000c 0B46     		mov	r3, r1
 4660 000e FB72     		strb	r3, [r7, #11]
 820:gfx.c         ****             
 821:gfx.c         ****             if(myGFX->gfxFont) {
 4661              		.loc 1 821 0
 4662 0010 FB68     		ldr	r3, [r7, #12]
 4663 0012 9B69     		ldr	r3, [r3, #24]
 4664 0014 002B     		cmp	r3, #0
 4665 0016 00F0F380 		beq	.L169
 822:gfx.c         ****                 
 823:gfx.c         ****                 if(c == '\n') { // Newline?
 4666              		.loc 1 823 0
 4667 001a FB7A     		ldrb	r3, [r7, #11]	@ zero_extendqisi2
 4668 001c 0A2B     		cmp	r3, #10
 4669 001e 16D1     		bne	.L170
 824:gfx.c         ****                     *x  = 0;    // Reset x to zero, advance y by one line
 4670              		.loc 1 824 0
 4671 0020 7B68     		ldr	r3, [r7, #4]
 4672 0022 0022     		movs	r2, #0
 4673 0024 1A80     		strh	r2, [r3]	@ movhi
 825:gfx.c         ****                     *y += myGFX->textsize * (uint8_t)pgm_read_byte(&myGFX->gfxFont->yAdvance);
 4674              		.loc 1 825 0
 4675 0026 3B68     		ldr	r3, [r7]
 4676 0028 B3F90030 		ldrsh	r3, [r3]
 4677 002c 9AB2     		uxth	r2, r3
 4678 002e FB68     		ldr	r3, [r7, #12]
 4679 0030 DB89     		ldrh	r3, [r3, #14]
 4680 0032 F968     		ldr	r1, [r7, #12]
 4681 0034 8969     		ldr	r1, [r1, #24]
 4682 0036 0A31     		adds	r1, r1, #10
 4683 0038 0978     		ldrb	r1, [r1]	@ zero_extendqisi2
 4684 003a 89B2     		uxth	r1, r1
 4685 003c 01FB03F3 		mul	r3, r1, r3
 4686 0040 9BB2     		uxth	r3, r3
 4687 0042 1344     		add	r3, r3, r2
 4688 0044 9BB2     		uxth	r3, r3
 4689 0046 1AB2     		sxth	r2, r3
 4690 0048 3B68     		ldr	r3, [r7]
 4691 004a 1A80     		strh	r2, [r3]	@ movhi
 826:gfx.c         ****                 } else if(c != '\r') { // Not a carriage return; is normal char
 827:gfx.c         ****                     uint8_t first = pgm_read_byte(&myGFX->gfxFont->first),
 828:gfx.c         ****                     last  = pgm_read_byte(&myGFX->gfxFont->last);
 829:gfx.c         ****                     if((c >= first) && (c <= last)) { // Char present in this font?
 830:gfx.c         ****                         GFXglyph *glyph = &(((GFXglyph *)pgm_read_pointer(
 831:gfx.c         ****                                                                           &myGFX->gfxFont->glyph))[
 832:gfx.c         ****                         uint8_t gw = pgm_read_byte(&glyph->width),
 833:gfx.c         ****                         gh = pgm_read_byte(&glyph->height),
 834:gfx.c         ****                         xa = pgm_read_byte(&glyph->xAdvance);
 835:gfx.c         ****                         int8_t  xo = pgm_read_byte(&glyph->xOffset),
ARM GAS  C:\Users\JEFFSN~1\AppData\Local\Temp\ccogK82D.s 			page 99


 836:gfx.c         ****                         yo = pgm_read_byte(&glyph->yOffset);
 837:gfx.c         ****                         if(myGFX->wrap && ((*x+(((int16_t)xo+gw)*myGFX->textsize)) > myGFX->_width)
 838:gfx.c         ****                             *x  = 0; // Reset x to zero, advance y by one line
 839:gfx.c         ****                             *y += myGFX->textsize * (uint8_t)pgm_read_byte(&myGFX->gfxFont->yAdvanc
 840:gfx.c         ****                         }
 841:gfx.c         ****                         int16_t ts = (int16_t)myGFX->textsize,
 842:gfx.c         ****                         x1 = *x + xo * ts,
 843:gfx.c         ****                         y1 = *y + yo * ts,
 844:gfx.c         ****                         x2 = x1 + gw * ts - 1,
 845:gfx.c         ****                         y2 = y1 + gh * ts - 1;
 846:gfx.c         ****                         if(x1 < *minx) *minx = x1;
 847:gfx.c         ****                         if(y1 < *miny) *miny = y1;
 848:gfx.c         ****                         if(x2 > *maxx) *maxx = x2;
 849:gfx.c         ****                         if(y2 > *maxy) *maxy = y2;
 850:gfx.c         ****                         *x += xa * ts;
 851:gfx.c         ****                     }
 852:gfx.c         ****                 }
 853:gfx.c         ****                 
 854:gfx.c         ****             } else { // Default font
 855:gfx.c         ****                 
 856:gfx.c         ****                 if(c == '\n') {                     // Newline?
 857:gfx.c         ****                     *x  = 0;                        // Reset x to zero,
 858:gfx.c         ****                     *y += myGFX->textsize * 8;             // advance y one line
 859:gfx.c         ****                     // min/max x/y unchaged -- that waits for next 'normal' character
 860:gfx.c         ****                 } else if(c != '\r') {  // Normal char; ignore carriage returns
 861:gfx.c         ****                     if(myGFX->wrap && ((*x + myGFX->textsize * 6) > myGFX->_width)) { // Off right?
 862:gfx.c         ****                         *x  = 0;                    // Reset x to zero,
 863:gfx.c         ****                         *y += myGFX->textsize * 8;         // advance y one line
 864:gfx.c         ****                     }
 865:gfx.c         ****                     int x2 = *x + myGFX->textsize * 6 - 1, // Lower-right pixel of char
