ARM GAS  C:\Users\JEFFSN~1\AppData\Local\Temp\ccEPDFmT.s 			page 1


   1              		.syntax unified
   2              		.cpu cortex-m3
   3              		.fpu softvfp
   4              		.eabi_attribute 20, 1
   5              		.eabi_attribute 21, 1
   6              		.eabi_attribute 23, 3
   7              		.eabi_attribute 24, 1
   8              		.eabi_attribute 25, 1
   9              		.eabi_attribute 26, 1
  10              		.eabi_attribute 30, 6
  11              		.eabi_attribute 34, 1
  12              		.eabi_attribute 18, 4
  13              		.thumb
  14              		.syntax unified
  15              		.file	"main.c"
  16              		.text
  17              	.Ltext0:
  18              		.cfi_sections	.debug_frame
  19              		.comm	sysexBuffer,2048,4
  20              		.global	sysexPointer
  21              		.bss
  22              		.align	2
  23              		.type	sysexPointer, %object
  24              		.size	sysexPointer, 4
  25              	sysexPointer:
  26 0000 00000000 		.space	4
  27              		.global	receivingSysex
  28              		.type	receivingSysex, %object
  29              		.size	receivingSysex, 1
  30              	receivingSysex:
  31 0004 00       		.space	1
  32              		.global	parsingSysex
  33              		.type	parsingSysex, %object
  34              		.size	parsingSysex, 1
  35              	parsingSysex:
  36 0005 00       		.space	1
  37              		.comm	presetArray,2048,4
  38              		.global	presetNumberToWrite
  39              		.type	presetNumberToWrite, %object
  40              		.size	presetNumberToWrite, 1
  41              	presetNumberToWrite:
  42 0006 00       		.space	1
  43              		.global	copedentNumberToWrite
  44              		.type	copedentNumberToWrite, %object
  45              		.size	copedentNumberToWrite, 1
  46              	copedentNumberToWrite:
  47 0007 00       		.space	1
  48              		.global	sendMessageEnd
  49              		.type	sendMessageEnd, %object
  50              		.size	sendMessageEnd, 1
  51              	sendMessageEnd:
  52 0008 00       		.space	1
  53              		.global	sendSingleParamUpdate
  54              		.type	sendSingleParamUpdate, %object
  55              		.size	sendSingleParamUpdate, 1
  56              	sendSingleParamUpdate:
  57 0009 00       		.space	1
ARM GAS  C:\Users\JEFFSN~1\AppData\Local\Temp\ccEPDFmT.s 			page 2


  58              		.global	singleParamToUpdateHigh
  59              		.type	singleParamToUpdateHigh, %object
  60              		.size	singleParamToUpdateHigh, 1
  61              	singleParamToUpdateHigh:
  62 000a 00       		.space	1
  63              		.global	singleParamToUpdateLow
  64              		.type	singleParamToUpdateLow, %object
  65              		.size	singleParamToUpdateLow, 1
  66              	singleParamToUpdateLow:
  67 000b 00       		.space	1
  68              		.global	singleParamValueHigh
  69              		.type	singleParamValueHigh, %object
  70              		.size	singleParamValueHigh, 1
  71              	singleParamValueHigh:
  72 000c 00       		.space	1
  73              		.global	singleParamValueLow
  74              		.type	singleParamValueLow, %object
  75              		.size	singleParamValueLow, 1
  76              	singleParamValueLow:
  77 000d 00       		.space	1
  78              		.global	sendMappingChangeUpdate
  79              		.type	sendMappingChangeUpdate, %object
  80              		.size	sendMappingChangeUpdate, 1
  81              	sendMappingChangeUpdate:
  82 000e 00       		.space	1
  83              		.global	presetArraySection
  84              		.type	presetArraySection, %object
  85              		.size	presetArraySection, 1
  86              	presetArraySection:
  87 000f 00       		.space	1
  88              		.global	messageArraySendCount
  89              		.align	1
  90              		.type	messageArraySendCount, %object
  91              		.size	messageArraySendCount, 2
  92              	messageArraySendCount:
  93 0010 0000     		.space	2
  94              		.global	messageArraySize
  95              		.align	1
  96              		.type	messageArraySize, %object
  97              		.size	messageArraySize, 2
  98              	messageArraySize:
  99 0012 0000     		.space	2
 100              		.global	sysexMessageInProgress
 101              		.type	sysexMessageInProgress, %object
 102              		.size	sysexMessageInProgress, 1
 103              	sysexMessageInProgress:
 104 0014 00       		.space	1
 105              		.global	bufCount
 106              		.type	bufCount, %object
 107              		.size	bufCount, 1
 108              	bufCount:
 109 0015 00       		.space	1
 110              		.global	sendingMessage
 111              		.type	sendingMessage, %object
 112              		.size	sendingMessage, 1
 113              	sendingMessage:
 114 0016 00       		.space	1
ARM GAS  C:\Users\JEFFSN~1\AppData\Local\Temp\ccEPDFmT.s 			page 3


 115              		.global	sendKnobs
 116              		.type	sendKnobs, %object
 117              		.size	sendKnobs, 1
 118              	sendKnobs:
 119 0017 00       		.space	1
 120              		.global	currentFloat
 121              		.align	2
 122              		.type	currentFloat, %object
 123              		.size	currentFloat, 4
 124              	currentFloat:
 125 0018 00000000 		.space	4
 126              		.global	mapCount
 127              		.align	2
 128              		.type	mapCount, %object
 129              		.size	mapCount, 4
 130              	mapCount:
 131 001c 00000000 		.space	4
 132              		.global	valsCount
 133              		.align	1
 134              		.type	valsCount, %object
 135              		.size	valsCount, 2
 136              	valsCount:
 137 0020 0000     		.space	2
 138              		.global	mapCountExpectation
 139              		.align	1
 140              		.type	mapCountExpectation, %object
 141              		.size	mapCountExpectation, 2
 142              	mapCountExpectation:
 143 0022 0000     		.space	2
 144              		.global	numMappings
 145              		.align	1
 146              		.type	numMappings, %object
 147              		.size	numMappings, 2
 148              	numMappings:
 149 0024 0000     		.space	2
 150              		.global	parseThatMF
 151              		.type	parseThatMF, %object
 152              		.size	parseThatMF, 1
 153              	parseThatMF:
 154 0026 00       		.space	1
 155              		.global	valCheck
 156 0027 00       		.align	2
 157              		.type	valCheck, %object
 158              		.size	valCheck, 4
 159              	valCheck:
 160 0028 00000000 		.space	4
 161              		.global	testVal
 162              		.align	2
 163              		.type	testVal, %object
 164              		.size	testVal, 4
 165              	testVal:
 166 002c 00000000 		.space	4
 167              		.global	numStrings
 168              		.data
 169              		.align	2
 170              		.type	numStrings, %object
 171              		.size	numStrings, 4
ARM GAS  C:\Users\JEFFSN~1\AppData\Local\Temp\ccEPDFmT.s 			page 4


 172              	numStrings:
 173 0000 0A000000 		.word	10
 174              		.global	usbActivityCounter
 175              		.bss
 176              		.type	usbActivityCounter, %object
 177              		.size	usbActivityCounter, 1
 178              	usbActivityCounter:
 179 0030 00       		.space	1
 180              		.comm	midiMsg,4,4
 181              		.global	currentVBUS
 182              		.type	currentVBUS, %object
 183              		.size	currentVBUS, 1
 184              	currentVBUS:
 185 0031 00       		.space	1
 186              		.global	prevVBUS
 187              		.type	prevVBUS, %object
 188              		.size	prevVBUS, 1
 189              	prevVBUS:
 190 0032 00       		.space	1
 191              		.global	USB_active
 192              		.type	USB_active, %object
 193              		.size	USB_active, 1
 194              	USB_active:
 195 0033 00       		.space	1
 196              		.global	USB_check_flag
 197              		.type	USB_check_flag, %object
 198              		.size	USB_check_flag, 1
 199              	USB_check_flag:
 200 0034 00       		.space	1
 201              		.comm	mappingArray,6,4
 202              		.comm	inBuffer,32,4
 203              		.comm	myArray,32,4
 204              		.comm	myInputArray,2,4
 205              		.comm	linearPotValue32Bit,8,4
 206              		.global	i
 207              		.type	i, %object
 208              		.size	i, 1
 209              	i:
 210 0035 00       		.space	1
 211              		.global	counter
 212              		.type	counter, %object
 213              		.size	counter, 1
 214              	counter:
 215 0036 00       		.space	1
 216              		.comm	returnedData,32,4
 217              		.comm	temper,4,4
 218              		.comm	previousButtons,44,4
 219              		.global	octave
 220              		.data
 221              		.align	2
 222              		.type	octave, %object
 223              		.size	octave, 4
 224              	octave:
 225 0004 05000000 		.word	5
 226              		.comm	angle,20,4
 227              		.comm	prevAngle,20,4
 228              		.comm	ADC_values,8,4
ARM GAS  C:\Users\JEFFSN~1\AppData\Local\Temp\ccEPDFmT.s 			page 5


 229              		.global	rawAngle
 230              		.bss
 231 0037 00       		.align	1
 232              		.type	rawAngle, %object
 233              		.size	rawAngle, 2
 234              	rawAngle:
 235 0038 0000     		.space	2
 236              		.global	midiSent
 237              		.align	1
 238              		.type	midiSent, %object
 239              		.size	midiSent, 2
 240              	midiSent:
 241 003a 0000     		.space	2
 242              		.global	midiOverflow
 243              		.align	1
 244              		.type	midiOverflow, %object
 245              		.size	midiOverflow, 2
 246              	midiOverflow:
 247 003c 0000     		.space	2
 248              		.comm	macroKnobValues,8,4
 249              		.global	currentCopedent
 250              		.type	currentCopedent, %object
 251              		.size	currentCopedent, 1
 252              	currentCopedent:
 253 003e 00       		.space	1
 254              		.global	necks
 255              		.data
 256              		.align	2
 257              		.type	necks, %object
 258              		.size	necks, 2
 259              	necks:
 260 0008 00       		.byte	0
 261 0009 01       		.byte	1
 262              		.comm	rx1Channel,1,1
 263              		.comm	rx2Channel,1,32
 264              		.comm	rx1TD,2,4
 265              		.comm	rx2TD,2,32
 266              		.comm	txChannel,1,32
 267              		.comm	txTD,1,32
 268              		.comm	rx3Channel,1,32
 269              		.comm	rx3TD,1,32
 270              		.comm	rxBufferPluck,52,32
 271              		.comm	rxBufferBar,16,32
 272              		.comm	strings,24,4
 273              		.comm	prevStrings,24,4
 274              		.comm	bar,4,4
 275              		.comm	prevBar,4,4
 276              		.comm	maxStrings,24,4
 277              		.global	amHere
 278              		.bss
 279              		.type	amHere, %object
 280              		.size	amHere, 1
 281              	amHere:
 282 003f 00       		.space	1
 283              		.global	spiCounter
 284              		.type	spiCounter, %object
 285              		.size	spiCounter, 1
ARM GAS  C:\Users\JEFFSN~1\AppData\Local\Temp\ccEPDFmT.s 			page 6


 286              	spiCounter:
 287 0040 00       		.space	1
 288              		.global	newDataFlag
 289              		.type	newDataFlag, %object
 290              		.size	newDataFlag, 1
 291              	newDataFlag:
 292 0041 00       		.space	1
 293              		.global	prevOctave
 294 0042 0000     		.align	2
 295              		.type	prevOctave, %object
 296              		.size	prevOctave, 4
 297              	prevOctave:
 298 0044 00000000 		.space	4
 299              		.global	pluck_index
 300              		.type	pluck_index, %object
 301              		.size	pluck_index, 1
 302              	pluck_index:
 303 0048 00       		.space	1
 304              		.global	amHere2
 305              		.type	amHere2, %object
 306              		.size	amHere2, 1
 307              	amHere2:
 308 0049 00       		.space	1
 309              		.global	spiCounter2
 310              		.type	spiCounter2, %object
 311              		.size	spiCounter2, 1
 312              	spiCounter2:
 313 004a 00       		.space	1
 314              		.global	newDataFlag2
 315              		.type	newDataFlag2, %object
 316              		.size	newDataFlag2, 1
 317              	newDataFlag2:
 318 004b 00       		.space	1
 319              		.global	currentPluckBuffer
 320              		.type	currentPluckBuffer, %object
 321              		.size	currentPluckBuffer, 1
 322              	currentPluckBuffer:
 323 004c 00       		.space	1
 324              		.global	currentBarBuffer
 325              		.type	currentBarBuffer, %object
 326              		.size	currentBarBuffer, 1
 327              	currentBarBuffer:
 328 004d 00       		.space	1
 329              		.global	pluckErrorCount
 330              		.type	pluckErrorCount, %object
 331              		.size	pluckErrorCount, 1
 332              	pluckErrorCount:
 333 004e 00       		.space	1
 334              		.global	SPI1ErrorCount
 335 004f 00       		.align	1
 336              		.type	SPI1ErrorCount, %object
 337              		.size	SPI1ErrorCount, 2
 338              	SPI1ErrorCount:
 339 0050 0000     		.space	2
 340              		.global	inputData
 341              		.type	inputData, %object
 342              		.size	inputData, 1
ARM GAS  C:\Users\JEFFSN~1\AppData\Local\Temp\ccEPDFmT.s 			page 7


 343              	inputData:
 344 0052 00       		.space	1
 345              		.section	.text.spis_1_ss,"ax",%progbits
 346              		.align	2
 347              		.global	spis_1_ss
 348              		.thumb
 349              		.thumb_func
 350              		.type	spis_1_ss, %function
 351              	spis_1_ss:
 352              	.LFB64:
 353              		.file 1 "main.c"
   1:main.c        **** /*main.c
   2:main.c        **** *****************************************************************************/
   3:main.c        **** #include <device.h>
   4:main.c        **** #include <stdio.h>
   5:main.c        **** #include <math.h>
   6:main.c        **** #include "oled.h"
   7:main.c        **** #include "main.h"
   8:main.c        **** 
   9:main.c        **** 
  10:main.c        **** #define EEPROM_NECKS_OFFSET 0
  11:main.c        **** #define EEPROM_COPEDENT_OFFSET 2
  12:main.c        **** #define COPEDENT_SIZE_IN_BYTES 278 //including name bytes
  13:main.c        **** #define COPEDENT_SIZE_IN_FLOATS 132 // not including name bytes
  14:main.c        **** #define NAME_LENGTH_IN_BYTES 14
  15:main.c        **** #define EEPROM_CALIBRATION_OFFSET (EEPROM_NECKS_OFFSET + EEPROM_COPEDENT_OFFSET + (MAX_NUM_COPEDENT
  16:main.c        **** #define CALIBRATION_SIZE_IN_BYTES NUM_PEDALS * 4 //for each pedal, store 2 bytes for high and 2 byt
  17:main.c        **** #define MACRO_CLIPPED_LENGTH 8
  18:main.c        **** #define NAME_CLIPPED_LENGTH 11
  19:main.c        **** #define COPEDENT_NAME_CLIPPED_LENGTH 8
  20:main.c        **** #define myBufferSize 32
  21:main.c        **** void parseSysex(void);
  22:main.c        **** 
  23:main.c        **** uint8_t sysexBuffer[2048];
  24:main.c        **** uint32_t sysexPointer = 0;
  25:main.c        **** uint8_t receivingSysex = 0;
  26:main.c        **** uint8_t parsingSysex = 0;
  27:main.c        **** volatile uint8_t presetArray[2048];
  28:main.c        **** uint8_t presetNumberToWrite = 0;
  29:main.c        **** uint8_t copedentNumberToWrite = 0;
  30:main.c        **** uint8_t sendMessageEnd = 0;
  31:main.c        **** 
  32:main.c        **** uint8_t sendSingleParamUpdate = 0;
  33:main.c        **** uint8_t singleParamToUpdateHigh = 0;
  34:main.c        **** uint8_t singleParamToUpdateLow = 0;
  35:main.c        **** uint8_t singleParamValueHigh = 0;
  36:main.c        **** uint8_t singleParamValueLow = 0;
  37:main.c        ****             
  38:main.c        **** uint8_t sendMappingChangeUpdate = 0;
  39:main.c        ****             
  40:main.c        **** enum presetArraySectionState
  41:main.c        **** {
  42:main.c        ****     presetName = 0,
  43:main.c        ****     macroNames = 1,
  44:main.c        ****     initialVals = 2,
  45:main.c        ****     mapCountNext = 3,
  46:main.c        ****     mapping = 4,
ARM GAS  C:\Users\JEFFSN~1\AppData\Local\Temp\ccEPDFmT.s 			page 8


  47:main.c        ****     presetEnd = 5,
  48:main.c        **** };
  49:main.c        **** uint8_t presetArraySection = presetName;
  50:main.c        **** 
  51:main.c        **** uint16_t messageArraySendCount = 0;
  52:main.c        **** uint16_t messageArraySize = 0;
  53:main.c        **** 
  54:main.c        **** uint8_t sysexMessageInProgress = 0;
  55:main.c        **** 
  56:main.c        **** uint8_t bufCount = 0;
  57:main.c        **** volatile uint8_t sendingMessage = 0;
  58:main.c        **** volatile uint8_t sendKnobs = 0;
  59:main.c        **** uint32_t currentFloat = 0;
  60:main.c        **** uint32_t mapCount = 0;
  61:main.c        **** 
  62:main.c        **** uint16_t valsCount = 0;
  63:main.c        **** uint16_t mapCountExpectation = 0;
  64:main.c        **** uint16_t numMappings = 0;
  65:main.c        **** volatile uint8_t parseThatMF = 0;
  66:main.c        **** volatile float valCheck = 0.0f;
  67:main.c        **** volatile float testVal = 0.0f;
  68:main.c        **** 
  69:main.c        **** int numStrings = 10;
  70:main.c        **** /*
  71:main.c        **** #define TUNING_ARRAY_SIZE 258
  72:main.c        **** uint8_t tuningArray[TUNING_ARRAY_SIZE];
  73:main.c        **** */
  74:main.c        **** 
  75:main.c        **** volatile uint8 usbActivityCounter = 0u;
  76:main.c        **** uint8 midiMsg[4];
  77:main.c        **** uint8_t currentVBUS = 0;
  78:main.c        **** uint8_t prevVBUS = 0;
  79:main.c        **** volatile uint8_t USB_active = 0;
  80:main.c        **** volatile uint8_t USB_check_flag = 0;
  81:main.c        **** 
  82:main.c        **** uint8_t mappingArray[6];
  83:main.c        **** 
  84:main.c        **** uint8 inBuffer[myBufferSize];
  85:main.c        **** 
  86:main.c        **** uint8 myArray[myBufferSize];
  87:main.c        **** uint8 myInputArray[2];
  88:main.c        **** int32_t linearPotValue32Bit[2];
  89:main.c        **** uint8_t i = 0;
  90:main.c        **** uint8_t counter = 0;
  91:main.c        **** uint8_t returnedData[myBufferSize];
  92:main.c        **** int32_t temper;
  93:main.c        **** int previousButtons[11];
  94:main.c        **** int octave = 5;
  95:main.c        **** uint16_t angle[10];
  96:main.c        **** uint16_t prevAngle[10];
  97:main.c        **** 
  98:main.c        **** uint16_t ADC_values[4];
  99:main.c        **** uint16_t rawAngle = 0;
 100:main.c        **** uint16_t midiSent = 0;
 101:main.c        **** uint16_t midiOverflow = 0;
 102:main.c        **** 
 103:main.c        **** uint8_t macroKnobValues[8];
ARM GAS  C:\Users\JEFFSN~1\AppData\Local\Temp\ccEPDFmT.s 			page 9


 104:main.c        **** 
 105:main.c        **** uint8_t currentCopedent = 0;
 106:main.c        **** uint8_t necks[2] = {0,1};
 107:main.c        **** 
 108:main.c        **** void checkUSB_Vbus(void);
 109:main.c        **** void sendMIDIAllNotesOff(void);
 110:main.c        **** void sendMIDIPitchBend(int val, int channel);
 111:main.c        **** void firstCheckUSB_Vbus(void);
 112:main.c        **** void restartSystemCheck(void);
 113:main.c        **** void sendMIDINoteOn(int MIDInoteNum, int velocity, int channel);
 114:main.c        **** void sendMIDIControlChange(int CCnum, int CCval, int channel);
 115:main.c        **** CY_ISR_PROTO(SleepIsr_function);
 116:main.c        **** void noteEvent(int string);
 117:main.c        **** void I2C_reset(void);
 118:main.c        **** void CCEvent(int cc, int val);
 119:main.c        **** void DmaRxConfiguration(void);
 120:main.c        **** /* DMA Configuration for DMA_RX */
 121:main.c        **** #define DMA_RX_BYTES_PER_BURST      (1u)
 122:main.c        **** #define DMA_RX_REQUEST_PER_BURST    (1u)
 123:main.c        **** #define DMA_RX_SRC_BASE             (CYDEV_PERIPH_BASE)
 124:main.c        **** #define DMA_RX_DST_BASE             (CYDEV_SRAM_BASE)
 125:main.c        **** 
 126:main.c        **** void DmaTxConfiguration(void);
 127:main.c        **** 
 128:main.c        **** /* DMA Configuration for DMA_TX */
 129:main.c        **** #define DMA_TX_BYTES_PER_BURST      (1u)
 130:main.c        **** #define DMA_TX_REQUEST_PER_BURST    (1u)
 131:main.c        **** #define DMA_TX_SRC_BASE             (CYDEV_SRAM_BASE)
 132:main.c        **** #define DMA_TX_DST_BASE             (CYDEV_PERIPH_BASE)
 133:main.c        **** 
 134:main.c        **** #define PLUCK_BUFFER_SIZE                 (26u)
 135:main.c        **** #define BAR_BUFFER_SIZE                 (8u)
 136:main.c        **** #define STORE_TD_CFG_ONCMPLT        (1u)
 137:main.c        **** uint8 rx1Channel, rx2Channel __attribute__((aligned(32)));
 138:main.c        **** uint8 rx1TD[2], rx2TD[2]  __attribute__((aligned(32)));
 139:main.c        **** 
 140:main.c        **** volatile uint8 txChannel __attribute__((aligned(32)));
 141:main.c        **** volatile uint8 txTD __attribute__((aligned(32)));
 142:main.c        **** 
 143:main.c        **** volatile uint8 rx3Channel __attribute__((aligned(32)));
 144:main.c        **** volatile uint8 rx3TD __attribute__((aligned(32)));
 145:main.c        **** 
 146:main.c        **** 
 147:main.c        **** volatile uint8 rxBufferPluck[2][PLUCK_BUFFER_SIZE] __attribute__((aligned(32)));
 148:main.c        **** volatile uint8 rxBufferBar[2][BAR_BUFFER_SIZE] __attribute__((aligned(32)));
 149:main.c        **** 
 150:main.c        **** volatile uint16_t strings[12];
 151:main.c        **** volatile uint16_t prevStrings[12];
 152:main.c        **** volatile uint16_t bar[2];
 153:main.c        **** volatile uint16_t prevBar[2];
 154:main.c        **** volatile uint16_t maxStrings[12];
 155:main.c        **** volatile uint8_t amHere = 0;
 156:main.c        **** volatile uint8_t spiCounter = 0;
 157:main.c        **** volatile uint8_t newDataFlag = 0;
 158:main.c        **** int prevOctave = 0;
 159:main.c        **** uint8_t pluck_index = 0;
 160:main.c        **** volatile uint8_t amHere2 = 0;
ARM GAS  C:\Users\JEFFSN~1\AppData\Local\Temp\ccEPDFmT.s 			page 10


 161:main.c        **** volatile uint8_t spiCounter2 = 0;
 162:main.c        **** volatile uint8_t newDataFlag2 = 0;
 163:main.c        **** volatile uint8_t currentPluckBuffer = 0;
 164:main.c        **** volatile uint8_t currentBarBuffer = 0;
 165:main.c        **** volatile uint8_t pluckErrorCount = 0;
 166:main.c        **** volatile uint16_t SPI1ErrorCount = 0;
 167:main.c        **** 
 168:main.c        **** 
 169:main.c        **** 
 170:main.c        **** volatile uint8_t inputData = 0;
 171:main.c        **** 
 172:main.c        **** 
 173:main.c        **** union breakFloat {
 174:main.c        ****  float f;
 175:main.c        ****  uint8_t b[4];  
 176:main.c        ****  uint32_t u32;
 177:main.c        **** };
 178:main.c        **** 
 179:main.c        **** 
 180:main.c        **** CY_ISR(spis_1_ss)
 181:main.c        **** {
 354              		.loc 1 181 0
 355              		.cfi_startproc
 356              		@ args = 0, pretend = 0, frame = 8
 357              		@ frame_needed = 1, uses_anonymous_args = 0
 358 0000 90B5     		push	{r4, r7, lr}
 359              		.cfi_def_cfa_offset 12
 360              		.cfi_offset 4, -12
 361              		.cfi_offset 7, -8
 362              		.cfi_offset 14, -4
 363 0002 83B0     		sub	sp, sp, #12
 364              		.cfi_def_cfa_offset 24
 365 0004 00AF     		add	r7, sp, #0
 366              		.cfi_def_cfa_register 7
 182:main.c        ****     currentPluckBuffer = !currentPluckBuffer;
 367              		.loc 1 182 0
 368 0006 554B     		ldr	r3, .L5
 369 0008 1B78     		ldrb	r3, [r3]
 370 000a DBB2     		uxtb	r3, r3
 371 000c 002B     		cmp	r3, #0
 372 000e 0CBF     		ite	eq
 373 0010 0123     		moveq	r3, #1
 374 0012 0023     		movne	r3, #0
 375 0014 DBB2     		uxtb	r3, r3
 376 0016 1A46     		mov	r2, r3
 377 0018 504B     		ldr	r3, .L5
 378 001a 1A70     		strb	r2, [r3]
 183:main.c        **** 
 184:main.c        ****     if ((rxBufferPluck[!currentPluckBuffer][0] == 254) && (rxBufferPluck[!currentPluckBuffer][25] =
 379              		.loc 1 184 0
 380 001c 4F4B     		ldr	r3, .L5
 381 001e 1B78     		ldrb	r3, [r3]
 382 0020 DBB2     		uxtb	r3, r3
 383 0022 002B     		cmp	r3, #0
 384 0024 0CBF     		ite	eq
 385 0026 0123     		moveq	r3, #1
 386 0028 0023     		movne	r3, #0
ARM GAS  C:\Users\JEFFSN~1\AppData\Local\Temp\ccEPDFmT.s 			page 11


 387 002a DBB2     		uxtb	r3, r3
 388 002c 1946     		mov	r1, r3
 389 002e 4C4A     		ldr	r2, .L5+4
 390 0030 1A23     		movs	r3, #26
 391 0032 03FB01F3 		mul	r3, r3, r1
 392 0036 1344     		add	r3, r3, r2
 393 0038 1B78     		ldrb	r3, [r3]
 394 003a DBB2     		uxtb	r3, r3
 395 003c FE2B     		cmp	r3, #254
 396 003e 4FD1     		bne	.L2
 397              		.loc 1 184 0 is_stmt 0 discriminator 1
 398 0040 464B     		ldr	r3, .L5
 399 0042 1B78     		ldrb	r3, [r3]
 400 0044 DBB2     		uxtb	r3, r3
 401 0046 002B     		cmp	r3, #0
 402 0048 0CBF     		ite	eq
 403 004a 0123     		moveq	r3, #1
 404 004c 0023     		movne	r3, #0
 405 004e DBB2     		uxtb	r3, r3
 406 0050 1946     		mov	r1, r3
 407 0052 434A     		ldr	r2, .L5+4
 408 0054 1A23     		movs	r3, #26
 409 0056 03FB01F3 		mul	r3, r3, r1
 410 005a 1344     		add	r3, r3, r2
 411 005c 1933     		adds	r3, r3, #25
 412 005e 1B78     		ldrb	r3, [r3]
 413 0060 DBB2     		uxtb	r3, r3
 414 0062 FD2B     		cmp	r3, #253
 415 0064 3CD1     		bne	.L2
 416              	.LBB2:
 185:main.c        ****     {
 186:main.c        ****         for (int i = 0 ; i < numStrings; i++)
 417              		.loc 1 186 0 is_stmt 1
 418 0066 0023     		movs	r3, #0
 419 0068 7B60     		str	r3, [r7, #4]
 420 006a 34E0     		b	.L3
 421              	.L4:
 187:main.c        ****         {
 188:main.c        ****             strings[i] = ((rxBufferPluck[!currentPluckBuffer][(i*2)+1] << 8) + rxBufferPluck[!curre
 422              		.loc 1 188 0 discriminator 3
 423 006c 3B4B     		ldr	r3, .L5
 424 006e 1B78     		ldrb	r3, [r3]
 425 0070 DBB2     		uxtb	r3, r3
 426 0072 002B     		cmp	r3, #0
 427 0074 0CBF     		ite	eq
 428 0076 0123     		moveq	r3, #1
 429 0078 0023     		movne	r3, #0
 430 007a DBB2     		uxtb	r3, r3
 431 007c 1846     		mov	r0, r3
 432 007e 7B68     		ldr	r3, [r7, #4]
 433 0080 5B00     		lsls	r3, r3, #1
 434 0082 0133     		adds	r3, r3, #1
 435 0084 3649     		ldr	r1, .L5+4
 436 0086 1A22     		movs	r2, #26
 437 0088 02FB00F2 		mul	r2, r2, r0
 438 008c 0A44     		add	r2, r2, r1
 439 008e 1344     		add	r3, r3, r2
ARM GAS  C:\Users\JEFFSN~1\AppData\Local\Temp\ccEPDFmT.s 			page 12


 440 0090 1B78     		ldrb	r3, [r3]
 441 0092 DBB2     		uxtb	r3, r3
 442 0094 9BB2     		uxth	r3, r3
 443 0096 1B02     		lsls	r3, r3, #8
 444 0098 9AB2     		uxth	r2, r3
 445 009a 304B     		ldr	r3, .L5
 446 009c 1B78     		ldrb	r3, [r3]
 447 009e DBB2     		uxtb	r3, r3
 448 00a0 002B     		cmp	r3, #0
 449 00a2 0CBF     		ite	eq
 450 00a4 0123     		moveq	r3, #1
 451 00a6 0023     		movne	r3, #0
 452 00a8 DBB2     		uxtb	r3, r3
 453 00aa 1C46     		mov	r4, r3
 454 00ac 7B68     		ldr	r3, [r7, #4]
 455 00ae 0133     		adds	r3, r3, #1
 456 00b0 5B00     		lsls	r3, r3, #1
 457 00b2 2B48     		ldr	r0, .L5+4
 458 00b4 1A21     		movs	r1, #26
 459 00b6 01FB04F1 		mul	r1, r1, r4
 460 00ba 0144     		add	r1, r1, r0
 461 00bc 0B44     		add	r3, r3, r1
 462 00be 1B78     		ldrb	r3, [r3]
 463 00c0 DBB2     		uxtb	r3, r3
 464 00c2 9BB2     		uxth	r3, r3
 465 00c4 1344     		add	r3, r3, r2
 466 00c6 99B2     		uxth	r1, r3
 467 00c8 264A     		ldr	r2, .L5+8
 468 00ca 7B68     		ldr	r3, [r7, #4]
 469 00cc 22F81310 		strh	r1, [r2, r3, lsl #1]	@ movhi
 186:main.c        ****         {
 470              		.loc 1 186 0 discriminator 3
 471 00d0 7B68     		ldr	r3, [r7, #4]
 472 00d2 0133     		adds	r3, r3, #1
 473 00d4 7B60     		str	r3, [r7, #4]
 474              	.L3:
 186:main.c        ****         {
 475              		.loc 1 186 0 is_stmt 0 discriminator 1
 476 00d6 244B     		ldr	r3, .L5+12
 477 00d8 1B68     		ldr	r3, [r3]
 478 00da 7A68     		ldr	r2, [r7, #4]
 479 00dc 9A42     		cmp	r2, r3
 480 00de C5DB     		blt	.L4
 481              	.L2:
 482              	.LBE2:
 189:main.c        ****         }
 190:main.c        ****     }
 191:main.c        ****     SPIS_1_ClearRxBuffer();
 483              		.loc 1 191 0 is_stmt 1
 484 00e0 FFF7FEFF 		bl	SPIS_1_ClearRxBuffer
 192:main.c        ****     CyDmaClearPendingDrq(rx1Channel);
 485              		.loc 1 192 0
 486 00e4 214B     		ldr	r3, .L5+16
 487 00e6 1B78     		ldrb	r3, [r3]	@ zero_extendqisi2
 488 00e8 1846     		mov	r0, r3
 489 00ea FFF7FEFF 		bl	CyDmaClearPendingDrq
 193:main.c        **** 
ARM GAS  C:\Users\JEFFSN~1\AppData\Local\Temp\ccEPDFmT.s 			page 13


 194:main.c        ****     //set up the next DMA transaction
 195:main.c        **** 
 196:main.c        ****     CyDmaTdSetConfiguration(rx1TD[currentPluckBuffer], PLUCK_BUFFER_SIZE, DMA_DISABLE_TD, TD_INC_DS
 490              		.loc 1 196 0
 491 00ee 1B4B     		ldr	r3, .L5
 492 00f0 1B78     		ldrb	r3, [r3]
 493 00f2 DBB2     		uxtb	r3, r3
 494 00f4 1A46     		mov	r2, r3
 495 00f6 1E4B     		ldr	r3, .L5+20
 496 00f8 985C     		ldrb	r0, [r3, r2]	@ zero_extendqisi2
 497 00fa 0223     		movs	r3, #2
 498 00fc FE22     		movs	r2, #254
 499 00fe 1A21     		movs	r1, #26
 500 0100 FFF7FEFF 		bl	CyDmaTdSetConfiguration
 197:main.c        ****     CyDmaTdSetAddress(rx1TD[currentPluckBuffer], LO16((uint32) SPIS_1_RXDATA_PTR), LO16((uint32) rx
 501              		.loc 1 197 0
 502 0104 154B     		ldr	r3, .L5
 503 0106 1B78     		ldrb	r3, [r3]
 504 0108 DBB2     		uxtb	r3, r3
 505 010a 1A46     		mov	r2, r3
 506 010c 184B     		ldr	r3, .L5+20
 507 010e 985C     		ldrb	r0, [r3, r2]	@ zero_extendqisi2
 508 0110 124B     		ldr	r3, .L5
 509 0112 1B78     		ldrb	r3, [r3]
 510 0114 DBB2     		uxtb	r3, r3
 511 0116 1A46     		mov	r2, r3
 512 0118 1A23     		movs	r3, #26
 513 011a 03FB02F3 		mul	r3, r3, r2
 514 011e 104A     		ldr	r2, .L5+4
 515 0120 1344     		add	r3, r3, r2
 516 0122 9BB2     		uxth	r3, r3
 517 0124 1A46     		mov	r2, r3
 518 0126 46F25B41 		movw	r1, #25691
 519 012a FFF7FEFF 		bl	CyDmaTdSetAddress
 198:main.c        ****     CyDmaChSetInitialTd(rx1Channel, rx1TD[currentPluckBuffer]);
 520              		.loc 1 198 0
 521 012e 0F4B     		ldr	r3, .L5+16
 522 0130 1A78     		ldrb	r2, [r3]	@ zero_extendqisi2
 523 0132 0A4B     		ldr	r3, .L5
 524 0134 1B78     		ldrb	r3, [r3]
 525 0136 DBB2     		uxtb	r3, r3
 526 0138 1946     		mov	r1, r3
 527 013a 0D4B     		ldr	r3, .L5+20
 528 013c 5B5C     		ldrb	r3, [r3, r1]	@ zero_extendqisi2
 529 013e 1946     		mov	r1, r3
 530 0140 1046     		mov	r0, r2
 531 0142 FFF7FEFF 		bl	CyDmaChSetInitialTd
 199:main.c        ****     CyDmaChEnable(rx1Channel, 1);
 532              		.loc 1 199 0
 533 0146 094B     		ldr	r3, .L5+16
 534 0148 1B78     		ldrb	r3, [r3]	@ zero_extendqisi2
 535 014a 0121     		movs	r1, #1
 536 014c 1846     		mov	r0, r3
 537 014e FFF7FEFF 		bl	CyDmaChEnable
 200:main.c        **** 
 201:main.c        **** }
 538              		.loc 1 201 0
ARM GAS  C:\Users\JEFFSN~1\AppData\Local\Temp\ccEPDFmT.s 			page 14


 539 0152 00BF     		nop
 540 0154 0C37     		adds	r7, r7, #12
 541              		.cfi_def_cfa_offset 12
 542 0156 BD46     		mov	sp, r7
 543              		.cfi_def_cfa_register 13
 544              		@ sp needed
 545 0158 90BD     		pop	{r4, r7, pc}
 546              	.L6:
 547 015a 00BF     		.align	2
 548              	.L5:
 549 015c 00000000 		.word	currentPluckBuffer
 550 0160 00000000 		.word	rxBufferPluck
 551 0164 00000000 		.word	strings
 552 0168 00000000 		.word	numStrings
 553 016c 00000000 		.word	rx1Channel
 554 0170 00000000 		.word	rx1TD
 555              		.cfi_endproc
 556              	.LFE64:
 557              		.size	spis_1_ss, .-spis_1_ss
 558              		.global	spiAdjusted
 559              		.bss
 560              		.type	spiAdjusted, %object
 561              		.size	spiAdjusted, 1
 562              	spiAdjusted:
 563 0053 00       		.space	1
 564              		.global	mySpiCounter
 565              		.type	mySpiCounter, %object
 566              		.size	mySpiCounter, 1
 567              	mySpiCounter:
 568 0054 00       		.space	1
 569              		.global	offsetErrorCount
 570 0055 00       		.align	1
 571              		.type	offsetErrorCount, %object
 572              		.size	offsetErrorCount, 2
 573              	offsetErrorCount:
 574 0056 0000     		.space	2
 575              		.global	SPI2errorflag
 576              		.type	SPI2errorflag, %object
 577              		.size	SPI2errorflag, 1
 578              	SPI2errorflag:
 579 0058 00       		.space	1
 580              		.global	bar_index
 581 0059 000000   		.align	2
 582              		.type	bar_index, %object
 583              		.size	bar_index, 4
 584              	bar_index:
 585 005c 00000000 		.space	4
 586              		.comm	knobs,4,4
 587              		.comm	prevKnobs,4,4
 588              		.comm	knobs7bit,4,4
 589              		.comm	prevKnobs7bit,4,4
 590              		.global	SPI2started
 591              		.type	SPI2started, %object
 592              		.size	SPI2started, 1
 593              	SPI2started:
 594 0060 00       		.space	1
 595              		.global	whichMacro
ARM GAS  C:\Users\JEFFSN~1\AppData\Local\Temp\ccEPDFmT.s 			page 15


 596              		.type	whichMacro, %object
 597              		.size	whichMacro, 1
 598              	whichMacro:
 599 0061 00       		.space	1
 600              		.section	.text.spis_2_ss,"ax",%progbits
 601              		.align	2
 602              		.global	spis_2_ss
 603              		.thumb
 604              		.thumb_func
 605              		.type	spis_2_ss, %function
 606              	spis_2_ss:
 607              	.LFB65:
 202:main.c        **** 
 203:main.c        **** 
 204:main.c        **** 
 205:main.c        **** uint8_t spiAdjusted = 0;
 206:main.c        **** uint8_t mySpiCounter = 0;
 207:main.c        **** volatile uint16_t offsetErrorCount = 0;
 208:main.c        **** volatile uint8_t SPI2errorflag = 0;
 209:main.c        **** volatile int bar_index = 0;
 210:main.c        **** uint8_t knobs[4];
 211:main.c        **** uint8_t prevKnobs[4];
 212:main.c        **** 
 213:main.c        **** uint8_t knobs7bit[4];
 214:main.c        **** uint8_t prevKnobs7bit[4];
 215:main.c        **** 
 216:main.c        **** volatile uint8_t SPI2started = 0;
 217:main.c        **** 
 218:main.c        **** uint8_t whichMacro = 0;
 219:main.c        **** 
 220:main.c        **** CY_ISR(spis_2_ss)
 221:main.c        **** {
 608              		.loc 1 221 0
 609              		.cfi_startproc
 610              		@ args = 0, pretend = 0, frame = 0
 611              		@ frame_needed = 1, uses_anonymous_args = 0
 612 0000 80B5     		push	{r7, lr}
 613              		.cfi_def_cfa_offset 8
 614              		.cfi_offset 7, -8
 615              		.cfi_offset 14, -4
 616 0002 00AF     		add	r7, sp, #0
 617              		.cfi_def_cfa_register 7
 222:main.c        **** 
 223:main.c        ****     currentBarBuffer = !currentBarBuffer;
 618              		.loc 1 223 0
 619 0004 214B     		ldr	r3, .L8
 620 0006 1B78     		ldrb	r3, [r3]
 621 0008 DBB2     		uxtb	r3, r3
 622 000a 002B     		cmp	r3, #0
 623 000c 0CBF     		ite	eq
 624 000e 0123     		moveq	r3, #1
 625 0010 0023     		movne	r3, #0
 626 0012 DBB2     		uxtb	r3, r3
 627 0014 1A46     		mov	r2, r3
 628 0016 1D4B     		ldr	r3, .L8
 629 0018 1A70     		strb	r2, [r3]
 224:main.c        ****     SPIS_2_ClearRxBuffer();
ARM GAS  C:\Users\JEFFSN~1\AppData\Local\Temp\ccEPDFmT.s 			page 16


 630              		.loc 1 224 0
 631 001a FFF7FEFF 		bl	SPIS_2_ClearRxBuffer
 225:main.c        ****     CyDmaClearPendingDrq(rx2Channel);
 632              		.loc 1 225 0
 633 001e 1C4B     		ldr	r3, .L8+4
 634 0020 1B78     		ldrb	r3, [r3]	@ zero_extendqisi2
 635 0022 1846     		mov	r0, r3
 636 0024 FFF7FEFF 		bl	CyDmaClearPendingDrq
 226:main.c        **** 
 227:main.c        ****     //set up the next DMA transaction
 228:main.c        ****     CyDmaTdSetConfiguration(rx2TD[currentBarBuffer], BAR_BUFFER_SIZE, DMA_DISABLE_TD, TD_INC_DST_AD
 637              		.loc 1 228 0
 638 0028 184B     		ldr	r3, .L8
 639 002a 1B78     		ldrb	r3, [r3]
 640 002c DBB2     		uxtb	r3, r3
 641 002e 1A46     		mov	r2, r3
 642 0030 184B     		ldr	r3, .L8+8
 643 0032 985C     		ldrb	r0, [r3, r2]	@ zero_extendqisi2
 644 0034 0623     		movs	r3, #6
 645 0036 FE22     		movs	r2, #254
 646 0038 0821     		movs	r1, #8
 647 003a FFF7FEFF 		bl	CyDmaTdSetConfiguration
 229:main.c        ****     CyDmaTdSetAddress(rx2TD[currentBarBuffer], LO16((uint32) SPIS_2_RXDATA_PTR), LO16((uint32) rxBu
 648              		.loc 1 229 0
 649 003e 134B     		ldr	r3, .L8
 650 0040 1B78     		ldrb	r3, [r3]
 651 0042 DBB2     		uxtb	r3, r3
 652 0044 1A46     		mov	r2, r3
 653 0046 134B     		ldr	r3, .L8+8
 654 0048 985C     		ldrb	r0, [r3, r2]	@ zero_extendqisi2
 655 004a 104B     		ldr	r3, .L8
 656 004c 1B78     		ldrb	r3, [r3]
 657 004e DBB2     		uxtb	r3, r3
 658 0050 DB00     		lsls	r3, r3, #3
 659 0052 114A     		ldr	r2, .L8+12
 660 0054 1344     		add	r3, r3, r2
 661 0056 9BB2     		uxth	r3, r3
 662 0058 1A46     		mov	r2, r3
 663 005a 46F25751 		movw	r1, #25943
 664 005e FFF7FEFF 		bl	CyDmaTdSetAddress
 230:main.c        ****     CyDmaChSetInitialTd(rx2Channel, rx2TD[currentBarBuffer]);
 665              		.loc 1 230 0
 666 0062 0B4B     		ldr	r3, .L8+4
 667 0064 1A78     		ldrb	r2, [r3]	@ zero_extendqisi2
 668 0066 094B     		ldr	r3, .L8
 669 0068 1B78     		ldrb	r3, [r3]
 670 006a DBB2     		uxtb	r3, r3
 671 006c 1946     		mov	r1, r3
 672 006e 094B     		ldr	r3, .L8+8
 673 0070 5B5C     		ldrb	r3, [r3, r1]	@ zero_extendqisi2
 674 0072 1946     		mov	r1, r3
 675 0074 1046     		mov	r0, r2
 676 0076 FFF7FEFF 		bl	CyDmaChSetInitialTd
 231:main.c        ****     CyDmaChEnable(rx2Channel, 1);
 677              		.loc 1 231 0
 678 007a 054B     		ldr	r3, .L8+4
 679 007c 1B78     		ldrb	r3, [r3]	@ zero_extendqisi2
ARM GAS  C:\Users\JEFFSN~1\AppData\Local\Temp\ccEPDFmT.s 			page 17


 680 007e 0121     		movs	r1, #1
 681 0080 1846     		mov	r0, r3
 682 0082 FFF7FEFF 		bl	CyDmaChEnable
 232:main.c        **** }
 683              		.loc 1 232 0
 684 0086 00BF     		nop
 685 0088 80BD     		pop	{r7, pc}
 686              	.L9:
 687 008a 00BF     		.align	2
 688              	.L8:
 689 008c 00000000 		.word	currentBarBuffer
 690 0090 00000000 		.word	rx2Channel
 691 0094 00000000 		.word	rx2TD
 692 0098 00000000 		.word	rxBufferBar
 693              		.cfi_endproc
 694              	.LFE65:
 695              		.size	spis_2_ss, .-spis_2_ss
 696              		.bss
 697 0062 0000     		.align	2
 698              	eepromArray:
 699 0064 0000     		.space	2
 700              		.global	array
 701 0066 0000     		.align	2
 702              		.type	array, %object
 703              		.size	array, 2
 704              	array:
 705 0068 0000     		.space	2
 706              		.comm	eepromReturnValue,1,1
 707              		.global	Em_EEPROM_em_EepromStorage
 708              		.section	.rodata
 709              		.align	8
 710              		.type	Em_EEPROM_em_EepromStorage, %object
 711              		.size	Em_EEPROM_em_EepromStorage, 1024
 712              	Em_EEPROM_em_EepromStorage:
 713 0000 00000000 		.space	1024
 713      00000000 
 713      00000000 
 713      00000000 
 713      00000000 
 714              		.comm	eeprom_cnt,1,1
 715              		.comm	status,4,4
 716              		.comm	ptr,4,4
 717              		.global	barCount
 718              		.bss
 719 006a 0000     		.align	2
 720              		.type	barCount, %object
 721              		.size	barCount, 4
 722              	barCount:
 723 006c 00000000 		.space	4
 724              		.section	.text.Vbus_function,"ax",%progbits
 725              		.align	2
 726              		.global	Vbus_function
 727              		.thumb
 728              		.thumb_func
 729              		.type	Vbus_function, %function
 730              	Vbus_function:
 731              	.LFB66:
ARM GAS  C:\Users\JEFFSN~1\AppData\Local\Temp\ccEPDFmT.s 			page 18


 233:main.c        **** 
 234:main.c        **** 
 235:main.c        ****     static uint8 CYCODE eepromArray[]={ 0, 0 };
 236:main.c        ****                                             
 237:main.c        ****     uint8 array[] ={ 0, 0 };
 238:main.c        ****                                 
 239:main.c        ****     /*Return status for EEPROM and UART*/ 
 240:main.c        **** cy_en_em_eeprom_status_t eepromReturnValue;
 241:main.c        **** 
 242:main.c        **** 
 243:main.c        **** /* EEPROM storage in work flash, this is defined in Em_EEPROM.c*/
 244:main.c        **** #if defined (__ICCARM__)
 245:main.c        **** #pragma data_alignment = CY_FLASH_SIZEOF_ROW
 246:main.c        **** const uint8_t Em_EEPROM_em_EepromStorage[Em_EEPROM_PHYSICAL_SIZE] = {0u};
 247:main.c        **** #else
 248:main.c        **** const uint8_t Em_EEPROM_em_EepromStorage[Em_EEPROM_PHYSICAL_SIZE]
 249:main.c        **** __ALIGNED(CY_FLASH_SIZEOF_ROW) = {0u};
 250:main.c        **** #endif /* defined (__ICCARM__) */
 251:main.c        **** 
 252:main.c        ****     uint8 eeprom_cnt;
 253:main.c        ****     cystatus status;
 254:main.c        ****     volatile const uint8 * ptr;
 255:main.c        **** volatile int barCount = 0;
 256:main.c        **** 
 257:main.c        **** //#define I2C_1_TIMEOUT_ENABLE 1u //overwrites the default in the i2c block
 258:main.c        ****     
 259:main.c        **** //this ISR should happen when a USB cable is plugged in or unplugged.
 260:main.c        **** 
 261:main.c        **** CY_ISR(Vbus_function)
 262:main.c        **** {
 732              		.loc 1 262 0
 733              		.cfi_startproc
 734              		@ args = 0, pretend = 0, frame = 0
 735              		@ frame_needed = 1, uses_anonymous_args = 0
 736 0000 80B5     		push	{r7, lr}
 737              		.cfi_def_cfa_offset 8
 738              		.cfi_offset 7, -8
 739              		.cfi_offset 14, -4
 740 0002 00AF     		add	r7, sp, #0
 741              		.cfi_def_cfa_register 7
 263:main.c        ****     //plug or unplug event
 264:main.c        ****     //check if eeprom has a flag saying you just restarted. If so, don't restart again
 265:main.c        ****     //otherwise, restart
 266:main.c        ****     my_Vbus_ISR_ClearPending();
 742              		.loc 1 266 0
 743 0004 FFF7FEFF 		bl	my_Vbus_ISR_ClearPending
 267:main.c        ****     vBusPin_ClearInterrupt();
 744              		.loc 1 267 0
 745 0008 FFF7FEFF 		bl	vBusPin_ClearInterrupt
 268:main.c        ****     restartSystemCheck();
 746              		.loc 1 268 0
 747 000c FFF7FEFF 		bl	restartSystemCheck
 269:main.c        **** 
 270:main.c        **** }
 748              		.loc 1 270 0
 749 0010 00BF     		nop
 750 0012 80BD     		pop	{r7, pc}
ARM GAS  C:\Users\JEFFSN~1\AppData\Local\Temp\ccEPDFmT.s 			page 19


 751              		.cfi_endproc
 752              	.LFE66:
 753              		.size	Vbus_function, .-Vbus_function
 754              		.section	.text.restartSystemCheck,"ax",%progbits
 755              		.align	2
 756              		.global	restartSystemCheck
 757              		.thumb
 758              		.thumb_func
 759              		.type	restartSystemCheck, %function
 760              	restartSystemCheck:
 761              	.LFB67:
 271:main.c        **** 
 272:main.c        **** void restartSystemCheck()
 273:main.c        **** {
 762              		.loc 1 273 0
 763              		.cfi_startproc
 764              		@ args = 0, pretend = 0, frame = 0
 765              		@ frame_needed = 1, uses_anonymous_args = 0
 766 0000 80B5     		push	{r7, lr}
 767              		.cfi_def_cfa_offset 8
 768              		.cfi_offset 7, -8
 769              		.cfi_offset 14, -4
 770 0002 00AF     		add	r7, sp, #0
 771              		.cfi_def_cfa_register 7
 274:main.c        ****     eepromReturnValue = Em_EEPROM_Read(0u, eepromArray, 2u);
 772              		.loc 1 274 0
 773 0004 184B     		ldr	r3, .L15
 774 0006 0222     		movs	r2, #2
 775 0008 1849     		ldr	r1, .L15+4
 776 000a 0020     		movs	r0, #0
 777 000c FFF7FEFF 		bl	Cy_Em_EEPROM_Read
 778 0010 0346     		mov	r3, r0
 779 0012 1A46     		mov	r2, r3
 780 0014 164B     		ldr	r3, .L15+8
 781 0016 1A70     		strb	r2, [r3]
 275:main.c        ****     //only do the restart check if there is a USB cable plugged in (to avoid restarting while tryin
 276:main.c        ****     if (USB_VBusPresent() == 1)
 782              		.loc 1 276 0
 783 0018 FFF7FEFF 		bl	USB_VBusPresent
 784 001c 0346     		mov	r3, r0
 785 001e 012B     		cmp	r3, #1
 786 0020 20D1     		bne	.L14
 277:main.c        ****     {
 278:main.c        ****         if (*(volatile uint8 *) &eepromArray[0] == 1u)
 787              		.loc 1 278 0
 788 0022 124B     		ldr	r3, .L15+4
 789 0024 1B78     		ldrb	r3, [r3]
 790 0026 DBB2     		uxtb	r3, r3
 791 0028 012B     		cmp	r3, #1
 792 002a 0CD1     		bne	.L13
 279:main.c        ****         {
 280:main.c        ****             //a flag says we just restarted
 281:main.c        ****             //write a zero so it knows next time that it's OK to restart
 282:main.c        ****             array[0] = 0;
 793              		.loc 1 282 0
 794 002c 114B     		ldr	r3, .L15+12
 795 002e 0022     		movs	r2, #0
ARM GAS  C:\Users\JEFFSN~1\AppData\Local\Temp\ccEPDFmT.s 			page 20


 796 0030 1A70     		strb	r2, [r3]
 283:main.c        ****             Em_EEPROM_Write(0u,array,2u);     
 797              		.loc 1 283 0
 798 0032 0D4B     		ldr	r3, .L15
 799 0034 0222     		movs	r2, #2
 800 0036 0F49     		ldr	r1, .L15+12
 801 0038 0020     		movs	r0, #0
 802 003a FFF7FEFF 		bl	Cy_Em_EEPROM_Write
 284:main.c        ****             USB_check_flag = 1;
 803              		.loc 1 284 0
 804 003e 0E4B     		ldr	r3, .L15+16
 805 0040 0122     		movs	r2, #1
 806 0042 1A70     		strb	r2, [r3]
 285:main.c        ****         }
 286:main.c        ****         else
 287:main.c        ****         {
 288:main.c        ****            //otherwise, we need to restart
 289:main.c        ****            array[0] = 1;
 290:main.c        ****            Em_EEPROM_Write(0u,array,2u);  
 291:main.c        ****             USB_Stop();
 292:main.c        ****             I2C_1_Stop();
 293:main.c        ****             CySoftwareReset();
 294:main.c        ****         }
 295:main.c        ****     }
 296:main.c        **** }
 807              		.loc 1 296 0
 808 0044 0EE0     		b	.L14
 809              	.L13:
 289:main.c        ****            Em_EEPROM_Write(0u,array,2u);  
 810              		.loc 1 289 0
 811 0046 0B4B     		ldr	r3, .L15+12
 812 0048 0122     		movs	r2, #1
 813 004a 1A70     		strb	r2, [r3]
 290:main.c        ****             USB_Stop();
 814              		.loc 1 290 0
 815 004c 064B     		ldr	r3, .L15
 816 004e 0222     		movs	r2, #2
 817 0050 0849     		ldr	r1, .L15+12
 818 0052 0020     		movs	r0, #0
 819 0054 FFF7FEFF 		bl	Cy_Em_EEPROM_Write
 291:main.c        ****             I2C_1_Stop();
 820              		.loc 1 291 0
 821 0058 FFF7FEFF 		bl	USB_Stop
 292:main.c        ****             CySoftwareReset();
 822              		.loc 1 292 0
 823 005c FFF7FEFF 		bl	I2C_1_Stop
 293:main.c        ****         }
 824              		.loc 1 293 0
 825 0060 FFF7FEFF 		bl	CySoftwareReset
 826              	.L14:
 827              		.loc 1 296 0
 828 0064 00BF     		nop
 829 0066 80BD     		pop	{r7, pc}
 830              	.L16:
 831              		.align	2
 832              	.L15:
 833 0068 00000000 		.word	Em_EEPROM_context
ARM GAS  C:\Users\JEFFSN~1\AppData\Local\Temp\ccEPDFmT.s 			page 21


 834 006c 64000000 		.word	eepromArray
 835 0070 00000000 		.word	eepromReturnValue
 836 0074 00000000 		.word	array
 837 0078 00000000 		.word	USB_check_flag
 838              		.cfi_endproc
 839              	.LFE67:
 840              		.size	restartSystemCheck, .-restartSystemCheck
 841              		.global	__aeabi_fcmpgt
 842              		.global	__aeabi_fcmplt
 843              		.section	.text.LEAF_clip,"ax",%progbits
 844              		.align	2
 845              		.global	LEAF_clip
 846              		.thumb
 847              		.thumb_func
 848              		.type	LEAF_clip, %function
 849              	LEAF_clip:
 850              	.LFB68:
 297:main.c        ****     
 298:main.c        **** #define INV_440 0.0022727272727273f
 299:main.c        **** 
 300:main.c        **** float   LEAF_clip(float min, float val, float max)
 301:main.c        **** {
 851              		.loc 1 301 0
 852              		.cfi_startproc
 853              		@ args = 0, pretend = 0, frame = 24
 854              		@ frame_needed = 1, uses_anonymous_args = 0
 855 0000 80B5     		push	{r7, lr}
 856              		.cfi_def_cfa_offset 8
 857              		.cfi_offset 7, -8
 858              		.cfi_offset 14, -4
 859 0002 86B0     		sub	sp, sp, #24
 860              		.cfi_def_cfa_offset 32
 861 0004 00AF     		add	r7, sp, #0
 862              		.cfi_def_cfa_register 7
 863 0006 F860     		str	r0, [r7, #12]	@ float
 864 0008 B960     		str	r1, [r7, #8]	@ float
 865 000a 7A60     		str	r2, [r7, #4]	@ float
 302:main.c        ****     float tempmin = min;
 866              		.loc 1 302 0
 867 000c FB68     		ldr	r3, [r7, #12]	@ float
 868 000e 7B61     		str	r3, [r7, #20]	@ float
 303:main.c        ****     float tempmax = max;
 869              		.loc 1 303 0
 870 0010 7B68     		ldr	r3, [r7, #4]	@ float
 871 0012 3B61     		str	r3, [r7, #16]	@ float
 304:main.c        ****     if (min > max)
 872              		.loc 1 304 0
 873 0014 7968     		ldr	r1, [r7, #4]	@ float
 874 0016 F868     		ldr	r0, [r7, #12]	@ float
 875 0018 FFF7FEFF 		bl	__aeabi_fcmpgt
 876 001c 0346     		mov	r3, r0
 877 001e 002B     		cmp	r3, #0
 878 0020 03D0     		beq	.L18
 305:main.c        ****     {
 306:main.c        ****         tempmin = max;
 879              		.loc 1 306 0
 880 0022 7B68     		ldr	r3, [r7, #4]	@ float
ARM GAS  C:\Users\JEFFSN~1\AppData\Local\Temp\ccEPDFmT.s 			page 22


 881 0024 7B61     		str	r3, [r7, #20]	@ float
 307:main.c        ****         tempmax = min;
 882              		.loc 1 307 0
 883 0026 FB68     		ldr	r3, [r7, #12]	@ float
 884 0028 3B61     		str	r3, [r7, #16]	@ float
 885              	.L18:
 308:main.c        ****     }
 309:main.c        ****     if (val < tempmin)
 886              		.loc 1 309 0
 887 002a 7969     		ldr	r1, [r7, #20]	@ float
 888 002c B868     		ldr	r0, [r7, #8]	@ float
 889 002e FFF7FEFF 		bl	__aeabi_fcmplt
 890 0032 0346     		mov	r3, r0
 891 0034 002B     		cmp	r3, #0
 892 0036 01D0     		beq	.L28
 310:main.c        ****     {
 311:main.c        ****         return tempmin;
 893              		.loc 1 311 0
 894 0038 7B69     		ldr	r3, [r7, #20]	@ float
 895 003a 09E0     		b	.L22
 896              	.L28:
 312:main.c        ****     }
 313:main.c        ****     else if (val > tempmax)
 897              		.loc 1 313 0
 898 003c 3969     		ldr	r1, [r7, #16]	@ float
 899 003e B868     		ldr	r0, [r7, #8]	@ float
 900 0040 FFF7FEFF 		bl	__aeabi_fcmpgt
 901 0044 0346     		mov	r3, r0
 902 0046 002B     		cmp	r3, #0
 903 0048 01D0     		beq	.L29
 314:main.c        ****     {
 315:main.c        ****         return tempmax;
 904              		.loc 1 315 0
 905 004a 3B69     		ldr	r3, [r7, #16]	@ float
 906 004c 00E0     		b	.L22
 907              	.L29:
 316:main.c        ****     }
 317:main.c        ****     else
 318:main.c        ****     {
 319:main.c        ****         return val;
 908              		.loc 1 319 0
 909 004e BB68     		ldr	r3, [r7, #8]	@ float
 910              	.L22:
 320:main.c        ****     }
 321:main.c        **** }
 911              		.loc 1 321 0
 912 0050 1846     		mov	r0, r3
 913 0052 1837     		adds	r7, r7, #24
 914              		.cfi_def_cfa_offset 8
 915 0054 BD46     		mov	sp, r7
 916              		.cfi_def_cfa_register 13
 917              		@ sp needed
 918 0056 80BD     		pop	{r7, pc}
 919              		.cfi_endproc
 920              	.LFE68:
 921              		.size	LEAF_clip, .-LEAF_clip
 922              		.global	__aeabi_fcmple
ARM GAS  C:\Users\JEFFSN~1\AppData\Local\Temp\ccEPDFmT.s 			page 23


 923              		.global	__aeabi_fmul
 924              		.section	.text.mtof,"ax",%progbits
 925              		.align	2
 926              		.global	mtof
 927              		.thumb
 928              		.thumb_func
 929              		.type	mtof, %function
 930              	mtof:
 931              	.LFB69:
 322:main.c        **** float mtof(float f)
 323:main.c        **** {
 932              		.loc 1 323 0
 933              		.cfi_startproc
 934              		@ args = 0, pretend = 0, frame = 8
 935              		@ frame_needed = 1, uses_anonymous_args = 0
 936 0000 80B5     		push	{r7, lr}
 937              		.cfi_def_cfa_offset 8
 938              		.cfi_offset 7, -8
 939              		.cfi_offset 14, -4
 940 0002 82B0     		sub	sp, sp, #8
 941              		.cfi_def_cfa_offset 16
 942 0004 00AF     		add	r7, sp, #0
 943              		.cfi_def_cfa_register 7
 944 0006 7860     		str	r0, [r7, #4]	@ float
 324:main.c        ****     if (f <= -1500.0f) return(0);
 945              		.loc 1 324 0
 946 0008 1349     		ldr	r1, .L40
 947 000a 7868     		ldr	r0, [r7, #4]	@ float
 948 000c FFF7FEFF 		bl	__aeabi_fcmple
 949 0010 0346     		mov	r3, r0
 950 0012 002B     		cmp	r3, #0
 951 0014 02D0     		beq	.L38
 952              		.loc 1 324 0 is_stmt 0 discriminator 1
 953 0016 4FF00003 		mov	r3, #0
 954 001a 19E0     		b	.L33
 955              	.L38:
 325:main.c        ****     else if (f > 1499.0f) return(mtof(1499.0f));
 956              		.loc 1 325 0 is_stmt 1
 957 001c 0F49     		ldr	r1, .L40+4
 958 001e 7868     		ldr	r0, [r7, #4]	@ float
 959 0020 FFF7FEFF 		bl	__aeabi_fcmpgt
 960 0024 0346     		mov	r3, r0
 961 0026 002B     		cmp	r3, #0
 962 0028 04D0     		beq	.L39
 963              		.loc 1 325 0 is_stmt 0 discriminator 1
 964 002a 0C48     		ldr	r0, .L40+4
 965 002c FFF7FEFF 		bl	mtof
 966 0030 0346     		mov	r3, r0
 967 0032 0DE0     		b	.L33
 968              	.L39:
 326:main.c        ****     else return (8.17579891564f * expf(0.0577622650f * f));
 969              		.loc 1 326 0 is_stmt 1
 970 0034 0A49     		ldr	r1, .L40+8
 971 0036 7868     		ldr	r0, [r7, #4]	@ float
 972 0038 FFF7FEFF 		bl	__aeabi_fmul
 973 003c 0346     		mov	r3, r0
 974 003e 1846     		mov	r0, r3
ARM GAS  C:\Users\JEFFSN~1\AppData\Local\Temp\ccEPDFmT.s 			page 24


 975 0040 FFF7FEFF 		bl	expf
 976 0044 0346     		mov	r3, r0
 977 0046 0749     		ldr	r1, .L40+12
 978 0048 1846     		mov	r0, r3
 979 004a FFF7FEFF 		bl	__aeabi_fmul
 980 004e 0346     		mov	r3, r0
 981              	.L33:
 327:main.c        **** }
 982              		.loc 1 327 0
 983 0050 1846     		mov	r0, r3
 984 0052 0837     		adds	r7, r7, #8
 985              		.cfi_def_cfa_offset 8
 986 0054 BD46     		mov	sp, r7
 987              		.cfi_def_cfa_register 13
 988              		@ sp needed
 989 0056 80BD     		pop	{r7, pc}
 990              	.L41:
 991              		.align	2
 992              	.L40:
 993 0058 0080BBC4 		.word	-994344960
 994 005c 0060BB44 		.word	1153130496
 995 0060 20986C3D 		.word	1030527008
 996 0064 13D00241 		.word	1090703379
 997              		.cfi_endproc
 998              	.LFE69:
 999              		.size	mtof, .-mtof
 1000              		.section	.text.ftom,"ax",%progbits
 1001              		.align	2
 1002              		.global	ftom
 1003              		.thumb
 1004              		.thumb_func
 1005              		.type	ftom, %function
 1006              	ftom:
 1007              	.LFB70:
 328:main.c        **** 
 329:main.c        **** float ftom(float f)
 330:main.c        **** {
 1008              		.loc 1 330 0
 1009              		.cfi_startproc
 1010              		@ args = 0, pretend = 0, frame = 8
 1011              		@ frame_needed = 1, uses_anonymous_args = 0
 1012 0000 80B5     		push	{r7, lr}
 1013              		.cfi_def_cfa_offset 8
 1014              		.cfi_offset 7, -8
 1015              		.cfi_offset 14, -4
 1016 0002 82B0     		sub	sp, sp, #8
 1017              		.cfi_def_cfa_offset 16
 1018 0004 00AF     		add	r7, sp, #0
 1019              		.cfi_def_cfa_register 7
 1020 0006 7860     		str	r0, [r7, #4]	@ float
 331:main.c        ****     return (f > 0 ? 17.3123405046f * logf(.12231220585f * f) : -1500.0f);
 1021              		.loc 1 331 0
 1022 0008 4FF00001 		mov	r1, #0
 1023 000c 7868     		ldr	r0, [r7, #4]	@ float
 1024 000e FFF7FEFF 		bl	__aeabi_fcmpgt
 1025 0012 0346     		mov	r3, r0
 1026 0014 002B     		cmp	r3, #0
ARM GAS  C:\Users\JEFFSN~1\AppData\Local\Temp\ccEPDFmT.s 			page 25


 1027 0016 0ED0     		beq	.L48
 1028              		.loc 1 331 0 is_stmt 0 discriminator 1
 1029 0018 0949     		ldr	r1, .L49
 1030 001a 7868     		ldr	r0, [r7, #4]	@ float
 1031 001c FFF7FEFF 		bl	__aeabi_fmul
 1032 0020 0346     		mov	r3, r0
 1033 0022 1846     		mov	r0, r3
 1034 0024 FFF7FEFF 		bl	logf
 1035 0028 0346     		mov	r3, r0
 1036 002a 0649     		ldr	r1, .L49+4
 1037 002c 1846     		mov	r0, r3
 1038 002e FFF7FEFF 		bl	__aeabi_fmul
 1039 0032 0346     		mov	r3, r0
 1040 0034 00E0     		b	.L46
 1041              	.L48:
 1042              		.loc 1 331 0 discriminator 2
 1043 0036 044B     		ldr	r3, .L49+8
 1044              	.L46:
 332:main.c        **** }
 1045              		.loc 1 332 0 is_stmt 1 discriminator 5
 1046 0038 1846     		mov	r0, r3
 1047 003a 0837     		adds	r7, r7, #8
 1048              		.cfi_def_cfa_offset 8
 1049 003c BD46     		mov	sp, r7
 1050              		.cfi_def_cfa_register 13
 1051              		@ sp needed
 1052 003e 80BD     		pop	{r7, pc}
 1053              	.L50:
 1054              		.align	2
 1055              	.L49:
 1056 0040 D27EFA3D 		.word	1039826642
 1057 0044 AC7F8A41 		.word	1099595692
 1058 0048 0080BBC4 		.word	-994344960
 1059              		.cfi_endproc
 1060              	.LFE70:
 1061              		.size	ftom, .-ftom
 1062              		.global	__aeabi_fsub
 1063              		.global	__aeabi_fadd
 1064              		.section	.text.LEAF_interpolation_linear,"ax",%progbits
 1065              		.align	2
 1066              		.global	LEAF_interpolation_linear
 1067              		.thumb
 1068              		.thumb_func
 1069              		.type	LEAF_interpolation_linear, %function
 1070              	LEAF_interpolation_linear:
 1071              	.LFB71:
 333:main.c        **** 
 334:main.c        **** // alpha, [0.0, 1.0]
 335:main.c        **** float LEAF_interpolation_linear (float A, float B, float alpha)
 336:main.c        **** {
 1072              		.loc 1 336 0
 1073              		.cfi_startproc
 1074              		@ args = 0, pretend = 0, frame = 24
 1075              		@ frame_needed = 1, uses_anonymous_args = 0
 1076 0000 80B5     		push	{r7, lr}
 1077              		.cfi_def_cfa_offset 8
 1078              		.cfi_offset 7, -8
ARM GAS  C:\Users\JEFFSN~1\AppData\Local\Temp\ccEPDFmT.s 			page 26


 1079              		.cfi_offset 14, -4
 1080 0002 86B0     		sub	sp, sp, #24
 1081              		.cfi_def_cfa_offset 32
 1082 0004 00AF     		add	r7, sp, #0
 1083              		.cfi_def_cfa_register 7
 1084 0006 F860     		str	r0, [r7, #12]	@ float
 1085 0008 B960     		str	r1, [r7, #8]	@ float
 1086 000a 7A60     		str	r2, [r7, #4]	@ float
 337:main.c        ****     float omAlpha = 1.0f - alpha;
 1087              		.loc 1 337 0
 1088 000c 7968     		ldr	r1, [r7, #4]	@ float
 1089 000e 4FF07E50 		mov	r0, #1065353216
 1090 0012 FFF7FEFF 		bl	__aeabi_fsub
 1091 0016 0346     		mov	r3, r0
 1092 0018 7B61     		str	r3, [r7, #20]	@ float
 338:main.c        ****     
 339:main.c        ****     // First 1/2 of interpolation
 340:main.c        ****     float out = A * omAlpha;
 1093              		.loc 1 340 0
 1094 001a 7969     		ldr	r1, [r7, #20]	@ float
 1095 001c F868     		ldr	r0, [r7, #12]	@ float
 1096 001e FFF7FEFF 		bl	__aeabi_fmul
 1097 0022 0346     		mov	r3, r0
 1098 0024 3B61     		str	r3, [r7, #16]	@ float
 341:main.c        ****     
 342:main.c        ****     out += B * alpha;
 1099              		.loc 1 342 0
 1100 0026 7968     		ldr	r1, [r7, #4]	@ float
 1101 0028 B868     		ldr	r0, [r7, #8]	@ float
 1102 002a FFF7FEFF 		bl	__aeabi_fmul
 1103 002e 0346     		mov	r3, r0
 1104 0030 1946     		mov	r1, r3
 1105 0032 3869     		ldr	r0, [r7, #16]	@ float
 1106 0034 FFF7FEFF 		bl	__aeabi_fadd
 1107 0038 0346     		mov	r3, r0
 1108 003a 3B61     		str	r3, [r7, #16]	@ float
 343:main.c        ****     
 344:main.c        ****     return out;
 1109              		.loc 1 344 0
 1110 003c 3B69     		ldr	r3, [r7, #16]	@ float
 345:main.c        **** }
 1111              		.loc 1 345 0
 1112 003e 1846     		mov	r0, r3
 1113 0040 1837     		adds	r7, r7, #24
 1114              		.cfi_def_cfa_offset 8
 1115 0042 BD46     		mov	sp, r7
 1116              		.cfi_def_cfa_register 13
 1117              		@ sp needed
 1118 0044 80BD     		pop	{r7, pc}
 1119              		.cfi_endproc
 1120              	.LFE71:
 1121              		.size	LEAF_interpolation_linear, .-LEAF_interpolation_linear
 1122              		.comm	I2Cbuff1,256,4
 1123              		.comm	I2Cbuff2,16,4
 1124              		.global	send_it
 1125 0046 00BF     		.bss
 1126              		.type	send_it, %object
ARM GAS  C:\Users\JEFFSN~1\AppData\Local\Temp\ccEPDFmT.s 			page 27


 1127              		.size	send_it, 1
 1128              	send_it:
 1129 0070 00       		.space	1
 1130              		.global	mux_states
 1131              		.data
 1132 000a 0000     		.align	2
 1133              		.type	mux_states, %object
 1134              		.size	mux_states, 24
 1135              	mux_states:
 1136 000c 05       		.byte	5
 1137 000d 00       		.byte	0
 1138 000e 05       		.byte	5
 1139 000f 01       		.byte	1
 1140 0010 05       		.byte	5
 1141 0011 02       		.byte	2
 1142 0012 05       		.byte	5
 1143 0013 03       		.byte	3
 1144 0014 05       		.byte	5
 1145 0015 04       		.byte	4
 1146 0016 00       		.byte	0
 1147 0017 00       		.byte	0
 1148 0018 01       		.byte	1
 1149 0019 00       		.byte	0
 1150 001a 03       		.byte	3
 1151 001b 00       		.byte	0
 1152 001c 04       		.byte	4
 1153 001d 00       		.byte	0
 1154 001e 02       		.byte	2
 1155 001f 00       		.byte	0
 1156 0020 05       		.byte	5
 1157 0021 05       		.byte	5
 1158 0022 06       		.byte	6
 1159 0023 00       		.byte	0
 1160              		.global	i2c_skipped
 1161              		.bss
 1162 0071 000000   		.align	2
 1163              		.type	i2c_skipped, %object
 1164              		.size	i2c_skipped, 12
 1165              	i2c_skipped:
 1166 0074 00000000 		.space	12
 1166      00000000 
 1166      00000000 
 1167              		.global	pedals_low
 1168              		.data
 1169              		.align	2
 1170              		.type	pedals_low, %object
 1171              		.size	pedals_low, 20
 1172              	pedals_low:
 1173 0024 830A     		.short	2691
 1174 0026 0109     		.short	2305
 1175 0028 9909     		.short	2457
 1176 002a 0E02     		.short	526
 1177 002c 9A0E     		.short	3738
 1178 002e 0309     		.short	2307
 1179 0030 C60B     		.short	3014
 1180 0032 8E08     		.short	2190
 1181 0034 E90A     		.short	2793
ARM GAS  C:\Users\JEFFSN~1\AppData\Local\Temp\ccEPDFmT.s 			page 28


 1182 0036 2605     		.short	1318
 1183              		.global	pedals_high
 1184              		.align	2
 1185              		.type	pedals_high, %object
 1186              		.size	pedals_high, 20
 1187              	pedals_high:
 1188 0038 ED0A     		.short	2797
 1189 003a 6509     		.short	2405
 1190 003c 140A     		.short	2580
 1191 003e 8702     		.short	647
 1192 0040 0E0F     		.short	3854
 1193 0042 9D09     		.short	2461
 1194 0044 450C     		.short	3141
 1195 0046 3109     		.short	2353
 1196 0048 760B     		.short	2934
 1197 004a E005     		.short	1504
 1198              		.global	deadzone
 1199              		.align	1
 1200              		.type	deadzone, %object
 1201              		.size	deadzone, 2
 1202              	deadzone:
 1203 004c 9600     		.short	150
 1204              		.global	volumePedal
 1205              		.align	1
 1206              		.type	volumePedal, %object
 1207              		.size	volumePedal, 2
 1208              	volumePedal:
 1209 004e FF0F     		.short	4095
 1210              		.comm	processed_pedals,20,4
 1211              		.comm	prev_processed_pedals,20,4
 1212              		.comm	pedals8bit,10,4
 1213              		.comm	pedals7bit,10,4
 1214              		.comm	prevPedals7bit,10,4
 1215              		.comm	prev_processed_volumePedal,2,2
 1216              		.comm	processed_volumePedal,2,2
 1217              		.global	fretMeasurements
 1218              		.align	2
 1219              		.type	fretMeasurements, %object
 1220              		.size	fretMeasurements, 64
 1221              	fretMeasurements:
 1222 0050 001E7547 		.word	1198857728
 1223 0054 00A07047 		.word	1198563328
 1224 0058 0052F846 		.word	1190679040
 1225 005c 00000000 		.word	0
 1226 0060 00B01A47 		.word	1192931328
 1227 0064 001C2247 		.word	1193417728
 1228 0068 00507546 		.word	1182093312
 1229 006c 00000000 		.word	0
 1230 0070 0000D746 		.word	1188495360
 1231 0074 00F0EB46 		.word	1189867520
 1232 0078 00280446 		.word	1174677504
 1233 007c 00000000 		.word	0
 1234 0080 00481446 		.word	1175734272
 1235 0084 00805446 		.word	1179942912
 1236 0088 00202745 		.word	1160192000
 1237 008c 00000000 		.word	0
 1238              		.global	currentPresetSelection
ARM GAS  C:\Users\JEFFSN~1\AppData\Local\Temp\ccEPDFmT.s 			page 29


 1239              		.bss
 1240              		.align	2
 1241              		.type	currentPresetSelection, %object
 1242              		.size	currentPresetSelection, 4
 1243              	currentPresetSelection:
 1244 0080 00000000 		.space	4
 1245              		.comm	presetNamesArray,896,4
 1246              		.global	presetNumberToLoad
 1247              		.type	presetNumberToLoad, %object
 1248              		.size	presetNumberToLoad, 1
 1249              	presetNumberToLoad:
 1250 0084 00       		.space	1
 1251              		.global	presetLoadedResponse
 1252              		.data
 1253              		.align	2
 1254              		.type	presetLoadedResponse, %object
 1255              		.size	presetLoadedResponse, 2
 1256              	presetLoadedResponse:
 1257 0090 FF       		.byte	-1
 1258 0091 00       		.byte	0
 1259              		.comm	macroNamesArray,7168,4
 1260              		.global	fretScaling
 1261 0092 0000     		.align	2
 1262              		.type	fretScaling, %object
 1263              		.size	fretScaling, 16
 1264              	fretScaling:
 1265 0094 0000803F 		.word	1065353216
 1266 0098 ABAA2A3F 		.word	1059760811
 1267 009c 0000003F 		.word	1056964608
 1268 00a0 0000803E 		.word	1048576000
 1269              		.comm	pedalRatios,40,4
 1270              		.global	last_mux
 1271              		.type	last_mux, %object
 1272              		.size	last_mux, 1
 1273              	last_mux:
 1274 00a4 01       		.byte	1
 1275              		.global	main_counter
 1276              		.bss
 1277              		.type	main_counter, %object
 1278              		.size	main_counter, 1
 1279              	main_counter:
 1280 0085 00       		.space	1
 1281              		.global	neck
 1282              		.type	neck, %object
 1283              		.size	neck, 1
 1284              	neck:
 1285 0086 00       		.space	1
 1286              		.global	dualSlider
 1287              		.type	dualSlider, %object
 1288              		.size	dualSlider, 1
 1289              	dualSlider:
 1290 0087 00       		.space	1
 1291              		.global	enterUp
 1292              		.data
 1293              		.type	enterUp, %object
 1294              		.size	enterUp, 1
 1295              	enterUp:
ARM GAS  C:\Users\JEFFSN~1\AppData\Local\Temp\ccEPDFmT.s 			page 30


 1296 00a5 01       		.byte	1
 1297              		.global	voice
 1298              		.bss
 1299              		.type	voice, %object
 1300              		.size	voice, 1
 1301              	voice:
 1302 0088 00       		.space	1
 1303              		.global	editUp
 1304              		.data
 1305              		.type	editUp, %object
 1306              		.size	editUp, 1
 1307              	editUp:
 1308 00a6 01       		.byte	1
 1309              		.global	oct1Up
 1310              		.type	oct1Up, %object
 1311              		.size	oct1Up, 1
 1312              	oct1Up:
 1313 00a7 01       		.byte	1
 1314              		.global	oct4Up
 1315              		.type	oct4Up, %object
 1316              		.size	oct4Up, 1
 1317              	oct4Up:
 1318 00a8 01       		.byte	1
 1319              		.comm	encoderVal,16,4
 1320              		.global	encoderNum
 1321              		.bss
 1322 0089 000000   		.align	2
 1323              		.type	encoderNum, %object
 1324              		.size	encoderNum, 4
 1325              	encoderNum:
 1326 008c 00000000 		.space	4
 1327              		.global	button1Up
 1328              		.type	button1Up, %object
 1329              		.size	button1Up, 1
 1330              	button1Up:
 1331 0090 00       		.space	1
 1332              		.global	button2Up
 1333              		.type	button2Up, %object
 1334              		.size	button2Up, 1
 1335              	button2Up:
 1336 0091 00       		.space	1
 1337              		.global	button3Up
 1338              		.type	button3Up, %object
 1339              		.size	button3Up, 1
 1340              	button3Up:
 1341 0092 00       		.space	1
 1342              		.global	button4Up
 1343              		.type	button4Up, %object
 1344              		.size	button4Up, 1
 1345              	button4Up:
 1346 0093 00       		.space	1
 1347              		.global	patchNum
 1348              		.type	patchNum, %object
 1349              		.size	patchNum, 1
 1350              	patchNum:
 1351 0094 00       		.space	1
 1352              		.comm	copedent,3696,4
ARM GAS  C:\Users\JEFFSN~1\AppData\Local\Temp\ccEPDFmT.s 			page 31


 1353              		.comm	copedentNamesArray,98,4
 1354              		.comm	prevStringPitchBend,48,4
 1355              		.comm	pedals,480,4
 1356              		.global	pedal_cc_assignments
 1357              		.data
 1358 00a9 000000   		.align	2
 1359              		.type	pedal_cc_assignments, %object
 1360              		.size	pedal_cc_assignments, 10
 1361              	pedal_cc_assignments:
 1362 00ac 00       		.byte	0
 1363 00ad 01       		.byte	1
 1364 00ae 02       		.byte	2
 1365 00af 03       		.byte	3
 1366 00b0 04       		.byte	4
 1367 00b1 08       		.byte	8
 1368 00b2 09       		.byte	9
 1369 00b3 07       		.byte	7
 1370 00b4 06       		.byte	6
 1371 00b5 05       		.byte	5
 1372              		.comm	openStringFrequencies,48,4
 1373              		.comm	stringMappedPositions,48,4
 1374              		.comm	invStringMappedPositions,48,4
 1375              		.comm	stringFrequencies,48,4
 1376              		.comm	stringOctave,48,4
 1377              		.comm	stringPitch,48,4
 1378              		.comm	stringMIDI,48,4
 1379              		.comm	openStringMIDI_Int,48,4
 1380              		.global	OLEDcount
 1381              		.bss
 1382 0095 000000   		.align	2
 1383              		.type	OLEDcount, %object
 1384              		.size	OLEDcount, 4
 1385              	OLEDcount:
 1386 0098 00000000 		.space	4
 1387              		.global	mainOLEDWaitingToSend
 1388              		.align	2
 1389              		.type	mainOLEDWaitingToSend, %object
 1390              		.size	mainOLEDWaitingToSend, 4
 1391              	mainOLEDWaitingToSend:
 1392 009c 00000000 		.space	4
 1393              		.global	macroOLEDWaitingToSend
 1394              		.align	2
 1395              		.type	macroOLEDWaitingToSend, %object
 1396              		.size	macroOLEDWaitingToSend, 4
 1397              	macroOLEDWaitingToSend:
 1398 00a0 00000000 		.space	4
 1399              		.comm	presetAlreadyDisplayed,256,4
 1400              		.global	pedals_float
 1401              		.align	2
 1402              		.type	pedals_float, %object
 1403              		.size	pedals_float, 40
 1404              	pedals_float:
 1405 00a4 00000000 		.space	40
 1405      00000000 
 1405      00000000 
 1405      00000000 
 1405      00000000 
ARM GAS  C:\Users\JEFFSN~1\AppData\Local\Temp\ccEPDFmT.s 			page 32


 1406              		.global	__aeabi_fdiv
 1407              		.section	.text.map,"ax",%progbits
 1408              		.align	2
 1409              		.global	map
 1410              		.thumb
 1411              		.thumb_func
 1412              		.type	map, %function
 1413              	map:
 1414              	.LFB72:
 346:main.c        **** 
 347:main.c        **** 
 348:main.c        **** uint8 I2C_MasterWriteBlocking(uint8 i2CAddr, uint16 nbytes, uint8_t mode);
 349:main.c        **** uint8 I2C_MasterReadBlocking(uint8 i2CAddr, uint8 nbytes, uint8_t mode);
 350:main.c        **** void USB_service(void);
 351:main.c        **** 
 352:main.c        **** volatile uint8_t I2Cbuff1[256];
 353:main.c        **** volatile uint8_t I2Cbuff2[16];
 354:main.c        **** volatile uint8_t send_it = 0;
 355:main.c        **** 
 356:main.c        **** 
 357:main.c        **** //first mux, 0x70 is first element of array. 
 358:main.c        **** //If sent to output 5 of this first mux, signal goes to 
 359:main.c        **** // the ethernet cable, and a second mux is in the foot pedal at the end of that cable. This channel
 360:main.c        **** //so the order of I2C communication is ( foot pedals 1-5, knee levers 1-5, volume pedal, OLED displ
 361:main.c        **** uint8_t mux_states[12][2] = {{5,0}, {5,1}, {5,2}, {5,3}, {5,4}, {0, 0}, {1, 0}, {3, 0}, {4, 0}, {2,
 362:main.c        **** uint8_t i2c_skipped[12] = {0,0,0,0,0,0,0,0,0,0,0,0}; //so that pedals and levers can be marked as s
 363:main.c        **** uint16_t pedals_low[10] = {2691, 2305, 2457, 526, 3738, 2307, 3014, 2190, 2793, 1318};
 364:main.c        **** uint16_t pedals_high[10] = {2797, 2405, 2580, 647, 3854, 2461, 3141, 2353, 2934, 1504};
 365:main.c        **** uint16_t deadzone = 150;
 366:main.c        **** uint16_t volumePedal = 4095;
 367:main.c        **** uint16_t processed_pedals[10];
 368:main.c        **** uint16_t prev_processed_pedals[10];
 369:main.c        **** uint8_t pedals8bit[10];
 370:main.c        **** uint8_t pedals7bit[10];
 371:main.c        **** uint8_t prevPedals7bit[10];
 372:main.c        **** int16_t prev_processed_volumePedal;
 373:main.c        **** int16_t processed_volumePedal;
 374:main.c        **** 
 375:main.c        **** 
 376:main.c        **** float fretMeasurements[4][4] ={
 377:main.c        **** 
 378:main.c        **** 		{62750.0f, 61600.0f, 31785.0f, 0.0f },
 379:main.c        **** 
 380:main.c        **** 		{39600.0f, 41500.0f, 15700.0f, 0.0f},
 381:main.c        **** 
 382:main.c        **** 		{27520.0f, 30200.0f, 8458.0f, 0.0f},
 383:main.c        **** 
 384:main.c        **** 		{9490.0f, 13600.0f, 2674.0f, 0.0f}
 385:main.c        **** 
 386:main.c        **** 	};
 387:main.c        **** #define NUM_MACROS 8
 388:main.c        **** #define MAX_NUM_PRESETS 64
 389:main.c        **** int currentPresetSelection = 0;
 390:main.c        **** uint8_t presetNamesArray[MAX_NUM_PRESETS][NAME_LENGTH_IN_BYTES];
 391:main.c        **** uint8_t presetNumberToLoad = 0;
 392:main.c        **** uint8_t presetLoadedResponse[2] = {255, 0};
 393:main.c        **** 
ARM GAS  C:\Users\JEFFSN~1\AppData\Local\Temp\ccEPDFmT.s 			page 33


 394:main.c        **** 
 395:main.c        **** uint8_t macroNamesArray[MAX_NUM_PRESETS][NUM_MACROS][NAME_LENGTH_IN_BYTES];
 396:main.c        **** 
 397:main.c        **** 
 398:main.c        **** 
 399:main.c        **** float fretScaling[4] = {1.0f, 0.6666666666666f, 0.5f, 0.25f};
 400:main.c        **** 
 401:main.c        **** 
 402:main.c        **** #define MAX_ENCODERS 16
 403:main.c        **** 
 404:main.c        **** float pedalRatios[10];
 405:main.c        **** uint8_t last_mux = 1;
 406:main.c        **** volatile uint8_t main_counter = 0;
 407:main.c        **** uint8_t neck = 0;
 408:main.c        **** uint8_t dualSlider = 0;
 409:main.c        **** uint8_t enterUp = 1;
 410:main.c        **** uint8_t voice = 0;
 411:main.c        **** uint8_t editUp = 1;
 412:main.c        **** uint8_t oct1Up = 1;
 413:main.c        **** uint8_t oct4Up = 1;
 414:main.c        **** 
 415:main.c        **** volatile uint8_t encoderVal[MAX_ENCODERS];
 416:main.c        **** int encoderNum = 0;
 417:main.c        **** uint8_t button1Up = 0;
 418:main.c        **** uint8_t button2Up = 0;
 419:main.c        **** uint8_t button3Up = 0;
 420:main.c        **** uint8_t button4Up = 0;
 421:main.c        **** uint8_t patchNum = 0;
 422:main.c        **** #define NUM_STRINGS 12
 423:main.c        **** #define NUM_PEDALS 10
 424:main.c        **** 
 425:main.c        **** 
 426:main.c        **** #define MAX_NUM_COPEDENTS 7
 427:main.c        **** float copedent[MAX_NUM_COPEDENTS][11][NUM_STRINGS];
 428:main.c        **** uint8_t copedentNamesArray[MAX_NUM_COPEDENTS][NAME_LENGTH_IN_BYTES];
 429:main.c        **** 
 430:main.c        **** float prevStringPitchBend[NUM_STRINGS];
 431:main.c        **** 
 432:main.c        **** float pedals[NUM_PEDALS][NUM_STRINGS];
 433:main.c        **** 
 434:main.c        **** uint8_t pedal_cc_assignments[NUM_PEDALS] = {0, 1, 2, 3, 4, 8, 9, 7, 6, 5};
 435:main.c        **** float openStringFrequencies[NUM_STRINGS];
 436:main.c        **** float stringMappedPositions[NUM_STRINGS];
 437:main.c        **** float invStringMappedPositions[NUM_STRINGS];
 438:main.c        **** float stringFrequencies[NUM_STRINGS];
 439:main.c        **** float stringOctave[NUM_STRINGS];
 440:main.c        **** float stringPitch[NUM_STRINGS];
 441:main.c        **** float stringMIDI[NUM_STRINGS];
 442:main.c        **** int openStringMIDI_Int[NUM_STRINGS];
 443:main.c        **** int OLEDcount = 0;
 444:main.c        **** 
 445:main.c        **** int mainOLEDWaitingToSend = 0;
 446:main.c        **** int macroOLEDWaitingToSend = 0;
 447:main.c        **** 
 448:main.c        **** int presetAlreadyDisplayed[MAX_NUM_PRESETS];
 449:main.c        **** 
 450:main.c        **** float pedals_float[NUM_PEDALS] = {0.0f, 0.0f, 0.0f, 0.0f, 0.0f, 0.0f, 0.0f, 0.0f, 0.0f, 0.0f};
ARM GAS  C:\Users\JEFFSN~1\AppData\Local\Temp\ccEPDFmT.s 			page 34


 451:main.c        **** 
 452:main.c        **** float map(float value, float istart, float istop, float ostart, float ostop)
 453:main.c        **** {
 1415              		.loc 1 453 0
 1416              		.cfi_startproc
 1417              		@ args = 4, pretend = 0, frame = 16
 1418              		@ frame_needed = 1, uses_anonymous_args = 0
 1419 0000 B0B5     		push	{r4, r5, r7, lr}
 1420              		.cfi_def_cfa_offset 16
 1421              		.cfi_offset 4, -16
 1422              		.cfi_offset 5, -12
 1423              		.cfi_offset 7, -8
 1424              		.cfi_offset 14, -4
 1425 0002 84B0     		sub	sp, sp, #16
 1426              		.cfi_def_cfa_offset 32
 1427 0004 00AF     		add	r7, sp, #0
 1428              		.cfi_def_cfa_register 7
 1429 0006 F860     		str	r0, [r7, #12]	@ float
 1430 0008 B960     		str	r1, [r7, #8]	@ float
 1431 000a 7A60     		str	r2, [r7, #4]	@ float
 1432 000c 3B60     		str	r3, [r7]	@ float
 454:main.c        ****     return ostart + (ostop - ostart) * ((value - istart) / (istop - istart));
 1433              		.loc 1 454 0
 1434 000e 3968     		ldr	r1, [r7]	@ float
 1435 0010 386A     		ldr	r0, [r7, #32]	@ float
 1436 0012 FFF7FEFF 		bl	__aeabi_fsub
 1437 0016 0346     		mov	r3, r0
 1438 0018 1C46     		mov	r4, r3
 1439 001a B968     		ldr	r1, [r7, #8]	@ float
 1440 001c F868     		ldr	r0, [r7, #12]	@ float
 1441 001e FFF7FEFF 		bl	__aeabi_fsub
 1442 0022 0346     		mov	r3, r0
 1443 0024 1D46     		mov	r5, r3
 1444 0026 B968     		ldr	r1, [r7, #8]	@ float
 1445 0028 7868     		ldr	r0, [r7, #4]	@ float
 1446 002a FFF7FEFF 		bl	__aeabi_fsub
 1447 002e 0346     		mov	r3, r0
 1448 0030 1946     		mov	r1, r3
 1449 0032 2846     		mov	r0, r5
 1450 0034 FFF7FEFF 		bl	__aeabi_fdiv
 1451 0038 0346     		mov	r3, r0
 1452 003a 1946     		mov	r1, r3
 1453 003c 2046     		mov	r0, r4
 1454 003e FFF7FEFF 		bl	__aeabi_fmul
 1455 0042 0346     		mov	r3, r0
 1456 0044 3968     		ldr	r1, [r7]	@ float
 1457 0046 1846     		mov	r0, r3
 1458 0048 FFF7FEFF 		bl	__aeabi_fadd
 1459 004c 0346     		mov	r3, r0
 455:main.c        **** }
 1460              		.loc 1 455 0
 1461 004e 1846     		mov	r0, r3
 1462 0050 1037     		adds	r7, r7, #16
 1463              		.cfi_def_cfa_offset 16
 1464 0052 BD46     		mov	sp, r7
 1465              		.cfi_def_cfa_register 13
 1466              		@ sp needed
ARM GAS  C:\Users\JEFFSN~1\AppData\Local\Temp\ccEPDFmT.s 			page 35


 1467 0054 B0BD     		pop	{r4, r5, r7, pc}
 1468              		.cfi_endproc
 1469              	.LFE72:
 1470              		.size	map, .-map
 1471              		.global	currentNeck
 1472 0056 00BF     		.bss
 1473              		.align	2
 1474              		.type	currentNeck, %object
 1475              		.size	currentNeck, 4
 1476              	currentNeck:
 1477 00cc 00000000 		.space	4
 1478              		.global	editMode
 1479              		.align	2
 1480              		.type	editMode, %object
 1481              		.size	editMode, 4
 1482              	editMode:
 1483 00d0 00000000 		.space	4
 1484              		.global	calibrationMode
 1485              		.align	2
 1486              		.type	calibrationMode, %object
 1487              		.size	calibrationMode, 4
 1488              	calibrationMode:
 1489 00d4 00000000 		.space	4
 1490              		.section	.text.burnInitialPedalZeroPositions,"ax",%progbits
 1491              		.align	2
 1492              		.global	burnInitialPedalZeroPositions
 1493              		.thumb
 1494              		.thumb_func
 1495              		.type	burnInitialPedalZeroPositions, %function
 1496              	burnInitialPedalZeroPositions:
 1497              	.LFB73:
 456:main.c        **** void displayCurrentPresetNameAndCopedent();
 457:main.c        **** 
 458:main.c        **** int currentNeck = 0;
 459:main.c        **** 
 460:main.c        **** int editMode = 0;
 461:main.c        **** int calibrationMode = 0;
 462:main.c        **** 
 463:main.c        **** void burnInitialPedalZeroPositions()
 464:main.c        **** {
 1498              		.loc 1 464 0
 1499              		.cfi_startproc
 1500              		@ args = 0, pretend = 0, frame = 0
 1501              		@ frame_needed = 1, uses_anonymous_args = 0
 1502              		@ link register save eliminated.
 1503 0000 80B4     		push	{r7}
 1504              		.cfi_def_cfa_offset 4
 1505              		.cfi_offset 7, -4
 1506 0002 00AF     		add	r7, sp, #0
 1507              		.cfi_def_cfa_register 7
 465:main.c        ****     
 466:main.c        **** }
 1508              		.loc 1 466 0
 1509 0004 00BF     		nop
 1510 0006 BD46     		mov	sp, r7
 1511              		.cfi_def_cfa_register 13
 1512              		@ sp needed
ARM GAS  C:\Users\JEFFSN~1\AppData\Local\Temp\ccEPDFmT.s 			page 36


 1513 0008 80BC     		pop	{r7}
 1514              		.cfi_restore 7
 1515              		.cfi_def_cfa_offset 0
 1516 000a 7047     		bx	lr
 1517              		.cfi_endproc
 1518              	.LFE73:
 1519              		.size	burnInitialPedalZeroPositions, .-burnInitialPedalZeroPositions
 1520              		.global	__aeabi_ui2f
 1521              		.global	__aeabi_i2f
 1522              		.global	__aeabi_f2uiz
 1523              		.section	.text.calculatePedalRatios,"ax",%progbits
 1524              		.align	2
 1525              		.global	calculatePedalRatios
 1526              		.thumb
 1527              		.thumb_func
 1528              		.type	calculatePedalRatios, %function
 1529              	calculatePedalRatios:
 1530              	.LFB74:
 467:main.c        **** 
 468:main.c        **** 
 469:main.c        **** void calculatePedalRatios()
 470:main.c        **** {
 1531              		.loc 1 470 0
 1532              		.cfi_startproc
 1533              		@ args = 0, pretend = 0, frame = 8
 1534              		@ frame_needed = 1, uses_anonymous_args = 0
 1535 0000 90B5     		push	{r4, r7, lr}
 1536              		.cfi_def_cfa_offset 12
 1537              		.cfi_offset 4, -12
 1538              		.cfi_offset 7, -8
 1539              		.cfi_offset 14, -4
 1540 0002 83B0     		sub	sp, sp, #12
 1541              		.cfi_def_cfa_offset 24
 1542 0004 00AF     		add	r7, sp, #0
 1543              		.cfi_def_cfa_register 7
 1544              	.LBB3:
 471:main.c        **** 
 472:main.c        ****     //add deadzones on edges of pedal sensing
 473:main.c        ****     for (int i = 0; i < NUM_PEDALS; i++)
 1545              		.loc 1 473 0
 1546 0006 0023     		movs	r3, #0
 1547 0008 7B60     		str	r3, [r7, #4]
 1548 000a 6EE0     		b	.L57
 1549              	.L58:
 1550              	.LBB4:
 474:main.c        ****     {
 475:main.c        **** 
 476:main.c        ****         float pedalDiff =(float)pedals_high[i] - (float)pedals_low[i];
 1551              		.loc 1 476 0 discriminator 3
 1552 000c 3A4A     		ldr	r2, .L59
 1553 000e 7B68     		ldr	r3, [r7, #4]
 1554 0010 32F81330 		ldrh	r3, [r2, r3, lsl #1]
 1555 0014 1846     		mov	r0, r3
 1556 0016 FFF7FEFF 		bl	__aeabi_ui2f
 1557 001a 0446     		mov	r4, r0
 1558 001c 374A     		ldr	r2, .L59+4
 1559 001e 7B68     		ldr	r3, [r7, #4]
ARM GAS  C:\Users\JEFFSN~1\AppData\Local\Temp\ccEPDFmT.s 			page 37


 1560 0020 32F81330 		ldrh	r3, [r2, r3, lsl #1]
 1561 0024 1846     		mov	r0, r3
 1562 0026 FFF7FEFF 		bl	__aeabi_ui2f
 1563 002a 0346     		mov	r3, r0
 1564 002c 1946     		mov	r1, r3
 1565 002e 2046     		mov	r0, r4
 1566 0030 FFF7FEFF 		bl	__aeabi_fsub
 1567 0034 0346     		mov	r3, r0
 1568 0036 3B60     		str	r3, [r7]	@ float
 477:main.c        ****         pedals_low[i] = pedals_low[i] + (0.1f * pedalDiff);
 1569              		.loc 1 477 0 discriminator 3
 1570 0038 304A     		ldr	r2, .L59+4
 1571 003a 7B68     		ldr	r3, [r7, #4]
 1572 003c 32F81330 		ldrh	r3, [r2, r3, lsl #1]
 1573 0040 1846     		mov	r0, r3
 1574 0042 FFF7FEFF 		bl	__aeabi_i2f
 1575 0046 0446     		mov	r4, r0
 1576 0048 2D49     		ldr	r1, .L59+8
 1577 004a 3868     		ldr	r0, [r7]	@ float
 1578 004c FFF7FEFF 		bl	__aeabi_fmul
 1579 0050 0346     		mov	r3, r0
 1580 0052 1946     		mov	r1, r3
 1581 0054 2046     		mov	r0, r4
 1582 0056 FFF7FEFF 		bl	__aeabi_fadd
 1583 005a 0346     		mov	r3, r0
 1584 005c 1846     		mov	r0, r3
 1585 005e FFF7FEFF 		bl	__aeabi_f2uiz
 1586 0062 0346     		mov	r3, r0
 1587 0064 99B2     		uxth	r1, r3
 1588 0066 254A     		ldr	r2, .L59+4
 1589 0068 7B68     		ldr	r3, [r7, #4]
 1590 006a 22F81310 		strh	r1, [r2, r3, lsl #1]	@ movhi
 478:main.c        ****         pedals_high[i] = pedals_high[i] - (0.1f * pedalDiff);
 1591              		.loc 1 478 0 discriminator 3
 1592 006e 224A     		ldr	r2, .L59
 1593 0070 7B68     		ldr	r3, [r7, #4]
 1594 0072 32F81330 		ldrh	r3, [r2, r3, lsl #1]
 1595 0076 1846     		mov	r0, r3
 1596 0078 FFF7FEFF 		bl	__aeabi_i2f
 1597 007c 0446     		mov	r4, r0
 1598 007e 2049     		ldr	r1, .L59+8
 1599 0080 3868     		ldr	r0, [r7]	@ float
 1600 0082 FFF7FEFF 		bl	__aeabi_fmul
 1601 0086 0346     		mov	r3, r0
 1602 0088 1946     		mov	r1, r3
 1603 008a 2046     		mov	r0, r4
 1604 008c FFF7FEFF 		bl	__aeabi_fsub
 1605 0090 0346     		mov	r3, r0
 1606 0092 1846     		mov	r0, r3
 1607 0094 FFF7FEFF 		bl	__aeabi_f2uiz
 1608 0098 0346     		mov	r3, r0
 1609 009a 99B2     		uxth	r1, r3
 1610 009c 164A     		ldr	r2, .L59
 1611 009e 7B68     		ldr	r3, [r7, #4]
 1612 00a0 22F81310 		strh	r1, [r2, r3, lsl #1]	@ movhi
 479:main.c        ****         pedalDiff =(float)pedals_high[i] - (float)pedals_low[i];
 1613              		.loc 1 479 0 discriminator 3
ARM GAS  C:\Users\JEFFSN~1\AppData\Local\Temp\ccEPDFmT.s 			page 38


 1614 00a4 144A     		ldr	r2, .L59
 1615 00a6 7B68     		ldr	r3, [r7, #4]
 1616 00a8 32F81330 		ldrh	r3, [r2, r3, lsl #1]
 1617 00ac 1846     		mov	r0, r3
 1618 00ae FFF7FEFF 		bl	__aeabi_ui2f
 1619 00b2 0446     		mov	r4, r0
 1620 00b4 114A     		ldr	r2, .L59+4
 1621 00b6 7B68     		ldr	r3, [r7, #4]
 1622 00b8 32F81330 		ldrh	r3, [r2, r3, lsl #1]
 1623 00bc 1846     		mov	r0, r3
 1624 00be FFF7FEFF 		bl	__aeabi_ui2f
 1625 00c2 0346     		mov	r3, r0
 1626 00c4 1946     		mov	r1, r3
 1627 00c6 2046     		mov	r0, r4
 1628 00c8 FFF7FEFF 		bl	__aeabi_fsub
 1629 00cc 0346     		mov	r3, r0
 1630 00ce 3B60     		str	r3, [r7]	@ float
 480:main.c        ****         pedalRatios[i] = 4095.0f / pedalDiff;
 1631              		.loc 1 480 0 discriminator 3
 1632 00d0 3968     		ldr	r1, [r7]	@ float
 1633 00d2 0C48     		ldr	r0, .L59+12
 1634 00d4 FFF7FEFF 		bl	__aeabi_fdiv
 1635 00d8 0346     		mov	r3, r0
 1636 00da 1946     		mov	r1, r3
 1637 00dc 0A4A     		ldr	r2, .L59+16
 1638 00de 7B68     		ldr	r3, [r7, #4]
 1639 00e0 42F82310 		str	r1, [r2, r3, lsl #2]	@ float
 1640              	.LBE4:
 473:main.c        ****     {
 1641              		.loc 1 473 0 discriminator 3
 1642 00e4 7B68     		ldr	r3, [r7, #4]
 1643 00e6 0133     		adds	r3, r3, #1
 1644 00e8 7B60     		str	r3, [r7, #4]
 1645              	.L57:
 473:main.c        ****     {
 1646              		.loc 1 473 0 is_stmt 0 discriminator 1
 1647 00ea 7B68     		ldr	r3, [r7, #4]
 1648 00ec 092B     		cmp	r3, #9
 1649 00ee 8DDD     		ble	.L58
 1650              	.LBE3:
 481:main.c        ****     }
 482:main.c        **** }
 1651              		.loc 1 482 0 is_stmt 1
 1652 00f0 00BF     		nop
 1653 00f2 0C37     		adds	r7, r7, #12
 1654              		.cfi_def_cfa_offset 12
 1655 00f4 BD46     		mov	sp, r7
 1656              		.cfi_def_cfa_register 13
 1657              		@ sp needed
 1658 00f6 90BD     		pop	{r4, r7, pc}
 1659              	.L60:
 1660              		.align	2
 1661              	.L59:
 1662 00f8 00000000 		.word	pedals_high
 1663 00fc 00000000 		.word	pedals_low
 1664 0100 CDCCCC3D 		.word	1036831949
 1665 0104 00F07F45 		.word	1166012416
ARM GAS  C:\Users\JEFFSN~1\AppData\Local\Temp\ccEPDFmT.s 			page 39


 1666 0108 00000000 		.word	pedalRatios
 1667              		.cfi_endproc
 1668              	.LFE74:
 1669              		.size	calculatePedalRatios, .-calculatePedalRatios
 1670              		.section	.rodata
 1671              		.align	2
 1672              	.LC0:
 1673 0400 2000     		.ascii	" \000"
 1674              		.global	__aeabi_f2iz
 1675              		.global	__aeabi_fcmpge
 1676 0402 0000     		.align	2
 1677              	.LC1:
 1678 0404 43414C49 		.ascii	"CALIBRATION\000"
 1678      42524154 
 1678      494F4E00 
 1679              		.align	2
 1680              	.LC2:
 1681 0410 4D4F5645 		.ascii	"MOVE PEDALS\000"
 1681      20504544 
 1681      414C5300 
 1682              		.align	2
 1683              	.LC3:
 1684 041c 414E4420 		.ascii	"AND LEVERS\000"
 1684      4C455645 
 1684      525300
 1685 0427 00       		.align	2
 1686              	.LC4:
 1687 0428 5448454E 		.ascii	"THEN EXIT\000"
 1687      20455849 
 1687      5400
 1688              		.global	__aeabi_fcmpeq
 1689 0432 0000     		.align	2
 1690              	.LC5:
 1691 0434 4649524D 		.ascii	"FIRMWARE   \000"
 1691      57415245 
 1691      20202000 
 1692              		.align	2
 1693              	.LC6:
 1694 0440 55504441 		.ascii	"UPDATE     \000"
 1694      54452020 
 1694      20202000 
 1695              		.align	2
 1696              	.LC7:
 1697 044c 20202020 		.ascii	"           \000"
 1697      20202020 
 1697      20202000 
 1698              		.section	.text.main,"ax",%progbits
 1699              		.align	2
 1700              		.global	main
 1701              		.thumb
 1702              		.thumb_func
 1703              		.type	main, %function
 1704              	main:
 1705              	.LFB75:
 483:main.c        **** int main(void)
 484:main.c        **** {
 1706              		.loc 1 484 0
ARM GAS  C:\Users\JEFFSN~1\AppData\Local\Temp\ccEPDFmT.s 			page 40


 1707              		.cfi_startproc
 1708              		@ args = 0, pretend = 0, frame = 160
 1709              		@ frame_needed = 1, uses_anonymous_args = 0
 1710 0000 90B5     		push	{r4, r7, lr}
 1711              		.cfi_def_cfa_offset 12
 1712              		.cfi_offset 4, -12
 1713              		.cfi_offset 7, -8
 1714              		.cfi_offset 14, -4
 1715 0002 ABB0     		sub	sp, sp, #172
 1716              		.cfi_def_cfa_offset 184
 1717 0004 02AF     		add	r7, sp, #8
 1718              		.cfi_def_cfa 7, 176
 485:main.c        ****     
 486:main.c        **** 	CYGlobalIntEnable; 
 1719              		.loc 1 486 0
 1720              		.syntax unified
 1721              	@ 486 "main.c" 1
 1722 0006 62B6     		CPSIE   i
 1723              	@ 0 "" 2
 487:main.c        ****     EEPROM_Start();
 1724              		.loc 1 487 0
 1725              		.thumb
 1726              		.syntax unified
 1727 0008 FFF7FEFF 		bl	EEPROM_Start
 488:main.c        ****     Bootloadable_SET_RUN_TYPE(Bootloadable_SCHEDULE_BTLDB);
 1728              		.loc 1 488 0
 1729 000c B24B     		ldr	r3, .L223
 1730 000e 8022     		movs	r2, #128
 1731 0010 1A70     		strb	r2, [r3]
 489:main.c        ****     //since we sucessfully booted this firmware, set it to be the default until the brain chip gets
 490:main.c        ****     
 491:main.c        ****     eepromReturnValue = Em_EEPROM_Init((uint32_t)Em_EEPROM_em_EepromStorage);
 1732              		.loc 1 491 0
 1733 0012 B24B     		ldr	r3, .L223+4
 1734 0014 1846     		mov	r0, r3
 1735 0016 FFF7FEFF 		bl	Em_EEPROM_Init
 1736 001a 0346     		mov	r3, r0
 1737 001c 1A46     		mov	r2, r3
 1738 001e B04B     		ldr	r3, .L223+8
 1739 0020 1A70     		strb	r2, [r3]
 492:main.c        ****     if(eepromReturnValue != CY_EM_EEPROM_SUCCESS)
 493:main.c        ****     {
 494:main.c        ****        // HandleError();
 495:main.c        ****     }
 496:main.c        ****     uint8_t myArrayCounter = 0;
 1740              		.loc 1 496 0
 1741 0022 0023     		movs	r3, #0
 1742 0024 87F83B30 		strb	r3, [r7, #59]
 497:main.c        ****   
 498:main.c        ****     I2C_1_Start();  
 1743              		.loc 1 498 0
 1744 0028 FFF7FEFF 		bl	I2C_1_Start
 499:main.c        ****     USB_SetPowerStatus(USB_DEVICE_STATUS_SELF_POWERED);
 1745              		.loc 1 499 0
 1746 002c 0120     		movs	r0, #1
 1747 002e FFF7FEFF 		bl	USB_SetPowerStatus
 500:main.c        ****     my_Vbus_ISR_StartEx(Vbus_function);
ARM GAS  C:\Users\JEFFSN~1\AppData\Local\Temp\ccEPDFmT.s 			page 41


 1748              		.loc 1 500 0
 1749 0032 AC48     		ldr	r0, .L223+12
 1750 0034 FFF7FEFF 		bl	my_Vbus_ISR_StartEx
 501:main.c        ****     
 502:main.c        **** 
 503:main.c        **** 
 504:main.c        ****     
 505:main.c        ****     CyDelay(2000);
 1751              		.loc 1 505 0
 1752 0038 4FF4FA60 		mov	r0, #2000
 1753 003c FFF7FEFF 		bl	CyDelay
 506:main.c        ****     //read from eeprom which copedents are loaded on which necks
 507:main.c        ****     necks[0] = EEPROM_ReadByte(EEPROM_NECKS_OFFSET);
 1754              		.loc 1 507 0
 1755 0040 0020     		movs	r0, #0
 1756 0042 FFF7FEFF 		bl	EEPROM_ReadByte
 1757 0046 0346     		mov	r3, r0
 1758 0048 1A46     		mov	r2, r3
 1759 004a A74B     		ldr	r3, .L223+16
 1760 004c 1A70     		strb	r2, [r3]
 508:main.c        ****     necks[1] = EEPROM_ReadByte(EEPROM_NECKS_OFFSET + 1);
 1761              		.loc 1 508 0
 1762 004e 0120     		movs	r0, #1
 1763 0050 FFF7FEFF 		bl	EEPROM_ReadByte
 1764 0054 0346     		mov	r3, r0
 1765 0056 1A46     		mov	r2, r3
 1766 0058 A34B     		ldr	r3, .L223+16
 1767 005a 5A70     		strb	r2, [r3, #1]
 1768              	.LBB5:
 509:main.c        ****     
 510:main.c        ****     for (int coped = 0; coped < MAX_NUM_COPEDENTS; coped++)
 1769              		.loc 1 510 0
 1770 005c 0023     		movs	r3, #0
 1771 005e C7F89C30 		str	r3, [r7, #156]
 1772 0062 BBE0     		b	.L62
 1773              	.L69:
 1774              	.LBB6:
 511:main.c        ****     {
 512:main.c        ****         
 513:main.c        ****         for (int letter = 0; letter < NAME_LENGTH_IN_BYTES; letter++)
 1775              		.loc 1 513 0
 1776 0064 0023     		movs	r3, #0
 1777 0066 C7F89830 		str	r3, [r7, #152]
 1778 006a 29E0     		b	.L63
 1779              	.L64:
 514:main.c        ****         {
 515:main.c        ****                copedentNamesArray[coped][letter] = EEPROM_ReadByte(EEPROM_COPEDENT_OFFSET + (coped*
 1780              		.loc 1 515 0 discriminator 3
 1781 006c D7F89C30 		ldr	r3, [r7, #156]
 1782 0070 9BB2     		uxth	r3, r3
 1783 0072 1A46     		mov	r2, r3	@ movhi
 1784 0074 1201     		lsls	r2, r2, #4
 1785 0076 1A44     		add	r2, r2, r3
 1786 0078 9200     		lsls	r2, r2, #2
 1787 007a 1A44     		add	r2, r2, r3
 1788 007c 5200     		lsls	r2, r2, #1
 1789 007e 1344     		add	r3, r3, r2
ARM GAS  C:\Users\JEFFSN~1\AppData\Local\Temp\ccEPDFmT.s 			page 42


 1790 0080 5B00     		lsls	r3, r3, #1
 1791 0082 9AB2     		uxth	r2, r3
 1792 0084 D7F89830 		ldr	r3, [r7, #152]
 1793 0088 9BB2     		uxth	r3, r3
 1794 008a 1344     		add	r3, r3, r2
 1795 008c 9BB2     		uxth	r3, r3
 1796 008e 0233     		adds	r3, r3, #2
 1797 0090 9BB2     		uxth	r3, r3
 1798 0092 1846     		mov	r0, r3
 1799 0094 FFF7FEFF 		bl	EEPROM_ReadByte
 1800 0098 0346     		mov	r3, r0
 1801 009a 1846     		mov	r0, r3
 1802 009c 9349     		ldr	r1, .L223+20
 1803 009e D7F89C20 		ldr	r2, [r7, #156]
 1804 00a2 1346     		mov	r3, r2
 1805 00a4 DB00     		lsls	r3, r3, #3
 1806 00a6 9B1A     		subs	r3, r3, r2
 1807 00a8 5B00     		lsls	r3, r3, #1
 1808 00aa CA18     		adds	r2, r1, r3
 1809 00ac D7F89830 		ldr	r3, [r7, #152]
 1810 00b0 1344     		add	r3, r3, r2
 1811 00b2 0246     		mov	r2, r0
 1812 00b4 1A70     		strb	r2, [r3]
 513:main.c        ****         {
 1813              		.loc 1 513 0 discriminator 3
 1814 00b6 D7F89830 		ldr	r3, [r7, #152]
 1815 00ba 0133     		adds	r3, r3, #1
 1816 00bc C7F89830 		str	r3, [r7, #152]
 1817              	.L63:
 513:main.c        ****         {
 1818              		.loc 1 513 0 is_stmt 0 discriminator 1
 1819 00c0 D7F89830 		ldr	r3, [r7, #152]
 1820 00c4 0D2B     		cmp	r3, #13
 1821 00c6 D1DD     		ble	.L64
 1822              	.LBE6:
 1823              	.LBB7:
 516:main.c        ****         }
 517:main.c        ****         for (int i = 0; i < 11; i++)
 1824              		.loc 1 517 0 is_stmt 1
 1825 00c8 0023     		movs	r3, #0
 1826 00ca C7F89430 		str	r3, [r7, #148]
 1827 00ce 7BE0     		b	.L65
 1828              	.L68:
 1829              	.LBB8:
 518:main.c        ****     	{
 519:main.c        ****     		int pedalStartLoc = (i*24);
 1830              		.loc 1 519 0
 1831 00d0 D7F89420 		ldr	r2, [r7, #148]
 1832 00d4 1346     		mov	r3, r2
 1833 00d6 5B00     		lsls	r3, r3, #1
 1834 00d8 1344     		add	r3, r3, r2
 1835 00da DB00     		lsls	r3, r3, #3
 1836 00dc 7B63     		str	r3, [r7, #52]
 1837              	.LBB9:
 520:main.c        ****             for (int j = 0; j < NUM_STRINGS; j++)
 1838              		.loc 1 520 0
 1839 00de 0023     		movs	r3, #0
ARM GAS  C:\Users\JEFFSN~1\AppData\Local\Temp\ccEPDFmT.s 			page 43


 1840 00e0 C7F89030 		str	r3, [r7, #144]
 1841 00e4 67E0     		b	.L66
 1842              	.L67:
 1843              	.LBB10:
 521:main.c        ****     		{
 522:main.c        ****                 
 523:main.c        ****                 int stringStartLoc = (j*2);
 1844              		.loc 1 523 0 discriminator 3
 1845 00e6 D7F89030 		ldr	r3, [r7, #144]
 1846 00ea 5B00     		lsls	r3, r3, #1
 1847 00ec 3B63     		str	r3, [r7, #48]
 524:main.c        ****                 uint16_t tempIntHigh = EEPROM_ReadByte(EEPROM_COPEDENT_OFFSET + stringStartLoc + pe
 1848              		.loc 1 524 0 discriminator 3
 1849 00ee 3B6B     		ldr	r3, [r7, #48]
 1850 00f0 9AB2     		uxth	r2, r3
 1851 00f2 7B6B     		ldr	r3, [r7, #52]
 1852 00f4 9BB2     		uxth	r3, r3
 1853 00f6 1344     		add	r3, r3, r2
 1854 00f8 9AB2     		uxth	r2, r3
 1855 00fa D7F89C30 		ldr	r3, [r7, #156]
 1856 00fe 9BB2     		uxth	r3, r3
 1857 0100 1946     		mov	r1, r3	@ movhi
 1858 0102 0901     		lsls	r1, r1, #4
 1859 0104 1944     		add	r1, r1, r3
 1860 0106 8900     		lsls	r1, r1, #2
 1861 0108 1944     		add	r1, r1, r3
 1862 010a 4900     		lsls	r1, r1, #1
 1863 010c 0B44     		add	r3, r3, r1
 1864 010e 5B00     		lsls	r3, r3, #1
 1865 0110 9BB2     		uxth	r3, r3
 1866 0112 1344     		add	r3, r3, r2
 1867 0114 9BB2     		uxth	r3, r3
 1868 0116 1033     		adds	r3, r3, #16
 1869 0118 9BB2     		uxth	r3, r3
 1870 011a 1846     		mov	r0, r3
 1871 011c FFF7FEFF 		bl	EEPROM_ReadByte
 1872 0120 0346     		mov	r3, r0
 1873 0122 FB85     		strh	r3, [r7, #46]	@ movhi
 525:main.c        ****                 uint16_t tempIntLow = EEPROM_ReadByte(EEPROM_COPEDENT_OFFSET + stringStartLoc + ped
 1874              		.loc 1 525 0 discriminator 3
 1875 0124 3B6B     		ldr	r3, [r7, #48]
 1876 0126 9AB2     		uxth	r2, r3
 1877 0128 7B6B     		ldr	r3, [r7, #52]
 1878 012a 9BB2     		uxth	r3, r3
 1879 012c 1344     		add	r3, r3, r2
 1880 012e 9AB2     		uxth	r2, r3
 1881 0130 D7F89C30 		ldr	r3, [r7, #156]
 1882 0134 9BB2     		uxth	r3, r3
 1883 0136 1946     		mov	r1, r3	@ movhi
 1884 0138 0901     		lsls	r1, r1, #4
 1885 013a 1944     		add	r1, r1, r3
 1886 013c 8900     		lsls	r1, r1, #2
 1887 013e 1944     		add	r1, r1, r3
 1888 0140 4900     		lsls	r1, r1, #1
 1889 0142 0B44     		add	r3, r3, r1
 1890 0144 5B00     		lsls	r3, r3, #1
 1891 0146 9BB2     		uxth	r3, r3
ARM GAS  C:\Users\JEFFSN~1\AppData\Local\Temp\ccEPDFmT.s 			page 44


 1892 0148 1344     		add	r3, r3, r2
 1893 014a 9BB2     		uxth	r3, r3
 1894 014c 1133     		adds	r3, r3, #17
 1895 014e 9BB2     		uxth	r3, r3
 1896 0150 1846     		mov	r0, r3
 1897 0152 FFF7FEFF 		bl	EEPROM_ReadByte
 1898 0156 0346     		mov	r3, r0
 1899 0158 BB85     		strh	r3, [r7, #44]	@ movhi
 526:main.c        ****                 copedent[coped][i][j] = (((float)((tempIntHigh << 8) + tempIntLow)) * 0.00390625f) 
 1900              		.loc 1 526 0 discriminator 3
 1901 015a FB8D     		ldrh	r3, [r7, #46]
 1902 015c 1A02     		lsls	r2, r3, #8
 1903 015e BB8D     		ldrh	r3, [r7, #44]
 1904 0160 1344     		add	r3, r3, r2
 1905 0162 1846     		mov	r0, r3
 1906 0164 FFF7FEFF 		bl	__aeabi_i2f
 1907 0168 0346     		mov	r3, r0
 1908 016a 4FF06E51 		mov	r1, #998244352
 1909 016e 1846     		mov	r0, r3
 1910 0170 FFF7FEFF 		bl	__aeabi_fmul
 1911 0174 0346     		mov	r3, r0
 1912 0176 4FF08641 		mov	r1, #1124073472
 1913 017a 1846     		mov	r0, r3
 1914 017c FFF7FEFF 		bl	__aeabi_fsub
 1915 0180 0346     		mov	r3, r0
 1916 0182 1C46     		mov	r4, r3
 1917 0184 5A48     		ldr	r0, .L223+24
 1918 0186 D7F89430 		ldr	r3, [r7, #148]
 1919 018a D7F89C10 		ldr	r1, [r7, #156]
 1920 018e 1A46     		mov	r2, r3
 1921 0190 5200     		lsls	r2, r2, #1
 1922 0192 1A44     		add	r2, r2, r3
 1923 0194 9300     		lsls	r3, r2, #2
 1924 0196 1A46     		mov	r2, r3
 1925 0198 0B46     		mov	r3, r1
 1926 019a 5B01     		lsls	r3, r3, #5
 1927 019c 0B44     		add	r3, r3, r1
 1928 019e 9B00     		lsls	r3, r3, #2
 1929 01a0 1A44     		add	r2, r2, r3
 1930 01a2 D7F89030 		ldr	r3, [r7, #144]
 1931 01a6 1344     		add	r3, r3, r2
 1932 01a8 40F82340 		str	r4, [r0, r3, lsl #2]	@ float
 1933              	.LBE10:
 520:main.c        ****     		{
 1934              		.loc 1 520 0 discriminator 3
 1935 01ac D7F89030 		ldr	r3, [r7, #144]
 1936 01b0 0133     		adds	r3, r3, #1
 1937 01b2 C7F89030 		str	r3, [r7, #144]
 1938              	.L66:
 520:main.c        ****     		{
 1939              		.loc 1 520 0 is_stmt 0 discriminator 1
 1940 01b6 D7F89030 		ldr	r3, [r7, #144]
 1941 01ba 0B2B     		cmp	r3, #11
 1942 01bc 93DD     		ble	.L67
 1943              	.LBE9:
 1944              	.LBE8:
 517:main.c        ****     	{
ARM GAS  C:\Users\JEFFSN~1\AppData\Local\Temp\ccEPDFmT.s 			page 45


 1945              		.loc 1 517 0 is_stmt 1 discriminator 2
 1946 01be D7F89430 		ldr	r3, [r7, #148]
 1947 01c2 0133     		adds	r3, r3, #1
 1948 01c4 C7F89430 		str	r3, [r7, #148]
 1949              	.L65:
 517:main.c        ****     	{
 1950              		.loc 1 517 0 is_stmt 0 discriminator 1
 1951 01c8 D7F89430 		ldr	r3, [r7, #148]
 1952 01cc 0A2B     		cmp	r3, #10
 1953 01ce 7FF77FAF 		ble	.L68
 1954              	.LBE7:
 510:main.c        ****     {
 1955              		.loc 1 510 0 is_stmt 1 discriminator 2
 1956 01d2 D7F89C30 		ldr	r3, [r7, #156]
 1957 01d6 0133     		adds	r3, r3, #1
 1958 01d8 C7F89C30 		str	r3, [r7, #156]
 1959              	.L62:
 510:main.c        ****     {
 1960              		.loc 1 510 0 is_stmt 0 discriminator 1
 1961 01dc D7F89C30 		ldr	r3, [r7, #156]
 1962 01e0 062B     		cmp	r3, #6
 1963 01e2 7FF73FAF 		ble	.L69
 1964              	.LBE5:
 1965              	.LBB11:
 527:main.c        ****             }
 528:main.c        ****     	}
 529:main.c        ****     }
 530:main.c        **** 
 531:main.c        ****     
 532:main.c        ****     for (int i = 0; i < NUM_PEDALS; i++)
 1966              		.loc 1 532 0 is_stmt 1
 1967 01e6 0023     		movs	r3, #0
 1968 01e8 C7F88C30 		str	r3, [r7, #140]
 1969 01ec 49E0     		b	.L70
 1970              	.L71:
 533:main.c        ****     {
 534:main.c        ****         pedals_low[i] = (EEPROM_ReadByte(EEPROM_CALIBRATION_OFFSET + (i*4)) << 8) + (EEPROM_ReadByt
 1971              		.loc 1 534 0 discriminator 3
 1972 01ee D7F88C30 		ldr	r3, [r7, #140]
 1973 01f2 03F2E713 		addw	r3, r3, #487
 1974 01f6 9BB2     		uxth	r3, r3
 1975 01f8 9B00     		lsls	r3, r3, #2
 1976 01fa 9BB2     		uxth	r3, r3
 1977 01fc 1846     		mov	r0, r3
 1978 01fe FFF7FEFF 		bl	EEPROM_ReadByte
 1979 0202 0346     		mov	r3, r0
 1980 0204 9BB2     		uxth	r3, r3
 1981 0206 1B02     		lsls	r3, r3, #8
 1982 0208 9CB2     		uxth	r4, r3
 1983 020a D7F88C30 		ldr	r3, [r7, #140]
 1984 020e 9BB2     		uxth	r3, r3
 1985 0210 9B00     		lsls	r3, r3, #2
 1986 0212 9BB2     		uxth	r3, r3
 1987 0214 03F29D73 		addw	r3, r3, #1949
 1988 0218 9BB2     		uxth	r3, r3
 1989 021a 1846     		mov	r0, r3
 1990 021c FFF7FEFF 		bl	EEPROM_ReadByte
ARM GAS  C:\Users\JEFFSN~1\AppData\Local\Temp\ccEPDFmT.s 			page 46


 1991 0220 0346     		mov	r3, r0
 1992 0222 9BB2     		uxth	r3, r3
 1993 0224 2344     		add	r3, r3, r4
 1994 0226 99B2     		uxth	r1, r3
 1995 0228 324A     		ldr	r2, .L223+28
 1996 022a D7F88C30 		ldr	r3, [r7, #140]
 1997 022e 22F81310 		strh	r1, [r2, r3, lsl #1]	@ movhi
 535:main.c        ****         pedals_high[i] = (EEPROM_ReadByte(EEPROM_CALIBRATION_OFFSET + ((i*4) + 2)) << 8) + (EEPROM_
 1998              		.loc 1 535 0 discriminator 3
 1999 0232 D7F88C30 		ldr	r3, [r7, #140]
 2000 0236 9BB2     		uxth	r3, r3
 2001 0238 9B00     		lsls	r3, r3, #2
 2002 023a 9BB2     		uxth	r3, r3
 2003 023c 03F29E73 		addw	r3, r3, #1950
 2004 0240 9BB2     		uxth	r3, r3
 2005 0242 1846     		mov	r0, r3
 2006 0244 FFF7FEFF 		bl	EEPROM_ReadByte
 2007 0248 0346     		mov	r3, r0
 2008 024a 9BB2     		uxth	r3, r3
 2009 024c 1B02     		lsls	r3, r3, #8
 2010 024e 9CB2     		uxth	r4, r3
 2011 0250 D7F88C30 		ldr	r3, [r7, #140]
 2012 0254 9BB2     		uxth	r3, r3
 2013 0256 9B00     		lsls	r3, r3, #2
 2014 0258 9BB2     		uxth	r3, r3
 2015 025a 03F29F73 		addw	r3, r3, #1951
 2016 025e 9BB2     		uxth	r3, r3
 2017 0260 1846     		mov	r0, r3
 2018 0262 FFF7FEFF 		bl	EEPROM_ReadByte
 2019 0266 0346     		mov	r3, r0
 2020 0268 9BB2     		uxth	r3, r3
 2021 026a 2344     		add	r3, r3, r4
 2022 026c 99B2     		uxth	r1, r3
 2023 026e 224A     		ldr	r2, .L223+32
 2024 0270 D7F88C30 		ldr	r3, [r7, #140]
 2025 0274 22F81310 		strh	r1, [r2, r3, lsl #1]	@ movhi
 532:main.c        ****     {
 2026              		.loc 1 532 0 discriminator 3
 2027 0278 D7F88C30 		ldr	r3, [r7, #140]
 2028 027c 0133     		adds	r3, r3, #1
 2029 027e C7F88C30 		str	r3, [r7, #140]
 2030              	.L70:
 532:main.c        ****     {
 2031              		.loc 1 532 0 is_stmt 0 discriminator 1
 2032 0282 D7F88C30 		ldr	r3, [r7, #140]
 2033 0286 092B     		cmp	r3, #9
 2034 0288 B1DD     		ble	.L71
 2035              	.LBE11:
 536:main.c        ****     }
 537:main.c        ****     calculatePedalRatios();
 2036              		.loc 1 537 0 is_stmt 1
 2037 028a FFF7FEFF 		bl	calculatePedalRatios
 2038              	.LBB12:
 538:main.c        ****                 
 539:main.c        ****     //blank out the preset names array so that we can tell when we get the real names from the synt
 540:main.c        ****     for (int i = 0; i < MAX_NUM_PRESETS; i++)
 2039              		.loc 1 540 0
ARM GAS  C:\Users\JEFFSN~1\AppData\Local\Temp\ccEPDFmT.s 			page 47


 2040 028e 0023     		movs	r3, #0
 2041 0290 C7F88830 		str	r3, [r7, #136]
 2042 0294 62E0     		b	.L72
 2043              	.L79:
 2044              	.LBB13:
 541:main.c        ****     {
 542:main.c        ****         for (int j = 0; j < NAME_LENGTH_IN_BYTES; j++)
 2045              		.loc 1 542 0
 2046 0296 0023     		movs	r3, #0
 2047 0298 C7F88430 		str	r3, [r7, #132]
 2048 029c 11E0     		b	.L73
 2049              	.L74:
 543:main.c        ****         {
 544:main.c        ****             presetNamesArray[i][j] = 255;
 2050              		.loc 1 544 0 discriminator 3
 2051 029e 1749     		ldr	r1, .L223+36
 2052 02a0 D7F88820 		ldr	r2, [r7, #136]
 2053 02a4 1346     		mov	r3, r2
 2054 02a6 DB00     		lsls	r3, r3, #3
 2055 02a8 9B1A     		subs	r3, r3, r2
 2056 02aa 5B00     		lsls	r3, r3, #1
 2057 02ac CA18     		adds	r2, r1, r3
 2058 02ae D7F88430 		ldr	r3, [r7, #132]
 2059 02b2 1344     		add	r3, r3, r2
 2060 02b4 FF22     		movs	r2, #255
 2061 02b6 1A70     		strb	r2, [r3]
 542:main.c        ****         {
 2062              		.loc 1 542 0 discriminator 3
 2063 02b8 D7F88430 		ldr	r3, [r7, #132]
 2064 02bc 0133     		adds	r3, r3, #1
 2065 02be C7F88430 		str	r3, [r7, #132]
 2066              	.L73:
 542:main.c        ****         {
 2067              		.loc 1 542 0 is_stmt 0 discriminator 1
 2068 02c2 D7F88430 		ldr	r3, [r7, #132]
 2069 02c6 0D2B     		cmp	r3, #13
 2070 02c8 E9DD     		ble	.L74
 2071              	.LBE13:
 2072              	.LBB14:
 545:main.c        **** 
 546:main.c        ****         }
 547:main.c        ****         for (int j = 0; j < NUM_MACROS; j++)
 2073              		.loc 1 547 0 is_stmt 1
 2074 02ca 0023     		movs	r3, #0
 2075 02cc C7F88030 		str	r3, [r7, #128]
 2076 02d0 35E0     		b	.L75
 2077              	.L78:
 2078              	.LBB15:
 548:main.c        ****         {
 549:main.c        ****             for (int k = 0; k < NAME_LENGTH_IN_BYTES; k++)
 2079              		.loc 1 549 0
 2080 02d2 0023     		movs	r3, #0
 2081 02d4 FB67     		str	r3, [r7, #124]
 2082 02d6 2AE0     		b	.L76
 2083              	.L224:
 2084              		.align	2
 2085              	.L223:
ARM GAS  C:\Users\JEFFSN~1\AppData\Local\Temp\ccEPDFmT.s 			page 48


 2086 02d8 FA460040 		.word	1073759994
 2087 02dc 00000000 		.word	Em_EEPROM_em_EepromStorage
 2088 02e0 00000000 		.word	eepromReturnValue
 2089 02e4 00000000 		.word	Vbus_function
 2090 02e8 00000000 		.word	necks
 2091 02ec 00000000 		.word	copedentNamesArray
 2092 02f0 00000000 		.word	copedent
 2093 02f4 00000000 		.word	pedals_low
 2094 02f8 00000000 		.word	pedals_high
 2095 02fc 00000000 		.word	presetNamesArray
 2096              	.L77:
 550:main.c        ****             {
 551:main.c        ****                 macroNamesArray[i][j][k] = 255;
 2097              		.loc 1 551 0 discriminator 3
 2098 0300 4E48     		ldr	r0, .L225
 2099 0302 D7F88030 		ldr	r3, [r7, #128]
 2100 0306 D7F88810 		ldr	r1, [r7, #136]
 2101 030a 1A46     		mov	r2, r3
 2102 030c D200     		lsls	r2, r2, #3
 2103 030e D21A     		subs	r2, r2, r3
 2104 0310 5300     		lsls	r3, r2, #1
 2105 0312 1A46     		mov	r2, r3
 2106 0314 0B46     		mov	r3, r1
 2107 0316 DB00     		lsls	r3, r3, #3
 2108 0318 5B1A     		subs	r3, r3, r1
 2109 031a 1B01     		lsls	r3, r3, #4
 2110 031c 1344     		add	r3, r3, r2
 2111 031e C218     		adds	r2, r0, r3
 2112 0320 FB6F     		ldr	r3, [r7, #124]
 2113 0322 1344     		add	r3, r3, r2
 2114 0324 FF22     		movs	r2, #255
 2115 0326 1A70     		strb	r2, [r3]
 549:main.c        ****             {
 2116              		.loc 1 549 0 discriminator 3
 2117 0328 FB6F     		ldr	r3, [r7, #124]
 2118 032a 0133     		adds	r3, r3, #1
 2119 032c FB67     		str	r3, [r7, #124]
 2120              	.L76:
 549:main.c        ****             {
 2121              		.loc 1 549 0 is_stmt 0 discriminator 1
 2122 032e FB6F     		ldr	r3, [r7, #124]
 2123 0330 0D2B     		cmp	r3, #13
 2124 0332 E5DD     		ble	.L77
 2125              	.LBE15:
 547:main.c        ****         {
 2126              		.loc 1 547 0 is_stmt 1 discriminator 2
 2127 0334 D7F88030 		ldr	r3, [r7, #128]
 2128 0338 0133     		adds	r3, r3, #1
 2129 033a C7F88030 		str	r3, [r7, #128]
 2130              	.L75:
 547:main.c        ****         {
 2131              		.loc 1 547 0 is_stmt 0 discriminator 1
 2132 033e D7F88030 		ldr	r3, [r7, #128]
 2133 0342 072B     		cmp	r3, #7
 2134 0344 C5DD     		ble	.L78
 2135              	.LBE14:
 552:main.c        ****             }
ARM GAS  C:\Users\JEFFSN~1\AppData\Local\Temp\ccEPDFmT.s 			page 49


 553:main.c        ****         }
 554:main.c        ****         presetAlreadyDisplayed[i] = 0;
 2136              		.loc 1 554 0 is_stmt 1 discriminator 2
 2137 0346 3E4A     		ldr	r2, .L225+4
 2138 0348 D7F88830 		ldr	r3, [r7, #136]
 2139 034c 0021     		movs	r1, #0
 2140 034e 42F82310 		str	r1, [r2, r3, lsl #2]
 540:main.c        ****     {
 2141              		.loc 1 540 0 discriminator 2
 2142 0352 D7F88830 		ldr	r3, [r7, #136]
 2143 0356 0133     		adds	r3, r3, #1
 2144 0358 C7F88830 		str	r3, [r7, #136]
 2145              	.L72:
 540:main.c        ****     {
 2146              		.loc 1 540 0 is_stmt 0 discriminator 1
 2147 035c D7F88830 		ldr	r3, [r7, #136]
 2148 0360 3F2B     		cmp	r3, #63
 2149 0362 98DD     		ble	.L79
 2150              	.LBE12:
 555:main.c        ****     }
 556:main.c        ****     
 557:main.c        ****     QuadDec_1_Start();
 2151              		.loc 1 557 0 is_stmt 1
 2152 0364 FFF7FEFF 		bl	QuadDec_1_Start
 558:main.c        ****     LED_amber1_Write(0);
 2153              		.loc 1 558 0
 2154 0368 0020     		movs	r0, #0
 2155 036a FFF7FEFF 		bl	LED_amber1_Write
 559:main.c        ****     LED_amber2_Write(1);
 2156              		.loc 1 559 0
 2157 036e 0120     		movs	r0, #1
 2158 0370 FFF7FEFF 		bl	LED_amber2_Write
 560:main.c        ****     LED_amber3_Write(0);
 2159              		.loc 1 560 0
 2160 0374 0020     		movs	r0, #0
 2161 0376 FFF7FEFF 		bl	LED_amber3_Write
 561:main.c        ****     LED_amber4_Write(0);
 2162              		.loc 1 561 0
 2163 037a 0020     		movs	r0, #0
 2164 037c FFF7FEFF 		bl	LED_amber4_Write
 562:main.c        **** 
 563:main.c        **** 
 564:main.c        **** 
 565:main.c        **** 
 566:main.c        **** 
 567:main.c        ****     
 568:main.c        ****     LED_red1_Write(0);
 2165              		.loc 1 568 0
 2166 0380 0020     		movs	r0, #0
 2167 0382 FFF7FEFF 		bl	LED_red1_Write
 569:main.c        ****     LED_green2_Write(1);
 2168              		.loc 1 569 0
 2169 0386 0120     		movs	r0, #1
 2170 0388 FFF7FEFF 		bl	LED_green2_Write
 570:main.c        **** 
 571:main.c        ****     
 572:main.c        ****     ADC_SAR_Seq_1_Start();
ARM GAS  C:\Users\JEFFSN~1\AppData\Local\Temp\ccEPDFmT.s 			page 50


 2171              		.loc 1 572 0
 2172 038c FFF7FEFF 		bl	ADC_SAR_Seq_1_Start
 573:main.c        ****     ADC_SAR_Seq_1_StartConvert();
 2173              		.loc 1 573 0
 2174 0390 FFF7FEFF 		bl	ADC_SAR_Seq_1_StartConvert
 574:main.c        **** 
 575:main.c        ****             
 576:main.c        ****     currentCopedent = necks[currentNeck];
 2175              		.loc 1 576 0
 2176 0394 2B4B     		ldr	r3, .L225+8
 2177 0396 1B68     		ldr	r3, [r3]
 2178 0398 2B4A     		ldr	r2, .L225+12
 2179 039a D25C     		ldrb	r2, [r2, r3]	@ zero_extendqisi2
 2180 039c 2B4B     		ldr	r3, .L225+16
 2181 039e 1A70     		strb	r2, [r3]
 577:main.c        ****     CyDelay(10);
 2182              		.loc 1 577 0
 2183 03a0 0A20     		movs	r0, #10
 2184 03a2 FFF7FEFF 		bl	CyDelay
 578:main.c        ****     
 579:main.c        ****     //set up for the OLED screen's first write
 580:main.c        ****     I2Cbuff1[0] = 1<<6;
 2185              		.loc 1 580 0
 2186 03a6 2A4B     		ldr	r3, .L225+20
 2187 03a8 4022     		movs	r2, #64
 2188 03aa 1A70     		strb	r2, [r3]
 581:main.c        ****     status = I2C_MasterWriteBlocking(0x70, 1, I2C_1_MODE_COMPLETE_XFER);
 2189              		.loc 1 581 0
 2190 03ac 0022     		movs	r2, #0
 2191 03ae 0121     		movs	r1, #1
 2192 03b0 7020     		movs	r0, #112
 2193 03b2 FFF7FEFF 		bl	I2C_MasterWriteBlocking
 2194 03b6 0346     		mov	r3, r0
 2195 03b8 1A46     		mov	r2, r3
 2196 03ba 264B     		ldr	r3, .L225+24
 2197 03bc 1A60     		str	r2, [r3]
 582:main.c        ****     myGFX_init(128, 64);
 2198              		.loc 1 582 0
 2199 03be 4021     		movs	r1, #64
 2200 03c0 8020     		movs	r0, #128
 2201 03c2 FFF7FEFF 		bl	myGFX_init
 583:main.c        ****     myGFX_setFont(0);
 2202              		.loc 1 583 0
 2203 03c6 0020     		movs	r0, #0
 2204 03c8 FFF7FEFF 		bl	myGFX_setFont
 584:main.c        ****     OLED_init(128, 64);
 2205              		.loc 1 584 0
 2206 03cc 4021     		movs	r1, #64
 2207 03ce 8020     		movs	r0, #128
 2208 03d0 FFF7FEFF 		bl	OLED_init
 585:main.c        ****     OLEDwriteInt(currentCopedent , 2, 0,FourthLine);
 2209              		.loc 1 585 0
 2210 03d4 1D4B     		ldr	r3, .L225+16
 2211 03d6 1B78     		ldrb	r3, [r3]	@ zero_extendqisi2
 2212 03d8 1846     		mov	r0, r3
 2213 03da 0323     		movs	r3, #3
 2214 03dc 0022     		movs	r2, #0
ARM GAS  C:\Users\JEFFSN~1\AppData\Local\Temp\ccEPDFmT.s 			page 51


 2215 03de 0221     		movs	r1, #2
 2216 03e0 FFF7FEFF 		bl	OLEDwriteInt
 586:main.c        ****     OLEDwriteString(" ", 1, OLEDgetCursor(), FourthLine);
 2217              		.loc 1 586 0
 2218 03e4 FFF7FEFF 		bl	OLEDgetCursor
 2219 03e8 0246     		mov	r2, r0
 2220 03ea 0323     		movs	r3, #3
 2221 03ec 0121     		movs	r1, #1
 2222 03ee 1A48     		ldr	r0, .L225+28
 2223 03f0 FFF7FEFF 		bl	OLEDwriteString
 587:main.c        ****     OLEDwriteString((char *)&copedentNamesArray[currentCopedent][0], COPEDENT_NAME_CLIPPED_LENGTH, 
 2224              		.loc 1 587 0
 2225 03f4 154B     		ldr	r3, .L225+16
 2226 03f6 1B78     		ldrb	r3, [r3]	@ zero_extendqisi2
 2227 03f8 1A46     		mov	r2, r3
 2228 03fa 1346     		mov	r3, r2
 2229 03fc DB00     		lsls	r3, r3, #3
 2230 03fe 9B1A     		subs	r3, r3, r2
 2231 0400 5B00     		lsls	r3, r3, #1
 2232 0402 164A     		ldr	r2, .L225+32
 2233 0404 9C18     		adds	r4, r3, r2
 2234 0406 FFF7FEFF 		bl	OLEDgetCursor
 2235 040a 0246     		mov	r2, r0
 2236 040c 0323     		movs	r3, #3
 2237 040e 0821     		movs	r1, #8
 2238 0410 2046     		mov	r0, r4
 2239 0412 FFF7FEFF 		bl	OLEDwriteString
 588:main.c        ****     OLED_draw(128, 64);
 2240              		.loc 1 588 0
 2241 0416 4021     		movs	r1, #64
 2242 0418 8020     		movs	r0, #128
 2243 041a FFF7FEFF 		bl	OLED_draw
 589:main.c        ****     
 590:main.c        ****     
 591:main.c        ****     I2Cbuff1[0] = 1<<2;
 2244              		.loc 1 591 0
 2245 041e 0C4B     		ldr	r3, .L225+20
 2246 0420 0422     		movs	r2, #4
 2247 0422 1A70     		strb	r2, [r3]
 592:main.c        ****     status = I2C_MasterWriteBlocking(0x70, 1, I2C_1_MODE_COMPLETE_XFER);
 2248              		.loc 1 592 0
 2249 0424 0022     		movs	r2, #0
 2250 0426 0121     		movs	r1, #1
 2251 0428 7020     		movs	r0, #112
 2252 042a FFF7FEFF 		bl	I2C_MasterWriteBlocking
 2253 042e 0346     		mov	r3, r0
 2254 0430 1A46     		mov	r2, r3
 2255 0432 084B     		ldr	r3, .L225+24
 2256 0434 1A60     		str	r2, [r3]
 2257              	.LBB16:
 593:main.c        **** 
 594:main.c        ****     for (int w = 0; w < 8; w++)
 2258              		.loc 1 594 0
 2259 0436 0023     		movs	r3, #0
 2260 0438 BB67     		str	r3, [r7, #120]
 2261 043a 27E0     		b	.L80
 2262              	.L226:
ARM GAS  C:\Users\JEFFSN~1\AppData\Local\Temp\ccEPDFmT.s 			page 52


 2263              		.align	2
 2264              	.L225:
 2265 043c 00000000 		.word	macroNamesArray
 2266 0440 00000000 		.word	presetAlreadyDisplayed
 2267 0444 00000000 		.word	currentNeck
 2268 0448 00000000 		.word	necks
 2269 044c 00000000 		.word	currentCopedent
 2270 0450 00000000 		.word	I2Cbuff1
 2271 0454 00000000 		.word	status
 2272 0458 00040000 		.word	.LC0
 2273 045c 00000000 		.word	copedentNamesArray
 2274              	.L81:
 595:main.c        ****     {
 596:main.c        ****         I2Cbuff1[0] = (1 << 3) + w;
 2275              		.loc 1 596 0 discriminator 3
 2276 0460 BB6F     		ldr	r3, [r7, #120]
 2277 0462 DBB2     		uxtb	r3, r3
 2278 0464 0833     		adds	r3, r3, #8
 2279 0466 DAB2     		uxtb	r2, r3
 2280 0468 924B     		ldr	r3, .L227
 2281 046a 1A70     		strb	r2, [r3]
 597:main.c        ****         status = I2C_MasterWriteBlocking(0x72, 1, I2C_1_MODE_COMPLETE_XFER); 
 2282              		.loc 1 597 0 discriminator 3
 2283 046c 0022     		movs	r2, #0
 2284 046e 0121     		movs	r1, #1
 2285 0470 7220     		movs	r0, #114
 2286 0472 FFF7FEFF 		bl	I2C_MasterWriteBlocking
 2287 0476 0346     		mov	r3, r0
 2288 0478 1A46     		mov	r2, r3
 2289 047a 8F4B     		ldr	r3, .L227+4
 2290 047c 1A60     		str	r2, [r3]
 598:main.c        ****         OLED_init(128, 32);
 2291              		.loc 1 598 0 discriminator 3
 2292 047e 2021     		movs	r1, #32
 2293 0480 8020     		movs	r0, #128
 2294 0482 FFF7FEFF 		bl	OLED_init
 594:main.c        ****     {
 2295              		.loc 1 594 0 discriminator 3
 2296 0486 BB6F     		ldr	r3, [r7, #120]
 2297 0488 0133     		adds	r3, r3, #1
 2298 048a BB67     		str	r3, [r7, #120]
 2299              	.L80:
 594:main.c        ****     {
 2300              		.loc 1 594 0 is_stmt 0 discriminator 1
 2301 048c BB6F     		ldr	r3, [r7, #120]
 2302 048e 072B     		cmp	r3, #7
 2303 0490 E6DD     		ble	.L81
 2304              	.LBE16:
 599:main.c        ****         //OLEDwriteInt(w , 1, 0,FirstLine);
 600:main.c        ****         //OLEDwriteString(" ", 1, OLEDgetCursor(), FourthLine);
 601:main.c        ****         //OLEDwriteString((char *)&copedentNamesArray[currentCopedent][0], NAME_LENGTH_IN_BYTES, OL
 602:main.c        ****        // OLED_draw(128, 32);
 603:main.c        ****     }
 604:main.c        **** 
 605:main.c        ****     //initialize the macro knob adc to scan all knobs
 606:main.c        ****     I2Cbuff1[0] = 1<<2;
 2305              		.loc 1 606 0 is_stmt 1
ARM GAS  C:\Users\JEFFSN~1\AppData\Local\Temp\ccEPDFmT.s 			page 53


 2306 0492 884B     		ldr	r3, .L227
 2307 0494 0422     		movs	r2, #4
 2308 0496 1A70     		strb	r2, [r3]
 607:main.c        ****     status = I2C_MasterWriteBlocking(0x70, 1, I2C_1_MODE_COMPLETE_XFER);
 2309              		.loc 1 607 0
 2310 0498 0022     		movs	r2, #0
 2311 049a 0121     		movs	r1, #1
 2312 049c 7020     		movs	r0, #112
 2313 049e FFF7FEFF 		bl	I2C_MasterWriteBlocking
 2314 04a2 0346     		mov	r3, r0
 2315 04a4 1A46     		mov	r2, r3
 2316 04a6 844B     		ldr	r3, .L227+4
 2317 04a8 1A60     		str	r2, [r3]
 608:main.c        ****     main_counter = 9;
 2318              		.loc 1 608 0
 2319 04aa 844B     		ldr	r3, .L227+8
 2320 04ac 0922     		movs	r2, #9
 2321 04ae 1A70     		strb	r2, [r3]
 609:main.c        **** 
 610:main.c        ****     I2Cbuff1[0] = 0xf; //message says scan single-ended mode from beginning to 8th knob (scan all k
 2322              		.loc 1 610 0
 2323 04b0 804B     		ldr	r3, .L227
 2324 04b2 0F22     		movs	r2, #15
 2325 04b4 1A70     		strb	r2, [r3]
 611:main.c        ****     status = I2C_MasterWriteBlocking(0x35, 1, I2C_1_MODE_COMPLETE_XFER);
 2326              		.loc 1 611 0
 2327 04b6 0022     		movs	r2, #0
 2328 04b8 0121     		movs	r1, #1
 2329 04ba 3520     		movs	r0, #53
 2330 04bc FFF7FEFF 		bl	I2C_MasterWriteBlocking
 2331 04c0 0346     		mov	r3, r0
 2332 04c2 1A46     		mov	r2, r3
 2333 04c4 7C4B     		ldr	r3, .L227+4
 2334 04c6 1A60     		str	r2, [r3]
 612:main.c        ****     
 613:main.c        **** #if 0
 614:main.c        ****     while(1)
 615:main.c        ****     {
 616:main.c        ****         for (int i=  0; i < 4; i++)
 617:main.c        ****         {
 618:main.c        ****             knobs[i] = 127 - (ADC_SAR_Seq_1_GetResult16(i)/32);
 619:main.c        ****             if (knobs[i] != prevKnobs[i])
 620:main.c        ****             {
 621:main.c        ****                // sendMIDIControlChange(80+i, knobs[i]);
 622:main.c        ****             }
 623:main.c        ****             prevKnobs[i] = knobs[i];
 624:main.c        ****         }
 625:main.c        ****         
 626:main.c        **** 
 627:main.c        ****         I2Cbuff1[0] = 1<<0;
 628:main.c        ****         uint8_t status = I2C_MasterWriteBlocking(0x70, 1, I2C_1_MODE_COMPLETE_XFER);
 629:main.c        **** 
 630:main.c        ****         //CyDelayUs(100);
 631:main.c        ****         I2Cbuff1[0] = 0x0E;
 632:main.c        ****         status = I2C_MasterWriteBlocking(0x36, 1, I2C_1_MODE_NO_STOP);
 633:main.c        ****         status = I2C_MasterReadBlocking(0x36, 2, I2C_1_MODE_REPEAT_START);
 634:main.c        ****        // CyDelayUs(100);
ARM GAS  C:\Users\JEFFSN~1\AppData\Local\Temp\ccEPDFmT.s 			page 54


 635:main.c        ****         angle[0] = I2Cbuff2[0] << 8;
 636:main.c        ****         angle[0] +=  I2Cbuff2[1];
 637:main.c        ****         
 638:main.c        ****     }
 639:main.c        ****     #endif
 640:main.c        ****     //OLEDclear();
 641:main.c        ****     /*
 642:main.c        ****     while(1)
 643:main.c        ****     {
 644:main.c        ****         OLEDwriteInt(bar[1], 5, 0,FirstLine);
 645:main.c        ****         OLED_draw();
 646:main.c        ****         CyDelay(1);
 647:main.c        ****         
 648:main.c        ****         OLEDwriteInt(oct1_Read(), 1, 0,SecondLine);
 649:main.c        ****         OLEDwriteInt(oct2_Read(), 1, 10,SecondLine);
 650:main.c        ****         OLEDwriteInt(oct3_Read(), 1, 20,SecondLine);
 651:main.c        ****         OLEDwriteInt(oct4_Read(), 1, 30,SecondLine);
 652:main.c        ****         for (int i=  0; i < 4; i++)
 653:main.c        ****         {
 654:main.c        ****             OLEDwriteInt( ADC_SAR_Seq_1_GetResult16(i)/8, 3, i*30,2);
 655:main.c        ****         }
 656:main.c        **** 
 657:main.c        ****     }
 658:main.c        ****     */
 659:main.c        **** #if 0
 660:main.c        ****     I2Cbuff1[0] = 1<<mux_states[10][0];
 661:main.c        ****     uint8_t status = I2C_MasterWriteBlocking(0x70, 1, I2C_1_MODE_COMPLETE_XFER);
 662:main.c        **** 
 663:main.c        **** 
 664:main.c        ****     I2Cbuff1[0] = 1<<mux_states[10][1];
 665:main.c        ****     status = I2C_MasterWriteBlocking(0x71, 1, I2C_1_MODE_COMPLETE_XFER);
 666:main.c        **** 
 667:main.c        ****     //address 0x48
 668:main.c        ****     I2Cbuff1[0] = 0x1;
 669:main.c        ****     I2Cbuff1[1] = 0b11000000;
 670:main.c        ****     I2Cbuff1[2] = 0b10000011;
 671:main.c        **** 
 672:main.c        ****     status = I2C_MasterWriteBlocking(0x48, 3, I2C_1_MODE_COMPLETE_XFER);
 673:main.c        ****     #endif
 674:main.c        **** 
 675:main.c        ****     SPIS_1_Start();  
 2335              		.loc 1 675 0
 2336 04c8 FFF7FEFF 		bl	SPIS_1_Start
 676:main.c        ****     SPIM_1_Start();  
 2337              		.loc 1 676 0
 2338 04cc FFF7FEFF 		bl	SPIM_1_Start
 677:main.c        ****     SPIS_2_Start(); 
 2339              		.loc 1 677 0
 2340 04d0 FFF7FEFF 		bl	SPIS_2_Start
 678:main.c        ****     DmaTxConfiguration();
 2341              		.loc 1 678 0
 2342 04d4 FFF7FEFF 		bl	DmaTxConfiguration
 679:main.c        ****     DmaRxConfiguration();
 2343              		.loc 1 679 0
 2344 04d8 FFF7FEFF 		bl	DmaRxConfiguration
 680:main.c        ****     isr_SPI1_ss_StartEx(spis_1_ss);
 2345              		.loc 1 680 0
ARM GAS  C:\Users\JEFFSN~1\AppData\Local\Temp\ccEPDFmT.s 			page 55


 2346 04dc 7848     		ldr	r0, .L227+12
 2347 04de FFF7FEFF 		bl	isr_SPI1_ss_StartEx
 681:main.c        ****     isr_SPI2_ss_StartEx(spis_2_ss);
 2348              		.loc 1 681 0
 2349 04e2 7848     		ldr	r0, .L227+16
 2350 04e4 FFF7FEFF 		bl	isr_SPI2_ss_StartEx
 682:main.c        ****     
 683:main.c        ****     myArray[30] = 254;
 2351              		.loc 1 683 0
 2352 04e8 774B     		ldr	r3, .L227+20
 2353 04ea FE22     		movs	r2, #254
 2354 04ec 9A77     		strb	r2, [r3, #30]
 684:main.c        ****     myArray[31] = 253;
 2355              		.loc 1 684 0
 2356 04ee 764B     		ldr	r3, .L227+20
 2357 04f0 FD22     		movs	r2, #253
 2358 04f2 DA77     		strb	r2, [r3, #31]
 685:main.c        **** 
 686:main.c        ****     main_counter = 0;
 2359              		.loc 1 686 0
 2360 04f4 714B     		ldr	r3, .L227+8
 2361 04f6 0022     		movs	r2, #0
 2362 04f8 1A70     		strb	r2, [r3]
 2363              	.L213:
 687:main.c        **** 
 688:main.c        **** 	for(;;)
 689:main.c        ****     {
 690:main.c        ****         
 691:main.c        ****         if (parseThatMF)
 2364              		.loc 1 691 0
 2365 04fa 744B     		ldr	r3, .L227+24
 2366 04fc 1B78     		ldrb	r3, [r3]
 2367 04fe DBB2     		uxtb	r3, r3
 2368 0500 002B     		cmp	r3, #0
 2369 0502 01D0     		beq	.L82
 692:main.c        ****         {
 693:main.c        ****             parseSysex();
 2370              		.loc 1 693 0
 2371 0504 FFF7FEFF 		bl	parseSysex
 2372              	.L82:
 694:main.c        ****         }
 695:main.c        ****         
 696:main.c        ****         //if (newDataFlag)
 697:main.c        ****         //{
 698:main.c        ****         //}
 699:main.c        ****             /*
 700:main.c        ****             for (int i = 0; i < 5; i++)
 701:main.c        ****             {
 702:main.c        ****                 I2C_1_MasterSendStart(0x70, 0); 
 703:main.c        ****                 I2C_1_MasterWriteByte(1<<i);
 704:main.c        ****                 I2C_1_MasterSendStop(); 
 705:main.c        **** 
 706:main.c        **** 
 707:main.c        ****                 I2C_1_MasterSendStart(0x36, 0); 
 708:main.c        ****                 I2C_1_MasterWriteByte(0x0C);
 709:main.c        ****                 //I2C_1_MasterSendStop();
 710:main.c        ****                 I2C_1_MasterSendRestart(0x36, 1); 
ARM GAS  C:\Users\JEFFSN~1\AppData\Local\Temp\ccEPDFmT.s 			page 56


 711:main.c        ****                 rawAngle = I2C_1_MasterReadByte(1) << 8;
 712:main.c        ****                 //I2C_1_MasterSendRestart(0x36, 1);
 713:main.c        ****                 rawAngle +=  I2C_1_MasterReadByte(0);
 714:main.c        ****                  I2C_1_MasterSendStop(); 
 715:main.c        ****                 
 716:main.c        ****                 CyDelay(1);
 717:main.c        **** 
 718:main.c        ****                 I2C_1_MasterSendStart(0x36, 0); 
 719:main.c        ****                 I2C_1_MasterWriteByte(0x01);
 720:main.c        ****                 I2C_1_MasterWriteByte(rawAngle >> 8);
 721:main.c        ****                 I2C_1_MasterWriteByte(rawAngle & 0xff);
 722:main.c        ****                 I2C_1_MasterWriteByte((rawAngle+500) >> 8);
 723:main.c        ****                 I2C_1_MasterWriteByte((rawAngle+500) & 0xff);
 724:main.c        ****                 I2C_1_MasterSendStop(); 
 725:main.c        ****                 
 726:main.c        ****                 CyDelay(2);
 727:main.c        **** 
 728:main.c        ****                 I2C_1_MasterSendStart(0x36, 0); 
 729:main.c        ****                 I2C_1_MasterWriteByte(0xff);
 730:main.c        ****                I2C_1_MasterWriteByte(0x80);
 731:main.c        ****                 I2C_1_MasterSendStop(); 
 732:main.c        ****                CyDelay(2);
 733:main.c        ****             }
 734:main.c        ****         */
 735:main.c        ****         //set main i2c mux
 736:main.c        ****     
 737:main.c        ****         
 738:main.c        ****         /*
 739:main.c        ****         for (int i = 0; i < 4; i++)
 740:main.c        ****         {
 741:main.c        ****             I2C_1_MasterSendStart(0x71, 0); 
 742:main.c        ****             I2C_1_MasterWriteByte(1<<(i+2));
 743:main.c        ****             I2C_1_MasterSendStop(); 
 744:main.c        **** 
 745:main.c        **** 
 746:main.c        ****             I2C_1_MasterSendStart(0x36, 0); 
 747:main.c        ****             I2C_1_MasterWriteByte(0x0C);
 748:main.c        ****             //I2C_1_MasterSendStop();
 749:main.c        ****             I2C_1_MasterSendRestart(0x36, 1); 
 750:main.c        ****             rawAngle = I2C_1_MasterReadByte(1) << 8;
 751:main.c        ****             //I2C_1_MasterSendRestart(0x36, 1);
 752:main.c        ****             rawAngle +=  I2C_1_MasterReadByte(0);
 753:main.c        ****              I2C_1_MasterSendStop(); 
 754:main.c        ****             
 755:main.c        ****             CyDelay(1);
 756:main.c        **** 
 757:main.c        ****             I2C_1_MasterSendStart(0x36, 0); 
 758:main.c        ****             I2C_1_MasterWriteByte(0x01);
 759:main.c        ****             I2C_1_MasterWriteByte(rawAngle >> 8);
 760:main.c        ****             I2C_1_MasterWriteByte(rawAngle & 0xff);
 761:main.c        ****             I2C_1_MasterWriteByte((rawAngle+700) >> 8);
 762:main.c        ****             I2C_1_MasterWriteByte((rawAngle+700) & 0xff);
 763:main.c        ****             I2C_1_MasterSendStop(); 
 764:main.c        ****             
 765:main.c        ****             CyDelay(2);
 766:main.c        **** 
 767:main.c        ****             I2C_1_MasterSendStart(0x36, 0); 
ARM GAS  C:\Users\JEFFSN~1\AppData\Local\Temp\ccEPDFmT.s 			page 57


 768:main.c        ****             I2C_1_MasterWriteByte(0xff);
 769:main.c        ****             I2C_1_MasterWriteByte(0x80);
 770:main.c        ****             I2C_1_MasterSendStop(); 
 771:main.c        ****            CyDelay(2);
 772:main.c        ****         }
 773:main.c        ****             */
 774:main.c        ****         /*    
 775:main.c        ****         if (main_counter == 6)
 776:main.c        ****         {
 777:main.c        ****             main_counter = 8;
 778:main.c        ****         }
 779:main.c        ****         */    
 780:main.c        ****         testpin3_Write(1);
 2373              		.loc 1 780 0
 2374 0508 0120     		movs	r0, #1
 2375 050a FFF7FEFF 		bl	testpin3_Write
 781:main.c        ****        //sense levers and pedals
 782:main.c        ****         if (mux_states[main_counter][0] != last_mux)
 2376              		.loc 1 782 0
 2377 050e 6B4B     		ldr	r3, .L227+8
 2378 0510 1B78     		ldrb	r3, [r3]
 2379 0512 DBB2     		uxtb	r3, r3
 2380 0514 1A46     		mov	r2, r3
 2381 0516 6E4B     		ldr	r3, .L227+28
 2382 0518 13F81220 		ldrb	r2, [r3, r2, lsl #1]	@ zero_extendqisi2
 2383 051c 6D4B     		ldr	r3, .L227+32
 2384 051e 1B78     		ldrb	r3, [r3]	@ zero_extendqisi2
 2385 0520 9A42     		cmp	r2, r3
 2386 0522 14D0     		beq	.L83
 2387              	.LBB17:
 783:main.c        ****         {
 784:main.c        ****             I2Cbuff1[0] = 1<<mux_states[main_counter][0];
 2388              		.loc 1 784 0
 2389 0524 654B     		ldr	r3, .L227+8
 2390 0526 1B78     		ldrb	r3, [r3]
 2391 0528 DBB2     		uxtb	r3, r3
 2392 052a 1A46     		mov	r2, r3
 2393 052c 684B     		ldr	r3, .L227+28
 2394 052e 13F81230 		ldrb	r3, [r3, r2, lsl #1]	@ zero_extendqisi2
 2395 0532 1A46     		mov	r2, r3
 2396 0534 0123     		movs	r3, #1
 2397 0536 9340     		lsls	r3, r3, r2
 2398 0538 DAB2     		uxtb	r2, r3
 2399 053a 5E4B     		ldr	r3, .L227
 2400 053c 1A70     		strb	r2, [r3]
 785:main.c        ****             uint8_t status = I2C_MasterWriteBlocking(0x70, 1, I2C_1_MODE_COMPLETE_XFER);
 2401              		.loc 1 785 0
 2402 053e 0022     		movs	r2, #0
 2403 0540 0121     		movs	r1, #1
 2404 0542 7020     		movs	r0, #112
 2405 0544 FFF7FEFF 		bl	I2C_MasterWriteBlocking
 2406 0548 0346     		mov	r3, r0
 2407 054a 87F82B30 		strb	r3, [r7, #43]
 2408              	.L83:
 2409              	.LBE17:
 786:main.c        ****         }
 787:main.c        ****         last_mux = mux_states[main_counter][0];
ARM GAS  C:\Users\JEFFSN~1\AppData\Local\Temp\ccEPDFmT.s 			page 58


 2410              		.loc 1 787 0
 2411 054e 5B4B     		ldr	r3, .L227+8
 2412 0550 1B78     		ldrb	r3, [r3]
 2413 0552 DBB2     		uxtb	r3, r3
 2414 0554 1A46     		mov	r2, r3
 2415 0556 5E4B     		ldr	r3, .L227+28
 2416 0558 13F81220 		ldrb	r2, [r3, r2, lsl #1]	@ zero_extendqisi2
 2417 055c 5D4B     		ldr	r3, .L227+32
 2418 055e 1A70     		strb	r2, [r3]
 788:main.c        ****         
 789:main.c        ****         
 790:main.c        ****         CyDelayUs(10);
 2419              		.loc 1 790 0
 2420 0560 0A20     		movs	r0, #10
 2421 0562 FFF7FEFF 		bl	CyDelayUs
 791:main.c        ****         if (mux_states[main_counter][0] == 5)
 2422              		.loc 1 791 0
 2423 0566 554B     		ldr	r3, .L227+8
 2424 0568 1B78     		ldrb	r3, [r3]
 2425 056a DBB2     		uxtb	r3, r3
 2426 056c 1A46     		mov	r2, r3
 2427 056e 584B     		ldr	r3, .L227+28
 2428 0570 13F81230 		ldrb	r3, [r3, r2, lsl #1]	@ zero_extendqisi2
 2429 0574 052B     		cmp	r3, #5
 2430 0576 1DD1     		bne	.L84
 792:main.c        ****         {
 793:main.c        ****             if (!i2c_skipped[main_counter])
 2431              		.loc 1 793 0
 2432 0578 504B     		ldr	r3, .L227+8
 2433 057a 1B78     		ldrb	r3, [r3]
 2434 057c DBB2     		uxtb	r3, r3
 2435 057e 1A46     		mov	r2, r3
 2436 0580 554B     		ldr	r3, .L227+36
 2437 0582 9B5C     		ldrb	r3, [r3, r2]	@ zero_extendqisi2
 2438 0584 002B     		cmp	r3, #0
 2439 0586 15D1     		bne	.L84
 794:main.c        ****             {
 795:main.c        ****                 I2Cbuff1[0] = 1<<mux_states[main_counter][1];
 2440              		.loc 1 795 0
 2441 0588 4C4B     		ldr	r3, .L227+8
 2442 058a 1B78     		ldrb	r3, [r3]
 2443 058c DBB2     		uxtb	r3, r3
 2444 058e 504A     		ldr	r2, .L227+28
 2445 0590 5B00     		lsls	r3, r3, #1
 2446 0592 1344     		add	r3, r3, r2
 2447 0594 5B78     		ldrb	r3, [r3, #1]	@ zero_extendqisi2
 2448 0596 1A46     		mov	r2, r3
 2449 0598 0123     		movs	r3, #1
 2450 059a 9340     		lsls	r3, r3, r2
 2451 059c DAB2     		uxtb	r2, r3
 2452 059e 454B     		ldr	r3, .L227
 2453 05a0 1A70     		strb	r2, [r3]
 796:main.c        ****                 status = I2C_MasterWriteBlocking(0x71, 1, I2C_1_MODE_COMPLETE_XFER);
 2454              		.loc 1 796 0
 2455 05a2 0022     		movs	r2, #0
 2456 05a4 0121     		movs	r1, #1
 2457 05a6 7120     		movs	r0, #113
ARM GAS  C:\Users\JEFFSN~1\AppData\Local\Temp\ccEPDFmT.s 			page 59


 2458 05a8 FFF7FEFF 		bl	I2C_MasterWriteBlocking
 2459 05ac 0346     		mov	r3, r0
 2460 05ae 1A46     		mov	r2, r3
 2461 05b0 414B     		ldr	r3, .L227+4
 2462 05b2 1A60     		str	r2, [r3]
 2463              	.L84:
 797:main.c        ****             }
 798:main.c        ****         }
 799:main.c        **** 
 800:main.c        ****         CyDelayUs(10);
 2464              		.loc 1 800 0
 2465 05b4 0A20     		movs	r0, #10
 2466 05b6 FFF7FEFF 		bl	CyDelayUs
 801:main.c        ****         //if it's a hall sensor
 802:main.c        **** 
 803:main.c        ****         //temporarily don't scan vertical knee lever, should be <10 normally
 804:main.c        ****         if (main_counter < 10)
 2467              		.loc 1 804 0
 2468 05ba 404B     		ldr	r3, .L227+8
 2469 05bc 1B78     		ldrb	r3, [r3]
 2470 05be DBB2     		uxtb	r3, r3
 2471 05c0 092B     		cmp	r3, #9
 2472 05c2 00F2BF80 		bhi	.L85
 805:main.c        ****         {
 806:main.c        ****             if (!i2c_skipped[main_counter])
 2473              		.loc 1 806 0
 2474 05c6 3D4B     		ldr	r3, .L227+8
 2475 05c8 1B78     		ldrb	r3, [r3]
 2476 05ca DBB2     		uxtb	r3, r3
 2477 05cc 1A46     		mov	r2, r3
 2478 05ce 424B     		ldr	r3, .L227+36
 2479 05d0 9B5C     		ldrb	r3, [r3, r2]	@ zero_extendqisi2
 2480 05d2 002B     		cmp	r3, #0
 2481 05d4 40F0B680 		bne	.L85
 807:main.c        ****             {
 808:main.c        ****                 //CyDelayUs(100);
 809:main.c        ****                 I2Cbuff1[0] = 0x0E;
 2482              		.loc 1 809 0
 2483 05d8 364B     		ldr	r3, .L227
 2484 05da 0E22     		movs	r2, #14
 2485 05dc 1A70     		strb	r2, [r3]
 810:main.c        ****                 status = I2C_MasterWriteBlocking(0x36, 1, I2C_1_MODE_NO_STOP);
 2486              		.loc 1 810 0
 2487 05de 0222     		movs	r2, #2
 2488 05e0 0121     		movs	r1, #1
 2489 05e2 3620     		movs	r0, #54
 2490 05e4 FFF7FEFF 		bl	I2C_MasterWriteBlocking
 2491 05e8 0346     		mov	r3, r0
 2492 05ea 1A46     		mov	r2, r3
 2493 05ec 324B     		ldr	r3, .L227+4
 2494 05ee 1A60     		str	r2, [r3]
 811:main.c        ****                 if (status == 0)
 2495              		.loc 1 811 0
 2496 05f0 314B     		ldr	r3, .L227+4
 2497 05f2 1B68     		ldr	r3, [r3]
 2498 05f4 002B     		cmp	r3, #0
 2499 05f6 08D1     		bne	.L86
ARM GAS  C:\Users\JEFFSN~1\AppData\Local\Temp\ccEPDFmT.s 			page 60


 812:main.c        ****                 {
 813:main.c        ****                     status = I2C_MasterReadBlocking(0x36, 2, I2C_1_MODE_REPEAT_START);
 2500              		.loc 1 813 0
 2501 05f8 0122     		movs	r2, #1
 2502 05fa 0221     		movs	r1, #2
 2503 05fc 3620     		movs	r0, #54
 2504 05fe FFF7FEFF 		bl	I2C_MasterReadBlocking
 2505 0602 0346     		mov	r3, r0
 2506 0604 1A46     		mov	r2, r3
 2507 0606 2C4B     		ldr	r3, .L227+4
 2508 0608 1A60     		str	r2, [r3]
 2509              	.L86:
 814:main.c        ****                 }
 815:main.c        ****                 if (status  == 0)
 2510              		.loc 1 815 0
 2511 060a 2B4B     		ldr	r3, .L227+4
 2512 060c 1B68     		ldr	r3, [r3]
 2513 060e 002B     		cmp	r3, #0
 2514 0610 40F09880 		bne	.L85
 816:main.c        ****                 {
 817:main.c        ****                     //CyDelayUs(100);
 818:main.c        ****                     angle[main_counter] = I2Cbuff2[0] << 8;
 2515              		.loc 1 818 0
 2516 0614 294B     		ldr	r3, .L227+8
 2517 0616 1B78     		ldrb	r3, [r3]
 2518 0618 DBB2     		uxtb	r3, r3
 2519 061a 1A46     		mov	r2, r3
 2520 061c 2F4B     		ldr	r3, .L227+40
 2521 061e 1B78     		ldrb	r3, [r3]
 2522 0620 DBB2     		uxtb	r3, r3
 2523 0622 9BB2     		uxth	r3, r3
 2524 0624 1B02     		lsls	r3, r3, #8
 2525 0626 99B2     		uxth	r1, r3
 2526 0628 2D4B     		ldr	r3, .L227+44
 2527 062a 23F81210 		strh	r1, [r3, r2, lsl #1]	@ movhi
 819:main.c        ****                     angle[main_counter] +=  I2Cbuff2[1];
 2528              		.loc 1 819 0
 2529 062e 2B4B     		ldr	r3, .L227+40
 2530 0630 5B78     		ldrb	r3, [r3, #1]
 2531 0632 D8B2     		uxtb	r0, r3
 2532 0634 214B     		ldr	r3, .L227+8
 2533 0636 1B78     		ldrb	r3, [r3]
 2534 0638 DBB2     		uxtb	r3, r3
 2535 063a 1946     		mov	r1, r3
 2536 063c 1A46     		mov	r2, r3
 2537 063e 284B     		ldr	r3, .L227+44
 2538 0640 33F81220 		ldrh	r2, [r3, r2, lsl #1]
 2539 0644 83B2     		uxth	r3, r0
 2540 0646 1344     		add	r3, r3, r2
 2541 0648 9AB2     		uxth	r2, r3
 2542 064a 254B     		ldr	r3, .L227+44
 2543 064c 23F81120 		strh	r2, [r3, r1, lsl #1]	@ movhi
 820:main.c        ****                     
 821:main.c        ****                     if (calibrationMode)
 2544              		.loc 1 821 0
 2545 0650 244B     		ldr	r3, .L227+48
 2546 0652 1B68     		ldr	r3, [r3]
ARM GAS  C:\Users\JEFFSN~1\AppData\Local\Temp\ccEPDFmT.s 			page 61


 2547 0654 002B     		cmp	r3, #0
 2548 0656 75D0     		beq	.L85
 822:main.c        ****                     {
 823:main.c        ****                         if (angle[main_counter] < pedals_low[main_counter])
 2549              		.loc 1 823 0
 2550 0658 184B     		ldr	r3, .L227+8
 2551 065a 1B78     		ldrb	r3, [r3]
 2552 065c DBB2     		uxtb	r3, r3
 2553 065e 1A46     		mov	r2, r3
 2554 0660 1F4B     		ldr	r3, .L227+44
 2555 0662 33F81220 		ldrh	r2, [r3, r2, lsl #1]
 2556 0666 154B     		ldr	r3, .L227+8
 2557 0668 1B78     		ldrb	r3, [r3]
 2558 066a DBB2     		uxtb	r3, r3
 2559 066c 1946     		mov	r1, r3
 2560 066e 1E4B     		ldr	r3, .L227+52
 2561 0670 33F81130 		ldrh	r3, [r3, r1, lsl #1]
 2562 0674 9A42     		cmp	r2, r3
 2563 0676 47D2     		bcs	.L87
 824:main.c        ****                         {
 825:main.c        ****                             if (main_counter == 0)
 2564              		.loc 1 825 0
 2565 0678 104B     		ldr	r3, .L227+8
 2566 067a 1B78     		ldrb	r3, [r3]
 2567 067c DBB2     		uxtb	r3, r3
 2568 067e 002B     		cmp	r3, #0
 2569 0680 34D1     		bne	.L88
 826:main.c        ****                             {
 827:main.c        ****                                 if (angle[main_counter] != 0)
 2570              		.loc 1 827 0
 2571 0682 0E4B     		ldr	r3, .L227+8
 2572 0684 1B78     		ldrb	r3, [r3]
 2573 0686 DBB2     		uxtb	r3, r3
 2574 0688 1A46     		mov	r2, r3
 2575 068a 154B     		ldr	r3, .L227+44
 2576 068c 33F81230 		ldrh	r3, [r3, r2, lsl #1]
 2577 0690 002B     		cmp	r3, #0
 2578 0692 39D0     		beq	.L87
 828:main.c        ****                                 {
 829:main.c        ****                                      pedals_low[main_counter] = angle[main_counter];
 2579              		.loc 1 829 0
 2580 0694 094B     		ldr	r3, .L227+8
 2581 0696 1B78     		ldrb	r3, [r3]
 2582 0698 DBB2     		uxtb	r3, r3
 2583 069a 1A46     		mov	r2, r3
 2584 069c 074B     		ldr	r3, .L227+8
 2585 069e 1B78     		ldrb	r3, [r3]
 2586 06a0 DBB2     		uxtb	r3, r3
 2587 06a2 1946     		mov	r1, r3
 2588 06a4 0E4B     		ldr	r3, .L227+44
 2589 06a6 33F81110 		ldrh	r1, [r3, r1, lsl #1]
 2590 06aa 0F4B     		ldr	r3, .L227+52
 2591 06ac 23F81210 		strh	r1, [r3, r2, lsl #1]	@ movhi
 2592 06b0 2AE0     		b	.L87
 2593              	.L228:
 2594 06b2 00BF     		.align	2
 2595              	.L227:
ARM GAS  C:\Users\JEFFSN~1\AppData\Local\Temp\ccEPDFmT.s 			page 62


 2596 06b4 00000000 		.word	I2Cbuff1
 2597 06b8 00000000 		.word	status
 2598 06bc 00000000 		.word	main_counter
 2599 06c0 00000000 		.word	spis_1_ss
 2600 06c4 00000000 		.word	spis_2_ss
 2601 06c8 00000000 		.word	myArray
 2602 06cc 00000000 		.word	parseThatMF
 2603 06d0 00000000 		.word	mux_states
 2604 06d4 00000000 		.word	last_mux
 2605 06d8 00000000 		.word	i2c_skipped
 2606 06dc 00000000 		.word	I2Cbuff2
 2607 06e0 00000000 		.word	angle
 2608 06e4 00000000 		.word	calibrationMode
 2609 06e8 00000000 		.word	pedals_low
 2610              	.L88:
 830:main.c        ****                                 }
 831:main.c        ****                             }
 832:main.c        ****                             else
 833:main.c        ****                             {
 834:main.c        ****                                 pedals_low[main_counter] = angle[main_counter];
 2611              		.loc 1 834 0
 2612 06ec 9B4B     		ldr	r3, .L229
 2613 06ee 1B78     		ldrb	r3, [r3]
 2614 06f0 DBB2     		uxtb	r3, r3
 2615 06f2 1A46     		mov	r2, r3
 2616 06f4 994B     		ldr	r3, .L229
 2617 06f6 1B78     		ldrb	r3, [r3]
 2618 06f8 DBB2     		uxtb	r3, r3
 2619 06fa 1946     		mov	r1, r3
 2620 06fc 984B     		ldr	r3, .L229+4
 2621 06fe 33F81110 		ldrh	r1, [r3, r1, lsl #1]
 2622 0702 984B     		ldr	r3, .L229+8
 2623 0704 23F81210 		strh	r1, [r3, r2, lsl #1]	@ movhi
 2624              	.L87:
 835:main.c        ****                             }
 836:main.c        ****                             
 837:main.c        ****                         }
 838:main.c        ****                         if (angle[main_counter] > pedals_high[main_counter])
 2625              		.loc 1 838 0
 2626 0708 944B     		ldr	r3, .L229
 2627 070a 1B78     		ldrb	r3, [r3]
 2628 070c DBB2     		uxtb	r3, r3
 2629 070e 1A46     		mov	r2, r3
 2630 0710 934B     		ldr	r3, .L229+4
 2631 0712 33F81220 		ldrh	r2, [r3, r2, lsl #1]
 2632 0716 914B     		ldr	r3, .L229
 2633 0718 1B78     		ldrb	r3, [r3]
 2634 071a DBB2     		uxtb	r3, r3
 2635 071c 1946     		mov	r1, r3
 2636 071e 924B     		ldr	r3, .L229+12
 2637 0720 33F81130 		ldrh	r3, [r3, r1, lsl #1]
 2638 0724 9A42     		cmp	r2, r3
 2639 0726 0DD9     		bls	.L85
 839:main.c        ****                         {
 840:main.c        ****                              pedals_high[main_counter] = angle[main_counter];
 2640              		.loc 1 840 0
 2641 0728 8C4B     		ldr	r3, .L229
ARM GAS  C:\Users\JEFFSN~1\AppData\Local\Temp\ccEPDFmT.s 			page 63


 2642 072a 1B78     		ldrb	r3, [r3]
 2643 072c DBB2     		uxtb	r3, r3
 2644 072e 1A46     		mov	r2, r3
 2645 0730 8A4B     		ldr	r3, .L229
 2646 0732 1B78     		ldrb	r3, [r3]
 2647 0734 DBB2     		uxtb	r3, r3
 2648 0736 1946     		mov	r1, r3
 2649 0738 894B     		ldr	r3, .L229+4
 2650 073a 33F81110 		ldrh	r1, [r3, r1, lsl #1]
 2651 073e 8A4B     		ldr	r3, .L229+12
 2652 0740 23F81210 		strh	r1, [r3, r2, lsl #1]	@ movhi
 2653              	.L85:
 841:main.c        ****                         }
 842:main.c        ****                     }
 843:main.c        ****                 }
 844:main.c        ****             }
 845:main.c        ****         }
 846:main.c        ****         
 847:main.c        ****         //in addition to the hall sensor on {2,0} (the vertical knee lever) of the muxes, there is 
 848:main.c        ****         if (main_counter == 9)
 2654              		.loc 1 848 0
 2655 0744 854B     		ldr	r3, .L229
 2656 0746 1B78     		ldrb	r3, [r3]
 2657 0748 DBB2     		uxtb	r3, r3
 2658 074a 092B     		cmp	r3, #9
 2659 074c 40F08780 		bne	.L90
 849:main.c        ****         {
 850:main.c        ****             if (!i2c_skipped[main_counter])
 2660              		.loc 1 850 0
 2661 0750 824B     		ldr	r3, .L229
 2662 0752 1B78     		ldrb	r3, [r3]
 2663 0754 DBB2     		uxtb	r3, r3
 2664 0756 1A46     		mov	r2, r3
 2665 0758 844B     		ldr	r3, .L229+16
 2666 075a 9B5C     		ldrb	r3, [r3, r2]	@ zero_extendqisi2
 2667 075c 002B     		cmp	r3, #0
 2668 075e 40F0C580 		bne	.L94
 851:main.c        ****             {
 852:main.c        ****                 //scan the knob adc
 853:main.c        ****                 I2Cbuff1[0] = 0x0;      
 2669              		.loc 1 853 0
 2670 0762 834B     		ldr	r3, .L229+20
 2671 0764 0022     		movs	r2, #0
 2672 0766 1A70     		strb	r2, [r3]
 854:main.c        ****                 status = I2C_MasterReadBlocking(0x35, 16, I2C_1_MODE_COMPLETE_XFER);
 2673              		.loc 1 854 0
 2674 0768 0022     		movs	r2, #0
 2675 076a 1021     		movs	r1, #16
 2676 076c 3520     		movs	r0, #53
 2677 076e FFF7FEFF 		bl	I2C_MasterReadBlocking
 2678 0772 0346     		mov	r3, r0
 2679 0774 1A46     		mov	r2, r3
 2680 0776 7F4B     		ldr	r3, .L229+24
 2681 0778 1A60     		str	r2, [r3]
 855:main.c        ****                 if (status == 0)
 2682              		.loc 1 855 0
 2683 077a 7E4B     		ldr	r3, .L229+24
ARM GAS  C:\Users\JEFFSN~1\AppData\Local\Temp\ccEPDFmT.s 			page 64


 2684 077c 1B68     		ldr	r3, [r3]
 2685 077e 002B     		cmp	r3, #0
 2686 0780 40F0B480 		bne	.L94
 2687              	.LBB18:
 856:main.c        ****                 {
 857:main.c        ****                     for (int i = 0; i < NUM_MACROS; i++)
 2688              		.loc 1 857 0
 2689 0784 0023     		movs	r3, #0
 2690 0786 7B67     		str	r3, [r7, #116]
 2691 0788 20E0     		b	.L92
 2692              	.L93:
 2693              	.LBB19:
 858:main.c        ****                     {
 859:main.c        ****                        uint16_t tempInt =((I2Cbuff2[i*2] << 8) + (I2Cbuff2[i*2] & 255)) & 4095; // 
 2694              		.loc 1 859 0 discriminator 3
 2695 078a 7B6F     		ldr	r3, [r7, #116]
 2696 078c 5B00     		lsls	r3, r3, #1
 2697 078e 7A4A     		ldr	r2, .L229+28
 2698 0790 D35C     		ldrb	r3, [r2, r3]
 2699 0792 DBB2     		uxtb	r3, r3
 2700 0794 9BB2     		uxth	r3, r3
 2701 0796 1B02     		lsls	r3, r3, #8
 2702 0798 9AB2     		uxth	r2, r3
 2703 079a 7B6F     		ldr	r3, [r7, #116]
 2704 079c 5B00     		lsls	r3, r3, #1
 2705 079e 7649     		ldr	r1, .L229+28
 2706 07a0 CB5C     		ldrb	r3, [r1, r3]
 2707 07a2 DBB2     		uxtb	r3, r3
 2708 07a4 9BB2     		uxth	r3, r3
 2709 07a6 1344     		add	r3, r3, r2
 2710 07a8 9BB2     		uxth	r3, r3
 2711 07aa C3F30B03 		ubfx	r3, r3, #0, #12
 2712 07ae 3B80     		strh	r3, [r7]	@ movhi
 860:main.c        ****                         macroKnobValues[i] = 255 - (tempInt >> 4); //now squish it down to 8 bit fo
 2713              		.loc 1 860 0 discriminator 3
 2714 07b0 3B88     		ldrh	r3, [r7]
 2715 07b2 1B09     		lsrs	r3, r3, #4
 2716 07b4 9BB2     		uxth	r3, r3
 2717 07b6 DBB2     		uxtb	r3, r3
 2718 07b8 DB43     		mvns	r3, r3
 2719 07ba D9B2     		uxtb	r1, r3
 2720 07bc 6F4A     		ldr	r2, .L229+32
 2721 07be 7B6F     		ldr	r3, [r7, #116]
 2722 07c0 1344     		add	r3, r3, r2
 2723 07c2 0A46     		mov	r2, r1
 2724 07c4 1A70     		strb	r2, [r3]
 2725              	.LBE19:
 857:main.c        ****                     {
 2726              		.loc 1 857 0 discriminator 3
 2727 07c6 7B6F     		ldr	r3, [r7, #116]
 2728 07c8 0133     		adds	r3, r3, #1
 2729 07ca 7B67     		str	r3, [r7, #116]
 2730              	.L92:
 857:main.c        ****                     {
 2731              		.loc 1 857 0 is_stmt 0 discriminator 1
 2732 07cc 7B6F     		ldr	r3, [r7, #116]
 2733 07ce 072B     		cmp	r3, #7
ARM GAS  C:\Users\JEFFSN~1\AppData\Local\Temp\ccEPDFmT.s 			page 65


 2734 07d0 DBDD     		ble	.L93
 2735              	.LBE18:
 861:main.c        ****                     }
 862:main.c        ****                     //
 863:main.c        ****                     if (macroOLEDWaitingToSend == 2)
 2736              		.loc 1 863 0 is_stmt 1
 2737 07d2 6B4B     		ldr	r3, .L229+36
 2738 07d4 1B68     		ldr	r3, [r3]
 2739 07d6 022B     		cmp	r3, #2
 2740 07d8 40F08880 		bne	.L94
 864:main.c        ****                     {
 865:main.c        ****                         //send the data to the little macro OLED screens
 866:main.c        ****                         
 867:main.c        ****                         I2Cbuff1[0] = (1 << 3) + whichMacro;
 2741              		.loc 1 867 0
 2742 07dc 694B     		ldr	r3, .L229+40
 2743 07de 1B78     		ldrb	r3, [r3]	@ zero_extendqisi2
 2744 07e0 0833     		adds	r3, r3, #8
 2745 07e2 DAB2     		uxtb	r2, r3
 2746 07e4 624B     		ldr	r3, .L229+20
 2747 07e6 1A70     		strb	r2, [r3]
 868:main.c        ****                         status = I2C_MasterWriteBlocking(0x72, 1, I2C_1_MODE_COMPLETE_XFER); 
 2748              		.loc 1 868 0
 2749 07e8 0022     		movs	r2, #0
 2750 07ea 0121     		movs	r1, #1
 2751 07ec 7220     		movs	r0, #114
 2752 07ee FFF7FEFF 		bl	I2C_MasterWriteBlocking
 2753 07f2 0346     		mov	r3, r0
 2754 07f4 1A46     		mov	r2, r3
 2755 07f6 5F4B     		ldr	r3, .L229+24
 2756 07f8 1A60     		str	r2, [r3]
 869:main.c        ****                         //OLED_init(128, 32);
 870:main.c        ****                         OLEDclear(128, 32);
 2757              		.loc 1 870 0
 2758 07fa 2021     		movs	r1, #32
 2759 07fc 8020     		movs	r0, #128
 2760 07fe FFF7FEFF 		bl	OLEDclear
 871:main.c        ****                         //OLEDwriteInt(w , 1, 0,FirstLine);
 872:main.c        ****                         //OLEDwriteString(" ", 1, OLEDgetCursor(), FourthLine);
 873:main.c        ****                         myGFX_setFont(1);
 2761              		.loc 1 873 0
 2762 0802 0120     		movs	r0, #1
 2763 0804 FFF7FEFF 		bl	myGFX_setFont
 874:main.c        ****                         //GFXsetFont(&theGFX,  &SourceCodePro_Regular14pt7b);
 875:main.c        ****                         OLEDwriteString((char *)&macroNamesArray[patchNum][whichMacro][0], MACRO_CL
 2764              		.loc 1 875 0
 2765 0808 5F4B     		ldr	r3, .L229+44
 2766 080a 1B78     		ldrb	r3, [r3]	@ zero_extendqisi2
 2767 080c 1946     		mov	r1, r3
 2768 080e 5D4B     		ldr	r3, .L229+40
 2769 0810 1B78     		ldrb	r3, [r3]	@ zero_extendqisi2
 2770 0812 1A46     		mov	r2, r3
 2771 0814 D200     		lsls	r2, r2, #3
 2772 0816 D21A     		subs	r2, r2, r3
 2773 0818 5300     		lsls	r3, r2, #1
 2774 081a 1A46     		mov	r2, r3
 2775 081c 0B46     		mov	r3, r1
ARM GAS  C:\Users\JEFFSN~1\AppData\Local\Temp\ccEPDFmT.s 			page 66


 2776 081e DB00     		lsls	r3, r3, #3
 2777 0820 5B1A     		subs	r3, r3, r1
 2778 0822 1B01     		lsls	r3, r3, #4
 2779 0824 1344     		add	r3, r3, r2
 2780 0826 594A     		ldr	r2, .L229+48
 2781 0828 9818     		adds	r0, r3, r2
 2782 082a 0123     		movs	r3, #1
 2783 082c 0022     		movs	r2, #0
 2784 082e 0821     		movs	r1, #8
 2785 0830 FFF7FEFF 		bl	OLEDwriteString
 876:main.c        ****                         OLED_draw(128, 32);
 2786              		.loc 1 876 0
 2787 0834 2021     		movs	r1, #32
 2788 0836 8020     		movs	r0, #128
 2789 0838 FFF7FEFF 		bl	OLED_draw
 877:main.c        **** 
 878:main.c        ****                         whichMacro++;
 2790              		.loc 1 878 0
 2791 083c 514B     		ldr	r3, .L229+40
 2792 083e 1B78     		ldrb	r3, [r3]	@ zero_extendqisi2
 2793 0840 0133     		adds	r3, r3, #1
 2794 0842 DAB2     		uxtb	r2, r3
 2795 0844 4F4B     		ldr	r3, .L229+40
 2796 0846 1A70     		strb	r2, [r3]
 879:main.c        ****                         if (whichMacro >=8)
 2797              		.loc 1 879 0
 2798 0848 4E4B     		ldr	r3, .L229+40
 2799 084a 1B78     		ldrb	r3, [r3]	@ zero_extendqisi2
 2800 084c 072B     		cmp	r3, #7
 2801 084e 4DD9     		bls	.L94
 880:main.c        ****                         {
 881:main.c        ****                             macroOLEDWaitingToSend = 0;
 2802              		.loc 1 881 0
 2803 0850 4B4B     		ldr	r3, .L229+36
 2804 0852 0022     		movs	r2, #0
 2805 0854 1A60     		str	r2, [r3]
 882:main.c        ****                             whichMacro = 0;
 2806              		.loc 1 882 0
 2807 0856 4B4B     		ldr	r3, .L229+40
 2808 0858 0022     		movs	r2, #0
 2809 085a 1A70     		strb	r2, [r3]
 2810 085c 46E0     		b	.L94
 2811              	.L90:
 883:main.c        ****                         }
 884:main.c        ****                     }
 885:main.c        ****                 }
 886:main.c        ****             }
 887:main.c        ****             
 888:main.c        ****         }
 889:main.c        ****         //otherwise it's the ADC for the foot pedal
 890:main.c        ****         else if (main_counter == 10)
 2812              		.loc 1 890 0
 2813 085e 3F4B     		ldr	r3, .L229
 2814 0860 1B78     		ldrb	r3, [r3]
 2815 0862 DBB2     		uxtb	r3, r3
 2816 0864 0A2B     		cmp	r3, #10
 2817 0866 2AD1     		bne	.L95
ARM GAS  C:\Users\JEFFSN~1\AppData\Local\Temp\ccEPDFmT.s 			page 67


 891:main.c        ****         {
 892:main.c        ****             //0x4f (0x4D?) is the 7=-bit version of the MCP3221 address, might need to be shifted o
 893:main.c        ****             if (!i2c_skipped[main_counter])
 2818              		.loc 1 893 0
 2819 0868 3C4B     		ldr	r3, .L229
 2820 086a 1B78     		ldrb	r3, [r3]
 2821 086c DBB2     		uxtb	r3, r3
 2822 086e 1A46     		mov	r2, r3
 2823 0870 3E4B     		ldr	r3, .L229+16
 2824 0872 9B5C     		ldrb	r3, [r3, r2]	@ zero_extendqisi2
 2825 0874 002B     		cmp	r3, #0
 2826 0876 39D1     		bne	.L94
 894:main.c        ****             {
 895:main.c        ****                 I2Cbuff1[0] = 0x0;      
 2827              		.loc 1 895 0
 2828 0878 3D4B     		ldr	r3, .L229+20
 2829 087a 0022     		movs	r2, #0
 2830 087c 1A70     		strb	r2, [r3]
 896:main.c        ****                 status = I2C_MasterReadBlocking(0x4f, 2, I2C_1_MODE_COMPLETE_XFER);
 2831              		.loc 1 896 0
 2832 087e 0022     		movs	r2, #0
 2833 0880 0221     		movs	r1, #2
 2834 0882 4F20     		movs	r0, #79
 2835 0884 FFF7FEFF 		bl	I2C_MasterReadBlocking
 2836 0888 0346     		mov	r3, r0
 2837 088a 1A46     		mov	r2, r3
 2838 088c 394B     		ldr	r3, .L229+24
 2839 088e 1A60     		str	r2, [r3]
 897:main.c        ****                 if (status == 0)
 2840              		.loc 1 897 0
 2841 0890 384B     		ldr	r3, .L229+24
 2842 0892 1B68     		ldr	r3, [r3]
 2843 0894 002B     		cmp	r3, #0
 2844 0896 29D1     		bne	.L94
 898:main.c        ****                 {
 899:main.c        ****                     volumePedal = I2Cbuff2[0] << 8;
 2845              		.loc 1 899 0
 2846 0898 374B     		ldr	r3, .L229+28
 2847 089a 1B78     		ldrb	r3, [r3]
 2848 089c DBB2     		uxtb	r3, r3
 2849 089e 9BB2     		uxth	r3, r3
 2850 08a0 1B02     		lsls	r3, r3, #8
 2851 08a2 9AB2     		uxth	r2, r3
 2852 08a4 3A4B     		ldr	r3, .L229+52
 2853 08a6 1A80     		strh	r2, [r3]	@ movhi
 900:main.c        ****                     volumePedal +=  I2Cbuff2[1];
 2854              		.loc 1 900 0
 2855 08a8 334B     		ldr	r3, .L229+28
 2856 08aa 5B78     		ldrb	r3, [r3, #1]
 2857 08ac DBB2     		uxtb	r3, r3
 2858 08ae 9AB2     		uxth	r2, r3
 2859 08b0 374B     		ldr	r3, .L229+52
 2860 08b2 1B88     		ldrh	r3, [r3]
 2861 08b4 1344     		add	r3, r3, r2
 2862 08b6 9AB2     		uxth	r2, r3
 2863 08b8 354B     		ldr	r3, .L229+52
 2864 08ba 1A80     		strh	r2, [r3]	@ movhi
ARM GAS  C:\Users\JEFFSN~1\AppData\Local\Temp\ccEPDFmT.s 			page 68


 2865 08bc 16E0     		b	.L94
 2866              	.L95:
 901:main.c        ****                 }
 902:main.c        ****             }
 903:main.c        ****         }
 904:main.c        ****         else
 905:main.c        ****         if (main_counter == 11)
 2867              		.loc 1 905 0
 2868 08be 274B     		ldr	r3, .L229
 2869 08c0 1B78     		ldrb	r3, [r3]
 2870 08c2 DBB2     		uxtb	r3, r3
 2871 08c4 0B2B     		cmp	r3, #11
 2872 08c6 11D1     		bne	.L94
 906:main.c        ****         { 
 907:main.c        ****             if (mainOLEDWaitingToSend)
 2873              		.loc 1 907 0
 2874 08c8 324B     		ldr	r3, .L229+56
 2875 08ca 1B68     		ldr	r3, [r3]
 2876 08cc 002B     		cmp	r3, #0
 2877 08ce 06D0     		beq	.L97
 908:main.c        ****             {
 909:main.c        ****                 OLED_draw(128, 64);
 2878              		.loc 1 909 0
 2879 08d0 4021     		movs	r1, #64
 2880 08d2 8020     		movs	r0, #128
 2881 08d4 FFF7FEFF 		bl	OLED_draw
 910:main.c        ****                 mainOLEDWaitingToSend = 0;
 2882              		.loc 1 910 0
 2883 08d8 2E4B     		ldr	r3, .L229+56
 2884 08da 0022     		movs	r2, #0
 2885 08dc 1A60     		str	r2, [r3]
 2886              	.L97:
 911:main.c        ****             }
 912:main.c        ****             if (macroOLEDWaitingToSend == 1)
 2887              		.loc 1 912 0
 2888 08de 284B     		ldr	r3, .L229+36
 2889 08e0 1B68     		ldr	r3, [r3]
 2890 08e2 012B     		cmp	r3, #1
 2891 08e4 02D1     		bne	.L94
 913:main.c        ****             {
 914:main.c        ****                 macroOLEDWaitingToSend = 2;
 2892              		.loc 1 914 0
 2893 08e6 264B     		ldr	r3, .L229+36
 2894 08e8 0222     		movs	r2, #2
 2895 08ea 1A60     		str	r2, [r3]
 2896              	.L94:
 915:main.c        ****             }
 916:main.c        ****             
 917:main.c        ****             #if 0
 918:main.c        ****             if (OLEDcount == 0)
 919:main.c        ****             {
 920:main.c        ****                 OLEDclearLine(FirstLine);
 921:main.c        ****             }
 922:main.c        ****             else if (OLEDcount == 1)
 923:main.c        ****             {
 924:main.c        ****                 OLEDwriteInt(encoderNum, 2, 0, FirstLine);
 925:main.c        **** 		    }
ARM GAS  C:\Users\JEFFSN~1\AppData\Local\Temp\ccEPDFmT.s 			page 69


 926:main.c        ****             else if (OLEDcount == 2)
 927:main.c        ****             {
 928:main.c        ****                 OLEDwriteString(" ", 1, OLEDgetCursor(), FirstLine);
 929:main.c        ****             }
 930:main.c        ****             else if (OLEDcount == 3)
 931:main.c        ****             {
 932:main.c        ****                 OLEDwriteInt(encoderVal[encoderNum], 3, OLEDgetCursor(), FirstLine);
 933:main.c        ****             }
 934:main.c        ****             else if (OLEDcount == 4)
 935:main.c        ****             {
 936:main.c        ****                 OLEDwriteString("     ", 5, OLEDgetCursor(), FirstLine);
 937:main.c        ****             }
 938:main.c        ****             else if (OLEDcount == 5)
 939:main.c        ****             {
 940:main.c        ****                 OLEDwriteInt(patchNum, 2, OLEDgetCursor(), FirstLine);
 941:main.c        ****             }
 942:main.c        ****             else if (OLEDcount == 6)
 943:main.c        ****             {
 944:main.c        ****                 //OLED_drawFirstLine();
 945:main.c        ****                 
 946:main.c        ****                 //OLEDwriteInt( bar[0] , 6, 0,SecondLine);
 947:main.c        ****                 //OLEDwriteInt(currentCopedent , 2, 0,FourthLine);
 948:main.c        ****                 //OLEDwriteString(" ", 1, OLEDgetCursor(), FourthLine);
 949:main.c        ****                 //OLEDwriteString((char *)&copedentNamesArray[currentCopedent][0], NAME_LENGTH_IN_B
 950:main.c        ****                  //OLED_draw();
 951:main.c        ****             }
 952:main.c        ****             OLEDcount++;
 953:main.c        ****             if (OLEDcount > 6)
 954:main.c        ****             {
 955:main.c        ****                 OLEDcount = 0;
 956:main.c        ****             }
 957:main.c        ****             #endif
 958:main.c        ****         }
 959:main.c        **** 
 960:main.c        ****         /*
 961:main.c        ****         I2Cbuff1[0] = 1<<main_counter;
 962:main.c        ****         uint8_t status = I2C_MasterWriteBlocking(0x71, 1, I2C_1_MODE_COMPLETE_XFER);
 963:main.c        **** 
 964:main.c        ****                 for (int i = 0; i < 5; i++)
 965:main.c        ****                 {
 966:main.c        ****                     I2Cbuff1[0] = 1<<i;
 967:main.c        ****                     status = I2C_MasterWriteBlocking(0x70, 1, I2C_1_MODE_COMPLETE_XFER);
 968:main.c        **** 
 969:main.c        ****                     I2Cbuff1[0] = 0x0E;
 970:main.c        ****                     status = I2C_MasterWriteBlocking(0x36, 1, I2C_1_MODE_NO_STOP);
 971:main.c        **** 
 972:main.c        ****                     status = I2C_MasterReadBlocking(0x36, 2, I2C_1_MODE_REPEAT_START);
 973:main.c        **** 
 974:main.c        **** 
 975:main.c        ****                     angle[i] = I2Cbuff2[0] << 8;
 976:main.c        ****                     angle[i] +=  I2Cbuff2[1];
 977:main.c        ****                 }
 978:main.c        ****             if (main_counter == 0)
 979:main.c        ****             {               
 980:main.c        ****                 I2Cbuff1[0] = 1<<main_counter;
 981:main.c        ****                 uint8_t status = I2C_MasterWriteBlocking(0x71, 1, I2C_1_MODE_COMPLETE_XFER);
 982:main.c        **** 
ARM GAS  C:\Users\JEFFSN~1\AppData\Local\Temp\ccEPDFmT.s 			page 70


 983:main.c        ****                 for (int i = 0; i < 5; i++)
 984:main.c        ****                 {
 985:main.c        ****                     I2Cbuff1[0] = 1<<i;
 986:main.c        ****                     status = I2C_MasterWriteBlocking(0x70, 1, I2C_1_MODE_COMPLETE_XFER);
 987:main.c        **** 
 988:main.c        ****                     I2Cbuff1[0] = 0x0E;
 989:main.c        ****                     status = I2C_MasterWriteBlocking(0x36, 1, I2C_1_MODE_NO_STOP);
 990:main.c        **** 
 991:main.c        ****                     status = I2C_MasterReadBlocking(0x36, 2, I2C_1_MODE_REPEAT_START);
 992:main.c        **** 
 993:main.c        **** 
 994:main.c        ****                     angle[i] = I2Cbuff2[0] << 8;
 995:main.c        ****                     angle[i] +=  I2Cbuff2[1];
 996:main.c        ****                 }
 997:main.c        ****             }
 998:main.c        ****             else
 999:main.c        ****             {
1000:main.c        ****                 I2Cbuff1[0] = 1<<(main_counter+1);
1001:main.c        ****                 uint8_t status = I2C_MasterWriteBlocking(0x71, 1, I2C_1_MODE_COMPLETE_XFER);
1002:main.c        ****                 I2Cbuff1[0] = 0x0E;
1003:main.c        ****                 status = I2C_MasterWriteBlocking(0x36, 1, I2C_1_MODE_NO_STOP);
1004:main.c        ****                 if (status == I2C_1_MSTAT_ERR_XFER)
1005:main.c        ****                 {
1006:main.c        ****                     I2Cbuff1[0] = 1<<(main_counter+1);
1007:main.c        ****                     status = I2C_MasterWriteBlocking(0x71, 1, I2C_1_MODE_COMPLETE_XFER);
1008:main.c        ****                 }
1009:main.c        ****            
1010:main.c        **** 
1011:main.c        **** 
1012:main.c        ****                 status = I2C_MasterReadBlocking(0x36, 2, I2C_1_MODE_REPEAT_START);
1013:main.c        ****                  //I2C_1_MasterReadBuf(0x36, I2Cbuff3, 2, I2C_1_MODE_REPEAT_START);
1014:main.c        ****                 if (status == I2C_1_MSTAT_ERR_XFER)
1015:main.c        ****                 {
1016:main.c        ****                     I2Cbuff1[0] = 1<<(main_counter+1);
1017:main.c        ****                     status = I2C_MasterWriteBlocking(0x71, 1, I2C_1_MODE_COMPLETE_XFER);
1018:main.c        ****                 }
1019:main.c        ****                 
1020:main.c        ****                 angle[main_counter+4] = I2Cbuff2[0] << 8;
1021:main.c        ****                 angle[main_counter+4] +=  I2Cbuff2[1];
1022:main.c        ****             }    
1023:main.c        ****                 
1024:main.c        **** 
1025:main.c        ****             send_it = 1;
1026:main.c        ****         }
1027:main.c        ****         */
1028:main.c        ****         
1029:main.c        ****         if (main_counter < 10)
 2897              		.loc 1 1029 0
 2898 08ec 1B4B     		ldr	r3, .L229
 2899 08ee 1B78     		ldrb	r3, [r3]
 2900 08f0 DBB2     		uxtb	r3, r3
 2901 08f2 092B     		cmp	r3, #9
 2902 08f4 00F2EC80 		bhi	.L98
 2903              	.LBB20:
1030:main.c        ****         {
1031:main.c        ****             
1032:main.c        ****             //do math to make all pedals and levers report between 0 and 4095 scaled
ARM GAS  C:\Users\JEFFSN~1\AppData\Local\Temp\ccEPDFmT.s 			page 71


1033:main.c        ****             int16_t tempangle = ((int16_t) angle[main_counter] - (int16_t)pedals_low[main_counter])
 2904              		.loc 1 1033 0
 2905 08f8 184B     		ldr	r3, .L229
 2906 08fa 1B78     		ldrb	r3, [r3]
 2907 08fc DBB2     		uxtb	r3, r3
 2908 08fe 1A46     		mov	r2, r3
 2909 0900 174B     		ldr	r3, .L229+4
 2910 0902 33F81220 		ldrh	r2, [r3, r2, lsl #1]
 2911 0906 154B     		ldr	r3, .L229
 2912 0908 1B78     		ldrb	r3, [r3]
 2913 090a DBB2     		uxtb	r3, r3
 2914 090c 1946     		mov	r1, r3
 2915 090e 154B     		ldr	r3, .L229+8
 2916 0910 33F81130 		ldrh	r3, [r3, r1, lsl #1]
 2917 0914 D31A     		subs	r3, r2, r3
 2918 0916 9BB2     		uxth	r3, r3
 2919 0918 3B85     		strh	r3, [r7, #40]	@ movhi
1034:main.c        ****             
1035:main.c        ****             if (tempangle > 0)
 2920              		.loc 1 1035 0
 2921 091a B7F92830 		ldrsh	r3, [r7, #40]
 2922 091e 002B     		cmp	r3, #0
 2923 0920 3EDD     		ble	.L99
1036:main.c        ****             {
1037:main.c        ****                 processed_pedals[main_counter] = (float)tempangle * pedalRatios[main_counter];
 2924              		.loc 1 1037 0
 2925 0922 0E4B     		ldr	r3, .L229
 2926 0924 1B78     		ldrb	r3, [r3]
 2927 0926 DBB2     		uxtb	r3, r3
 2928 0928 1C46     		mov	r4, r3
 2929 092a B7F92830 		ldrsh	r3, [r7, #40]
 2930 092e 1846     		mov	r0, r3
 2931 0930 FFF7FEFF 		bl	__aeabi_i2f
 2932 0934 094B     		ldr	r3, .L229
 2933 0936 1B78     		ldrb	r3, [r3]
 2934 0938 DBB2     		uxtb	r3, r3
 2935 093a 1A46     		mov	r2, r3
 2936 093c 164B     		ldr	r3, .L229+60
 2937 093e 53F82230 		ldr	r3, [r3, r2, lsl #2]	@ float
 2938 0942 1946     		mov	r1, r3
 2939 0944 FFF7FEFF 		bl	__aeabi_fmul
 2940 0948 0346     		mov	r3, r0
 2941 094a 1846     		mov	r0, r3
 2942 094c FFF7FEFF 		bl	__aeabi_f2uiz
 2943 0950 0346     		mov	r3, r0
 2944 0952 9AB2     		uxth	r2, r3
 2945 0954 114B     		ldr	r3, .L229+64
 2946 0956 23F81420 		strh	r2, [r3, r4, lsl #1]	@ movhi
 2947 095a 29E0     		b	.L100
 2948              	.L230:
 2949              		.align	2
 2950              	.L229:
 2951 095c 00000000 		.word	main_counter
 2952 0960 00000000 		.word	angle
 2953 0964 00000000 		.word	pedals_low
 2954 0968 00000000 		.word	pedals_high
 2955 096c 00000000 		.word	i2c_skipped
ARM GAS  C:\Users\JEFFSN~1\AppData\Local\Temp\ccEPDFmT.s 			page 72


 2956 0970 00000000 		.word	I2Cbuff1
 2957 0974 00000000 		.word	status
 2958 0978 00000000 		.word	I2Cbuff2
 2959 097c 00000000 		.word	macroKnobValues
 2960 0980 00000000 		.word	macroOLEDWaitingToSend
 2961 0984 00000000 		.word	whichMacro
 2962 0988 00000000 		.word	patchNum
 2963 098c 00000000 		.word	macroNamesArray
 2964 0990 00000000 		.word	volumePedal
 2965 0994 00000000 		.word	mainOLEDWaitingToSend
 2966 0998 00000000 		.word	pedalRatios
 2967 099c 00000000 		.word	processed_pedals
 2968              	.L99:
1038:main.c        ****             }
1039:main.c        ****             else
1040:main.c        ****             {
1041:main.c        ****                 processed_pedals[main_counter] = 0;
 2969              		.loc 1 1041 0
 2970 09a0 864B     		ldr	r3, .L231
 2971 09a2 1B78     		ldrb	r3, [r3]
 2972 09a4 DBB2     		uxtb	r3, r3
 2973 09a6 1A46     		mov	r2, r3
 2974 09a8 854B     		ldr	r3, .L231+4
 2975 09aa 0021     		movs	r1, #0
 2976 09ac 23F81210 		strh	r1, [r3, r2, lsl #1]	@ movhi
 2977              	.L100:
1042:main.c        ****             }
1043:main.c        ****             if (processed_pedals[main_counter] > 4095)
 2978              		.loc 1 1043 0
 2979 09b0 824B     		ldr	r3, .L231
 2980 09b2 1B78     		ldrb	r3, [r3]
 2981 09b4 DBB2     		uxtb	r3, r3
 2982 09b6 1A46     		mov	r2, r3
 2983 09b8 814B     		ldr	r3, .L231+4
 2984 09ba 33F81230 		ldrh	r3, [r3, r2, lsl #1]
 2985 09be B3F5805F 		cmp	r3, #4096
 2986 09c2 08D3     		bcc	.L101
1044:main.c        ****             {
1045:main.c        ****                 processed_pedals[main_counter] = 4095;
 2987              		.loc 1 1045 0
 2988 09c4 7D4B     		ldr	r3, .L231
 2989 09c6 1B78     		ldrb	r3, [r3]
 2990 09c8 DBB2     		uxtb	r3, r3
 2991 09ca 1A46     		mov	r2, r3
 2992 09cc 7C4B     		ldr	r3, .L231+4
 2993 09ce 40F6FF71 		movw	r1, #4095
 2994 09d2 23F81210 		strh	r1, [r3, r2, lsl #1]	@ movhi
 2995              	.L101:
1046:main.c        ****             }
1047:main.c        ****             
1048:main.c        ****             
1049:main.c        ****             //if ( processed_pedals[main_counter] != prev_processed_pedals[main_counter])
1050:main.c        ****             {
1051:main.c        ****                 //sendMIDIControlChange(main_counter, (processed_pedals[main_counter] >> 7), 1);
1052:main.c        ****                 //sendMIDIControlChange(main_counter+36, (processed_pedals[main_counter] & 127), 1)
1053:main.c        ****             }
1054:main.c        ****             pedals_float[main_counter] = (float)processed_pedals[main_counter] * 2.442002442002442e
ARM GAS  C:\Users\JEFFSN~1\AppData\Local\Temp\ccEPDFmT.s 			page 73


 2996              		.loc 1 1054 0
 2997 09d6 794B     		ldr	r3, .L231
 2998 09d8 1B78     		ldrb	r3, [r3]
 2999 09da DBB2     		uxtb	r3, r3
 3000 09dc 1C46     		mov	r4, r3
 3001 09de 774B     		ldr	r3, .L231
 3002 09e0 1B78     		ldrb	r3, [r3]
 3003 09e2 DBB2     		uxtb	r3, r3
 3004 09e4 1A46     		mov	r2, r3
 3005 09e6 764B     		ldr	r3, .L231+4
 3006 09e8 33F81230 		ldrh	r3, [r3, r2, lsl #1]
 3007 09ec 1846     		mov	r0, r3
 3008 09ee FFF7FEFF 		bl	__aeabi_ui2f
 3009 09f2 0346     		mov	r3, r0
 3010 09f4 7349     		ldr	r1, .L231+8
 3011 09f6 1846     		mov	r0, r3
 3012 09f8 FFF7FEFF 		bl	__aeabi_fmul
 3013 09fc 0346     		mov	r3, r0
 3014 09fe 1A46     		mov	r2, r3
 3015 0a00 714B     		ldr	r3, .L231+12
 3016 0a02 43F82420 		str	r2, [r3, r4, lsl #2]	@ float
1055:main.c        ****             pedals8bit[main_counter] = (float)processed_pedals[pedal_cc_assignments[main_counter]] 
 3017              		.loc 1 1055 0
 3018 0a06 6D4B     		ldr	r3, .L231
 3019 0a08 1B78     		ldrb	r3, [r3]
 3020 0a0a DBB2     		uxtb	r3, r3
 3021 0a0c 1C46     		mov	r4, r3
 3022 0a0e 6B4B     		ldr	r3, .L231
 3023 0a10 1B78     		ldrb	r3, [r3]
 3024 0a12 DBB2     		uxtb	r3, r3
 3025 0a14 1A46     		mov	r2, r3
 3026 0a16 6D4B     		ldr	r3, .L231+16
 3027 0a18 9B5C     		ldrb	r3, [r3, r2]	@ zero_extendqisi2
 3028 0a1a 1A46     		mov	r2, r3
 3029 0a1c 684B     		ldr	r3, .L231+4
 3030 0a1e 33F81230 		ldrh	r3, [r3, r2, lsl #1]
 3031 0a22 1846     		mov	r0, r3
 3032 0a24 FFF7FEFF 		bl	__aeabi_ui2f
 3033 0a28 0346     		mov	r3, r0
 3034 0a2a 4FF07651 		mov	r1, #1031798784
 3035 0a2e 1846     		mov	r0, r3
 3036 0a30 FFF7FEFF 		bl	__aeabi_fmul
 3037 0a34 0346     		mov	r3, r0
 3038 0a36 1846     		mov	r0, r3
 3039 0a38 FFF7FEFF 		bl	__aeabi_f2uiz
 3040 0a3c 0346     		mov	r3, r0
 3041 0a3e DAB2     		uxtb	r2, r3
 3042 0a40 634B     		ldr	r3, .L231+20
 3043 0a42 1A55     		strb	r2, [r3, r4]
1056:main.c        ****             pedals7bit[main_counter] = pedals8bit[main_counter] >> 1;
 3044              		.loc 1 1056 0
 3045 0a44 5D4B     		ldr	r3, .L231
 3046 0a46 1B78     		ldrb	r3, [r3]
 3047 0a48 DBB2     		uxtb	r3, r3
 3048 0a4a 1A46     		mov	r2, r3
 3049 0a4c 5B4B     		ldr	r3, .L231
 3050 0a4e 1B78     		ldrb	r3, [r3]
ARM GAS  C:\Users\JEFFSN~1\AppData\Local\Temp\ccEPDFmT.s 			page 74


 3051 0a50 DBB2     		uxtb	r3, r3
 3052 0a52 1946     		mov	r1, r3
 3053 0a54 5E4B     		ldr	r3, .L231+20
 3054 0a56 5B5C     		ldrb	r3, [r3, r1]	@ zero_extendqisi2
 3055 0a58 5B08     		lsrs	r3, r3, #1
 3056 0a5a D9B2     		uxtb	r1, r3
 3057 0a5c 5D4B     		ldr	r3, .L231+24
 3058 0a5e 9954     		strb	r1, [r3, r2]
1057:main.c        ****             if (pedals7bit[main_counter] != prevPedals7bit[main_counter])
 3059              		.loc 1 1057 0
 3060 0a60 564B     		ldr	r3, .L231
 3061 0a62 1B78     		ldrb	r3, [r3]
 3062 0a64 DBB2     		uxtb	r3, r3
 3063 0a66 1A46     		mov	r2, r3
 3064 0a68 5A4B     		ldr	r3, .L231+24
 3065 0a6a 9A5C     		ldrb	r2, [r3, r2]	@ zero_extendqisi2
 3066 0a6c 534B     		ldr	r3, .L231
 3067 0a6e 1B78     		ldrb	r3, [r3]
 3068 0a70 DBB2     		uxtb	r3, r3
 3069 0a72 1946     		mov	r1, r3
 3070 0a74 584B     		ldr	r3, .L231+28
 3071 0a76 5B5C     		ldrb	r3, [r3, r1]	@ zero_extendqisi2
 3072 0a78 9A42     		cmp	r2, r3
 3073 0a7a 0ED0     		beq	.L102
1058:main.c        ****             {
1059:main.c        ****                 sendMIDIControlChange(main_counter + 14, (pedals7bit[main_counter]), 1);
 3074              		.loc 1 1059 0
 3075 0a7c 4F4B     		ldr	r3, .L231
 3076 0a7e 1B78     		ldrb	r3, [r3]
 3077 0a80 DBB2     		uxtb	r3, r3
 3078 0a82 03F10E00 		add	r0, r3, #14
 3079 0a86 4D4B     		ldr	r3, .L231
 3080 0a88 1B78     		ldrb	r3, [r3]
 3081 0a8a DBB2     		uxtb	r3, r3
 3082 0a8c 1A46     		mov	r2, r3
 3083 0a8e 514B     		ldr	r3, .L231+24
 3084 0a90 9B5C     		ldrb	r3, [r3, r2]	@ zero_extendqisi2
 3085 0a92 0122     		movs	r2, #1
 3086 0a94 1946     		mov	r1, r3
 3087 0a96 FFF7FEFF 		bl	sendMIDIControlChange
 3088              	.L102:
1060:main.c        ****             }
1061:main.c        ****             prevPedals7bit[main_counter] = pedals7bit[main_counter];
 3089              		.loc 1 1061 0
 3090 0a9a 484B     		ldr	r3, .L231
 3091 0a9c 1B78     		ldrb	r3, [r3]
 3092 0a9e DBB2     		uxtb	r3, r3
 3093 0aa0 1A46     		mov	r2, r3
 3094 0aa2 464B     		ldr	r3, .L231
 3095 0aa4 1B78     		ldrb	r3, [r3]
 3096 0aa6 DBB2     		uxtb	r3, r3
 3097 0aa8 1946     		mov	r1, r3
 3098 0aaa 4A4B     		ldr	r3, .L231+24
 3099 0aac 595C     		ldrb	r1, [r3, r1]	@ zero_extendqisi2
 3100 0aae 4A4B     		ldr	r3, .L231+28
 3101 0ab0 9954     		strb	r1, [r3, r2]
1062:main.c        ****             prev_processed_pedals[main_counter] = processed_pedals[main_counter];
ARM GAS  C:\Users\JEFFSN~1\AppData\Local\Temp\ccEPDFmT.s 			page 75


 3102              		.loc 1 1062 0
 3103 0ab2 424B     		ldr	r3, .L231
 3104 0ab4 1B78     		ldrb	r3, [r3]
 3105 0ab6 DBB2     		uxtb	r3, r3
 3106 0ab8 1A46     		mov	r2, r3
 3107 0aba 404B     		ldr	r3, .L231
 3108 0abc 1B78     		ldrb	r3, [r3]
 3109 0abe DBB2     		uxtb	r3, r3
 3110 0ac0 1946     		mov	r1, r3
 3111 0ac2 3F4B     		ldr	r3, .L231+4
 3112 0ac4 33F81110 		ldrh	r1, [r3, r1, lsl #1]
 3113 0ac8 444B     		ldr	r3, .L231+32
 3114 0aca 23F81210 		strh	r1, [r3, r2, lsl #1]	@ movhi
 3115              	.LBE20:
 3116 0ace 3DE0     		b	.L103
 3117              	.L98:
1063:main.c        ****         }
1064:main.c        ****         else
1065:main.c        ****         {
1066:main.c        ****             processed_volumePedal = (float)volumePedal * 1.007378258730939f; //compensate for lower
 3118              		.loc 1 1066 0
 3119 0ad0 434B     		ldr	r3, .L231+36
 3120 0ad2 1B88     		ldrh	r3, [r3]
 3121 0ad4 1846     		mov	r0, r3
 3122 0ad6 FFF7FEFF 		bl	__aeabi_ui2f
 3123 0ada 0346     		mov	r3, r0
 3124 0adc 4149     		ldr	r1, .L231+40
 3125 0ade 1846     		mov	r0, r3
 3126 0ae0 FFF7FEFF 		bl	__aeabi_fmul
 3127 0ae4 0346     		mov	r3, r0
 3128 0ae6 1846     		mov	r0, r3
 3129 0ae8 FFF7FEFF 		bl	__aeabi_f2iz
 3130 0aec 0346     		mov	r3, r0
 3131 0aee 1AB2     		sxth	r2, r3
 3132 0af0 3D4B     		ldr	r3, .L231+44
 3133 0af2 1A80     		strh	r2, [r3]	@ movhi
1067:main.c        **** 
1068:main.c        ****             if (processed_volumePedal < 0)
 3134              		.loc 1 1068 0
 3135 0af4 3C4B     		ldr	r3, .L231+44
 3136 0af6 B3F90030 		ldrsh	r3, [r3]
 3137 0afa 002B     		cmp	r3, #0
 3138 0afc 03DA     		bge	.L104
1069:main.c        ****             {
1070:main.c        ****                 processed_volumePedal = 0;
 3139              		.loc 1 1070 0
 3140 0afe 3A4B     		ldr	r3, .L231+44
 3141 0b00 0022     		movs	r2, #0
 3142 0b02 1A80     		strh	r2, [r3]	@ movhi
 3143 0b04 09E0     		b	.L105
 3144              	.L104:
1071:main.c        ****             }
1072:main.c        ****             else if (processed_volumePedal > 4095)
 3145              		.loc 1 1072 0
 3146 0b06 384B     		ldr	r3, .L231+44
 3147 0b08 B3F90030 		ldrsh	r3, [r3]
 3148 0b0c B3F5805F 		cmp	r3, #4096
ARM GAS  C:\Users\JEFFSN~1\AppData\Local\Temp\ccEPDFmT.s 			page 76


 3149 0b10 03DB     		blt	.L105
1073:main.c        ****             {
1074:main.c        ****                  processed_volumePedal = 4095;
 3150              		.loc 1 1074 0
 3151 0b12 354B     		ldr	r3, .L231+44
 3152 0b14 40F6FF72 		movw	r2, #4095
 3153 0b18 1A80     		strh	r2, [r3]	@ movhi
 3154              	.L105:
1075:main.c        ****             }
1076:main.c        ****             
1077:main.c        ****             if ( processed_volumePedal != prev_processed_volumePedal)
 3155              		.loc 1 1077 0
 3156 0b1a 334B     		ldr	r3, .L231+44
 3157 0b1c B3F90020 		ldrsh	r2, [r3]
 3158 0b20 324B     		ldr	r3, .L231+48
 3159 0b22 B3F90030 		ldrsh	r3, [r3]
 3160 0b26 9A42     		cmp	r2, r3
 3161 0b28 0BD0     		beq	.L106
 3162              	.LBB21:
1078:main.c        ****             {
1079:main.c        ****                 uint16_t tempPedal = processed_volumePedal;
 3163              		.loc 1 1079 0
 3164 0b2a 2F4B     		ldr	r3, .L231+44
 3165 0b2c B3F90030 		ldrsh	r3, [r3]
 3166 0b30 FB84     		strh	r3, [r7, #38]	@ movhi
1080:main.c        ****                 
1081:main.c        ****                 sendMIDIControlChange(13, ( tempPedal >> 5), 0);
 3167              		.loc 1 1081 0
 3168 0b32 FB8C     		ldrh	r3, [r7, #38]
 3169 0b34 5B09     		lsrs	r3, r3, #5
 3170 0b36 9BB2     		uxth	r3, r3
 3171 0b38 0022     		movs	r2, #0
 3172 0b3a 1946     		mov	r1, r3
 3173 0b3c 0D20     		movs	r0, #13
 3174 0b3e FFF7FEFF 		bl	sendMIDIControlChange
 3175              	.L106:
 3176              	.LBE21:
1082:main.c        ****                 //sendMIDIControlChange(22, ( tempPedal & 127), 0);
1083:main.c        ****             }
1084:main.c        ****              prev_processed_volumePedal = processed_volumePedal;
 3177              		.loc 1 1084 0
 3178 0b42 294B     		ldr	r3, .L231+44
 3179 0b44 B3F90020 		ldrsh	r2, [r3]
 3180 0b48 284B     		ldr	r3, .L231+48
 3181 0b4a 1A80     		strh	r2, [r3]	@ movhi
 3182              	.L103:
1085:main.c        ****         }
1086:main.c        ****         
1087:main.c        ****         main_counter++;
 3183              		.loc 1 1087 0
 3184 0b4c 1B4B     		ldr	r3, .L231
 3185 0b4e 1B78     		ldrb	r3, [r3]
 3186 0b50 DBB2     		uxtb	r3, r3
 3187 0b52 0133     		adds	r3, r3, #1
 3188 0b54 DAB2     		uxtb	r2, r3
 3189 0b56 194B     		ldr	r3, .L231
 3190 0b58 1A70     		strb	r2, [r3]
ARM GAS  C:\Users\JEFFSN~1\AppData\Local\Temp\ccEPDFmT.s 			page 77


1088:main.c        **** 
1089:main.c        ****         if (main_counter > 11)
 3191              		.loc 1 1089 0
 3192 0b5a 184B     		ldr	r3, .L231
 3193 0b5c 1B78     		ldrb	r3, [r3]
 3194 0b5e DBB2     		uxtb	r3, r3
 3195 0b60 0B2B     		cmp	r3, #11
 3196 0b62 02D9     		bls	.L107
1090:main.c        ****         {
1091:main.c        ****             main_counter = 0;
 3197              		.loc 1 1091 0
 3198 0b64 154B     		ldr	r3, .L231
 3199 0b66 0022     		movs	r2, #0
 3200 0b68 1A70     		strb	r2, [r3]
 3201              	.L107:
1092:main.c        ****         }
1093:main.c        ****         testpin3_Write(0);
 3202              		.loc 1 1093 0
 3203 0b6a 0020     		movs	r0, #0
 3204 0b6c FFF7FEFF 		bl	testpin3_Write
1094:main.c        ****         #if 0
1095:main.c        ****             
1096:main.c        ****             
1097:main.c        ****         main_counter++;
1098:main.c        ****         if (main_counter >= 11)
1099:main.c        ****         {
1100:main.c        ****                /*  
1101:main.c        ****             testpin3_Write(1);
1102:main.c        ****             I2Cbuff1[0] = 1<<6;
1103:main.c        ****     status = I2C_MasterWriteBlocking(0x71, 1, I2C_1_MODE_COMPLETE_XFER);
1104:main.c        ****         OLEDwriteInt(bar[1], 5, 0,FirstLine);
1105:main.c        **** 
1106:main.c        ****         //CyDelay(1);
1107:main.c        ****         
1108:main.c        ****         OLEDwriteInt(octave, 1, 0,SecondLine);
1109:main.c        **** 
1110:main.c        ****         OLED_draw();
1111:main.c        ****                     I2Cbuff1[0] = 1<<0;
1112:main.c        ****     status = I2C_MasterWriteBlocking(0x71, 1, I2C_1_MODE_COMPLETE_XFER);
1113:main.c        ****         testpin3_Write(0);
1114:main.c        ****             */
1115:main.c        ****             main_counter = 0;
1116:main.c        ****         }
1117:main.c        ****         #endif
1118:main.c        ****         testpin5_Write(1);
 3205              		.loc 1 1118 0
 3206 0b70 0120     		movs	r0, #1
 3207 0b72 FFF7FEFF 		bl	testpin5_Write
1119:main.c        ****         
1120:main.c        ****         if ((rxBufferBar[!currentBarBuffer][6] == 254) && (rxBufferBar[!currentBarBuffer][7] == 253
 3208              		.loc 1 1120 0
 3209 0b76 1E4B     		ldr	r3, .L231+52
 3210 0b78 1B78     		ldrb	r3, [r3]
 3211 0b7a DBB2     		uxtb	r3, r3
 3212 0b7c 002B     		cmp	r3, #0
 3213 0b7e 0CBF     		ite	eq
 3214 0b80 0123     		moveq	r3, #1
ARM GAS  C:\Users\JEFFSN~1\AppData\Local\Temp\ccEPDFmT.s 			page 78


 3215 0b82 0023     		movne	r3, #0
 3216 0b84 DBB2     		uxtb	r3, r3
 3217 0b86 1B4A     		ldr	r2, .L231+56
 3218 0b88 DB00     		lsls	r3, r3, #3
 3219 0b8a 1344     		add	r3, r3, r2
 3220 0b8c 9B79     		ldrb	r3, [r3, #6]
 3221 0b8e DBB2     		uxtb	r3, r3
 3222 0b90 FE2B     		cmp	r3, #254
 3223 0b92 40F05B81 		bne	.L108
 3224              		.loc 1 1120 0 is_stmt 0 discriminator 1
 3225 0b96 164B     		ldr	r3, .L231+52
 3226 0b98 1B78     		ldrb	r3, [r3]
 3227 0b9a DBB2     		uxtb	r3, r3
 3228 0b9c 002B     		cmp	r3, #0
 3229 0b9e 0CBF     		ite	eq
 3230 0ba0 0123     		moveq	r3, #1
 3231 0ba2 0023     		movne	r3, #0
 3232 0ba4 DBB2     		uxtb	r3, r3
 3233 0ba6 134A     		ldr	r2, .L231+56
 3234 0ba8 DB00     		lsls	r3, r3, #3
 3235 0baa 1344     		add	r3, r3, r2
 3236 0bac DB79     		ldrb	r3, [r3, #7]
 3237 0bae DBB2     		uxtb	r3, r3
 3238 0bb0 FD2B     		cmp	r3, #253
 3239 0bb2 40F04B81 		bne	.L108
 3240              	.LBB22:
1121:main.c        ****         {
1122:main.c        ****             for (int i = 0; i < 2; i++)
 3241              		.loc 1 1122 0 is_stmt 1
 3242 0bb6 0023     		movs	r3, #0
 3243 0bb8 3B67     		str	r3, [r7, #112]
 3244 0bba 43E1     		b	.L109
 3245              	.L232:
 3246              		.align	2
 3247              	.L231:
 3248 0bbc 00000000 		.word	main_counter
 3249 0bc0 00000000 		.word	processed_pedals
 3250 0bc4 01088039 		.word	964691969
 3251 0bc8 00000000 		.word	pedals_float
 3252 0bcc 00000000 		.word	pedal_cc_assignments
 3253 0bd0 00000000 		.word	pedals8bit
 3254 0bd4 00000000 		.word	pedals7bit
 3255 0bd8 00000000 		.word	prevPedals7bit
 3256 0bdc 00000000 		.word	prev_processed_pedals
 3257 0be0 00000000 		.word	volumePedal
 3258 0be4 C5F1803F 		.word	1065415109
 3259 0be8 00000000 		.word	processed_volumePedal
 3260 0bec 00000000 		.word	prev_processed_volumePedal
 3261 0bf0 00000000 		.word	currentBarBuffer
 3262 0bf4 00000000 		.word	rxBufferBar
 3263              	.L121:
1123:main.c        ****             {
1124:main.c        ****                 bar[i] = ((rxBufferBar[!currentBarBuffer][i*2] << 8) + rxBufferBar[!currentBarBuffe
 3264              		.loc 1 1124 0
 3265 0bf8 974B     		ldr	r3, .L233
 3266 0bfa 1B78     		ldrb	r3, [r3]
 3267 0bfc DBB2     		uxtb	r3, r3
ARM GAS  C:\Users\JEFFSN~1\AppData\Local\Temp\ccEPDFmT.s 			page 79


 3268 0bfe 002B     		cmp	r3, #0
 3269 0c00 0CBF     		ite	eq
 3270 0c02 0123     		moveq	r3, #1
 3271 0c04 0023     		movne	r3, #0
 3272 0c06 DBB2     		uxtb	r3, r3
 3273 0c08 1A46     		mov	r2, r3
 3274 0c0a 3B6F     		ldr	r3, [r7, #112]
 3275 0c0c 5B00     		lsls	r3, r3, #1
 3276 0c0e 9349     		ldr	r1, .L233+4
 3277 0c10 D200     		lsls	r2, r2, #3
 3278 0c12 0A44     		add	r2, r2, r1
 3279 0c14 1344     		add	r3, r3, r2
 3280 0c16 1B78     		ldrb	r3, [r3]
 3281 0c18 DBB2     		uxtb	r3, r3
 3282 0c1a 9BB2     		uxth	r3, r3
 3283 0c1c 1B02     		lsls	r3, r3, #8
 3284 0c1e 9AB2     		uxth	r2, r3
 3285 0c20 8D4B     		ldr	r3, .L233
 3286 0c22 1B78     		ldrb	r3, [r3]
 3287 0c24 DBB2     		uxtb	r3, r3
 3288 0c26 002B     		cmp	r3, #0
 3289 0c28 0CBF     		ite	eq
 3290 0c2a 0123     		moveq	r3, #1
 3291 0c2c 0023     		movne	r3, #0
 3292 0c2e DBB2     		uxtb	r3, r3
 3293 0c30 1946     		mov	r1, r3
 3294 0c32 3B6F     		ldr	r3, [r7, #112]
 3295 0c34 5B00     		lsls	r3, r3, #1
 3296 0c36 0133     		adds	r3, r3, #1
 3297 0c38 8848     		ldr	r0, .L233+4
 3298 0c3a C900     		lsls	r1, r1, #3
 3299 0c3c 0144     		add	r1, r1, r0
 3300 0c3e 0B44     		add	r3, r3, r1
 3301 0c40 1B78     		ldrb	r3, [r3]
 3302 0c42 DBB2     		uxtb	r3, r3
 3303 0c44 9BB2     		uxth	r3, r3
 3304 0c46 1344     		add	r3, r3, r2
 3305 0c48 99B2     		uxth	r1, r3
 3306 0c4a 854A     		ldr	r2, .L233+8
 3307 0c4c 3B6F     		ldr	r3, [r7, #112]
 3308 0c4e 22F81310 		strh	r1, [r2, r3, lsl #1]	@ movhi
1125:main.c        ****                 //
1126:main.c        ****                 if(bar[i] != prevBar[i])
 3309              		.loc 1 1126 0
 3310 0c52 834A     		ldr	r2, .L233+8
 3311 0c54 3B6F     		ldr	r3, [r7, #112]
 3312 0c56 32F81330 		ldrh	r3, [r2, r3, lsl #1]	@ movhi
 3313 0c5a 9AB2     		uxth	r2, r3
 3314 0c5c 8149     		ldr	r1, .L233+12
 3315 0c5e 3B6F     		ldr	r3, [r7, #112]
 3316 0c60 31F81330 		ldrh	r3, [r1, r3, lsl #1]	@ movhi
 3317 0c64 9BB2     		uxth	r3, r3
 3318 0c66 9A42     		cmp	r2, r3
 3319 0c68 00F0E080 		beq	.L110
1127:main.c        ****                 {
1128:main.c        ****     				if ((bar[i] == 65535) || (bar[i] > fretMeasurements[0][i]))
 3320              		.loc 1 1128 0
ARM GAS  C:\Users\JEFFSN~1\AppData\Local\Temp\ccEPDFmT.s 			page 80


 3321 0c6c 7C4A     		ldr	r2, .L233+8
 3322 0c6e 3B6F     		ldr	r3, [r7, #112]
 3323 0c70 32F81330 		ldrh	r3, [r2, r3, lsl #1]	@ movhi
 3324 0c74 9BB2     		uxth	r3, r3
 3325 0c76 4FF6FF72 		movw	r2, #65535
 3326 0c7a 9342     		cmp	r3, r2
 3327 0c7c 11D0     		beq	.L111
 3328              		.loc 1 1128 0 is_stmt 0 discriminator 1
 3329 0c7e 784A     		ldr	r2, .L233+8
 3330 0c80 3B6F     		ldr	r3, [r7, #112]
 3331 0c82 32F81330 		ldrh	r3, [r2, r3, lsl #1]	@ movhi
 3332 0c86 9BB2     		uxth	r3, r3
 3333 0c88 1846     		mov	r0, r3
 3334 0c8a FFF7FEFF 		bl	__aeabi_i2f
 3335 0c8e 764A     		ldr	r2, .L233+16
 3336 0c90 3B6F     		ldr	r3, [r7, #112]
 3337 0c92 52F82330 		ldr	r3, [r2, r3, lsl #2]	@ float
 3338 0c96 1946     		mov	r1, r3
 3339 0c98 FFF7FEFF 		bl	__aeabi_fcmpgt
 3340 0c9c 0346     		mov	r3, r0
 3341 0c9e 002B     		cmp	r3, #0
 3342 0ca0 06D0     		beq	.L220
 3343              	.L111:
1129:main.c        ****     				{
1130:main.c        ****     					stringMappedPositions[i] = 1.0f;
 3344              		.loc 1 1130 0 is_stmt 1
 3345 0ca2 724A     		ldr	r2, .L233+20
 3346 0ca4 3B6F     		ldr	r3, [r7, #112]
 3347 0ca6 4FF07E51 		mov	r1, #1065353216
 3348 0caa 42F82310 		str	r1, [r2, r3, lsl #2]	@ float
 3349 0cae AEE0     		b	.L114
 3350              	.L220:
1131:main.c        ****     				}
1132:main.c        **** 
1133:main.c        ****     				else if ((bar[i] >= fretMeasurements[1][i]) && (bar[i] <= fretMeasurements[0][i]))
 3351              		.loc 1 1133 0
 3352 0cb0 6B4A     		ldr	r2, .L233+8
 3353 0cb2 3B6F     		ldr	r3, [r7, #112]
 3354 0cb4 32F81330 		ldrh	r3, [r2, r3, lsl #1]	@ movhi
 3355 0cb8 9BB2     		uxth	r3, r3
 3356 0cba 1846     		mov	r0, r3
 3357 0cbc FFF7FEFF 		bl	__aeabi_i2f
 3358 0cc0 694A     		ldr	r2, .L233+16
 3359 0cc2 3B6F     		ldr	r3, [r7, #112]
 3360 0cc4 0433     		adds	r3, r3, #4
 3361 0cc6 52F82330 		ldr	r3, [r2, r3, lsl #2]	@ float
 3362 0cca 1946     		mov	r1, r3
 3363 0ccc FFF7FEFF 		bl	__aeabi_fcmpge
 3364 0cd0 0346     		mov	r3, r0
 3365 0cd2 002B     		cmp	r3, #0
 3366 0cd4 32D0     		beq	.L115
 3367              		.loc 1 1133 0 is_stmt 0 discriminator 1
 3368 0cd6 624A     		ldr	r2, .L233+8
 3369 0cd8 3B6F     		ldr	r3, [r7, #112]
 3370 0cda 32F81330 		ldrh	r3, [r2, r3, lsl #1]	@ movhi
 3371 0cde 9BB2     		uxth	r3, r3
 3372 0ce0 1846     		mov	r0, r3
ARM GAS  C:\Users\JEFFSN~1\AppData\Local\Temp\ccEPDFmT.s 			page 81


 3373 0ce2 FFF7FEFF 		bl	__aeabi_i2f
 3374 0ce6 604A     		ldr	r2, .L233+16
 3375 0ce8 3B6F     		ldr	r3, [r7, #112]
 3376 0cea 52F82330 		ldr	r3, [r2, r3, lsl #2]	@ float
 3377 0cee 1946     		mov	r1, r3
 3378 0cf0 FFF7FEFF 		bl	__aeabi_fcmple
 3379 0cf4 0346     		mov	r3, r0
 3380 0cf6 002B     		cmp	r3, #0
 3381 0cf8 20D0     		beq	.L115
1134:main.c        ****     				{
1135:main.c        ****     					stringMappedPositions[i] = map((float)bar[i], fretMeasurements[0][i], fretMeasurements[1][
 3382              		.loc 1 1135 0 is_stmt 1
 3383 0cfa 594A     		ldr	r2, .L233+8
 3384 0cfc 3B6F     		ldr	r3, [r7, #112]
 3385 0cfe 32F81330 		ldrh	r3, [r2, r3, lsl #1]	@ movhi
 3386 0d02 9BB2     		uxth	r3, r3
 3387 0d04 1846     		mov	r0, r3
 3388 0d06 FFF7FEFF 		bl	__aeabi_ui2f
 3389 0d0a 0446     		mov	r4, r0
 3390 0d0c 564A     		ldr	r2, .L233+16
 3391 0d0e 3B6F     		ldr	r3, [r7, #112]
 3392 0d10 52F82310 		ldr	r1, [r2, r3, lsl #2]	@ float
 3393 0d14 544A     		ldr	r2, .L233+16
 3394 0d16 3B6F     		ldr	r3, [r7, #112]
 3395 0d18 0433     		adds	r3, r3, #4
 3396 0d1a 52F82320 		ldr	r2, [r2, r3, lsl #2]	@ float
 3397 0d1e 544B     		ldr	r3, .L233+24
 3398 0d20 1868     		ldr	r0, [r3]	@ float
 3399 0d22 534B     		ldr	r3, .L233+24
 3400 0d24 5B68     		ldr	r3, [r3, #4]	@ float
 3401 0d26 0093     		str	r3, [sp]	@ float
 3402 0d28 0346     		mov	r3, r0
 3403 0d2a 2046     		mov	r0, r4
 3404 0d2c FFF7FEFF 		bl	map
 3405 0d30 0146     		mov	r1, r0
 3406 0d32 4E4A     		ldr	r2, .L233+20
 3407 0d34 3B6F     		ldr	r3, [r7, #112]
 3408 0d36 42F82310 		str	r1, [r2, r3, lsl #2]	@ float
 3409 0d3a 68E0     		b	.L114
 3410              	.L115:
1136:main.c        ****     				}
1137:main.c        **** 
1138:main.c        ****     				else if ((bar[i] >= fretMeasurements[2][i]) && (bar[i] < fretMeasurements[1][i]))
 3411              		.loc 1 1138 0
 3412 0d3c 484A     		ldr	r2, .L233+8
 3413 0d3e 3B6F     		ldr	r3, [r7, #112]
 3414 0d40 32F81330 		ldrh	r3, [r2, r3, lsl #1]	@ movhi
 3415 0d44 9BB2     		uxth	r3, r3
 3416 0d46 1846     		mov	r0, r3
 3417 0d48 FFF7FEFF 		bl	__aeabi_i2f
 3418 0d4c 464A     		ldr	r2, .L233+16
 3419 0d4e 3B6F     		ldr	r3, [r7, #112]
 3420 0d50 0833     		adds	r3, r3, #8
 3421 0d52 52F82330 		ldr	r3, [r2, r3, lsl #2]	@ float
 3422 0d56 1946     		mov	r1, r3
 3423 0d58 FFF7FEFF 		bl	__aeabi_fcmpge
 3424 0d5c 0346     		mov	r3, r0
ARM GAS  C:\Users\JEFFSN~1\AppData\Local\Temp\ccEPDFmT.s 			page 82


 3425 0d5e 002B     		cmp	r3, #0
 3426 0d60 34D0     		beq	.L118
 3427              		.loc 1 1138 0 is_stmt 0 discriminator 1
 3428 0d62 3F4A     		ldr	r2, .L233+8
 3429 0d64 3B6F     		ldr	r3, [r7, #112]
 3430 0d66 32F81330 		ldrh	r3, [r2, r3, lsl #1]	@ movhi
 3431 0d6a 9BB2     		uxth	r3, r3
 3432 0d6c 1846     		mov	r0, r3
 3433 0d6e FFF7FEFF 		bl	__aeabi_i2f
 3434 0d72 3D4A     		ldr	r2, .L233+16
 3435 0d74 3B6F     		ldr	r3, [r7, #112]
 3436 0d76 0433     		adds	r3, r3, #4
 3437 0d78 52F82330 		ldr	r3, [r2, r3, lsl #2]	@ float
 3438 0d7c 1946     		mov	r1, r3
 3439 0d7e FFF7FEFF 		bl	__aeabi_fcmplt
 3440 0d82 0346     		mov	r3, r0
 3441 0d84 002B     		cmp	r3, #0
 3442 0d86 21D0     		beq	.L118
1139:main.c        ****     				{
1140:main.c        ****     					stringMappedPositions[i] = map((float)bar[i], fretMeasurements[1][i], fretMeasurements[2][
 3443              		.loc 1 1140 0 is_stmt 1
 3444 0d88 354A     		ldr	r2, .L233+8
 3445 0d8a 3B6F     		ldr	r3, [r7, #112]
 3446 0d8c 32F81330 		ldrh	r3, [r2, r3, lsl #1]	@ movhi
 3447 0d90 9BB2     		uxth	r3, r3
 3448 0d92 1846     		mov	r0, r3
 3449 0d94 FFF7FEFF 		bl	__aeabi_ui2f
 3450 0d98 0446     		mov	r4, r0
 3451 0d9a 334A     		ldr	r2, .L233+16
 3452 0d9c 3B6F     		ldr	r3, [r7, #112]
 3453 0d9e 0433     		adds	r3, r3, #4
 3454 0da0 52F82310 		ldr	r1, [r2, r3, lsl #2]	@ float
 3455 0da4 304A     		ldr	r2, .L233+16
 3456 0da6 3B6F     		ldr	r3, [r7, #112]
 3457 0da8 0833     		adds	r3, r3, #8
 3458 0daa 52F82320 		ldr	r2, [r2, r3, lsl #2]	@ float
 3459 0dae 304B     		ldr	r3, .L233+24
 3460 0db0 5868     		ldr	r0, [r3, #4]	@ float
 3461 0db2 2F4B     		ldr	r3, .L233+24
 3462 0db4 9B68     		ldr	r3, [r3, #8]	@ float
 3463 0db6 0093     		str	r3, [sp]	@ float
 3464 0db8 0346     		mov	r3, r0
 3465 0dba 2046     		mov	r0, r4
 3466 0dbc FFF7FEFF 		bl	map
 3467 0dc0 0146     		mov	r1, r0
 3468 0dc2 2A4A     		ldr	r2, .L233+20
 3469 0dc4 3B6F     		ldr	r3, [r7, #112]
 3470 0dc6 42F82310 		str	r1, [r2, r3, lsl #2]	@ float
 3471 0dca 20E0     		b	.L114
 3472              	.L118:
1141:main.c        ****     				}
1142:main.c        **** 
1143:main.c        ****     				else
1144:main.c        ****     				{
1145:main.c        ****     					stringMappedPositions[i] = map((float)bar[i], fretMeasurements[2][i], fretMeasurements[3][
 3473              		.loc 1 1145 0
 3474 0dcc 244A     		ldr	r2, .L233+8
ARM GAS  C:\Users\JEFFSN~1\AppData\Local\Temp\ccEPDFmT.s 			page 83


 3475 0dce 3B6F     		ldr	r3, [r7, #112]
 3476 0dd0 32F81330 		ldrh	r3, [r2, r3, lsl #1]	@ movhi
 3477 0dd4 9BB2     		uxth	r3, r3
 3478 0dd6 1846     		mov	r0, r3
 3479 0dd8 FFF7FEFF 		bl	__aeabi_ui2f
 3480 0ddc 0446     		mov	r4, r0
 3481 0dde 224A     		ldr	r2, .L233+16
 3482 0de0 3B6F     		ldr	r3, [r7, #112]
 3483 0de2 0833     		adds	r3, r3, #8
 3484 0de4 52F82310 		ldr	r1, [r2, r3, lsl #2]	@ float
 3485 0de8 1F4A     		ldr	r2, .L233+16
 3486 0dea 3B6F     		ldr	r3, [r7, #112]
 3487 0dec 0C33     		adds	r3, r3, #12
 3488 0dee 52F82320 		ldr	r2, [r2, r3, lsl #2]	@ float
 3489 0df2 1F4B     		ldr	r3, .L233+24
 3490 0df4 9868     		ldr	r0, [r3, #8]	@ float
 3491 0df6 1E4B     		ldr	r3, .L233+24
 3492 0df8 DB68     		ldr	r3, [r3, #12]	@ float
 3493 0dfa 0093     		str	r3, [sp]	@ float
 3494 0dfc 0346     		mov	r3, r0
 3495 0dfe 2046     		mov	r0, r4
 3496 0e00 FFF7FEFF 		bl	map
 3497 0e04 0146     		mov	r1, r0
 3498 0e06 194A     		ldr	r2, .L233+20
 3499 0e08 3B6F     		ldr	r3, [r7, #112]
 3500 0e0a 42F82310 		str	r1, [r2, r3, lsl #2]	@ float
 3501              	.L114:
1146:main.c        ****     				}
1147:main.c        **** 
1148:main.c        ****                     invStringMappedPositions[i] = 1.0f / stringMappedPositions[i];
 3502              		.loc 1 1148 0
 3503 0e0e 174A     		ldr	r2, .L233+20
 3504 0e10 3B6F     		ldr	r3, [r7, #112]
 3505 0e12 52F82330 		ldr	r3, [r2, r3, lsl #2]	@ float
 3506 0e16 1946     		mov	r1, r3
 3507 0e18 4FF07E50 		mov	r0, #1065353216
 3508 0e1c FFF7FEFF 		bl	__aeabi_fdiv
 3509 0e20 0346     		mov	r3, r0
 3510 0e22 1946     		mov	r1, r3
 3511 0e24 134A     		ldr	r2, .L233+28
 3512 0e26 3B6F     		ldr	r3, [r7, #112]
 3513 0e28 42F82310 		str	r1, [r2, r3, lsl #2]	@ float
 3514              	.L110:
1149:main.c        ****                 }
1150:main.c        ****                 //
1151:main.c        ****                 prevBar[i] = bar[i];
 3515              		.loc 1 1151 0 discriminator 2
 3516 0e2c 0C4A     		ldr	r2, .L233+8
 3517 0e2e 3B6F     		ldr	r3, [r7, #112]
 3518 0e30 32F81330 		ldrh	r3, [r2, r3, lsl #1]	@ movhi
 3519 0e34 99B2     		uxth	r1, r3
 3520 0e36 0B4A     		ldr	r2, .L233+12
 3521 0e38 3B6F     		ldr	r3, [r7, #112]
 3522 0e3a 22F81310 		strh	r1, [r2, r3, lsl #1]	@ movhi
1122:main.c        ****             {
 3523              		.loc 1 1122 0 discriminator 2
 3524 0e3e 3B6F     		ldr	r3, [r7, #112]
ARM GAS  C:\Users\JEFFSN~1\AppData\Local\Temp\ccEPDFmT.s 			page 84


 3525 0e40 0133     		adds	r3, r3, #1
 3526 0e42 3B67     		str	r3, [r7, #112]
 3527              	.L109:
1122:main.c        ****             {
 3528              		.loc 1 1122 0 is_stmt 0 discriminator 1
 3529 0e44 3B6F     		ldr	r3, [r7, #112]
 3530 0e46 012B     		cmp	r3, #1
 3531 0e48 7FF7D6AE 		ble	.L121
 3532              	.L108:
 3533              	.LBE22:
1152:main.c        ****             }
1153:main.c        ****         }
1154:main.c        ****         
1155:main.c        ****         testpin5_Write(0);
 3534              		.loc 1 1155 0 is_stmt 1
 3535 0e4c 0020     		movs	r0, #0
 3536 0e4e FFF7FEFF 		bl	testpin5_Write
 3537              	.LBB23:
1156:main.c        ****         for (int i = 0 ; i < numStrings; i++)
 3538              		.loc 1 1156 0
 3539 0e52 0023     		movs	r3, #0
 3540 0e54 FB66     		str	r3, [r7, #108]
 3541 0e56 2AE0     		b	.L122
 3542              	.L234:
 3543              		.align	2
 3544              	.L233:
 3545 0e58 00000000 		.word	currentBarBuffer
 3546 0e5c 00000000 		.word	rxBufferBar
 3547 0e60 00000000 		.word	bar
 3548 0e64 00000000 		.word	prevBar
 3549 0e68 00000000 		.word	fretMeasurements
 3550 0e6c 00000000 		.word	stringMappedPositions
 3551 0e70 00000000 		.word	fretScaling
 3552 0e74 00000000 		.word	invStringMappedPositions
 3553              	.L124:
1157:main.c        ****         {
1158:main.c        ****             if (strings[i] != prevStrings[i])
 3554              		.loc 1 1158 0
 3555 0e78 AF4A     		ldr	r2, .L235
 3556 0e7a FB6E     		ldr	r3, [r7, #108]
 3557 0e7c 32F81330 		ldrh	r3, [r2, r3, lsl #1]	@ movhi
 3558 0e80 9AB2     		uxth	r2, r3
 3559 0e82 AE49     		ldr	r1, .L235+4
 3560 0e84 FB6E     		ldr	r3, [r7, #108]
 3561 0e86 31F81330 		ldrh	r3, [r1, r3, lsl #1]	@ movhi
 3562 0e8a 9BB2     		uxth	r3, r3
 3563 0e8c 9A42     		cmp	r2, r3
 3564 0e8e 02D0     		beq	.L123
1159:main.c        ****             {
1160:main.c        ****                 noteEvent(i);
 3565              		.loc 1 1160 0
 3566 0e90 F86E     		ldr	r0, [r7, #108]
 3567 0e92 FFF7FEFF 		bl	noteEvent
 3568              	.L123:
1161:main.c        ****             }
1162:main.c        ****             prevStrings[i] = strings[i];
 3569              		.loc 1 1162 0 discriminator 2
ARM GAS  C:\Users\JEFFSN~1\AppData\Local\Temp\ccEPDFmT.s 			page 85


 3570 0e96 A84A     		ldr	r2, .L235
 3571 0e98 FB6E     		ldr	r3, [r7, #108]
 3572 0e9a 32F81330 		ldrh	r3, [r2, r3, lsl #1]	@ movhi
 3573 0e9e 99B2     		uxth	r1, r3
 3574 0ea0 A64A     		ldr	r2, .L235+4
 3575 0ea2 FB6E     		ldr	r3, [r7, #108]
 3576 0ea4 22F81310 		strh	r1, [r2, r3, lsl #1]	@ movhi
1156:main.c        ****         {
 3577              		.loc 1 1156 0 discriminator 2
 3578 0ea8 FB6E     		ldr	r3, [r7, #108]
 3579 0eaa 0133     		adds	r3, r3, #1
 3580 0eac FB66     		str	r3, [r7, #108]
 3581              	.L122:
1156:main.c        ****         {
 3582              		.loc 1 1156 0 is_stmt 0 discriminator 1
 3583 0eae A44B     		ldr	r3, .L235+8
 3584 0eb0 1B68     		ldr	r3, [r3]
 3585 0eb2 FA6E     		ldr	r2, [r7, #108]
 3586 0eb4 9A42     		cmp	r2, r3
 3587 0eb6 DFDB     		blt	.L124
 3588              	.LBE23:
1163:main.c        ****         }
1164:main.c        ****         
1165:main.c        **** 
1166:main.c        **** 
1167:main.c        ****         
1168:main.c        ****         
1169:main.c        ****         if (!oct1_Read())
 3589              		.loc 1 1169 0 is_stmt 1
 3590 0eb8 FFF7FEFF 		bl	oct1_Read
 3591 0ebc 0346     		mov	r3, r0
 3592 0ebe 002B     		cmp	r3, #0
 3593 0ec0 24D1     		bne	.L125
1170:main.c        ****         {
1171:main.c        ****             if (octave > 4)
 3594              		.loc 1 1171 0
 3595 0ec2 A04B     		ldr	r3, .L235+12
 3596 0ec4 1B68     		ldr	r3, [r3]
 3597 0ec6 042B     		cmp	r3, #4
 3598 0ec8 03DD     		ble	.L126
1172:main.c        ****             {
1173:main.c        ****                 octave = 4;
 3599              		.loc 1 1173 0
 3600 0eca 9E4B     		ldr	r3, .L235+12
 3601 0ecc 0422     		movs	r2, #4
 3602 0ece 1A60     		str	r2, [r3]
 3603 0ed0 0CE0     		b	.L127
 3604              	.L126:
1174:main.c        **** 
1175:main.c        ****             }
1176:main.c        ****             else if ((oct1Up) && (octave > 0))
 3605              		.loc 1 1176 0
 3606 0ed2 9D4B     		ldr	r3, .L235+16
 3607 0ed4 1B78     		ldrb	r3, [r3]	@ zero_extendqisi2
 3608 0ed6 002B     		cmp	r3, #0
 3609 0ed8 08D0     		beq	.L127
 3610              		.loc 1 1176 0 is_stmt 0 discriminator 1
ARM GAS  C:\Users\JEFFSN~1\AppData\Local\Temp\ccEPDFmT.s 			page 86


 3611 0eda 9A4B     		ldr	r3, .L235+12
 3612 0edc 1B68     		ldr	r3, [r3]
 3613 0ede 002B     		cmp	r3, #0
 3614 0ee0 04DD     		ble	.L127
1177:main.c        ****             {
1178:main.c        ****                 octave--;
 3615              		.loc 1 1178 0 is_stmt 1
 3616 0ee2 984B     		ldr	r3, .L235+12
 3617 0ee4 1B68     		ldr	r3, [r3]
 3618 0ee6 013B     		subs	r3, r3, #1
 3619 0ee8 964A     		ldr	r2, .L235+12
 3620 0eea 1360     		str	r3, [r2]
 3621              	.L127:
1179:main.c        ****             }
1180:main.c        ****             LED_amber1_Write(1);
 3622              		.loc 1 1180 0
 3623 0eec 0120     		movs	r0, #1
 3624 0eee FFF7FEFF 		bl	LED_amber1_Write
1181:main.c        ****             LED_amber2_Write(0);
 3625              		.loc 1 1181 0
 3626 0ef2 0020     		movs	r0, #0
 3627 0ef4 FFF7FEFF 		bl	LED_amber2_Write
1182:main.c        ****             LED_amber3_Write(0);
 3628              		.loc 1 1182 0
 3629 0ef8 0020     		movs	r0, #0
 3630 0efa FFF7FEFF 		bl	LED_amber3_Write
1183:main.c        ****             LED_amber4_Write(0);
 3631              		.loc 1 1183 0
 3632 0efe 0020     		movs	r0, #0
 3633 0f00 FFF7FEFF 		bl	LED_amber4_Write
1184:main.c        ****             oct1Up = 0;
 3634              		.loc 1 1184 0
 3635 0f04 904B     		ldr	r3, .L235+16
 3636 0f06 0022     		movs	r2, #0
 3637 0f08 1A70     		strb	r2, [r3]
 3638 0f0a 07E0     		b	.L128
 3639              	.L125:
1185:main.c        ****         }
1186:main.c        ****         
1187:main.c        ****         else if (oct1_Read())
 3640              		.loc 1 1187 0
 3641 0f0c FFF7FEFF 		bl	oct1_Read
 3642 0f10 0346     		mov	r3, r0
 3643 0f12 002B     		cmp	r3, #0
 3644 0f14 02D0     		beq	.L128
1188:main.c        ****         {
1189:main.c        ****             oct1Up = 1;
 3645              		.loc 1 1189 0
 3646 0f16 8C4B     		ldr	r3, .L235+16
 3647 0f18 0122     		movs	r2, #1
 3648 0f1a 1A70     		strb	r2, [r3]
 3649              	.L128:
1190:main.c        ****         }
1191:main.c        ****         
1192:main.c        ****         if (!oct2_Read())
 3650              		.loc 1 1192 0
 3651 0f1c FFF7FEFF 		bl	oct2_Read
ARM GAS  C:\Users\JEFFSN~1\AppData\Local\Temp\ccEPDFmT.s 			page 87


 3652 0f20 0346     		mov	r3, r0
 3653 0f22 002B     		cmp	r3, #0
 3654 0f24 0ED1     		bne	.L129
1193:main.c        ****         {
1194:main.c        ****             octave = 5;
 3655              		.loc 1 1194 0
 3656 0f26 874B     		ldr	r3, .L235+12
 3657 0f28 0522     		movs	r2, #5
 3658 0f2a 1A60     		str	r2, [r3]
1195:main.c        ****             LED_amber1_Write(0);
 3659              		.loc 1 1195 0
 3660 0f2c 0020     		movs	r0, #0
 3661 0f2e FFF7FEFF 		bl	LED_amber1_Write
1196:main.c        ****             LED_amber2_Write(1);
 3662              		.loc 1 1196 0
 3663 0f32 0120     		movs	r0, #1
 3664 0f34 FFF7FEFF 		bl	LED_amber2_Write
1197:main.c        ****             LED_amber3_Write(0);
 3665              		.loc 1 1197 0
 3666 0f38 0020     		movs	r0, #0
 3667 0f3a FFF7FEFF 		bl	LED_amber3_Write
1198:main.c        ****             LED_amber4_Write(0);
 3668              		.loc 1 1198 0
 3669 0f3e 0020     		movs	r0, #0
 3670 0f40 FFF7FEFF 		bl	LED_amber4_Write
 3671              	.L129:
1199:main.c        ****         }
1200:main.c        ****         if (!oct3_Read())
 3672              		.loc 1 1200 0
 3673 0f44 FFF7FEFF 		bl	oct3_Read
 3674 0f48 0346     		mov	r3, r0
 3675 0f4a 002B     		cmp	r3, #0
 3676 0f4c 0ED1     		bne	.L130
1201:main.c        ****         {
1202:main.c        ****             octave = 6;
 3677              		.loc 1 1202 0
 3678 0f4e 7D4B     		ldr	r3, .L235+12
 3679 0f50 0622     		movs	r2, #6
 3680 0f52 1A60     		str	r2, [r3]
1203:main.c        ****             LED_amber1_Write(0);
 3681              		.loc 1 1203 0
 3682 0f54 0020     		movs	r0, #0
 3683 0f56 FFF7FEFF 		bl	LED_amber1_Write
1204:main.c        ****             LED_amber2_Write(0);
 3684              		.loc 1 1204 0
 3685 0f5a 0020     		movs	r0, #0
 3686 0f5c FFF7FEFF 		bl	LED_amber2_Write
1205:main.c        ****             LED_amber3_Write(1);
 3687              		.loc 1 1205 0
 3688 0f60 0120     		movs	r0, #1
 3689 0f62 FFF7FEFF 		bl	LED_amber3_Write
1206:main.c        ****             LED_amber4_Write(0);            
 3690              		.loc 1 1206 0
 3691 0f66 0020     		movs	r0, #0
 3692 0f68 FFF7FEFF 		bl	LED_amber4_Write
 3693              	.L130:
1207:main.c        ****         }
ARM GAS  C:\Users\JEFFSN~1\AppData\Local\Temp\ccEPDFmT.s 			page 88


1208:main.c        ****         if (!oct4_Read())
 3694              		.loc 1 1208 0
 3695 0f6c FFF7FEFF 		bl	oct4_Read
 3696 0f70 0346     		mov	r3, r0
 3697 0f72 002B     		cmp	r3, #0
 3698 0f74 24D1     		bne	.L131
1209:main.c        ****         {
1210:main.c        ****             if (octave < 7)
 3699              		.loc 1 1210 0
 3700 0f76 734B     		ldr	r3, .L235+12
 3701 0f78 1B68     		ldr	r3, [r3]
 3702 0f7a 062B     		cmp	r3, #6
 3703 0f7c 03DC     		bgt	.L132
1211:main.c        ****             {
1212:main.c        ****                 octave = 7;
 3704              		.loc 1 1212 0
 3705 0f7e 714B     		ldr	r3, .L235+12
 3706 0f80 0722     		movs	r2, #7
 3707 0f82 1A60     		str	r2, [r3]
 3708 0f84 0CE0     		b	.L133
 3709              	.L132:
1213:main.c        **** 
1214:main.c        ****             }
1215:main.c        ****             else if ((oct4Up) && (octave < 11))
 3710              		.loc 1 1215 0
 3711 0f86 714B     		ldr	r3, .L235+20
 3712 0f88 1B78     		ldrb	r3, [r3]	@ zero_extendqisi2
 3713 0f8a 002B     		cmp	r3, #0
 3714 0f8c 08D0     		beq	.L133
 3715              		.loc 1 1215 0 is_stmt 0 discriminator 1
 3716 0f8e 6D4B     		ldr	r3, .L235+12
 3717 0f90 1B68     		ldr	r3, [r3]
 3718 0f92 0A2B     		cmp	r3, #10
 3719 0f94 04DC     		bgt	.L133
1216:main.c        ****             {
1217:main.c        ****                 octave++;
 3720              		.loc 1 1217 0 is_stmt 1
 3721 0f96 6B4B     		ldr	r3, .L235+12
 3722 0f98 1B68     		ldr	r3, [r3]
 3723 0f9a 0133     		adds	r3, r3, #1
 3724 0f9c 694A     		ldr	r2, .L235+12
 3725 0f9e 1360     		str	r3, [r2]
 3726              	.L133:
1218:main.c        **** 
1219:main.c        ****             }
1220:main.c        ****             LED_amber1_Write(0);
 3727              		.loc 1 1220 0
 3728 0fa0 0020     		movs	r0, #0
 3729 0fa2 FFF7FEFF 		bl	LED_amber1_Write
1221:main.c        ****             LED_amber2_Write(0);
 3730              		.loc 1 1221 0
 3731 0fa6 0020     		movs	r0, #0
 3732 0fa8 FFF7FEFF 		bl	LED_amber2_Write
1222:main.c        ****             LED_amber3_Write(0);
 3733              		.loc 1 1222 0
 3734 0fac 0020     		movs	r0, #0
 3735 0fae FFF7FEFF 		bl	LED_amber3_Write
ARM GAS  C:\Users\JEFFSN~1\AppData\Local\Temp\ccEPDFmT.s 			page 89


1223:main.c        ****             LED_amber4_Write(1);
 3736              		.loc 1 1223 0
 3737 0fb2 0120     		movs	r0, #1
 3738 0fb4 FFF7FEFF 		bl	LED_amber4_Write
1224:main.c        ****             oct4Up = 0;
 3739              		.loc 1 1224 0
 3740 0fb8 644B     		ldr	r3, .L235+20
 3741 0fba 0022     		movs	r2, #0
 3742 0fbc 1A70     		strb	r2, [r3]
 3743 0fbe 07E0     		b	.L134
 3744              	.L131:
1225:main.c        ****         }
1226:main.c        ****         
1227:main.c        ****         else if (oct4_Read())
 3745              		.loc 1 1227 0
 3746 0fc0 FFF7FEFF 		bl	oct4_Read
 3747 0fc4 0346     		mov	r3, r0
 3748 0fc6 002B     		cmp	r3, #0
 3749 0fc8 02D0     		beq	.L134
1228:main.c        ****         {
1229:main.c        ****             oct4Up = 1;
 3750              		.loc 1 1229 0
 3751 0fca 604B     		ldr	r3, .L235+20
 3752 0fcc 0122     		movs	r2, #1
 3753 0fce 1A70     		strb	r2, [r3]
 3754              	.L134:
1230:main.c        ****         }
1231:main.c        ****         
1232:main.c        ****         if (!neck1_button_Read())
 3755              		.loc 1 1232 0
 3756 0fd0 FFF7FEFF 		bl	neck1_button_Read
 3757 0fd4 0346     		mov	r3, r0
 3758 0fd6 002B     		cmp	r3, #0
 3759 0fd8 10D1     		bne	.L135
1233:main.c        ****         {
1234:main.c        ****             currentNeck = 0;
 3760              		.loc 1 1234 0
 3761 0fda 5D4B     		ldr	r3, .L235+24
 3762 0fdc 0022     		movs	r2, #0
 3763 0fde 1A60     		str	r2, [r3]
1235:main.c        ****             currentCopedent = necks[currentNeck];
 3764              		.loc 1 1235 0
 3765 0fe0 5B4B     		ldr	r3, .L235+24
 3766 0fe2 1B68     		ldr	r3, [r3]
 3767 0fe4 5B4A     		ldr	r2, .L235+28
 3768 0fe6 D25C     		ldrb	r2, [r2, r3]	@ zero_extendqisi2
 3769 0fe8 5B4B     		ldr	r3, .L235+32
 3770 0fea 1A70     		strb	r2, [r3]
1236:main.c        ****             LED_red1_Write(0);
 3771              		.loc 1 1236 0
 3772 0fec 0020     		movs	r0, #0
 3773 0fee FFF7FEFF 		bl	LED_red1_Write
1237:main.c        ****             LED_green2_Write(1);
 3774              		.loc 1 1237 0
 3775 0ff2 0120     		movs	r0, #1
 3776 0ff4 FFF7FEFF 		bl	LED_green2_Write
1238:main.c        ****             displayCurrentPresetNameAndCopedent();
ARM GAS  C:\Users\JEFFSN~1\AppData\Local\Temp\ccEPDFmT.s 			page 90


 3777              		.loc 1 1238 0
 3778 0ff8 FFF7FEFF 		bl	displayCurrentPresetNameAndCopedent
 3779              	.L135:
1239:main.c        ****         }
1240:main.c        ****         if (!neck2_button_Read())
 3780              		.loc 1 1240 0
 3781 0ffc FFF7FEFF 		bl	neck2_button_Read
 3782 1000 0346     		mov	r3, r0
 3783 1002 002B     		cmp	r3, #0
 3784 1004 10D1     		bne	.L136
1241:main.c        ****         {
1242:main.c        ****             currentNeck = 1;
 3785              		.loc 1 1242 0
 3786 1006 524B     		ldr	r3, .L235+24
 3787 1008 0122     		movs	r2, #1
 3788 100a 1A60     		str	r2, [r3]
1243:main.c        ****             currentCopedent = necks[currentNeck];            
 3789              		.loc 1 1243 0
 3790 100c 504B     		ldr	r3, .L235+24
 3791 100e 1B68     		ldr	r3, [r3]
 3792 1010 504A     		ldr	r2, .L235+28
 3793 1012 D25C     		ldrb	r2, [r2, r3]	@ zero_extendqisi2
 3794 1014 504B     		ldr	r3, .L235+32
 3795 1016 1A70     		strb	r2, [r3]
1244:main.c        ****             LED_red1_Write(1);
 3796              		.loc 1 1244 0
 3797 1018 0120     		movs	r0, #1
 3798 101a FFF7FEFF 		bl	LED_red1_Write
1245:main.c        ****             LED_green2_Write(0);          
 3799              		.loc 1 1245 0
 3800 101e 0020     		movs	r0, #0
 3801 1020 FFF7FEFF 		bl	LED_green2_Write
1246:main.c        ****             displayCurrentPresetNameAndCopedent();
 3802              		.loc 1 1246 0
 3803 1024 FFF7FEFF 		bl	displayCurrentPresetNameAndCopedent
 3804              	.L136:
1247:main.c        ****         }
1248:main.c        ****         
1249:main.c        ****         if ((!enter_button_Read()) && (enterUp))
 3805              		.loc 1 1249 0
 3806 1028 FFF7FEFF 		bl	enter_button_Read
 3807 102c 0346     		mov	r3, r0
 3808 102e 002B     		cmp	r3, #0
 3809 1030 16D1     		bne	.L137
 3810              		.loc 1 1249 0 is_stmt 0 discriminator 1
 3811 1032 4A4B     		ldr	r3, .L235+36
 3812 1034 1B78     		ldrb	r3, [r3]	@ zero_extendqisi2
 3813 1036 002B     		cmp	r3, #0
 3814 1038 12D0     		beq	.L137
1250:main.c        ****         {
1251:main.c        ****             dualSlider = !dualSlider;
 3815              		.loc 1 1251 0 is_stmt 1
 3816 103a 494B     		ldr	r3, .L235+40
 3817 103c 1B78     		ldrb	r3, [r3]	@ zero_extendqisi2
 3818 103e 002B     		cmp	r3, #0
 3819 1040 0CBF     		ite	eq
 3820 1042 0123     		moveq	r3, #1
ARM GAS  C:\Users\JEFFSN~1\AppData\Local\Temp\ccEPDFmT.s 			page 91


 3821 1044 0023     		movne	r3, #0
 3822 1046 DBB2     		uxtb	r3, r3
 3823 1048 1A46     		mov	r2, r3
 3824 104a 454B     		ldr	r3, .L235+40
 3825 104c 1A70     		strb	r2, [r3]
1252:main.c        ****             LED_green1_Write(dualSlider);
 3826              		.loc 1 1252 0
 3827 104e 444B     		ldr	r3, .L235+40
 3828 1050 1B78     		ldrb	r3, [r3]	@ zero_extendqisi2
 3829 1052 1846     		mov	r0, r3
 3830 1054 FFF7FEFF 		bl	LED_green1_Write
1253:main.c        ****             enterUp = 0;
 3831              		.loc 1 1253 0
 3832 1058 404B     		ldr	r3, .L235+36
 3833 105a 0022     		movs	r2, #0
 3834 105c 1A70     		strb	r2, [r3]
 3835 105e 07E0     		b	.L138
 3836              	.L137:
1254:main.c        ****         }
1255:main.c        ****         else if (enter_button_Read())
 3837              		.loc 1 1255 0
 3838 1060 FFF7FEFF 		bl	enter_button_Read
 3839 1064 0346     		mov	r3, r0
 3840 1066 002B     		cmp	r3, #0
 3841 1068 02D0     		beq	.L138
1256:main.c        ****         {
1257:main.c        ****             enterUp = 1;
 3842              		.loc 1 1257 0
 3843 106a 3C4B     		ldr	r3, .L235+36
 3844 106c 0122     		movs	r2, #1
 3845 106e 1A70     		strb	r2, [r3]
 3846              	.L138:
1258:main.c        ****         }
1259:main.c        ****         
1260:main.c        ****         
1261:main.c        ****         if (!editMode)
 3847              		.loc 1 1261 0
 3848 1070 3C4B     		ldr	r3, .L235+44
 3849 1072 1B68     		ldr	r3, [r3]
 3850 1074 002B     		cmp	r3, #0
 3851 1076 40F0CD80 		bne	.L139
1262:main.c        ****         {
1263:main.c        ****         
1264:main.c        ****             if ((!button1_Read()) && (button1Up))
 3852              		.loc 1 1264 0
 3853 107a FFF7FEFF 		bl	button1_Read
 3854 107e 0346     		mov	r3, r0
 3855 1080 002B     		cmp	r3, #0
 3856 1082 25D1     		bne	.L140
 3857              		.loc 1 1264 0 is_stmt 0 discriminator 1
 3858 1084 384B     		ldr	r3, .L235+48
 3859 1086 1B78     		ldrb	r3, [r3]	@ zero_extendqisi2
 3860 1088 002B     		cmp	r3, #0
 3861 108a 21D0     		beq	.L140
1265:main.c        ****             {
1266:main.c        ****                 currentCopedent -= 1;
 3862              		.loc 1 1266 0 is_stmt 1
ARM GAS  C:\Users\JEFFSN~1\AppData\Local\Temp\ccEPDFmT.s 			page 92


 3863 108c 324B     		ldr	r3, .L235+32
 3864 108e 1B78     		ldrb	r3, [r3]	@ zero_extendqisi2
 3865 1090 013B     		subs	r3, r3, #1
 3866 1092 DAB2     		uxtb	r2, r3
 3867 1094 304B     		ldr	r3, .L235+32
 3868 1096 1A70     		strb	r2, [r3]
1267:main.c        ****                 currentCopedent &= 31;
 3869              		.loc 1 1267 0
 3870 1098 2F4B     		ldr	r3, .L235+32
 3871 109a 1B78     		ldrb	r3, [r3]	@ zero_extendqisi2
 3872 109c 03F01F03 		and	r3, r3, #31
 3873 10a0 DAB2     		uxtb	r2, r3
 3874 10a2 2D4B     		ldr	r3, .L235+32
 3875 10a4 1A70     		strb	r2, [r3]
1268:main.c        ****                 necks[currentNeck] = currentCopedent;
 3876              		.loc 1 1268 0
 3877 10a6 2A4B     		ldr	r3, .L235+24
 3878 10a8 1B68     		ldr	r3, [r3]
 3879 10aa 2B4A     		ldr	r2, .L235+32
 3880 10ac 1178     		ldrb	r1, [r2]	@ zero_extendqisi2
 3881 10ae 294A     		ldr	r2, .L235+28
 3882 10b0 D154     		strb	r1, [r2, r3]
1269:main.c        ****                 EEPROM_WriteByte(currentCopedent, EEPROM_NECKS_OFFSET + currentNeck);
 3883              		.loc 1 1269 0
 3884 10b2 294B     		ldr	r3, .L235+32
 3885 10b4 1A78     		ldrb	r2, [r3]	@ zero_extendqisi2
 3886 10b6 264B     		ldr	r3, .L235+24
 3887 10b8 1B68     		ldr	r3, [r3]
 3888 10ba 9BB2     		uxth	r3, r3
 3889 10bc 1946     		mov	r1, r3
 3890 10be 1046     		mov	r0, r2
 3891 10c0 FFF7FEFF 		bl	EEPROM_WriteByte
1270:main.c        ****                 displayCurrentPresetNameAndCopedent();
 3892              		.loc 1 1270 0
 3893 10c4 FFF7FEFF 		bl	displayCurrentPresetNameAndCopedent
1271:main.c        ****                 button1Up = 0;
 3894              		.loc 1 1271 0
 3895 10c8 274B     		ldr	r3, .L235+48
 3896 10ca 0022     		movs	r2, #0
 3897 10cc 1A70     		strb	r2, [r3]
 3898 10ce 07E0     		b	.L141
 3899              	.L140:
1272:main.c        ****             }
1273:main.c        ****             else if (button1_Read())
 3900              		.loc 1 1273 0
 3901 10d0 FFF7FEFF 		bl	button1_Read
 3902 10d4 0346     		mov	r3, r0
 3903 10d6 002B     		cmp	r3, #0
 3904 10d8 02D0     		beq	.L141
1274:main.c        ****             {
1275:main.c        ****                 button1Up = 1;
 3905              		.loc 1 1275 0
 3906 10da 234B     		ldr	r3, .L235+48
 3907 10dc 0122     		movs	r2, #1
 3908 10de 1A70     		strb	r2, [r3]
 3909              	.L141:
1276:main.c        ****             }
ARM GAS  C:\Users\JEFFSN~1\AppData\Local\Temp\ccEPDFmT.s 			page 93


1277:main.c        ****             
1278:main.c        ****             if ((!button2_Read()) && (button2Up))
 3910              		.loc 1 1278 0
 3911 10e0 FFF7FEFF 		bl	button2_Read
 3912 10e4 0346     		mov	r3, r0
 3913 10e6 002B     		cmp	r3, #0
 3914 10e8 42D1     		bne	.L142
 3915              		.loc 1 1278 0 is_stmt 0 discriminator 1
 3916 10ea 204B     		ldr	r3, .L235+52
 3917 10ec 1B78     		ldrb	r3, [r3]	@ zero_extendqisi2
 3918 10ee 002B     		cmp	r3, #0
 3919 10f0 3ED0     		beq	.L142
1279:main.c        ****             {
1280:main.c        ****                 currentCopedent += 1;
 3920              		.loc 1 1280 0 is_stmt 1
 3921 10f2 194B     		ldr	r3, .L235+32
 3922 10f4 1B78     		ldrb	r3, [r3]	@ zero_extendqisi2
 3923 10f6 0133     		adds	r3, r3, #1
 3924 10f8 DAB2     		uxtb	r2, r3
 3925 10fa 174B     		ldr	r3, .L235+32
 3926 10fc 1A70     		strb	r2, [r3]
1281:main.c        ****                 currentCopedent &= 31;
 3927              		.loc 1 1281 0
 3928 10fe 164B     		ldr	r3, .L235+32
 3929 1100 1B78     		ldrb	r3, [r3]	@ zero_extendqisi2
 3930 1102 03F01F03 		and	r3, r3, #31
 3931 1106 DAB2     		uxtb	r2, r3
 3932 1108 134B     		ldr	r3, .L235+32
 3933 110a 1A70     		strb	r2, [r3]
1282:main.c        ****                 necks[currentNeck] = currentCopedent;
 3934              		.loc 1 1282 0
 3935 110c 104B     		ldr	r3, .L235+24
 3936 110e 1B68     		ldr	r3, [r3]
 3937 1110 114A     		ldr	r2, .L235+32
 3938 1112 1178     		ldrb	r1, [r2]	@ zero_extendqisi2
 3939 1114 0F4A     		ldr	r2, .L235+28
 3940 1116 D154     		strb	r1, [r2, r3]
1283:main.c        ****                 EEPROM_WriteByte(currentCopedent, EEPROM_NECKS_OFFSET + currentNeck);
 3941              		.loc 1 1283 0
 3942 1118 0F4B     		ldr	r3, .L235+32
 3943 111a 1A78     		ldrb	r2, [r3]	@ zero_extendqisi2
 3944 111c 0C4B     		ldr	r3, .L235+24
 3945 111e 1B68     		ldr	r3, [r3]
 3946 1120 9BB2     		uxth	r3, r3
 3947 1122 1946     		mov	r1, r3
 3948 1124 1046     		mov	r0, r2
 3949 1126 FFF7FEFF 		bl	EEPROM_WriteByte
1284:main.c        ****                 
1285:main.c        ****                 displayCurrentPresetNameAndCopedent();
 3950              		.loc 1 1285 0
 3951 112a FFF7FEFF 		bl	displayCurrentPresetNameAndCopedent
1286:main.c        ****                 button2Up = 0;
 3952              		.loc 1 1286 0
 3953 112e 0F4B     		ldr	r3, .L235+52
 3954 1130 0022     		movs	r2, #0
 3955 1132 1A70     		strb	r2, [r3]
 3956 1134 24E0     		b	.L143
ARM GAS  C:\Users\JEFFSN~1\AppData\Local\Temp\ccEPDFmT.s 			page 94


 3957              	.L236:
 3958 1136 00BF     		.align	2
 3959              	.L235:
 3960 1138 00000000 		.word	strings
 3961 113c 00000000 		.word	prevStrings
 3962 1140 00000000 		.word	numStrings
 3963 1144 00000000 		.word	octave
 3964 1148 00000000 		.word	oct1Up
 3965 114c 00000000 		.word	oct4Up
 3966 1150 00000000 		.word	currentNeck
 3967 1154 00000000 		.word	necks
 3968 1158 00000000 		.word	currentCopedent
 3969 115c 00000000 		.word	enterUp
 3970 1160 00000000 		.word	dualSlider
 3971 1164 00000000 		.word	editMode
 3972 1168 00000000 		.word	button1Up
 3973 116c 00000000 		.word	button2Up
 3974              	.L142:
1287:main.c        ****             }
1288:main.c        ****             else if (button2_Read())
 3975              		.loc 1 1288 0
 3976 1170 FFF7FEFF 		bl	button2_Read
 3977 1174 0346     		mov	r3, r0
 3978 1176 002B     		cmp	r3, #0
 3979 1178 02D0     		beq	.L143
1289:main.c        ****             {
1290:main.c        ****                 button2Up = 1;
 3980              		.loc 1 1290 0
 3981 117a AF4B     		ldr	r3, .L237
 3982 117c 0122     		movs	r2, #1
 3983 117e 1A70     		strb	r2, [r3]
 3984              	.L143:
1291:main.c        ****             }
1292:main.c        ****             
1293:main.c        ****             if ((!button3_Read()) && (button3Up))
 3985              		.loc 1 1293 0
 3986 1180 FFF7FEFF 		bl	button3_Read
 3987 1184 0346     		mov	r3, r0
 3988 1186 002B     		cmp	r3, #0
 3989 1188 16D1     		bne	.L144
 3990              		.loc 1 1293 0 is_stmt 0 discriminator 1
 3991 118a AC4B     		ldr	r3, .L237+4
 3992 118c 1B78     		ldrb	r3, [r3]	@ zero_extendqisi2
 3993 118e 002B     		cmp	r3, #0
 3994 1190 12D0     		beq	.L144
1294:main.c        ****             {
1295:main.c        ****                 patchNum -= 1;
 3995              		.loc 1 1295 0 is_stmt 1
 3996 1192 AB4B     		ldr	r3, .L237+8
 3997 1194 1B78     		ldrb	r3, [r3]	@ zero_extendqisi2
 3998 1196 013B     		subs	r3, r3, #1
 3999 1198 DAB2     		uxtb	r2, r3
 4000 119a A94B     		ldr	r3, .L237+8
 4001 119c 1A70     		strb	r2, [r3]
1296:main.c        ****                 patchNum &= 63;
 4002              		.loc 1 1296 0
 4003 119e A84B     		ldr	r3, .L237+8
ARM GAS  C:\Users\JEFFSN~1\AppData\Local\Temp\ccEPDFmT.s 			page 95


 4004 11a0 1B78     		ldrb	r3, [r3]	@ zero_extendqisi2
 4005 11a2 03F03F03 		and	r3, r3, #63
 4006 11a6 DAB2     		uxtb	r2, r3
 4007 11a8 A54B     		ldr	r3, .L237+8
 4008 11aa 1A70     		strb	r2, [r3]
1297:main.c        ****                 displayCurrentPresetNameAndCopedent();
 4009              		.loc 1 1297 0
 4010 11ac FFF7FEFF 		bl	displayCurrentPresetNameAndCopedent
1298:main.c        ****                 button3Up = 0;
 4011              		.loc 1 1298 0
 4012 11b0 A24B     		ldr	r3, .L237+4
 4013 11b2 0022     		movs	r2, #0
 4014 11b4 1A70     		strb	r2, [r3]
 4015 11b6 07E0     		b	.L145
 4016              	.L144:
1299:main.c        ****             }
1300:main.c        ****             else if (button3_Read())
 4017              		.loc 1 1300 0
 4018 11b8 FFF7FEFF 		bl	button3_Read
 4019 11bc 0346     		mov	r3, r0
 4020 11be 002B     		cmp	r3, #0
 4021 11c0 02D0     		beq	.L145
1301:main.c        ****             {
1302:main.c        ****                 button3Up = 1;
 4022              		.loc 1 1302 0
 4023 11c2 9E4B     		ldr	r3, .L237+4
 4024 11c4 0122     		movs	r2, #1
 4025 11c6 1A70     		strb	r2, [r3]
 4026              	.L145:
1303:main.c        ****             }
1304:main.c        ****             
1305:main.c        ****             if ((!button4_Read()) && (button4Up))
 4027              		.loc 1 1305 0
 4028 11c8 FFF7FEFF 		bl	button4_Read
 4029 11cc 0346     		mov	r3, r0
 4030 11ce 002B     		cmp	r3, #0
 4031 11d0 16D1     		bne	.L146
 4032              		.loc 1 1305 0 is_stmt 0 discriminator 1
 4033 11d2 9C4B     		ldr	r3, .L237+12
 4034 11d4 1B78     		ldrb	r3, [r3]	@ zero_extendqisi2
 4035 11d6 002B     		cmp	r3, #0
 4036 11d8 12D0     		beq	.L146
1306:main.c        ****             {
1307:main.c        ****                 patchNum += 1;
 4037              		.loc 1 1307 0 is_stmt 1
 4038 11da 994B     		ldr	r3, .L237+8
 4039 11dc 1B78     		ldrb	r3, [r3]	@ zero_extendqisi2
 4040 11de 0133     		adds	r3, r3, #1
 4041 11e0 DAB2     		uxtb	r2, r3
 4042 11e2 974B     		ldr	r3, .L237+8
 4043 11e4 1A70     		strb	r2, [r3]
1308:main.c        ****                 patchNum &= 63;
 4044              		.loc 1 1308 0
 4045 11e6 964B     		ldr	r3, .L237+8
 4046 11e8 1B78     		ldrb	r3, [r3]	@ zero_extendqisi2
 4047 11ea 03F03F03 		and	r3, r3, #63
 4048 11ee DAB2     		uxtb	r2, r3
ARM GAS  C:\Users\JEFFSN~1\AppData\Local\Temp\ccEPDFmT.s 			page 96


 4049 11f0 934B     		ldr	r3, .L237+8
 4050 11f2 1A70     		strb	r2, [r3]
1309:main.c        ****                 displayCurrentPresetNameAndCopedent();
 4051              		.loc 1 1309 0
 4052 11f4 FFF7FEFF 		bl	displayCurrentPresetNameAndCopedent
1310:main.c        ****                 button4Up = 0;
 4053              		.loc 1 1310 0
 4054 11f8 924B     		ldr	r3, .L237+12
 4055 11fa 0022     		movs	r2, #0
 4056 11fc 1A70     		strb	r2, [r3]
 4057 11fe B7E0     		b	.L148
 4058              	.L146:
1311:main.c        ****             }
1312:main.c        ****             else if (button4_Read())
 4059              		.loc 1 1312 0
 4060 1200 FFF7FEFF 		bl	button4_Read
 4061 1204 0346     		mov	r3, r0
 4062 1206 002B     		cmp	r3, #0
 4063 1208 00F0B280 		beq	.L148
1313:main.c        ****             {
1314:main.c        ****                 button4Up = 1;
 4064              		.loc 1 1314 0
 4065 120c 8D4B     		ldr	r3, .L237+12
 4066 120e 0122     		movs	r2, #1
 4067 1210 1A70     		strb	r2, [r3]
 4068 1212 ADE0     		b	.L148
 4069              	.L139:
1315:main.c        ****             }
1316:main.c        ****         }
1317:main.c        ****         //if in edit mode, then /left right up down work differently
1318:main.c        ****         else
1319:main.c        ****         {
1320:main.c        ****         
1321:main.c        ****             if ((!button1_Read()) && (button1Up))
 4070              		.loc 1 1321 0
 4071 1214 FFF7FEFF 		bl	button1_Read
 4072 1218 0346     		mov	r3, r0
 4073 121a 002B     		cmp	r3, #0
 4074 121c 25D1     		bne	.L149
 4075              		.loc 1 1321 0 is_stmt 0 discriminator 1
 4076 121e 8A4B     		ldr	r3, .L237+16
 4077 1220 1B78     		ldrb	r3, [r3]	@ zero_extendqisi2
 4078 1222 002B     		cmp	r3, #0
 4079 1224 21D0     		beq	.L149
1322:main.c        ****             {
1323:main.c        ****                 currentCopedent -= 1;
 4080              		.loc 1 1323 0 is_stmt 1
 4081 1226 894B     		ldr	r3, .L237+20
 4082 1228 1B78     		ldrb	r3, [r3]	@ zero_extendqisi2
 4083 122a 013B     		subs	r3, r3, #1
 4084 122c DAB2     		uxtb	r2, r3
 4085 122e 874B     		ldr	r3, .L237+20
 4086 1230 1A70     		strb	r2, [r3]
1324:main.c        ****                 currentCopedent &= 31;
 4087              		.loc 1 1324 0
 4088 1232 864B     		ldr	r3, .L237+20
 4089 1234 1B78     		ldrb	r3, [r3]	@ zero_extendqisi2
ARM GAS  C:\Users\JEFFSN~1\AppData\Local\Temp\ccEPDFmT.s 			page 97


 4090 1236 03F01F03 		and	r3, r3, #31
 4091 123a DAB2     		uxtb	r2, r3
 4092 123c 834B     		ldr	r3, .L237+20
 4093 123e 1A70     		strb	r2, [r3]
1325:main.c        ****                 necks[currentNeck] = currentCopedent;
 4094              		.loc 1 1325 0
 4095 1240 834B     		ldr	r3, .L237+24
 4096 1242 1B68     		ldr	r3, [r3]
 4097 1244 814A     		ldr	r2, .L237+20
 4098 1246 1178     		ldrb	r1, [r2]	@ zero_extendqisi2
 4099 1248 824A     		ldr	r2, .L237+28
 4100 124a D154     		strb	r1, [r2, r3]
1326:main.c        ****                 EEPROM_WriteByte(currentCopedent, EEPROM_NECKS_OFFSET + currentNeck);
 4101              		.loc 1 1326 0
 4102 124c 7F4B     		ldr	r3, .L237+20
 4103 124e 1A78     		ldrb	r2, [r3]	@ zero_extendqisi2
 4104 1250 7F4B     		ldr	r3, .L237+24
 4105 1252 1B68     		ldr	r3, [r3]
 4106 1254 9BB2     		uxth	r3, r3
 4107 1256 1946     		mov	r1, r3
 4108 1258 1046     		mov	r0, r2
 4109 125a FFF7FEFF 		bl	EEPROM_WriteByte
1327:main.c        ****                 displayCurrentPresetNameAndCopedent();
 4110              		.loc 1 1327 0
 4111 125e FFF7FEFF 		bl	displayCurrentPresetNameAndCopedent
1328:main.c        ****                 button1Up = 0;
 4112              		.loc 1 1328 0
 4113 1262 794B     		ldr	r3, .L237+16
 4114 1264 0022     		movs	r2, #0
 4115 1266 1A70     		strb	r2, [r3]
 4116 1268 07E0     		b	.L150
 4117              	.L149:
1329:main.c        ****             }
1330:main.c        ****             else if (button1_Read())
 4118              		.loc 1 1330 0
 4119 126a FFF7FEFF 		bl	button1_Read
 4120 126e 0346     		mov	r3, r0
 4121 1270 002B     		cmp	r3, #0
 4122 1272 02D0     		beq	.L150
1331:main.c        ****             {
1332:main.c        ****                 button1Up = 1;
 4123              		.loc 1 1332 0
 4124 1274 744B     		ldr	r3, .L237+16
 4125 1276 0122     		movs	r2, #1
 4126 1278 1A70     		strb	r2, [r3]
 4127              	.L150:
1333:main.c        ****             }
1334:main.c        ****             
1335:main.c        ****             if ((!button2_Read()) && (button2Up))
 4128              		.loc 1 1335 0
 4129 127a FFF7FEFF 		bl	button2_Read
 4130 127e 0346     		mov	r3, r0
 4131 1280 002B     		cmp	r3, #0
 4132 1282 25D1     		bne	.L151
 4133              		.loc 1 1335 0 is_stmt 0 discriminator 1
 4134 1284 6C4B     		ldr	r3, .L237
 4135 1286 1B78     		ldrb	r3, [r3]	@ zero_extendqisi2
ARM GAS  C:\Users\JEFFSN~1\AppData\Local\Temp\ccEPDFmT.s 			page 98


 4136 1288 002B     		cmp	r3, #0
 4137 128a 21D0     		beq	.L151
1336:main.c        ****             {
1337:main.c        ****                 currentCopedent += 1;
 4138              		.loc 1 1337 0 is_stmt 1
 4139 128c 6F4B     		ldr	r3, .L237+20
 4140 128e 1B78     		ldrb	r3, [r3]	@ zero_extendqisi2
 4141 1290 0133     		adds	r3, r3, #1
 4142 1292 DAB2     		uxtb	r2, r3
 4143 1294 6D4B     		ldr	r3, .L237+20
 4144 1296 1A70     		strb	r2, [r3]
1338:main.c        ****                 currentCopedent &= 31;
 4145              		.loc 1 1338 0
 4146 1298 6C4B     		ldr	r3, .L237+20
 4147 129a 1B78     		ldrb	r3, [r3]	@ zero_extendqisi2
 4148 129c 03F01F03 		and	r3, r3, #31
 4149 12a0 DAB2     		uxtb	r2, r3
 4150 12a2 6A4B     		ldr	r3, .L237+20
 4151 12a4 1A70     		strb	r2, [r3]
1339:main.c        ****                 necks[currentNeck] = currentCopedent;
 4152              		.loc 1 1339 0
 4153 12a6 6A4B     		ldr	r3, .L237+24
 4154 12a8 1B68     		ldr	r3, [r3]
 4155 12aa 684A     		ldr	r2, .L237+20
 4156 12ac 1178     		ldrb	r1, [r2]	@ zero_extendqisi2
 4157 12ae 694A     		ldr	r2, .L237+28
 4158 12b0 D154     		strb	r1, [r2, r3]
1340:main.c        ****                 EEPROM_WriteByte(currentCopedent, EEPROM_NECKS_OFFSET + currentNeck);
 4159              		.loc 1 1340 0
 4160 12b2 664B     		ldr	r3, .L237+20
 4161 12b4 1A78     		ldrb	r2, [r3]	@ zero_extendqisi2
 4162 12b6 664B     		ldr	r3, .L237+24
 4163 12b8 1B68     		ldr	r3, [r3]
 4164 12ba 9BB2     		uxth	r3, r3
 4165 12bc 1946     		mov	r1, r3
 4166 12be 1046     		mov	r0, r2
 4167 12c0 FFF7FEFF 		bl	EEPROM_WriteByte
1341:main.c        ****                 displayCurrentPresetNameAndCopedent();  
 4168              		.loc 1 1341 0
 4169 12c4 FFF7FEFF 		bl	displayCurrentPresetNameAndCopedent
1342:main.c        ****                 button2Up = 0;
 4170              		.loc 1 1342 0
 4171 12c8 5B4B     		ldr	r3, .L237
 4172 12ca 0022     		movs	r2, #0
 4173 12cc 1A70     		strb	r2, [r3]
 4174 12ce 07E0     		b	.L152
 4175              	.L151:
1343:main.c        ****             }
1344:main.c        ****             else if (button2_Read())
 4176              		.loc 1 1344 0
 4177 12d0 FFF7FEFF 		bl	button2_Read
 4178 12d4 0346     		mov	r3, r0
 4179 12d6 002B     		cmp	r3, #0
 4180 12d8 02D0     		beq	.L152
1345:main.c        ****             {
1346:main.c        ****                 button2Up = 1;
 4181              		.loc 1 1346 0
ARM GAS  C:\Users\JEFFSN~1\AppData\Local\Temp\ccEPDFmT.s 			page 99


 4182 12da 574B     		ldr	r3, .L237
 4183 12dc 0122     		movs	r2, #1
 4184 12de 1A70     		strb	r2, [r3]
 4185              	.L152:
1347:main.c        ****             }
1348:main.c        ****             
1349:main.c        ****             if ((!button3_Read()) && (button3Up))
 4186              		.loc 1 1349 0
 4187 12e0 FFF7FEFF 		bl	button3_Read
 4188 12e4 0346     		mov	r3, r0
 4189 12e6 002B     		cmp	r3, #0
 4190 12e8 16D1     		bne	.L153
 4191              		.loc 1 1349 0 is_stmt 0 discriminator 1
 4192 12ea 544B     		ldr	r3, .L237+4
 4193 12ec 1B78     		ldrb	r3, [r3]	@ zero_extendqisi2
 4194 12ee 002B     		cmp	r3, #0
 4195 12f0 12D0     		beq	.L153
1350:main.c        ****             {
1351:main.c        ****                 patchNum -= 1;
 4196              		.loc 1 1351 0 is_stmt 1
 4197 12f2 534B     		ldr	r3, .L237+8
 4198 12f4 1B78     		ldrb	r3, [r3]	@ zero_extendqisi2
 4199 12f6 013B     		subs	r3, r3, #1
 4200 12f8 DAB2     		uxtb	r2, r3
 4201 12fa 514B     		ldr	r3, .L237+8
 4202 12fc 1A70     		strb	r2, [r3]
1352:main.c        ****                 patchNum &= 63;
 4203              		.loc 1 1352 0
 4204 12fe 504B     		ldr	r3, .L237+8
 4205 1300 1B78     		ldrb	r3, [r3]	@ zero_extendqisi2
 4206 1302 03F03F03 		and	r3, r3, #63
 4207 1306 DAB2     		uxtb	r2, r3
 4208 1308 4D4B     		ldr	r3, .L237+8
 4209 130a 1A70     		strb	r2, [r3]
1353:main.c        ****                 displayCurrentPresetNameAndCopedent();
 4210              		.loc 1 1353 0
 4211 130c FFF7FEFF 		bl	displayCurrentPresetNameAndCopedent
1354:main.c        ****                 button3Up = 0;
 4212              		.loc 1 1354 0
 4213 1310 4A4B     		ldr	r3, .L237+4
 4214 1312 0022     		movs	r2, #0
 4215 1314 1A70     		strb	r2, [r3]
 4216 1316 07E0     		b	.L154
 4217              	.L153:
1355:main.c        ****             }
1356:main.c        ****             else if (button3_Read())
 4218              		.loc 1 1356 0
 4219 1318 FFF7FEFF 		bl	button3_Read
 4220 131c 0346     		mov	r3, r0
 4221 131e 002B     		cmp	r3, #0
 4222 1320 02D0     		beq	.L154
1357:main.c        ****             {
1358:main.c        ****                 button3Up = 1;
 4223              		.loc 1 1358 0
 4224 1322 464B     		ldr	r3, .L237+4
 4225 1324 0122     		movs	r2, #1
 4226 1326 1A70     		strb	r2, [r3]
ARM GAS  C:\Users\JEFFSN~1\AppData\Local\Temp\ccEPDFmT.s 			page 100


 4227              	.L154:
1359:main.c        ****             }
1360:main.c        ****             
1361:main.c        ****             if ((!button4_Read()) && (button4Up))
 4228              		.loc 1 1361 0
 4229 1328 FFF7FEFF 		bl	button4_Read
 4230 132c 0346     		mov	r3, r0
 4231 132e 002B     		cmp	r3, #0
 4232 1330 16D1     		bne	.L155
 4233              		.loc 1 1361 0 is_stmt 0 discriminator 1
 4234 1332 444B     		ldr	r3, .L237+12
 4235 1334 1B78     		ldrb	r3, [r3]	@ zero_extendqisi2
 4236 1336 002B     		cmp	r3, #0
 4237 1338 12D0     		beq	.L155
1362:main.c        ****             {
1363:main.c        ****                 patchNum += 1;
 4238              		.loc 1 1363 0 is_stmt 1
 4239 133a 414B     		ldr	r3, .L237+8
 4240 133c 1B78     		ldrb	r3, [r3]	@ zero_extendqisi2
 4241 133e 0133     		adds	r3, r3, #1
 4242 1340 DAB2     		uxtb	r2, r3
 4243 1342 3F4B     		ldr	r3, .L237+8
 4244 1344 1A70     		strb	r2, [r3]
1364:main.c        ****                 patchNum &= 63;
 4245              		.loc 1 1364 0
 4246 1346 3E4B     		ldr	r3, .L237+8
 4247 1348 1B78     		ldrb	r3, [r3]	@ zero_extendqisi2
 4248 134a 03F03F03 		and	r3, r3, #63
 4249 134e DAB2     		uxtb	r2, r3
 4250 1350 3B4B     		ldr	r3, .L237+8
 4251 1352 1A70     		strb	r2, [r3]
1365:main.c        ****                 displayCurrentPresetNameAndCopedent();
 4252              		.loc 1 1365 0
 4253 1354 FFF7FEFF 		bl	displayCurrentPresetNameAndCopedent
1366:main.c        ****                 button4Up = 0;
 4254              		.loc 1 1366 0
 4255 1358 3A4B     		ldr	r3, .L237+12
 4256 135a 0022     		movs	r2, #0
 4257 135c 1A70     		strb	r2, [r3]
 4258 135e 07E0     		b	.L148
 4259              	.L155:
1367:main.c        ****             }
1368:main.c        ****             else if (button4_Read())
 4260              		.loc 1 1368 0
 4261 1360 FFF7FEFF 		bl	button4_Read
 4262 1364 0346     		mov	r3, r0
 4263 1366 002B     		cmp	r3, #0
 4264 1368 02D0     		beq	.L148
1369:main.c        ****             {
1370:main.c        ****                 button4Up = 1;
 4265              		.loc 1 1370 0
 4266 136a 364B     		ldr	r3, .L237+12
 4267 136c 0122     		movs	r2, #1
 4268 136e 1A70     		strb	r2, [r3]
 4269              	.L148:
1371:main.c        ****             }
1372:main.c        ****         }
ARM GAS  C:\Users\JEFFSN~1\AppData\Local\Temp\ccEPDFmT.s 			page 101


1373:main.c        ****         if (((!edit_button_Read() && !encoder_button_Read()) && (editUp)) || ((!edit_button_Read() 
 4270              		.loc 1 1373 0
 4271 1370 FFF7FEFF 		bl	edit_button_Read
 4272 1374 0346     		mov	r3, r0
 4273 1376 002B     		cmp	r3, #0
 4274 1378 08D1     		bne	.L156
 4275              		.loc 1 1373 0 is_stmt 0 discriminator 1
 4276 137a FFF7FEFF 		bl	encoder_button_Read
 4277 137e 0346     		mov	r3, r0
 4278 1380 002B     		cmp	r3, #0
 4279 1382 03D1     		bne	.L156
 4280              		.loc 1 1373 0 discriminator 3
 4281 1384 344B     		ldr	r3, .L237+32
 4282 1386 1B78     		ldrb	r3, [r3]	@ zero_extendqisi2
 4283 1388 002B     		cmp	r3, #0
 4284 138a 0FD1     		bne	.L157
 4285              	.L156:
 4286              		.loc 1 1373 0 discriminator 5
 4287 138c FFF7FEFF 		bl	edit_button_Read
 4288 1390 0346     		mov	r3, r0
 4289 1392 002B     		cmp	r3, #0
 4290 1394 40F0D380 		bne	.L158
 4291              		.loc 1 1373 0 discriminator 6
 4292 1398 304B     		ldr	r3, .L237+36
 4293 139a 1B68     		ldr	r3, [r3]
 4294 139c 002B     		cmp	r3, #0
 4295 139e 00F0CE80 		beq	.L158
 4296              		.loc 1 1373 0 discriminator 7
 4297 13a2 2D4B     		ldr	r3, .L237+32
 4298 13a4 1B78     		ldrb	r3, [r3]	@ zero_extendqisi2
 4299 13a6 002B     		cmp	r3, #0
 4300 13a8 00F0C980 		beq	.L158
 4301              	.L157:
1374:main.c        ****         {
1375:main.c        ****             editMode = !editMode;
 4302              		.loc 1 1375 0 is_stmt 1
 4303 13ac 2B4B     		ldr	r3, .L237+36
 4304 13ae 1B68     		ldr	r3, [r3]
 4305 13b0 002B     		cmp	r3, #0
 4306 13b2 0CBF     		ite	eq
 4307 13b4 0123     		moveq	r3, #1
 4308 13b6 0023     		movne	r3, #0
 4309 13b8 DBB2     		uxtb	r3, r3
 4310 13ba 1A46     		mov	r2, r3
 4311 13bc 274B     		ldr	r3, .L237+36
 4312 13be 1A60     		str	r2, [r3]
1376:main.c        ****             //for now edit mode is calibration mode
1377:main.c        ****             calibrationMode = !calibrationMode;
 4313              		.loc 1 1377 0
 4314 13c0 274B     		ldr	r3, .L237+40
 4315 13c2 1B68     		ldr	r3, [r3]
 4316 13c4 002B     		cmp	r3, #0
 4317 13c6 0CBF     		ite	eq
 4318 13c8 0123     		moveq	r3, #1
 4319 13ca 0023     		movne	r3, #0
 4320 13cc DBB2     		uxtb	r3, r3
 4321 13ce 1A46     		mov	r2, r3
ARM GAS  C:\Users\JEFFSN~1\AppData\Local\Temp\ccEPDFmT.s 			page 102


 4322 13d0 234B     		ldr	r3, .L237+40
 4323 13d2 1A60     		str	r2, [r3]
1378:main.c        ****             LED_red2_Write(editMode);
 4324              		.loc 1 1378 0
 4325 13d4 214B     		ldr	r3, .L237+36
 4326 13d6 1B68     		ldr	r3, [r3]
 4327 13d8 DBB2     		uxtb	r3, r3
 4328 13da 1846     		mov	r0, r3
 4329 13dc FFF7FEFF 		bl	LED_red2_Write
1379:main.c        ****             editUp = 0;
 4330              		.loc 1 1379 0
 4331 13e0 1D4B     		ldr	r3, .L237+32
 4332 13e2 0022     		movs	r2, #0
 4333 13e4 1A70     		strb	r2, [r3]
1380:main.c        ****             if (editMode)
 4334              		.loc 1 1380 0
 4335 13e6 1D4B     		ldr	r3, .L237+36
 4336 13e8 1B68     		ldr	r3, [r3]
 4337 13ea 002B     		cmp	r3, #0
 4338 13ec 56D0     		beq	.L159
1381:main.c        ****             {
1382:main.c        ****                 //#if 0
1383:main.c        ****                 OLEDclear(128, 64);
 4339              		.loc 1 1383 0
 4340 13ee 4021     		movs	r1, #64
 4341 13f0 8020     		movs	r0, #128
 4342 13f2 FFF7FEFF 		bl	OLEDclear
1384:main.c        ****         
1385:main.c        ****                 myGFX_setFont(0);
 4343              		.loc 1 1385 0
 4344 13f6 0020     		movs	r0, #0
 4345 13f8 FFF7FEFF 		bl	myGFX_setFont
1386:main.c        ****                 
1387:main.c        ****                 OLEDwriteString("CALIBRATION", 11, 1, FirstLine);
 4346              		.loc 1 1387 0
 4347 13fc 0023     		movs	r3, #0
 4348 13fe 0122     		movs	r2, #1
 4349 1400 0B21     		movs	r1, #11
 4350 1402 1848     		ldr	r0, .L237+44
 4351 1404 FFF7FEFF 		bl	OLEDwriteString
1388:main.c        ****                 OLEDwriteString("MOVE PEDALS", 11, 1, SecondLine);
 4352              		.loc 1 1388 0
 4353 1408 0123     		movs	r3, #1
 4354 140a 0122     		movs	r2, #1
 4355 140c 0B21     		movs	r1, #11
 4356 140e 1648     		ldr	r0, .L237+48
 4357 1410 FFF7FEFF 		bl	OLEDwriteString
1389:main.c        ****                 OLEDwriteString("AND LEVERS", 11, 1, ThirdLine);
 4358              		.loc 1 1389 0
 4359 1414 0223     		movs	r3, #2
 4360 1416 0122     		movs	r2, #1
 4361 1418 0B21     		movs	r1, #11
 4362 141a 1448     		ldr	r0, .L237+52
 4363 141c FFF7FEFF 		bl	OLEDwriteString
1390:main.c        ****                 OLEDwriteString("THEN EXIT", 11, 1, FourthLine);
 4364              		.loc 1 1390 0
 4365 1420 0323     		movs	r3, #3
ARM GAS  C:\Users\JEFFSN~1\AppData\Local\Temp\ccEPDFmT.s 			page 103


 4366 1422 0122     		movs	r2, #1
 4367 1424 0B21     		movs	r1, #11
 4368 1426 1248     		ldr	r0, .L237+56
 4369 1428 FFF7FEFF 		bl	OLEDwriteString
1391:main.c        ****                 mainOLEDWaitingToSend = 1;
 4370              		.loc 1 1391 0
 4371 142c 114B     		ldr	r3, .L237+60
 4372 142e 0122     		movs	r2, #1
 4373 1430 1A60     		str	r2, [r3]
 4374              	.LBB24:
1392:main.c        ****                                // #endif
1393:main.c        ****                 //entering calibration mode, clear the pedals low and high arrays
1394:main.c        ****                 for (int i = 0; i < 10; i++)
 4375              		.loc 1 1394 0
 4376 1432 0023     		movs	r3, #0
 4377 1434 BB66     		str	r3, [r7, #104]
 4378 1436 2DE0     		b	.L160
 4379              	.L238:
 4380              		.align	2
 4381              	.L237:
 4382 1438 00000000 		.word	button2Up
 4383 143c 00000000 		.word	button3Up
 4384 1440 00000000 		.word	patchNum
 4385 1444 00000000 		.word	button4Up
 4386 1448 00000000 		.word	button1Up
 4387 144c 00000000 		.word	currentCopedent
 4388 1450 00000000 		.word	currentNeck
 4389 1454 00000000 		.word	necks
 4390 1458 00000000 		.word	editUp
 4391 145c 00000000 		.word	editMode
 4392 1460 00000000 		.word	calibrationMode
 4393 1464 04040000 		.word	.LC1
 4394 1468 10040000 		.word	.LC2
 4395 146c 1C040000 		.word	.LC3
 4396 1470 28040000 		.word	.LC4
 4397 1474 00000000 		.word	mainOLEDWaitingToSend
 4398              	.L161:
1395:main.c        ****                 {
1396:main.c        ****                     pedals_low[i] = 4095;
 4399              		.loc 1 1396 0 discriminator 3
 4400 1478 614A     		ldr	r2, .L239
 4401 147a BB6E     		ldr	r3, [r7, #104]
 4402 147c 40F6FF71 		movw	r1, #4095
 4403 1480 22F81310 		strh	r1, [r2, r3, lsl #1]	@ movhi
1397:main.c        ****                     pedals_high[i] = 0;
 4404              		.loc 1 1397 0 discriminator 3
 4405 1484 5F4A     		ldr	r2, .L239+4
 4406 1486 BB6E     		ldr	r3, [r7, #104]
 4407 1488 0021     		movs	r1, #0
 4408 148a 22F81310 		strh	r1, [r2, r3, lsl #1]	@ movhi
1394:main.c        ****                 {
 4409              		.loc 1 1394 0 discriminator 3
 4410 148e BB6E     		ldr	r3, [r7, #104]
 4411 1490 0133     		adds	r3, r3, #1
