ARM GAS  C:\Users\JEFFSN~1\AppData\Local\Temp\ccxODczG.s 			page 1


   1              		.syntax unified
   2              		.cpu cortex-m3
   3              		.fpu softvfp
   4              		.eabi_attribute 20, 1
   5              		.eabi_attribute 21, 1
   6              		.eabi_attribute 23, 3
   7              		.eabi_attribute 24, 1
   8              		.eabi_attribute 25, 1
   9              		.eabi_attribute 26, 1
  10              		.eabi_attribute 30, 6
  11              		.eabi_attribute 34, 1
  12              		.eabi_attribute 18, 4
  13              		.thumb
  14              		.syntax unified
  15              		.file	"measurement.c"
  16              		.text
  17              	.Ltext0:
  18              		.cfi_sections	.debug_frame
  19              		.section	.text.MeasureResistorVoltage,"ax",%progbits
  20              		.align	2
  21              		.global	MeasureResistorVoltage
  22              		.thumb
  23              		.thumb_func
  24              		.type	MeasureResistorVoltage, %function
  25              	MeasureResistorVoltage:
  26              	.LFB63:
  27              		.file 1 "measurement.c"
   1:measurement.c **** /******************************************************************************
   2:measurement.c **** * File Name: measurement.c
   3:measurement.c **** *  Version 2.0
   4:measurement.c **** *
   5:measurement.c **** * Description:
   6:measurement.c **** *  This file contains the function that are used find the voltage across the resistor
   7:measurement.c **** * 
   8:measurement.c **** * Note:
   9:measurement.c **** *
  10:measurement.c **** ********************************************************************************
  11:measurement.c **** * Copyright (2015), Cypress Semiconductor Corporation. All Rights Reserved.
  12:measurement.c **** ********************************************************************************
  13:measurement.c **** * This software is owned by Cypress Semiconductor Corporation (Cypress)
  14:measurement.c **** * and is protected by and subject to worldwide patent protection (United
  15:measurement.c **** * States and foreign), United States copyright laws and international treaty
  16:measurement.c **** * provisions. Cypress hereby grants to licensee a personal, non-exclusive,
  17:measurement.c **** * non-transferable license to copy, use, modify, create derivative works of,
  18:measurement.c **** * and compile the Cypress Source Code and derivative works for the sole
  19:measurement.c **** * purpose of creating custom software in support of licensee product to be
  20:measurement.c **** * used only in conjunction with a Cypress integrated circuit as specified in
  21:measurement.c **** * the applicable agreement. Any reproduction, modification, translation,
  22:measurement.c **** * compilation, or representation of this software except as specified above 
  23:measurement.c **** * is prohibited without the express written permission of Cypress.
  24:measurement.c **** *
  25:measurement.c **** * Disclaimer: CYPRESS MAKES NO WARRANTY OF ANY KIND, EXPRESS OR IMPLIED, WITH 
  26:measurement.c **** * REGARD TO THIS MATERIAL, INCLUDING, BUT NOT LIMITED TO, THE IMPLIED 
  27:measurement.c **** * WARRANTIES OF MERCHANTABILITY AND FITNESS FOR A PARTICULAR PURPOSE.
  28:measurement.c **** * Cypress reserves the right to make changes without further notice to the 
  29:measurement.c **** * materials described herein. Cypress does not assume any liability arising out 
  30:measurement.c **** * of the application or use of any product or circuit described herein. Cypress 
ARM GAS  C:\Users\JEFFSN~1\AppData\Local\Temp\ccxODczG.s 			page 2


  31:measurement.c **** * does not authorize its products for use as critical components in life-support 
  32:measurement.c **** * systems where a malfunction or failure may reasonably be expected to result in 
  33:measurement.c **** * significant injury to the user. The inclusion of Cypress' product in a life-
  34:measurement.c **** * support systems application implies that the manufacturer assumes all risk of 
  35:measurement.c **** * such use and in doing so indemnifies Cypress against all charges. 
  36:measurement.c **** *
  37:measurement.c **** * Use of this Software may be limited by and subject to the applicable Cypress
  38:measurement.c **** * software license agreement. 
  39:measurement.c **** *******************************************************************************/
  40:measurement.c **** #include "measurement.h"
  41:measurement.c **** #include "removeOffsetNoise.h"
  42:measurement.c **** #include <device.h>
  43:measurement.c **** 
  44:measurement.c **** /*******************************************************************************
  45:measurement.c **** *  Function Name: MeasureResistorVoltage
  46:measurement.c **** ********************************************************************************
  47:measurement.c **** * Summary:
  48:measurement.c **** * This functions returns the voltage across the resistor. Either Thermistor or Reference 
  49:measurement.c **** *
  50:measurement.c **** * Parameters:
  51:measurement.c **** * none
  52:measurement.c **** *
  53:measurement.c **** * Return: 
  54:measurement.c **** * resistor voltage in ADC counts
  55:measurement.c **** 
  56:measurement.c **** * Theory:
  57:measurement.c **** * Measure voltage across the resistor. Subtract offset from value, and filter value
  58:measurement.c **** *
  59:measurement.c **** * Side Effects:
  60:measurement.c **** * None
  61:measurement.c **** *******************************************************************************/
  62:measurement.c **** int32 MeasureResistorVoltage(uint8 channel)
  63:measurement.c **** {
  28              		.loc 1 63 0
  29              		.cfi_startproc
  30              		@ args = 0, pretend = 0, frame = 16
  31              		@ frame_needed = 1, uses_anonymous_args = 0
  32 0000 80B5     		push	{r7, lr}
  33              		.cfi_def_cfa_offset 8
  34              		.cfi_offset 7, -8
  35              		.cfi_offset 14, -4
  36 0002 84B0     		sub	sp, sp, #16
  37              		.cfi_def_cfa_offset 24
  38 0004 00AF     		add	r7, sp, #0
  39              		.cfi_def_cfa_register 7
  40 0006 0346     		mov	r3, r0
  41 0008 FB71     		strb	r3, [r7, #7]
  64:measurement.c **** 	
  65:measurement.c ****     /* Voltage across resistor*/
  66:measurement.c **** 	int32 result;
  67:measurement.c **** 	
  68:measurement.c **** 	/* Offset Voltage*/
  69:measurement.c **** 	int32 offset;
  70:measurement.c **** 
  71:measurement.c **** 	/* Select correct AMUX channel*/	
  72:measurement.c **** 	//AMux_FastSelect(channel);
  73:measurement.c **** 	
ARM GAS  C:\Users\JEFFSN~1\AppData\Local\Temp\ccxODczG.s 			page 3


  74:measurement.c **** 	/* Read voltage across  resistor*/
  75:measurement.c ****     //ADC_StartConvert();
  76:measurement.c **** 	
  77:measurement.c **** 	//ADC_IsEndConversion(ADC_WAIT_FOR_RESULT);
  78:measurement.c **** 	//result = ADC_GetResult32();
  79:measurement.c **** 	
  80:measurement.c **** 	/* Get the offset voltage*/
  81:measurement.c **** 	offset = GetOffset(); 
  42              		.loc 1 81 0
  43 000a FFF7FEFF 		bl	GetOffset
  44 000e F860     		str	r0, [r7, #12]
  82:measurement.c **** 	
  83:measurement.c **** 	/* Get CDS difference*/
  84:measurement.c **** 	result = result - offset;
  45              		.loc 1 84 0
  46 0010 BA68     		ldr	r2, [r7, #8]
  47 0012 FB68     		ldr	r3, [r7, #12]
  48 0014 D31A     		subs	r3, r2, r3
  49 0016 BB60     		str	r3, [r7, #8]
  85:measurement.c ****     
  86:measurement.c **** 	/* Filter signal*/
  87:measurement.c **** 	result = FilterSignal(result, channel);
  50              		.loc 1 87 0
  51 0018 FB79     		ldrb	r3, [r7, #7]	@ zero_extendqisi2
  52 001a 1946     		mov	r1, r3
  53 001c B868     		ldr	r0, [r7, #8]
  54 001e FFF7FEFF 		bl	FilterSignal
  55 0022 B860     		str	r0, [r7, #8]
  88:measurement.c **** 
  89:measurement.c **** 	return result;
  56              		.loc 1 89 0
  57 0024 BB68     		ldr	r3, [r7, #8]
  90:measurement.c **** 	
  91:measurement.c **** }
  58              		.loc 1 91 0
  59 0026 1846     		mov	r0, r3
  60 0028 1037     		adds	r7, r7, #16
  61              		.cfi_def_cfa_offset 8
  62 002a BD46     		mov	sp, r7
  63              		.cfi_def_cfa_register 13
  64              		@ sp needed
  65 002c 80BD     		pop	{r7, pc}
  66              		.cfi_endproc
  67              	.LFE63:
  68              		.size	MeasureResistorVoltage, .-MeasureResistorVoltage
  69 002e 00BF     		.text
  70              	.Letext0:
  71              		.file 2 "c:\\program files (x86)\\cypress\\psoc creator\\4.4\\psoc creator\\import\\gnu\\arm\\5.4.
  72              		.file 3 "c:\\program files (x86)\\cypress\\psoc creator\\4.4\\psoc creator\\import\\gnu\\arm\\5.4.
  73              		.file 4 "Generated_Source\\PSoC5/cytypes.h"
  74              		.file 5 "Generated_Source\\PSoC5/core_cm3.h"