ARM GAS  C:\Users\JEFFSN~1\AppData\Local\Temp\cca6vxoe.s 			page 1


   1              		.syntax unified
   2              		.cpu cortex-m3
   3              		.fpu softvfp
   4              		.eabi_attribute 20, 1
   5              		.eabi_attribute 21, 1
   6              		.eabi_attribute 23, 3
   7              		.eabi_attribute 24, 1
   8              		.eabi_attribute 25, 1
   9              		.eabi_attribute 26, 1
  10              		.eabi_attribute 30, 6
  11              		.eabi_attribute 34, 1
  12              		.eabi_attribute 18, 4
  13              		.thumb
  14              		.syntax unified
  15              		.file	"removeOffsetNoise.c"
  16              		.text
  17              	.Ltext0:
  18              		.cfi_sections	.debug_frame
  19              		.comm	Decoder_1_Enabled,1,1
  20              		.section	.text.FilterSignal,"ax",%progbits
  21              		.align	2
  22              		.global	FilterSignal
  23              		.thumb
  24              		.thumb_func
  25              		.type	FilterSignal, %function
  26              	FilterSignal:
  27              	.LFB63:
  28              		.file 1 "removeOffsetNoise.c"
   1:removeOffsetNoise.c **** /******************************************************************************
   2:removeOffsetNoise.c **** * File Name: removeOffsetNoise.c
   3:removeOffsetNoise.c **** *  Version 2.0
   4:removeOffsetNoise.c **** *
   5:removeOffsetNoise.c **** * Description:
   6:removeOffsetNoise.c **** *  This file contains the functions that are used to find offset and perform 
   7:removeOffsetNoise.c **** *  IIR filter
   8:removeOffsetNoise.c **** *
   9:removeOffsetNoise.c **** * Note:
  10:removeOffsetNoise.c **** *
  11:removeOffsetNoise.c **** ********************************************************************************
  12:removeOffsetNoise.c **** * Copyright (2015), Cypress Semiconductor Corporation. All Rights Reserved.
  13:removeOffsetNoise.c **** ********************************************************************************
  14:removeOffsetNoise.c **** * This software is owned by Cypress Semiconductor Corporation (Cypress)
  15:removeOffsetNoise.c **** * and is protected by and subject to worldwide patent protection (United
  16:removeOffsetNoise.c **** * States and foreign), United States copyright laws and international treaty
  17:removeOffsetNoise.c **** * provisions. Cypress hereby grants to licensee a personal, non-exclusive,
  18:removeOffsetNoise.c **** * non-transferable license to copy, use, modify, create derivative works of,
  19:removeOffsetNoise.c **** * and compile the Cypress Source Code and derivative works for the sole
  20:removeOffsetNoise.c **** * purpose of creating custom software in support of licensee product to be
  21:removeOffsetNoise.c **** * used only in conjunction with a Cypress integrated circuit as specified in
  22:removeOffsetNoise.c **** * the applicable agreement. Any reproduction, modification, translation,
  23:removeOffsetNoise.c **** * compilation, or representation of this software except as specified above 
  24:removeOffsetNoise.c **** * is prohibited without the express written permission of Cypress.
  25:removeOffsetNoise.c **** *
  26:removeOffsetNoise.c **** * Disclaimer: CYPRESS MAKES NO WARRANTY OF ANY KIND, EXPRESS OR IMPLIED, WITH 
  27:removeOffsetNoise.c **** * REGARD TO THIS MATERIAL, INCLUDING, BUT NOT LIMITED TO, THE IMPLIED 
  28:removeOffsetNoise.c **** * WARRANTIES OF MERCHANTABILITY AND FITNESS FOR A PARTICULAR PURPOSE.
  29:removeOffsetNoise.c **** * Cypress reserves the right to make changes without further notice to the 
ARM GAS  C:\Users\JEFFSN~1\AppData\Local\Temp\cca6vxoe.s 			page 2


  30:removeOffsetNoise.c **** * materials described herein. Cypress does not assume any liability arising out 
  31:removeOffsetNoise.c **** * of the application or use of any product or circuit described herein. Cypress 
  32:removeOffsetNoise.c **** * does not authorize its products for use as critical components in life-support 
  33:removeOffsetNoise.c **** * systems where a malfunction or failure may reasonably be expected to result in 
  34:removeOffsetNoise.c **** * significant injury to the user. The inclusion of Cypress' product in a life-
  35:removeOffsetNoise.c **** * support systems application implies that the manufacturer assumes all risk of 
  36:removeOffsetNoise.c **** * such use and in doing so indemnifies Cypress against all charges. 
  37:removeOffsetNoise.c **** *
  38:removeOffsetNoise.c **** * Use of this Software may be limited by and subject to the applicable Cypress
  39:removeOffsetNoise.c **** * software license agreement. 
  40:removeOffsetNoise.c **** *******************************************************************************/
  41:removeOffsetNoise.c **** #include "removeOffsetNoise.h"
  42:removeOffsetNoise.c **** #include "measurement.h"
  43:removeOffsetNoise.c **** #include <device.h>
  44:removeOffsetNoise.c **** 
  45:removeOffsetNoise.c **** /*******************************************************************************
  46:removeOffsetNoise.c **** *  Function Name: FilterSignal
  47:removeOffsetNoise.c **** ********************************************************************************
  48:removeOffsetNoise.c **** * Summary:
  49:removeOffsetNoise.c **** *  This is IIR filter to process the sampled ADC data. For first sample passed 
  50:removeOffsetNoise.c **** *  the function simply returns the passed ADC sample. for second sample onwards,
  51:removeOffsetNoise.c **** *  Fraction of input signal based upon the filter coefficient, is calculated and 
  52:removeOffsetNoise.c **** *  added to the previously stored filtered value.
  53:removeOffsetNoise.c **** *
  54:removeOffsetNoise.c **** * Parameters:
  55:removeOffsetNoise.c **** * (int32)  ADCSample       - ADC sample read for given signal
  56:removeOffsetNoise.c **** * (uint8)  Sensor		   - Sensor to be Filtered
  57:removeOffsetNoise.c **** *
  58:removeOffsetNoise.c **** * Return: 
  59:removeOffsetNoise.c **** * (int32)filValueRounded - filtered value passed is updated after applying 
  60:removeOffsetNoise.c **** * IIR filter to the ADC sample.
  61:removeOffsetNoise.c **** *
  62:removeOffsetNoise.c **** * Theory:
  63:removeOffsetNoise.c **** * For more information on the IIR filter please refer to Cypress application
  64:removeOffsetNoise.c **** * note AN2099.
  65:removeOffsetNoise.c **** *
  66:removeOffsetNoise.c **** * Side Effects:
  67:removeOffsetNoise.c **** * None
  68:removeOffsetNoise.c **** *******************************************************************************/
  69:removeOffsetNoise.c **** int32 FilterSignal(int32 ADCSample, uint8 sensor)
  70:removeOffsetNoise.c **** {
  29              		.loc 1 70 0
  30              		.cfi_startproc
  31              		@ args = 0, pretend = 0, frame = 16
  32              		@ frame_needed = 1, uses_anonymous_args = 0
  33              		@ link register save eliminated.
  34 0000 80B4     		push	{r7}
  35              		.cfi_def_cfa_offset 4
  36              		.cfi_offset 7, -4
  37 0002 85B0     		sub	sp, sp, #20
  38              		.cfi_def_cfa_offset 24
  39 0004 00AF     		add	r7, sp, #0
  40              		.cfi_def_cfa_register 7
  41 0006 7860     		str	r0, [r7, #4]
  42 0008 0B46     		mov	r3, r1
  43 000a FB70     		strb	r3, [r7, #3]
  71:removeOffsetNoise.c **** 	/* Running filtered value accumulator */
ARM GAS  C:\Users\JEFFSN~1\AppData\Local\Temp\cca6vxoe.s 			page 3


  72:removeOffsetNoise.c **** 	static int32 filteredValue[NUM_SENSORS] = {0,0};
  73:removeOffsetNoise.c **** 	
  74:removeOffsetNoise.c **** 	/* Filtered value rounded-off to 20-bits */
  75:removeOffsetNoise.c **** 	int32 filValueRounded;
  76:removeOffsetNoise.c **** 	
  77:removeOffsetNoise.c **** 	/* Left shift input by MAX_FILTER_COEFF_SHIFT to allow divisions up to MAX_FILTER_COEFF_SHIFT */
  78:removeOffsetNoise.c **** 	ADCSample <<= MAX_FILTER_COEFF_SHIFT;
  44              		.loc 1 78 0
  45 000c 7B68     		ldr	r3, [r7, #4]
  46 000e 1B02     		lsls	r3, r3, #8
  47 0010 7B60     		str	r3, [r7, #4]
  79:removeOffsetNoise.c **** 	   
  80:removeOffsetNoise.c **** 	/* Pass the filter input as it is for fast changes in input */
  81:removeOffsetNoise.c ****     if ( (ADCSample > (filteredValue[sensor] + FILTER_FEEDFORWARD)) || (ADCSample < (filteredValue[
  48              		.loc 1 81 0
  49 0012 FB78     		ldrb	r3, [r7, #3]	@ zero_extendqisi2
  50 0014 174A     		ldr	r2, .L6
  51 0016 52F82330 		ldr	r3, [r2, r3, lsl #2]
  52 001a 03F54852 		add	r2, r3, #12800
  53 001e 7B68     		ldr	r3, [r7, #4]
  54 0020 9A42     		cmp	r2, r3
  55 0022 08DB     		blt	.L2
  56              		.loc 1 81 0 is_stmt 0 discriminator 1
  57 0024 FB78     		ldrb	r3, [r7, #3]	@ zero_extendqisi2
  58 0026 134A     		ldr	r2, .L6
  59 0028 52F82330 		ldr	r3, [r2, r3, lsl #2]
  60 002c A3F54852 		sub	r2, r3, #12800
  61 0030 7B68     		ldr	r3, [r7, #4]
  62 0032 9A42     		cmp	r2, r3
  63 0034 05DD     		ble	.L3
  64              	.L2:
  82:removeOffsetNoise.c ****     {
  83:removeOffsetNoise.c ****         filteredValue[sensor] = ADCSample;
  65              		.loc 1 83 0 is_stmt 1
  66 0036 FB78     		ldrb	r3, [r7, #3]	@ zero_extendqisi2
  67 0038 0E49     		ldr	r1, .L6
  68 003a 7A68     		ldr	r2, [r7, #4]
  69 003c 41F82320 		str	r2, [r1, r3, lsl #2]
  70 0040 04E0     		b	.L4
  71              	.L3:
  84:removeOffsetNoise.c ****     }
  85:removeOffsetNoise.c ****     
  86:removeOffsetNoise.c ****     /* If not the first sample then based on filter coefficient, filter the 
  87:removeOffsetNoise.c ****      * input signal */
  88:removeOffsetNoise.c ****     else
  89:removeOffsetNoise.c ****     {
  90:removeOffsetNoise.c **** 		/* IIR filter */
  91:removeOffsetNoise.c **** 		filteredValue[sensor] = filteredValue[sensor] + ((ADCSample - filteredValue[sensor]) >> RTD_FILTE
  72              		.loc 1 91 0
  73 0042 FB78     		ldrb	r3, [r7, #3]	@ zero_extendqisi2
  74 0044 0B49     		ldr	r1, .L6
  75 0046 7A68     		ldr	r2, [r7, #4]
  76 0048 41F82320 		str	r2, [r1, r3, lsl #2]
  77              	.L4:
  92:removeOffsetNoise.c **** 	}
  93:removeOffsetNoise.c **** 	
  94:removeOffsetNoise.c **** 	/* Compensate filter result for  left shift of 8 and round off */
ARM GAS  C:\Users\JEFFSN~1\AppData\Local\Temp\cca6vxoe.s 			page 4


  95:removeOffsetNoise.c **** 	filValueRounded = (filteredValue[sensor] >> MAX_FILTER_COEFF_SHIFT) + ((filteredValue[sensor] & 0x
  78              		.loc 1 95 0
  79 004c FB78     		ldrb	r3, [r7, #3]	@ zero_extendqisi2
  80 004e 094A     		ldr	r2, .L6
  81 0050 52F82330 		ldr	r3, [r2, r3, lsl #2]
  82 0054 1A12     		asrs	r2, r3, #8
  83 0056 FB78     		ldrb	r3, [r7, #3]	@ zero_extendqisi2
  84 0058 0649     		ldr	r1, .L6
  85 005a 51F82330 		ldr	r3, [r1, r3, lsl #2]
  86 005e DB11     		asrs	r3, r3, #7
  87 0060 03F00103 		and	r3, r3, #1
  88 0064 1344     		add	r3, r3, r2
  89 0066 FB60     		str	r3, [r7, #12]
  96:removeOffsetNoise.c **** 	
  97:removeOffsetNoise.c ****     return filValueRounded;
  90              		.loc 1 97 0
  91 0068 FB68     		ldr	r3, [r7, #12]
  98:removeOffsetNoise.c **** }
  92              		.loc 1 98 0
  93 006a 1846     		mov	r0, r3
  94 006c 1437     		adds	r7, r7, #20
  95              		.cfi_def_cfa_offset 4
  96 006e BD46     		mov	sp, r7
  97              		.cfi_def_cfa_register 13
  98              		@ sp needed
  99 0070 80BC     		pop	{r7}
 100              		.cfi_restore 7
 101              		.cfi_def_cfa_offset 0
 102 0072 7047     		bx	lr
 103              	.L7:
 104              		.align	2
 105              	.L6:
 106 0074 00000000 		.word	filteredValue.7292
 107              		.cfi_endproc
 108              	.LFE63:
 109              		.size	FilterSignal, .-FilterSignal
 110              		.section	.text.GetOffset,"ax",%progbits
 111              		.align	2
 112              		.global	GetOffset
 113              		.thumb
 114              		.thumb_func
 115              		.type	GetOffset, %function
 116              	GetOffset:
 117              	.LFB64:
  99:removeOffsetNoise.c **** 
 100:removeOffsetNoise.c **** /*******************************************************************************
 101:removeOffsetNoise.c **** *  Function Name: GetOffset
 102:removeOffsetNoise.c **** ********************************************************************************
 103:removeOffsetNoise.c **** * Summary:
 104:removeOffsetNoise.c **** * This function shorts the inputs of the ADC together and reads the offset. 
 105:removeOffsetNoise.c **** *
 106:removeOffsetNoise.c **** * Parameters:
 107:removeOffsetNoise.c **** * void:
 108:removeOffsetNoise.c **** *
 109:removeOffsetNoise.c **** * Return:
 110:removeOffsetNoise.c **** * int32: result (offset value).
 111:removeOffsetNoise.c **** *
ARM GAS  C:\Users\JEFFSN~1\AppData\Local\Temp\cca6vxoe.s 			page 5


 112:removeOffsetNoise.c **** * Theory:
 113:removeOffsetNoise.c **** *
 114:removeOffsetNoise.c **** * Side Effects:
 115:removeOffsetNoise.c **** * None
 116:removeOffsetNoise.c **** *******************************************************************************/
 117:removeOffsetNoise.c **** int32 GetOffset(void)
 118:removeOffsetNoise.c **** {
 118              		.loc 1 118 0
 119              		.cfi_startproc
 120              		@ args = 0, pretend = 0, frame = 8
 121              		@ frame_needed = 1, uses_anonymous_args = 0
 122              		@ link register save eliminated.
 123 0000 80B4     		push	{r7}
 124              		.cfi_def_cfa_offset 4
 125              		.cfi_offset 7, -4
 126 0002 83B0     		sub	sp, sp, #12
 127              		.cfi_def_cfa_offset 16
 128 0004 00AF     		add	r7, sp, #0
 129              		.cfi_def_cfa_register 7
 119:removeOffsetNoise.c **** 	int32 result;
 120:removeOffsetNoise.c **** 
 121:removeOffsetNoise.c ****   	/*Select the MUX channel and Measure the offset voltage*/	
 122:removeOffsetNoise.c **** 	//AMux_FastSelect(AMUX_1_CDS);
 123:removeOffsetNoise.c ****     //ADC_StartConvert();
 124:removeOffsetNoise.c **** 	//ADC_IsEndConversion(ADC_WAIT_FOR_RESULT);
 125:removeOffsetNoise.c **** 	//result = ADC_GetResult32();
 126:removeOffsetNoise.c **** 
 127:removeOffsetNoise.c ****     return result;
 130              		.loc 1 127 0
 131 0006 7B68     		ldr	r3, [r7, #4]
 128:removeOffsetNoise.c **** }
 132              		.loc 1 128 0
 133 0008 1846     		mov	r0, r3
 134 000a 0C37     		adds	r7, r7, #12
 135              		.cfi_def_cfa_offset 4
 136 000c BD46     		mov	sp, r7
 137              		.cfi_def_cfa_register 13
 138              		@ sp needed
 139 000e 80BC     		pop	{r7}
 140              		.cfi_restore 7
 141              		.cfi_def_cfa_offset 0
 142 0010 7047     		bx	lr
 143              		.cfi_endproc
 144              	.LFE64:
 145              		.size	GetOffset, .-GetOffset
 146 0012 00BF     		.bss
 147              		.align	2
 148              	filteredValue.7292:
 149 0000 00000000 		.space	8
 149      00000000 
 150              		.text
 151              	.Letext0:
 152              		.file 2 "c:\\program files (x86)\\cypress\\psoc creator\\4.4\\psoc creator\\import\\gnu\\arm\\5.4.
 153              		.file 3 "c:\\program files (x86)\\cypress\\psoc creator\\4.4\\psoc creator\\import\\gnu\\arm\\5.4.
 154              		.file 4 "Generated_Source\\PSoC5/cytypes.h"
 155              		.file 5 "Generated_Source\\PSoC5/core_cm3.h"
 156              		.file 6 "Generated_Source\\PSoC5/Decoder_1.h"
ARM GAS  C:\Users\JEFFSN~1\AppData\Local\Temp\cca6vxoe.s 			page 6

