ARM GAS  C:\Users\JEFFSN~1\AppData\Local\Temp\ccxrarRe.s 			page 1


   1              		.syntax unified
   2              		.cpu cortex-m3
   3              		.fpu softvfp
   4              		.eabi_attribute 20, 1
   5              		.eabi_attribute 21, 1
   6              		.eabi_attribute 23, 3
   7              		.eabi_attribute 24, 1
   8              		.eabi_attribute 25, 1
   9              		.eabi_attribute 26, 1
  10              		.eabi_attribute 30, 6
  11              		.eabi_attribute 34, 1
  12              		.eabi_attribute 18, 4
  13              		.thumb
  14              		.syntax unified
  15              		.file	"ssd1306.c"
  16              		.text
  17              	.Ltext0:
  18              		.cfi_sections	.debug_frame
  19              		.comm	buffer,1024,4
  20              		.comm	displayBufferChunk,1025,4
  21              		.global	OLED_xpos
  22              		.bss
  23              		.type	OLED_xpos, %object
  24              		.size	OLED_xpos, 1
  25              	OLED_xpos:
  26 0000 00       		.space	1
  27              		.global	OLED_ypos
  28              		.type	OLED_ypos, %object
  29              		.size	OLED_ypos, 1
  30              	OLED_ypos:
  31 0001 00       		.space	1
  32              		.comm	OLED_i2c_address,1,1
  33              		.comm	OLED_externalVCC,1,1
  34              		.section	.text.ssd1306_begin,"ax",%progbits
  35              		.align	2
  36              		.global	ssd1306_begin
  37              		.thumb
  38              		.thumb_func
  39              		.type	ssd1306_begin, %function
  40              	ssd1306_begin:
  41              	.LFB64:
  42              		.file 1 "ssd1306.c"
   1:ssd1306.c     **** /*
   2:ssd1306.c     ****  * ssd1306.c
   3:ssd1306.c     ****  *
   4:ssd1306.c     ****  *  Created on: Oct 8, 2019
   5:ssd1306.c     ****  *      Author: jeffsnyder
   6:ssd1306.c     ****  */
   7:ssd1306.c     **** 
   8:ssd1306.c     **** 
   9:ssd1306.c     **** /*
  10:ssd1306.c     ****  * ssd1306.c
  11:ssd1306.c     ****  *
  12:ssd1306.c     ****  *  Created on: Jul 6, 2018
  13:ssd1306.c     ****  *      Author: jeffsnyder
  14:ssd1306.c     ****  */
  15:ssd1306.c     **** 
ARM GAS  C:\Users\JEFFSN~1\AppData\Local\Temp\ccxrarRe.s 			page 2


  16:ssd1306.c     **** #include "ssd1306.h"
  17:ssd1306.c     **** #include "main.h"
  18:ssd1306.c     **** 
  19:ssd1306.c     **** 
  20:ssd1306.c     **** unsigned char buffer[1024];
  21:ssd1306.c     **** 
  22:ssd1306.c     **** //unsigned char buffer [] = {
  23:ssd1306.c     **** //
  24:ssd1306.c     **** //		0x00, 0x00, 0x00, 0x00, 0x00, 0x40, 0xC0, 0xC0, 0x00, 0x00, 0x00, 0x00, 0x00, 0x00, 0x00, 0x00,
  25:ssd1306.c     **** //		0x00, 0x00, 0xC0, 0xC0, 0x40, 0x00, 0x00, 0x00, 0x00, 0x00, 0x00, 0x80, 0x80, 0xC0, 0xC0, 0xC0,
  26:ssd1306.c     **** //		0xC0, 0x80, 0x80, 0x00, 0x00, 0x00, 0x00, 0x00, 0x00, 0x00, 0x00, 0x00, 0x00, 0x80, 0x80, 0xC0,
  27:ssd1306.c     **** //		0xC0, 0xC0, 0xC0, 0x80, 0x80, 0x00, 0x00, 0x00, 0x00, 0x00, 0x00, 0x00, 0x00, 0x00, 0x80, 0x80,
  28:ssd1306.c     **** //		0xC0, 0xC0, 0xC0, 0xC0, 0x80, 0x80, 0x00, 0x00, 0x00, 0x00, 0x00, 0x00, 0x00, 0x00, 0xC0, 0xC0,
  29:ssd1306.c     **** //		0xC0, 0xC0, 0xC0, 0xC0, 0xC0, 0xC0, 0xC0, 0x80, 0x80, 0x80, 0x00, 0x00, 0x00, 0x00, 0x00, 0x00,
  30:ssd1306.c     **** //		0xC0, 0xC0, 0xC0, 0xC0, 0xC0, 0xC0, 0xC0, 0xC0, 0xC0, 0xC0, 0xC0, 0x00, 0x00, 0x00, 0x00, 0x00,
  31:ssd1306.c     **** //		0x00, 0x00, 0x80, 0x80, 0xC0, 0xC0, 0xC0, 0xC0, 0x80, 0x80, 0x00, 0x00, 0x00, 0x00, 0x00, 0x00,
  32:ssd1306.c     **** //		0x00, 0x00, 0x00, 0x00, 0x00, 0x00, 0x03, 0x1F, 0xFE, 0xF0, 0x80, 0x00, 0x00, 0x00, 0x00, 0x80,
  33:ssd1306.c     **** //		0xF0, 0xFE, 0x1F, 0x03, 0x00, 0x00, 0x00, 0xF0, 0xFE, 0x0F, 0x03, 0x01, 0x01, 0x00, 0x00, 0x00,
  34:ssd1306.c     **** //		0x00, 0x01, 0x01, 0x03, 0x0F, 0xFE, 0xF0, 0x00, 0x00, 0x00, 0xF0, 0xFE, 0x0F, 0x03, 0x01, 0x01,
  35:ssd1306.c     **** //		0x00, 0x00, 0x00, 0x01, 0x03, 0x07, 0x06, 0x00, 0x00, 0x00, 0xF0, 0xFE, 0x0F, 0x03, 0x01, 0x01,
  36:ssd1306.c     **** //		0x00, 0x00, 0x00, 0x00, 0x01, 0x01, 0x03, 0x0F, 0xFE, 0xF0, 0x00, 0x00, 0x00, 0x00, 0xFF, 0xFF,
  37:ssd1306.c     **** //		0x00, 0x00, 0x00, 0x00, 0x00, 0x00, 0x00, 0x01, 0x03, 0x03, 0x0F, 0xFE, 0xF0, 0x00, 0x00, 0x00,
  38:ssd1306.c     **** //		0xFF, 0xFF, 0xC0, 0xC0, 0xC0, 0xC0, 0xC0, 0xC0, 0xC0, 0xC0, 0x00, 0x00, 0x00, 0x00, 0x00, 0xF0,
  39:ssd1306.c     **** //		0xFE, 0x0F, 0x03, 0x01, 0x01, 0x00, 0x00, 0x00, 0x01, 0x03, 0x07, 0x06, 0x00, 0x00, 0x00, 0x00,
  40:ssd1306.c     **** //		0x00, 0x00, 0x00, 0x00, 0x00, 0x00, 0x00, 0x00, 0x00, 0x07, 0x3F, 0xFC, 0xE0, 0xE0, 0xFC, 0x1F,
  41:ssd1306.c     **** //		0x07, 0x00, 0x00, 0x00, 0x00, 0x00, 0x00, 0x07, 0x3F, 0x78, 0x60, 0xC0, 0xC0, 0x80, 0x80, 0x80,
  42:ssd1306.c     **** //		0x80, 0xC0, 0xC0, 0x60, 0x78, 0x3F, 0x07, 0x00, 0x00, 0x00, 0x07, 0x3F, 0x78, 0xE0, 0xC0, 0xC0,
  43:ssd1306.c     **** //		0x80, 0x80, 0xC0, 0xC0, 0xE0, 0x70, 0x10, 0x00, 0x00, 0x00, 0x07, 0x3F, 0x78, 0x60, 0xC0, 0xC0,
  44:ssd1306.c     **** //		0x80, 0x80, 0x80, 0x80, 0xC0, 0xC0, 0x60, 0x78, 0x3F, 0x07, 0x00, 0x00, 0x00, 0x00, 0xFF, 0xFF,
  45:ssd1306.c     **** //		0x80, 0x80, 0x80, 0x80, 0x80, 0x80, 0x80, 0xC0, 0xE0, 0xE0, 0x78, 0x3F, 0x07, 0x00, 0x00, 0x00,
  46:ssd1306.c     **** //		0xFF, 0xFF, 0x80, 0x80, 0x80, 0x80, 0x80, 0x80, 0x80, 0x80, 0x80, 0x00, 0x00, 0x00, 0x00, 0x07,
  47:ssd1306.c     **** //		0x3F, 0x78, 0xE0, 0xC0, 0xC0, 0x80, 0x80, 0xC0, 0xC0, 0xE0, 0x70, 0x10, 0x00, 0x00, 0x00, 0x00,
  48:ssd1306.c     **** //		0x00, 0x00, 0x00, 0x00, 0x00, 0x00, 0x00, 0x00, 0x00, 0x00, 0x00, 0x01, 0x01, 0x01, 0x00, 0x00,
  49:ssd1306.c     **** //		0x00, 0x00, 0x00, 0x00, 0x00, 0x00, 0x00, 0x00, 0x00, 0x00, 0x00, 0x00, 0x00, 0x01, 0x01, 0x01,
  50:ssd1306.c     **** //		0x01, 0x00, 0x00, 0x00, 0x00, 0x00, 0x00, 0x00, 0x00, 0x00, 0x00, 0x00, 0x00, 0x00, 0x00, 0x00,
  51:ssd1306.c     **** //		0x01, 0x01, 0x00, 0x00, 0x00, 0x00, 0x00, 0x00, 0x00, 0x00, 0x00, 0x00, 0x00, 0x00, 0x00, 0x00,
  52:ssd1306.c     **** //		0x01, 0x01, 0x01, 0x01, 0x00, 0x00, 0x00, 0x00, 0x00, 0x00, 0x00, 0x00, 0x00, 0x00, 0x01, 0x01,
  53:ssd1306.c     **** //		0x01, 0x01, 0x01, 0x01, 0x01, 0x01, 0x01, 0x00, 0x00, 0x00, 0x00, 0x00, 0x00, 0x00, 0x00, 0x00,
  54:ssd1306.c     **** //		0x01, 0x01, 0x01, 0x01, 0x01, 0x01, 0x01, 0x01, 0x01, 0x01, 0x01, 0x00, 0x00, 0x00, 0x00, 0x00,
  55:ssd1306.c     **** //		0x00, 0x00, 0x00, 0x00, 0x00, 0x01, 0x01, 0x00, 0x00, 0x00, 0x00, 0x00, 0x00, 0x00, 0x00, 0x00
  56:ssd1306.c     **** //		};
  57:ssd1306.c     **** 
  58:ssd1306.c     **** 
  59:ssd1306.c     **** 
  60:ssd1306.c     **** #define ssd1306_swap(a, b) { int16_t t = a; a = b; b = t; }
  61:ssd1306.c     **** 
  62:ssd1306.c     **** 
  63:ssd1306.c     **** uint8_t displayBufferChunk[1025];
  64:ssd1306.c     **** 
  65:ssd1306.c     **** uint8_t OLED_xpos = 0;
  66:ssd1306.c     **** uint8_t OLED_ypos = 0;
  67:ssd1306.c     **** 
  68:ssd1306.c     **** 
  69:ssd1306.c     **** 
  70:ssd1306.c     **** uint8_t OLED_i2c_address;
  71:ssd1306.c     **** uint8_t OLED_externalVCC;
  72:ssd1306.c     **** 
ARM GAS  C:\Users\JEFFSN~1\AppData\Local\Temp\ccxrarRe.s 			page 3


  73:ssd1306.c     **** 
  74:ssd1306.c     **** void ssd1306_begin(uint8_t vccstate, uint16_t width, uint16_t height)
  75:ssd1306.c     **** {
  43              		.loc 1 75 0
  44              		.cfi_startproc
  45              		@ args = 0, pretend = 0, frame = 8
  46              		@ frame_needed = 1, uses_anonymous_args = 0
  47 0000 80B5     		push	{r7, lr}
  48              		.cfi_def_cfa_offset 8
  49              		.cfi_offset 7, -8
  50              		.cfi_offset 14, -4
  51 0002 82B0     		sub	sp, sp, #8
  52              		.cfi_def_cfa_offset 16
  53 0004 00AF     		add	r7, sp, #0
  54              		.cfi_def_cfa_register 7
  55 0006 0346     		mov	r3, r0
  56 0008 FB71     		strb	r3, [r7, #7]
  57 000a 0B46     		mov	r3, r1	@ movhi
  58 000c BB80     		strh	r3, [r7, #4]	@ movhi
  59 000e 1346     		mov	r3, r2	@ movhi
  60 0010 7B80     		strh	r3, [r7, #2]	@ movhi
  76:ssd1306.c     **** 	OLED_externalVCC = vccstate;
  61              		.loc 1 76 0
  62 0012 4F4A     		ldr	r2, .L11
  63 0014 FB79     		ldrb	r3, [r7, #7]
  64 0016 1370     		strb	r3, [r2]
  77:ssd1306.c     **** 
  78:ssd1306.c     **** /*
  79:ssd1306.c     **** 	HAL_GPIO_WritePin(GPIOA, GPIO_PIN_9, GPIO_PIN_SET); //PULL RESET LINE HIGH
  80:ssd1306.c     **** 	// VDD (3.3V) goes high at start, lets just chill for a ms
  81:ssd1306.c     **** 	HAL_Delay(1);
  82:ssd1306.c     **** 	// bring reset low
  83:ssd1306.c     **** 	HAL_GPIO_WritePin(GPIOA, GPIO_PIN_9, GPIO_PIN_RESET); //PULL RESET LINE HIGH
  84:ssd1306.c     **** 	// wait 10ms
  85:ssd1306.c     **** 	HAL_Delay(10);
  86:ssd1306.c     **** 	// bring out of reset
  87:ssd1306.c     **** 	HAL_GPIO_WritePin(GPIOA, GPIO_PIN_9, GPIO_PIN_SET); //PULL RESET LINE HIGH
  88:ssd1306.c     **** 	// turn on VCC (9V?)
  89:ssd1306.c     **** */
  90:ssd1306.c     **** 
  91:ssd1306.c     **** 	// Init sequence
  92:ssd1306.c     **** 	ssd1306_command(SSD1306_DISPLAYOFF);                    // 0xAE
  65              		.loc 1 92 0
  66 0018 AE20     		movs	r0, #174
  67 001a FFF7FEFF 		bl	ssd1306_command
  93:ssd1306.c     **** 	ssd1306_command(SSD1306_SETDISPLAYCLOCKDIV);            // 0xD5
  68              		.loc 1 93 0
  69 001e D520     		movs	r0, #213
  70 0020 FFF7FEFF 		bl	ssd1306_command
  94:ssd1306.c     **** 	ssd1306_command(0x80);                                  // the suggested ratio 0x80
  71              		.loc 1 94 0
  72 0024 8020     		movs	r0, #128
  73 0026 FFF7FEFF 		bl	ssd1306_command
  95:ssd1306.c     **** 
  96:ssd1306.c     **** 	ssd1306_command(SSD1306_SETMULTIPLEX);                  // 0xA8
  74              		.loc 1 96 0
  75 002a A820     		movs	r0, #168
ARM GAS  C:\Users\JEFFSN~1\AppData\Local\Temp\ccxrarRe.s 			page 4


  76 002c FFF7FEFF 		bl	ssd1306_command
  97:ssd1306.c     **** 	ssd1306_command(height - 1);
  77              		.loc 1 97 0
  78 0030 7B88     		ldrh	r3, [r7, #2]	@ movhi
  79 0032 DBB2     		uxtb	r3, r3
  80 0034 013B     		subs	r3, r3, #1
  81 0036 DBB2     		uxtb	r3, r3
  82 0038 1846     		mov	r0, r3
  83 003a FFF7FEFF 		bl	ssd1306_command
  98:ssd1306.c     **** 
  99:ssd1306.c     **** 	ssd1306_command(SSD1306_SETDISPLAYOFFSET);              // 0xD3
  84              		.loc 1 99 0
  85 003e D320     		movs	r0, #211
  86 0040 FFF7FEFF 		bl	ssd1306_command
 100:ssd1306.c     **** 	ssd1306_command(0x0);                                   // no offset
  87              		.loc 1 100 0
  88 0044 0020     		movs	r0, #0
  89 0046 FFF7FEFF 		bl	ssd1306_command
 101:ssd1306.c     **** 	ssd1306_command(SSD1306_SETSTARTLINE | 0x0);            // line #0
  90              		.loc 1 101 0
  91 004a 4020     		movs	r0, #64
  92 004c FFF7FEFF 		bl	ssd1306_command
 102:ssd1306.c     **** 	ssd1306_command(SSD1306_CHARGEPUMP);                    // 0x8D
  93              		.loc 1 102 0
  94 0050 8D20     		movs	r0, #141
  95 0052 FFF7FEFF 		bl	ssd1306_command
 103:ssd1306.c     **** 	if (vccstate == SSD1306_EXTERNALVCC)
  96              		.loc 1 103 0
  97 0056 FB79     		ldrb	r3, [r7, #7]	@ zero_extendqisi2
  98 0058 012B     		cmp	r3, #1
  99 005a 03D1     		bne	.L2
 104:ssd1306.c     **** 	{ ssd1306_command(0x10); }
 100              		.loc 1 104 0
 101 005c 1020     		movs	r0, #16
 102 005e FFF7FEFF 		bl	ssd1306_command
 103 0062 02E0     		b	.L3
 104              	.L2:
 105:ssd1306.c     **** 	else
 106:ssd1306.c     **** 	{ ssd1306_command(0x14); }
 105              		.loc 1 106 0
 106 0064 1420     		movs	r0, #20
 107 0066 FFF7FEFF 		bl	ssd1306_command
 108              	.L3:
 107:ssd1306.c     **** 	ssd1306_command(SSD1306_MEMORYMODE);                    // 0x20
 109              		.loc 1 107 0
 110 006a 2020     		movs	r0, #32
 111 006c FFF7FEFF 		bl	ssd1306_command
 108:ssd1306.c     **** 	ssd1306_command(0x00);                                  // 0x0 act like ks0108
 112              		.loc 1 108 0
 113 0070 0020     		movs	r0, #0
 114 0072 FFF7FEFF 		bl	ssd1306_command
 109:ssd1306.c     **** 	ssd1306_command(SSD1306_SEGREMAP | 0x1);
 115              		.loc 1 109 0
 116 0076 A120     		movs	r0, #161
 117 0078 FFF7FEFF 		bl	ssd1306_command
 110:ssd1306.c     **** 	ssd1306_command(SSD1306_COMSCANDEC);
 118              		.loc 1 110 0
ARM GAS  C:\Users\JEFFSN~1\AppData\Local\Temp\ccxrarRe.s 			page 5


 119 007c C820     		movs	r0, #200
 120 007e FFF7FEFF 		bl	ssd1306_command
 111:ssd1306.c     **** 
 112:ssd1306.c     **** 	//#if defined SSD1306_128_32
 113:ssd1306.c     ****     if ((width == 128) && (height == 32))
 121              		.loc 1 113 0
 122 0082 BB88     		ldrh	r3, [r7, #4]
 123 0084 802B     		cmp	r3, #128
 124 0086 0ED1     		bne	.L4
 125              		.loc 1 113 0 is_stmt 0 discriminator 1
 126 0088 7B88     		ldrh	r3, [r7, #2]
 127 008a 202B     		cmp	r3, #32
 128 008c 0BD1     		bne	.L4
 114:ssd1306.c     ****     {
 115:ssd1306.c     ****     	ssd1306_command(SSD1306_SETCOMPINS);                    // 0xDA
 129              		.loc 1 115 0 is_stmt 1
 130 008e DA20     		movs	r0, #218
 131 0090 FFF7FEFF 		bl	ssd1306_command
 116:ssd1306.c     ****     	ssd1306_command(0x02);
 132              		.loc 1 116 0
 133 0094 0220     		movs	r0, #2
 134 0096 FFF7FEFF 		bl	ssd1306_command
 117:ssd1306.c     ****     	ssd1306_command(SSD1306_SETCONTRAST);                   // 0x81
 135              		.loc 1 117 0
 136 009a 8120     		movs	r0, #129
 137 009c FFF7FEFF 		bl	ssd1306_command
 118:ssd1306.c     ****     	ssd1306_command(0x8F);
 138              		.loc 1 118 0
 139 00a0 8F20     		movs	r0, #143
 140 00a2 FFF7FEFF 		bl	ssd1306_command
 141              	.L4:
 119:ssd1306.c     ****     }
 120:ssd1306.c     **** 
 121:ssd1306.c     **** 	//#elif defined SSD1306_128_64
 122:ssd1306.c     ****     if ((width == 128) && (height == 64))
 142              		.loc 1 122 0
 143 00a6 BB88     		ldrh	r3, [r7, #4]
 144 00a8 802B     		cmp	r3, #128
 145 00aa 15D1     		bne	.L5
 146              		.loc 1 122 0 is_stmt 0 discriminator 1
 147 00ac 7B88     		ldrh	r3, [r7, #2]
 148 00ae 402B     		cmp	r3, #64
 149 00b0 12D1     		bne	.L5
 123:ssd1306.c     ****     {
 124:ssd1306.c     ****     	ssd1306_command(SSD1306_SETCOMPINS);                    // 0xDA
 150              		.loc 1 124 0 is_stmt 1
 151 00b2 DA20     		movs	r0, #218
 152 00b4 FFF7FEFF 		bl	ssd1306_command
 125:ssd1306.c     ****     	ssd1306_command(0x12);
 153              		.loc 1 125 0
 154 00b8 1220     		movs	r0, #18
 155 00ba FFF7FEFF 		bl	ssd1306_command
 126:ssd1306.c     ****     	ssd1306_command(SSD1306_SETCONTRAST);                   // 0x81
 156              		.loc 1 126 0
 157 00be 8120     		movs	r0, #129
 158 00c0 FFF7FEFF 		bl	ssd1306_command
 127:ssd1306.c     ****     	if (vccstate == SSD1306_EXTERNALVCC)
ARM GAS  C:\Users\JEFFSN~1\AppData\Local\Temp\ccxrarRe.s 			page 6


 159              		.loc 1 127 0
 160 00c4 FB79     		ldrb	r3, [r7, #7]	@ zero_extendqisi2
 161 00c6 012B     		cmp	r3, #1
 162 00c8 03D1     		bne	.L6
 128:ssd1306.c     ****     	{ ssd1306_command(0x9F); }
 163              		.loc 1 128 0
 164 00ca 9F20     		movs	r0, #159
 165 00cc FFF7FEFF 		bl	ssd1306_command
 166 00d0 02E0     		b	.L5
 167              	.L6:
 129:ssd1306.c     ****     	else
 130:ssd1306.c     ****     	{ ssd1306_command(0xCF); }
 168              		.loc 1 130 0
 169 00d2 CF20     		movs	r0, #207
 170 00d4 FFF7FEFF 		bl	ssd1306_command
 171              	.L5:
 131:ssd1306.c     ****     }
 132:ssd1306.c     ****     
 133:ssd1306.c     ****     if ((width == 96) && (height == 16))
 172              		.loc 1 133 0
 173 00d8 BB88     		ldrh	r3, [r7, #4]
 174 00da 602B     		cmp	r3, #96
 175 00dc 15D1     		bne	.L7
 176              		.loc 1 133 0 is_stmt 0 discriminator 1
 177 00de 7B88     		ldrh	r3, [r7, #2]
 178 00e0 102B     		cmp	r3, #16
 179 00e2 12D1     		bne	.L7
 134:ssd1306.c     ****     {
 135:ssd1306.c     ****     	//#elif defined SSD1306_96_16
 136:ssd1306.c     ****     	ssd1306_command(SSD1306_SETCOMPINS);                    // 0xDA
 180              		.loc 1 136 0 is_stmt 1
 181 00e4 DA20     		movs	r0, #218
 182 00e6 FFF7FEFF 		bl	ssd1306_command
 137:ssd1306.c     ****     	ssd1306_command(0x2);   //ada x12
 183              		.loc 1 137 0
 184 00ea 0220     		movs	r0, #2
 185 00ec FFF7FEFF 		bl	ssd1306_command
 138:ssd1306.c     ****     	ssd1306_command(SSD1306_SETCONTRAST);                   // 0x81
 186              		.loc 1 138 0
 187 00f0 8120     		movs	r0, #129
 188 00f2 FFF7FEFF 		bl	ssd1306_command
 139:ssd1306.c     ****     	if (vccstate == SSD1306_EXTERNALVCC)
 189              		.loc 1 139 0
 190 00f6 FB79     		ldrb	r3, [r7, #7]	@ zero_extendqisi2
 191 00f8 012B     		cmp	r3, #1
 192 00fa 03D1     		bne	.L8
 140:ssd1306.c     ****     	{ ssd1306_command(0x10); }
 193              		.loc 1 140 0
 194 00fc 1020     		movs	r0, #16
 195 00fe FFF7FEFF 		bl	ssd1306_command
 196 0102 02E0     		b	.L7
 197              	.L8:
 141:ssd1306.c     ****     	else
 142:ssd1306.c     ****     	{ ssd1306_command(0xAF); }
 198              		.loc 1 142 0
 199 0104 AF20     		movs	r0, #175
 200 0106 FFF7FEFF 		bl	ssd1306_command
ARM GAS  C:\Users\JEFFSN~1\AppData\Local\Temp\ccxrarRe.s 			page 7


 201              	.L7:
 143:ssd1306.c     ****     }
 144:ssd1306.c     **** 	//#endif
 145:ssd1306.c     **** 
 146:ssd1306.c     **** 	ssd1306_command(SSD1306_SETPRECHARGE);                  // 0xd9
 202              		.loc 1 146 0
 203 010a D920     		movs	r0, #217
 204 010c FFF7FEFF 		bl	ssd1306_command
 147:ssd1306.c     **** 	if (vccstate == SSD1306_EXTERNALVCC)
 205              		.loc 1 147 0
 206 0110 FB79     		ldrb	r3, [r7, #7]	@ zero_extendqisi2
 207 0112 012B     		cmp	r3, #1
 208 0114 03D1     		bne	.L9
 148:ssd1306.c     **** 	{ ssd1306_command(0x22); }
 209              		.loc 1 148 0
 210 0116 2220     		movs	r0, #34
 211 0118 FFF7FEFF 		bl	ssd1306_command
 212 011c 02E0     		b	.L10
 213              	.L9:
 149:ssd1306.c     **** 	else
 150:ssd1306.c     **** 	{ ssd1306_command(0xF1); }
 214              		.loc 1 150 0
 215 011e F120     		movs	r0, #241
 216 0120 FFF7FEFF 		bl	ssd1306_command
 217              	.L10:
 151:ssd1306.c     **** 	ssd1306_command(SSD1306_SETVCOMDETECT);                 // 0xDB
 218              		.loc 1 151 0
 219 0124 DB20     		movs	r0, #219
 220 0126 FFF7FEFF 		bl	ssd1306_command
 152:ssd1306.c     **** 	ssd1306_command(0x40);
 221              		.loc 1 152 0
 222 012a 4020     		movs	r0, #64
 223 012c FFF7FEFF 		bl	ssd1306_command
 153:ssd1306.c     **** 	ssd1306_command(SSD1306_DISPLAYALLON_RESUME);           // 0xA4
 224              		.loc 1 153 0
 225 0130 A420     		movs	r0, #164
 226 0132 FFF7FEFF 		bl	ssd1306_command
 154:ssd1306.c     **** 	ssd1306_command(SSD1306_NORMALDISPLAY);                 // 0xA6
 227              		.loc 1 154 0
 228 0136 A620     		movs	r0, #166
 229 0138 FFF7FEFF 		bl	ssd1306_command
 155:ssd1306.c     **** 
 156:ssd1306.c     **** 	ssd1306_command(SSD1306_DEACTIVATE_SCROLL);
 230              		.loc 1 156 0
 231 013c 2E20     		movs	r0, #46
 232 013e FFF7FEFF 		bl	ssd1306_command
 157:ssd1306.c     **** 
 158:ssd1306.c     **** 	ssd1306_command(SSD1306_DISPLAYON);//--turn on oled panel
 233              		.loc 1 158 0
 234 0142 AF20     		movs	r0, #175
 235 0144 FFF7FEFF 		bl	ssd1306_command
 159:ssd1306.c     **** }
 236              		.loc 1 159 0
 237 0148 00BF     		nop
 238 014a 0837     		adds	r7, r7, #8
 239              		.cfi_def_cfa_offset 8
 240 014c BD46     		mov	sp, r7
ARM GAS  C:\Users\JEFFSN~1\AppData\Local\Temp\ccxrarRe.s 			page 8


 241              		.cfi_def_cfa_register 13
 242              		@ sp needed
 243 014e 80BD     		pop	{r7, pc}
 244              	.L12:
 245              		.align	2
 246              	.L11:
 247 0150 00000000 		.word	OLED_externalVCC
 248              		.cfi_endproc
 249              	.LFE64:
 250              		.size	ssd1306_begin, .-ssd1306_begin
 251              		.section	.text.sdd1306_invertDisplay,"ax",%progbits
 252              		.align	2
 253              		.global	sdd1306_invertDisplay
 254              		.thumb
 255              		.thumb_func
 256              		.type	sdd1306_invertDisplay, %function
 257              	sdd1306_invertDisplay:
 258              	.LFB65:
 160:ssd1306.c     **** 
 161:ssd1306.c     **** 
 162:ssd1306.c     **** void sdd1306_invertDisplay(uint8_t i) {
 259              		.loc 1 162 0
 260              		.cfi_startproc
 261              		@ args = 0, pretend = 0, frame = 8
 262              		@ frame_needed = 1, uses_anonymous_args = 0
 263 0000 80B5     		push	{r7, lr}
 264              		.cfi_def_cfa_offset 8
 265              		.cfi_offset 7, -8
 266              		.cfi_offset 14, -4
 267 0002 82B0     		sub	sp, sp, #8
 268              		.cfi_def_cfa_offset 16
 269 0004 00AF     		add	r7, sp, #0
 270              		.cfi_def_cfa_register 7
 271 0006 0346     		mov	r3, r0
 272 0008 FB71     		strb	r3, [r7, #7]
 163:ssd1306.c     ****   if (i) {
 273              		.loc 1 163 0
 274 000a FB79     		ldrb	r3, [r7, #7]	@ zero_extendqisi2
 275 000c 002B     		cmp	r3, #0
 276 000e 03D0     		beq	.L14
 164:ssd1306.c     ****     ssd1306_command(SSD1306_INVERTDISPLAY);
 277              		.loc 1 164 0
 278 0010 A720     		movs	r0, #167
 279 0012 FFF7FEFF 		bl	ssd1306_command
 165:ssd1306.c     ****   } else {
 166:ssd1306.c     ****     ssd1306_command(SSD1306_NORMALDISPLAY);
 167:ssd1306.c     ****   }
 168:ssd1306.c     **** }
 280              		.loc 1 168 0
 281 0016 02E0     		b	.L16
 282              	.L14:
 166:ssd1306.c     ****   }
 283              		.loc 1 166 0
 284 0018 A620     		movs	r0, #166
 285 001a FFF7FEFF 		bl	ssd1306_command
 286              	.L16:
 287              		.loc 1 168 0
ARM GAS  C:\Users\JEFFSN~1\AppData\Local\Temp\ccxrarRe.s 			page 9


 288 001e 00BF     		nop
 289 0020 0837     		adds	r7, r7, #8
 290              		.cfi_def_cfa_offset 8
 291 0022 BD46     		mov	sp, r7
 292              		.cfi_def_cfa_register 13
 293              		@ sp needed
 294 0024 80BD     		pop	{r7, pc}
 295              		.cfi_endproc
 296              	.LFE65:
 297              		.size	sdd1306_invertDisplay, .-sdd1306_invertDisplay
 298 0026 00BF     		.section	.text.ssd1306_command,"ax",%progbits
 299              		.align	2
 300              		.global	ssd1306_command
 301              		.thumb
 302              		.thumb_func
 303              		.type	ssd1306_command, %function
 304              	ssd1306_command:
 305              	.LFB66:
 169:ssd1306.c     **** 
 170:ssd1306.c     **** void ssd1306_command(uint8_t c) {
 306              		.loc 1 170 0
 307              		.cfi_startproc
 308              		@ args = 0, pretend = 0, frame = 8
 309              		@ frame_needed = 1, uses_anonymous_args = 0
 310 0000 80B5     		push	{r7, lr}
 311              		.cfi_def_cfa_offset 8
 312              		.cfi_offset 7, -8
 313              		.cfi_offset 14, -4
 314 0002 82B0     		sub	sp, sp, #8
 315              		.cfi_def_cfa_offset 16
 316 0004 00AF     		add	r7, sp, #0
 317              		.cfi_def_cfa_register 7
 318 0006 0346     		mov	r3, r0
 319 0008 FB71     		strb	r3, [r7, #7]
 171:ssd1306.c     **** 
 172:ssd1306.c     **** 	I2Cbuff1[0] = 0x0;
 320              		.loc 1 172 0
 321 000a 074B     		ldr	r3, .L18
 322 000c 0022     		movs	r2, #0
 323 000e 1A70     		strb	r2, [r3]
 173:ssd1306.c     ****     I2Cbuff1[1] = c;
 324              		.loc 1 173 0
 325 0010 054A     		ldr	r2, .L18
 326 0012 FB79     		ldrb	r3, [r7, #7]
 327 0014 5370     		strb	r3, [r2, #1]
 174:ssd1306.c     **** 	I2C_MasterWriteBlocking(SSD1306_I2C_ADDRESS, 2, I2C_1_MODE_COMPLETE_XFER);
 328              		.loc 1 174 0
 329 0016 0022     		movs	r2, #0
 330 0018 0221     		movs	r1, #2
 331 001a 3C20     		movs	r0, #60
 332 001c FFF7FEFF 		bl	I2C_MasterWriteBlocking
 175:ssd1306.c     **** }
 333              		.loc 1 175 0
 334 0020 00BF     		nop
 335 0022 0837     		adds	r7, r7, #8
 336              		.cfi_def_cfa_offset 8
 337 0024 BD46     		mov	sp, r7
ARM GAS  C:\Users\JEFFSN~1\AppData\Local\Temp\ccxrarRe.s 			page 10


 338              		.cfi_def_cfa_register 13
 339              		@ sp needed
 340 0026 80BD     		pop	{r7, pc}
 341              	.L19:
 342              		.align	2
 343              	.L18:
 344 0028 00000000 		.word	I2Cbuff1
 345              		.cfi_endproc
 346              	.LFE66:
 347              		.size	ssd1306_command, .-ssd1306_command
 348              		.section	.text.ssd1306_dim,"ax",%progbits
 349              		.align	2
 350              		.global	ssd1306_dim
 351              		.thumb
 352              		.thumb_func
 353              		.type	ssd1306_dim, %function
 354              	ssd1306_dim:
 355              	.LFB67:
 176:ssd1306.c     **** 
 177:ssd1306.c     **** 
 178:ssd1306.c     **** // Dim the display
 179:ssd1306.c     **** // dim = true: display is dimmed
 180:ssd1306.c     **** // dim = false: display is normal
 181:ssd1306.c     **** void ssd1306_dim(uint8_t dim) {
 356              		.loc 1 181 0
 357              		.cfi_startproc
 358              		@ args = 0, pretend = 0, frame = 16
 359              		@ frame_needed = 1, uses_anonymous_args = 0
 360 0000 80B5     		push	{r7, lr}
 361              		.cfi_def_cfa_offset 8
 362              		.cfi_offset 7, -8
 363              		.cfi_offset 14, -4
 364 0002 84B0     		sub	sp, sp, #16
 365              		.cfi_def_cfa_offset 24
 366 0004 00AF     		add	r7, sp, #0
 367              		.cfi_def_cfa_register 7
 368 0006 0346     		mov	r3, r0
 369 0008 FB71     		strb	r3, [r7, #7]
 182:ssd1306.c     ****   uint8_t contrast;
 183:ssd1306.c     **** 
 184:ssd1306.c     ****   if (dim) {
 370              		.loc 1 184 0
 371 000a FB79     		ldrb	r3, [r7, #7]	@ zero_extendqisi2
 372 000c 002B     		cmp	r3, #0
 373 000e 02D0     		beq	.L21
 185:ssd1306.c     ****     contrast = 0; // Dimmed display
 374              		.loc 1 185 0
 375 0010 0023     		movs	r3, #0
 376 0012 FB73     		strb	r3, [r7, #15]
 377 0014 08E0     		b	.L22
 378              	.L21:
 186:ssd1306.c     ****   } else {
 187:ssd1306.c     ****     if (OLED_externalVCC == SSD1306_EXTERNALVCC) {
 379              		.loc 1 187 0
 380 0016 0A4B     		ldr	r3, .L24
 381 0018 1B78     		ldrb	r3, [r3]	@ zero_extendqisi2
 382 001a 012B     		cmp	r3, #1
ARM GAS  C:\Users\JEFFSN~1\AppData\Local\Temp\ccxrarRe.s 			page 11


 383 001c 02D1     		bne	.L23
 188:ssd1306.c     ****       contrast = 0x9F;
 384              		.loc 1 188 0
 385 001e 9F23     		movs	r3, #159
 386 0020 FB73     		strb	r3, [r7, #15]
 387 0022 01E0     		b	.L22
 388              	.L23:
 189:ssd1306.c     ****     } else {
 190:ssd1306.c     ****       contrast = 0xCF;
 389              		.loc 1 190 0
 390 0024 CF23     		movs	r3, #207
 391 0026 FB73     		strb	r3, [r7, #15]
 392              	.L22:
 191:ssd1306.c     ****     }
 192:ssd1306.c     ****   }
 193:ssd1306.c     ****   // the range of contrast to too small to be really useful
 194:ssd1306.c     ****   // it is useful to dim the display
 195:ssd1306.c     ****   ssd1306_command(SSD1306_SETCONTRAST);
 393              		.loc 1 195 0
 394 0028 8120     		movs	r0, #129
 395 002a FFF7FEFF 		bl	ssd1306_command
 196:ssd1306.c     ****   ssd1306_command(contrast);
 396              		.loc 1 196 0
 397 002e FB7B     		ldrb	r3, [r7, #15]	@ zero_extendqisi2
 398 0030 1846     		mov	r0, r3
 399 0032 FFF7FEFF 		bl	ssd1306_command
 197:ssd1306.c     **** }
 400              		.loc 1 197 0
 401 0036 00BF     		nop
 402 0038 1037     		adds	r7, r7, #16
 403              		.cfi_def_cfa_offset 8
 404 003a BD46     		mov	sp, r7
 405              		.cfi_def_cfa_register 13
 406              		@ sp needed
 407 003c 80BD     		pop	{r7, pc}
 408              	.L25:
 409 003e 00BF     		.align	2
 410              	.L24:
 411 0040 00000000 		.word	OLED_externalVCC
 412              		.cfi_endproc
 413              	.LFE67:
 414              		.size	ssd1306_dim, .-ssd1306_dim
 415              		.section	.text.ssd1306_display_full_buffer,"ax",%progbits
 416              		.align	2
 417              		.global	ssd1306_display_full_buffer
 418              		.thumb
 419              		.thumb_func
 420              		.type	ssd1306_display_full_buffer, %function
 421              	ssd1306_display_full_buffer:
 422              	.LFB68:
 198:ssd1306.c     **** 
 199:ssd1306.c     **** 
 200:ssd1306.c     **** 
 201:ssd1306.c     **** void ssd1306_display_full_buffer(int width, int height) {
 423              		.loc 1 201 0
 424              		.cfi_startproc
 425              		@ args = 0, pretend = 0, frame = 24
ARM GAS  C:\Users\JEFFSN~1\AppData\Local\Temp\ccxrarRe.s 			page 12


 426              		@ frame_needed = 1, uses_anonymous_args = 0
 427 0000 80B5     		push	{r7, lr}
 428              		.cfi_def_cfa_offset 8
 429              		.cfi_offset 7, -8
 430              		.cfi_offset 14, -4
 431 0002 86B0     		sub	sp, sp, #24
 432              		.cfi_def_cfa_offset 32
 433 0004 00AF     		add	r7, sp, #0
 434              		.cfi_def_cfa_register 7
 435 0006 7860     		str	r0, [r7, #4]
 436 0008 3960     		str	r1, [r7]
 202:ssd1306.c     **** 
 203:ssd1306.c     **** 	ssd1306_home();
 437              		.loc 1 203 0
 438 000a FFF7FEFF 		bl	ssd1306_home
 204:ssd1306.c     **** 
 205:ssd1306.c     **** //	for (int i = 0; i < 512; i++)
 206:ssd1306.c     **** //	{
 207:ssd1306.c     **** //		displayBufferChunk[0] = 0x40;
 208:ssd1306.c     **** //		for (int x = 0; x < 16; x++)
 209:ssd1306.c     **** //		{
 210:ssd1306.c     **** //			displayBufferChunk[x+1] = buffer[i];
 211:ssd1306.c     **** //			i++;
 212:ssd1306.c     **** //		}
 213:ssd1306.c     **** //		HAL_I2C_Master_Transmit_DMA(OLED_i2c_handle, OLED_i2c_address, displayBufferChunk, 17);
 214:ssd1306.c     **** ////		HAL_I2C_Master_Transmit(OLED_i2c_handle, OLED_i2c_address, displayBufferChunk, 17, 2000);
 215:ssd1306.c     **** ////		HAL_Delay(1);
 216:ssd1306.c     **** //		i--;
 217:ssd1306.c     **** //	}
 218:ssd1306.c     ****     
 219:ssd1306.c     ****      ssd1306_command(SSD1306_SETLOWCOLUMN | 0x0);  // low col = 0
 439              		.loc 1 219 0
 440 000e 0020     		movs	r0, #0
 441 0010 FFF7FEFF 		bl	ssd1306_command
 220:ssd1306.c     ****     ssd1306_command(SSD1306_SETHIGHCOLUMN | 0x0);  // hi col = 0
 442              		.loc 1 220 0
 443 0014 1020     		movs	r0, #16
 444 0016 FFF7FEFF 		bl	ssd1306_command
 221:ssd1306.c     ****     ssd1306_command(SSD1306_SETSTARTLINE | 0x0); // line #0
 445              		.loc 1 221 0
 446 001a 4020     		movs	r0, #64
 447 001c FFF7FEFF 		bl	ssd1306_command
 222:ssd1306.c     **** 	
 223:ssd1306.c     ****   
 224:ssd1306.c     **** 
 225:ssd1306.c     **** 
 226:ssd1306.c     ****     //Serial.println(TWBR, DEC);
 227:ssd1306.c     ****     //Serial.println(TWSR & 0x3, DEC);
 228:ssd1306.c     **** 
 229:ssd1306.c     ****     // I2C
 230:ssd1306.c     ****     //height >>= 3;
 231:ssd1306.c     ****     //width >>= 3;
 232:ssd1306.c     **** 	unsigned char m_row = 0;
 448              		.loc 1 232 0
 449 0020 0023     		movs	r3, #0
 450 0022 FB73     		strb	r3, [r7, #15]
 233:ssd1306.c     **** 	unsigned char m_col = 2;
ARM GAS  C:\Users\JEFFSN~1\AppData\Local\Temp\ccxrarRe.s 			page 13


 451              		.loc 1 233 0
 452 0024 0223     		movs	r3, #2
 453 0026 BB73     		strb	r3, [r7, #14]
 234:ssd1306.c     **** 	
 235:ssd1306.c     **** 	
 236:ssd1306.c     **** 	height >>= 3;
 454              		.loc 1 236 0
 455 0028 3B68     		ldr	r3, [r7]
 456 002a DB10     		asrs	r3, r3, #3
 457 002c 3B60     		str	r3, [r7]
 237:ssd1306.c     **** 	width >>= 3;
 458              		.loc 1 237 0
 459 002e 7B68     		ldr	r3, [r7, #4]
 460 0030 DB10     		asrs	r3, r3, #3
 461 0032 7B60     		str	r3, [r7, #4]
 238:ssd1306.c     **** 	//Serial.println(width);
 239:ssd1306.c     **** 	
 240:ssd1306.c     **** 	int p = 0;
 462              		.loc 1 240 0
 463 0034 0023     		movs	r3, #0
 464 0036 BB60     		str	r3, [r7, #8]
 241:ssd1306.c     **** 	
 242:ssd1306.c     **** 	unsigned char i, j, k =0;
 465              		.loc 1 242 0
 466 0038 0023     		movs	r3, #0
 467 003a 7B75     		strb	r3, [r7, #21]
 243:ssd1306.c     **** 
 244:ssd1306.c     **** 	
 245:ssd1306.c     **** 	for ( i = 0; i < height; i++) 
 468              		.loc 1 245 0
 469 003c 0023     		movs	r3, #0
 470 003e FB75     		strb	r3, [r7, #23]
 471 0040 49E0     		b	.L27
 472              	.L32:
 246:ssd1306.c     ****     {
 247:ssd1306.c     **** 		
 248:ssd1306.c     **** 		// send a bunch of data in one xmission
 249:ssd1306.c     ****         ssd1306_command(0xB0 + i + m_row);//set page address
 473              		.loc 1 249 0
 474 0042 FA7D     		ldrb	r2, [r7, #23]
 475 0044 FB7B     		ldrb	r3, [r7, #15]
 476 0046 1344     		add	r3, r3, r2
 477 0048 DBB2     		uxtb	r3, r3
 478 004a 503B     		subs	r3, r3, #80
 479 004c DBB2     		uxtb	r3, r3
 480 004e 1846     		mov	r0, r3
 481 0050 FFF7FEFF 		bl	ssd1306_command
 250:ssd1306.c     ****         ssd1306_command(m_col & 0xf);//set lower column address
 482              		.loc 1 250 0
 483 0054 BB7B     		ldrb	r3, [r7, #14]
 484 0056 03F00F03 		and	r3, r3, #15
 485 005a DBB2     		uxtb	r3, r3
 486 005c 1846     		mov	r0, r3
 487 005e FFF7FEFF 		bl	ssd1306_command
 251:ssd1306.c     ****         ssd1306_command(0x10 | (m_col >> 4));//set higher column address
 488              		.loc 1 251 0
 489 0062 BB7B     		ldrb	r3, [r7, #14]	@ zero_extendqisi2
ARM GAS  C:\Users\JEFFSN~1\AppData\Local\Temp\ccxrarRe.s 			page 14


 490 0064 1B09     		lsrs	r3, r3, #4
 491 0066 DBB2     		uxtb	r3, r3
 492 0068 43F01003 		orr	r3, r3, #16
 493 006c DBB2     		uxtb	r3, r3
 494 006e 1846     		mov	r0, r3
 495 0070 FFF7FEFF 		bl	ssd1306_command
 252:ssd1306.c     **** 		
 253:ssd1306.c     ****         
 254:ssd1306.c     ****         I2Cbuff1[0] = 0x40;
 496              		.loc 1 254 0
 497 0074 1C4B     		ldr	r3, .L33
 498 0076 4022     		movs	r2, #64
 499 0078 1A70     		strb	r2, [r3]
 255:ssd1306.c     **** 
 256:ssd1306.c     ****         
 257:ssd1306.c     **** 
 258:ssd1306.c     ****         for( j = 0; j < 8; j++)
 500              		.loc 1 258 0
 501 007a 0023     		movs	r3, #0
 502 007c BB75     		strb	r3, [r7, #22]
 503 007e 24E0     		b	.L28
 504              	.L31:
 505              	.LBB2:
 259:ssd1306.c     ****         {      
 260:ssd1306.c     **** 
 261:ssd1306.c     ****             for (int b = 0; b < width; b++)
 506              		.loc 1 261 0
 507 0080 0023     		movs	r3, #0
 508 0082 3B61     		str	r3, [r7, #16]
 509 0084 0EE0     		b	.L29
 510              	.L30:
 262:ssd1306.c     **** 	        {
 263:ssd1306.c     **** 		        I2Cbuff1[b+1] = buffer[b + (width*k)];
 511              		.loc 1 263 0 discriminator 3
 512 0086 3B69     		ldr	r3, [r7, #16]
 513 0088 0133     		adds	r3, r3, #1
 514 008a 7A7D     		ldrb	r2, [r7, #21]	@ zero_extendqisi2
 515 008c 7968     		ldr	r1, [r7, #4]
 516 008e 01FB02F1 		mul	r1, r1, r2
 517 0092 3A69     		ldr	r2, [r7, #16]
 518 0094 0A44     		add	r2, r2, r1
 519 0096 1549     		ldr	r1, .L33+4
 520 0098 895C     		ldrb	r1, [r1, r2]	@ zero_extendqisi2
 521 009a 134A     		ldr	r2, .L33
 522 009c D154     		strb	r1, [r2, r3]
 261:ssd1306.c     **** 	        {
 523              		.loc 1 261 0 discriminator 3
 524 009e 3B69     		ldr	r3, [r7, #16]
 525 00a0 0133     		adds	r3, r3, #1
 526 00a2 3B61     		str	r3, [r7, #16]
 527              	.L29:
 261:ssd1306.c     **** 	        {
 528              		.loc 1 261 0 is_stmt 0 discriminator 1
 529 00a4 3A69     		ldr	r2, [r7, #16]
 530 00a6 7B68     		ldr	r3, [r7, #4]
 531 00a8 9A42     		cmp	r2, r3
 532 00aa ECDB     		blt	.L30
ARM GAS  C:\Users\JEFFSN~1\AppData\Local\Temp\ccxrarRe.s 			page 15


 533              	.LBE2:
 264:ssd1306.c     **** 	        }
 265:ssd1306.c     ****             k++;
 534              		.loc 1 265 0 is_stmt 1 discriminator 2
 535 00ac 7B7D     		ldrb	r3, [r7, #21]	@ zero_extendqisi2
 536 00ae 0133     		adds	r3, r3, #1
 537 00b0 7B75     		strb	r3, [r7, #21]
 266:ssd1306.c     ****             I2C_MasterWriteBlocking(SSD1306_I2C_ADDRESS, width+1, I2C_1_MODE_COMPLETE_XFER);
 538              		.loc 1 266 0 discriminator 2
 539 00b2 7B68     		ldr	r3, [r7, #4]
 540 00b4 9BB2     		uxth	r3, r3
 541 00b6 0133     		adds	r3, r3, #1
 542 00b8 9BB2     		uxth	r3, r3
 543 00ba 0022     		movs	r2, #0
 544 00bc 1946     		mov	r1, r3
 545 00be 3C20     		movs	r0, #60
 546 00c0 FFF7FEFF 		bl	I2C_MasterWriteBlocking
 258:ssd1306.c     ****         {      
 547              		.loc 1 258 0 discriminator 2
 548 00c4 BB7D     		ldrb	r3, [r7, #22]	@ zero_extendqisi2
 549 00c6 0133     		adds	r3, r3, #1
 550 00c8 BB75     		strb	r3, [r7, #22]
 551              	.L28:
 258:ssd1306.c     ****         {      
 552              		.loc 1 258 0 is_stmt 0 discriminator 1
 553 00ca BB7D     		ldrb	r3, [r7, #22]	@ zero_extendqisi2
 554 00cc 072B     		cmp	r3, #7
 555 00ce D7D9     		bls	.L31
 245:ssd1306.c     ****     {
 556              		.loc 1 245 0 is_stmt 1 discriminator 2
 557 00d0 FB7D     		ldrb	r3, [r7, #23]	@ zero_extendqisi2
 558 00d2 0133     		adds	r3, r3, #1
 559 00d4 FB75     		strb	r3, [r7, #23]
 560              	.L27:
 245:ssd1306.c     ****     {
 561              		.loc 1 245 0 is_stmt 0 discriminator 1
 562 00d6 FA7D     		ldrb	r2, [r7, #23]	@ zero_extendqisi2
 563 00d8 3B68     		ldr	r3, [r7]
 564 00da 9A42     		cmp	r2, r3
 565 00dc B1DB     		blt	.L32
 267:ssd1306.c     ****         }
 268:ssd1306.c     **** 	}
 269:ssd1306.c     **** 	
 270:ssd1306.c     **** 
 271:ssd1306.c     ****     
 272:ssd1306.c     ****     
 273:ssd1306.c     ****     
 274:ssd1306.c     ****     
 275:ssd1306.c     ****     ////
 276:ssd1306.c     ****     
 277:ssd1306.c     ****    
 278:ssd1306.c     **** 	//HAL_I2C_Master_Transmit_DMA(OLED_i2c_handle, OLED_i2c_address, displayBufferChunk, 513);
 279:ssd1306.c     **** }
 566              		.loc 1 279 0 is_stmt 1
 567 00de 00BF     		nop
 568 00e0 1837     		adds	r7, r7, #24
 569              		.cfi_def_cfa_offset 8
ARM GAS  C:\Users\JEFFSN~1\AppData\Local\Temp\ccxrarRe.s 			page 16


 570 00e2 BD46     		mov	sp, r7
 571              		.cfi_def_cfa_register 13
 572              		@ sp needed
 573 00e4 80BD     		pop	{r7, pc}
 574              	.L34:
 575 00e6 00BF     		.align	2
 576              	.L33:
 577 00e8 00000000 		.word	I2Cbuff1
 578 00ec 00000000 		.word	buffer
 579              		.cfi_endproc
 580              	.LFE68:
 581              		.size	ssd1306_display_full_buffer, .-ssd1306_display_full_buffer
 582              		.section	.text.ssd1306_display_first_line,"ax",%progbits
 583              		.align	2
 584              		.global	ssd1306_display_first_line
 585              		.thumb
 586              		.thumb_func
 587              		.type	ssd1306_display_first_line, %function
 588              	ssd1306_display_first_line:
 589              	.LFB69:
 280:ssd1306.c     **** 
 281:ssd1306.c     **** void ssd1306_display_first_line(void) {
 590              		.loc 1 281 0
 591              		.cfi_startproc
 592              		@ args = 0, pretend = 0, frame = 16
 593              		@ frame_needed = 1, uses_anonymous_args = 0
 594 0000 80B5     		push	{r7, lr}
 595              		.cfi_def_cfa_offset 8
 596              		.cfi_offset 7, -8
 597              		.cfi_offset 14, -4
 598 0002 84B0     		sub	sp, sp, #16
 599              		.cfi_def_cfa_offset 24
 600 0004 00AF     		add	r7, sp, #0
 601              		.cfi_def_cfa_register 7
 282:ssd1306.c     **** 
 283:ssd1306.c     **** 	ssd1306_home();
 602              		.loc 1 283 0
 603 0006 FFF7FEFF 		bl	ssd1306_home
 284:ssd1306.c     **** 
 285:ssd1306.c     **** //	for (int i = 0; i < 512; i++)
 286:ssd1306.c     **** //	{
 287:ssd1306.c     **** //		displayBufferChunk[0] = 0x40;
 288:ssd1306.c     **** //		for (int x = 0; x < 16; x++)
 289:ssd1306.c     **** //		{
 290:ssd1306.c     **** //			displayBufferChunk[x+1] = buffer[i];
 291:ssd1306.c     **** //			i++;
 292:ssd1306.c     **** //		}
 293:ssd1306.c     **** //		HAL_I2C_Master_Transmit_DMA(OLED_i2c_handle, OLED_i2c_address, displayBufferChunk, 17);
 294:ssd1306.c     **** ////		HAL_I2C_Master_Transmit(OLED_i2c_handle, OLED_i2c_address, displayBufferChunk, 17, 2000);
 295:ssd1306.c     **** ////		HAL_Delay(1);
 296:ssd1306.c     **** //		i--;
 297:ssd1306.c     **** //	}
 298:ssd1306.c     ****     
 299:ssd1306.c     ****      ssd1306_command(SSD1306_SETLOWCOLUMN | 0x0);  // low col = 0
 604              		.loc 1 299 0
 605 000a 0020     		movs	r0, #0
 606 000c FFF7FEFF 		bl	ssd1306_command
ARM GAS  C:\Users\JEFFSN~1\AppData\Local\Temp\ccxrarRe.s 			page 17


 300:ssd1306.c     ****     ssd1306_command(SSD1306_SETHIGHCOLUMN | 0x0);  // hi col = 0
 607              		.loc 1 300 0
 608 0010 1020     		movs	r0, #16
 609 0012 FFF7FEFF 		bl	ssd1306_command
 301:ssd1306.c     ****     ssd1306_command(SSD1306_SETSTARTLINE | 0x0); // line #0
 610              		.loc 1 301 0
 611 0016 4020     		movs	r0, #64
 612 0018 FFF7FEFF 		bl	ssd1306_command
 302:ssd1306.c     **** 	
 303:ssd1306.c     ****   
 304:ssd1306.c     **** 
 305:ssd1306.c     **** 
 306:ssd1306.c     ****     //Serial.println(TWBR, DEC);
 307:ssd1306.c     ****     //Serial.println(TWSR & 0x3, DEC);
 308:ssd1306.c     **** 
 309:ssd1306.c     ****     // I2C
 310:ssd1306.c     ****     //height >>= 3;
 311:ssd1306.c     ****     //width >>= 3;
 312:ssd1306.c     **** 	unsigned char height=16;
 613              		.loc 1 312 0
 614 001c 1023     		movs	r3, #16
 615 001e FB71     		strb	r3, [r7, #7]
 313:ssd1306.c     **** 	unsigned char width=132; 
 616              		.loc 1 313 0
 617 0020 8423     		movs	r3, #132
 618 0022 BB71     		strb	r3, [r7, #6]
 314:ssd1306.c     **** 	unsigned char m_row = 0;
 619              		.loc 1 314 0
 620 0024 0023     		movs	r3, #0
 621 0026 7B71     		strb	r3, [r7, #5]
 315:ssd1306.c     **** 	unsigned char m_col = 2;
 622              		.loc 1 315 0
 623 0028 0223     		movs	r3, #2
 624 002a 3B71     		strb	r3, [r7, #4]
 316:ssd1306.c     **** 	
 317:ssd1306.c     **** 	
 318:ssd1306.c     **** 	height >>= 3;
 625              		.loc 1 318 0
 626 002c FB79     		ldrb	r3, [r7, #7]	@ zero_extendqisi2
 627 002e DB08     		lsrs	r3, r3, #3
 628 0030 FB71     		strb	r3, [r7, #7]
 319:ssd1306.c     **** 	width >>= 3;
 629              		.loc 1 319 0
 630 0032 BB79     		ldrb	r3, [r7, #6]	@ zero_extendqisi2
 631 0034 DB08     		lsrs	r3, r3, #3
 632 0036 BB71     		strb	r3, [r7, #6]
 320:ssd1306.c     **** 	//Serial.println(width);
 321:ssd1306.c     **** 	
 322:ssd1306.c     **** 	int p = 0;
 633              		.loc 1 322 0
 634 0038 0023     		movs	r3, #0
 635 003a 3B60     		str	r3, [r7]
 323:ssd1306.c     **** 	
 324:ssd1306.c     **** 	unsigned char i, j, k =0;
 636              		.loc 1 324 0
 637 003c 0023     		movs	r3, #0
 638 003e 7B73     		strb	r3, [r7, #13]
ARM GAS  C:\Users\JEFFSN~1\AppData\Local\Temp\ccxrarRe.s 			page 18


 325:ssd1306.c     **** 
 326:ssd1306.c     **** 	
 327:ssd1306.c     **** 	for ( i = 0; i < height; i++) 
 639              		.loc 1 327 0
 640 0040 0023     		movs	r3, #0
 641 0042 FB73     		strb	r3, [r7, #15]
 642 0044 49E0     		b	.L36
 643              	.L41:
 328:ssd1306.c     ****     {
 329:ssd1306.c     **** 		
 330:ssd1306.c     **** 		// send a bunch of data in one xmission
 331:ssd1306.c     ****         ssd1306_command(0xB0 + i + m_row);//set page address
 644              		.loc 1 331 0
 645 0046 FA7B     		ldrb	r2, [r7, #15]
 646 0048 7B79     		ldrb	r3, [r7, #5]
 647 004a 1344     		add	r3, r3, r2
 648 004c DBB2     		uxtb	r3, r3
 649 004e 503B     		subs	r3, r3, #80
 650 0050 DBB2     		uxtb	r3, r3
 651 0052 1846     		mov	r0, r3
 652 0054 FFF7FEFF 		bl	ssd1306_command
 332:ssd1306.c     ****         ssd1306_command(m_col & 0xf);//set lower column address
 653              		.loc 1 332 0
 654 0058 3B79     		ldrb	r3, [r7, #4]
 655 005a 03F00F03 		and	r3, r3, #15
 656 005e DBB2     		uxtb	r3, r3
 657 0060 1846     		mov	r0, r3
 658 0062 FFF7FEFF 		bl	ssd1306_command
 333:ssd1306.c     ****         ssd1306_command(0x10 | (m_col >> 4));//set higher column address
 659              		.loc 1 333 0
 660 0066 3B79     		ldrb	r3, [r7, #4]	@ zero_extendqisi2
 661 0068 1B09     		lsrs	r3, r3, #4
 662 006a DBB2     		uxtb	r3, r3
 663 006c 43F01003 		orr	r3, r3, #16
 664 0070 DBB2     		uxtb	r3, r3
 665 0072 1846     		mov	r0, r3
 666 0074 FFF7FEFF 		bl	ssd1306_command
 334:ssd1306.c     **** 		
 335:ssd1306.c     ****         
 336:ssd1306.c     ****         I2Cbuff1[0] = 0x40;
 667              		.loc 1 336 0
 668 0078 1C4B     		ldr	r3, .L42
 669 007a 4022     		movs	r2, #64
 670 007c 1A70     		strb	r2, [r3]
 337:ssd1306.c     **** 
 338:ssd1306.c     ****         
 339:ssd1306.c     **** 
 340:ssd1306.c     ****         for( j = 0; j < 8; j++)
 671              		.loc 1 340 0
 672 007e 0023     		movs	r3, #0
 673 0080 BB73     		strb	r3, [r7, #14]
 674 0082 24E0     		b	.L37
 675              	.L40:
 676              	.LBB3:
 341:ssd1306.c     ****         {      
 342:ssd1306.c     **** 
 343:ssd1306.c     ****             for (int b = 0; b < width; b++)
ARM GAS  C:\Users\JEFFSN~1\AppData\Local\Temp\ccxrarRe.s 			page 19


 677              		.loc 1 343 0
 678 0084 0023     		movs	r3, #0
 679 0086 BB60     		str	r3, [r7, #8]
 680 0088 0EE0     		b	.L38
 681              	.L39:
 344:ssd1306.c     **** 	        {
 345:ssd1306.c     **** 		        I2Cbuff1[b+1] = buffer[b + (width*k)];
 682              		.loc 1 345 0 discriminator 3
 683 008a BB68     		ldr	r3, [r7, #8]
 684 008c 0133     		adds	r3, r3, #1
 685 008e BA79     		ldrb	r2, [r7, #6]	@ zero_extendqisi2
 686 0090 797B     		ldrb	r1, [r7, #13]	@ zero_extendqisi2
 687 0092 01FB02F1 		mul	r1, r1, r2
 688 0096 BA68     		ldr	r2, [r7, #8]
 689 0098 0A44     		add	r2, r2, r1
 690 009a 1549     		ldr	r1, .L42+4
 691 009c 895C     		ldrb	r1, [r1, r2]	@ zero_extendqisi2
 692 009e 134A     		ldr	r2, .L42
 693 00a0 D154     		strb	r1, [r2, r3]
 343:ssd1306.c     **** 	        {
 694              		.loc 1 343 0 discriminator 3
 695 00a2 BB68     		ldr	r3, [r7, #8]
 696 00a4 0133     		adds	r3, r3, #1
 697 00a6 BB60     		str	r3, [r7, #8]
 698              	.L38:
 343:ssd1306.c     **** 	        {
 699              		.loc 1 343 0 is_stmt 0 discriminator 1
 700 00a8 BA79     		ldrb	r2, [r7, #6]	@ zero_extendqisi2
 701 00aa BB68     		ldr	r3, [r7, #8]
 702 00ac 9A42     		cmp	r2, r3
 703 00ae ECDC     		bgt	.L39
 704              	.LBE3:
 346:ssd1306.c     **** 	        }
 347:ssd1306.c     ****             k++;
 705              		.loc 1 347 0 is_stmt 1 discriminator 2
 706 00b0 7B7B     		ldrb	r3, [r7, #13]	@ zero_extendqisi2
 707 00b2 0133     		adds	r3, r3, #1
 708 00b4 7B73     		strb	r3, [r7, #13]
 348:ssd1306.c     ****             I2C_MasterWriteBlocking(SSD1306_I2C_ADDRESS, width+1, I2C_1_MODE_COMPLETE_XFER);
 709              		.loc 1 348 0 discriminator 2
 710 00b6 BB79     		ldrb	r3, [r7, #6]	@ zero_extendqisi2
 711 00b8 9BB2     		uxth	r3, r3
 712 00ba 0133     		adds	r3, r3, #1
 713 00bc 9BB2     		uxth	r3, r3
 714 00be 0022     		movs	r2, #0
 715 00c0 1946     		mov	r1, r3
 716 00c2 3C20     		movs	r0, #60
 717 00c4 FFF7FEFF 		bl	I2C_MasterWriteBlocking
 340:ssd1306.c     ****         {      
 718              		.loc 1 340 0 discriminator 2
 719 00c8 BB7B     		ldrb	r3, [r7, #14]	@ zero_extendqisi2
 720 00ca 0133     		adds	r3, r3, #1
 721 00cc BB73     		strb	r3, [r7, #14]
 722              	.L37:
 340:ssd1306.c     ****         {      
 723              		.loc 1 340 0 is_stmt 0 discriminator 1
 724 00ce BB7B     		ldrb	r3, [r7, #14]	@ zero_extendqisi2
ARM GAS  C:\Users\JEFFSN~1\AppData\Local\Temp\ccxrarRe.s 			page 20


 725 00d0 072B     		cmp	r3, #7
 726 00d2 D7D9     		bls	.L40
 327:ssd1306.c     ****     {
 727              		.loc 1 327 0 is_stmt 1 discriminator 2
 728 00d4 FB7B     		ldrb	r3, [r7, #15]	@ zero_extendqisi2
 729 00d6 0133     		adds	r3, r3, #1
 730 00d8 FB73     		strb	r3, [r7, #15]
 731              	.L36:
 327:ssd1306.c     ****     {
 732              		.loc 1 327 0 is_stmt 0 discriminator 1
 733 00da FA7B     		ldrb	r2, [r7, #15]	@ zero_extendqisi2
 734 00dc FB79     		ldrb	r3, [r7, #7]	@ zero_extendqisi2
 735 00de 9A42     		cmp	r2, r3
 736 00e0 B1D3     		bcc	.L41
 349:ssd1306.c     ****         }
 350:ssd1306.c     **** 	}
 351:ssd1306.c     **** 	
 352:ssd1306.c     **** 
 353:ssd1306.c     ****     
 354:ssd1306.c     ****     
 355:ssd1306.c     ****     
 356:ssd1306.c     ****     
 357:ssd1306.c     ****     ////
 358:ssd1306.c     ****     
 359:ssd1306.c     ****    
 360:ssd1306.c     **** 	//HAL_I2C_Master_Transmit_DMA(OLED_i2c_handle, OLED_i2c_address, displayBufferChunk, 513);
 361:ssd1306.c     **** }
 737              		.loc 1 361 0 is_stmt 1
 738 00e2 00BF     		nop
 739 00e4 1037     		adds	r7, r7, #16
 740              		.cfi_def_cfa_offset 8
 741 00e6 BD46     		mov	sp, r7
 742              		.cfi_def_cfa_register 13
 743              		@ sp needed
 744 00e8 80BD     		pop	{r7, pc}
 745              	.L43:
 746 00ea 00BF     		.align	2
 747              	.L42:
 748 00ec 00000000 		.word	I2Cbuff1
 749 00f0 00000000 		.word	buffer
 750              		.cfi_endproc
 751              	.LFE69:
 752              		.size	ssd1306_display_first_line, .-ssd1306_display_first_line
 753              		.section	.text.ssd1306_home,"ax",%progbits
 754              		.align	2
 755              		.global	ssd1306_home
 756              		.thumb
 757              		.thumb_func
 758              		.type	ssd1306_home, %function
 759              	ssd1306_home:
 760              	.LFB70:
 362:ssd1306.c     **** 
 363:ssd1306.c     **** void ssd1306_home(void) {
 761              		.loc 1 363 0
 762              		.cfi_startproc
 763              		@ args = 0, pretend = 0, frame = 0
 764              		@ frame_needed = 1, uses_anonymous_args = 0
ARM GAS  C:\Users\JEFFSN~1\AppData\Local\Temp\ccxrarRe.s 			page 21


 765 0000 80B5     		push	{r7, lr}
 766              		.cfi_def_cfa_offset 8
 767              		.cfi_offset 7, -8
 768              		.cfi_offset 14, -4
 769 0002 00AF     		add	r7, sp, #0
 770              		.cfi_def_cfa_register 7
 364:ssd1306.c     **** 
 365:ssd1306.c     **** 	ssd1306_move_raw(0,0);
 771              		.loc 1 365 0
 772 0004 0021     		movs	r1, #0
 773 0006 0020     		movs	r0, #0
 774 0008 FFF7FEFF 		bl	ssd1306_move_raw
 366:ssd1306.c     **** }
 775              		.loc 1 366 0
 776 000c 00BF     		nop
 777 000e 80BD     		pop	{r7, pc}
 778              		.cfi_endproc
 779              	.LFE70:
 780              		.size	ssd1306_home, .-ssd1306_home
 781              		.section	.text.ssd1306_move_raw,"ax",%progbits
 782              		.align	2
 783              		.global	ssd1306_move_raw
 784              		.thumb
 785              		.thumb_func
 786              		.type	ssd1306_move_raw, %function
 787              	ssd1306_move_raw:
 788              	.LFB71:
 367:ssd1306.c     **** 
 368:ssd1306.c     **** void ssd1306_move_raw(uint8_t row, uint8_t column){
 789              		.loc 1 368 0
 790              		.cfi_startproc
 791              		@ args = 0, pretend = 0, frame = 8
 792              		@ frame_needed = 1, uses_anonymous_args = 0
 793 0000 80B5     		push	{r7, lr}
 794              		.cfi_def_cfa_offset 8
 795              		.cfi_offset 7, -8
 796              		.cfi_offset 14, -4
 797 0002 82B0     		sub	sp, sp, #8
 798              		.cfi_def_cfa_offset 16
 799 0004 00AF     		add	r7, sp, #0
 800              		.cfi_def_cfa_register 7
 801 0006 0346     		mov	r3, r0
 802 0008 0A46     		mov	r2, r1
 803 000a FB71     		strb	r3, [r7, #7]
 804 000c 1346     		mov	r3, r2
 805 000e BB71     		strb	r3, [r7, #6]
 369:ssd1306.c     **** 	if(column > 127) { column = 127; }
 806              		.loc 1 369 0
 807 0010 97F90630 		ldrsb	r3, [r7, #6]
 808 0014 002B     		cmp	r3, #0
 809 0016 01DA     		bge	.L46
 810              		.loc 1 369 0 is_stmt 0 discriminator 1
 811 0018 7F23     		movs	r3, #127
 812 001a BB71     		strb	r3, [r7, #6]
 813              	.L46:
 370:ssd1306.c     **** 	if(row > 7) { row = 7; }
 814              		.loc 1 370 0 is_stmt 1
ARM GAS  C:\Users\JEFFSN~1\AppData\Local\Temp\ccxrarRe.s 			page 22


 815 001c FB79     		ldrb	r3, [r7, #7]	@ zero_extendqisi2
 816 001e 072B     		cmp	r3, #7
 817 0020 01D9     		bls	.L47
 818              		.loc 1 370 0 is_stmt 0 discriminator 1
 819 0022 0723     		movs	r3, #7
 820 0024 FB71     		strb	r3, [r7, #7]
 821              	.L47:
 371:ssd1306.c     **** 	ssd1306_command(SSD1306_COLUMNADDR);
 822              		.loc 1 371 0 is_stmt 1
 823 0026 2120     		movs	r0, #33
 824 0028 FFF7FEFF 		bl	ssd1306_command
 372:ssd1306.c     **** 	ssd1306_command(column);   // Column start address (0 = reset)
 825              		.loc 1 372 0
 826 002c BB79     		ldrb	r3, [r7, #6]	@ zero_extendqisi2
 827 002e 1846     		mov	r0, r3
 828 0030 FFF7FEFF 		bl	ssd1306_command
 373:ssd1306.c     **** 	ssd1306_command(SSD1306_LCDWIDTH-1); // Column end address (127 = reset)
 829              		.loc 1 373 0
 830 0034 7F20     		movs	r0, #127
 831 0036 FFF7FEFF 		bl	ssd1306_command
 374:ssd1306.c     **** 
 375:ssd1306.c     **** 	ssd1306_command(SSD1306_PAGEADDR);
 832              		.loc 1 375 0
 833 003a 2220     		movs	r0, #34
 834 003c FFF7FEFF 		bl	ssd1306_command
 376:ssd1306.c     **** 	ssd1306_command(row); // Page start address (0 = reset)
 835              		.loc 1 376 0
 836 0040 FB79     		ldrb	r3, [r7, #7]	@ zero_extendqisi2
 837 0042 1846     		mov	r0, r3
 838 0044 FFF7FEFF 		bl	ssd1306_command
 377:ssd1306.c     **** 	ssd1306_command(3); // Page end address
 839              		.loc 1 377 0
 840 0048 0320     		movs	r0, #3
 841 004a FFF7FEFF 		bl	ssd1306_command
 378:ssd1306.c     **** }
 842              		.loc 1 378 0
 843 004e 00BF     		nop
 844 0050 0837     		adds	r7, r7, #8
 845              		.cfi_def_cfa_offset 8
 846 0052 BD46     		mov	sp, r7
 847              		.cfi_def_cfa_register 13
 848              		@ sp needed
 849 0054 80BD     		pop	{r7, pc}
 850              		.cfi_endproc
 851              	.LFE71:
 852              		.size	ssd1306_move_raw, .-ssd1306_move_raw
 853 0056 00BF     		.section	.text.ssd1306_move,"ax",%progbits
 854              		.align	2
 855              		.global	ssd1306_move
 856              		.thumb
 857              		.thumb_func
 858              		.type	ssd1306_move, %function
 859              	ssd1306_move:
 860              	.LFB72:
 379:ssd1306.c     **** 
 380:ssd1306.c     **** 
 381:ssd1306.c     **** void ssd1306_move(uint8_t row, uint8_t column) {
ARM GAS  C:\Users\JEFFSN~1\AppData\Local\Temp\ccxrarRe.s 			page 23


 861              		.loc 1 381 0
 862              		.cfi_startproc
 863              		@ args = 0, pretend = 0, frame = 8
 864              		@ frame_needed = 1, uses_anonymous_args = 0
 865 0000 80B5     		push	{r7, lr}
 866              		.cfi_def_cfa_offset 8
 867              		.cfi_offset 7, -8
 868              		.cfi_offset 14, -4
 869 0002 82B0     		sub	sp, sp, #8
 870              		.cfi_def_cfa_offset 16
 871 0004 00AF     		add	r7, sp, #0
 872              		.cfi_def_cfa_register 7
 873 0006 0346     		mov	r3, r0
 874 0008 0A46     		mov	r2, r1
 875 000a FB71     		strb	r3, [r7, #7]
 876 000c 1346     		mov	r3, r2
 877 000e BB71     		strb	r3, [r7, #6]
 382:ssd1306.c     **** 
 383:ssd1306.c     **** 	if(column > 15) { column = 15; }
 878              		.loc 1 383 0
 879 0010 BB79     		ldrb	r3, [r7, #6]	@ zero_extendqisi2
 880 0012 0F2B     		cmp	r3, #15
 881 0014 01D9     		bls	.L49
 882              		.loc 1 383 0 is_stmt 0 discriminator 1
 883 0016 0F23     		movs	r3, #15
 884 0018 BB71     		strb	r3, [r7, #6]
 885              	.L49:
 384:ssd1306.c     **** 	if(row > 7) { row = 7; }
 886              		.loc 1 384 0 is_stmt 1
 887 001a FB79     		ldrb	r3, [r7, #7]	@ zero_extendqisi2
 888 001c 072B     		cmp	r3, #7
 889 001e 01D9     		bls	.L50
 890              		.loc 1 384 0 is_stmt 0 discriminator 1
 891 0020 0723     		movs	r3, #7
 892 0022 FB71     		strb	r3, [r7, #7]
 893              	.L50:
 385:ssd1306.c     **** 	ssd1306_move_raw(row,(uint8_t)(column << 3));
 894              		.loc 1 385 0 is_stmt 1
 895 0024 BB79     		ldrb	r3, [r7, #6]
 896 0026 DB00     		lsls	r3, r3, #3
 897 0028 DAB2     		uxtb	r2, r3
 898 002a FB79     		ldrb	r3, [r7, #7]	@ zero_extendqisi2
 899 002c 1146     		mov	r1, r2
 900 002e 1846     		mov	r0, r3
 901 0030 FFF7FEFF 		bl	ssd1306_move_raw
 386:ssd1306.c     **** }
 902              		.loc 1 386 0
 903 0034 00BF     		nop
 904 0036 0837     		adds	r7, r7, #8
 905              		.cfi_def_cfa_offset 8
 906 0038 BD46     		mov	sp, r7
 907              		.cfi_def_cfa_register 13
 908              		@ sp needed
 909 003a 80BD     		pop	{r7, pc}
 910              		.cfi_endproc
 911              	.LFE72:
 912              		.size	ssd1306_move, .-ssd1306_move
ARM GAS  C:\Users\JEFFSN~1\AppData\Local\Temp\ccxrarRe.s 			page 24


 913              		.section	.text.ssd1306_write_internal,"ax",%progbits
 914              		.align	2
 915              		.global	ssd1306_write_internal
 916              		.thumb
 917              		.thumb_func
 918              		.type	ssd1306_write_internal, %function
 919              	ssd1306_write_internal:
 920              	.LFB73:
 387:ssd1306.c     **** 
 388:ssd1306.c     **** 
 389:ssd1306.c     **** void ssd1306_write_internal(uint8_t* data, uint16_t numBytes) {
 921              		.loc 1 389 0
 922              		.cfi_startproc
 923              		@ args = 0, pretend = 0, frame = 16
 924              		@ frame_needed = 1, uses_anonymous_args = 0
 925              		@ link register save eliminated.
 926 0000 80B4     		push	{r7}
 927              		.cfi_def_cfa_offset 4
 928              		.cfi_offset 7, -4
 929 0002 85B0     		sub	sp, sp, #20
 930              		.cfi_def_cfa_offset 24
 931 0004 00AF     		add	r7, sp, #0
 932              		.cfi_def_cfa_register 7
 933 0006 7860     		str	r0, [r7, #4]
 934 0008 0B46     		mov	r3, r1
 935 000a 7B80     		strh	r3, [r7, #2]	@ movhi
 936              	.LBB4:
 390:ssd1306.c     **** 	for (uint16_t i = 0; i < numBytes; i++)
 937              		.loc 1 390 0
 938 000c 0023     		movs	r3, #0
 939 000e FB81     		strh	r3, [r7, #14]	@ movhi
 940 0010 11E0     		b	.L52
 941              	.L53:
 391:ssd1306.c     **** 	{
 392:ssd1306.c     **** 		buffer[i+(OLED_xpos + (OLED_ypos * 128))] = data[i];
 942              		.loc 1 392 0 discriminator 3
 943 0012 FA89     		ldrh	r2, [r7, #14]
 944 0014 0C4B     		ldr	r3, .L54
 945 0016 1B78     		ldrb	r3, [r3]	@ zero_extendqisi2
 946 0018 1946     		mov	r1, r3
 947 001a 0C4B     		ldr	r3, .L54+4
 948 001c 1B78     		ldrb	r3, [r3]	@ zero_extendqisi2
 949 001e DB01     		lsls	r3, r3, #7
 950 0020 0B44     		add	r3, r3, r1
 951 0022 1344     		add	r3, r3, r2
 952 0024 FA89     		ldrh	r2, [r7, #14]
 953 0026 7968     		ldr	r1, [r7, #4]
 954 0028 0A44     		add	r2, r2, r1
 955 002a 1178     		ldrb	r1, [r2]	@ zero_extendqisi2
 956 002c 084A     		ldr	r2, .L54+8
 957 002e D154     		strb	r1, [r2, r3]
 390:ssd1306.c     **** 	for (uint16_t i = 0; i < numBytes; i++)
 958              		.loc 1 390 0 discriminator 3
 959 0030 FB89     		ldrh	r3, [r7, #14]
 960 0032 0133     		adds	r3, r3, #1
 961 0034 FB81     		strh	r3, [r7, #14]	@ movhi
 962              	.L52:
ARM GAS  C:\Users\JEFFSN~1\AppData\Local\Temp\ccxrarRe.s 			page 25


 390:ssd1306.c     **** 	for (uint16_t i = 0; i < numBytes; i++)
 963              		.loc 1 390 0 is_stmt 0 discriminator 1
 964 0036 FA89     		ldrh	r2, [r7, #14]
 965 0038 7B88     		ldrh	r3, [r7, #2]
 966 003a 9A42     		cmp	r2, r3
 967 003c E9D3     		bcc	.L53
 968              	.LBE4:
 393:ssd1306.c     **** 
 394:ssd1306.c     **** 	}
 395:ssd1306.c     **** }
 969              		.loc 1 395 0 is_stmt 1
 970 003e 00BF     		nop
 971 0040 1437     		adds	r7, r7, #20
 972              		.cfi_def_cfa_offset 4
 973 0042 BD46     		mov	sp, r7
 974              		.cfi_def_cfa_register 13
 975              		@ sp needed
 976 0044 80BC     		pop	{r7}
 977              		.cfi_restore 7
 978              		.cfi_def_cfa_offset 0
 979 0046 7047     		bx	lr
 980              	.L55:
 981              		.align	2
 982              	.L54:
 983 0048 00000000 		.word	OLED_xpos
 984 004c 00000000 		.word	OLED_ypos
 985 0050 00000000 		.word	buffer
 986              		.cfi_endproc
 987              	.LFE73:
 988              		.size	ssd1306_write_internal, .-ssd1306_write_internal
 989              		.section	.text.ssd1306_write,"ax",%progbits
 990              		.align	2
 991              		.global	ssd1306_write
 992              		.thumb
 993              		.thumb_func
 994              		.type	ssd1306_write, %function
 995              	ssd1306_write:
 996              	.LFB74:
 396:ssd1306.c     **** 
 397:ssd1306.c     **** 
 398:ssd1306.c     **** 
 399:ssd1306.c     **** void ssd1306_write(uint8_t* data, uint16_t numBytes) {
 997              		.loc 1 399 0
 998              		.cfi_startproc
 999              		@ args = 0, pretend = 0, frame = 16
 1000              		@ frame_needed = 1, uses_anonymous_args = 0
 1001 0000 80B5     		push	{r7, lr}
 1002              		.cfi_def_cfa_offset 8
 1003              		.cfi_offset 7, -8
 1004              		.cfi_offset 14, -4
 1005 0002 84B0     		sub	sp, sp, #16
 1006              		.cfi_def_cfa_offset 24
 1007 0004 00AF     		add	r7, sp, #0
 1008              		.cfi_def_cfa_register 7
 1009 0006 7860     		str	r0, [r7, #4]
 1010 0008 0B46     		mov	r3, r1
 1011 000a 7B80     		strh	r3, [r7, #2]	@ movhi
ARM GAS  C:\Users\JEFFSN~1\AppData\Local\Temp\ccxrarRe.s 			page 26


 400:ssd1306.c     **** 
 401:ssd1306.c     **** 	I2Cbuff1[0] = 0x40;
 1012              		.loc 1 401 0
 1013 000c 104B     		ldr	r3, .L59
 1014 000e 4022     		movs	r2, #64
 1015 0010 1A70     		strb	r2, [r3]
 1016              	.LBB5:
 402:ssd1306.c     **** 
 403:ssd1306.c     **** 	for (uint16_t i = 0; i < numBytes; i++)
 1017              		.loc 1 403 0
 1018 0012 0023     		movs	r3, #0
 1019 0014 FB81     		strh	r3, [r7, #14]	@ movhi
 1020 0016 0AE0     		b	.L57
 1021              	.L58:
 404:ssd1306.c     **** 	{
 405:ssd1306.c     **** 		I2Cbuff1[i+1] = data[i];
 1022              		.loc 1 405 0 discriminator 3
 1023 0018 FB89     		ldrh	r3, [r7, #14]
 1024 001a 0133     		adds	r3, r3, #1
 1025 001c FA89     		ldrh	r2, [r7, #14]
 1026 001e 7968     		ldr	r1, [r7, #4]
 1027 0020 0A44     		add	r2, r2, r1
 1028 0022 1178     		ldrb	r1, [r2]	@ zero_extendqisi2
 1029 0024 0A4A     		ldr	r2, .L59
 1030 0026 D154     		strb	r1, [r2, r3]
 403:ssd1306.c     **** 	{
 1031              		.loc 1 403 0 discriminator 3
 1032 0028 FB89     		ldrh	r3, [r7, #14]
 1033 002a 0133     		adds	r3, r3, #1
 1034 002c FB81     		strh	r3, [r7, #14]	@ movhi
 1035              	.L57:
 403:ssd1306.c     **** 	{
 1036              		.loc 1 403 0 is_stmt 0 discriminator 1
 1037 002e FA89     		ldrh	r2, [r7, #14]
 1038 0030 7B88     		ldrh	r3, [r7, #2]
 1039 0032 9A42     		cmp	r2, r3
 1040 0034 F0D3     		bcc	.L58
 1041              	.LBE5:
 406:ssd1306.c     **** 	}
 407:ssd1306.c     ****     I2C_MasterWriteBlocking(SSD1306_I2C_ADDRESS, numBytes+1, I2C_1_MODE_COMPLETE_XFER);
 1042              		.loc 1 407 0 is_stmt 1
 1043 0036 7B88     		ldrh	r3, [r7, #2]	@ movhi
 1044 0038 0133     		adds	r3, r3, #1
 1045 003a 9BB2     		uxth	r3, r3
 1046 003c 0022     		movs	r2, #0
 1047 003e 1946     		mov	r1, r3
 1048 0040 3C20     		movs	r0, #60
 1049 0042 FFF7FEFF 		bl	I2C_MasterWriteBlocking
 408:ssd1306.c     **** 	//HAL_I2C_Master_Transmit(OLED_i2c_handle, OLED_i2c_address, localBuffer, numBytes+1, 2000);
 409:ssd1306.c     **** 
 410:ssd1306.c     **** }
 1050              		.loc 1 410 0
 1051 0046 00BF     		nop
 1052 0048 1037     		adds	r7, r7, #16
 1053              		.cfi_def_cfa_offset 8
 1054 004a BD46     		mov	sp, r7
 1055              		.cfi_def_cfa_register 13
ARM GAS  C:\Users\JEFFSN~1\AppData\Local\Temp\ccxrarRe.s 			page 27


 1056              		@ sp needed
 1057 004c 80BD     		pop	{r7, pc}
 1058              	.L60:
 1059 004e 00BF     		.align	2
 1060              	.L59:
 1061 0050 00000000 		.word	I2Cbuff1
 1062              		.cfi_endproc
 1063              	.LFE74:
 1064              		.size	ssd1306_write, .-ssd1306_write
 1065              		.section	.text.ssd1306_write_2X,"ax",%progbits
 1066              		.align	2
 1067              		.global	ssd1306_write_2X
 1068              		.thumb
 1069              		.thumb_func
 1070              		.type	ssd1306_write_2X, %function
 1071              	ssd1306_write_2X:
 1072              	.LFB75:
 411:ssd1306.c     **** 
 412:ssd1306.c     **** void ssd1306_write_2X(uint8_t* data, uint16_t numBytes) {
 1073              		.loc 1 412 0
 1074              		.cfi_startproc
 1075              		@ args = 0, pretend = 0, frame = 24
 1076              		@ frame_needed = 1, uses_anonymous_args = 0
 1077 0000 2DE9F041 		push	{r4, r5, r6, r7, r8, lr}
 1078              		.cfi_def_cfa_offset 24
 1079              		.cfi_offset 4, -24
 1080              		.cfi_offset 5, -20
 1081              		.cfi_offset 6, -16
 1082              		.cfi_offset 7, -12
 1083              		.cfi_offset 8, -8
 1084              		.cfi_offset 14, -4
 1085 0004 86B0     		sub	sp, sp, #24
 1086              		.cfi_def_cfa_offset 48
 1087 0006 00AF     		add	r7, sp, #0
 1088              		.cfi_def_cfa_register 7
 1089 0008 7860     		str	r0, [r7, #4]
 1090 000a 0A46     		mov	r2, r1
 1091 000c 7A80     		strh	r2, [r7, #2]	@ movhi
 1092              		.loc 1 412 0
 1093 000e 6A46     		mov	r2, sp
 1094 0010 9046     		mov	r8, r2
 413:ssd1306.c     **** 
 414:ssd1306.c     **** 	uint8_t localBuffer[(numBytes*2)+1];
 1095              		.loc 1 414 0
 1096 0012 7A88     		ldrh	r2, [r7, #2]
 1097 0014 5200     		lsls	r2, r2, #1
 1098 0016 501C     		adds	r0, r2, #1
 1099 0018 421E     		subs	r2, r0, #1
 1100 001a 3A61     		str	r2, [r7, #16]
 1101 001c 0246     		mov	r2, r0
 1102 001e 1146     		mov	r1, r2
 1103 0020 4FF00002 		mov	r2, #0
 1104 0024 D600     		lsls	r6, r2, #3
 1105 0026 46EA5176 		orr	r6, r6, r1, lsr #29
 1106 002a CD00     		lsls	r5, r1, #3
 1107 002c 0246     		mov	r2, r0
 1108 002e 1146     		mov	r1, r2
ARM GAS  C:\Users\JEFFSN~1\AppData\Local\Temp\ccxrarRe.s 			page 28


 1109 0030 4FF00002 		mov	r2, #0
 1110 0034 D400     		lsls	r4, r2, #3
 1111 0036 44EA5174 		orr	r4, r4, r1, lsr #29
 1112 003a CB00     		lsls	r3, r1, #3
 1113 003c 0346     		mov	r3, r0
 1114 003e 0733     		adds	r3, r3, #7
 1115 0040 DB08     		lsrs	r3, r3, #3
 1116 0042 DB00     		lsls	r3, r3, #3
 1117 0044 ADEB030D 		sub	sp, sp, r3
 1118 0048 6B46     		mov	r3, sp
 1119 004a 0033     		adds	r3, r3, #0
 1120 004c FB60     		str	r3, [r7, #12]
 415:ssd1306.c     **** 
 416:ssd1306.c     **** 	I2Cbuff1[0] = 0x40;
 1121              		.loc 1 416 0
 1122 004e 254B     		ldr	r3, .L66
 1123 0050 4022     		movs	r2, #64
 1124 0052 1A70     		strb	r2, [r3]
 1125              	.LBB6:
 417:ssd1306.c     **** 
 418:ssd1306.c     **** 	for (uint16_t i = 0; i < numBytes; i++)
 1126              		.loc 1 418 0
 1127 0054 0023     		movs	r3, #0
 1128 0056 FB82     		strh	r3, [r7, #22]	@ movhi
 1129 0058 0CE0     		b	.L62
 1130              	.L63:
 419:ssd1306.c     **** 	{
 420:ssd1306.c     **** 		I2Cbuff1[i+1] = data[i] >> 4;
 1131              		.loc 1 420 0 discriminator 3
 1132 005a FB8A     		ldrh	r3, [r7, #22]
 1133 005c 0133     		adds	r3, r3, #1
 1134 005e FA8A     		ldrh	r2, [r7, #22]
 1135 0060 7968     		ldr	r1, [r7, #4]
 1136 0062 0A44     		add	r2, r2, r1
 1137 0064 1278     		ldrb	r2, [r2]	@ zero_extendqisi2
 1138 0066 1209     		lsrs	r2, r2, #4
 1139 0068 D1B2     		uxtb	r1, r2
 1140 006a 1E4A     		ldr	r2, .L66
 1141 006c D154     		strb	r1, [r2, r3]
 418:ssd1306.c     **** 	{
 1142              		.loc 1 418 0 discriminator 3
 1143 006e FB8A     		ldrh	r3, [r7, #22]
 1144 0070 0133     		adds	r3, r3, #1
 1145 0072 FB82     		strh	r3, [r7, #22]	@ movhi
 1146              	.L62:
 418:ssd1306.c     **** 	{
 1147              		.loc 1 418 0 is_stmt 0 discriminator 1
 1148 0074 FA8A     		ldrh	r2, [r7, #22]
 1149 0076 7B88     		ldrh	r3, [r7, #2]
 1150 0078 9A42     		cmp	r2, r3
 1151 007a EED3     		bcc	.L63
 1152              	.LBE6:
 421:ssd1306.c     **** 
 422:ssd1306.c     **** 	}
 423:ssd1306.c     ****     I2C_MasterWriteBlocking(SSD1306_I2C_ADDRESS, (numBytes*2)+1, I2C_1_MODE_COMPLETE_XFER);
 1153              		.loc 1 423 0 is_stmt 1
 1154 007c 7B88     		ldrh	r3, [r7, #2]	@ movhi
ARM GAS  C:\Users\JEFFSN~1\AppData\Local\Temp\ccxrarRe.s 			page 29


 1155 007e 5B00     		lsls	r3, r3, #1
 1156 0080 9BB2     		uxth	r3, r3
 1157 0082 0133     		adds	r3, r3, #1
 1158 0084 9BB2     		uxth	r3, r3
 1159 0086 0022     		movs	r2, #0
 1160 0088 1946     		mov	r1, r3
 1161 008a 3C20     		movs	r0, #60
 1162 008c FFF7FEFF 		bl	I2C_MasterWriteBlocking
 424:ssd1306.c     **** 	//HAL_I2C_Master_Transmit(OLED_i2c_handle, OLED_i2c_address, localBuffer, (numBytes*2)+1, 2000);
 425:ssd1306.c     **** 
 426:ssd1306.c     **** 	ssd1306_move(1,0);
 1163              		.loc 1 426 0
 1164 0090 0021     		movs	r1, #0
 1165 0092 0120     		movs	r0, #1
 1166 0094 FFF7FEFF 		bl	ssd1306_move
 1167              	.LBB7:
 427:ssd1306.c     **** 
 428:ssd1306.c     **** 	for (uint16_t i = 0; i < numBytes; i++)
 1168              		.loc 1 428 0
 1169 0098 0023     		movs	r3, #0
 1170 009a BB82     		strh	r3, [r7, #20]	@ movhi
 1171 009c 0DE0     		b	.L64
 1172              	.L65:
 429:ssd1306.c     **** 	{
 430:ssd1306.c     **** 		I2Cbuff1[i+1] = data[i] & 0x0f;
 1173              		.loc 1 430 0 discriminator 3
 1174 009e BB8A     		ldrh	r3, [r7, #20]
 1175 00a0 0133     		adds	r3, r3, #1
 1176 00a2 BA8A     		ldrh	r2, [r7, #20]
 1177 00a4 7968     		ldr	r1, [r7, #4]
 1178 00a6 0A44     		add	r2, r2, r1
 1179 00a8 1278     		ldrb	r2, [r2]	@ zero_extendqisi2
 1180 00aa 02F00F02 		and	r2, r2, #15
 1181 00ae D1B2     		uxtb	r1, r2
 1182 00b0 0C4A     		ldr	r2, .L66
 1183 00b2 D154     		strb	r1, [r2, r3]
 428:ssd1306.c     **** 	{
 1184              		.loc 1 428 0 discriminator 3
 1185 00b4 BB8A     		ldrh	r3, [r7, #20]
 1186 00b6 0133     		adds	r3, r3, #1
 1187 00b8 BB82     		strh	r3, [r7, #20]	@ movhi
 1188              	.L64:
 428:ssd1306.c     **** 	{
 1189              		.loc 1 428 0 is_stmt 0 discriminator 1
 1190 00ba BA8A     		ldrh	r2, [r7, #20]
 1191 00bc 7B88     		ldrh	r3, [r7, #2]
 1192 00be 9A42     		cmp	r2, r3
 1193 00c0 EDD3     		bcc	.L65
 1194              	.LBE7:
 431:ssd1306.c     **** 	}
 432:ssd1306.c     ****     I2C_MasterWriteBlocking(SSD1306_I2C_ADDRESS, (numBytes*2)+1, I2C_1_MODE_COMPLETE_XFER);
 1195              		.loc 1 432 0 is_stmt 1
 1196 00c2 7B88     		ldrh	r3, [r7, #2]	@ movhi
 1197 00c4 5B00     		lsls	r3, r3, #1
 1198 00c6 9BB2     		uxth	r3, r3
 1199 00c8 0133     		adds	r3, r3, #1
 1200 00ca 9BB2     		uxth	r3, r3
ARM GAS  C:\Users\JEFFSN~1\AppData\Local\Temp\ccxrarRe.s 			page 30


 1201 00cc 0022     		movs	r2, #0
 1202 00ce 1946     		mov	r1, r3
 1203 00d0 3C20     		movs	r0, #60
 1204 00d2 FFF7FEFF 		bl	I2C_MasterWriteBlocking
 1205 00d6 C546     		mov	sp, r8
 433:ssd1306.c     **** 	//HAL_I2C_Master_Transmit(OLED_i2c_handle, OLED_i2c_address, localBuffer, (numBytes*2)+1, 2000);
 434:ssd1306.c     **** 
 435:ssd1306.c     **** }
 1206              		.loc 1 435 0
 1207 00d8 00BF     		nop
 1208 00da 1837     		adds	r7, r7, #24
 1209              		.cfi_def_cfa_offset 24
 1210 00dc BD46     		mov	sp, r7
 1211              		.cfi_def_cfa_register 13
 1212              		@ sp needed
 1213 00de BDE8F081 		pop	{r4, r5, r6, r7, r8, pc}
 1214              	.L67:
 1215 00e2 00BF     		.align	2
 1216              	.L66:
 1217 00e4 00000000 		.word	I2Cbuff1
 1218              		.cfi_endproc
 1219              	.LFE75:
 1220              		.size	ssd1306_write_2X, .-ssd1306_write_2X
 1221              		.text
 1222              	.Letext0:
 1223              		.file 2 "c:\\program files (x86)\\cypress\\psoc creator\\4.4\\psoc creator\\import\\gnu\\arm\\5.4.
 1224              		.file 3 "c:\\program files (x86)\\cypress\\psoc creator\\4.4\\psoc creator\\import\\gnu\\arm\\5.4.
 1225              		.file 4 "Generated_Source\\PSoC5/core_cm3.h"
 1226              		.file 5 "main.h"
 1227              		.section	.debug_info,"",%progbits
 1228              	.Ldebug_info0:
 1229 0000 18050000 		.4byte	0x518
 1230 0004 0400     		.2byte	0x4
 1231 0006 00000000 		.4byte	.Ldebug_abbrev0
 1232 000a 04       		.byte	0x4
 1233 000b 01       		.uleb128 0x1
 1234 000c 17000000 		.4byte	.LASF49
 1235 0010 0C       		.byte	0xc
 1236 0011 3A010000 		.4byte	.LASF50
 1237 0015 AD010000 		.4byte	.LASF51
 1238 0019 00000000 		.4byte	.Ldebug_ranges0+0
 1239 001d 00000000 		.4byte	0
 1240 0021 00000000 		.4byte	.Ldebug_line0
 1241 0025 02       		.uleb128 0x2
 1242 0026 01       		.byte	0x1
 1243 0027 06       		.byte	0x6
 1244 0028 69030000 		.4byte	.LASF0
 1245 002c 03       		.uleb128 0x3
 1246 002d A5000000 		.4byte	.LASF3
 1247 0031 02       		.byte	0x2
 1248 0032 1D       		.byte	0x1d
 1249 0033 37000000 		.4byte	0x37
 1250 0037 02       		.uleb128 0x2
 1251 0038 01       		.byte	0x1
 1252 0039 08       		.byte	0x8
 1253 003a 2C010000 		.4byte	.LASF1
 1254 003e 02       		.uleb128 0x2
ARM GAS  C:\Users\JEFFSN~1\AppData\Local\Temp\ccxrarRe.s 			page 31


 1255 003f 02       		.byte	0x2
 1256 0040 05       		.byte	0x5
 1257 0041 30030000 		.4byte	.LASF2
 1258 0045 03       		.uleb128 0x3
 1259 0046 91010000 		.4byte	.LASF4
 1260 004a 02       		.byte	0x2
 1261 004b 2B       		.byte	0x2b
 1262 004c 50000000 		.4byte	0x50
 1263 0050 02       		.uleb128 0x2
 1264 0051 02       		.byte	0x2
 1265 0052 07       		.byte	0x7
 1266 0053 CA000000 		.4byte	.LASF5
 1267 0057 03       		.uleb128 0x3
 1268 0058 AF000000 		.4byte	.LASF6
 1269 005c 02       		.byte	0x2
 1270 005d 3F       		.byte	0x3f
 1271 005e 62000000 		.4byte	0x62
 1272 0062 02       		.uleb128 0x2
 1273 0063 04       		.byte	0x4
 1274 0064 05       		.byte	0x5
 1275 0065 4A030000 		.4byte	.LASF7
 1276 0069 02       		.uleb128 0x2
 1277 006a 04       		.byte	0x4
 1278 006b 07       		.byte	0x7
 1279 006c 44010000 		.4byte	.LASF8
 1280 0070 02       		.uleb128 0x2
 1281 0071 08       		.byte	0x8
 1282 0072 05       		.byte	0x5
 1283 0073 00000000 		.4byte	.LASF9
 1284 0077 02       		.uleb128 0x2
 1285 0078 08       		.byte	0x8
 1286 0079 07       		.byte	0x7
 1287 007a 83020000 		.4byte	.LASF10
 1288 007e 04       		.uleb128 0x4
 1289 007f 04       		.byte	0x4
 1290 0080 05       		.byte	0x5
 1291 0081 696E7400 		.ascii	"int\000"
 1292 0085 02       		.uleb128 0x2
 1293 0086 04       		.byte	0x4
 1294 0087 07       		.byte	0x7
 1295 0088 5F020000 		.4byte	.LASF11
 1296 008c 03       		.uleb128 0x3
 1297 008d 9A020000 		.4byte	.LASF12
 1298 0091 03       		.byte	0x3
 1299 0092 18       		.byte	0x18
 1300 0093 2C000000 		.4byte	0x2c
 1301 0097 03       		.uleb128 0x3
 1302 0098 41030000 		.4byte	.LASF13
 1303 009c 03       		.byte	0x3
 1304 009d 24       		.byte	0x24
 1305 009e 45000000 		.4byte	0x45
 1306 00a2 03       		.uleb128 0x3
 1307 00a3 12010000 		.4byte	.LASF14
 1308 00a7 03       		.byte	0x3
 1309 00a8 2C       		.byte	0x2c
 1310 00a9 57000000 		.4byte	0x57
 1311 00ad 02       		.uleb128 0x2
ARM GAS  C:\Users\JEFFSN~1\AppData\Local\Temp\ccxrarRe.s 			page 32


 1312 00ae 04       		.byte	0x4
 1313 00af 04       		.byte	0x4
 1314 00b0 21010000 		.4byte	.LASF15
 1315 00b4 02       		.uleb128 0x2
 1316 00b5 08       		.byte	0x8
 1317 00b6 04       		.byte	0x4
 1318 00b7 0B010000 		.4byte	.LASF16
 1319 00bb 02       		.uleb128 0x2
 1320 00bc 01       		.byte	0x1
 1321 00bd 08       		.byte	0x8
 1322 00be 16030000 		.4byte	.LASF17
 1323 00c2 02       		.uleb128 0x2
 1324 00c3 08       		.byte	0x8
 1325 00c4 04       		.byte	0x4
 1326 00c5 5D030000 		.4byte	.LASF18
 1327 00c9 02       		.uleb128 0x2
 1328 00ca 04       		.byte	0x4
 1329 00cb 07       		.byte	0x7
 1330 00cc EC020000 		.4byte	.LASF19
 1331 00d0 05       		.uleb128 0x5
 1332 00d1 8C000000 		.4byte	0x8c
 1333 00d5 06       		.uleb128 0x6
 1334 00d6 75030000 		.4byte	.LASF23
 1335 00da 01       		.byte	0x1
 1336 00db 4A       		.byte	0x4a
 1337 00dc 00000000 		.4byte	.LFB64
 1338 00e0 54010000 		.4byte	.LFE64-.LFB64
 1339 00e4 01       		.uleb128 0x1
 1340 00e5 9C       		.byte	0x9c
 1341 00e6 15010000 		.4byte	0x115
 1342 00ea 07       		.uleb128 0x7
 1343 00eb 56020000 		.4byte	.LASF20
 1344 00ef 01       		.byte	0x1
 1345 00f0 4A       		.byte	0x4a
 1346 00f1 8C000000 		.4byte	0x8c
 1347 00f5 02       		.uleb128 0x2
 1348 00f6 91       		.byte	0x91
 1349 00f7 77       		.sleb128 -9
 1350 00f8 07       		.uleb128 0x7
 1351 00f9 6F010000 		.4byte	.LASF21
 1352 00fd 01       		.byte	0x1
 1353 00fe 4A       		.byte	0x4a
 1354 00ff 97000000 		.4byte	0x97
 1355 0103 02       		.uleb128 0x2
 1356 0104 91       		.byte	0x91
 1357 0105 74       		.sleb128 -12
 1358 0106 07       		.uleb128 0x7
 1359 0107 68010000 		.4byte	.LASF22
 1360 010b 01       		.byte	0x1
 1361 010c 4A       		.byte	0x4a
 1362 010d 97000000 		.4byte	0x97
 1363 0111 02       		.uleb128 0x2
 1364 0112 91       		.byte	0x91
 1365 0113 72       		.sleb128 -14
 1366 0114 00       		.byte	0
 1367 0115 06       		.uleb128 0x6
 1368 0116 B0020000 		.4byte	.LASF24
ARM GAS  C:\Users\JEFFSN~1\AppData\Local\Temp\ccxrarRe.s 			page 33


 1369 011a 01       		.byte	0x1
 1370 011b A2       		.byte	0xa2
 1371 011c 00000000 		.4byte	.LFB65
 1372 0120 26000000 		.4byte	.LFE65-.LFB65
 1373 0124 01       		.uleb128 0x1
 1374 0125 9C       		.byte	0x9c
 1375 0126 37010000 		.4byte	0x137
 1376 012a 08       		.uleb128 0x8
 1377 012b 6900     		.ascii	"i\000"
 1378 012d 01       		.byte	0x1
 1379 012e A2       		.byte	0xa2
 1380 012f 8C000000 		.4byte	0x8c
 1381 0133 02       		.uleb128 0x2
 1382 0134 91       		.byte	0x91
 1383 0135 77       		.sleb128 -9
 1384 0136 00       		.byte	0
 1385 0137 06       		.uleb128 0x6
 1386 0138 06030000 		.4byte	.LASF25
 1387 013c 01       		.byte	0x1
 1388 013d AA       		.byte	0xaa
 1389 013e 00000000 		.4byte	.LFB66
 1390 0142 2C000000 		.4byte	.LFE66-.LFB66
 1391 0146 01       		.uleb128 0x1
 1392 0147 9C       		.byte	0x9c
 1393 0148 59010000 		.4byte	0x159
 1394 014c 08       		.uleb128 0x8
 1395 014d 6300     		.ascii	"c\000"
 1396 014f 01       		.byte	0x1
 1397 0150 AA       		.byte	0xaa
 1398 0151 8C000000 		.4byte	0x8c
 1399 0155 02       		.uleb128 0x2
 1400 0156 91       		.byte	0x91
 1401 0157 77       		.sleb128 -9
 1402 0158 00       		.byte	0
 1403 0159 06       		.uleb128 0x6
 1404 015a 5C010000 		.4byte	.LASF26
 1405 015e 01       		.byte	0x1
 1406 015f B5       		.byte	0xb5
 1407 0160 00000000 		.4byte	.LFB67
 1408 0164 44000000 		.4byte	.LFE67-.LFB67
 1409 0168 01       		.uleb128 0x1
 1410 0169 9C       		.byte	0x9c
 1411 016a 8B010000 		.4byte	0x18b
 1412 016e 08       		.uleb128 0x8
 1413 016f 64696D00 		.ascii	"dim\000"
 1414 0173 01       		.byte	0x1
 1415 0174 B5       		.byte	0xb5
 1416 0175 8C000000 		.4byte	0x8c
 1417 0179 02       		.uleb128 0x2
 1418 017a 91       		.byte	0x91
 1419 017b 6F       		.sleb128 -17
 1420 017c 09       		.uleb128 0x9
 1421 017d 0E000000 		.4byte	.LASF28
 1422 0181 01       		.byte	0x1
 1423 0182 B6       		.byte	0xb6
 1424 0183 8C000000 		.4byte	0x8c
 1425 0187 02       		.uleb128 0x2
ARM GAS  C:\Users\JEFFSN~1\AppData\Local\Temp\ccxrarRe.s 			page 34


 1426 0188 91       		.byte	0x91
 1427 0189 77       		.sleb128 -9
 1428 018a 00       		.byte	0
 1429 018b 06       		.uleb128 0x6
 1430 018c 75010000 		.4byte	.LASF27
 1431 0190 01       		.byte	0x1
 1432 0191 C9       		.byte	0xc9
 1433 0192 00000000 		.4byte	.LFB68
 1434 0196 F0000000 		.4byte	.LFE68-.LFB68
 1435 019a 01       		.uleb128 0x1
 1436 019b 9C       		.byte	0x9c
 1437 019c 20020000 		.4byte	0x220
 1438 01a0 07       		.uleb128 0x7
 1439 01a1 6F010000 		.4byte	.LASF21
 1440 01a5 01       		.byte	0x1
 1441 01a6 C9       		.byte	0xc9
 1442 01a7 7E000000 		.4byte	0x7e
 1443 01ab 02       		.uleb128 0x2
 1444 01ac 91       		.byte	0x91
 1445 01ad 64       		.sleb128 -28
 1446 01ae 07       		.uleb128 0x7
 1447 01af 68010000 		.4byte	.LASF22
 1448 01b3 01       		.byte	0x1
 1449 01b4 C9       		.byte	0xc9
 1450 01b5 7E000000 		.4byte	0x7e
 1451 01b9 02       		.uleb128 0x2
 1452 01ba 91       		.byte	0x91
 1453 01bb 60       		.sleb128 -32
 1454 01bc 09       		.uleb128 0x9
 1455 01bd C6020000 		.4byte	.LASF29
 1456 01c1 01       		.byte	0x1
 1457 01c2 E8       		.byte	0xe8
 1458 01c3 37000000 		.4byte	0x37
 1459 01c7 02       		.uleb128 0x2
 1460 01c8 91       		.byte	0x91
 1461 01c9 6F       		.sleb128 -17
 1462 01ca 09       		.uleb128 0x9
 1463 01cb 56010000 		.4byte	.LASF30
 1464 01cf 01       		.byte	0x1
 1465 01d0 E9       		.byte	0xe9
 1466 01d1 37000000 		.4byte	0x37
 1467 01d5 02       		.uleb128 0x2
 1468 01d6 91       		.byte	0x91
 1469 01d7 6E       		.sleb128 -18
 1470 01d8 0A       		.uleb128 0xa
 1471 01d9 7000     		.ascii	"p\000"
 1472 01db 01       		.byte	0x1
 1473 01dc F0       		.byte	0xf0
 1474 01dd 7E000000 		.4byte	0x7e
 1475 01e1 02       		.uleb128 0x2
 1476 01e2 91       		.byte	0x91
 1477 01e3 68       		.sleb128 -24
 1478 01e4 0A       		.uleb128 0xa
 1479 01e5 6900     		.ascii	"i\000"
 1480 01e7 01       		.byte	0x1
 1481 01e8 F2       		.byte	0xf2
 1482 01e9 37000000 		.4byte	0x37
ARM GAS  C:\Users\JEFFSN~1\AppData\Local\Temp\ccxrarRe.s 			page 35


 1483 01ed 02       		.uleb128 0x2
 1484 01ee 91       		.byte	0x91
 1485 01ef 77       		.sleb128 -9
 1486 01f0 0A       		.uleb128 0xa
 1487 01f1 6A00     		.ascii	"j\000"
 1488 01f3 01       		.byte	0x1
 1489 01f4 F2       		.byte	0xf2
 1490 01f5 37000000 		.4byte	0x37
 1491 01f9 02       		.uleb128 0x2
 1492 01fa 91       		.byte	0x91
 1493 01fb 76       		.sleb128 -10
 1494 01fc 0A       		.uleb128 0xa
 1495 01fd 6B00     		.ascii	"k\000"
 1496 01ff 01       		.byte	0x1
 1497 0200 F2       		.byte	0xf2
 1498 0201 37000000 		.4byte	0x37
 1499 0205 02       		.uleb128 0x2
 1500 0206 91       		.byte	0x91
 1501 0207 75       		.sleb128 -11
 1502 0208 0B       		.uleb128 0xb
 1503 0209 80000000 		.4byte	.LBB2
 1504 020d 2C000000 		.4byte	.LBE2-.LBB2
 1505 0211 0C       		.uleb128 0xc
 1506 0212 6200     		.ascii	"b\000"
 1507 0214 01       		.byte	0x1
 1508 0215 0501     		.2byte	0x105
 1509 0217 7E000000 		.4byte	0x7e
 1510 021b 02       		.uleb128 0x2
 1511 021c 91       		.byte	0x91
 1512 021d 70       		.sleb128 -16
 1513 021e 00       		.byte	0
 1514 021f 00       		.byte	0
 1515 0220 0D       		.uleb128 0xd
 1516 0221 F0000000 		.4byte	.LASF31
 1517 0225 01       		.byte	0x1
 1518 0226 1901     		.2byte	0x119
 1519 0228 00000000 		.4byte	.LFB69
 1520 022c F4000000 		.4byte	.LFE69-.LFB69
 1521 0230 01       		.uleb128 0x1
 1522 0231 9C       		.byte	0x9c
 1523 0232 BE020000 		.4byte	0x2be
 1524 0236 0E       		.uleb128 0xe
 1525 0237 68010000 		.4byte	.LASF22
 1526 023b 01       		.byte	0x1
 1527 023c 3801     		.2byte	0x138
 1528 023e 37000000 		.4byte	0x37
 1529 0242 02       		.uleb128 0x2
 1530 0243 91       		.byte	0x91
 1531 0244 6F       		.sleb128 -17
 1532 0245 0E       		.uleb128 0xe
 1533 0246 6F010000 		.4byte	.LASF21
 1534 024a 01       		.byte	0x1
 1535 024b 3901     		.2byte	0x139
 1536 024d 37000000 		.4byte	0x37
 1537 0251 02       		.uleb128 0x2
 1538 0252 91       		.byte	0x91
 1539 0253 6E       		.sleb128 -18
ARM GAS  C:\Users\JEFFSN~1\AppData\Local\Temp\ccxrarRe.s 			page 36


 1540 0254 0E       		.uleb128 0xe
 1541 0255 C6020000 		.4byte	.LASF29
 1542 0259 01       		.byte	0x1
 1543 025a 3A01     		.2byte	0x13a
 1544 025c 37000000 		.4byte	0x37
 1545 0260 02       		.uleb128 0x2
 1546 0261 91       		.byte	0x91
 1547 0262 6D       		.sleb128 -19
 1548 0263 0E       		.uleb128 0xe
 1549 0264 56010000 		.4byte	.LASF30
 1550 0268 01       		.byte	0x1
 1551 0269 3B01     		.2byte	0x13b
 1552 026b 37000000 		.4byte	0x37
 1553 026f 02       		.uleb128 0x2
 1554 0270 91       		.byte	0x91
 1555 0271 6C       		.sleb128 -20
 1556 0272 0C       		.uleb128 0xc
 1557 0273 7000     		.ascii	"p\000"
 1558 0275 01       		.byte	0x1
 1559 0276 4201     		.2byte	0x142
 1560 0278 7E000000 		.4byte	0x7e
 1561 027c 02       		.uleb128 0x2
 1562 027d 91       		.byte	0x91
 1563 027e 68       		.sleb128 -24
 1564 027f 0C       		.uleb128 0xc
 1565 0280 6900     		.ascii	"i\000"
 1566 0282 01       		.byte	0x1
 1567 0283 4401     		.2byte	0x144
 1568 0285 37000000 		.4byte	0x37
 1569 0289 02       		.uleb128 0x2
 1570 028a 91       		.byte	0x91
 1571 028b 77       		.sleb128 -9
 1572 028c 0C       		.uleb128 0xc
 1573 028d 6A00     		.ascii	"j\000"
 1574 028f 01       		.byte	0x1
 1575 0290 4401     		.2byte	0x144
 1576 0292 37000000 		.4byte	0x37
 1577 0296 02       		.uleb128 0x2
 1578 0297 91       		.byte	0x91
 1579 0298 76       		.sleb128 -10
 1580 0299 0C       		.uleb128 0xc
 1581 029a 6B00     		.ascii	"k\000"
 1582 029c 01       		.byte	0x1
 1583 029d 4401     		.2byte	0x144
 1584 029f 37000000 		.4byte	0x37
 1585 02a3 02       		.uleb128 0x2
 1586 02a4 91       		.byte	0x91
 1587 02a5 75       		.sleb128 -11
 1588 02a6 0B       		.uleb128 0xb
 1589 02a7 84000000 		.4byte	.LBB3
 1590 02ab 2C000000 		.4byte	.LBE3-.LBB3
 1591 02af 0C       		.uleb128 0xc
 1592 02b0 6200     		.ascii	"b\000"
 1593 02b2 01       		.byte	0x1
 1594 02b3 5701     		.2byte	0x157
 1595 02b5 7E000000 		.4byte	0x7e
 1596 02b9 02       		.uleb128 0x2
ARM GAS  C:\Users\JEFFSN~1\AppData\Local\Temp\ccxrarRe.s 			page 37


 1597 02ba 91       		.byte	0x91
 1598 02bb 70       		.sleb128 -16
 1599 02bc 00       		.byte	0
 1600 02bd 00       		.byte	0
 1601 02be 0F       		.uleb128 0xf
 1602 02bf DF020000 		.4byte	.LASF52
 1603 02c3 01       		.byte	0x1
 1604 02c4 6B01     		.2byte	0x16b
 1605 02c6 00000000 		.4byte	.LFB70
 1606 02ca 10000000 		.4byte	.LFE70-.LFB70
 1607 02ce 01       		.uleb128 0x1
 1608 02cf 9C       		.byte	0x9c
 1609 02d0 0D       		.uleb128 0xd
 1610 02d1 B9000000 		.4byte	.LASF32
 1611 02d5 01       		.byte	0x1
 1612 02d6 7001     		.2byte	0x170
 1613 02d8 00000000 		.4byte	.LFB71
 1614 02dc 56000000 		.4byte	.LFE71-.LFB71
 1615 02e0 01       		.uleb128 0x1
 1616 02e1 9C       		.byte	0x9c
 1617 02e2 05030000 		.4byte	0x305
 1618 02e6 10       		.uleb128 0x10
 1619 02e7 726F7700 		.ascii	"row\000"
 1620 02eb 01       		.byte	0x1
 1621 02ec 7001     		.2byte	0x170
 1622 02ee 8C000000 		.4byte	0x8c
 1623 02f2 02       		.uleb128 0x2
 1624 02f3 91       		.byte	0x91
 1625 02f4 77       		.sleb128 -9
 1626 02f5 11       		.uleb128 0x11
 1627 02f6 1A010000 		.4byte	.LASF33
 1628 02fa 01       		.byte	0x1
 1629 02fb 7001     		.2byte	0x170
 1630 02fd 8C000000 		.4byte	0x8c
 1631 0301 02       		.uleb128 0x2
 1632 0302 91       		.byte	0x91
 1633 0303 76       		.sleb128 -10
 1634 0304 00       		.byte	0
 1635 0305 0D       		.uleb128 0xd
 1636 0306 2B020000 		.4byte	.LASF34
 1637 030a 01       		.byte	0x1
 1638 030b 7D01     		.2byte	0x17d
 1639 030d 00000000 		.4byte	.LFB72
 1640 0311 3C000000 		.4byte	.LFE72-.LFB72
 1641 0315 01       		.uleb128 0x1
 1642 0316 9C       		.byte	0x9c
 1643 0317 3A030000 		.4byte	0x33a
 1644 031b 10       		.uleb128 0x10
 1645 031c 726F7700 		.ascii	"row\000"
 1646 0320 01       		.byte	0x1
 1647 0321 7D01     		.2byte	0x17d
 1648 0323 8C000000 		.4byte	0x8c
 1649 0327 02       		.uleb128 0x2
 1650 0328 91       		.byte	0x91
 1651 0329 77       		.sleb128 -9
 1652 032a 11       		.uleb128 0x11
 1653 032b 1A010000 		.4byte	.LASF33
ARM GAS  C:\Users\JEFFSN~1\AppData\Local\Temp\ccxrarRe.s 			page 38


 1654 032f 01       		.byte	0x1
 1655 0330 7D01     		.2byte	0x17d
 1656 0332 8C000000 		.4byte	0x8c
 1657 0336 02       		.uleb128 0x2
 1658 0337 91       		.byte	0x91
 1659 0338 76       		.sleb128 -10
 1660 0339 00       		.byte	0
 1661 033a 12       		.uleb128 0x12
 1662 033b 6C020000 		.4byte	.LASF35
 1663 033f 01       		.byte	0x1
 1664 0340 8501     		.2byte	0x185
 1665 0342 00000000 		.4byte	.LFB73
 1666 0346 54000000 		.4byte	.LFE73-.LFB73
 1667 034a 01       		.uleb128 0x1
 1668 034b 9C       		.byte	0x9c
 1669 034c 86030000 		.4byte	0x386
 1670 0350 11       		.uleb128 0x11
 1671 0351 27010000 		.4byte	.LASF36
 1672 0355 01       		.byte	0x1
 1673 0356 8501     		.2byte	0x185
 1674 0358 86030000 		.4byte	0x386
 1675 035c 02       		.uleb128 0x2
 1676 035d 91       		.byte	0x91
 1677 035e 6C       		.sleb128 -20
 1678 035f 11       		.uleb128 0x11
 1679 0360 D6020000 		.4byte	.LASF37
 1680 0364 01       		.byte	0x1
 1681 0365 8501     		.2byte	0x185
 1682 0367 97000000 		.4byte	0x97
 1683 036b 02       		.uleb128 0x2
 1684 036c 91       		.byte	0x91
 1685 036d 6A       		.sleb128 -22
 1686 036e 0B       		.uleb128 0xb
 1687 036f 0C000000 		.4byte	.LBB4
 1688 0373 32000000 		.4byte	.LBE4-.LBB4
 1689 0377 0C       		.uleb128 0xc
 1690 0378 6900     		.ascii	"i\000"
 1691 037a 01       		.byte	0x1
 1692 037b 8601     		.2byte	0x186
 1693 037d 97000000 		.4byte	0x97
 1694 0381 02       		.uleb128 0x2
 1695 0382 91       		.byte	0x91
 1696 0383 76       		.sleb128 -10
 1697 0384 00       		.byte	0
 1698 0385 00       		.byte	0
 1699 0386 13       		.uleb128 0x13
 1700 0387 04       		.byte	0x4
 1701 0388 8C000000 		.4byte	0x8c
 1702 038c 0D       		.uleb128 0xd
 1703 038d A2020000 		.4byte	.LASF38
 1704 0391 01       		.byte	0x1
 1705 0392 8F01     		.2byte	0x18f
 1706 0394 00000000 		.4byte	.LFB74
 1707 0398 54000000 		.4byte	.LFE74-.LFB74
 1708 039c 01       		.uleb128 0x1
 1709 039d 9C       		.byte	0x9c
 1710 039e D8030000 		.4byte	0x3d8
ARM GAS  C:\Users\JEFFSN~1\AppData\Local\Temp\ccxrarRe.s 			page 39


 1711 03a2 11       		.uleb128 0x11
 1712 03a3 27010000 		.4byte	.LASF36
 1713 03a7 01       		.byte	0x1
 1714 03a8 8F01     		.2byte	0x18f
 1715 03aa 86030000 		.4byte	0x386
 1716 03ae 02       		.uleb128 0x2
 1717 03af 91       		.byte	0x91
 1718 03b0 6C       		.sleb128 -20
 1719 03b1 11       		.uleb128 0x11
 1720 03b2 D6020000 		.4byte	.LASF37
 1721 03b6 01       		.byte	0x1
 1722 03b7 8F01     		.2byte	0x18f
 1723 03b9 97000000 		.4byte	0x97
 1724 03bd 02       		.uleb128 0x2
 1725 03be 91       		.byte	0x91
 1726 03bf 6A       		.sleb128 -22
 1727 03c0 0B       		.uleb128 0xb
 1728 03c1 12000000 		.4byte	.LBB5
 1729 03c5 24000000 		.4byte	.LBE5-.LBB5
 1730 03c9 0C       		.uleb128 0xc
 1731 03ca 6900     		.ascii	"i\000"
 1732 03cc 01       		.byte	0x1
 1733 03cd 9301     		.2byte	0x193
 1734 03cf 97000000 		.4byte	0x97
 1735 03d3 02       		.uleb128 0x2
 1736 03d4 91       		.byte	0x91
 1737 03d5 76       		.sleb128 -10
 1738 03d6 00       		.byte	0
 1739 03d7 00       		.byte	0
 1740 03d8 0D       		.uleb128 0xd
 1741 03d9 F5020000 		.4byte	.LASF39
 1742 03dd 01       		.byte	0x1
 1743 03de 9C01     		.2byte	0x19c
 1744 03e0 00000000 		.4byte	.LFB75
 1745 03e4 E8000000 		.4byte	.LFE75-.LFB75
 1746 03e8 01       		.uleb128 0x1
 1747 03e9 9C       		.byte	0x9c
 1748 03ea 4F040000 		.4byte	0x44f
 1749 03ee 11       		.uleb128 0x11
 1750 03ef 27010000 		.4byte	.LASF36
 1751 03f3 01       		.byte	0x1
 1752 03f4 9C01     		.2byte	0x19c
 1753 03f6 86030000 		.4byte	0x386
 1754 03fa 02       		.uleb128 0x2
 1755 03fb 91       		.byte	0x91
 1756 03fc 54       		.sleb128 -44
 1757 03fd 11       		.uleb128 0x11
 1758 03fe D6020000 		.4byte	.LASF37
 1759 0402 01       		.byte	0x1
 1760 0403 9C01     		.2byte	0x19c
 1761 0405 97000000 		.4byte	0x97
 1762 0409 02       		.uleb128 0x2
 1763 040a 91       		.byte	0x91
 1764 040b 52       		.sleb128 -46
 1765 040c 0E       		.uleb128 0xe
 1766 040d 24030000 		.4byte	.LASF40
 1767 0411 01       		.byte	0x1
ARM GAS  C:\Users\JEFFSN~1\AppData\Local\Temp\ccxrarRe.s 			page 40


 1768 0412 9E01     		.2byte	0x19e
 1769 0414 4F040000 		.4byte	0x44f
 1770 0418 03       		.uleb128 0x3
 1771 0419 91       		.byte	0x91
 1772 041a 5C       		.sleb128 -36
 1773 041b 06       		.byte	0x6
 1774 041c 14       		.uleb128 0x14
 1775 041d 54000000 		.4byte	.LBB6
 1776 0421 28000000 		.4byte	.LBE6-.LBB6
 1777 0425 37040000 		.4byte	0x437
 1778 0429 0C       		.uleb128 0xc
 1779 042a 6900     		.ascii	"i\000"
 1780 042c 01       		.byte	0x1
 1781 042d A201     		.2byte	0x1a2
 1782 042f 97000000 		.4byte	0x97
 1783 0433 02       		.uleb128 0x2
 1784 0434 91       		.byte	0x91
 1785 0435 66       		.sleb128 -26
 1786 0436 00       		.byte	0
 1787 0437 0B       		.uleb128 0xb
 1788 0438 98000000 		.4byte	.LBB7
 1789 043c 2A000000 		.4byte	.LBE7-.LBB7
 1790 0440 0C       		.uleb128 0xc
 1791 0441 6900     		.ascii	"i\000"
 1792 0443 01       		.byte	0x1
 1793 0444 AC01     		.2byte	0x1ac
 1794 0446 97000000 		.4byte	0x97
 1795 044a 02       		.uleb128 0x2
 1796 044b 91       		.byte	0x91
 1797 044c 64       		.sleb128 -28
 1798 044d 00       		.byte	0
 1799 044e 00       		.byte	0
 1800 044f 15       		.uleb128 0x15
 1801 0450 8C000000 		.4byte	0x8c
 1802 0454 62040000 		.4byte	0x462
 1803 0458 16       		.uleb128 0x16
 1804 0459 C9000000 		.4byte	0xc9
 1805 045d 03       		.uleb128 0x3
 1806 045e 91       		.byte	0x91
 1807 045f 60       		.sleb128 -32
 1808 0460 06       		.byte	0x6
 1809 0461 00       		.byte	0
 1810 0462 17       		.uleb128 0x17
 1811 0463 49020000 		.4byte	.LASF41
 1812 0467 04       		.byte	0x4
 1813 0468 1207     		.2byte	0x712
 1814 046a 6E040000 		.4byte	0x46e
 1815 046e 05       		.uleb128 0x5
 1816 046f A2000000 		.4byte	0xa2
 1817 0473 15       		.uleb128 0x15
 1818 0474 37000000 		.4byte	0x37
 1819 0478 84040000 		.4byte	0x484
 1820 047c 18       		.uleb128 0x18
 1821 047d C9000000 		.4byte	0xc9
 1822 0481 FF03     		.2byte	0x3ff
 1823 0483 00       		.byte	0
 1824 0484 19       		.uleb128 0x19
ARM GAS  C:\Users\JEFFSN~1\AppData\Local\Temp\ccxrarRe.s 			page 41


 1825 0485 3A030000 		.4byte	.LASF42
 1826 0489 01       		.byte	0x1
 1827 048a 14       		.byte	0x14
 1828 048b 73040000 		.4byte	0x473
 1829 048f 05       		.uleb128 0x5
 1830 0490 03       		.byte	0x3
 1831 0491 00000000 		.4byte	buffer
 1832 0495 15       		.uleb128 0x15
 1833 0496 D0000000 		.4byte	0xd0
 1834 049a A5040000 		.4byte	0x4a5
 1835 049e 1A       		.uleb128 0x1a
 1836 049f C9000000 		.4byte	0xc9
 1837 04a3 FF       		.byte	0xff
 1838 04a4 00       		.byte	0
 1839 04a5 1B       		.uleb128 0x1b
 1840 04a6 1B030000 		.4byte	.LASF43
 1841 04aa 05       		.byte	0x5
 1842 04ab 0F       		.byte	0xf
 1843 04ac B0040000 		.4byte	0x4b0
 1844 04b0 05       		.uleb128 0x5
 1845 04b1 95040000 		.4byte	0x495
 1846 04b5 15       		.uleb128 0x15
 1847 04b6 8C000000 		.4byte	0x8c
 1848 04ba C6040000 		.4byte	0x4c6
 1849 04be 18       		.uleb128 0x18
 1850 04bf C9000000 		.4byte	0xc9
 1851 04c3 0004     		.2byte	0x400
 1852 04c5 00       		.byte	0
 1853 04c6 19       		.uleb128 0x19
 1854 04c7 DD000000 		.4byte	.LASF44
 1855 04cb 01       		.byte	0x1
 1856 04cc 3F       		.byte	0x3f
 1857 04cd B5040000 		.4byte	0x4b5
 1858 04d1 05       		.uleb128 0x5
 1859 04d2 03       		.byte	0x3
 1860 04d3 00000000 		.4byte	displayBufferChunk
 1861 04d7 19       		.uleb128 0x19
 1862 04d8 CC020000 		.4byte	.LASF45
 1863 04dc 01       		.byte	0x1
 1864 04dd 41       		.byte	0x41
 1865 04de 8C000000 		.4byte	0x8c
 1866 04e2 05       		.uleb128 0x5
 1867 04e3 03       		.byte	0x3
 1868 04e4 00000000 		.4byte	OLED_xpos
 1869 04e8 19       		.uleb128 0x19
 1870 04e9 53030000 		.4byte	.LASF46
 1871 04ed 01       		.byte	0x1
 1872 04ee 42       		.byte	0x42
 1873 04ef 8C000000 		.4byte	0x8c
 1874 04f3 05       		.uleb128 0x5
 1875 04f4 03       		.byte	0x3
 1876 04f5 00000000 		.4byte	OLED_ypos
 1877 04f9 19       		.uleb128 0x19
 1878 04fa 9C010000 		.4byte	.LASF47
 1879 04fe 01       		.byte	0x1
 1880 04ff 46       		.byte	0x46
 1881 0500 8C000000 		.4byte	0x8c
ARM GAS  C:\Users\JEFFSN~1\AppData\Local\Temp\ccxrarRe.s 			page 42


 1882 0504 05       		.uleb128 0x5
 1883 0505 03       		.byte	0x3
 1884 0506 00000000 		.4byte	OLED_i2c_address
 1885 050a 19       		.uleb128 0x19
 1886 050b 38020000 		.4byte	.LASF48
 1887 050f 01       		.byte	0x1
 1888 0510 47       		.byte	0x47
 1889 0511 8C000000 		.4byte	0x8c
 1890 0515 05       		.uleb128 0x5
 1891 0516 03       		.byte	0x3
 1892 0517 00000000 		.4byte	OLED_externalVCC
 1893 051b 00       		.byte	0
 1894              		.section	.debug_abbrev,"",%progbits
 1895              	.Ldebug_abbrev0:
 1896 0000 01       		.uleb128 0x1
 1897 0001 11       		.uleb128 0x11
 1898 0002 01       		.byte	0x1
 1899 0003 25       		.uleb128 0x25
 1900 0004 0E       		.uleb128 0xe
 1901 0005 13       		.uleb128 0x13
 1902 0006 0B       		.uleb128 0xb
 1903 0007 03       		.uleb128 0x3
 1904 0008 0E       		.uleb128 0xe
 1905 0009 1B       		.uleb128 0x1b
 1906 000a 0E       		.uleb128 0xe
 1907 000b 55       		.uleb128 0x55
 1908 000c 17       		.uleb128 0x17
 1909 000d 11       		.uleb128 0x11
 1910 000e 01       		.uleb128 0x1
 1911 000f 10       		.uleb128 0x10
 1912 0010 17       		.uleb128 0x17
 1913 0011 00       		.byte	0
 1914 0012 00       		.byte	0
 1915 0013 02       		.uleb128 0x2
 1916 0014 24       		.uleb128 0x24
 1917 0015 00       		.byte	0
 1918 0016 0B       		.uleb128 0xb
 1919 0017 0B       		.uleb128 0xb
 1920 0018 3E       		.uleb128 0x3e
 1921 0019 0B       		.uleb128 0xb
 1922 001a 03       		.uleb128 0x3
 1923 001b 0E       		.uleb128 0xe
 1924 001c 00       		.byte	0
 1925 001d 00       		.byte	0
 1926 001e 03       		.uleb128 0x3
 1927 001f 16       		.uleb128 0x16
 1928 0020 00       		.byte	0
 1929 0021 03       		.uleb128 0x3
 1930 0022 0E       		.uleb128 0xe
 1931 0023 3A       		.uleb128 0x3a
 1932 0024 0B       		.uleb128 0xb
 1933 0025 3B       		.uleb128 0x3b
 1934 0026 0B       		.uleb128 0xb
 1935 0027 49       		.uleb128 0x49
 1936 0028 13       		.uleb128 0x13
 1937 0029 00       		.byte	0
 1938 002a 00       		.byte	0
ARM GAS  C:\Users\JEFFSN~1\AppData\Local\Temp\ccxrarRe.s 			page 43


 1939 002b 04       		.uleb128 0x4
 1940 002c 24       		.uleb128 0x24
 1941 002d 00       		.byte	0
 1942 002e 0B       		.uleb128 0xb
 1943 002f 0B       		.uleb128 0xb
 1944 0030 3E       		.uleb128 0x3e
 1945 0031 0B       		.uleb128 0xb
 1946 0032 03       		.uleb128 0x3
 1947 0033 08       		.uleb128 0x8
 1948 0034 00       		.byte	0
 1949 0035 00       		.byte	0
 1950 0036 05       		.uleb128 0x5
 1951 0037 35       		.uleb128 0x35
 1952 0038 00       		.byte	0
 1953 0039 49       		.uleb128 0x49
 1954 003a 13       		.uleb128 0x13
 1955 003b 00       		.byte	0
 1956 003c 00       		.byte	0
 1957 003d 06       		.uleb128 0x6
 1958 003e 2E       		.uleb128 0x2e
 1959 003f 01       		.byte	0x1
 1960 0040 3F       		.uleb128 0x3f
 1961 0041 19       		.uleb128 0x19
 1962 0042 03       		.uleb128 0x3
 1963 0043 0E       		.uleb128 0xe
 1964 0044 3A       		.uleb128 0x3a
 1965 0045 0B       		.uleb128 0xb
 1966 0046 3B       		.uleb128 0x3b
 1967 0047 0B       		.uleb128 0xb
 1968 0048 27       		.uleb128 0x27
 1969 0049 19       		.uleb128 0x19
 1970 004a 11       		.uleb128 0x11
 1971 004b 01       		.uleb128 0x1
 1972 004c 12       		.uleb128 0x12
 1973 004d 06       		.uleb128 0x6
 1974 004e 40       		.uleb128 0x40
 1975 004f 18       		.uleb128 0x18
 1976 0050 9642     		.uleb128 0x2116
 1977 0052 19       		.uleb128 0x19
 1978 0053 01       		.uleb128 0x1
 1979 0054 13       		.uleb128 0x13
 1980 0055 00       		.byte	0
 1981 0056 00       		.byte	0
 1982 0057 07       		.uleb128 0x7
 1983 0058 05       		.uleb128 0x5
 1984 0059 00       		.byte	0
 1985 005a 03       		.uleb128 0x3
 1986 005b 0E       		.uleb128 0xe
 1987 005c 3A       		.uleb128 0x3a
 1988 005d 0B       		.uleb128 0xb
 1989 005e 3B       		.uleb128 0x3b
 1990 005f 0B       		.uleb128 0xb
 1991 0060 49       		.uleb128 0x49
 1992 0061 13       		.uleb128 0x13
 1993 0062 02       		.uleb128 0x2
 1994 0063 18       		.uleb128 0x18
 1995 0064 00       		.byte	0
ARM GAS  C:\Users\JEFFSN~1\AppData\Local\Temp\ccxrarRe.s 			page 44


 1996 0065 00       		.byte	0
 1997 0066 08       		.uleb128 0x8
 1998 0067 05       		.uleb128 0x5
 1999 0068 00       		.byte	0
 2000 0069 03       		.uleb128 0x3
 2001 006a 08       		.uleb128 0x8
 2002 006b 3A       		.uleb128 0x3a
 2003 006c 0B       		.uleb128 0xb
 2004 006d 3B       		.uleb128 0x3b
 2005 006e 0B       		.uleb128 0xb
 2006 006f 49       		.uleb128 0x49
 2007 0070 13       		.uleb128 0x13
 2008 0071 02       		.uleb128 0x2
 2009 0072 18       		.uleb128 0x18
 2010 0073 00       		.byte	0
 2011 0074 00       		.byte	0
 2012 0075 09       		.uleb128 0x9
 2013 0076 34       		.uleb128 0x34
 2014 0077 00       		.byte	0
 2015 0078 03       		.uleb128 0x3
 2016 0079 0E       		.uleb128 0xe
 2017 007a 3A       		.uleb128 0x3a
 2018 007b 0B       		.uleb128 0xb
 2019 007c 3B       		.uleb128 0x3b
 2020 007d 0B       		.uleb128 0xb
 2021 007e 49       		.uleb128 0x49
 2022 007f 13       		.uleb128 0x13
 2023 0080 02       		.uleb128 0x2
 2024 0081 18       		.uleb128 0x18
 2025 0082 00       		.byte	0
 2026 0083 00       		.byte	0
 2027 0084 0A       		.uleb128 0xa
 2028 0085 34       		.uleb128 0x34
 2029 0086 00       		.byte	0
 2030 0087 03       		.uleb128 0x3
 2031 0088 08       		.uleb128 0x8
 2032 0089 3A       		.uleb128 0x3a
 2033 008a 0B       		.uleb128 0xb
 2034 008b 3B       		.uleb128 0x3b
 2035 008c 0B       		.uleb128 0xb
 2036 008d 49       		.uleb128 0x49
 2037 008e 13       		.uleb128 0x13
 2038 008f 02       		.uleb128 0x2
 2039 0090 18       		.uleb128 0x18
 2040 0091 00       		.byte	0
 2041 0092 00       		.byte	0
 2042 0093 0B       		.uleb128 0xb
 2043 0094 0B       		.uleb128 0xb
 2044 0095 01       		.byte	0x1
 2045 0096 11       		.uleb128 0x11
 2046 0097 01       		.uleb128 0x1
 2047 0098 12       		.uleb128 0x12
 2048 0099 06       		.uleb128 0x6
 2049 009a 00       		.byte	0
 2050 009b 00       		.byte	0
 2051 009c 0C       		.uleb128 0xc
 2052 009d 34       		.uleb128 0x34
ARM GAS  C:\Users\JEFFSN~1\AppData\Local\Temp\ccxrarRe.s 			page 45


 2053 009e 00       		.byte	0
 2054 009f 03       		.uleb128 0x3
 2055 00a0 08       		.uleb128 0x8
 2056 00a1 3A       		.uleb128 0x3a
 2057 00a2 0B       		.uleb128 0xb
 2058 00a3 3B       		.uleb128 0x3b
 2059 00a4 05       		.uleb128 0x5
 2060 00a5 49       		.uleb128 0x49
 2061 00a6 13       		.uleb128 0x13
 2062 00a7 02       		.uleb128 0x2
 2063 00a8 18       		.uleb128 0x18
 2064 00a9 00       		.byte	0
 2065 00aa 00       		.byte	0
 2066 00ab 0D       		.uleb128 0xd
 2067 00ac 2E       		.uleb128 0x2e
 2068 00ad 01       		.byte	0x1
 2069 00ae 3F       		.uleb128 0x3f
 2070 00af 19       		.uleb128 0x19
 2071 00b0 03       		.uleb128 0x3
 2072 00b1 0E       		.uleb128 0xe
 2073 00b2 3A       		.uleb128 0x3a
 2074 00b3 0B       		.uleb128 0xb
 2075 00b4 3B       		.uleb128 0x3b
 2076 00b5 05       		.uleb128 0x5
 2077 00b6 27       		.uleb128 0x27
 2078 00b7 19       		.uleb128 0x19
 2079 00b8 11       		.uleb128 0x11
 2080 00b9 01       		.uleb128 0x1
 2081 00ba 12       		.uleb128 0x12
 2082 00bb 06       		.uleb128 0x6
 2083 00bc 40       		.uleb128 0x40
 2084 00bd 18       		.uleb128 0x18
 2085 00be 9642     		.uleb128 0x2116
 2086 00c0 19       		.uleb128 0x19
 2087 00c1 01       		.uleb128 0x1
 2088 00c2 13       		.uleb128 0x13
 2089 00c3 00       		.byte	0
 2090 00c4 00       		.byte	0
 2091 00c5 0E       		.uleb128 0xe
 2092 00c6 34       		.uleb128 0x34
 2093 00c7 00       		.byte	0
 2094 00c8 03       		.uleb128 0x3
 2095 00c9 0E       		.uleb128 0xe
 2096 00ca 3A       		.uleb128 0x3a
 2097 00cb 0B       		.uleb128 0xb
 2098 00cc 3B       		.uleb128 0x3b
 2099 00cd 05       		.uleb128 0x5
 2100 00ce 49       		.uleb128 0x49
 2101 00cf 13       		.uleb128 0x13
 2102 00d0 02       		.uleb128 0x2
 2103 00d1 18       		.uleb128 0x18
 2104 00d2 00       		.byte	0
 2105 00d3 00       		.byte	0
 2106 00d4 0F       		.uleb128 0xf
 2107 00d5 2E       		.uleb128 0x2e
 2108 00d6 00       		.byte	0
 2109 00d7 3F       		.uleb128 0x3f
ARM GAS  C:\Users\JEFFSN~1\AppData\Local\Temp\ccxrarRe.s 			page 46


 2110 00d8 19       		.uleb128 0x19
 2111 00d9 03       		.uleb128 0x3
 2112 00da 0E       		.uleb128 0xe
 2113 00db 3A       		.uleb128 0x3a
 2114 00dc 0B       		.uleb128 0xb
 2115 00dd 3B       		.uleb128 0x3b
 2116 00de 05       		.uleb128 0x5
 2117 00df 27       		.uleb128 0x27
 2118 00e0 19       		.uleb128 0x19
 2119 00e1 11       		.uleb128 0x11
 2120 00e2 01       		.uleb128 0x1
 2121 00e3 12       		.uleb128 0x12
 2122 00e4 06       		.uleb128 0x6
 2123 00e5 40       		.uleb128 0x40
 2124 00e6 18       		.uleb128 0x18
 2125 00e7 9642     		.uleb128 0x2116
 2126 00e9 19       		.uleb128 0x19
 2127 00ea 00       		.byte	0
 2128 00eb 00       		.byte	0
 2129 00ec 10       		.uleb128 0x10
 2130 00ed 05       		.uleb128 0x5
 2131 00ee 00       		.byte	0
 2132 00ef 03       		.uleb128 0x3
 2133 00f0 08       		.uleb128 0x8
 2134 00f1 3A       		.uleb128 0x3a
 2135 00f2 0B       		.uleb128 0xb
 2136 00f3 3B       		.uleb128 0x3b
 2137 00f4 05       		.uleb128 0x5
 2138 00f5 49       		.uleb128 0x49
 2139 00f6 13       		.uleb128 0x13
 2140 00f7 02       		.uleb128 0x2
 2141 00f8 18       		.uleb128 0x18
 2142 00f9 00       		.byte	0
 2143 00fa 00       		.byte	0
 2144 00fb 11       		.uleb128 0x11
 2145 00fc 05       		.uleb128 0x5
 2146 00fd 00       		.byte	0
 2147 00fe 03       		.uleb128 0x3
 2148 00ff 0E       		.uleb128 0xe
 2149 0100 3A       		.uleb128 0x3a
 2150 0101 0B       		.uleb128 0xb
 2151 0102 3B       		.uleb128 0x3b
 2152 0103 05       		.uleb128 0x5
 2153 0104 49       		.uleb128 0x49
 2154 0105 13       		.uleb128 0x13
 2155 0106 02       		.uleb128 0x2
 2156 0107 18       		.uleb128 0x18
 2157 0108 00       		.byte	0
 2158 0109 00       		.byte	0
 2159 010a 12       		.uleb128 0x12
 2160 010b 2E       		.uleb128 0x2e
 2161 010c 01       		.byte	0x1
 2162 010d 3F       		.uleb128 0x3f
 2163 010e 19       		.uleb128 0x19
 2164 010f 03       		.uleb128 0x3
 2165 0110 0E       		.uleb128 0xe
 2166 0111 3A       		.uleb128 0x3a
ARM GAS  C:\Users\JEFFSN~1\AppData\Local\Temp\ccxrarRe.s 			page 47


 2167 0112 0B       		.uleb128 0xb
 2168 0113 3B       		.uleb128 0x3b
 2169 0114 05       		.uleb128 0x5
 2170 0115 27       		.uleb128 0x27
 2171 0116 19       		.uleb128 0x19
 2172 0117 11       		.uleb128 0x11
 2173 0118 01       		.uleb128 0x1
 2174 0119 12       		.uleb128 0x12
 2175 011a 06       		.uleb128 0x6
 2176 011b 40       		.uleb128 0x40
 2177 011c 18       		.uleb128 0x18
 2178 011d 9742     		.uleb128 0x2117
 2179 011f 19       		.uleb128 0x19
 2180 0120 01       		.uleb128 0x1
 2181 0121 13       		.uleb128 0x13
 2182 0122 00       		.byte	0
 2183 0123 00       		.byte	0
 2184 0124 13       		.uleb128 0x13
 2185 0125 0F       		.uleb128 0xf
 2186 0126 00       		.byte	0
 2187 0127 0B       		.uleb128 0xb
 2188 0128 0B       		.uleb128 0xb
 2189 0129 49       		.uleb128 0x49
 2190 012a 13       		.uleb128 0x13
 2191 012b 00       		.byte	0
 2192 012c 00       		.byte	0
 2193 012d 14       		.uleb128 0x14
 2194 012e 0B       		.uleb128 0xb
 2195 012f 01       		.byte	0x1
 2196 0130 11       		.uleb128 0x11
 2197 0131 01       		.uleb128 0x1
 2198 0132 12       		.uleb128 0x12
 2199 0133 06       		.uleb128 0x6
 2200 0134 01       		.uleb128 0x1
 2201 0135 13       		.uleb128 0x13
 2202 0136 00       		.byte	0
 2203 0137 00       		.byte	0
 2204 0138 15       		.uleb128 0x15
 2205 0139 01       		.uleb128 0x1
 2206 013a 01       		.byte	0x1
 2207 013b 49       		.uleb128 0x49
 2208 013c 13       		.uleb128 0x13
 2209 013d 01       		.uleb128 0x1
 2210 013e 13       		.uleb128 0x13
 2211 013f 00       		.byte	0
 2212 0140 00       		.byte	0
 2213 0141 16       		.uleb128 0x16
 2214 0142 21       		.uleb128 0x21
 2215 0143 00       		.byte	0
 2216 0144 49       		.uleb128 0x49
 2217 0145 13       		.uleb128 0x13
 2218 0146 2F       		.uleb128 0x2f
 2219 0147 18       		.uleb128 0x18
 2220 0148 00       		.byte	0
 2221 0149 00       		.byte	0
 2222 014a 17       		.uleb128 0x17
 2223 014b 34       		.uleb128 0x34
ARM GAS  C:\Users\JEFFSN~1\AppData\Local\Temp\ccxrarRe.s 			page 48


 2224 014c 00       		.byte	0
 2225 014d 03       		.uleb128 0x3
 2226 014e 0E       		.uleb128 0xe
 2227 014f 3A       		.uleb128 0x3a
 2228 0150 0B       		.uleb128 0xb
 2229 0151 3B       		.uleb128 0x3b
 2230 0152 05       		.uleb128 0x5
 2231 0153 49       		.uleb128 0x49
 2232 0154 13       		.uleb128 0x13
 2233 0155 3F       		.uleb128 0x3f
 2234 0156 19       		.uleb128 0x19
 2235 0157 3C       		.uleb128 0x3c
 2236 0158 19       		.uleb128 0x19
 2237 0159 00       		.byte	0
 2238 015a 00       		.byte	0
 2239 015b 18       		.uleb128 0x18
 2240 015c 21       		.uleb128 0x21
 2241 015d 00       		.byte	0
 2242 015e 49       		.uleb128 0x49
 2243 015f 13       		.uleb128 0x13
 2244 0160 2F       		.uleb128 0x2f
 2245 0161 05       		.uleb128 0x5
 2246 0162 00       		.byte	0
 2247 0163 00       		.byte	0
 2248 0164 19       		.uleb128 0x19
 2249 0165 34       		.uleb128 0x34
 2250 0166 00       		.byte	0
 2251 0167 03       		.uleb128 0x3
 2252 0168 0E       		.uleb128 0xe
 2253 0169 3A       		.uleb128 0x3a
 2254 016a 0B       		.uleb128 0xb
 2255 016b 3B       		.uleb128 0x3b
 2256 016c 0B       		.uleb128 0xb
 2257 016d 49       		.uleb128 0x49
 2258 016e 13       		.uleb128 0x13
 2259 016f 3F       		.uleb128 0x3f
 2260 0170 19       		.uleb128 0x19
 2261 0171 02       		.uleb128 0x2
 2262 0172 18       		.uleb128 0x18
 2263 0173 00       		.byte	0
 2264 0174 00       		.byte	0
 2265 0175 1A       		.uleb128 0x1a
 2266 0176 21       		.uleb128 0x21
 2267 0177 00       		.byte	0
 2268 0178 49       		.uleb128 0x49
 2269 0179 13       		.uleb128 0x13
 2270 017a 2F       		.uleb128 0x2f
 2271 017b 0B       		.uleb128 0xb
 2272 017c 00       		.byte	0
 2273 017d 00       		.byte	0
 2274 017e 1B       		.uleb128 0x1b
 2275 017f 34       		.uleb128 0x34
 2276 0180 00       		.byte	0
 2277 0181 03       		.uleb128 0x3
 2278 0182 0E       		.uleb128 0xe
 2279 0183 3A       		.uleb128 0x3a
 2280 0184 0B       		.uleb128 0xb
ARM GAS  C:\Users\JEFFSN~1\AppData\Local\Temp\ccxrarRe.s 			page 49


 2281 0185 3B       		.uleb128 0x3b
 2282 0186 0B       		.uleb128 0xb
 2283 0187 49       		.uleb128 0x49
 2284 0188 13       		.uleb128 0x13
 2285 0189 3F       		.uleb128 0x3f
 2286 018a 19       		.uleb128 0x19
 2287 018b 3C       		.uleb128 0x3c
 2288 018c 19       		.uleb128 0x19
 2289 018d 00       		.byte	0
 2290 018e 00       		.byte	0
 2291 018f 00       		.byte	0
 2292              		.section	.debug_aranges,"",%progbits
 2293 0000 74000000 		.4byte	0x74
 2294 0004 0200     		.2byte	0x2
 2295 0006 00000000 		.4byte	.Ldebug_info0
 2296 000a 04       		.byte	0x4
 2297 000b 00       		.byte	0
 2298 000c 0000     		.2byte	0
 2299 000e 0000     		.2byte	0
 2300 0010 00000000 		.4byte	.LFB64
 2301 0014 54010000 		.4byte	.LFE64-.LFB64
 2302 0018 00000000 		.4byte	.LFB65
 2303 001c 26000000 		.4byte	.LFE65-.LFB65
 2304 0020 00000000 		.4byte	.LFB66
 2305 0024 2C000000 		.4byte	.LFE66-.LFB66
 2306 0028 00000000 		.4byte	.LFB67
 2307 002c 44000000 		.4byte	.LFE67-.LFB67
 2308 0030 00000000 		.4byte	.LFB68
 2309 0034 F0000000 		.4byte	.LFE68-.LFB68
 2310 0038 00000000 		.4byte	.LFB69
 2311 003c F4000000 		.4byte	.LFE69-.LFB69
 2312 0040 00000000 		.4byte	.LFB70
 2313 0044 10000000 		.4byte	.LFE70-.LFB70
 2314 0048 00000000 		.4byte	.LFB71
 2315 004c 56000000 		.4byte	.LFE71-.LFB71
 2316 0050 00000000 		.4byte	.LFB72
 2317 0054 3C000000 		.4byte	.LFE72-.LFB72
 2318 0058 00000000 		.4byte	.LFB73
 2319 005c 54000000 		.4byte	.LFE73-.LFB73
 2320 0060 00000000 		.4byte	.LFB74
 2321 0064 54000000 		.4byte	.LFE74-.LFB74
 2322 0068 00000000 		.4byte	.LFB75
 2323 006c E8000000 		.4byte	.LFE75-.LFB75
 2324 0070 00000000 		.4byte	0
 2325 0074 00000000 		.4byte	0
 2326              		.section	.debug_ranges,"",%progbits
 2327              	.Ldebug_ranges0:
 2328 0000 00000000 		.4byte	.LFB64
 2329 0004 54010000 		.4byte	.LFE64
 2330 0008 00000000 		.4byte	.LFB65
 2331 000c 26000000 		.4byte	.LFE65
 2332 0010 00000000 		.4byte	.LFB66
 2333 0014 2C000000 		.4byte	.LFE66
 2334 0018 00000000 		.4byte	.LFB67
 2335 001c 44000000 		.4byte	.LFE67
 2336 0020 00000000 		.4byte	.LFB68
 2337 0024 F0000000 		.4byte	.LFE68
ARM GAS  C:\Users\JEFFSN~1\AppData\Local\Temp\ccxrarRe.s 			page 50


 2338 0028 00000000 		.4byte	.LFB69
 2339 002c F4000000 		.4byte	.LFE69
 2340 0030 00000000 		.4byte	.LFB70
 2341 0034 10000000 		.4byte	.LFE70
 2342 0038 00000000 		.4byte	.LFB71
 2343 003c 56000000 		.4byte	.LFE71
 2344 0040 00000000 		.4byte	.LFB72
 2345 0044 3C000000 		.4byte	.LFE72
 2346 0048 00000000 		.4byte	.LFB73
 2347 004c 54000000 		.4byte	.LFE73
 2348 0050 00000000 		.4byte	.LFB74
 2349 0054 54000000 		.4byte	.LFE74
 2350 0058 00000000 		.4byte	.LFB75
 2351 005c E8000000 		.4byte	.LFE75
 2352 0060 00000000 		.4byte	0
 2353 0064 00000000 		.4byte	0
 2354              		.section	.debug_line,"",%progbits
 2355              	.Ldebug_line0:
 2356 0000 88030000 		.section	.debug_str,"MS",%progbits,1
 2356      02004C01 
 2356      00000201 
 2356      FB0E0D00 
 2356      01010101 
 2357              	.LASF9:
 2358 0000 6C6F6E67 		.ascii	"long long int\000"
 2358      206C6F6E 
 2358      6720696E 
 2358      7400
 2359              	.LASF28:
 2360 000e 636F6E74 		.ascii	"contrast\000"
 2360      72617374 
 2360      00
 2361              	.LASF49:
 2362 0017 474E5520 		.ascii	"GNU C11 5.4.1 20160609 (release) [ARM/embedded-5-br"
 2362      43313120 
 2362      352E342E 
 2362      31203230 
 2362      31363036 
 2363 004a 616E6368 		.ascii	"anch revision 237715] -mcpu=cortex-m3 -mthumb -g -O"
 2363      20726576 
 2363      6973696F 
 2363      6E203233 
 2363      37373135 
 2364 007d 30202D66 		.ascii	"0 -ffunction-sections -ffat-lto-objects\000"
 2364      66756E63 
 2364      74696F6E 
 2364      2D736563 
 2364      74696F6E 
 2365              	.LASF3:
 2366 00a5 5F5F7569 		.ascii	"__uint8_t\000"
 2366      6E74385F 
 2366      7400
 2367              	.LASF6:
 2368 00af 5F5F696E 		.ascii	"__int32_t\000"
 2368      7433325F 
 2368      7400
 2369              	.LASF32:
ARM GAS  C:\Users\JEFFSN~1\AppData\Local\Temp\ccxrarRe.s 			page 51


 2370 00b9 73736431 		.ascii	"ssd1306_move_raw\000"
 2370      3330365F 
 2370      6D6F7665 
 2370      5F726177 
 2370      00
 2371              	.LASF5:
 2372 00ca 73686F72 		.ascii	"short unsigned int\000"
 2372      7420756E 
 2372      7369676E 
 2372      65642069 
 2372      6E7400
 2373              	.LASF44:
 2374 00dd 64697370 		.ascii	"displayBufferChunk\000"
 2374      6C617942 
 2374      75666665 
 2374      72436875 
 2374      6E6B00
 2375              	.LASF31:
 2376 00f0 73736431 		.ascii	"ssd1306_display_first_line\000"
 2376      3330365F 
 2376      64697370 
 2376      6C61795F 
 2376      66697273 
 2377              	.LASF16:
 2378 010b 646F7562 		.ascii	"double\000"
 2378      6C6500
 2379              	.LASF14:
 2380 0112 696E7433 		.ascii	"int32_t\000"
 2380      325F7400 
 2381              	.LASF33:
 2382 011a 636F6C75 		.ascii	"column\000"
 2382      6D6E00
 2383              	.LASF15:
 2384 0121 666C6F61 		.ascii	"float\000"
 2384      7400
 2385              	.LASF36:
 2386 0127 64617461 		.ascii	"data\000"
 2386      00
 2387              	.LASF1:
 2388 012c 756E7369 		.ascii	"unsigned char\000"
 2388      676E6564 
 2388      20636861 
 2388      7200
 2389              	.LASF50:
 2390 013a 73736431 		.ascii	"ssd1306.c\000"
 2390      3330362E 
 2390      6300
 2391              	.LASF8:
 2392 0144 6C6F6E67 		.ascii	"long unsigned int\000"
 2392      20756E73 
 2392      69676E65 
 2392      6420696E 
 2392      7400
 2393              	.LASF30:
 2394 0156 6D5F636F 		.ascii	"m_col\000"
 2394      6C00
 2395              	.LASF26:
ARM GAS  C:\Users\JEFFSN~1\AppData\Local\Temp\ccxrarRe.s 			page 52


 2396 015c 73736431 		.ascii	"ssd1306_dim\000"
 2396      3330365F 
 2396      64696D00 
 2397              	.LASF22:
 2398 0168 68656967 		.ascii	"height\000"
 2398      687400
 2399              	.LASF21:
 2400 016f 77696474 		.ascii	"width\000"
 2400      6800
 2401              	.LASF27:
 2402 0175 73736431 		.ascii	"ssd1306_display_full_buffer\000"
 2402      3330365F 
 2402      64697370 
 2402      6C61795F 
 2402      66756C6C 
 2403              	.LASF4:
 2404 0191 5F5F7569 		.ascii	"__uint16_t\000"
 2404      6E743136 
 2404      5F7400
 2405              	.LASF47:
 2406 019c 4F4C4544 		.ascii	"OLED_i2c_address\000"
 2406      5F693263 
 2406      5F616464 
 2406      72657373 
 2406      00
 2407              	.LASF51:
 2408 01ad 433A5C55 		.ascii	"C:\\Users\\JeffSnyder\\dev\\Electrosteel_embedded\\"
 2408      73657273 
 2408      5C4A6566 
 2408      66536E79 
 2408      6465725C 
 2409 01db 50534F43 		.ascii	"PSOC5_electrosteel_stringsensors_newpcb_brain\\CE21"
 2409      355F656C 
 2409      65637472 
 2409      6F737465 
 2409      656C5F73 
 2410 020d 30353134 		.ascii	"0514_PSOC3_5_Thermistor.cydsn\000"
 2410      5F50534F 
 2410      43335F35 
 2410      5F546865 
 2410      726D6973 
 2411              	.LASF34:
 2412 022b 73736431 		.ascii	"ssd1306_move\000"
 2412      3330365F 
 2412      6D6F7665 
 2412      00
 2413              	.LASF48:
 2414 0238 4F4C4544 		.ascii	"OLED_externalVCC\000"
 2414      5F657874 
 2414      65726E61 
 2414      6C564343 
 2414      00
 2415              	.LASF41:
 2416 0249 49544D5F 		.ascii	"ITM_RxBuffer\000"
 2416      52784275 
 2416      66666572 
 2416      00
ARM GAS  C:\Users\JEFFSN~1\AppData\Local\Temp\ccxrarRe.s 			page 53


 2417              	.LASF20:
 2418 0256 76636373 		.ascii	"vccstate\000"
 2418      74617465 
 2418      00
 2419              	.LASF11:
 2420 025f 756E7369 		.ascii	"unsigned int\000"
 2420      676E6564 
 2420      20696E74 
 2420      00
 2421              	.LASF35:
 2422 026c 73736431 		.ascii	"ssd1306_write_internal\000"
 2422      3330365F 
 2422      77726974 
 2422      655F696E 
 2422      7465726E 
 2423              	.LASF10:
 2424 0283 6C6F6E67 		.ascii	"long long unsigned int\000"
 2424      206C6F6E 
 2424      6720756E 
 2424      7369676E 
 2424      65642069 
 2425              	.LASF12:
 2426 029a 75696E74 		.ascii	"uint8_t\000"
 2426      385F7400 
 2427              	.LASF38:
 2428 02a2 73736431 		.ascii	"ssd1306_write\000"
 2428      3330365F 
 2428      77726974 
 2428      6500
 2429              	.LASF24:
 2430 02b0 73646431 		.ascii	"sdd1306_invertDisplay\000"
 2430      3330365F 
 2430      696E7665 
 2430      72744469 
 2430      73706C61 
 2431              	.LASF29:
 2432 02c6 6D5F726F 		.ascii	"m_row\000"
 2432      7700
 2433              	.LASF45:
 2434 02cc 4F4C4544 		.ascii	"OLED_xpos\000"
 2434      5F78706F 
 2434      7300
 2435              	.LASF37:
 2436 02d6 6E756D42 		.ascii	"numBytes\000"
 2436      79746573 
 2436      00
 2437              	.LASF52:
 2438 02df 73736431 		.ascii	"ssd1306_home\000"
 2438      3330365F 
 2438      686F6D65 
 2438      00
 2439              	.LASF19:
 2440 02ec 73697A65 		.ascii	"sizetype\000"
 2440      74797065 
 2440      00
 2441              	.LASF39:
 2442 02f5 73736431 		.ascii	"ssd1306_write_2X\000"
ARM GAS  C:\Users\JEFFSN~1\AppData\Local\Temp\ccxrarRe.s 			page 54


 2442      3330365F 
 2442      77726974 
 2442      655F3258 
 2442      00
 2443              	.LASF25:
 2444 0306 73736431 		.ascii	"ssd1306_command\000"
 2444      3330365F 
 2444      636F6D6D 
 2444      616E6400 
 2445              	.LASF17:
 2446 0316 63686172 		.ascii	"char\000"
 2446      00
 2447              	.LASF43:
 2448 031b 49324362 		.ascii	"I2Cbuff1\000"
 2448      75666631 
 2448      00
 2449              	.LASF40:
 2450 0324 6C6F6361 		.ascii	"localBuffer\000"
 2450      6C427566 
 2450      66657200 
 2451              	.LASF2:
 2452 0330 73686F72 		.ascii	"short int\000"
 2452      7420696E 
 2452      7400
 2453              	.LASF42:
 2454 033a 62756666 		.ascii	"buffer\000"
 2454      657200
 2455              	.LASF13:
 2456 0341 75696E74 		.ascii	"uint16_t\000"
 2456      31365F74 
 2456      00
 2457              	.LASF7:
 2458 034a 6C6F6E67 		.ascii	"long int\000"
 2458      20696E74 
 2458      00
 2459              	.LASF46:
 2460 0353 4F4C4544 		.ascii	"OLED_ypos\000"
 2460      5F79706F 
 2460      7300
 2461              	.LASF18:
 2462 035d 6C6F6E67 		.ascii	"long double\000"
 2462      20646F75 
 2462      626C6500 
 2463              	.LASF0:
 2464 0369 7369676E 		.ascii	"signed char\000"
 2464      65642063 
 2464      68617200 
 2465              	.LASF23:
 2466 0375 73736431 		.ascii	"ssd1306_begin\000"
 2466      3330365F 
 2466      62656769 
 2466      6E00
 2467              		.ident	"GCC: (GNU Tools for ARM Embedded Processors) 5.4.1 20160609 (release) [ARM/embedded-5-bran
