ARM GAS  C:\Users\JEFFSN~1\AppData\Local\Temp\ccCJVR0p.s 			page 1


   1              		.syntax unified
   2              		.cpu cortex-m3
   3              		.fpu softvfp
   4              		.eabi_attribute 20, 1
   5              		.eabi_attribute 21, 1
   6              		.eabi_attribute 23, 3
   7              		.eabi_attribute 24, 1
   8              		.eabi_attribute 25, 1
   9              		.eabi_attribute 26, 1
  10              		.eabi_attribute 30, 6
  11              		.eabi_attribute 34, 1
  12              		.eabi_attribute 18, 4
  13              		.thumb
  14              		.syntax unified
  15              		.file	"ssd1306.c"
  16              		.text
  17              	.Ltext0:
  18              		.cfi_sections	.debug_frame
  19              		.comm	buffer,1024,4
  20              		.comm	displayBufferChunk,1025,4
  21              		.global	OLED_xpos
  22              		.bss
  23              		.type	OLED_xpos, %object
  24              		.size	OLED_xpos, 1
  25              	OLED_xpos:
  26 0000 00       		.space	1
  27              		.global	OLED_ypos
  28              		.type	OLED_ypos, %object
  29              		.size	OLED_ypos, 1
  30              	OLED_ypos:
  31 0001 00       		.space	1
  32              		.comm	OLED_i2c_address,1,1
  33              		.comm	OLED_externalVCC,1,1
  34              		.section	.text.ssd1306_begin,"ax",%progbits
  35              		.align	2
  36              		.global	ssd1306_begin
  37              		.thumb
  38              		.thumb_func
  39              		.type	ssd1306_begin, %function
  40              	ssd1306_begin:
  41              	.LFB64:
  42              		.file 1 "ssd1306.c"
   1:ssd1306.c     **** /*
   2:ssd1306.c     ****  * ssd1306.c
   3:ssd1306.c     ****  *
   4:ssd1306.c     ****  *  Created on: Oct 8, 2019
   5:ssd1306.c     ****  *      Author: jeffsnyder
   6:ssd1306.c     ****  */
   7:ssd1306.c     **** 
   8:ssd1306.c     **** 
   9:ssd1306.c     **** /*
  10:ssd1306.c     ****  * ssd1306.c
  11:ssd1306.c     ****  *
  12:ssd1306.c     ****  *  Created on: Jul 6, 2018
  13:ssd1306.c     ****  *      Author: jeffsnyder
  14:ssd1306.c     ****  */
  15:ssd1306.c     **** 
ARM GAS  C:\Users\JEFFSN~1\AppData\Local\Temp\ccCJVR0p.s 			page 2


  16:ssd1306.c     **** #include "ssd1306.h"
  17:ssd1306.c     **** #include "main.h"
  18:ssd1306.c     **** 
  19:ssd1306.c     **** 
  20:ssd1306.c     **** unsigned char buffer[1024];
  21:ssd1306.c     **** 
  22:ssd1306.c     **** //unsigned char buffer [] = {
  23:ssd1306.c     **** //
  24:ssd1306.c     **** //		0x00, 0x00, 0x00, 0x00, 0x00, 0x40, 0xC0, 0xC0, 0x00, 0x00, 0x00, 0x00, 0x00, 0x00, 0x00, 0x00,
  25:ssd1306.c     **** //		0x00, 0x00, 0xC0, 0xC0, 0x40, 0x00, 0x00, 0x00, 0x00, 0x00, 0x00, 0x80, 0x80, 0xC0, 0xC0, 0xC0,
  26:ssd1306.c     **** //		0xC0, 0x80, 0x80, 0x00, 0x00, 0x00, 0x00, 0x00, 0x00, 0x00, 0x00, 0x00, 0x00, 0x80, 0x80, 0xC0,
  27:ssd1306.c     **** //		0xC0, 0xC0, 0xC0, 0x80, 0x80, 0x00, 0x00, 0x00, 0x00, 0x00, 0x00, 0x00, 0x00, 0x00, 0x80, 0x80,
  28:ssd1306.c     **** //		0xC0, 0xC0, 0xC0, 0xC0, 0x80, 0x80, 0x00, 0x00, 0x00, 0x00, 0x00, 0x00, 0x00, 0x00, 0xC0, 0xC0,
  29:ssd1306.c     **** //		0xC0, 0xC0, 0xC0, 0xC0, 0xC0, 0xC0, 0xC0, 0x80, 0x80, 0x80, 0x00, 0x00, 0x00, 0x00, 0x00, 0x00,
  30:ssd1306.c     **** //		0xC0, 0xC0, 0xC0, 0xC0, 0xC0, 0xC0, 0xC0, 0xC0, 0xC0, 0xC0, 0xC0, 0x00, 0x00, 0x00, 0x00, 0x00,
  31:ssd1306.c     **** //		0x00, 0x00, 0x80, 0x80, 0xC0, 0xC0, 0xC0, 0xC0, 0x80, 0x80, 0x00, 0x00, 0x00, 0x00, 0x00, 0x00,
  32:ssd1306.c     **** //		0x00, 0x00, 0x00, 0x00, 0x00, 0x00, 0x03, 0x1F, 0xFE, 0xF0, 0x80, 0x00, 0x00, 0x00, 0x00, 0x80,
  33:ssd1306.c     **** //		0xF0, 0xFE, 0x1F, 0x03, 0x00, 0x00, 0x00, 0xF0, 0xFE, 0x0F, 0x03, 0x01, 0x01, 0x00, 0x00, 0x00,
  34:ssd1306.c     **** //		0x00, 0x01, 0x01, 0x03, 0x0F, 0xFE, 0xF0, 0x00, 0x00, 0x00, 0xF0, 0xFE, 0x0F, 0x03, 0x01, 0x01,
  35:ssd1306.c     **** //		0x00, 0x00, 0x00, 0x01, 0x03, 0x07, 0x06, 0x00, 0x00, 0x00, 0xF0, 0xFE, 0x0F, 0x03, 0x01, 0x01,
  36:ssd1306.c     **** //		0x00, 0x00, 0x00, 0x00, 0x01, 0x01, 0x03, 0x0F, 0xFE, 0xF0, 0x00, 0x00, 0x00, 0x00, 0xFF, 0xFF,
  37:ssd1306.c     **** //		0x00, 0x00, 0x00, 0x00, 0x00, 0x00, 0x00, 0x01, 0x03, 0x03, 0x0F, 0xFE, 0xF0, 0x00, 0x00, 0x00,
  38:ssd1306.c     **** //		0xFF, 0xFF, 0xC0, 0xC0, 0xC0, 0xC0, 0xC0, 0xC0, 0xC0, 0xC0, 0x00, 0x00, 0x00, 0x00, 0x00, 0xF0,
  39:ssd1306.c     **** //		0xFE, 0x0F, 0x03, 0x01, 0x01, 0x00, 0x00, 0x00, 0x01, 0x03, 0x07, 0x06, 0x00, 0x00, 0x00, 0x00,
  40:ssd1306.c     **** //		0x00, 0x00, 0x00, 0x00, 0x00, 0x00, 0x00, 0x00, 0x00, 0x07, 0x3F, 0xFC, 0xE0, 0xE0, 0xFC, 0x1F,
  41:ssd1306.c     **** //		0x07, 0x00, 0x00, 0x00, 0x00, 0x00, 0x00, 0x07, 0x3F, 0x78, 0x60, 0xC0, 0xC0, 0x80, 0x80, 0x80,
  42:ssd1306.c     **** //		0x80, 0xC0, 0xC0, 0x60, 0x78, 0x3F, 0x07, 0x00, 0x00, 0x00, 0x07, 0x3F, 0x78, 0xE0, 0xC0, 0xC0,
  43:ssd1306.c     **** //		0x80, 0x80, 0xC0, 0xC0, 0xE0, 0x70, 0x10, 0x00, 0x00, 0x00, 0x07, 0x3F, 0x78, 0x60, 0xC0, 0xC0,
  44:ssd1306.c     **** //		0x80, 0x80, 0x80, 0x80, 0xC0, 0xC0, 0x60, 0x78, 0x3F, 0x07, 0x00, 0x00, 0x00, 0x00, 0xFF, 0xFF,
  45:ssd1306.c     **** //		0x80, 0x80, 0x80, 0x80, 0x80, 0x80, 0x80, 0xC0, 0xE0, 0xE0, 0x78, 0x3F, 0x07, 0x00, 0x00, 0x00,
  46:ssd1306.c     **** //		0xFF, 0xFF, 0x80, 0x80, 0x80, 0x80, 0x80, 0x80, 0x80, 0x80, 0x80, 0x00, 0x00, 0x00, 0x00, 0x07,
  47:ssd1306.c     **** //		0x3F, 0x78, 0xE0, 0xC0, 0xC0, 0x80, 0x80, 0xC0, 0xC0, 0xE0, 0x70, 0x10, 0x00, 0x00, 0x00, 0x00,
  48:ssd1306.c     **** //		0x00, 0x00, 0x00, 0x00, 0x00, 0x00, 0x00, 0x00, 0x00, 0x00, 0x00, 0x01, 0x01, 0x01, 0x00, 0x00,
  49:ssd1306.c     **** //		0x00, 0x00, 0x00, 0x00, 0x00, 0x00, 0x00, 0x00, 0x00, 0x00, 0x00, 0x00, 0x00, 0x01, 0x01, 0x01,
  50:ssd1306.c     **** //		0x01, 0x00, 0x00, 0x00, 0x00, 0x00, 0x00, 0x00, 0x00, 0x00, 0x00, 0x00, 0x00, 0x00, 0x00, 0x00,
  51:ssd1306.c     **** //		0x01, 0x01, 0x00, 0x00, 0x00, 0x00, 0x00, 0x00, 0x00, 0x00, 0x00, 0x00, 0x00, 0x00, 0x00, 0x00,
  52:ssd1306.c     **** //		0x01, 0x01, 0x01, 0x01, 0x00, 0x00, 0x00, 0x00, 0x00, 0x00, 0x00, 0x00, 0x00, 0x00, 0x01, 0x01,
  53:ssd1306.c     **** //		0x01, 0x01, 0x01, 0x01, 0x01, 0x01, 0x01, 0x00, 0x00, 0x00, 0x00, 0x00, 0x00, 0x00, 0x00, 0x00,
  54:ssd1306.c     **** //		0x01, 0x01, 0x01, 0x01, 0x01, 0x01, 0x01, 0x01, 0x01, 0x01, 0x01, 0x00, 0x00, 0x00, 0x00, 0x00,
  55:ssd1306.c     **** //		0x00, 0x00, 0x00, 0x00, 0x00, 0x01, 0x01, 0x00, 0x00, 0x00, 0x00, 0x00, 0x00, 0x00, 0x00, 0x00
  56:ssd1306.c     **** //		};
  57:ssd1306.c     **** 
  58:ssd1306.c     **** 
  59:ssd1306.c     **** 
  60:ssd1306.c     **** #define ssd1306_swap(a, b) { int16_t t = a; a = b; b = t; }
  61:ssd1306.c     **** #define WIDTH SSD1306_LCDWIDTH
  62:ssd1306.c     **** #define HEIGHT SSD1306_LCDHEIGHT
  63:ssd1306.c     **** 
  64:ssd1306.c     **** uint8_t displayBufferChunk[1025];
  65:ssd1306.c     **** 
  66:ssd1306.c     **** uint8_t OLED_xpos = 0;
  67:ssd1306.c     **** uint8_t OLED_ypos = 0;
  68:ssd1306.c     **** 
  69:ssd1306.c     **** 
  70:ssd1306.c     **** 
  71:ssd1306.c     **** uint8_t OLED_i2c_address;
  72:ssd1306.c     **** uint8_t OLED_externalVCC;
ARM GAS  C:\Users\JEFFSN~1\AppData\Local\Temp\ccCJVR0p.s 			page 3


  73:ssd1306.c     **** 
  74:ssd1306.c     **** 
  75:ssd1306.c     **** void ssd1306_begin(uint8_t vccstate)
  76:ssd1306.c     **** {
  43              		.loc 1 76 0
  44              		.cfi_startproc
  45              		@ args = 0, pretend = 0, frame = 8
  46              		@ frame_needed = 1, uses_anonymous_args = 0
  47 0000 80B5     		push	{r7, lr}
  48              		.cfi_def_cfa_offset 8
  49              		.cfi_offset 7, -8
  50              		.cfi_offset 14, -4
  51 0002 82B0     		sub	sp, sp, #8
  52              		.cfi_def_cfa_offset 16
  53 0004 00AF     		add	r7, sp, #0
  54              		.cfi_def_cfa_register 7
  55 0006 0346     		mov	r3, r0
  56 0008 FB71     		strb	r3, [r7, #7]
  77:ssd1306.c     **** 	OLED_externalVCC = vccstate;
  57              		.loc 1 77 0
  58 000a 354A     		ldr	r2, .L8
  59 000c FB79     		ldrb	r3, [r7, #7]
  60 000e 1370     		strb	r3, [r2]
  78:ssd1306.c     **** 
  79:ssd1306.c     **** /*
  80:ssd1306.c     **** 	HAL_GPIO_WritePin(GPIOA, GPIO_PIN_9, GPIO_PIN_SET); //PULL RESET LINE HIGH
  81:ssd1306.c     **** 	// VDD (3.3V) goes high at start, lets just chill for a ms
  82:ssd1306.c     **** 	HAL_Delay(1);
  83:ssd1306.c     **** 	// bring reset low
  84:ssd1306.c     **** 	HAL_GPIO_WritePin(GPIOA, GPIO_PIN_9, GPIO_PIN_RESET); //PULL RESET LINE HIGH
  85:ssd1306.c     **** 	// wait 10ms
  86:ssd1306.c     **** 	HAL_Delay(10);
  87:ssd1306.c     **** 	// bring out of reset
  88:ssd1306.c     **** 	HAL_GPIO_WritePin(GPIOA, GPIO_PIN_9, GPIO_PIN_SET); //PULL RESET LINE HIGH
  89:ssd1306.c     **** 	// turn on VCC (9V?)
  90:ssd1306.c     **** */
  91:ssd1306.c     **** 
  92:ssd1306.c     **** 	// Init sequence
  93:ssd1306.c     **** 	ssd1306_command(SSD1306_DISPLAYOFF);                    // 0xAE
  61              		.loc 1 93 0
  62 0010 AE20     		movs	r0, #174
  63 0012 FFF7FEFF 		bl	ssd1306_command
  94:ssd1306.c     **** 	ssd1306_command(SSD1306_SETDISPLAYCLOCKDIV);            // 0xD5
  64              		.loc 1 94 0
  65 0016 D520     		movs	r0, #213
  66 0018 FFF7FEFF 		bl	ssd1306_command
  95:ssd1306.c     **** 	ssd1306_command(0x80);                                  // the suggested ratio 0x80
  67              		.loc 1 95 0
  68 001c 8020     		movs	r0, #128
  69 001e FFF7FEFF 		bl	ssd1306_command
  96:ssd1306.c     **** 
  97:ssd1306.c     **** 	ssd1306_command(SSD1306_SETMULTIPLEX);                  // 0xA8
  70              		.loc 1 97 0
  71 0022 A820     		movs	r0, #168
  72 0024 FFF7FEFF 		bl	ssd1306_command
  98:ssd1306.c     **** 	ssd1306_command(SSD1306_LCDHEIGHT - 1);
  73              		.loc 1 98 0
ARM GAS  C:\Users\JEFFSN~1\AppData\Local\Temp\ccCJVR0p.s 			page 4


  74 0028 3F20     		movs	r0, #63
  75 002a FFF7FEFF 		bl	ssd1306_command
  99:ssd1306.c     **** 
 100:ssd1306.c     **** 	ssd1306_command(SSD1306_SETDISPLAYOFFSET);              // 0xD3
  76              		.loc 1 100 0
  77 002e D320     		movs	r0, #211
  78 0030 FFF7FEFF 		bl	ssd1306_command
 101:ssd1306.c     **** 	ssd1306_command(0x0);                                   // no offset
  79              		.loc 1 101 0
  80 0034 0020     		movs	r0, #0
  81 0036 FFF7FEFF 		bl	ssd1306_command
 102:ssd1306.c     **** 	ssd1306_command(SSD1306_SETSTARTLINE | 0x0);            // line #0
  82              		.loc 1 102 0
  83 003a 4020     		movs	r0, #64
  84 003c FFF7FEFF 		bl	ssd1306_command
 103:ssd1306.c     **** 	ssd1306_command(SSD1306_CHARGEPUMP);                    // 0x8D
  85              		.loc 1 103 0
  86 0040 8D20     		movs	r0, #141
  87 0042 FFF7FEFF 		bl	ssd1306_command
 104:ssd1306.c     **** 	if (vccstate == SSD1306_EXTERNALVCC)
  88              		.loc 1 104 0
  89 0046 FB79     		ldrb	r3, [r7, #7]	@ zero_extendqisi2
  90 0048 012B     		cmp	r3, #1
  91 004a 03D1     		bne	.L2
 105:ssd1306.c     **** 	{ ssd1306_command(0x10); }
  92              		.loc 1 105 0
  93 004c 1020     		movs	r0, #16
  94 004e FFF7FEFF 		bl	ssd1306_command
  95 0052 02E0     		b	.L3
  96              	.L2:
 106:ssd1306.c     **** 	else
 107:ssd1306.c     **** 	{ ssd1306_command(0x14); }
  97              		.loc 1 107 0
  98 0054 1420     		movs	r0, #20
  99 0056 FFF7FEFF 		bl	ssd1306_command
 100              	.L3:
 108:ssd1306.c     **** 	ssd1306_command(SSD1306_MEMORYMODE);                    // 0x20
 101              		.loc 1 108 0
 102 005a 2020     		movs	r0, #32
 103 005c FFF7FEFF 		bl	ssd1306_command
 109:ssd1306.c     **** 	ssd1306_command(0x00);                                  // 0x0 act like ks0108
 104              		.loc 1 109 0
 105 0060 0020     		movs	r0, #0
 106 0062 FFF7FEFF 		bl	ssd1306_command
 110:ssd1306.c     **** 	ssd1306_command(SSD1306_SEGREMAP | 0x1);
 107              		.loc 1 110 0
 108 0066 A120     		movs	r0, #161
 109 0068 FFF7FEFF 		bl	ssd1306_command
 111:ssd1306.c     **** 	ssd1306_command(SSD1306_COMSCANDEC);
 110              		.loc 1 111 0
 111 006c C820     		movs	r0, #200
 112 006e FFF7FEFF 		bl	ssd1306_command
 112:ssd1306.c     **** 
 113:ssd1306.c     **** 	#if defined SSD1306_128_32
 114:ssd1306.c     **** 	ssd1306_command(SSD1306_SETCOMPINS);                    // 0xDA
 115:ssd1306.c     **** 	ssd1306_command(0x02);
 116:ssd1306.c     **** 	ssd1306_command(SSD1306_SETCONTRAST);                   // 0x81
ARM GAS  C:\Users\JEFFSN~1\AppData\Local\Temp\ccCJVR0p.s 			page 5


 117:ssd1306.c     **** 	ssd1306_command(0x8F);
 118:ssd1306.c     **** 
 119:ssd1306.c     **** 	#elif defined SSD1306_128_64
 120:ssd1306.c     **** 	ssd1306_command(SSD1306_SETCOMPINS);                    // 0xDA
 113              		.loc 1 120 0
 114 0072 DA20     		movs	r0, #218
 115 0074 FFF7FEFF 		bl	ssd1306_command
 121:ssd1306.c     **** 	ssd1306_command(0x12);
 116              		.loc 1 121 0
 117 0078 1220     		movs	r0, #18
 118 007a FFF7FEFF 		bl	ssd1306_command
 122:ssd1306.c     **** 	ssd1306_command(SSD1306_SETCONTRAST);                   // 0x81
 119              		.loc 1 122 0
 120 007e 8120     		movs	r0, #129
 121 0080 FFF7FEFF 		bl	ssd1306_command
 123:ssd1306.c     **** 	if (vccstate == SSD1306_EXTERNALVCC)
 122              		.loc 1 123 0
 123 0084 FB79     		ldrb	r3, [r7, #7]	@ zero_extendqisi2
 124 0086 012B     		cmp	r3, #1
 125 0088 03D1     		bne	.L4
 124:ssd1306.c     **** 	{ ssd1306_command(0x9F); }
 126              		.loc 1 124 0
 127 008a 9F20     		movs	r0, #159
 128 008c FFF7FEFF 		bl	ssd1306_command
 129 0090 02E0     		b	.L5
 130              	.L4:
 125:ssd1306.c     **** 	else
 126:ssd1306.c     **** 	{ ssd1306_command(0xCF); }
 131              		.loc 1 126 0
 132 0092 CF20     		movs	r0, #207
 133 0094 FFF7FEFF 		bl	ssd1306_command
 134              	.L5:
 127:ssd1306.c     **** 
 128:ssd1306.c     **** 	#elif defined SSD1306_96_16
 129:ssd1306.c     **** 	ssd1306_command(SSD1306_SETCOMPINS);                    // 0xDA
 130:ssd1306.c     **** 	ssd1306_command(0x2);   //ada x12
 131:ssd1306.c     **** 	ssd1306_command(SSD1306_SETCONTRAST);                   // 0x81
 132:ssd1306.c     **** 	if (vccstate == SSD1306_EXTERNALVCC)
 133:ssd1306.c     **** 	{ ssd1306_command(0x10); }
 134:ssd1306.c     **** 	else
 135:ssd1306.c     **** 	{ ssd1306_command(0xAF); }
 136:ssd1306.c     **** 
 137:ssd1306.c     **** 	#endif
 138:ssd1306.c     **** 
 139:ssd1306.c     **** 	ssd1306_command(SSD1306_SETPRECHARGE);                  // 0xd9
 135              		.loc 1 139 0
 136 0098 D920     		movs	r0, #217
 137 009a FFF7FEFF 		bl	ssd1306_command
 140:ssd1306.c     **** 	if (vccstate == SSD1306_EXTERNALVCC)
 138              		.loc 1 140 0
 139 009e FB79     		ldrb	r3, [r7, #7]	@ zero_extendqisi2
 140 00a0 012B     		cmp	r3, #1
 141 00a2 03D1     		bne	.L6
 141:ssd1306.c     **** 	{ ssd1306_command(0x22); }
 142              		.loc 1 141 0
 143 00a4 2220     		movs	r0, #34
 144 00a6 FFF7FEFF 		bl	ssd1306_command
ARM GAS  C:\Users\JEFFSN~1\AppData\Local\Temp\ccCJVR0p.s 			page 6


 145 00aa 02E0     		b	.L7
 146              	.L6:
 142:ssd1306.c     **** 	else
 143:ssd1306.c     **** 	{ ssd1306_command(0xF1); }
 147              		.loc 1 143 0
 148 00ac F120     		movs	r0, #241
 149 00ae FFF7FEFF 		bl	ssd1306_command
 150              	.L7:
 144:ssd1306.c     **** 	ssd1306_command(SSD1306_SETVCOMDETECT);                 // 0xDB
 151              		.loc 1 144 0
 152 00b2 DB20     		movs	r0, #219
 153 00b4 FFF7FEFF 		bl	ssd1306_command
 145:ssd1306.c     **** 	ssd1306_command(0x40);
 154              		.loc 1 145 0
 155 00b8 4020     		movs	r0, #64
 156 00ba FFF7FEFF 		bl	ssd1306_command
 146:ssd1306.c     **** 	ssd1306_command(SSD1306_DISPLAYALLON_RESUME);           // 0xA4
 157              		.loc 1 146 0
 158 00be A420     		movs	r0, #164
 159 00c0 FFF7FEFF 		bl	ssd1306_command
 147:ssd1306.c     **** 	ssd1306_command(SSD1306_NORMALDISPLAY);                 // 0xA6
 160              		.loc 1 147 0
 161 00c4 A620     		movs	r0, #166
 162 00c6 FFF7FEFF 		bl	ssd1306_command
 148:ssd1306.c     **** 
 149:ssd1306.c     **** 	ssd1306_command(SSD1306_DEACTIVATE_SCROLL);
 163              		.loc 1 149 0
 164 00ca 2E20     		movs	r0, #46
 165 00cc FFF7FEFF 		bl	ssd1306_command
 150:ssd1306.c     **** 
 151:ssd1306.c     **** 	ssd1306_command(SSD1306_DISPLAYON);//--turn on oled panel
 166              		.loc 1 151 0
 167 00d0 AF20     		movs	r0, #175
 168 00d2 FFF7FEFF 		bl	ssd1306_command
 152:ssd1306.c     **** }
 169              		.loc 1 152 0
 170 00d6 00BF     		nop
 171 00d8 0837     		adds	r7, r7, #8
 172              		.cfi_def_cfa_offset 8
 173 00da BD46     		mov	sp, r7
 174              		.cfi_def_cfa_register 13
 175              		@ sp needed
 176 00dc 80BD     		pop	{r7, pc}
 177              	.L9:
 178 00de 00BF     		.align	2
 179              	.L8:
 180 00e0 00000000 		.word	OLED_externalVCC
 181              		.cfi_endproc
 182              	.LFE64:
 183              		.size	ssd1306_begin, .-ssd1306_begin
 184              		.section	.text.sdd1306_invertDisplay,"ax",%progbits
 185              		.align	2
 186              		.global	sdd1306_invertDisplay
 187              		.thumb
 188              		.thumb_func
 189              		.type	sdd1306_invertDisplay, %function
 190              	sdd1306_invertDisplay:
ARM GAS  C:\Users\JEFFSN~1\AppData\Local\Temp\ccCJVR0p.s 			page 7


 191              	.LFB65:
 153:ssd1306.c     **** 
 154:ssd1306.c     **** 
 155:ssd1306.c     **** void sdd1306_invertDisplay(uint8_t i) {
 192              		.loc 1 155 0
 193              		.cfi_startproc
 194              		@ args = 0, pretend = 0, frame = 8
 195              		@ frame_needed = 1, uses_anonymous_args = 0
 196 0000 80B5     		push	{r7, lr}
 197              		.cfi_def_cfa_offset 8
 198              		.cfi_offset 7, -8
 199              		.cfi_offset 14, -4
 200 0002 82B0     		sub	sp, sp, #8
 201              		.cfi_def_cfa_offset 16
 202 0004 00AF     		add	r7, sp, #0
 203              		.cfi_def_cfa_register 7
 204 0006 0346     		mov	r3, r0
 205 0008 FB71     		strb	r3, [r7, #7]
 156:ssd1306.c     ****   if (i) {
 206              		.loc 1 156 0
 207 000a FB79     		ldrb	r3, [r7, #7]	@ zero_extendqisi2
 208 000c 002B     		cmp	r3, #0
 209 000e 03D0     		beq	.L11
 157:ssd1306.c     ****     ssd1306_command(SSD1306_INVERTDISPLAY);
 210              		.loc 1 157 0
 211 0010 A720     		movs	r0, #167
 212 0012 FFF7FEFF 		bl	ssd1306_command
 158:ssd1306.c     ****   } else {
 159:ssd1306.c     ****     ssd1306_command(SSD1306_NORMALDISPLAY);
 160:ssd1306.c     ****   }
 161:ssd1306.c     **** }
 213              		.loc 1 161 0
 214 0016 02E0     		b	.L13
 215              	.L11:
 159:ssd1306.c     ****   }
 216              		.loc 1 159 0
 217 0018 A620     		movs	r0, #166
 218 001a FFF7FEFF 		bl	ssd1306_command
 219              	.L13:
 220              		.loc 1 161 0
 221 001e 00BF     		nop
 222 0020 0837     		adds	r7, r7, #8
 223              		.cfi_def_cfa_offset 8
 224 0022 BD46     		mov	sp, r7
 225              		.cfi_def_cfa_register 13
 226              		@ sp needed
 227 0024 80BD     		pop	{r7, pc}
 228              		.cfi_endproc
 229              	.LFE65:
 230              		.size	sdd1306_invertDisplay, .-sdd1306_invertDisplay
 231 0026 00BF     		.section	.text.ssd1306_command,"ax",%progbits
 232              		.align	2
 233              		.global	ssd1306_command
 234              		.thumb
 235              		.thumb_func
 236              		.type	ssd1306_command, %function
 237              	ssd1306_command:
ARM GAS  C:\Users\JEFFSN~1\AppData\Local\Temp\ccCJVR0p.s 			page 8


 238              	.LFB66:
 162:ssd1306.c     **** 
 163:ssd1306.c     **** void ssd1306_command(uint8_t c) {
 239              		.loc 1 163 0
 240              		.cfi_startproc
 241              		@ args = 0, pretend = 0, frame = 16
 242              		@ frame_needed = 1, uses_anonymous_args = 0
 243 0000 80B5     		push	{r7, lr}
 244              		.cfi_def_cfa_offset 8
 245              		.cfi_offset 7, -8
 246              		.cfi_offset 14, -4
 247 0002 84B0     		sub	sp, sp, #16
 248              		.cfi_def_cfa_offset 24
 249 0004 00AF     		add	r7, sp, #0
 250              		.cfi_def_cfa_register 7
 251 0006 0346     		mov	r3, r0
 252 0008 FB71     		strb	r3, [r7, #7]
 164:ssd1306.c     **** 	// I2C
 165:ssd1306.c     **** 	//	uint8_t control = 0x00;   // Co = 0, D/C = 0
 166:ssd1306.c     **** 
 167:ssd1306.c     **** 	uint8_t i2c_message[2] = {0,0};
 253              		.loc 1 167 0
 254 000a 0023     		movs	r3, #0
 255 000c 3B73     		strb	r3, [r7, #12]
 256 000e 0023     		movs	r3, #0
 257 0010 7B73     		strb	r3, [r7, #13]
 168:ssd1306.c     **** 	I2Cbuff1[0] = 0x0;
 258              		.loc 1 168 0
 259 0012 074B     		ldr	r3, .L15
 260 0014 0022     		movs	r2, #0
 261 0016 1A70     		strb	r2, [r3]
 169:ssd1306.c     ****     I2Cbuff1[1] = c;
 262              		.loc 1 169 0
 263 0018 054A     		ldr	r2, .L15
 264 001a FB79     		ldrb	r3, [r7, #7]
 265 001c 5370     		strb	r3, [r2, #1]
 170:ssd1306.c     **** 	I2C_MasterWriteBlocking(SSD1306_I2C_ADDRESS, 2, I2C_1_MODE_COMPLETE_XFER);
 266              		.loc 1 170 0
 267 001e 0022     		movs	r2, #0
 268 0020 0221     		movs	r1, #2
 269 0022 3C20     		movs	r0, #60
 270 0024 FFF7FEFF 		bl	I2C_MasterWriteBlocking
 171:ssd1306.c     **** }
 271              		.loc 1 171 0
 272 0028 00BF     		nop
 273 002a 1037     		adds	r7, r7, #16
 274              		.cfi_def_cfa_offset 8
 275 002c BD46     		mov	sp, r7
 276              		.cfi_def_cfa_register 13
 277              		@ sp needed
 278 002e 80BD     		pop	{r7, pc}
 279              	.L16:
 280              		.align	2
 281              	.L15:
 282 0030 00000000 		.word	I2Cbuff1
 283              		.cfi_endproc
 284              	.LFE66:
ARM GAS  C:\Users\JEFFSN~1\AppData\Local\Temp\ccCJVR0p.s 			page 9


 285              		.size	ssd1306_command, .-ssd1306_command
 286              		.section	.text.ssd1306_dim,"ax",%progbits
 287              		.align	2
 288              		.global	ssd1306_dim
 289              		.thumb
 290              		.thumb_func
 291              		.type	ssd1306_dim, %function
 292              	ssd1306_dim:
 293              	.LFB67:
 172:ssd1306.c     **** 
 173:ssd1306.c     **** 
 174:ssd1306.c     **** // Dim the display
 175:ssd1306.c     **** // dim = true: display is dimmed
 176:ssd1306.c     **** // dim = false: display is normal
 177:ssd1306.c     **** void ssd1306_dim(uint8_t dim) {
 294              		.loc 1 177 0
 295              		.cfi_startproc
 296              		@ args = 0, pretend = 0, frame = 16
 297              		@ frame_needed = 1, uses_anonymous_args = 0
 298 0000 80B5     		push	{r7, lr}
 299              		.cfi_def_cfa_offset 8
 300              		.cfi_offset 7, -8
 301              		.cfi_offset 14, -4
 302 0002 84B0     		sub	sp, sp, #16
 303              		.cfi_def_cfa_offset 24
 304 0004 00AF     		add	r7, sp, #0
 305              		.cfi_def_cfa_register 7
 306 0006 0346     		mov	r3, r0
 307 0008 FB71     		strb	r3, [r7, #7]
 178:ssd1306.c     ****   uint8_t contrast;
 179:ssd1306.c     **** 
 180:ssd1306.c     ****   if (dim) {
 308              		.loc 1 180 0
 309 000a FB79     		ldrb	r3, [r7, #7]	@ zero_extendqisi2
 310 000c 002B     		cmp	r3, #0
 311 000e 02D0     		beq	.L18
 181:ssd1306.c     ****     contrast = 0; // Dimmed display
 312              		.loc 1 181 0
 313 0010 0023     		movs	r3, #0
 314 0012 FB73     		strb	r3, [r7, #15]
 315 0014 08E0     		b	.L19
 316              	.L18:
 182:ssd1306.c     ****   } else {
 183:ssd1306.c     ****     if (OLED_externalVCC == SSD1306_EXTERNALVCC) {
 317              		.loc 1 183 0
 318 0016 0A4B     		ldr	r3, .L21
 319 0018 1B78     		ldrb	r3, [r3]	@ zero_extendqisi2
 320 001a 012B     		cmp	r3, #1
 321 001c 02D1     		bne	.L20
 184:ssd1306.c     ****       contrast = 0x9F;
 322              		.loc 1 184 0
 323 001e 9F23     		movs	r3, #159
 324 0020 FB73     		strb	r3, [r7, #15]
 325 0022 01E0     		b	.L19
 326              	.L20:
 185:ssd1306.c     ****     } else {
 186:ssd1306.c     ****       contrast = 0xCF;
ARM GAS  C:\Users\JEFFSN~1\AppData\Local\Temp\ccCJVR0p.s 			page 10


 327              		.loc 1 186 0
 328 0024 CF23     		movs	r3, #207
 329 0026 FB73     		strb	r3, [r7, #15]
 330              	.L19:
 187:ssd1306.c     ****     }
 188:ssd1306.c     ****   }
 189:ssd1306.c     ****   // the range of contrast to too small to be really useful
 190:ssd1306.c     ****   // it is useful to dim the display
 191:ssd1306.c     ****   ssd1306_command(SSD1306_SETCONTRAST);
 331              		.loc 1 191 0
 332 0028 8120     		movs	r0, #129
 333 002a FFF7FEFF 		bl	ssd1306_command
 192:ssd1306.c     ****   ssd1306_command(contrast);
 334              		.loc 1 192 0
 335 002e FB7B     		ldrb	r3, [r7, #15]	@ zero_extendqisi2
 336 0030 1846     		mov	r0, r3
 337 0032 FFF7FEFF 		bl	ssd1306_command
 193:ssd1306.c     **** }
 338              		.loc 1 193 0
 339 0036 00BF     		nop
 340 0038 1037     		adds	r7, r7, #16
 341              		.cfi_def_cfa_offset 8
 342 003a BD46     		mov	sp, r7
 343              		.cfi_def_cfa_register 13
 344              		@ sp needed
 345 003c 80BD     		pop	{r7, pc}
 346              	.L22:
 347 003e 00BF     		.align	2
 348              	.L21:
 349 0040 00000000 		.word	OLED_externalVCC
 350              		.cfi_endproc
 351              	.LFE67:
 352              		.size	ssd1306_dim, .-ssd1306_dim
 353              		.section	.text.ssd1306_display_full_buffer,"ax",%progbits
 354              		.align	2
 355              		.global	ssd1306_display_full_buffer
 356              		.thumb
 357              		.thumb_func
 358              		.type	ssd1306_display_full_buffer, %function
 359              	ssd1306_display_full_buffer:
 360              	.LFB68:
 194:ssd1306.c     **** 
 195:ssd1306.c     **** 
 196:ssd1306.c     **** 
 197:ssd1306.c     **** void ssd1306_display_full_buffer(void) {
 361              		.loc 1 197 0
 362              		.cfi_startproc
 363              		@ args = 0, pretend = 0, frame = 16
 364              		@ frame_needed = 1, uses_anonymous_args = 0
 365 0000 80B5     		push	{r7, lr}
 366              		.cfi_def_cfa_offset 8
 367              		.cfi_offset 7, -8
 368              		.cfi_offset 14, -4
 369 0002 84B0     		sub	sp, sp, #16
 370              		.cfi_def_cfa_offset 24
 371 0004 00AF     		add	r7, sp, #0
 372              		.cfi_def_cfa_register 7
ARM GAS  C:\Users\JEFFSN~1\AppData\Local\Temp\ccCJVR0p.s 			page 11


 198:ssd1306.c     **** 
 199:ssd1306.c     **** 	ssd1306_home();
 373              		.loc 1 199 0
 374 0006 FFF7FEFF 		bl	ssd1306_home
 200:ssd1306.c     **** 
 201:ssd1306.c     **** //	for (int i = 0; i < 512; i++)
 202:ssd1306.c     **** //	{
 203:ssd1306.c     **** //		displayBufferChunk[0] = 0x40;
 204:ssd1306.c     **** //		for (int x = 0; x < 16; x++)
 205:ssd1306.c     **** //		{
 206:ssd1306.c     **** //			displayBufferChunk[x+1] = buffer[i];
 207:ssd1306.c     **** //			i++;
 208:ssd1306.c     **** //		}
 209:ssd1306.c     **** //		HAL_I2C_Master_Transmit_DMA(OLED_i2c_handle, OLED_i2c_address, displayBufferChunk, 17);
 210:ssd1306.c     **** ////		HAL_I2C_Master_Transmit(OLED_i2c_handle, OLED_i2c_address, displayBufferChunk, 17, 2000);
 211:ssd1306.c     **** ////		HAL_Delay(1);
 212:ssd1306.c     **** //		i--;
 213:ssd1306.c     **** //	}
 214:ssd1306.c     ****     
 215:ssd1306.c     ****      ssd1306_command(SSD1306_SETLOWCOLUMN | 0x0);  // low col = 0
 375              		.loc 1 215 0
 376 000a 0020     		movs	r0, #0
 377 000c FFF7FEFF 		bl	ssd1306_command
 216:ssd1306.c     ****     ssd1306_command(SSD1306_SETHIGHCOLUMN | 0x0);  // hi col = 0
 378              		.loc 1 216 0
 379 0010 1020     		movs	r0, #16
 380 0012 FFF7FEFF 		bl	ssd1306_command
 217:ssd1306.c     ****     ssd1306_command(SSD1306_SETSTARTLINE | 0x0); // line #0
 381              		.loc 1 217 0
 382 0016 4020     		movs	r0, #64
 383 0018 FFF7FEFF 		bl	ssd1306_command
 218:ssd1306.c     **** 	
 219:ssd1306.c     ****   
 220:ssd1306.c     **** 
 221:ssd1306.c     **** 
 222:ssd1306.c     ****     //Serial.println(TWBR, DEC);
 223:ssd1306.c     ****     //Serial.println(TWSR & 0x3, DEC);
 224:ssd1306.c     **** 
 225:ssd1306.c     ****     // I2C
 226:ssd1306.c     ****     //height >>= 3;
 227:ssd1306.c     ****     //width >>= 3;
 228:ssd1306.c     **** 	unsigned char height=64;
 384              		.loc 1 228 0
 385 001c 4023     		movs	r3, #64
 386 001e FB71     		strb	r3, [r7, #7]
 229:ssd1306.c     **** 	unsigned char width=132; 
 387              		.loc 1 229 0
 388 0020 8423     		movs	r3, #132
 389 0022 BB71     		strb	r3, [r7, #6]
 230:ssd1306.c     **** 	unsigned char m_row = 0;
 390              		.loc 1 230 0
 391 0024 0023     		movs	r3, #0
 392 0026 7B71     		strb	r3, [r7, #5]
 231:ssd1306.c     **** 	unsigned char m_col = 2;
 393              		.loc 1 231 0
 394 0028 0223     		movs	r3, #2
 395 002a 3B71     		strb	r3, [r7, #4]
ARM GAS  C:\Users\JEFFSN~1\AppData\Local\Temp\ccCJVR0p.s 			page 12


 232:ssd1306.c     **** 	
 233:ssd1306.c     **** 	
 234:ssd1306.c     **** 	height >>= 3;
 396              		.loc 1 234 0
 397 002c FB79     		ldrb	r3, [r7, #7]	@ zero_extendqisi2
 398 002e DB08     		lsrs	r3, r3, #3
 399 0030 FB71     		strb	r3, [r7, #7]
 235:ssd1306.c     **** 	width >>= 3;
 400              		.loc 1 235 0
 401 0032 BB79     		ldrb	r3, [r7, #6]	@ zero_extendqisi2
 402 0034 DB08     		lsrs	r3, r3, #3
 403 0036 BB71     		strb	r3, [r7, #6]
 236:ssd1306.c     **** 	//Serial.println(width);
 237:ssd1306.c     **** 	
 238:ssd1306.c     **** 	int p = 0;
 404              		.loc 1 238 0
 405 0038 0023     		movs	r3, #0
 406 003a 3B60     		str	r3, [r7]
 239:ssd1306.c     **** 	
 240:ssd1306.c     **** 	unsigned char i, j, k =0;
 407              		.loc 1 240 0
 408 003c 0023     		movs	r3, #0
 409 003e 7B73     		strb	r3, [r7, #13]
 241:ssd1306.c     **** 
 242:ssd1306.c     **** 	
 243:ssd1306.c     **** 	for ( i = 0; i < height; i++) 
 410              		.loc 1 243 0
 411 0040 0023     		movs	r3, #0
 412 0042 FB73     		strb	r3, [r7, #15]
 413 0044 49E0     		b	.L24
 414              	.L29:
 244:ssd1306.c     ****     {
 245:ssd1306.c     **** 		
 246:ssd1306.c     **** 		// send a bunch of data in one xmission
 247:ssd1306.c     ****         ssd1306_command(0xB0 + i + m_row);//set page address
 415              		.loc 1 247 0
 416 0046 FA7B     		ldrb	r2, [r7, #15]
 417 0048 7B79     		ldrb	r3, [r7, #5]
 418 004a 1344     		add	r3, r3, r2
 419 004c DBB2     		uxtb	r3, r3
 420 004e 503B     		subs	r3, r3, #80
 421 0050 DBB2     		uxtb	r3, r3
 422 0052 1846     		mov	r0, r3
 423 0054 FFF7FEFF 		bl	ssd1306_command
 248:ssd1306.c     ****         ssd1306_command(m_col & 0xf);//set lower column address
 424              		.loc 1 248 0
 425 0058 3B79     		ldrb	r3, [r7, #4]
 426 005a 03F00F03 		and	r3, r3, #15
 427 005e DBB2     		uxtb	r3, r3
 428 0060 1846     		mov	r0, r3
 429 0062 FFF7FEFF 		bl	ssd1306_command
 249:ssd1306.c     ****         ssd1306_command(0x10 | (m_col >> 4));//set higher column address
 430              		.loc 1 249 0
 431 0066 3B79     		ldrb	r3, [r7, #4]	@ zero_extendqisi2
 432 0068 1B09     		lsrs	r3, r3, #4
 433 006a DBB2     		uxtb	r3, r3
 434 006c 43F01003 		orr	r3, r3, #16
ARM GAS  C:\Users\JEFFSN~1\AppData\Local\Temp\ccCJVR0p.s 			page 13


 435 0070 DBB2     		uxtb	r3, r3
 436 0072 1846     		mov	r0, r3
 437 0074 FFF7FEFF 		bl	ssd1306_command
 250:ssd1306.c     **** 		
 251:ssd1306.c     ****         
 252:ssd1306.c     ****         I2Cbuff1[0] = 0x40;
 438              		.loc 1 252 0
 439 0078 1C4B     		ldr	r3, .L30
 440 007a 4022     		movs	r2, #64
 441 007c 1A70     		strb	r2, [r3]
 253:ssd1306.c     **** 
 254:ssd1306.c     ****         
 255:ssd1306.c     **** 
 256:ssd1306.c     ****         for( j = 0; j < 8; j++)
 442              		.loc 1 256 0
 443 007e 0023     		movs	r3, #0
 444 0080 BB73     		strb	r3, [r7, #14]
 445 0082 24E0     		b	.L25
 446              	.L28:
 447              	.LBB2:
 257:ssd1306.c     ****         {      
 258:ssd1306.c     **** 
 259:ssd1306.c     ****             for (int b = 0; b < width; b++)
 448              		.loc 1 259 0
 449 0084 0023     		movs	r3, #0
 450 0086 BB60     		str	r3, [r7, #8]
 451 0088 0EE0     		b	.L26
 452              	.L27:
 260:ssd1306.c     **** 	        {
 261:ssd1306.c     **** 		        I2Cbuff1[b+1] = buffer[b + (width*k)];
 453              		.loc 1 261 0 discriminator 3
 454 008a BB68     		ldr	r3, [r7, #8]
 455 008c 0133     		adds	r3, r3, #1
 456 008e BA79     		ldrb	r2, [r7, #6]	@ zero_extendqisi2
 457 0090 797B     		ldrb	r1, [r7, #13]	@ zero_extendqisi2
 458 0092 01FB02F1 		mul	r1, r1, r2
 459 0096 BA68     		ldr	r2, [r7, #8]
 460 0098 0A44     		add	r2, r2, r1
 461 009a 1549     		ldr	r1, .L30+4
 462 009c 895C     		ldrb	r1, [r1, r2]	@ zero_extendqisi2
 463 009e 134A     		ldr	r2, .L30
 464 00a0 D154     		strb	r1, [r2, r3]
 259:ssd1306.c     **** 	        {
 465              		.loc 1 259 0 discriminator 3
 466 00a2 BB68     		ldr	r3, [r7, #8]
 467 00a4 0133     		adds	r3, r3, #1
 468 00a6 BB60     		str	r3, [r7, #8]
 469              	.L26:
 259:ssd1306.c     **** 	        {
 470              		.loc 1 259 0 is_stmt 0 discriminator 1
 471 00a8 BA79     		ldrb	r2, [r7, #6]	@ zero_extendqisi2
 472 00aa BB68     		ldr	r3, [r7, #8]
 473 00ac 9A42     		cmp	r2, r3
 474 00ae ECDC     		bgt	.L27
 475              	.LBE2:
 262:ssd1306.c     **** 	        }
 263:ssd1306.c     ****             k++;
ARM GAS  C:\Users\JEFFSN~1\AppData\Local\Temp\ccCJVR0p.s 			page 14


 476              		.loc 1 263 0 is_stmt 1 discriminator 2
 477 00b0 7B7B     		ldrb	r3, [r7, #13]	@ zero_extendqisi2
 478 00b2 0133     		adds	r3, r3, #1
 479 00b4 7B73     		strb	r3, [r7, #13]
 264:ssd1306.c     ****             I2C_MasterWriteBlocking(SSD1306_I2C_ADDRESS, width+1, I2C_1_MODE_COMPLETE_XFER);
 480              		.loc 1 264 0 discriminator 2
 481 00b6 BB79     		ldrb	r3, [r7, #6]	@ zero_extendqisi2
 482 00b8 9BB2     		uxth	r3, r3
 483 00ba 0133     		adds	r3, r3, #1
 484 00bc 9BB2     		uxth	r3, r3
 485 00be 0022     		movs	r2, #0
 486 00c0 1946     		mov	r1, r3
 487 00c2 3C20     		movs	r0, #60
 488 00c4 FFF7FEFF 		bl	I2C_MasterWriteBlocking
 256:ssd1306.c     ****         {      
 489              		.loc 1 256 0 discriminator 2
 490 00c8 BB7B     		ldrb	r3, [r7, #14]	@ zero_extendqisi2
 491 00ca 0133     		adds	r3, r3, #1
 492 00cc BB73     		strb	r3, [r7, #14]
 493              	.L25:
 256:ssd1306.c     ****         {      
 494              		.loc 1 256 0 is_stmt 0 discriminator 1
 495 00ce BB7B     		ldrb	r3, [r7, #14]	@ zero_extendqisi2
 496 00d0 072B     		cmp	r3, #7
 497 00d2 D7D9     		bls	.L28
 243:ssd1306.c     ****     {
 498              		.loc 1 243 0 is_stmt 1 discriminator 2
 499 00d4 FB7B     		ldrb	r3, [r7, #15]	@ zero_extendqisi2
 500 00d6 0133     		adds	r3, r3, #1
 501 00d8 FB73     		strb	r3, [r7, #15]
 502              	.L24:
 243:ssd1306.c     ****     {
 503              		.loc 1 243 0 is_stmt 0 discriminator 1
 504 00da FA7B     		ldrb	r2, [r7, #15]	@ zero_extendqisi2
 505 00dc FB79     		ldrb	r3, [r7, #7]	@ zero_extendqisi2
 506 00de 9A42     		cmp	r2, r3
 507 00e0 B1D3     		bcc	.L29
 265:ssd1306.c     ****         }
 266:ssd1306.c     **** 	}
 267:ssd1306.c     **** 	
 268:ssd1306.c     **** 
 269:ssd1306.c     ****     
 270:ssd1306.c     ****     
 271:ssd1306.c     ****     
 272:ssd1306.c     ****     
 273:ssd1306.c     ****     ////
 274:ssd1306.c     ****     
 275:ssd1306.c     ****    
 276:ssd1306.c     **** 	//HAL_I2C_Master_Transmit_DMA(OLED_i2c_handle, OLED_i2c_address, displayBufferChunk, 513);
 277:ssd1306.c     **** }
 508              		.loc 1 277 0 is_stmt 1
 509 00e2 00BF     		nop
 510 00e4 1037     		adds	r7, r7, #16
 511              		.cfi_def_cfa_offset 8
 512 00e6 BD46     		mov	sp, r7
 513              		.cfi_def_cfa_register 13
 514              		@ sp needed
ARM GAS  C:\Users\JEFFSN~1\AppData\Local\Temp\ccCJVR0p.s 			page 15


 515 00e8 80BD     		pop	{r7, pc}
 516              	.L31:
 517 00ea 00BF     		.align	2
 518              	.L30:
 519 00ec 00000000 		.word	I2Cbuff1
 520 00f0 00000000 		.word	buffer
 521              		.cfi_endproc
 522              	.LFE68:
 523              		.size	ssd1306_display_full_buffer, .-ssd1306_display_full_buffer
 524              		.section	.text.ssd1306_display_first_line,"ax",%progbits
 525              		.align	2
 526              		.global	ssd1306_display_first_line
 527              		.thumb
 528              		.thumb_func
 529              		.type	ssd1306_display_first_line, %function
 530              	ssd1306_display_first_line:
 531              	.LFB69:
 278:ssd1306.c     **** 
 279:ssd1306.c     **** void ssd1306_display_first_line(void) {
 532              		.loc 1 279 0
 533              		.cfi_startproc
 534              		@ args = 0, pretend = 0, frame = 16
 535              		@ frame_needed = 1, uses_anonymous_args = 0
 536 0000 80B5     		push	{r7, lr}
 537              		.cfi_def_cfa_offset 8
 538              		.cfi_offset 7, -8
 539              		.cfi_offset 14, -4
 540 0002 84B0     		sub	sp, sp, #16
 541              		.cfi_def_cfa_offset 24
 542 0004 00AF     		add	r7, sp, #0
 543              		.cfi_def_cfa_register 7
 280:ssd1306.c     **** 
 281:ssd1306.c     **** 	ssd1306_home();
 544              		.loc 1 281 0
 545 0006 FFF7FEFF 		bl	ssd1306_home
 282:ssd1306.c     **** 
 283:ssd1306.c     **** //	for (int i = 0; i < 512; i++)
 284:ssd1306.c     **** //	{
 285:ssd1306.c     **** //		displayBufferChunk[0] = 0x40;
 286:ssd1306.c     **** //		for (int x = 0; x < 16; x++)
 287:ssd1306.c     **** //		{
 288:ssd1306.c     **** //			displayBufferChunk[x+1] = buffer[i];
 289:ssd1306.c     **** //			i++;
 290:ssd1306.c     **** //		}
 291:ssd1306.c     **** //		HAL_I2C_Master_Transmit_DMA(OLED_i2c_handle, OLED_i2c_address, displayBufferChunk, 17);
 292:ssd1306.c     **** ////		HAL_I2C_Master_Transmit(OLED_i2c_handle, OLED_i2c_address, displayBufferChunk, 17, 2000);
 293:ssd1306.c     **** ////		HAL_Delay(1);
 294:ssd1306.c     **** //		i--;
 295:ssd1306.c     **** //	}
 296:ssd1306.c     ****     
 297:ssd1306.c     ****      ssd1306_command(SSD1306_SETLOWCOLUMN | 0x0);  // low col = 0
 546              		.loc 1 297 0
 547 000a 0020     		movs	r0, #0
 548 000c FFF7FEFF 		bl	ssd1306_command
 298:ssd1306.c     ****     ssd1306_command(SSD1306_SETHIGHCOLUMN | 0x0);  // hi col = 0
 549              		.loc 1 298 0
 550 0010 1020     		movs	r0, #16
ARM GAS  C:\Users\JEFFSN~1\AppData\Local\Temp\ccCJVR0p.s 			page 16


 551 0012 FFF7FEFF 		bl	ssd1306_command
 299:ssd1306.c     ****     ssd1306_command(SSD1306_SETSTARTLINE | 0x0); // line #0
 552              		.loc 1 299 0
 553 0016 4020     		movs	r0, #64
 554 0018 FFF7FEFF 		bl	ssd1306_command
 300:ssd1306.c     **** 	
 301:ssd1306.c     ****   
 302:ssd1306.c     **** 
 303:ssd1306.c     **** 
 304:ssd1306.c     ****     //Serial.println(TWBR, DEC);
 305:ssd1306.c     ****     //Serial.println(TWSR & 0x3, DEC);
 306:ssd1306.c     **** 
 307:ssd1306.c     ****     // I2C
 308:ssd1306.c     ****     //height >>= 3;
 309:ssd1306.c     ****     //width >>= 3;
 310:ssd1306.c     **** 	unsigned char height=16;
 555              		.loc 1 310 0
 556 001c 1023     		movs	r3, #16
 557 001e FB71     		strb	r3, [r7, #7]
 311:ssd1306.c     **** 	unsigned char width=132; 
 558              		.loc 1 311 0
 559 0020 8423     		movs	r3, #132
 560 0022 BB71     		strb	r3, [r7, #6]
 312:ssd1306.c     **** 	unsigned char m_row = 0;
 561              		.loc 1 312 0
 562 0024 0023     		movs	r3, #0
 563 0026 7B71     		strb	r3, [r7, #5]
 313:ssd1306.c     **** 	unsigned char m_col = 2;
 564              		.loc 1 313 0
 565 0028 0223     		movs	r3, #2
 566 002a 3B71     		strb	r3, [r7, #4]
 314:ssd1306.c     **** 	
 315:ssd1306.c     **** 	
 316:ssd1306.c     **** 	height >>= 3;
 567              		.loc 1 316 0
 568 002c FB79     		ldrb	r3, [r7, #7]	@ zero_extendqisi2
 569 002e DB08     		lsrs	r3, r3, #3
 570 0030 FB71     		strb	r3, [r7, #7]
 317:ssd1306.c     **** 	width >>= 3;
 571              		.loc 1 317 0
 572 0032 BB79     		ldrb	r3, [r7, #6]	@ zero_extendqisi2
 573 0034 DB08     		lsrs	r3, r3, #3
 574 0036 BB71     		strb	r3, [r7, #6]
 318:ssd1306.c     **** 	//Serial.println(width);
 319:ssd1306.c     **** 	
 320:ssd1306.c     **** 	int p = 0;
 575              		.loc 1 320 0
 576 0038 0023     		movs	r3, #0
 577 003a 3B60     		str	r3, [r7]
 321:ssd1306.c     **** 	
 322:ssd1306.c     **** 	unsigned char i, j, k =0;
 578              		.loc 1 322 0
 579 003c 0023     		movs	r3, #0
 580 003e 7B73     		strb	r3, [r7, #13]
 323:ssd1306.c     **** 
 324:ssd1306.c     **** 	
 325:ssd1306.c     **** 	for ( i = 0; i < height; i++) 
ARM GAS  C:\Users\JEFFSN~1\AppData\Local\Temp\ccCJVR0p.s 			page 17


 581              		.loc 1 325 0
 582 0040 0023     		movs	r3, #0
 583 0042 FB73     		strb	r3, [r7, #15]
 584 0044 49E0     		b	.L33
 585              	.L38:
 326:ssd1306.c     ****     {
 327:ssd1306.c     **** 		
 328:ssd1306.c     **** 		// send a bunch of data in one xmission
 329:ssd1306.c     ****         ssd1306_command(0xB0 + i + m_row);//set page address
 586              		.loc 1 329 0
 587 0046 FA7B     		ldrb	r2, [r7, #15]
 588 0048 7B79     		ldrb	r3, [r7, #5]
 589 004a 1344     		add	r3, r3, r2
 590 004c DBB2     		uxtb	r3, r3
 591 004e 503B     		subs	r3, r3, #80
 592 0050 DBB2     		uxtb	r3, r3
 593 0052 1846     		mov	r0, r3
 594 0054 FFF7FEFF 		bl	ssd1306_command
 330:ssd1306.c     ****         ssd1306_command(m_col & 0xf);//set lower column address
 595              		.loc 1 330 0
 596 0058 3B79     		ldrb	r3, [r7, #4]
 597 005a 03F00F03 		and	r3, r3, #15
 598 005e DBB2     		uxtb	r3, r3
 599 0060 1846     		mov	r0, r3
 600 0062 FFF7FEFF 		bl	ssd1306_command
 331:ssd1306.c     ****         ssd1306_command(0x10 | (m_col >> 4));//set higher column address
 601              		.loc 1 331 0
 602 0066 3B79     		ldrb	r3, [r7, #4]	@ zero_extendqisi2
 603 0068 1B09     		lsrs	r3, r3, #4
 604 006a DBB2     		uxtb	r3, r3
 605 006c 43F01003 		orr	r3, r3, #16
 606 0070 DBB2     		uxtb	r3, r3
 607 0072 1846     		mov	r0, r3
 608 0074 FFF7FEFF 		bl	ssd1306_command
 332:ssd1306.c     **** 		
 333:ssd1306.c     ****         
 334:ssd1306.c     ****         I2Cbuff1[0] = 0x40;
 609              		.loc 1 334 0
 610 0078 1C4B     		ldr	r3, .L39
 611 007a 4022     		movs	r2, #64
 612 007c 1A70     		strb	r2, [r3]
 335:ssd1306.c     **** 
 336:ssd1306.c     ****         
 337:ssd1306.c     **** 
 338:ssd1306.c     ****         for( j = 0; j < 8; j++)
 613              		.loc 1 338 0
 614 007e 0023     		movs	r3, #0
 615 0080 BB73     		strb	r3, [r7, #14]
 616 0082 24E0     		b	.L34
 617              	.L37:
 618              	.LBB3:
 339:ssd1306.c     ****         {      
 340:ssd1306.c     **** 
 341:ssd1306.c     ****             for (int b = 0; b < width; b++)
 619              		.loc 1 341 0
 620 0084 0023     		movs	r3, #0
 621 0086 BB60     		str	r3, [r7, #8]
ARM GAS  C:\Users\JEFFSN~1\AppData\Local\Temp\ccCJVR0p.s 			page 18


 622 0088 0EE0     		b	.L35
 623              	.L36:
 342:ssd1306.c     **** 	        {
 343:ssd1306.c     **** 		        I2Cbuff1[b+1] = buffer[b + (width*k)];
 624              		.loc 1 343 0 discriminator 3
 625 008a BB68     		ldr	r3, [r7, #8]
 626 008c 0133     		adds	r3, r3, #1
 627 008e BA79     		ldrb	r2, [r7, #6]	@ zero_extendqisi2
 628 0090 797B     		ldrb	r1, [r7, #13]	@ zero_extendqisi2
 629 0092 01FB02F1 		mul	r1, r1, r2
 630 0096 BA68     		ldr	r2, [r7, #8]
 631 0098 0A44     		add	r2, r2, r1
 632 009a 1549     		ldr	r1, .L39+4
 633 009c 895C     		ldrb	r1, [r1, r2]	@ zero_extendqisi2
 634 009e 134A     		ldr	r2, .L39
 635 00a0 D154     		strb	r1, [r2, r3]
 341:ssd1306.c     **** 	        {
 636              		.loc 1 341 0 discriminator 3
 637 00a2 BB68     		ldr	r3, [r7, #8]
 638 00a4 0133     		adds	r3, r3, #1
 639 00a6 BB60     		str	r3, [r7, #8]
 640              	.L35:
 341:ssd1306.c     **** 	        {
 641              		.loc 1 341 0 is_stmt 0 discriminator 1
 642 00a8 BA79     		ldrb	r2, [r7, #6]	@ zero_extendqisi2
 643 00aa BB68     		ldr	r3, [r7, #8]
 644 00ac 9A42     		cmp	r2, r3
 645 00ae ECDC     		bgt	.L36
 646              	.LBE3:
 344:ssd1306.c     **** 	        }
 345:ssd1306.c     ****             k++;
 647              		.loc 1 345 0 is_stmt 1 discriminator 2
 648 00b0 7B7B     		ldrb	r3, [r7, #13]	@ zero_extendqisi2
 649 00b2 0133     		adds	r3, r3, #1
 650 00b4 7B73     		strb	r3, [r7, #13]
 346:ssd1306.c     ****             I2C_MasterWriteBlocking(SSD1306_I2C_ADDRESS, width+1, I2C_1_MODE_COMPLETE_XFER);
 651              		.loc 1 346 0 discriminator 2
 652 00b6 BB79     		ldrb	r3, [r7, #6]	@ zero_extendqisi2
 653 00b8 9BB2     		uxth	r3, r3
 654 00ba 0133     		adds	r3, r3, #1
 655 00bc 9BB2     		uxth	r3, r3
 656 00be 0022     		movs	r2, #0
 657 00c0 1946     		mov	r1, r3
 658 00c2 3C20     		movs	r0, #60
 659 00c4 FFF7FEFF 		bl	I2C_MasterWriteBlocking
 338:ssd1306.c     ****         {      
 660              		.loc 1 338 0 discriminator 2
 661 00c8 BB7B     		ldrb	r3, [r7, #14]	@ zero_extendqisi2
 662 00ca 0133     		adds	r3, r3, #1
 663 00cc BB73     		strb	r3, [r7, #14]
 664              	.L34:
 338:ssd1306.c     ****         {      
 665              		.loc 1 338 0 is_stmt 0 discriminator 1
 666 00ce BB7B     		ldrb	r3, [r7, #14]	@ zero_extendqisi2
 667 00d0 072B     		cmp	r3, #7
 668 00d2 D7D9     		bls	.L37
 325:ssd1306.c     ****     {
ARM GAS  C:\Users\JEFFSN~1\AppData\Local\Temp\ccCJVR0p.s 			page 19


 669              		.loc 1 325 0 is_stmt 1 discriminator 2
 670 00d4 FB7B     		ldrb	r3, [r7, #15]	@ zero_extendqisi2
 671 00d6 0133     		adds	r3, r3, #1
 672 00d8 FB73     		strb	r3, [r7, #15]
 673              	.L33:
 325:ssd1306.c     ****     {
 674              		.loc 1 325 0 is_stmt 0 discriminator 1
 675 00da FA7B     		ldrb	r2, [r7, #15]	@ zero_extendqisi2
 676 00dc FB79     		ldrb	r3, [r7, #7]	@ zero_extendqisi2
 677 00de 9A42     		cmp	r2, r3
 678 00e0 B1D3     		bcc	.L38
 347:ssd1306.c     ****         }
 348:ssd1306.c     **** 	}
 349:ssd1306.c     **** 	
 350:ssd1306.c     **** 
 351:ssd1306.c     ****     
 352:ssd1306.c     ****     
 353:ssd1306.c     ****     
 354:ssd1306.c     ****     
 355:ssd1306.c     ****     ////
 356:ssd1306.c     ****     
 357:ssd1306.c     ****    
 358:ssd1306.c     **** 	//HAL_I2C_Master_Transmit_DMA(OLED_i2c_handle, OLED_i2c_address, displayBufferChunk, 513);
 359:ssd1306.c     **** }
 679              		.loc 1 359 0 is_stmt 1
 680 00e2 00BF     		nop
 681 00e4 1037     		adds	r7, r7, #16
 682              		.cfi_def_cfa_offset 8
 683 00e6 BD46     		mov	sp, r7
 684              		.cfi_def_cfa_register 13
 685              		@ sp needed
 686 00e8 80BD     		pop	{r7, pc}
 687              	.L40:
 688 00ea 00BF     		.align	2
 689              	.L39:
 690 00ec 00000000 		.word	I2Cbuff1
 691 00f0 00000000 		.word	buffer
 692              		.cfi_endproc
 693              	.LFE69:
 694              		.size	ssd1306_display_first_line, .-ssd1306_display_first_line
 695              		.section	.text.ssd1306_home,"ax",%progbits
 696              		.align	2
 697              		.global	ssd1306_home
 698              		.thumb
 699              		.thumb_func
 700              		.type	ssd1306_home, %function
 701              	ssd1306_home:
 702              	.LFB70:
 360:ssd1306.c     **** 
 361:ssd1306.c     **** void ssd1306_home(void) {
 703              		.loc 1 361 0
 704              		.cfi_startproc
 705              		@ args = 0, pretend = 0, frame = 0
 706              		@ frame_needed = 1, uses_anonymous_args = 0
 707 0000 80B5     		push	{r7, lr}
 708              		.cfi_def_cfa_offset 8
 709              		.cfi_offset 7, -8
ARM GAS  C:\Users\JEFFSN~1\AppData\Local\Temp\ccCJVR0p.s 			page 20


 710              		.cfi_offset 14, -4
 711 0002 00AF     		add	r7, sp, #0
 712              		.cfi_def_cfa_register 7
 362:ssd1306.c     **** 
 363:ssd1306.c     **** 	ssd1306_move_raw(0,0);
 713              		.loc 1 363 0
 714 0004 0021     		movs	r1, #0
 715 0006 0020     		movs	r0, #0
 716 0008 FFF7FEFF 		bl	ssd1306_move_raw
 364:ssd1306.c     **** }
 717              		.loc 1 364 0
 718 000c 00BF     		nop
 719 000e 80BD     		pop	{r7, pc}
 720              		.cfi_endproc
 721              	.LFE70:
 722              		.size	ssd1306_home, .-ssd1306_home
 723              		.section	.text.ssd1306_move_raw,"ax",%progbits
 724              		.align	2
 725              		.global	ssd1306_move_raw
 726              		.thumb
 727              		.thumb_func
 728              		.type	ssd1306_move_raw, %function
 729              	ssd1306_move_raw:
 730              	.LFB71:
 365:ssd1306.c     **** 
 366:ssd1306.c     **** void ssd1306_move_raw(uint8_t row, uint8_t column){
 731              		.loc 1 366 0
 732              		.cfi_startproc
 733              		@ args = 0, pretend = 0, frame = 8
 734              		@ frame_needed = 1, uses_anonymous_args = 0
 735 0000 80B5     		push	{r7, lr}
 736              		.cfi_def_cfa_offset 8
 737              		.cfi_offset 7, -8
 738              		.cfi_offset 14, -4
 739 0002 82B0     		sub	sp, sp, #8
 740              		.cfi_def_cfa_offset 16
 741 0004 00AF     		add	r7, sp, #0
 742              		.cfi_def_cfa_register 7
 743 0006 0346     		mov	r3, r0
 744 0008 0A46     		mov	r2, r1
 745 000a FB71     		strb	r3, [r7, #7]
 746 000c 1346     		mov	r3, r2
 747 000e BB71     		strb	r3, [r7, #6]
 367:ssd1306.c     **** 	if(column > 127) { column = 127; }
 748              		.loc 1 367 0
 749 0010 97F90630 		ldrsb	r3, [r7, #6]
 750 0014 002B     		cmp	r3, #0
 751 0016 01DA     		bge	.L43
 752              		.loc 1 367 0 is_stmt 0 discriminator 1
 753 0018 7F23     		movs	r3, #127
 754 001a BB71     		strb	r3, [r7, #6]
 755              	.L43:
 368:ssd1306.c     **** 	if(row > 7) { row = 7; }
 756              		.loc 1 368 0 is_stmt 1
 757 001c FB79     		ldrb	r3, [r7, #7]	@ zero_extendqisi2
 758 001e 072B     		cmp	r3, #7
 759 0020 01D9     		bls	.L44
ARM GAS  C:\Users\JEFFSN~1\AppData\Local\Temp\ccCJVR0p.s 			page 21


 760              		.loc 1 368 0 is_stmt 0 discriminator 1
 761 0022 0723     		movs	r3, #7
 762 0024 FB71     		strb	r3, [r7, #7]
 763              	.L44:
 369:ssd1306.c     **** 	ssd1306_command(SSD1306_COLUMNADDR);
 764              		.loc 1 369 0 is_stmt 1
 765 0026 2120     		movs	r0, #33
 766 0028 FFF7FEFF 		bl	ssd1306_command
 370:ssd1306.c     **** 	ssd1306_command(column);   // Column start address (0 = reset)
 767              		.loc 1 370 0
 768 002c BB79     		ldrb	r3, [r7, #6]	@ zero_extendqisi2
 769 002e 1846     		mov	r0, r3
 770 0030 FFF7FEFF 		bl	ssd1306_command
 371:ssd1306.c     **** 	ssd1306_command(SSD1306_LCDWIDTH-1); // Column end address (127 = reset)
 771              		.loc 1 371 0
 772 0034 7F20     		movs	r0, #127
 773 0036 FFF7FEFF 		bl	ssd1306_command
 372:ssd1306.c     **** 
 373:ssd1306.c     **** 	ssd1306_command(SSD1306_PAGEADDR);
 774              		.loc 1 373 0
 775 003a 2220     		movs	r0, #34
 776 003c FFF7FEFF 		bl	ssd1306_command
 374:ssd1306.c     **** 	ssd1306_command(row); // Page start address (0 = reset)
 777              		.loc 1 374 0
 778 0040 FB79     		ldrb	r3, [r7, #7]	@ zero_extendqisi2
 779 0042 1846     		mov	r0, r3
 780 0044 FFF7FEFF 		bl	ssd1306_command
 375:ssd1306.c     **** 	ssd1306_command(3); // Page end address
 781              		.loc 1 375 0
 782 0048 0320     		movs	r0, #3
 783 004a FFF7FEFF 		bl	ssd1306_command
 376:ssd1306.c     **** }
 784              		.loc 1 376 0
 785 004e 00BF     		nop
 786 0050 0837     		adds	r7, r7, #8
 787              		.cfi_def_cfa_offset 8
 788 0052 BD46     		mov	sp, r7
 789              		.cfi_def_cfa_register 13
 790              		@ sp needed
 791 0054 80BD     		pop	{r7, pc}
 792              		.cfi_endproc
 793              	.LFE71:
 794              		.size	ssd1306_move_raw, .-ssd1306_move_raw
 795 0056 00BF     		.section	.text.ssd1306_move,"ax",%progbits
 796              		.align	2
 797              		.global	ssd1306_move
 798              		.thumb
 799              		.thumb_func
 800              		.type	ssd1306_move, %function
 801              	ssd1306_move:
 802              	.LFB72:
 377:ssd1306.c     **** 
 378:ssd1306.c     **** 
 379:ssd1306.c     **** void ssd1306_move(uint8_t row, uint8_t column) {
 803              		.loc 1 379 0
 804              		.cfi_startproc
 805              		@ args = 0, pretend = 0, frame = 8
ARM GAS  C:\Users\JEFFSN~1\AppData\Local\Temp\ccCJVR0p.s 			page 22


 806              		@ frame_needed = 1, uses_anonymous_args = 0
 807 0000 80B5     		push	{r7, lr}
 808              		.cfi_def_cfa_offset 8
 809              		.cfi_offset 7, -8
 810              		.cfi_offset 14, -4
 811 0002 82B0     		sub	sp, sp, #8
 812              		.cfi_def_cfa_offset 16
 813 0004 00AF     		add	r7, sp, #0
 814              		.cfi_def_cfa_register 7
 815 0006 0346     		mov	r3, r0
 816 0008 0A46     		mov	r2, r1
 817 000a FB71     		strb	r3, [r7, #7]
 818 000c 1346     		mov	r3, r2
 819 000e BB71     		strb	r3, [r7, #6]
 380:ssd1306.c     **** 
 381:ssd1306.c     **** 	if(column > 15) { column = 15; }
 820              		.loc 1 381 0
 821 0010 BB79     		ldrb	r3, [r7, #6]	@ zero_extendqisi2
 822 0012 0F2B     		cmp	r3, #15
 823 0014 01D9     		bls	.L46
 824              		.loc 1 381 0 is_stmt 0 discriminator 1
 825 0016 0F23     		movs	r3, #15
 826 0018 BB71     		strb	r3, [r7, #6]
 827              	.L46:
 382:ssd1306.c     **** 	if(row > 7) { row = 7; }
 828              		.loc 1 382 0 is_stmt 1
 829 001a FB79     		ldrb	r3, [r7, #7]	@ zero_extendqisi2
 830 001c 072B     		cmp	r3, #7
 831 001e 01D9     		bls	.L47
 832              		.loc 1 382 0 is_stmt 0 discriminator 1
 833 0020 0723     		movs	r3, #7
 834 0022 FB71     		strb	r3, [r7, #7]
 835              	.L47:
 383:ssd1306.c     **** 	ssd1306_move_raw(row,(uint8_t)(column << 3));
 836              		.loc 1 383 0 is_stmt 1
 837 0024 BB79     		ldrb	r3, [r7, #6]
 838 0026 DB00     		lsls	r3, r3, #3
 839 0028 DAB2     		uxtb	r2, r3
 840 002a FB79     		ldrb	r3, [r7, #7]	@ zero_extendqisi2
 841 002c 1146     		mov	r1, r2
 842 002e 1846     		mov	r0, r3
 843 0030 FFF7FEFF 		bl	ssd1306_move_raw
 384:ssd1306.c     **** }
 844              		.loc 1 384 0
 845 0034 00BF     		nop
 846 0036 0837     		adds	r7, r7, #8
 847              		.cfi_def_cfa_offset 8
 848 0038 BD46     		mov	sp, r7
 849              		.cfi_def_cfa_register 13
 850              		@ sp needed
 851 003a 80BD     		pop	{r7, pc}
 852              		.cfi_endproc
 853              	.LFE72:
 854              		.size	ssd1306_move, .-ssd1306_move
 855              		.section	.text.ssd1306_write_internal,"ax",%progbits
 856              		.align	2
 857              		.global	ssd1306_write_internal
ARM GAS  C:\Users\JEFFSN~1\AppData\Local\Temp\ccCJVR0p.s 			page 23


 858              		.thumb
 859              		.thumb_func
 860              		.type	ssd1306_write_internal, %function
 861              	ssd1306_write_internal:
 862              	.LFB73:
 385:ssd1306.c     **** 
 386:ssd1306.c     **** 
 387:ssd1306.c     **** void ssd1306_write_internal(uint8_t* data, uint16_t numBytes) {
 863              		.loc 1 387 0
 864              		.cfi_startproc
 865              		@ args = 0, pretend = 0, frame = 16
 866              		@ frame_needed = 1, uses_anonymous_args = 0
 867              		@ link register save eliminated.
 868 0000 80B4     		push	{r7}
 869              		.cfi_def_cfa_offset 4
 870              		.cfi_offset 7, -4
 871 0002 85B0     		sub	sp, sp, #20
 872              		.cfi_def_cfa_offset 24
 873 0004 00AF     		add	r7, sp, #0
 874              		.cfi_def_cfa_register 7
 875 0006 7860     		str	r0, [r7, #4]
 876 0008 0B46     		mov	r3, r1
 877 000a 7B80     		strh	r3, [r7, #2]	@ movhi
 878              	.LBB4:
 388:ssd1306.c     **** 	for (uint16_t i = 0; i < numBytes; i++)
 879              		.loc 1 388 0
 880 000c 0023     		movs	r3, #0
 881 000e FB81     		strh	r3, [r7, #14]	@ movhi
 882 0010 11E0     		b	.L49
 883              	.L50:
 389:ssd1306.c     **** 	{
 390:ssd1306.c     **** 		buffer[i+(OLED_xpos + (OLED_ypos * 128))] = data[i];
 884              		.loc 1 390 0 discriminator 3
 885 0012 FA89     		ldrh	r2, [r7, #14]
 886 0014 0C4B     		ldr	r3, .L51
 887 0016 1B78     		ldrb	r3, [r3]	@ zero_extendqisi2
 888 0018 1946     		mov	r1, r3
 889 001a 0C4B     		ldr	r3, .L51+4
 890 001c 1B78     		ldrb	r3, [r3]	@ zero_extendqisi2
 891 001e DB01     		lsls	r3, r3, #7
 892 0020 0B44     		add	r3, r3, r1
 893 0022 1344     		add	r3, r3, r2
 894 0024 FA89     		ldrh	r2, [r7, #14]
 895 0026 7968     		ldr	r1, [r7, #4]
 896 0028 0A44     		add	r2, r2, r1
 897 002a 1178     		ldrb	r1, [r2]	@ zero_extendqisi2
 898 002c 084A     		ldr	r2, .L51+8
 899 002e D154     		strb	r1, [r2, r3]
 388:ssd1306.c     **** 	for (uint16_t i = 0; i < numBytes; i++)
 900              		.loc 1 388 0 discriminator 3
 901 0030 FB89     		ldrh	r3, [r7, #14]
 902 0032 0133     		adds	r3, r3, #1
 903 0034 FB81     		strh	r3, [r7, #14]	@ movhi
 904              	.L49:
 388:ssd1306.c     **** 	for (uint16_t i = 0; i < numBytes; i++)
 905              		.loc 1 388 0 is_stmt 0 discriminator 1
 906 0036 FA89     		ldrh	r2, [r7, #14]
ARM GAS  C:\Users\JEFFSN~1\AppData\Local\Temp\ccCJVR0p.s 			page 24


 907 0038 7B88     		ldrh	r3, [r7, #2]
 908 003a 9A42     		cmp	r2, r3
 909 003c E9D3     		bcc	.L50
 910              	.LBE4:
 391:ssd1306.c     **** 
 392:ssd1306.c     **** 	}
 393:ssd1306.c     **** }
 911              		.loc 1 393 0 is_stmt 1
 912 003e 00BF     		nop
 913 0040 1437     		adds	r7, r7, #20
 914              		.cfi_def_cfa_offset 4
 915 0042 BD46     		mov	sp, r7
 916              		.cfi_def_cfa_register 13
 917              		@ sp needed
 918 0044 80BC     		pop	{r7}
 919              		.cfi_restore 7
 920              		.cfi_def_cfa_offset 0
 921 0046 7047     		bx	lr
 922              	.L52:
 923              		.align	2
 924              	.L51:
 925 0048 00000000 		.word	OLED_xpos
 926 004c 00000000 		.word	OLED_ypos
 927 0050 00000000 		.word	buffer
 928              		.cfi_endproc
 929              	.LFE73:
 930              		.size	ssd1306_write_internal, .-ssd1306_write_internal
 931              		.section	.text.ssd1306_write,"ax",%progbits
 932              		.align	2
 933              		.global	ssd1306_write
 934              		.thumb
 935              		.thumb_func
 936              		.type	ssd1306_write, %function
 937              	ssd1306_write:
 938              	.LFB74:
 394:ssd1306.c     **** 
 395:ssd1306.c     **** 
 396:ssd1306.c     **** 
 397:ssd1306.c     **** void ssd1306_write(uint8_t* data, uint16_t numBytes) {
 939              		.loc 1 397 0
 940              		.cfi_startproc
 941              		@ args = 0, pretend = 0, frame = 16
 942              		@ frame_needed = 1, uses_anonymous_args = 0
 943 0000 80B5     		push	{r7, lr}
 944              		.cfi_def_cfa_offset 8
 945              		.cfi_offset 7, -8
 946              		.cfi_offset 14, -4
 947 0002 84B0     		sub	sp, sp, #16
 948              		.cfi_def_cfa_offset 24
 949 0004 00AF     		add	r7, sp, #0
 950              		.cfi_def_cfa_register 7
 951 0006 7860     		str	r0, [r7, #4]
 952 0008 0B46     		mov	r3, r1
 953 000a 7B80     		strh	r3, [r7, #2]	@ movhi
 398:ssd1306.c     **** 
 399:ssd1306.c     **** 	I2Cbuff1[0] = 0x40;
 954              		.loc 1 399 0
ARM GAS  C:\Users\JEFFSN~1\AppData\Local\Temp\ccCJVR0p.s 			page 25


 955 000c 104B     		ldr	r3, .L56
 956 000e 4022     		movs	r2, #64
 957 0010 1A70     		strb	r2, [r3]
 958              	.LBB5:
 400:ssd1306.c     **** 
 401:ssd1306.c     **** 	for (uint16_t i = 0; i < numBytes; i++)
 959              		.loc 1 401 0
 960 0012 0023     		movs	r3, #0
 961 0014 FB81     		strh	r3, [r7, #14]	@ movhi
 962 0016 0AE0     		b	.L54
 963              	.L55:
 402:ssd1306.c     **** 	{
 403:ssd1306.c     **** 		I2Cbuff1[i+1] = data[i];
 964              		.loc 1 403 0 discriminator 3
 965 0018 FB89     		ldrh	r3, [r7, #14]
 966 001a 0133     		adds	r3, r3, #1
 967 001c FA89     		ldrh	r2, [r7, #14]
 968 001e 7968     		ldr	r1, [r7, #4]
 969 0020 0A44     		add	r2, r2, r1
 970 0022 1178     		ldrb	r1, [r2]	@ zero_extendqisi2
 971 0024 0A4A     		ldr	r2, .L56
 972 0026 D154     		strb	r1, [r2, r3]
 401:ssd1306.c     **** 	{
 973              		.loc 1 401 0 discriminator 3
 974 0028 FB89     		ldrh	r3, [r7, #14]
 975 002a 0133     		adds	r3, r3, #1
 976 002c FB81     		strh	r3, [r7, #14]	@ movhi
 977              	.L54:
 401:ssd1306.c     **** 	{
 978              		.loc 1 401 0 is_stmt 0 discriminator 1
 979 002e FA89     		ldrh	r2, [r7, #14]
 980 0030 7B88     		ldrh	r3, [r7, #2]
 981 0032 9A42     		cmp	r2, r3
 982 0034 F0D3     		bcc	.L55
 983              	.LBE5:
 404:ssd1306.c     **** 	}
 405:ssd1306.c     ****     I2C_MasterWriteBlocking(SSD1306_I2C_ADDRESS, numBytes+1, I2C_1_MODE_COMPLETE_XFER);
 984              		.loc 1 405 0 is_stmt 1
 985 0036 7B88     		ldrh	r3, [r7, #2]	@ movhi
 986 0038 0133     		adds	r3, r3, #1
 987 003a 9BB2     		uxth	r3, r3
 988 003c 0022     		movs	r2, #0
 989 003e 1946     		mov	r1, r3
 990 0040 3C20     		movs	r0, #60
 991 0042 FFF7FEFF 		bl	I2C_MasterWriteBlocking
 406:ssd1306.c     **** 	//HAL_I2C_Master_Transmit(OLED_i2c_handle, OLED_i2c_address, localBuffer, numBytes+1, 2000);
 407:ssd1306.c     **** 
 408:ssd1306.c     **** }
 992              		.loc 1 408 0
 993 0046 00BF     		nop
 994 0048 1037     		adds	r7, r7, #16
 995              		.cfi_def_cfa_offset 8
 996 004a BD46     		mov	sp, r7
 997              		.cfi_def_cfa_register 13
 998              		@ sp needed
 999 004c 80BD     		pop	{r7, pc}
 1000              	.L57:
ARM GAS  C:\Users\JEFFSN~1\AppData\Local\Temp\ccCJVR0p.s 			page 26


 1001 004e 00BF     		.align	2
 1002              	.L56:
 1003 0050 00000000 		.word	I2Cbuff1
 1004              		.cfi_endproc
 1005              	.LFE74:
 1006              		.size	ssd1306_write, .-ssd1306_write
 1007              		.section	.text.ssd1306_write_2X,"ax",%progbits
 1008              		.align	2
 1009              		.global	ssd1306_write_2X
 1010              		.thumb
 1011              		.thumb_func
 1012              		.type	ssd1306_write_2X, %function
 1013              	ssd1306_write_2X:
 1014              	.LFB75:
 409:ssd1306.c     **** 
 410:ssd1306.c     **** void ssd1306_write_2X(uint8_t* data, uint16_t numBytes) {
 1015              		.loc 1 410 0
 1016              		.cfi_startproc
 1017              		@ args = 0, pretend = 0, frame = 24
 1018              		@ frame_needed = 1, uses_anonymous_args = 0
 1019 0000 2DE9F041 		push	{r4, r5, r6, r7, r8, lr}
 1020              		.cfi_def_cfa_offset 24
 1021              		.cfi_offset 4, -24
 1022              		.cfi_offset 5, -20
 1023              		.cfi_offset 6, -16
 1024              		.cfi_offset 7, -12
 1025              		.cfi_offset 8, -8
 1026              		.cfi_offset 14, -4
 1027 0004 86B0     		sub	sp, sp, #24
 1028              		.cfi_def_cfa_offset 48
 1029 0006 00AF     		add	r7, sp, #0
 1030              		.cfi_def_cfa_register 7
 1031 0008 7860     		str	r0, [r7, #4]
 1032 000a 0A46     		mov	r2, r1
 1033 000c 7A80     		strh	r2, [r7, #2]	@ movhi
 1034              		.loc 1 410 0
 1035 000e 6A46     		mov	r2, sp
 1036 0010 9046     		mov	r8, r2
 411:ssd1306.c     **** 
 412:ssd1306.c     **** 	uint8_t localBuffer[(numBytes*2)+1];
 1037              		.loc 1 412 0
 1038 0012 7A88     		ldrh	r2, [r7, #2]
 1039 0014 5200     		lsls	r2, r2, #1
 1040 0016 501C     		adds	r0, r2, #1
 1041 0018 421E     		subs	r2, r0, #1
 1042 001a 3A61     		str	r2, [r7, #16]
 1043 001c 0246     		mov	r2, r0
 1044 001e 1146     		mov	r1, r2
 1045 0020 4FF00002 		mov	r2, #0
 1046 0024 D600     		lsls	r6, r2, #3
 1047 0026 46EA5176 		orr	r6, r6, r1, lsr #29
 1048 002a CD00     		lsls	r5, r1, #3
 1049 002c 0246     		mov	r2, r0
 1050 002e 1146     		mov	r1, r2
 1051 0030 4FF00002 		mov	r2, #0
 1052 0034 D400     		lsls	r4, r2, #3
 1053 0036 44EA5174 		orr	r4, r4, r1, lsr #29
ARM GAS  C:\Users\JEFFSN~1\AppData\Local\Temp\ccCJVR0p.s 			page 27


 1054 003a CB00     		lsls	r3, r1, #3
 1055 003c 0346     		mov	r3, r0
 1056 003e 0733     		adds	r3, r3, #7
 1057 0040 DB08     		lsrs	r3, r3, #3
 1058 0042 DB00     		lsls	r3, r3, #3
 1059 0044 ADEB030D 		sub	sp, sp, r3
 1060 0048 6B46     		mov	r3, sp
 1061 004a 0033     		adds	r3, r3, #0
 1062 004c FB60     		str	r3, [r7, #12]
 413:ssd1306.c     **** 
 414:ssd1306.c     **** 	I2Cbuff1[0] = 0x40;
 1063              		.loc 1 414 0
 1064 004e 254B     		ldr	r3, .L63
 1065 0050 4022     		movs	r2, #64
 1066 0052 1A70     		strb	r2, [r3]
 1067              	.LBB6:
 415:ssd1306.c     **** 
 416:ssd1306.c     **** 	for (uint16_t i = 0; i < numBytes; i++)
 1068              		.loc 1 416 0
 1069 0054 0023     		movs	r3, #0
 1070 0056 FB82     		strh	r3, [r7, #22]	@ movhi
 1071 0058 0CE0     		b	.L59
 1072              	.L60:
 417:ssd1306.c     **** 	{
 418:ssd1306.c     **** 		I2Cbuff1[i+1] = data[i] >> 4;
 1073              		.loc 1 418 0 discriminator 3
 1074 005a FB8A     		ldrh	r3, [r7, #22]
 1075 005c 0133     		adds	r3, r3, #1
 1076 005e FA8A     		ldrh	r2, [r7, #22]
 1077 0060 7968     		ldr	r1, [r7, #4]
 1078 0062 0A44     		add	r2, r2, r1
 1079 0064 1278     		ldrb	r2, [r2]	@ zero_extendqisi2
 1080 0066 1209     		lsrs	r2, r2, #4
 1081 0068 D1B2     		uxtb	r1, r2
 1082 006a 1E4A     		ldr	r2, .L63
 1083 006c D154     		strb	r1, [r2, r3]
 416:ssd1306.c     **** 	{
 1084              		.loc 1 416 0 discriminator 3
 1085 006e FB8A     		ldrh	r3, [r7, #22]
 1086 0070 0133     		adds	r3, r3, #1
 1087 0072 FB82     		strh	r3, [r7, #22]	@ movhi
 1088              	.L59:
 416:ssd1306.c     **** 	{
 1089              		.loc 1 416 0 is_stmt 0 discriminator 1
 1090 0074 FA8A     		ldrh	r2, [r7, #22]
 1091 0076 7B88     		ldrh	r3, [r7, #2]
 1092 0078 9A42     		cmp	r2, r3
 1093 007a EED3     		bcc	.L60
 1094              	.LBE6:
 419:ssd1306.c     **** 
 420:ssd1306.c     **** 	}
 421:ssd1306.c     ****     I2C_MasterWriteBlocking(SSD1306_I2C_ADDRESS, (numBytes*2)+1, I2C_1_MODE_COMPLETE_XFER);
 1095              		.loc 1 421 0 is_stmt 1
 1096 007c 7B88     		ldrh	r3, [r7, #2]	@ movhi
 1097 007e 5B00     		lsls	r3, r3, #1
 1098 0080 9BB2     		uxth	r3, r3
 1099 0082 0133     		adds	r3, r3, #1
ARM GAS  C:\Users\JEFFSN~1\AppData\Local\Temp\ccCJVR0p.s 			page 28


 1100 0084 9BB2     		uxth	r3, r3
 1101 0086 0022     		movs	r2, #0
 1102 0088 1946     		mov	r1, r3
 1103 008a 3C20     		movs	r0, #60
 1104 008c FFF7FEFF 		bl	I2C_MasterWriteBlocking
 422:ssd1306.c     **** 	//HAL_I2C_Master_Transmit(OLED_i2c_handle, OLED_i2c_address, localBuffer, (numBytes*2)+1, 2000);
 423:ssd1306.c     **** 
 424:ssd1306.c     **** 	ssd1306_move(1,0);
 1105              		.loc 1 424 0
 1106 0090 0021     		movs	r1, #0
 1107 0092 0120     		movs	r0, #1
 1108 0094 FFF7FEFF 		bl	ssd1306_move
 1109              	.LBB7:
 425:ssd1306.c     **** 
 426:ssd1306.c     **** 	for (uint16_t i = 0; i < numBytes; i++)
 1110              		.loc 1 426 0
 1111 0098 0023     		movs	r3, #0
 1112 009a BB82     		strh	r3, [r7, #20]	@ movhi
 1113 009c 0DE0     		b	.L61
 1114              	.L62:
 427:ssd1306.c     **** 	{
 428:ssd1306.c     **** 		I2Cbuff1[i+1] = data[i] & 0x0f;
 1115              		.loc 1 428 0 discriminator 3
 1116 009e BB8A     		ldrh	r3, [r7, #20]
 1117 00a0 0133     		adds	r3, r3, #1
 1118 00a2 BA8A     		ldrh	r2, [r7, #20]
 1119 00a4 7968     		ldr	r1, [r7, #4]
 1120 00a6 0A44     		add	r2, r2, r1
 1121 00a8 1278     		ldrb	r2, [r2]	@ zero_extendqisi2
 1122 00aa 02F00F02 		and	r2, r2, #15
 1123 00ae D1B2     		uxtb	r1, r2
 1124 00b0 0C4A     		ldr	r2, .L63
 1125 00b2 D154     		strb	r1, [r2, r3]
 426:ssd1306.c     **** 	{
 1126              		.loc 1 426 0 discriminator 3
 1127 00b4 BB8A     		ldrh	r3, [r7, #20]
 1128 00b6 0133     		adds	r3, r3, #1
 1129 00b8 BB82     		strh	r3, [r7, #20]	@ movhi
 1130              	.L61:
 426:ssd1306.c     **** 	{
 1131              		.loc 1 426 0 is_stmt 0 discriminator 1
 1132 00ba BA8A     		ldrh	r2, [r7, #20]
 1133 00bc 7B88     		ldrh	r3, [r7, #2]
 1134 00be 9A42     		cmp	r2, r3
 1135 00c0 EDD3     		bcc	.L62
 1136              	.LBE7:
 429:ssd1306.c     **** 	}
 430:ssd1306.c     ****     I2C_MasterWriteBlocking(SSD1306_I2C_ADDRESS, (numBytes*2)+1, I2C_1_MODE_COMPLETE_XFER);
 1137              		.loc 1 430 0 is_stmt 1
 1138 00c2 7B88     		ldrh	r3, [r7, #2]	@ movhi
 1139 00c4 5B00     		lsls	r3, r3, #1
 1140 00c6 9BB2     		uxth	r3, r3
 1141 00c8 0133     		adds	r3, r3, #1
 1142 00ca 9BB2     		uxth	r3, r3
 1143 00cc 0022     		movs	r2, #0
 1144 00ce 1946     		mov	r1, r3
 1145 00d0 3C20     		movs	r0, #60
ARM GAS  C:\Users\JEFFSN~1\AppData\Local\Temp\ccCJVR0p.s 			page 29


 1146 00d2 FFF7FEFF 		bl	I2C_MasterWriteBlocking
 1147 00d6 C546     		mov	sp, r8
 431:ssd1306.c     **** 	//HAL_I2C_Master_Transmit(OLED_i2c_handle, OLED_i2c_address, localBuffer, (numBytes*2)+1, 2000);
 432:ssd1306.c     **** 
 433:ssd1306.c     **** }
 1148              		.loc 1 433 0
 1149 00d8 00BF     		nop
 1150 00da 1837     		adds	r7, r7, #24
 1151              		.cfi_def_cfa_offset 24
 1152 00dc BD46     		mov	sp, r7
 1153              		.cfi_def_cfa_register 13
 1154              		@ sp needed
 1155 00de BDE8F081 		pop	{r4, r5, r6, r7, r8, pc}
 1156              	.L64:
 1157 00e2 00BF     		.align	2
 1158              	.L63:
 1159 00e4 00000000 		.word	I2Cbuff1
 1160              		.cfi_endproc
 1161              	.LFE75:
 1162              		.size	ssd1306_write_2X, .-ssd1306_write_2X
 1163              		.text
 1164              	.Letext0:
 1165              		.file 2 "c:\\program files (x86)\\cypress\\psoc creator\\4.4\\psoc creator\\import\\gnu\\arm\\5.4.
 1166              		.file 3 "c:\\program files (x86)\\cypress\\psoc creator\\4.4\\psoc creator\\import\\gnu\\arm\\5.4.
 1167              		.file 4 "Generated_Source\\PSoC5/core_cm3.h"
 1168              		.file 5 "main.h"