ARM GAS  C:\Users\JEFFSN~1\AppData\Local\Temp\cczY2IKK.s 			page 1


   1              		.syntax unified
   2              		.cpu cortex-m3
   3              		.fpu softvfp
   4              		.eabi_attribute 20, 1
   5              		.eabi_attribute 21, 1
   6              		.eabi_attribute 23, 3
   7              		.eabi_attribute 24, 1
   8              		.eabi_attribute 25, 1
   9              		.eabi_attribute 26, 1
  10              		.eabi_attribute 30, 6
  11              		.eabi_attribute 34, 1
  12              		.eabi_attribute 18, 4
  13              		.thumb
  14              		.syntax unified
  15              		.file	"USB_std.c"
  16              		.text
  17              	.Ltext0:
  18              		.cfi_sections	.debug_frame
  19              		.section	.text.USB_HandleStandardRqst,"ax",%progbits
  20              		.align	2
  21              		.global	USB_HandleStandardRqst
  22              		.thumb
  23              		.thumb_func
  24              		.type	USB_HandleStandardRqst, %function
  25              	USB_HandleStandardRqst:
  26              	.LFB0:
  27              		.file 1 "Generated_Source\\PSoC5\\USB_std.c"
   1:Generated_Source\PSoC5/USB_std.c **** /***************************************************************************//**
   2:Generated_Source\PSoC5/USB_std.c **** * \file USB_std.c
   3:Generated_Source\PSoC5/USB_std.c **** * \version 3.20
   4:Generated_Source\PSoC5/USB_std.c **** *
   5:Generated_Source\PSoC5/USB_std.c **** * \brief
   6:Generated_Source\PSoC5/USB_std.c **** *  This file contains the USB Standard request handler.
   7:Generated_Source\PSoC5/USB_std.c **** *
   8:Generated_Source\PSoC5/USB_std.c **** ********************************************************************************
   9:Generated_Source\PSoC5/USB_std.c **** * \copyright
  10:Generated_Source\PSoC5/USB_std.c **** * Copyright 2008-2016, Cypress Semiconductor Corporation.  All rights reserved.
  11:Generated_Source\PSoC5/USB_std.c **** * You may use this file only in accordance with the license, terms, conditions,
  12:Generated_Source\PSoC5/USB_std.c **** * disclaimers, and limitations in the end user license agreement accompanying
  13:Generated_Source\PSoC5/USB_std.c **** * the software package with which this file was provided.
  14:Generated_Source\PSoC5/USB_std.c **** *******************************************************************************/
  15:Generated_Source\PSoC5/USB_std.c **** 
  16:Generated_Source\PSoC5/USB_std.c **** #include "USB_pvt.h"
  17:Generated_Source\PSoC5/USB_std.c **** 
  18:Generated_Source\PSoC5/USB_std.c **** /***************************************
  19:Generated_Source\PSoC5/USB_std.c **** *   Static data allocation
  20:Generated_Source\PSoC5/USB_std.c **** ***************************************/
  21:Generated_Source\PSoC5/USB_std.c **** 
  22:Generated_Source\PSoC5/USB_std.c **** #if defined(USB_ENABLE_FWSN_STRING)
  23:Generated_Source\PSoC5/USB_std.c ****     static volatile uint8* USB_fwSerialNumberStringDescriptor;
  24:Generated_Source\PSoC5/USB_std.c ****     static volatile uint8  USB_snStringConfirm = USB_FALSE;
  25:Generated_Source\PSoC5/USB_std.c **** #endif  /* (USB_ENABLE_FWSN_STRING) */
  26:Generated_Source\PSoC5/USB_std.c **** 
  27:Generated_Source\PSoC5/USB_std.c **** #if defined(USB_ENABLE_FWSN_STRING)
  28:Generated_Source\PSoC5/USB_std.c ****     /***************************************************************************
  29:Generated_Source\PSoC5/USB_std.c ****     * Function Name: USB_SerialNumString
  30:Generated_Source\PSoC5/USB_std.c ****     ************************************************************************//**
ARM GAS  C:\Users\JEFFSN~1\AppData\Local\Temp\cczY2IKK.s 			page 2


  31:Generated_Source\PSoC5/USB_std.c ****     *
  32:Generated_Source\PSoC5/USB_std.c ****     *  This function is available only when the User Call Back option in the 
  33:Generated_Source\PSoC5/USB_std.c ****     *  Serial Number String descriptor properties is selected. Application 
  34:Generated_Source\PSoC5/USB_std.c ****     *  firmware can provide the source of the USB device serial number string 
  35:Generated_Source\PSoC5/USB_std.c ****     *  descriptor during run time. The default string is used if the application 
  36:Generated_Source\PSoC5/USB_std.c ****     *  firmware does not use this function or sets the wrong string descriptor.
  37:Generated_Source\PSoC5/USB_std.c ****     *
  38:Generated_Source\PSoC5/USB_std.c ****     *  \param snString:  Pointer to the user-defined string descriptor. The 
  39:Generated_Source\PSoC5/USB_std.c ****     *  string descriptor should meet the Universal Serial Bus Specification 
  40:Generated_Source\PSoC5/USB_std.c ****     *  revision 2.0 chapter 9.6.7
  41:Generated_Source\PSoC5/USB_std.c ****     *  Offset|Size|Value|Description
  42:Generated_Source\PSoC5/USB_std.c ****     *  ------|----|------|---------------------------------
  43:Generated_Source\PSoC5/USB_std.c ****     *  0     |1   |N     |Size of this descriptor in bytes
  44:Generated_Source\PSoC5/USB_std.c ****     *  1     |1   |0x03  |STRING Descriptor Type
  45:Generated_Source\PSoC5/USB_std.c ****     *  2     |N-2 |Number|UNICODE encoded string
  46:Generated_Source\PSoC5/USB_std.c ****     *  
  47:Generated_Source\PSoC5/USB_std.c ****     * *For example:* uint8 snString[16]={0x0E,0x03,'F',0,'W',0,'S',0,'N',0,'0',0,'1',0};
  48:Generated_Source\PSoC5/USB_std.c ****     *
  49:Generated_Source\PSoC5/USB_std.c ****     * \reentrant
  50:Generated_Source\PSoC5/USB_std.c ****     *  No.
  51:Generated_Source\PSoC5/USB_std.c ****     *
  52:Generated_Source\PSoC5/USB_std.c ****     ***************************************************************************/
  53:Generated_Source\PSoC5/USB_std.c ****     void  USB_SerialNumString(uint8 snString[]) 
  54:Generated_Source\PSoC5/USB_std.c ****     {
  55:Generated_Source\PSoC5/USB_std.c ****         USB_snStringConfirm = USB_FALSE;
  56:Generated_Source\PSoC5/USB_std.c ****         
  57:Generated_Source\PSoC5/USB_std.c ****         if (snString != NULL)
  58:Generated_Source\PSoC5/USB_std.c ****         {
  59:Generated_Source\PSoC5/USB_std.c ****             /* Check descriptor validation */
  60:Generated_Source\PSoC5/USB_std.c ****             if ((snString[0u] > 1u) && (snString[1u] == USB_DESCR_STRING))
  61:Generated_Source\PSoC5/USB_std.c ****             {
  62:Generated_Source\PSoC5/USB_std.c ****                 USB_fwSerialNumberStringDescriptor = snString;
  63:Generated_Source\PSoC5/USB_std.c ****                 USB_snStringConfirm = USB_TRUE;
  64:Generated_Source\PSoC5/USB_std.c ****             }
  65:Generated_Source\PSoC5/USB_std.c ****         }
  66:Generated_Source\PSoC5/USB_std.c ****     }
  67:Generated_Source\PSoC5/USB_std.c **** #endif  /* USB_ENABLE_FWSN_STRING */
  68:Generated_Source\PSoC5/USB_std.c **** 
  69:Generated_Source\PSoC5/USB_std.c **** 
  70:Generated_Source\PSoC5/USB_std.c **** /*******************************************************************************
  71:Generated_Source\PSoC5/USB_std.c **** * Function Name: USB_HandleStandardRqst
  72:Generated_Source\PSoC5/USB_std.c **** ****************************************************************************//**
  73:Generated_Source\PSoC5/USB_std.c **** *
  74:Generated_Source\PSoC5/USB_std.c **** *  This Routine dispatches standard requests
  75:Generated_Source\PSoC5/USB_std.c **** *
  76:Generated_Source\PSoC5/USB_std.c **** *
  77:Generated_Source\PSoC5/USB_std.c **** * \return
  78:Generated_Source\PSoC5/USB_std.c **** *  TRUE if request handled.
  79:Generated_Source\PSoC5/USB_std.c **** *
  80:Generated_Source\PSoC5/USB_std.c **** * \reentrant
  81:Generated_Source\PSoC5/USB_std.c **** *  No.
  82:Generated_Source\PSoC5/USB_std.c **** *
  83:Generated_Source\PSoC5/USB_std.c **** *******************************************************************************/
  84:Generated_Source\PSoC5/USB_std.c **** uint8 USB_HandleStandardRqst(void) 
  85:Generated_Source\PSoC5/USB_std.c **** {
  28              		.loc 1 85 0
  29              		.cfi_startproc
ARM GAS  C:\Users\JEFFSN~1\AppData\Local\Temp\cczY2IKK.s 			page 3


  30              		@ args = 0, pretend = 0, frame = 24
  31              		@ frame_needed = 1, uses_anonymous_args = 0
  32 0000 80B5     		push	{r7, lr}
  33              		.cfi_def_cfa_offset 8
  34              		.cfi_offset 7, -8
  35              		.cfi_offset 14, -4
  36 0002 86B0     		sub	sp, sp, #24
  37              		.cfi_def_cfa_offset 32
  38 0004 00AF     		add	r7, sp, #0
  39              		.cfi_def_cfa_register 7
  86:Generated_Source\PSoC5/USB_std.c ****     uint8 requestHandled = USB_FALSE;
  40              		.loc 1 86 0
  41 0006 0023     		movs	r3, #0
  42 0008 FB75     		strb	r3, [r7, #23]
  87:Generated_Source\PSoC5/USB_std.c ****     uint8 interfaceNumber;
  88:Generated_Source\PSoC5/USB_std.c ****     uint8 configurationN;
  89:Generated_Source\PSoC5/USB_std.c ****     uint8 bmRequestType = USB_bmRequestTypeReg;
  43              		.loc 1 89 0
  44 000a B04B     		ldr	r3, .L67
  45 000c 1B78     		ldrb	r3, [r3]
  46 000e FB71     		strb	r3, [r7, #7]
  90:Generated_Source\PSoC5/USB_std.c **** 
  91:Generated_Source\PSoC5/USB_std.c **** #if defined(USB_ENABLE_STRINGS)
  92:Generated_Source\PSoC5/USB_std.c ****     volatile uint8 *pStr = 0u;
  47              		.loc 1 92 0
  48 0010 0023     		movs	r3, #0
  49 0012 3B61     		str	r3, [r7, #16]
  93:Generated_Source\PSoC5/USB_std.c ****     #if defined(USB_ENABLE_DESCRIPTOR_STRINGS)
  94:Generated_Source\PSoC5/USB_std.c ****         uint8 nStr;
  95:Generated_Source\PSoC5/USB_std.c ****         uint8 descrLength;
  96:Generated_Source\PSoC5/USB_std.c ****     #endif /* (USB_ENABLE_DESCRIPTOR_STRINGS) */
  97:Generated_Source\PSoC5/USB_std.c **** #endif /* (USB_ENABLE_STRINGS) */
  98:Generated_Source\PSoC5/USB_std.c ****     
  99:Generated_Source\PSoC5/USB_std.c ****     static volatile uint8 USB_tBuffer[USB_STATUS_LENGTH_MAX];
 100:Generated_Source\PSoC5/USB_std.c ****     const T_USB_LUT CYCODE *pTmp;
 101:Generated_Source\PSoC5/USB_std.c **** 
 102:Generated_Source\PSoC5/USB_std.c ****     USB_currentTD.count = 0u;
  50              		.loc 1 102 0
  51 0014 AE4B     		ldr	r3, .L67+4
  52 0016 0022     		movs	r2, #0
  53 0018 1A80     		strh	r2, [r3]	@ movhi
 103:Generated_Source\PSoC5/USB_std.c **** 
 104:Generated_Source\PSoC5/USB_std.c ****     if (USB_RQST_DIR_D2H == (bmRequestType & USB_RQST_DIR_MASK))
  54              		.loc 1 104 0
  55 001a 97F90730 		ldrsb	r3, [r7, #7]
  56 001e 002B     		cmp	r3, #0
  57 0020 80F2FD80 		bge	.L2
 105:Generated_Source\PSoC5/USB_std.c ****     {
 106:Generated_Source\PSoC5/USB_std.c ****         /* Control Read */
 107:Generated_Source\PSoC5/USB_std.c ****         switch (USB_bRequestReg)
  58              		.loc 1 107 0
  59 0024 A94B     		ldr	r3, .L67
  60 0026 5B78     		ldrb	r3, [r3, #1]
  61 0028 DBB2     		uxtb	r3, r3
  62 002a 0A2B     		cmp	r3, #10
  63 002c 00F21682 		bhi	.L56
  64 0030 01A2     		adr	r2, .L5
ARM GAS  C:\Users\JEFFSN~1\AppData\Local\Temp\cczY2IKK.s 			page 4


  65 0032 52F823F0 		ldr	pc, [r2, r3, lsl #2]
  66 0036 00BF     		.p2align 2
  67              	.L5:
  68 0038 75010000 		.word	.L4+1
  69 003c 5D040000 		.word	.L56+1
  70 0040 5D040000 		.word	.L56+1
  71 0044 5D040000 		.word	.L56+1
  72 0048 5D040000 		.word	.L56+1
  73 004c 5D040000 		.word	.L56+1
  74 0050 65000000 		.word	.L6+1
  75 0054 5D040000 		.word	.L56+1
  76 0058 E9010000 		.word	.L7+1
  77 005c 5D040000 		.word	.L56+1
  78 0060 FF010000 		.word	.L8+1
  79              		.p2align 1
  80              	.L6:
 108:Generated_Source\PSoC5/USB_std.c ****         {
 109:Generated_Source\PSoC5/USB_std.c ****             case USB_GET_DESCRIPTOR:
 110:Generated_Source\PSoC5/USB_std.c ****                 if (USB_DESCR_DEVICE ==USB_wValueHiReg)
  81              		.loc 1 110 0
  82 0064 994B     		ldr	r3, .L67
  83 0066 DB78     		ldrb	r3, [r3, #3]
  84 0068 DBB2     		uxtb	r3, r3
  85 006a 012B     		cmp	r3, #1
  86 006c 0ED1     		bne	.L9
 111:Generated_Source\PSoC5/USB_std.c ****                 {
 112:Generated_Source\PSoC5/USB_std.c ****                     pTmp = USB_GetDeviceTablePtr();
  87              		.loc 1 112 0
  88 006e FFF7FEFF 		bl	USB_GetDeviceTablePtr
  89 0072 B860     		str	r0, [r7, #8]
 113:Generated_Source\PSoC5/USB_std.c ****                     USB_currentTD.pData = (volatile uint8 *)pTmp->p_list;
  90              		.loc 1 113 0
  91 0074 BB68     		ldr	r3, [r7, #8]
  92 0076 5B68     		ldr	r3, [r3, #4]
  93 0078 954A     		ldr	r2, .L67+4
  94 007a 5360     		str	r3, [r2, #4]
 114:Generated_Source\PSoC5/USB_std.c ****                     USB_currentTD.count = USB_DEVICE_DESCR_LENGTH;
  95              		.loc 1 114 0
  96 007c 944B     		ldr	r3, .L67+4
  97 007e 1222     		movs	r2, #18
  98 0080 1A80     		strh	r2, [r3]	@ movhi
 115:Generated_Source\PSoC5/USB_std.c ****                     
 116:Generated_Source\PSoC5/USB_std.c ****                     requestHandled  = USB_InitControlRead();
  99              		.loc 1 116 0
 100 0082 FFF7FEFF 		bl	USB_InitControlRead
 101 0086 0346     		mov	r3, r0
 102 0088 FB75     		strb	r3, [r7, #23]
 117:Generated_Source\PSoC5/USB_std.c ****                 }
 118:Generated_Source\PSoC5/USB_std.c ****                 else if (USB_DESCR_CONFIG == USB_wValueHiReg)
 119:Generated_Source\PSoC5/USB_std.c ****                 {
 120:Generated_Source\PSoC5/USB_std.c ****                     pTmp = USB_GetConfigTablePtr((uint8) USB_wValueLoReg);
 121:Generated_Source\PSoC5/USB_std.c ****                     
 122:Generated_Source\PSoC5/USB_std.c ****                     /* Verify that requested descriptor exists */
 123:Generated_Source\PSoC5/USB_std.c ****                     if (pTmp != NULL)
 124:Generated_Source\PSoC5/USB_std.c ****                     {
 125:Generated_Source\PSoC5/USB_std.c ****                         USB_currentTD.pData = (volatile uint8 *)pTmp->p_list;
 126:Generated_Source\PSoC5/USB_std.c ****                         USB_currentTD.count = (uint16)((uint16)(USB_currentTD.pData)[USB_CONFIG_DES
ARM GAS  C:\Users\JEFFSN~1\AppData\Local\Temp\cczY2IKK.s 			page 5


 127:Generated_Source\PSoC5/USB_std.c ****                                                                             (USB_currentTD.pData)[U
 128:Generated_Source\PSoC5/USB_std.c ****                         requestHandled  = USB_InitControlRead();
 129:Generated_Source\PSoC5/USB_std.c ****                     }
 130:Generated_Source\PSoC5/USB_std.c ****                 }
 131:Generated_Source\PSoC5/USB_std.c ****                 
 132:Generated_Source\PSoC5/USB_std.c ****             #if(USB_BOS_ENABLE)
 133:Generated_Source\PSoC5/USB_std.c ****                 else if (USB_DESCR_BOS == USB_wValueHiReg)
 134:Generated_Source\PSoC5/USB_std.c ****                 {
 135:Generated_Source\PSoC5/USB_std.c ****                     pTmp = USB_GetBOSPtr();
 136:Generated_Source\PSoC5/USB_std.c ****                     
 137:Generated_Source\PSoC5/USB_std.c ****                     /* Verify that requested descriptor exists */
 138:Generated_Source\PSoC5/USB_std.c ****                     if (pTmp != NULL)
 139:Generated_Source\PSoC5/USB_std.c ****                     {
 140:Generated_Source\PSoC5/USB_std.c ****                         USB_currentTD.pData = (volatile uint8 *)pTmp;
 141:Generated_Source\PSoC5/USB_std.c ****                         USB_currentTD.count = ((uint16)((uint16)(USB_currentTD.pData)[USB_BOS_DESCR
 142:Generated_Source\PSoC5/USB_std.c ****                                                                              (USB_currentTD.pData)[
 143:Generated_Source\PSoC5/USB_std.c ****                         requestHandled  = USB_InitControlRead();
 144:Generated_Source\PSoC5/USB_std.c ****                     }
 145:Generated_Source\PSoC5/USB_std.c ****                 }
 146:Generated_Source\PSoC5/USB_std.c ****             #endif /*(USB_BOS_ENABLE)*/
 147:Generated_Source\PSoC5/USB_std.c ****             
 148:Generated_Source\PSoC5/USB_std.c ****             #if defined(USB_ENABLE_STRINGS)
 149:Generated_Source\PSoC5/USB_std.c ****                 else if (USB_DESCR_STRING == USB_wValueHiReg)
 150:Generated_Source\PSoC5/USB_std.c ****                 {
 151:Generated_Source\PSoC5/USB_std.c ****                 /* Descriptor Strings */
 152:Generated_Source\PSoC5/USB_std.c ****                 #if defined(USB_ENABLE_DESCRIPTOR_STRINGS)
 153:Generated_Source\PSoC5/USB_std.c ****                     nStr = 0u;
 154:Generated_Source\PSoC5/USB_std.c ****                     pStr = (volatile uint8 *) &USB_STRING_DESCRIPTORS[0u];
 155:Generated_Source\PSoC5/USB_std.c ****                     
 156:Generated_Source\PSoC5/USB_std.c ****                     while ((USB_wValueLoReg > nStr) && (*pStr != 0u))
 157:Generated_Source\PSoC5/USB_std.c ****                     {
 158:Generated_Source\PSoC5/USB_std.c ****                         /* Read descriptor length from 1st byte */
 159:Generated_Source\PSoC5/USB_std.c ****                         descrLength = *pStr;
 160:Generated_Source\PSoC5/USB_std.c ****                         /* Move to next string descriptor */
 161:Generated_Source\PSoC5/USB_std.c ****                         pStr = &pStr[descrLength];
 162:Generated_Source\PSoC5/USB_std.c ****                         nStr++;
 163:Generated_Source\PSoC5/USB_std.c ****                     }
 164:Generated_Source\PSoC5/USB_std.c ****                 #endif /* (USB_ENABLE_DESCRIPTOR_STRINGS) */
 165:Generated_Source\PSoC5/USB_std.c ****                 
 166:Generated_Source\PSoC5/USB_std.c ****                 /* Microsoft OS String */
 167:Generated_Source\PSoC5/USB_std.c ****                 #if defined(USB_ENABLE_MSOS_STRING)
 168:Generated_Source\PSoC5/USB_std.c ****                     if (USB_STRING_MSOS == USB_wValueLoReg)
 169:Generated_Source\PSoC5/USB_std.c ****                     {
 170:Generated_Source\PSoC5/USB_std.c ****                         pStr = (volatile uint8 *)& USB_MSOS_DESCRIPTOR[0u];
 171:Generated_Source\PSoC5/USB_std.c ****                     }
 172:Generated_Source\PSoC5/USB_std.c ****                 #endif /* (USB_ENABLE_MSOS_STRING) */
 173:Generated_Source\PSoC5/USB_std.c ****                 
 174:Generated_Source\PSoC5/USB_std.c ****                 /* SN string */
 175:Generated_Source\PSoC5/USB_std.c ****                 #if defined(USB_ENABLE_SN_STRING)
 176:Generated_Source\PSoC5/USB_std.c ****                     if ((USB_wValueLoReg != 0u) && 
 177:Generated_Source\PSoC5/USB_std.c ****                         (USB_wValueLoReg == USB_DEVICE0_DESCR[USB_DEVICE_DESCR_SN_SHIFT]))
 178:Generated_Source\PSoC5/USB_std.c ****                     {
 179:Generated_Source\PSoC5/USB_std.c ****                     #if defined(USB_ENABLE_IDSN_STRING)
 180:Generated_Source\PSoC5/USB_std.c ****                         /* Read DIE ID and generate string descriptor in RAM */
 181:Generated_Source\PSoC5/USB_std.c ****                         USB_ReadDieID(USB_idSerialNumberStringDescriptor);
 182:Generated_Source\PSoC5/USB_std.c ****                         pStr = USB_idSerialNumberStringDescriptor;
 183:Generated_Source\PSoC5/USB_std.c ****                     #elif defined(USB_ENABLE_FWSN_STRING)
ARM GAS  C:\Users\JEFFSN~1\AppData\Local\Temp\cczY2IKK.s 			page 6


 184:Generated_Source\PSoC5/USB_std.c ****                         
 185:Generated_Source\PSoC5/USB_std.c ****                         if(USB_snStringConfirm != USB_FALSE)
 186:Generated_Source\PSoC5/USB_std.c ****                         {
 187:Generated_Source\PSoC5/USB_std.c ****                             pStr = USB_fwSerialNumberStringDescriptor;
 188:Generated_Source\PSoC5/USB_std.c ****                         }
 189:Generated_Source\PSoC5/USB_std.c ****                         else
 190:Generated_Source\PSoC5/USB_std.c ****                         {
 191:Generated_Source\PSoC5/USB_std.c ****                             pStr = (volatile uint8 *)&USB_SN_STRING_DESCRIPTOR[0u];
 192:Generated_Source\PSoC5/USB_std.c ****                         }
 193:Generated_Source\PSoC5/USB_std.c ****                     #else
 194:Generated_Source\PSoC5/USB_std.c ****                         pStr = (volatile uint8 *)&USB_SN_STRING_DESCRIPTOR[0u];
 195:Generated_Source\PSoC5/USB_std.c ****                     #endif  /* (USB_ENABLE_IDSN_STRING) */
 196:Generated_Source\PSoC5/USB_std.c ****                     }
 197:Generated_Source\PSoC5/USB_std.c ****                 #endif /* (USB_ENABLE_SN_STRING) */
 198:Generated_Source\PSoC5/USB_std.c ****                 
 199:Generated_Source\PSoC5/USB_std.c ****                     if (*pStr != 0u)
 200:Generated_Source\PSoC5/USB_std.c ****                     {
 201:Generated_Source\PSoC5/USB_std.c ****                         USB_currentTD.count = *pStr;
 202:Generated_Source\PSoC5/USB_std.c ****                         USB_currentTD.pData = pStr;
 203:Generated_Source\PSoC5/USB_std.c ****                         requestHandled  = USB_InitControlRead();
 204:Generated_Source\PSoC5/USB_std.c ****                     }
 205:Generated_Source\PSoC5/USB_std.c ****                 }
 206:Generated_Source\PSoC5/USB_std.c ****             #endif /*  USB_ENABLE_STRINGS */
 207:Generated_Source\PSoC5/USB_std.c ****                 else
 208:Generated_Source\PSoC5/USB_std.c ****                 {
 209:Generated_Source\PSoC5/USB_std.c ****                     requestHandled = USB_DispatchClassRqst();
 210:Generated_Source\PSoC5/USB_std.c ****                 }
 211:Generated_Source\PSoC5/USB_std.c ****                 break;
 103              		.loc 1 211 0
 104 008a E9E1     		b	.L57
 105              	.L9:
 118:Generated_Source\PSoC5/USB_std.c ****                 {
 106              		.loc 1 118 0
 107 008c 8F4B     		ldr	r3, .L67
 108 008e DB78     		ldrb	r3, [r3, #3]
 109 0090 DBB2     		uxtb	r3, r3
 110 0092 022B     		cmp	r3, #2
 111 0094 25D1     		bne	.L11
 120:Generated_Source\PSoC5/USB_std.c ****                     
 112              		.loc 1 120 0
 113 0096 8D4B     		ldr	r3, .L67
 114 0098 9B78     		ldrb	r3, [r3, #2]
 115 009a DBB2     		uxtb	r3, r3
 116 009c 1846     		mov	r0, r3
 117 009e FFF7FEFF 		bl	USB_GetConfigTablePtr
 118 00a2 B860     		str	r0, [r7, #8]
 123:Generated_Source\PSoC5/USB_std.c ****                     {
 119              		.loc 1 123 0
 120 00a4 BB68     		ldr	r3, [r7, #8]
 121 00a6 002B     		cmp	r3, #0
 122 00a8 00F0DA81 		beq	.L57
 125:Generated_Source\PSoC5/USB_std.c ****                         USB_currentTD.count = (uint16)((uint16)(USB_currentTD.pData)[USB_CONFIG_DES
 123              		.loc 1 125 0
 124 00ac BB68     		ldr	r3, [r7, #8]
 125 00ae 5B68     		ldr	r3, [r3, #4]
 126 00b0 874A     		ldr	r2, .L67+4
 127 00b2 5360     		str	r3, [r2, #4]
ARM GAS  C:\Users\JEFFSN~1\AppData\Local\Temp\cczY2IKK.s 			page 7


 126:Generated_Source\PSoC5/USB_std.c ****                                                                             (USB_currentTD.pData)[U
 128              		.loc 1 126 0
 129 00b4 864B     		ldr	r3, .L67+4
 130 00b6 5B68     		ldr	r3, [r3, #4]
 131 00b8 0333     		adds	r3, r3, #3
 132 00ba 1B78     		ldrb	r3, [r3]
 133 00bc DBB2     		uxtb	r3, r3
 134 00be 9BB2     		uxth	r3, r3
 135 00c0 1B02     		lsls	r3, r3, #8
 136 00c2 9AB2     		uxth	r2, r3
 127:Generated_Source\PSoC5/USB_std.c ****                         requestHandled  = USB_InitControlRead();
 137              		.loc 1 127 0
 138 00c4 824B     		ldr	r3, .L67+4
 139 00c6 5B68     		ldr	r3, [r3, #4]
 140 00c8 0233     		adds	r3, r3, #2
 141 00ca 1B78     		ldrb	r3, [r3]
 142 00cc DBB2     		uxtb	r3, r3
 126:Generated_Source\PSoC5/USB_std.c ****                                                                             (USB_currentTD.pData)[U
 143              		.loc 1 126 0
 144 00ce 9BB2     		uxth	r3, r3
 145 00d0 1343     		orrs	r3, r3, r2
 146 00d2 9AB2     		uxth	r2, r3
 147 00d4 7E4B     		ldr	r3, .L67+4
 148 00d6 1A80     		strh	r2, [r3]	@ movhi
 128:Generated_Source\PSoC5/USB_std.c ****                     }
 149              		.loc 1 128 0
 150 00d8 FFF7FEFF 		bl	USB_InitControlRead
 151 00dc 0346     		mov	r3, r0
 152 00de FB75     		strb	r3, [r7, #23]
 153              		.loc 1 211 0
 154 00e0 BEE1     		b	.L57
 155              	.L11:
 149:Generated_Source\PSoC5/USB_std.c ****                 {
 156              		.loc 1 149 0
 157 00e2 7A4B     		ldr	r3, .L67
 158 00e4 DB78     		ldrb	r3, [r3, #3]
 159 00e6 DBB2     		uxtb	r3, r3
 160 00e8 032B     		cmp	r3, #3
 161 00ea 3ED1     		bne	.L13
 153:Generated_Source\PSoC5/USB_std.c ****                     pStr = (volatile uint8 *) &USB_STRING_DESCRIPTORS[0u];
 162              		.loc 1 153 0
 163 00ec 0023     		movs	r3, #0
 164 00ee FB73     		strb	r3, [r7, #15]
 154:Generated_Source\PSoC5/USB_std.c ****                     
 165              		.loc 1 154 0
 166 00f0 784B     		ldr	r3, .L67+8
 167 00f2 3B61     		str	r3, [r7, #16]
 156:Generated_Source\PSoC5/USB_std.c ****                     {
 168              		.loc 1 156 0
 169 00f4 09E0     		b	.L14
 170              	.L16:
 159:Generated_Source\PSoC5/USB_std.c ****                         /* Move to next string descriptor */
 171              		.loc 1 159 0
 172 00f6 3B69     		ldr	r3, [r7, #16]
 173 00f8 1B78     		ldrb	r3, [r3]
 174 00fa BB71     		strb	r3, [r7, #6]
 161:Generated_Source\PSoC5/USB_std.c ****                         nStr++;
ARM GAS  C:\Users\JEFFSN~1\AppData\Local\Temp\cczY2IKK.s 			page 8


 175              		.loc 1 161 0
 176 00fc BB79     		ldrb	r3, [r7, #6]	@ zero_extendqisi2
 177 00fe 3A69     		ldr	r2, [r7, #16]
 178 0100 1344     		add	r3, r3, r2
 179 0102 3B61     		str	r3, [r7, #16]
 162:Generated_Source\PSoC5/USB_std.c ****                     }
 180              		.loc 1 162 0
 181 0104 FB7B     		ldrb	r3, [r7, #15]	@ zero_extendqisi2
 182 0106 0133     		adds	r3, r3, #1
 183 0108 FB73     		strb	r3, [r7, #15]
 184              	.L14:
 156:Generated_Source\PSoC5/USB_std.c ****                     {
 185              		.loc 1 156 0
 186 010a 704B     		ldr	r3, .L67
 187 010c 9B78     		ldrb	r3, [r3, #2]
 188 010e DBB2     		uxtb	r3, r3
 189 0110 FA7B     		ldrb	r2, [r7, #15]	@ zero_extendqisi2
 190 0112 9A42     		cmp	r2, r3
 191 0114 04D2     		bcs	.L15
 156:Generated_Source\PSoC5/USB_std.c ****                     {
 192              		.loc 1 156 0 is_stmt 0 discriminator 1
 193 0116 3B69     		ldr	r3, [r7, #16]
 194 0118 1B78     		ldrb	r3, [r3]
 195 011a DBB2     		uxtb	r3, r3
 196 011c 002B     		cmp	r3, #0
 197 011e EAD1     		bne	.L16
 198              	.L15:
 176:Generated_Source\PSoC5/USB_std.c ****                         (USB_wValueLoReg == USB_DEVICE0_DESCR[USB_DEVICE_DESCR_SN_SHIFT]))
 199              		.loc 1 176 0 is_stmt 1
 200 0120 6A4B     		ldr	r3, .L67
 201 0122 9B78     		ldrb	r3, [r3, #2]
 202 0124 DBB2     		uxtb	r3, r3
 203 0126 002B     		cmp	r3, #0
 204 0128 0BD0     		beq	.L17
 177:Generated_Source\PSoC5/USB_std.c ****                     {
 205              		.loc 1 177 0 discriminator 1
 206 012a 684B     		ldr	r3, .L67
 207 012c 9B78     		ldrb	r3, [r3, #2]
 208 012e DAB2     		uxtb	r2, r3
 209 0130 694B     		ldr	r3, .L67+12
 210 0132 1B7C     		ldrb	r3, [r3, #16]	@ zero_extendqisi2
 176:Generated_Source\PSoC5/USB_std.c ****                         (USB_wValueLoReg == USB_DEVICE0_DESCR[USB_DEVICE_DESCR_SN_SHIFT]))
 211              		.loc 1 176 0 discriminator 1
 212 0134 9A42     		cmp	r2, r3
 213 0136 04D1     		bne	.L17
 181:Generated_Source\PSoC5/USB_std.c ****                         pStr = USB_idSerialNumberStringDescriptor;
 214              		.loc 1 181 0
 215 0138 6848     		ldr	r0, .L67+16
 216 013a FFF7FEFF 		bl	USB_ReadDieID
 182:Generated_Source\PSoC5/USB_std.c ****                     #elif defined(USB_ENABLE_FWSN_STRING)
 217              		.loc 1 182 0
 218 013e 674B     		ldr	r3, .L67+16
 219 0140 3B61     		str	r3, [r7, #16]
 220              	.L17:
 199:Generated_Source\PSoC5/USB_std.c ****                     {
 221              		.loc 1 199 0
 222 0142 3B69     		ldr	r3, [r7, #16]
ARM GAS  C:\Users\JEFFSN~1\AppData\Local\Temp\cczY2IKK.s 			page 9


 223 0144 1B78     		ldrb	r3, [r3]
 224 0146 DBB2     		uxtb	r3, r3
 225 0148 002B     		cmp	r3, #0
 226 014a 00F08981 		beq	.L57
 201:Generated_Source\PSoC5/USB_std.c ****                         USB_currentTD.pData = pStr;
 227              		.loc 1 201 0
 228 014e 3B69     		ldr	r3, [r7, #16]
 229 0150 1B78     		ldrb	r3, [r3]
 230 0152 DBB2     		uxtb	r3, r3
 231 0154 9AB2     		uxth	r2, r3
 232 0156 5E4B     		ldr	r3, .L67+4
 233 0158 1A80     		strh	r2, [r3]	@ movhi
 202:Generated_Source\PSoC5/USB_std.c ****                         requestHandled  = USB_InitControlRead();
 234              		.loc 1 202 0
 235 015a 5D4A     		ldr	r2, .L67+4
 236 015c 3B69     		ldr	r3, [r7, #16]
 237 015e 5360     		str	r3, [r2, #4]
 203:Generated_Source\PSoC5/USB_std.c ****                     }
 238              		.loc 1 203 0
 239 0160 FFF7FEFF 		bl	USB_InitControlRead
 240 0164 0346     		mov	r3, r0
 241 0166 FB75     		strb	r3, [r7, #23]
 242              		.loc 1 211 0
 243 0168 7AE1     		b	.L57
 244              	.L13:
 209:Generated_Source\PSoC5/USB_std.c ****                 }
 245              		.loc 1 209 0
 246 016a FFF7FEFF 		bl	USB_DispatchClassRqst
 247 016e 0346     		mov	r3, r0
 248 0170 FB75     		strb	r3, [r7, #23]
 249              		.loc 1 211 0
 250 0172 75E1     		b	.L57
 251              	.L4:
 212:Generated_Source\PSoC5/USB_std.c ****                 
 213:Generated_Source\PSoC5/USB_std.c ****             case USB_GET_STATUS:
 214:Generated_Source\PSoC5/USB_std.c ****                 switch (bmRequestType & USB_RQST_RCPT_MASK)
 252              		.loc 1 214 0
 253 0174 FB79     		ldrb	r3, [r7, #7]	@ zero_extendqisi2
 254 0176 03F00303 		and	r3, r3, #3
 255 017a 002B     		cmp	r3, #0
 256 017c 20D0     		beq	.L21
 257 017e 022B     		cmp	r3, #2
 258 0180 00D0     		beq	.L22
 215:Generated_Source\PSoC5/USB_std.c ****                 {
 216:Generated_Source\PSoC5/USB_std.c ****                     case USB_RQST_RCPT_EP:
 217:Generated_Source\PSoC5/USB_std.c ****                         USB_currentTD.count = USB_EP_STATUS_LENGTH;
 218:Generated_Source\PSoC5/USB_std.c ****                         USB_tBuffer[0u]     = USB_EP[USB_wIndexLoReg & USB_DIR_UNUSED].hwEpState;
 219:Generated_Source\PSoC5/USB_std.c ****                         USB_tBuffer[1u]     = 0u;
 220:Generated_Source\PSoC5/USB_std.c ****                         USB_currentTD.pData = &USB_tBuffer[0u];
 221:Generated_Source\PSoC5/USB_std.c ****                         
 222:Generated_Source\PSoC5/USB_std.c ****                         requestHandled  = USB_InitControlRead();
 223:Generated_Source\PSoC5/USB_std.c ****                         break;
 224:Generated_Source\PSoC5/USB_std.c ****                     case USB_RQST_RCPT_DEV:
 225:Generated_Source\PSoC5/USB_std.c ****                         USB_currentTD.count = USB_DEVICE_STATUS_LENGTH;
 226:Generated_Source\PSoC5/USB_std.c ****                         USB_tBuffer[0u]     = USB_deviceStatus;
 227:Generated_Source\PSoC5/USB_std.c ****                         USB_tBuffer[1u]     = 0u;
 228:Generated_Source\PSoC5/USB_std.c ****                         USB_currentTD.pData = &USB_tBuffer[0u];
ARM GAS  C:\Users\JEFFSN~1\AppData\Local\Temp\cczY2IKK.s 			page 10


 229:Generated_Source\PSoC5/USB_std.c ****                         
 230:Generated_Source\PSoC5/USB_std.c ****                         requestHandled  = USB_InitControlRead();
 231:Generated_Source\PSoC5/USB_std.c ****                         break;
 232:Generated_Source\PSoC5/USB_std.c ****                     default:    /* requestHandled is initialized as FALSE by default */
 233:Generated_Source\PSoC5/USB_std.c ****                         break;
 259              		.loc 1 233 0
 260 0182 30E0     		b	.L23
 261              	.L22:
 217:Generated_Source\PSoC5/USB_std.c ****                         USB_tBuffer[0u]     = USB_EP[USB_wIndexLoReg & USB_DIR_UNUSED].hwEpState;
 262              		.loc 1 217 0
 263 0184 524B     		ldr	r3, .L67+4
 264 0186 0222     		movs	r2, #2
 265 0188 1A80     		strh	r2, [r3]	@ movhi
 218:Generated_Source\PSoC5/USB_std.c ****                         USB_tBuffer[1u]     = 0u;
 266              		.loc 1 218 0
 267 018a 504B     		ldr	r3, .L67
 268 018c 1B79     		ldrb	r3, [r3, #4]
 269 018e DBB2     		uxtb	r3, r3
 270 0190 03F07F02 		and	r2, r3, #127
 271 0194 5249     		ldr	r1, .L67+20
 272 0196 1346     		mov	r3, r2
 273 0198 5B00     		lsls	r3, r3, #1
 274 019a 1344     		add	r3, r3, r2
 275 019c 9B00     		lsls	r3, r3, #2
 276 019e 0B44     		add	r3, r3, r1
 277 01a0 0233     		adds	r3, r3, #2
 278 01a2 1B78     		ldrb	r3, [r3]
 279 01a4 DAB2     		uxtb	r2, r3
 280 01a6 4F4B     		ldr	r3, .L67+24
 281 01a8 1A70     		strb	r2, [r3]
 219:Generated_Source\PSoC5/USB_std.c ****                         USB_currentTD.pData = &USB_tBuffer[0u];
 282              		.loc 1 219 0
 283 01aa 4E4B     		ldr	r3, .L67+24
 284 01ac 0022     		movs	r2, #0
 285 01ae 5A70     		strb	r2, [r3, #1]
 220:Generated_Source\PSoC5/USB_std.c ****                         
 286              		.loc 1 220 0
 287 01b0 474B     		ldr	r3, .L67+4
 288 01b2 4C4A     		ldr	r2, .L67+24
 289 01b4 5A60     		str	r2, [r3, #4]
 222:Generated_Source\PSoC5/USB_std.c ****                         break;
 290              		.loc 1 222 0
 291 01b6 FFF7FEFF 		bl	USB_InitControlRead
 292 01ba 0346     		mov	r3, r0
 293 01bc FB75     		strb	r3, [r7, #23]
 223:Generated_Source\PSoC5/USB_std.c ****                     case USB_RQST_RCPT_DEV:
 294              		.loc 1 223 0
 295 01be 12E0     		b	.L23
 296              	.L21:
 225:Generated_Source\PSoC5/USB_std.c ****                         USB_tBuffer[0u]     = USB_deviceStatus;
 297              		.loc 1 225 0
 298 01c0 434B     		ldr	r3, .L67+4
 299 01c2 0222     		movs	r2, #2
 300 01c4 1A80     		strh	r2, [r3]	@ movhi
 226:Generated_Source\PSoC5/USB_std.c ****                         USB_tBuffer[1u]     = 0u;
 301              		.loc 1 226 0
 302 01c6 484B     		ldr	r3, .L67+28
ARM GAS  C:\Users\JEFFSN~1\AppData\Local\Temp\cczY2IKK.s 			page 11


 303 01c8 1B78     		ldrb	r3, [r3]
 304 01ca DAB2     		uxtb	r2, r3
 305 01cc 454B     		ldr	r3, .L67+24
 306 01ce 1A70     		strb	r2, [r3]
 227:Generated_Source\PSoC5/USB_std.c ****                         USB_currentTD.pData = &USB_tBuffer[0u];
 307              		.loc 1 227 0
 308 01d0 444B     		ldr	r3, .L67+24
 309 01d2 0022     		movs	r2, #0
 310 01d4 5A70     		strb	r2, [r3, #1]
 228:Generated_Source\PSoC5/USB_std.c ****                         
 311              		.loc 1 228 0
 312 01d6 3E4B     		ldr	r3, .L67+4
 313 01d8 424A     		ldr	r2, .L67+24
 314 01da 5A60     		str	r2, [r3, #4]
 230:Generated_Source\PSoC5/USB_std.c ****                         break;
 315              		.loc 1 230 0
 316 01dc FFF7FEFF 		bl	USB_InitControlRead
 317 01e0 0346     		mov	r3, r0
 318 01e2 FB75     		strb	r3, [r7, #23]
 231:Generated_Source\PSoC5/USB_std.c ****                     default:    /* requestHandled is initialized as FALSE by default */
 319              		.loc 1 231 0
 320 01e4 00BF     		nop
 321              	.L23:
 234:Generated_Source\PSoC5/USB_std.c ****                 }
 235:Generated_Source\PSoC5/USB_std.c ****                 break;
 322              		.loc 1 235 0 discriminator 4
 323 01e6 42E1     		b	.L24
 324              	.L7:
 236:Generated_Source\PSoC5/USB_std.c ****                 
 237:Generated_Source\PSoC5/USB_std.c ****             case USB_GET_CONFIGURATION:
 238:Generated_Source\PSoC5/USB_std.c ****                 USB_currentTD.count = 1u;
 325              		.loc 1 238 0
 326 01e8 394B     		ldr	r3, .L67+4
 327 01ea 0122     		movs	r2, #1
 328 01ec 1A80     		strh	r2, [r3]	@ movhi
 239:Generated_Source\PSoC5/USB_std.c ****                 USB_currentTD.pData = (volatile uint8 *) &USB_configuration;
 329              		.loc 1 239 0
 330 01ee 384B     		ldr	r3, .L67+4
 331 01f0 3E4A     		ldr	r2, .L67+32
 332 01f2 5A60     		str	r2, [r3, #4]
 240:Generated_Source\PSoC5/USB_std.c ****                 requestHandled  = USB_InitControlRead();
 333              		.loc 1 240 0
 334 01f4 FFF7FEFF 		bl	USB_InitControlRead
 335 01f8 0346     		mov	r3, r0
 336 01fa FB75     		strb	r3, [r7, #23]
 241:Generated_Source\PSoC5/USB_std.c ****                 break;
 337              		.loc 1 241 0
 338 01fc 37E1     		b	.L24
 339              	.L8:
 242:Generated_Source\PSoC5/USB_std.c ****                 
 243:Generated_Source\PSoC5/USB_std.c ****             case USB_GET_INTERFACE:
 244:Generated_Source\PSoC5/USB_std.c ****                 USB_currentTD.count = 1u;
 340              		.loc 1 244 0
 341 01fe 344B     		ldr	r3, .L67+4
 342 0200 0122     		movs	r2, #1
 343 0202 1A80     		strh	r2, [r3]	@ movhi
 245:Generated_Source\PSoC5/USB_std.c ****                 USB_currentTD.pData = (volatile uint8 *) &USB_interfaceSetting[USB_wIndexLoReg];
ARM GAS  C:\Users\JEFFSN~1\AppData\Local\Temp\cczY2IKK.s 			page 12


 344              		.loc 1 245 0
 345 0204 314B     		ldr	r3, .L67
 346 0206 1B79     		ldrb	r3, [r3, #4]
 347 0208 DBB2     		uxtb	r3, r3
 348 020a 1A46     		mov	r2, r3
 349 020c 384B     		ldr	r3, .L67+36
 350 020e 1344     		add	r3, r3, r2
 351 0210 2F4A     		ldr	r2, .L67+4
 352 0212 5360     		str	r3, [r2, #4]
 246:Generated_Source\PSoC5/USB_std.c ****                 requestHandled  = USB_InitControlRead();
 353              		.loc 1 246 0
 354 0214 FFF7FEFF 		bl	USB_InitControlRead
 355 0218 0346     		mov	r3, r0
 356 021a FB75     		strb	r3, [r7, #23]
 247:Generated_Source\PSoC5/USB_std.c ****                 break;
 357              		.loc 1 247 0
 358 021c 27E1     		b	.L24
 359              	.L2:
 248:Generated_Source\PSoC5/USB_std.c ****                 
 249:Generated_Source\PSoC5/USB_std.c ****             default: /* requestHandled is initialized as FALSE by default */
 250:Generated_Source\PSoC5/USB_std.c ****                 break;
 251:Generated_Source\PSoC5/USB_std.c ****         }
 252:Generated_Source\PSoC5/USB_std.c ****     }
 253:Generated_Source\PSoC5/USB_std.c ****     else
 254:Generated_Source\PSoC5/USB_std.c ****     {
 255:Generated_Source\PSoC5/USB_std.c ****         /* Control Write */
 256:Generated_Source\PSoC5/USB_std.c ****         switch (USB_bRequestReg)
 360              		.loc 1 256 0
 361 021e 2B4B     		ldr	r3, .L67
 362 0220 5B78     		ldrb	r3, [r3, #1]
 363 0222 DBB2     		uxtb	r3, r3
 364 0224 013B     		subs	r3, r3, #1
 365 0226 0A2B     		cmp	r3, #10
 366 0228 00F21C81 		bhi	.L58
 367 022c 01A2     		adr	r2, .L27
 368 022e 52F823F0 		ldr	pc, [r2, r3, lsl #2]
 369 0232 00BF     		.p2align 2
 370              	.L27:
 371 0234 41030000 		.word	.L26+1
 372 0238 65040000 		.word	.L58+1
 373 023c CF030000 		.word	.L28+1
 374 0240 65040000 		.word	.L58+1
 375 0244 61020000 		.word	.L29+1
 376 0248 65040000 		.word	.L58+1
 377 024c 65040000 		.word	.L58+1
 378 0250 65040000 		.word	.L58+1
 379 0254 75020000 		.word	.L30+1
 380 0258 65040000 		.word	.L58+1
 381 025c FD020000 		.word	.L31+1
 382              		.p2align 1
 383              	.L29:
 257:Generated_Source\PSoC5/USB_std.c ****         {
 258:Generated_Source\PSoC5/USB_std.c ****             case USB_SET_ADDRESS:
 259:Generated_Source\PSoC5/USB_std.c ****                 /* Store address to be set in USB_NoDataControlStatusStage(). */
 260:Generated_Source\PSoC5/USB_std.c ****                 USB_deviceAddress = (uint8) USB_wValueLoReg;
 384              		.loc 1 260 0
 385 0260 1A4B     		ldr	r3, .L67
ARM GAS  C:\Users\JEFFSN~1\AppData\Local\Temp\cczY2IKK.s 			page 13


 386 0262 9B78     		ldrb	r3, [r3, #2]
 387 0264 DAB2     		uxtb	r2, r3
 388 0266 234B     		ldr	r3, .L67+40
 389 0268 1A70     		strb	r2, [r3]
 261:Generated_Source\PSoC5/USB_std.c ****                 requestHandled = USB_InitNoDataControlTransfer();
 390              		.loc 1 261 0
 391 026a FFF7FEFF 		bl	USB_InitNoDataControlTransfer
 392 026e 0346     		mov	r3, r0
 393 0270 FB75     		strb	r3, [r7, #23]
 262:Generated_Source\PSoC5/USB_std.c ****                 break;
 394              		.loc 1 262 0
 395 0272 FCE0     		b	.L24
 396              	.L30:
 263:Generated_Source\PSoC5/USB_std.c ****                 
 264:Generated_Source\PSoC5/USB_std.c ****             case USB_SET_CONFIGURATION:
 265:Generated_Source\PSoC5/USB_std.c ****                 configurationN = USB_wValueLoReg;
 397              		.loc 1 265 0
 398 0274 154B     		ldr	r3, .L67
 399 0276 9B78     		ldrb	r3, [r3, #2]
 400 0278 7B71     		strb	r3, [r7, #5]
 266:Generated_Source\PSoC5/USB_std.c ****                 
 267:Generated_Source\PSoC5/USB_std.c ****                 /* Verify that configuration descriptor exists */
 268:Generated_Source\PSoC5/USB_std.c ****                 if(configurationN > 0u)
 401              		.loc 1 268 0
 402 027a 7B79     		ldrb	r3, [r7, #5]	@ zero_extendqisi2
 403 027c 002B     		cmp	r3, #0
 404 027e 06D0     		beq	.L32
 269:Generated_Source\PSoC5/USB_std.c ****                 {
 270:Generated_Source\PSoC5/USB_std.c ****                     pTmp = USB_GetConfigTablePtr((uint8) configurationN - 1u);
 405              		.loc 1 270 0
 406 0280 7B79     		ldrb	r3, [r7, #5]
 407 0282 013B     		subs	r3, r3, #1
 408 0284 DBB2     		uxtb	r3, r3
 409 0286 1846     		mov	r0, r3
 410 0288 FFF7FEFF 		bl	USB_GetConfigTablePtr
 411 028c B860     		str	r0, [r7, #8]
 412              	.L32:
 271:Generated_Source\PSoC5/USB_std.c ****                 }
 272:Generated_Source\PSoC5/USB_std.c ****                 
 273:Generated_Source\PSoC5/USB_std.c ****                 /* Responds with a Request Error when configuration number is invalid */
 274:Generated_Source\PSoC5/USB_std.c ****                 if (((configurationN > 0u) && (pTmp != NULL)) || (configurationN == 0u))
 413              		.loc 1 274 0
 414 028e 7B79     		ldrb	r3, [r7, #5]	@ zero_extendqisi2
 415 0290 002B     		cmp	r3, #0
 416 0292 02D0     		beq	.L33
 417              		.loc 1 274 0 is_stmt 0 discriminator 1
 418 0294 BB68     		ldr	r3, [r7, #8]
 419 0296 002B     		cmp	r3, #0
 420 0298 03D1     		bne	.L34
 421              	.L33:
 422              		.loc 1 274 0 discriminator 3
 423 029a 7B79     		ldrb	r3, [r7, #5]	@ zero_extendqisi2
 424 029c 002B     		cmp	r3, #0
 425 029e 40F0E380 		bne	.L59
 426              	.L34:
 275:Generated_Source\PSoC5/USB_std.c ****                 {
 276:Generated_Source\PSoC5/USB_std.c ****                     /* Set new configuration if it has been changed */
ARM GAS  C:\Users\JEFFSN~1\AppData\Local\Temp\cczY2IKK.s 			page 14


 277:Generated_Source\PSoC5/USB_std.c ****                     if(configurationN != USB_configuration)
 427              		.loc 1 277 0 is_stmt 1
 428 02a2 124B     		ldr	r3, .L67+32
 429 02a4 1B78     		ldrb	r3, [r3]
 430 02a6 DBB2     		uxtb	r3, r3
 431 02a8 7A79     		ldrb	r2, [r7, #5]	@ zero_extendqisi2
 432 02aa 9A42     		cmp	r2, r3
 433 02ac 08D0     		beq	.L36
 278:Generated_Source\PSoC5/USB_std.c ****                     {
 279:Generated_Source\PSoC5/USB_std.c ****                         USB_configuration = (uint8) configurationN;
 434              		.loc 1 279 0
 435 02ae 0F4A     		ldr	r2, .L67+32
 436 02b0 7B79     		ldrb	r3, [r7, #5]
 437 02b2 1370     		strb	r3, [r2]
 280:Generated_Source\PSoC5/USB_std.c ****                         USB_configurationChanged = USB_TRUE;
 438              		.loc 1 280 0
 439 02b4 104B     		ldr	r3, .L67+44
 440 02b6 0122     		movs	r2, #1
 441 02b8 1A70     		strb	r2, [r3]
 281:Generated_Source\PSoC5/USB_std.c ****                         USB_Config(USB_TRUE);
 442              		.loc 1 281 0
 443 02ba 0120     		movs	r0, #1
 444 02bc FFF7FEFF 		bl	USB_Config
 445              	.L36:
 282:Generated_Source\PSoC5/USB_std.c ****                     }
 283:Generated_Source\PSoC5/USB_std.c ****                     requestHandled = USB_InitNoDataControlTransfer();
 446              		.loc 1 283 0
 447 02c0 FFF7FEFF 		bl	USB_InitNoDataControlTransfer
 448 02c4 0346     		mov	r3, r0
 449 02c6 FB75     		strb	r3, [r7, #23]
 284:Generated_Source\PSoC5/USB_std.c ****                 }
 285:Generated_Source\PSoC5/USB_std.c ****                 break;
 450              		.loc 1 285 0
 451 02c8 CEE0     		b	.L59
 452              	.L68:
 453 02ca 00BF     		.align	2
 454              	.L67:
 455 02cc 00600040 		.word	1073766400
 456 02d0 00000000 		.word	USB_currentTD
 457 02d4 00000000 		.word	USB_STRING_DESCRIPTORS
 458 02d8 00000000 		.word	USB_DEVICE0_DESCR
 459 02dc 00000000 		.word	USB_idSerialNumberStringDescriptor
 460 02e0 00000000 		.word	USB_EP
 461 02e4 00000000 		.word	USB_tBuffer.5213
 462 02e8 00000000 		.word	USB_deviceStatus
 463 02ec 00000000 		.word	USB_configuration
 464 02f0 00000000 		.word	USB_interfaceSetting
 465 02f4 00000000 		.word	USB_deviceAddress
 466 02f8 00000000 		.word	USB_configurationChanged
 467              	.L31:
 286:Generated_Source\PSoC5/USB_std.c ****                 
 287:Generated_Source\PSoC5/USB_std.c ****             case USB_SET_INTERFACE:
 288:Generated_Source\PSoC5/USB_std.c ****                 if (0u != USB_ValidateAlternateSetting())
 468              		.loc 1 288 0
 469 02fc FFF7FEFF 		bl	USB_ValidateAlternateSetting
 470 0300 0346     		mov	r3, r0
 471 0302 002B     		cmp	r3, #0
ARM GAS  C:\Users\JEFFSN~1\AppData\Local\Temp\cczY2IKK.s 			page 15


 472 0304 00F0B280 		beq	.L60
 289:Generated_Source\PSoC5/USB_std.c ****                 {
 290:Generated_Source\PSoC5/USB_std.c ****                     /* Get interface number from the request. */
 291:Generated_Source\PSoC5/USB_std.c ****                     interfaceNumber = USB_wIndexLoReg;
 473              		.loc 1 291 0
 474 0308 5B4B     		ldr	r3, .L69
 475 030a 1B79     		ldrb	r3, [r3, #4]
 476 030c 3B71     		strb	r3, [r7, #4]
 292:Generated_Source\PSoC5/USB_std.c ****                     USB_interfaceNumber = (uint8) USB_wIndexLoReg;
 477              		.loc 1 292 0
 478 030e 5A4B     		ldr	r3, .L69
 479 0310 1B79     		ldrb	r3, [r3, #4]
 480 0312 DAB2     		uxtb	r2, r3
 481 0314 594B     		ldr	r3, .L69+4
 482 0316 1A70     		strb	r2, [r3]
 293:Generated_Source\PSoC5/USB_std.c ****                      
 294:Generated_Source\PSoC5/USB_std.c ****                     /* Check if alternate settings is changed for interface. */
 295:Generated_Source\PSoC5/USB_std.c ****                     if (USB_interfaceSettingLast[interfaceNumber] != USB_interfaceSetting[interface
 483              		.loc 1 295 0
 484 0318 3B79     		ldrb	r3, [r7, #4]	@ zero_extendqisi2
 485 031a 594A     		ldr	r2, .L69+8
 486 031c D35C     		ldrb	r3, [r2, r3]
 487 031e DAB2     		uxtb	r2, r3
 488 0320 3B79     		ldrb	r3, [r7, #4]	@ zero_extendqisi2
 489 0322 5849     		ldr	r1, .L69+12
 490 0324 CB5C     		ldrb	r3, [r1, r3]
 491 0326 DBB2     		uxtb	r3, r3
 492 0328 9A42     		cmp	r2, r3
 493 032a 04D0     		beq	.L38
 296:Generated_Source\PSoC5/USB_std.c ****                     {
 297:Generated_Source\PSoC5/USB_std.c ****                         USB_configurationChanged = USB_TRUE;
 494              		.loc 1 297 0
 495 032c 564B     		ldr	r3, .L69+16
 496 032e 0122     		movs	r2, #1
 497 0330 1A70     		strb	r2, [r3]
 298:Generated_Source\PSoC5/USB_std.c ****                     
 299:Generated_Source\PSoC5/USB_std.c ****                         /* Change alternate setting for the endpoints. */
 300:Generated_Source\PSoC5/USB_std.c ****                     #if (USB_EP_MANAGEMENT_MANUAL && USB_EP_ALLOC_DYNAMIC)
 301:Generated_Source\PSoC5/USB_std.c ****                         USB_Config(USB_FALSE);
 302:Generated_Source\PSoC5/USB_std.c ****                     #else
 303:Generated_Source\PSoC5/USB_std.c ****                         USB_ConfigAltChanged();
 498              		.loc 1 303 0
 499 0332 FFF7FEFF 		bl	USB_ConfigAltChanged
 500              	.L38:
 304:Generated_Source\PSoC5/USB_std.c ****                     #endif /* (USB_EP_MANAGEMENT_MANUAL && USB_EP_ALLOC_DYNAMIC) */
 305:Generated_Source\PSoC5/USB_std.c ****                     }
 306:Generated_Source\PSoC5/USB_std.c ****                     
 307:Generated_Source\PSoC5/USB_std.c ****                     requestHandled = USB_InitNoDataControlTransfer();
 501              		.loc 1 307 0
 502 0336 FFF7FEFF 		bl	USB_InitNoDataControlTransfer
 503 033a 0346     		mov	r3, r0
 504 033c FB75     		strb	r3, [r7, #23]
 308:Generated_Source\PSoC5/USB_std.c ****                 }
 309:Generated_Source\PSoC5/USB_std.c ****                 break;
 505              		.loc 1 309 0
 506 033e 95E0     		b	.L60
 507              	.L26:
ARM GAS  C:\Users\JEFFSN~1\AppData\Local\Temp\cczY2IKK.s 			page 16


 310:Generated_Source\PSoC5/USB_std.c ****                 
 311:Generated_Source\PSoC5/USB_std.c ****             case USB_CLEAR_FEATURE:
 312:Generated_Source\PSoC5/USB_std.c ****                 switch (bmRequestType & USB_RQST_RCPT_MASK)
 508              		.loc 1 312 0
 509 0340 FB79     		ldrb	r3, [r7, #7]	@ zero_extendqisi2
 510 0342 03F00303 		and	r3, r3, #3
 511 0346 012B     		cmp	r3, #1
 512 0348 20D0     		beq	.L40
 513 034a 012B     		cmp	r3, #1
 514 034c 0CD3     		bcc	.L41
 515 034e 022B     		cmp	r3, #2
 516 0350 00D0     		beq	.L42
 313:Generated_Source\PSoC5/USB_std.c ****                 {
 314:Generated_Source\PSoC5/USB_std.c ****                     case USB_RQST_RCPT_EP:
 315:Generated_Source\PSoC5/USB_std.c ****                         if (USB_wValueLoReg == USB_ENDPOINT_HALT)
 316:Generated_Source\PSoC5/USB_std.c ****                         {
 317:Generated_Source\PSoC5/USB_std.c ****                             requestHandled = USB_ClearEndpointHalt();
 318:Generated_Source\PSoC5/USB_std.c ****                         }
 319:Generated_Source\PSoC5/USB_std.c ****                         break;
 320:Generated_Source\PSoC5/USB_std.c ****                     case USB_RQST_RCPT_DEV:
 321:Generated_Source\PSoC5/USB_std.c ****                         /* Clear device REMOTE_WAKEUP */
 322:Generated_Source\PSoC5/USB_std.c ****                         if (USB_wValueLoReg == USB_DEVICE_REMOTE_WAKEUP)
 323:Generated_Source\PSoC5/USB_std.c ****                         {
 324:Generated_Source\PSoC5/USB_std.c ****                             USB_deviceStatus &= (uint8)~USB_DEVICE_STATUS_REMOTE_WAKEUP;
 325:Generated_Source\PSoC5/USB_std.c ****                             requestHandled = USB_InitNoDataControlTransfer();
 326:Generated_Source\PSoC5/USB_std.c ****                         }
 327:Generated_Source\PSoC5/USB_std.c ****                         break;
 328:Generated_Source\PSoC5/USB_std.c ****                     case USB_RQST_RCPT_IFC:
 329:Generated_Source\PSoC5/USB_std.c ****                         /* Validate interfaceNumber */
 330:Generated_Source\PSoC5/USB_std.c ****                         if (USB_wIndexLoReg < USB_MAX_INTERFACES_NUMBER)
 331:Generated_Source\PSoC5/USB_std.c ****                         {
 332:Generated_Source\PSoC5/USB_std.c ****                             USB_interfaceStatus[USB_wIndexLoReg] &= (uint8) ~USB_wValueLoReg;
 333:Generated_Source\PSoC5/USB_std.c ****                             requestHandled = USB_InitNoDataControlTransfer();
 334:Generated_Source\PSoC5/USB_std.c ****                         }
 335:Generated_Source\PSoC5/USB_std.c ****                         break;
 336:Generated_Source\PSoC5/USB_std.c ****                     default:    /* requestHandled is initialized as FALSE by default */
 337:Generated_Source\PSoC5/USB_std.c ****                         break;
 517              		.loc 1 337 0
 518 0352 3BE0     		b	.L44
 519              	.L42:
 315:Generated_Source\PSoC5/USB_std.c ****                         {
 520              		.loc 1 315 0
 521 0354 484B     		ldr	r3, .L69
 522 0356 9B78     		ldrb	r3, [r3, #2]
 523 0358 DBB2     		uxtb	r3, r3
 524 035a 002B     		cmp	r3, #0
 525 035c 31D1     		bne	.L61
 317:Generated_Source\PSoC5/USB_std.c ****                         }
 526              		.loc 1 317 0
 527 035e FFF7FEFF 		bl	USB_ClearEndpointHalt
 528 0362 0346     		mov	r3, r0
 529 0364 FB75     		strb	r3, [r7, #23]
 319:Generated_Source\PSoC5/USB_std.c ****                     case USB_RQST_RCPT_DEV:
 530              		.loc 1 319 0
 531 0366 2CE0     		b	.L61
 532              	.L41:
 322:Generated_Source\PSoC5/USB_std.c ****                         {
ARM GAS  C:\Users\JEFFSN~1\AppData\Local\Temp\cczY2IKK.s 			page 17


 533              		.loc 1 322 0
 534 0368 434B     		ldr	r3, .L69
 535 036a 9B78     		ldrb	r3, [r3, #2]
 536 036c DBB2     		uxtb	r3, r3
 537 036e 012B     		cmp	r3, #1
 538 0370 29D1     		bne	.L62
 324:Generated_Source\PSoC5/USB_std.c ****                             requestHandled = USB_InitNoDataControlTransfer();
 539              		.loc 1 324 0
 540 0372 464B     		ldr	r3, .L69+20
 541 0374 1B78     		ldrb	r3, [r3]
 542 0376 DBB2     		uxtb	r3, r3
 543 0378 23F00203 		bic	r3, r3, #2
 544 037c DAB2     		uxtb	r2, r3
 545 037e 434B     		ldr	r3, .L69+20
 546 0380 1A70     		strb	r2, [r3]
 325:Generated_Source\PSoC5/USB_std.c ****                         }
 547              		.loc 1 325 0
 548 0382 FFF7FEFF 		bl	USB_InitNoDataControlTransfer
 549 0386 0346     		mov	r3, r0
 550 0388 FB75     		strb	r3, [r7, #23]
 327:Generated_Source\PSoC5/USB_std.c ****                     case USB_RQST_RCPT_IFC:
 551              		.loc 1 327 0
 552 038a 1CE0     		b	.L62
 553              	.L40:
 330:Generated_Source\PSoC5/USB_std.c ****                         {
 554              		.loc 1 330 0
 555 038c 3A4B     		ldr	r3, .L69
 556 038e 1B79     		ldrb	r3, [r3, #4]
 557 0390 DBB2     		uxtb	r3, r3
 558 0392 012B     		cmp	r3, #1
 559 0394 19D8     		bhi	.L63
 332:Generated_Source\PSoC5/USB_std.c ****                             requestHandled = USB_InitNoDataControlTransfer();
 560              		.loc 1 332 0
 561 0396 384B     		ldr	r3, .L69
 562 0398 9B78     		ldrb	r3, [r3, #2]
 563 039a DBB2     		uxtb	r3, r3
 564 039c DB43     		mvns	r3, r3
 565 039e DBB2     		uxtb	r3, r3
 566 03a0 354A     		ldr	r2, .L69
 567 03a2 1279     		ldrb	r2, [r2, #4]
 568 03a4 D2B2     		uxtb	r2, r2
 569 03a6 1146     		mov	r1, r2
 570 03a8 1046     		mov	r0, r2
 571 03aa 394A     		ldr	r2, .L69+24
 572 03ac 125C     		ldrb	r2, [r2, r0]
 573 03ae D2B2     		uxtb	r2, r2
 574 03b0 1340     		ands	r3, r3, r2
 575 03b2 DAB2     		uxtb	r2, r3
 576 03b4 364B     		ldr	r3, .L69+24
 577 03b6 5A54     		strb	r2, [r3, r1]
 333:Generated_Source\PSoC5/USB_std.c ****                         }
 578              		.loc 1 333 0
 579 03b8 FFF7FEFF 		bl	USB_InitNoDataControlTransfer
 580 03bc 0346     		mov	r3, r0
 581 03be FB75     		strb	r3, [r7, #23]
 335:Generated_Source\PSoC5/USB_std.c ****                     default:    /* requestHandled is initialized as FALSE by default */
 582              		.loc 1 335 0
ARM GAS  C:\Users\JEFFSN~1\AppData\Local\Temp\cczY2IKK.s 			page 18


 583 03c0 03E0     		b	.L63
 584              	.L61:
 319:Generated_Source\PSoC5/USB_std.c ****                     case USB_RQST_RCPT_DEV:
 585              		.loc 1 319 0
 586 03c2 00BF     		nop
 587 03c4 53E0     		b	.L24
 588              	.L62:
 327:Generated_Source\PSoC5/USB_std.c ****                     case USB_RQST_RCPT_IFC:
 589              		.loc 1 327 0
 590 03c6 00BF     		nop
 591 03c8 51E0     		b	.L24
 592              	.L63:
 335:Generated_Source\PSoC5/USB_std.c ****                     default:    /* requestHandled is initialized as FALSE by default */
 593              		.loc 1 335 0
 594 03ca 00BF     		nop
 595              	.L44:
 338:Generated_Source\PSoC5/USB_std.c ****                 }
 339:Generated_Source\PSoC5/USB_std.c ****                 break;
 596              		.loc 1 339 0 discriminator 7
 597 03cc 4FE0     		b	.L24
 598              	.L28:
 340:Generated_Source\PSoC5/USB_std.c ****                 
 341:Generated_Source\PSoC5/USB_std.c ****             case USB_SET_FEATURE:
 342:Generated_Source\PSoC5/USB_std.c ****                 switch (bmRequestType & USB_RQST_RCPT_MASK)
 599              		.loc 1 342 0
 600 03ce FB79     		ldrb	r3, [r7, #7]	@ zero_extendqisi2
 601 03d0 03F00303 		and	r3, r3, #3
 602 03d4 012B     		cmp	r3, #1
 603 03d6 20D0     		beq	.L48
 604 03d8 012B     		cmp	r3, #1
 605 03da 0CD3     		bcc	.L49
 606 03dc 022B     		cmp	r3, #2
 607 03de 00D0     		beq	.L50
 343:Generated_Source\PSoC5/USB_std.c ****                 {
 344:Generated_Source\PSoC5/USB_std.c ****                     case USB_RQST_RCPT_EP:
 345:Generated_Source\PSoC5/USB_std.c ****                         if (USB_wValueLoReg == USB_ENDPOINT_HALT)
 346:Generated_Source\PSoC5/USB_std.c ****                         {
 347:Generated_Source\PSoC5/USB_std.c ****                             requestHandled = USB_SetEndpointHalt();
 348:Generated_Source\PSoC5/USB_std.c ****                         }
 349:Generated_Source\PSoC5/USB_std.c ****                         break;
 350:Generated_Source\PSoC5/USB_std.c ****                         
 351:Generated_Source\PSoC5/USB_std.c ****                     case USB_RQST_RCPT_DEV:
 352:Generated_Source\PSoC5/USB_std.c ****                         /* Set device REMOTE_WAKEUP */
 353:Generated_Source\PSoC5/USB_std.c ****                         if (USB_wValueLoReg == USB_DEVICE_REMOTE_WAKEUP)
 354:Generated_Source\PSoC5/USB_std.c ****                         {
 355:Generated_Source\PSoC5/USB_std.c ****                             USB_deviceStatus |= USB_DEVICE_STATUS_REMOTE_WAKEUP;
 356:Generated_Source\PSoC5/USB_std.c ****                             requestHandled = USB_InitNoDataControlTransfer();
 357:Generated_Source\PSoC5/USB_std.c ****                         }
 358:Generated_Source\PSoC5/USB_std.c ****                         break;
 359:Generated_Source\PSoC5/USB_std.c ****                         
 360:Generated_Source\PSoC5/USB_std.c ****                     case USB_RQST_RCPT_IFC:
 361:Generated_Source\PSoC5/USB_std.c ****                         /* Validate interfaceNumber */
 362:Generated_Source\PSoC5/USB_std.c ****                         if (USB_wIndexLoReg < USB_MAX_INTERFACES_NUMBER)
 363:Generated_Source\PSoC5/USB_std.c ****                         {
 364:Generated_Source\PSoC5/USB_std.c ****                             USB_interfaceStatus[USB_wIndexLoReg] &= (uint8) ~USB_wValueLoReg;
 365:Generated_Source\PSoC5/USB_std.c ****                             requestHandled = USB_InitNoDataControlTransfer();
 366:Generated_Source\PSoC5/USB_std.c ****                         }
ARM GAS  C:\Users\JEFFSN~1\AppData\Local\Temp\cczY2IKK.s 			page 19


 367:Generated_Source\PSoC5/USB_std.c ****                         break;
 368:Generated_Source\PSoC5/USB_std.c ****                     
 369:Generated_Source\PSoC5/USB_std.c ****                     default:    /* requestHandled is initialized as FALSE by default */
 370:Generated_Source\PSoC5/USB_std.c ****                         break;
 608              		.loc 1 370 0
 609 03e0 3BE0     		b	.L52
 610              	.L50:
 345:Generated_Source\PSoC5/USB_std.c ****                         {
 611              		.loc 1 345 0
 612 03e2 254B     		ldr	r3, .L69
 613 03e4 9B78     		ldrb	r3, [r3, #2]
 614 03e6 DBB2     		uxtb	r3, r3
 615 03e8 002B     		cmp	r3, #0
 616 03ea 31D1     		bne	.L64
 347:Generated_Source\PSoC5/USB_std.c ****                         }
 617              		.loc 1 347 0
 618 03ec FFF7FEFF 		bl	USB_SetEndpointHalt
 619 03f0 0346     		mov	r3, r0
 620 03f2 FB75     		strb	r3, [r7, #23]
 349:Generated_Source\PSoC5/USB_std.c ****                         
 621              		.loc 1 349 0
 622 03f4 2CE0     		b	.L64
 623              	.L49:
 353:Generated_Source\PSoC5/USB_std.c ****                         {
 624              		.loc 1 353 0
 625 03f6 204B     		ldr	r3, .L69
 626 03f8 9B78     		ldrb	r3, [r3, #2]
 627 03fa DBB2     		uxtb	r3, r3
 628 03fc 012B     		cmp	r3, #1
 629 03fe 29D1     		bne	.L65
 355:Generated_Source\PSoC5/USB_std.c ****                             requestHandled = USB_InitNoDataControlTransfer();
 630              		.loc 1 355 0
 631 0400 224B     		ldr	r3, .L69+20
 632 0402 1B78     		ldrb	r3, [r3]
 633 0404 DBB2     		uxtb	r3, r3
 634 0406 43F00203 		orr	r3, r3, #2
 635 040a DAB2     		uxtb	r2, r3
 636 040c 1F4B     		ldr	r3, .L69+20
 637 040e 1A70     		strb	r2, [r3]
 356:Generated_Source\PSoC5/USB_std.c ****                         }
 638              		.loc 1 356 0
 639 0410 FFF7FEFF 		bl	USB_InitNoDataControlTransfer
 640 0414 0346     		mov	r3, r0
 641 0416 FB75     		strb	r3, [r7, #23]
 358:Generated_Source\PSoC5/USB_std.c ****                         
 642              		.loc 1 358 0
 643 0418 1CE0     		b	.L65
 644              	.L48:
 362:Generated_Source\PSoC5/USB_std.c ****                         {
 645              		.loc 1 362 0
 646 041a 174B     		ldr	r3, .L69
 647 041c 1B79     		ldrb	r3, [r3, #4]
 648 041e DBB2     		uxtb	r3, r3
 649 0420 012B     		cmp	r3, #1
 650 0422 19D8     		bhi	.L66
 364:Generated_Source\PSoC5/USB_std.c ****                             requestHandled = USB_InitNoDataControlTransfer();
 651              		.loc 1 364 0
ARM GAS  C:\Users\JEFFSN~1\AppData\Local\Temp\cczY2IKK.s 			page 20


 652 0424 144B     		ldr	r3, .L69
 653 0426 9B78     		ldrb	r3, [r3, #2]
 654 0428 DBB2     		uxtb	r3, r3
 655 042a DB43     		mvns	r3, r3
 656 042c DBB2     		uxtb	r3, r3
 657 042e 124A     		ldr	r2, .L69
 658 0430 1279     		ldrb	r2, [r2, #4]
 659 0432 D2B2     		uxtb	r2, r2
 660 0434 1146     		mov	r1, r2
 661 0436 1046     		mov	r0, r2
 662 0438 154A     		ldr	r2, .L69+24
 663 043a 125C     		ldrb	r2, [r2, r0]
 664 043c D2B2     		uxtb	r2, r2
 665 043e 1340     		ands	r3, r3, r2
 666 0440 DAB2     		uxtb	r2, r3
 667 0442 134B     		ldr	r3, .L69+24
 668 0444 5A54     		strb	r2, [r3, r1]
 365:Generated_Source\PSoC5/USB_std.c ****                         }
 669              		.loc 1 365 0
 670 0446 FFF7FEFF 		bl	USB_InitNoDataControlTransfer
 671 044a 0346     		mov	r3, r0
 672 044c FB75     		strb	r3, [r7, #23]
 367:Generated_Source\PSoC5/USB_std.c ****                     
 673              		.loc 1 367 0
 674 044e 03E0     		b	.L66
 675              	.L64:
 349:Generated_Source\PSoC5/USB_std.c ****                         
 676              		.loc 1 349 0
 677 0450 00BF     		nop
 678 0452 0CE0     		b	.L24
 679              	.L65:
 358:Generated_Source\PSoC5/USB_std.c ****                         
 680              		.loc 1 358 0
 681 0454 00BF     		nop
 682 0456 0AE0     		b	.L24
 683              	.L66:
 367:Generated_Source\PSoC5/USB_std.c ****                     
 684              		.loc 1 367 0
 685 0458 00BF     		nop
 686              	.L52:
 371:Generated_Source\PSoC5/USB_std.c ****                 }
 372:Generated_Source\PSoC5/USB_std.c ****                 break;
 687              		.loc 1 372 0 discriminator 11
 688 045a 08E0     		b	.L24
 689              	.L56:
 250:Generated_Source\PSoC5/USB_std.c ****         }
 690              		.loc 1 250 0
 691 045c 00BF     		nop
 692 045e 06E0     		b	.L24
 693              	.L57:
 211:Generated_Source\PSoC5/USB_std.c ****                 
 694              		.loc 1 211 0
 695 0460 00BF     		nop
 696 0462 04E0     		b	.L24
 697              	.L58:
 373:Generated_Source\PSoC5/USB_std.c ****                 
 374:Generated_Source\PSoC5/USB_std.c ****             default:    /* requestHandled is initialized as FALSE by default */
ARM GAS  C:\Users\JEFFSN~1\AppData\Local\Temp\cczY2IKK.s 			page 21


 375:Generated_Source\PSoC5/USB_std.c ****                 break;
 698              		.loc 1 375 0
 699 0464 00BF     		nop
 700 0466 02E0     		b	.L24
 701              	.L59:
 285:Generated_Source\PSoC5/USB_std.c ****                 
 702              		.loc 1 285 0
 703 0468 00BF     		nop
 704 046a 00E0     		b	.L24
 705              	.L60:
 309:Generated_Source\PSoC5/USB_std.c ****                 
 706              		.loc 1 309 0
 707 046c 00BF     		nop
 708              	.L24:
 376:Generated_Source\PSoC5/USB_std.c ****         }
 377:Generated_Source\PSoC5/USB_std.c ****     }
 378:Generated_Source\PSoC5/USB_std.c ****     
 379:Generated_Source\PSoC5/USB_std.c ****     return (requestHandled);
 709              		.loc 1 379 0
 710 046e FB7D     		ldrb	r3, [r7, #23]	@ zero_extendqisi2
 380:Generated_Source\PSoC5/USB_std.c **** }
 711              		.loc 1 380 0
 712 0470 1846     		mov	r0, r3
 713 0472 1837     		adds	r7, r7, #24
 714              		.cfi_def_cfa_offset 8
 715 0474 BD46     		mov	sp, r7
 716              		.cfi_def_cfa_register 13
 717              		@ sp needed
 718 0476 80BD     		pop	{r7, pc}
 719              	.L70:
 720              		.align	2
 721              	.L69:
 722 0478 00600040 		.word	1073766400
 723 047c 00000000 		.word	USB_interfaceNumber
 724 0480 00000000 		.word	USB_interfaceSettingLast
 725 0484 00000000 		.word	USB_interfaceSetting
 726 0488 00000000 		.word	USB_configurationChanged
 727 048c 00000000 		.word	USB_deviceStatus
 728 0490 00000000 		.word	USB_interfaceStatus
 729              		.cfi_endproc
 730              	.LFE0:
 731              		.size	USB_HandleStandardRqst, .-USB_HandleStandardRqst
 732              		.section	.rodata
 733              		.align	2
 734              	.LC0:
 735 0000 30313233 		.ascii	"0123456789ABCDEF\000"
 735      34353637 
 735      38394142 
 735      43444546 
 735      00
 736              		.section	.text.USB_ReadDieID,"ax",%progbits
 737              		.align	2
 738              		.global	USB_ReadDieID
 739              		.thumb
 740              		.thumb_func
 741              		.type	USB_ReadDieID, %function
 742              	USB_ReadDieID:
ARM GAS  C:\Users\JEFFSN~1\AppData\Local\Temp\cczY2IKK.s 			page 22


 743              	.LFB1:
 381:Generated_Source\PSoC5/USB_std.c **** 
 382:Generated_Source\PSoC5/USB_std.c **** 
 383:Generated_Source\PSoC5/USB_std.c **** #if defined(USB_ENABLE_IDSN_STRING)
 384:Generated_Source\PSoC5/USB_std.c ****     /***************************************************************************
 385:Generated_Source\PSoC5/USB_std.c ****     * Function Name: USB_ReadDieID
 386:Generated_Source\PSoC5/USB_std.c ****     ************************************************************************//**
 387:Generated_Source\PSoC5/USB_std.c ****     *
 388:Generated_Source\PSoC5/USB_std.c ****     *  This routine read Die ID and generate Serial Number string descriptor.
 389:Generated_Source\PSoC5/USB_std.c ****     *
 390:Generated_Source\PSoC5/USB_std.c ****     *  \param descr:  pointer on string descriptor. This string size has to be equal or
 391:Generated_Source\PSoC5/USB_std.c ****     *          greater than USB_IDSN_DESCR_LENGTH.
 392:Generated_Source\PSoC5/USB_std.c ****     *
 393:Generated_Source\PSoC5/USB_std.c ****     *
 394:Generated_Source\PSoC5/USB_std.c ****     * \reentrant
 395:Generated_Source\PSoC5/USB_std.c ****     *  No.
 396:Generated_Source\PSoC5/USB_std.c ****     *
 397:Generated_Source\PSoC5/USB_std.c ****     ***************************************************************************/
 398:Generated_Source\PSoC5/USB_std.c ****     void USB_ReadDieID(uint8 descr[]) 
 399:Generated_Source\PSoC5/USB_std.c ****     {
 744              		.loc 1 399 0
 745              		.cfi_startproc
 746              		@ args = 0, pretend = 0, frame = 40
 747              		@ frame_needed = 1, uses_anonymous_args = 0
 748 0000 B0B5     		push	{r4, r5, r7, lr}
 749              		.cfi_def_cfa_offset 16
 750              		.cfi_offset 4, -16
 751              		.cfi_offset 5, -12
 752              		.cfi_offset 7, -8
 753              		.cfi_offset 14, -4
 754 0002 8AB0     		sub	sp, sp, #40
 755              		.cfi_def_cfa_offset 56
 756 0004 00AF     		add	r7, sp, #0
 757              		.cfi_def_cfa_register 7
 758 0006 7860     		str	r0, [r7, #4]
 400:Generated_Source\PSoC5/USB_std.c ****         const char8 CYCODE hex[] = "0123456789ABCDEF";
 759              		.loc 1 400 0
 760 0008 324B     		ldr	r3, .L76
 761 000a 07F11404 		add	r4, r7, #20
 762 000e 1D46     		mov	r5, r3
 763 0010 0FCD     		ldmia	r5!, {r0, r1, r2, r3}
 764 0012 0FC4     		stmia	r4!, {r0, r1, r2, r3}
 765 0014 2B68     		ldr	r3, [r5]
 766 0016 2370     		strb	r3, [r4]
 401:Generated_Source\PSoC5/USB_std.c ****         uint8 i;
 402:Generated_Source\PSoC5/USB_std.c ****         uint8 j = 0u;
 767              		.loc 1 402 0
 768 0018 0023     		movs	r3, #0
 769 001a 87F82630 		strb	r3, [r7, #38]
 403:Generated_Source\PSoC5/USB_std.c ****         uint8 uniqueId[8u];
 404:Generated_Source\PSoC5/USB_std.c **** 
 405:Generated_Source\PSoC5/USB_std.c ****         if (NULL != descr)
 770              		.loc 1 405 0
 771 001e 7B68     		ldr	r3, [r7, #4]
 772 0020 002B     		cmp	r3, #0
 773 0022 52D0     		beq	.L75
 406:Generated_Source\PSoC5/USB_std.c ****         {
ARM GAS  C:\Users\JEFFSN~1\AppData\Local\Temp\cczY2IKK.s 			page 23


 407:Generated_Source\PSoC5/USB_std.c ****             /* Initialize descriptor header. */
 408:Generated_Source\PSoC5/USB_std.c ****             descr[0u] = USB_IDSN_DESCR_LENGTH;
 774              		.loc 1 408 0
 775 0024 7B68     		ldr	r3, [r7, #4]
 776 0026 2222     		movs	r2, #34
 777 0028 1A70     		strb	r2, [r3]
 409:Generated_Source\PSoC5/USB_std.c ****             descr[1u] = USB_DESCR_STRING;
 778              		.loc 1 409 0
 779 002a 7B68     		ldr	r3, [r7, #4]
 780 002c 0133     		adds	r3, r3, #1
 781 002e 0322     		movs	r2, #3
 782 0030 1A70     		strb	r2, [r3]
 410:Generated_Source\PSoC5/USB_std.c ****             
 411:Generated_Source\PSoC5/USB_std.c ****             /* Unique ID size is 8 bytes. */
 412:Generated_Source\PSoC5/USB_std.c ****             CyGetUniqueId((uint32 *) uniqueId);
 783              		.loc 1 412 0
 784 0032 07F10C03 		add	r3, r7, #12
 785 0036 1846     		mov	r0, r3
 786 0038 FFF7FEFF 		bl	CyGetUniqueId
 413:Generated_Source\PSoC5/USB_std.c **** 
 414:Generated_Source\PSoC5/USB_std.c ****             /* Fill descriptor with unique device ID. */
 415:Generated_Source\PSoC5/USB_std.c ****             for (i = 2u; i < USB_IDSN_DESCR_LENGTH; i += 4u)
 787              		.loc 1 415 0
 788 003c 0223     		movs	r3, #2
 789 003e 87F82730 		strb	r3, [r7, #39]
 790 0042 3EE0     		b	.L73
 791              	.L74:
 416:Generated_Source\PSoC5/USB_std.c ****             {
 417:Generated_Source\PSoC5/USB_std.c ****                 descr[i]      = (uint8) hex[(uniqueId[j] >> 4u)];
 792              		.loc 1 417 0 discriminator 3
 793 0044 97F82730 		ldrb	r3, [r7, #39]	@ zero_extendqisi2
 794 0048 7A68     		ldr	r2, [r7, #4]
 795 004a 1344     		add	r3, r3, r2
 796 004c 97F82620 		ldrb	r2, [r7, #38]	@ zero_extendqisi2
 797 0050 07F12801 		add	r1, r7, #40
 798 0054 0A44     		add	r2, r2, r1
 799 0056 12F81C2C 		ldrb	r2, [r2, #-28]	@ zero_extendqisi2
 800 005a 1209     		lsrs	r2, r2, #4
 801 005c D2B2     		uxtb	r2, r2
 802 005e 07F12801 		add	r1, r7, #40
 803 0062 0A44     		add	r2, r2, r1
 804 0064 12F8142C 		ldrb	r2, [r2, #-20]	@ zero_extendqisi2
 805 0068 1A70     		strb	r2, [r3]
 418:Generated_Source\PSoC5/USB_std.c ****                 descr[i + 1u] = 0u;
 806              		.loc 1 418 0 discriminator 3
 807 006a 97F82730 		ldrb	r3, [r7, #39]	@ zero_extendqisi2
 808 006e 0133     		adds	r3, r3, #1
 809 0070 7A68     		ldr	r2, [r7, #4]
 810 0072 1344     		add	r3, r3, r2
 811 0074 0022     		movs	r2, #0
 812 0076 1A70     		strb	r2, [r3]
 419:Generated_Source\PSoC5/USB_std.c ****                 descr[i + 2u] = (uint8) hex[(uniqueId[j] & 0x0Fu)];
 813              		.loc 1 419 0 discriminator 3
 814 0078 97F82730 		ldrb	r3, [r7, #39]	@ zero_extendqisi2
 815 007c 0233     		adds	r3, r3, #2
 816 007e 7A68     		ldr	r2, [r7, #4]
 817 0080 1344     		add	r3, r3, r2
ARM GAS  C:\Users\JEFFSN~1\AppData\Local\Temp\cczY2IKK.s 			page 24


 818 0082 97F82620 		ldrb	r2, [r7, #38]	@ zero_extendqisi2
 819 0086 07F12801 		add	r1, r7, #40
 820 008a 0A44     		add	r2, r2, r1
 821 008c 12F81C2C 		ldrb	r2, [r2, #-28]	@ zero_extendqisi2
 822 0090 02F00F02 		and	r2, r2, #15
 823 0094 07F12801 		add	r1, r7, #40
 824 0098 0A44     		add	r2, r2, r1
 825 009a 12F8142C 		ldrb	r2, [r2, #-20]	@ zero_extendqisi2
 826 009e 1A70     		strb	r2, [r3]
 420:Generated_Source\PSoC5/USB_std.c ****                 descr[i + 3u] = 0u;
 827              		.loc 1 420 0 discriminator 3
 828 00a0 97F82730 		ldrb	r3, [r7, #39]	@ zero_extendqisi2
 829 00a4 0333     		adds	r3, r3, #3
 830 00a6 7A68     		ldr	r2, [r7, #4]
 831 00a8 1344     		add	r3, r3, r2
 832 00aa 0022     		movs	r2, #0
 833 00ac 1A70     		strb	r2, [r3]
 421:Generated_Source\PSoC5/USB_std.c ****                 ++j;
 834              		.loc 1 421 0 discriminator 3
 835 00ae 97F82630 		ldrb	r3, [r7, #38]
 836 00b2 0133     		adds	r3, r3, #1
 837 00b4 87F82630 		strb	r3, [r7, #38]
 415:Generated_Source\PSoC5/USB_std.c ****             {
 838              		.loc 1 415 0 discriminator 3
 839 00b8 97F82730 		ldrb	r3, [r7, #39]
 840 00bc 0433     		adds	r3, r3, #4
 841 00be 87F82730 		strb	r3, [r7, #39]
 842              	.L73:
 415:Generated_Source\PSoC5/USB_std.c ****             {
 843              		.loc 1 415 0 is_stmt 0 discriminator 1
 844 00c2 97F82730 		ldrb	r3, [r7, #39]	@ zero_extendqisi2
 845 00c6 212B     		cmp	r3, #33
 846 00c8 BCD9     		bls	.L74
 847              	.L75:
 422:Generated_Source\PSoC5/USB_std.c ****             }
 423:Generated_Source\PSoC5/USB_std.c ****         }
 424:Generated_Source\PSoC5/USB_std.c ****     }
 848              		.loc 1 424 0 is_stmt 1
 849 00ca 00BF     		nop
 850 00cc 2837     		adds	r7, r7, #40
 851              		.cfi_def_cfa_offset 16
 852 00ce BD46     		mov	sp, r7
 853              		.cfi_def_cfa_register 13
 854              		@ sp needed
 855 00d0 B0BD     		pop	{r4, r5, r7, pc}
 856              	.L77:
 857 00d2 00BF     		.align	2
 858              	.L76:
 859 00d4 00000000 		.word	.LC0
 860              		.cfi_endproc
 861              	.LFE1:
 862              		.size	USB_ReadDieID, .-USB_ReadDieID
 863              		.section	.text.USB_ConfigReg,"ax",%progbits
 864              		.align	2
 865              		.global	USB_ConfigReg
 866              		.thumb
 867              		.thumb_func
ARM GAS  C:\Users\JEFFSN~1\AppData\Local\Temp\cczY2IKK.s 			page 25


 868              		.type	USB_ConfigReg, %function
 869              	USB_ConfigReg:
 870              	.LFB2:
 425:Generated_Source\PSoC5/USB_std.c **** #endif /* (USB_ENABLE_IDSN_STRING) */
 426:Generated_Source\PSoC5/USB_std.c **** 
 427:Generated_Source\PSoC5/USB_std.c **** 
 428:Generated_Source\PSoC5/USB_std.c **** /*******************************************************************************
 429:Generated_Source\PSoC5/USB_std.c **** * Function Name: USB_ConfigReg
 430:Generated_Source\PSoC5/USB_std.c **** ****************************************************************************//**
 431:Generated_Source\PSoC5/USB_std.c **** *
 432:Generated_Source\PSoC5/USB_std.c **** *  This routine configures hardware registers from the variables.
 433:Generated_Source\PSoC5/USB_std.c **** *  It is called from USB_Config() function and from RestoreConfig
 434:Generated_Source\PSoC5/USB_std.c **** *  after Wakeup.
 435:Generated_Source\PSoC5/USB_std.c **** *
 436:Generated_Source\PSoC5/USB_std.c **** *******************************************************************************/
 437:Generated_Source\PSoC5/USB_std.c **** void USB_ConfigReg(void) 
 438:Generated_Source\PSoC5/USB_std.c **** {
 871              		.loc 1 438 0
 872              		.cfi_startproc
 873              		@ args = 0, pretend = 0, frame = 8
 874              		@ frame_needed = 1, uses_anonymous_args = 0
 875              		@ link register save eliminated.
 876 0000 90B4     		push	{r4, r7}
 877              		.cfi_def_cfa_offset 8
 878              		.cfi_offset 4, -8
 879              		.cfi_offset 7, -4
 880 0002 82B0     		sub	sp, sp, #8
 881              		.cfi_def_cfa_offset 16
 882 0004 00AF     		add	r7, sp, #0
 883              		.cfi_def_cfa_register 7
 439:Generated_Source\PSoC5/USB_std.c ****     uint8 ep;
 440:Generated_Source\PSoC5/USB_std.c **** 
 441:Generated_Source\PSoC5/USB_std.c **** #if (USB_EP_MANAGEMENT_DMA_AUTO)
 442:Generated_Source\PSoC5/USB_std.c ****     uint8 epType = 0u;
 443:Generated_Source\PSoC5/USB_std.c **** #endif /* (USB_EP_MANAGEMENT_DMA_AUTO) */
 444:Generated_Source\PSoC5/USB_std.c **** 
 445:Generated_Source\PSoC5/USB_std.c ****     /* Go thought all endpoints and set hardware configuration */
 446:Generated_Source\PSoC5/USB_std.c ****     for (ep = USB_EP1; ep < USB_MAX_EP; ++ep)
 884              		.loc 1 446 0
 885 0006 0123     		movs	r3, #1
 886 0008 FB71     		strb	r3, [r7, #7]
 887 000a 80E0     		b	.L79
 888              	.L84:
 447:Generated_Source\PSoC5/USB_std.c ****     {
 448:Generated_Source\PSoC5/USB_std.c ****         USB_ARB_EP_BASE.arbEp[ep].epCfg = USB_ARB_EPX_CFG_DEFAULT;
 889              		.loc 1 448 0
 890 000c 464A     		ldr	r2, .L85
 891 000e FB79     		ldrb	r3, [r7, #7]	@ zero_extendqisi2
 892 0010 1B01     		lsls	r3, r3, #4
 893 0012 1344     		add	r3, r3, r2
 894 0014 0C22     		movs	r2, #12
 895 0016 1A70     		strb	r2, [r3]
 449:Generated_Source\PSoC5/USB_std.c ****         
 450:Generated_Source\PSoC5/USB_std.c ****     #if (USB_EP_MANAGEMENT_DMA)
 451:Generated_Source\PSoC5/USB_std.c ****         /* Enable arbiter endpoint interrupt sources */
 452:Generated_Source\PSoC5/USB_std.c ****         USB_ARB_EP_BASE.arbEp[ep].epIntEn = USB_ARB_EPX_INT_MASK;
 453:Generated_Source\PSoC5/USB_std.c ****     #endif /* (USB_EP_MANAGEMENT_DMA) */
ARM GAS  C:\Users\JEFFSN~1\AppData\Local\Temp\cczY2IKK.s 			page 26


 454:Generated_Source\PSoC5/USB_std.c ****     
 455:Generated_Source\PSoC5/USB_std.c ****         if (USB_EP[ep].epMode != USB_MODE_DISABLE)
 896              		.loc 1 455 0
 897 0018 FA79     		ldrb	r2, [r7, #7]	@ zero_extendqisi2
 898 001a 4449     		ldr	r1, .L85+4
 899 001c 1346     		mov	r3, r2
 900 001e 5B00     		lsls	r3, r3, #1
 901 0020 1344     		add	r3, r3, r2
 902 0022 9B00     		lsls	r3, r3, #2
 903 0024 0B44     		add	r3, r3, r1
 904 0026 0533     		adds	r3, r3, #5
 905 0028 1B78     		ldrb	r3, [r3]
 906 002a DBB2     		uxtb	r3, r3
 907 002c 002B     		cmp	r3, #0
 908 002e 1CD0     		beq	.L80
 456:Generated_Source\PSoC5/USB_std.c ****         {
 457:Generated_Source\PSoC5/USB_std.c ****             if (0u != (USB_EP[ep].addr & USB_DIR_IN))
 909              		.loc 1 457 0
 910 0030 FA79     		ldrb	r2, [r7, #7]	@ zero_extendqisi2
 911 0032 3E49     		ldr	r1, .L85+4
 912 0034 1346     		mov	r3, r2
 913 0036 5B00     		lsls	r3, r3, #1
 914 0038 1344     		add	r3, r3, r2
 915 003a 9B00     		lsls	r3, r3, #2
 916 003c 0B44     		add	r3, r3, r1
 917 003e 0433     		adds	r3, r3, #4
 918 0040 1B78     		ldrb	r3, [r3]
 919 0042 DBB2     		uxtb	r3, r3
 920 0044 5BB2     		sxtb	r3, r3
 921 0046 002B     		cmp	r3, #0
 922 0048 07DA     		bge	.L81
 458:Generated_Source\PSoC5/USB_std.c ****             {
 459:Generated_Source\PSoC5/USB_std.c ****                 USB_SIE_EP_BASE.sieEp[ep].epCr0 = USB_MODE_NAK_IN;
 923              		.loc 1 459 0
 924 004a 394A     		ldr	r2, .L85+8
 925 004c FB79     		ldrb	r3, [r7, #7]	@ zero_extendqisi2
 926 004e 1B01     		lsls	r3, r3, #4
 927 0050 1344     		add	r3, r3, r2
 928 0052 0233     		adds	r3, r3, #2
 929 0054 0C22     		movs	r2, #12
 930 0056 1A70     		strb	r2, [r3]
 931 0058 0EE0     		b	.L83
 932              	.L81:
 460:Generated_Source\PSoC5/USB_std.c ****                 
 461:Generated_Source\PSoC5/USB_std.c ****             #if (USB_EP_MANAGEMENT_DMA_AUTO && CY_PSOC4)
 462:Generated_Source\PSoC5/USB_std.c ****                 /* Clear DMA_TERMIN for IN endpoint. */
 463:Generated_Source\PSoC5/USB_std.c ****                 USB_ARB_EP_BASE.arbEp[ep].epIntEn &= (uint32) ~USB_ARB_EPX_INT_DMA_TERMIN;
 464:Generated_Source\PSoC5/USB_std.c ****             #endif /* (USB_EP_MANAGEMENT_DMA_AUTO && CY_PSOC4) */
 465:Generated_Source\PSoC5/USB_std.c ****             }
 466:Generated_Source\PSoC5/USB_std.c ****             else
 467:Generated_Source\PSoC5/USB_std.c ****             {
 468:Generated_Source\PSoC5/USB_std.c ****                 USB_SIE_EP_BASE.sieEp[ep].epCr0 = USB_MODE_NAK_OUT;
 933              		.loc 1 468 0
 934 005a 354A     		ldr	r2, .L85+8
 935 005c FB79     		ldrb	r3, [r7, #7]	@ zero_extendqisi2
 936 005e 1B01     		lsls	r3, r3, #4
 937 0060 1344     		add	r3, r3, r2
ARM GAS  C:\Users\JEFFSN~1\AppData\Local\Temp\cczY2IKK.s 			page 27


 938 0062 0233     		adds	r3, r3, #2
 939 0064 0822     		movs	r2, #8
 940 0066 1A70     		strb	r2, [r3]
 941 0068 06E0     		b	.L83
 942              	.L80:
 469:Generated_Source\PSoC5/USB_std.c **** 
 470:Generated_Source\PSoC5/USB_std.c ****             #if (USB_EP_MANAGEMENT_DMA_AUTO)
 471:Generated_Source\PSoC5/USB_std.c ****                 /* (CY_PSOC4): DMA_TERMIN for OUT endpoint is set above. */
 472:Generated_Source\PSoC5/USB_std.c ****                 
 473:Generated_Source\PSoC5/USB_std.c ****                 /* Prepare endpoint type mask. */
 474:Generated_Source\PSoC5/USB_std.c ****                 epType |= (uint8) (0x01u << (ep - USB_EP1));
 475:Generated_Source\PSoC5/USB_std.c ****             #endif /* (USB_EP_MANAGEMENT_DMA_AUTO) */
 476:Generated_Source\PSoC5/USB_std.c ****             }
 477:Generated_Source\PSoC5/USB_std.c ****         }
 478:Generated_Source\PSoC5/USB_std.c ****         else
 479:Generated_Source\PSoC5/USB_std.c ****         {
 480:Generated_Source\PSoC5/USB_std.c ****             USB_SIE_EP_BASE.sieEp[ep].epCr0 = USB_MODE_STALL_DATA_EP;
 943              		.loc 1 480 0
 944 006a 314A     		ldr	r2, .L85+8
 945 006c FB79     		ldrb	r3, [r7, #7]	@ zero_extendqisi2
 946 006e 1B01     		lsls	r3, r3, #4
 947 0070 1344     		add	r3, r3, r2
 948 0072 0233     		adds	r3, r3, #2
 949 0074 8022     		movs	r2, #128
 950 0076 1A70     		strb	r2, [r3]
 951              	.L83:
 481:Generated_Source\PSoC5/USB_std.c ****         }
 482:Generated_Source\PSoC5/USB_std.c ****         
 483:Generated_Source\PSoC5/USB_std.c ****     #if (!USB_EP_MANAGEMENT_DMA_AUTO)
 484:Generated_Source\PSoC5/USB_std.c ****         #if (CY_PSOC4)
 485:Generated_Source\PSoC5/USB_std.c ****             USB_ARB_EP16_BASE.arbEp[ep].rwRa16  = (uint32) USB_EP[ep].buffOffset;
 486:Generated_Source\PSoC5/USB_std.c ****             USB_ARB_EP16_BASE.arbEp[ep].rwWa16  = (uint32) USB_EP[ep].buffOffset;
 487:Generated_Source\PSoC5/USB_std.c ****         #else
 488:Generated_Source\PSoC5/USB_std.c ****             USB_ARB_EP_BASE.arbEp[ep].rwRa    = LO8(USB_EP[ep].buffOffset);
 952              		.loc 1 488 0 discriminator 2
 953 0078 2B48     		ldr	r0, .L85
 954 007a F979     		ldrb	r1, [r7, #7]	@ zero_extendqisi2
 955 007c FA79     		ldrb	r2, [r7, #7]	@ zero_extendqisi2
 956 007e 2B4C     		ldr	r4, .L85+4
 957 0080 1346     		mov	r3, r2
 958 0082 5B00     		lsls	r3, r3, #1
 959 0084 1344     		add	r3, r3, r2
 960 0086 9B00     		lsls	r3, r3, #2
 961 0088 2344     		add	r3, r3, r4
 962 008a 0633     		adds	r3, r3, #6
 963 008c 1B88     		ldrh	r3, [r3]	@ movhi
 964 008e 9BB2     		uxth	r3, r3
 965 0090 DAB2     		uxtb	r2, r3
 966 0092 0B01     		lsls	r3, r1, #4
 967 0094 0344     		add	r3, r3, r0
 968 0096 0633     		adds	r3, r3, #6
 969 0098 1A70     		strb	r2, [r3]
 489:Generated_Source\PSoC5/USB_std.c ****             USB_ARB_EP_BASE.arbEp[ep].rwRaMsb = HI8(USB_EP[ep].buffOffset);
 970              		.loc 1 489 0 discriminator 2
 971 009a 2348     		ldr	r0, .L85
 972 009c F979     		ldrb	r1, [r7, #7]	@ zero_extendqisi2
 973 009e FA79     		ldrb	r2, [r7, #7]	@ zero_extendqisi2
ARM GAS  C:\Users\JEFFSN~1\AppData\Local\Temp\cczY2IKK.s 			page 28


 974 00a0 224C     		ldr	r4, .L85+4
 975 00a2 1346     		mov	r3, r2
 976 00a4 5B00     		lsls	r3, r3, #1
 977 00a6 1344     		add	r3, r3, r2
 978 00a8 9B00     		lsls	r3, r3, #2
 979 00aa 2344     		add	r3, r3, r4
 980 00ac 0633     		adds	r3, r3, #6
 981 00ae 1B88     		ldrh	r3, [r3]	@ movhi
 982 00b0 9BB2     		uxth	r3, r3
 983 00b2 1B0A     		lsrs	r3, r3, #8
 984 00b4 9BB2     		uxth	r3, r3
 985 00b6 DAB2     		uxtb	r2, r3
 986 00b8 0B01     		lsls	r3, r1, #4
 987 00ba 0344     		add	r3, r3, r0
 988 00bc 0733     		adds	r3, r3, #7
 989 00be 1A70     		strb	r2, [r3]
 490:Generated_Source\PSoC5/USB_std.c ****             USB_ARB_EP_BASE.arbEp[ep].rwWa    = LO8(USB_EP[ep].buffOffset);
 990              		.loc 1 490 0 discriminator 2
 991 00c0 1948     		ldr	r0, .L85
 992 00c2 F979     		ldrb	r1, [r7, #7]	@ zero_extendqisi2
 993 00c4 FA79     		ldrb	r2, [r7, #7]	@ zero_extendqisi2
 994 00c6 194C     		ldr	r4, .L85+4
 995 00c8 1346     		mov	r3, r2
 996 00ca 5B00     		lsls	r3, r3, #1
 997 00cc 1344     		add	r3, r3, r2
 998 00ce 9B00     		lsls	r3, r3, #2
 999 00d0 2344     		add	r3, r3, r4
 1000 00d2 0633     		adds	r3, r3, #6
 1001 00d4 1B88     		ldrh	r3, [r3]	@ movhi
 1002 00d6 9BB2     		uxth	r3, r3
 1003 00d8 DAB2     		uxtb	r2, r3
 1004 00da 0B01     		lsls	r3, r1, #4
 1005 00dc 0344     		add	r3, r3, r0
 1006 00de 0433     		adds	r3, r3, #4
 1007 00e0 1A70     		strb	r2, [r3]
 491:Generated_Source\PSoC5/USB_std.c ****             USB_ARB_EP_BASE.arbEp[ep].rwWaMsb = HI8(USB_EP[ep].buffOffset);
 1008              		.loc 1 491 0 discriminator 2
 1009 00e2 1148     		ldr	r0, .L85
 1010 00e4 F979     		ldrb	r1, [r7, #7]	@ zero_extendqisi2
 1011 00e6 FA79     		ldrb	r2, [r7, #7]	@ zero_extendqisi2
 1012 00e8 104C     		ldr	r4, .L85+4
 1013 00ea 1346     		mov	r3, r2
 1014 00ec 5B00     		lsls	r3, r3, #1
 1015 00ee 1344     		add	r3, r3, r2
 1016 00f0 9B00     		lsls	r3, r3, #2
 1017 00f2 2344     		add	r3, r3, r4
 1018 00f4 0633     		adds	r3, r3, #6
 1019 00f6 1B88     		ldrh	r3, [r3]	@ movhi
 1020 00f8 9BB2     		uxth	r3, r3
 1021 00fa 1B0A     		lsrs	r3, r3, #8
 1022 00fc 9BB2     		uxth	r3, r3
 1023 00fe DAB2     		uxtb	r2, r3
 1024 0100 0B01     		lsls	r3, r1, #4
 1025 0102 0344     		add	r3, r3, r0
 1026 0104 0533     		adds	r3, r3, #5
 1027 0106 1A70     		strb	r2, [r3]
 446:Generated_Source\PSoC5/USB_std.c ****     {
ARM GAS  C:\Users\JEFFSN~1\AppData\Local\Temp\cczY2IKK.s 			page 29


 1028              		.loc 1 446 0 discriminator 2
 1029 0108 FB79     		ldrb	r3, [r7, #7]
 1030 010a 0133     		adds	r3, r3, #1
 1031 010c FB71     		strb	r3, [r7, #7]
 1032              	.L79:
 446:Generated_Source\PSoC5/USB_std.c ****     {
 1033              		.loc 1 446 0 is_stmt 0 discriminator 1
 1034 010e FB79     		ldrb	r3, [r7, #7]	@ zero_extendqisi2
 1035 0110 082B     		cmp	r3, #8
 1036 0112 7FF67BAF 		bls	.L84
 492:Generated_Source\PSoC5/USB_std.c ****         #endif /* (CY_PSOC4) */
 493:Generated_Source\PSoC5/USB_std.c ****     #endif /* (!USB_EP_MANAGEMENT_DMA_AUTO) */
 494:Generated_Source\PSoC5/USB_std.c ****     }
 495:Generated_Source\PSoC5/USB_std.c **** 
 496:Generated_Source\PSoC5/USB_std.c **** #if (USB_EP_MANAGEMENT_DMA_AUTO)
 497:Generated_Source\PSoC5/USB_std.c ****      /* BUF_SIZE depend on DMA_THRESS value:0x55-32 bytes  0x44-16 bytes 0x33-8 bytes 0x22-4 bytes 
 498:Generated_Source\PSoC5/USB_std.c ****     USB_BUF_SIZE_REG = USB_DMA_BUF_SIZE;
 499:Generated_Source\PSoC5/USB_std.c **** 
 500:Generated_Source\PSoC5/USB_std.c ****     /* Configure DMA burst threshold */
 501:Generated_Source\PSoC5/USB_std.c **** #if (CY_PSOC4)
 502:Generated_Source\PSoC5/USB_std.c ****     USB_DMA_THRES16_REG   = USB_DMA_BYTES_PER_BURST;
 503:Generated_Source\PSoC5/USB_std.c **** #else
 504:Generated_Source\PSoC5/USB_std.c ****     USB_DMA_THRES_REG     = USB_DMA_BYTES_PER_BURST;
 505:Generated_Source\PSoC5/USB_std.c ****     USB_DMA_THRES_MSB_REG = 0u;
 506:Generated_Source\PSoC5/USB_std.c **** #endif /* (CY_PSOC4) */
 507:Generated_Source\PSoC5/USB_std.c ****     USB_EP_ACTIVE_REG = USB_DEFAULT_ARB_INT_EN;
 508:Generated_Source\PSoC5/USB_std.c ****     USB_EP_TYPE_REG   = epType;
 509:Generated_Source\PSoC5/USB_std.c ****     
 510:Generated_Source\PSoC5/USB_std.c ****     /* Cfg_cmp bit set to 1 once configuration is complete. */
 511:Generated_Source\PSoC5/USB_std.c ****     /* Lock arbiter configtuation */
 512:Generated_Source\PSoC5/USB_std.c ****     USB_ARB_CFG_REG |= (uint8)  USB_ARB_CFG_CFG_CMP;
 513:Generated_Source\PSoC5/USB_std.c ****     /* Cfg_cmp bit set to 0 during configuration of PFSUSB Registers. */
 514:Generated_Source\PSoC5/USB_std.c ****     USB_ARB_CFG_REG &= (uint8) ~USB_ARB_CFG_CFG_CMP;
 515:Generated_Source\PSoC5/USB_std.c **** 
 516:Generated_Source\PSoC5/USB_std.c **** #endif /* (USB_EP_MANAGEMENT_DMA_AUTO) */
 517:Generated_Source\PSoC5/USB_std.c **** 
 518:Generated_Source\PSoC5/USB_std.c ****     /* Enable interrupt SIE interurpt source from EP0-EP1 */
 519:Generated_Source\PSoC5/USB_std.c ****     USB_SIE_EP_INT_EN_REG = (uint8) USB_DEFAULT_SIE_EP_INT_EN;
 1037              		.loc 1 519 0 is_stmt 1
 1038 0116 074B     		ldr	r3, .L85+12
 1039 0118 FF22     		movs	r2, #255
 1040 011a 1A70     		strb	r2, [r3]
 520:Generated_Source\PSoC5/USB_std.c **** }
 1041              		.loc 1 520 0
 1042 011c 00BF     		nop
 1043 011e 0837     		adds	r7, r7, #8
 1044              		.cfi_def_cfa_offset 8
 1045 0120 BD46     		mov	sp, r7
 1046              		.cfi_def_cfa_register 13
 1047              		@ sp needed
 1048 0122 90BC     		pop	{r4, r7}
 1049              		.cfi_restore 7
 1050              		.cfi_restore 4
 1051              		.cfi_def_cfa_offset 0
 1052 0124 7047     		bx	lr
 1053              	.L86:
 1054 0126 00BF     		.align	2
ARM GAS  C:\Users\JEFFSN~1\AppData\Local\Temp\cczY2IKK.s 			page 30


 1055              	.L85:
 1056 0128 70600040 		.word	1073766512
 1057 012c 00000000 		.word	USB_EP
 1058 0130 FC5F0040 		.word	1073766396
 1059 0134 0A600040 		.word	1073766410
 1060              		.cfi_endproc
 1061              	.LFE2:
 1062              		.size	USB_ConfigReg, .-USB_ConfigReg
 1063              		.section	.text.USB_EpStateInit,"ax",%progbits
 1064              		.align	2
 1065              		.global	USB_EpStateInit
 1066              		.thumb
 1067              		.thumb_func
 1068              		.type	USB_EpStateInit, %function
 1069              	USB_EpStateInit:
 1070              	.LFB3:
 521:Generated_Source\PSoC5/USB_std.c **** 
 522:Generated_Source\PSoC5/USB_std.c **** 
 523:Generated_Source\PSoC5/USB_std.c **** /*******************************************************************************
 524:Generated_Source\PSoC5/USB_std.c **** * Function Name: USB_EpStateInit
 525:Generated_Source\PSoC5/USB_std.c **** ****************************************************************************//**
 526:Generated_Source\PSoC5/USB_std.c **** *
 527:Generated_Source\PSoC5/USB_std.c **** *  This routine initialize state of Data end points based of its type: 
 528:Generated_Source\PSoC5/USB_std.c **** *   IN  - USB_IN_BUFFER_EMPTY (USB_EVENT_PENDING)
 529:Generated_Source\PSoC5/USB_std.c **** *   OUT - USB_OUT_BUFFER_EMPTY (USB_NO_EVENT_PENDING)
 530:Generated_Source\PSoC5/USB_std.c **** *
 531:Generated_Source\PSoC5/USB_std.c **** *******************************************************************************/
 532:Generated_Source\PSoC5/USB_std.c **** void USB_EpStateInit(void) 
 533:Generated_Source\PSoC5/USB_std.c **** {
 1071              		.loc 1 533 0
 1072              		.cfi_startproc
 1073              		@ args = 0, pretend = 0, frame = 8
 1074              		@ frame_needed = 1, uses_anonymous_args = 0
 1075              		@ link register save eliminated.
 1076 0000 80B4     		push	{r7}
 1077              		.cfi_def_cfa_offset 4
 1078              		.cfi_offset 7, -4
 1079 0002 83B0     		sub	sp, sp, #12
 1080              		.cfi_def_cfa_offset 16
 1081 0004 00AF     		add	r7, sp, #0
 1082              		.cfi_def_cfa_register 7
 534:Generated_Source\PSoC5/USB_std.c ****     uint8 i;
 535:Generated_Source\PSoC5/USB_std.c **** 
 536:Generated_Source\PSoC5/USB_std.c ****     for (i = USB_EP1; i < USB_MAX_EP; i++)
 1083              		.loc 1 536 0
 1084 0006 0123     		movs	r3, #1
 1085 0008 FB71     		strb	r3, [r7, #7]
 1086 000a 24E0     		b	.L88
 1087              	.L91:
 537:Generated_Source\PSoC5/USB_std.c ****     { 
 538:Generated_Source\PSoC5/USB_std.c ****         if (0u != (USB_EP[i].addr & USB_DIR_IN))
 1088              		.loc 1 538 0
 1089 000c FA79     		ldrb	r2, [r7, #7]	@ zero_extendqisi2
 1090 000e 1649     		ldr	r1, .L92
 1091 0010 1346     		mov	r3, r2
 1092 0012 5B00     		lsls	r3, r3, #1
 1093 0014 1344     		add	r3, r3, r2
ARM GAS  C:\Users\JEFFSN~1\AppData\Local\Temp\cczY2IKK.s 			page 31


 1094 0016 9B00     		lsls	r3, r3, #2
 1095 0018 0B44     		add	r3, r3, r1
 1096 001a 0433     		adds	r3, r3, #4
 1097 001c 1B78     		ldrb	r3, [r3]
 1098 001e DBB2     		uxtb	r3, r3
 1099 0020 5BB2     		sxtb	r3, r3
 1100 0022 002B     		cmp	r3, #0
 1101 0024 0ADA     		bge	.L89
 539:Generated_Source\PSoC5/USB_std.c ****         {
 540:Generated_Source\PSoC5/USB_std.c ****             /* IN Endpoint */
 541:Generated_Source\PSoC5/USB_std.c ****             USB_EP[i].apiEpState = USB_EVENT_PENDING;
 1102              		.loc 1 541 0
 1103 0026 FA79     		ldrb	r2, [r7, #7]	@ zero_extendqisi2
 1104 0028 0F49     		ldr	r1, .L92
 1105 002a 1346     		mov	r3, r2
 1106 002c 5B00     		lsls	r3, r3, #1
 1107 002e 1344     		add	r3, r3, r2
 1108 0030 9B00     		lsls	r3, r3, #2
 1109 0032 0B44     		add	r3, r3, r1
 1110 0034 0133     		adds	r3, r3, #1
 1111 0036 0122     		movs	r2, #1
 1112 0038 1A70     		strb	r2, [r3]
 1113 003a 09E0     		b	.L90
 1114              	.L89:
 542:Generated_Source\PSoC5/USB_std.c ****         }
 543:Generated_Source\PSoC5/USB_std.c ****         else
 544:Generated_Source\PSoC5/USB_std.c ****         {
 545:Generated_Source\PSoC5/USB_std.c ****             /* OUT Endpoint */
 546:Generated_Source\PSoC5/USB_std.c ****             USB_EP[i].apiEpState = USB_NO_EVENT_PENDING;
 1115              		.loc 1 546 0
 1116 003c FA79     		ldrb	r2, [r7, #7]	@ zero_extendqisi2
 1117 003e 0A49     		ldr	r1, .L92
 1118 0040 1346     		mov	r3, r2
 1119 0042 5B00     		lsls	r3, r3, #1
 1120 0044 1344     		add	r3, r3, r2
 1121 0046 9B00     		lsls	r3, r3, #2
 1122 0048 0B44     		add	r3, r3, r1
 1123 004a 0133     		adds	r3, r3, #1
 1124 004c 0022     		movs	r2, #0
 1125 004e 1A70     		strb	r2, [r3]
 1126              	.L90:
 536:Generated_Source\PSoC5/USB_std.c ****     { 
 1127              		.loc 1 536 0 discriminator 2
 1128 0050 FB79     		ldrb	r3, [r7, #7]	@ zero_extendqisi2
 1129 0052 0133     		adds	r3, r3, #1
 1130 0054 FB71     		strb	r3, [r7, #7]
 1131              	.L88:
 536:Generated_Source\PSoC5/USB_std.c ****     { 
 1132              		.loc 1 536 0 is_stmt 0 discriminator 1
 1133 0056 FB79     		ldrb	r3, [r7, #7]	@ zero_extendqisi2
 1134 0058 082B     		cmp	r3, #8
 1135 005a D7D9     		bls	.L91
 547:Generated_Source\PSoC5/USB_std.c ****         }
 548:Generated_Source\PSoC5/USB_std.c ****     }
 549:Generated_Source\PSoC5/USB_std.c ****                     
 550:Generated_Source\PSoC5/USB_std.c **** }
 1136              		.loc 1 550 0 is_stmt 1
ARM GAS  C:\Users\JEFFSN~1\AppData\Local\Temp\cczY2IKK.s 			page 32


 1137 005c 00BF     		nop
 1138 005e 0C37     		adds	r7, r7, #12
 1139              		.cfi_def_cfa_offset 4
 1140 0060 BD46     		mov	sp, r7
 1141              		.cfi_def_cfa_register 13
 1142              		@ sp needed
 1143 0062 80BC     		pop	{r7}
 1144              		.cfi_restore 7
 1145              		.cfi_def_cfa_offset 0
 1146 0064 7047     		bx	lr
 1147              	.L93:
 1148 0066 00BF     		.align	2
 1149              	.L92:
 1150 0068 00000000 		.word	USB_EP
 1151              		.cfi_endproc
 1152              	.LFE3:
 1153              		.size	USB_EpStateInit, .-USB_EpStateInit
 1154              		.section	.text.USB_Config,"ax",%progbits
 1155              		.align	2
 1156              		.global	USB_Config
 1157              		.thumb
 1158              		.thumb_func
 1159              		.type	USB_Config, %function
 1160              	USB_Config:
 1161              	.LFB4:
 551:Generated_Source\PSoC5/USB_std.c **** 
 552:Generated_Source\PSoC5/USB_std.c **** 
 553:Generated_Source\PSoC5/USB_std.c **** /*******************************************************************************
 554:Generated_Source\PSoC5/USB_std.c **** * Function Name: USB_Config
 555:Generated_Source\PSoC5/USB_std.c **** ****************************************************************************//**
 556:Generated_Source\PSoC5/USB_std.c **** *
 557:Generated_Source\PSoC5/USB_std.c **** *  This routine configures endpoints for the entire configuration by scanning
 558:Generated_Source\PSoC5/USB_std.c **** *  the configuration descriptor.
 559:Generated_Source\PSoC5/USB_std.c **** *
 560:Generated_Source\PSoC5/USB_std.c **** *  \param clearAltSetting: It configures the bAlternateSetting 0 for each interface.
 561:Generated_Source\PSoC5/USB_std.c **** *
 562:Generated_Source\PSoC5/USB_std.c **** * USB_interfaceClass - Initialized class array for each interface.
 563:Generated_Source\PSoC5/USB_std.c **** *   It is used for handling Class specific requests depend on interface class.
 564:Generated_Source\PSoC5/USB_std.c **** *   Different classes in multiple Alternate settings does not supported.
 565:Generated_Source\PSoC5/USB_std.c **** *
 566:Generated_Source\PSoC5/USB_std.c **** * \reentrant
 567:Generated_Source\PSoC5/USB_std.c **** *  No.
 568:Generated_Source\PSoC5/USB_std.c **** *
 569:Generated_Source\PSoC5/USB_std.c **** *******************************************************************************/
 570:Generated_Source\PSoC5/USB_std.c **** void USB_Config(uint8 clearAltSetting) 
 571:Generated_Source\PSoC5/USB_std.c **** {
 1162              		.loc 1 571 0
 1163              		.cfi_startproc
 1164              		@ args = 0, pretend = 0, frame = 32
 1165              		@ frame_needed = 1, uses_anonymous_args = 0
 1166 0000 80B5     		push	{r7, lr}
 1167              		.cfi_def_cfa_offset 8
 1168              		.cfi_offset 7, -8
 1169              		.cfi_offset 14, -4
 1170 0002 88B0     		sub	sp, sp, #32
 1171              		.cfi_def_cfa_offset 40
 1172 0004 00AF     		add	r7, sp, #0
ARM GAS  C:\Users\JEFFSN~1\AppData\Local\Temp\cczY2IKK.s 			page 33


 1173              		.cfi_def_cfa_register 7
 1174 0006 0346     		mov	r3, r0
 1175 0008 FB71     		strb	r3, [r7, #7]
 572:Generated_Source\PSoC5/USB_std.c ****     uint8 ep;
 573:Generated_Source\PSoC5/USB_std.c ****     uint8 curEp;
 574:Generated_Source\PSoC5/USB_std.c ****     uint8 i;
 575:Generated_Source\PSoC5/USB_std.c ****     uint8 epType;
 576:Generated_Source\PSoC5/USB_std.c ****     const uint8 *pDescr;
 577:Generated_Source\PSoC5/USB_std.c ****     
 578:Generated_Source\PSoC5/USB_std.c ****     #if (!USB_EP_MANAGEMENT_DMA_AUTO)
 579:Generated_Source\PSoC5/USB_std.c ****         uint16 buffCount = 0u;
 1176              		.loc 1 579 0
 1177 000a 0023     		movs	r3, #0
 1178 000c 7B83     		strh	r3, [r7, #26]	@ movhi
 580:Generated_Source\PSoC5/USB_std.c ****     #endif /* (!USB_EP_MANAGEMENT_DMA_AUTO) */
 581:Generated_Source\PSoC5/USB_std.c **** 
 582:Generated_Source\PSoC5/USB_std.c ****     const T_USB_LUT CYCODE *pTmp;
 583:Generated_Source\PSoC5/USB_std.c ****     const T_USB_EP_SETTINGS_BLOCK CYCODE *pEP;
 584:Generated_Source\PSoC5/USB_std.c **** 
 585:Generated_Source\PSoC5/USB_std.c ****     /* Clear endpoints settings */
 586:Generated_Source\PSoC5/USB_std.c ****     for (ep = 0u; ep < USB_MAX_EP; ++ep)
 1179              		.loc 1 586 0
 1180 000e 0023     		movs	r3, #0
 1181 0010 FB77     		strb	r3, [r7, #31]
 1182 0012 47E0     		b	.L95
 1183              	.L96:
 587:Generated_Source\PSoC5/USB_std.c ****     {
 588:Generated_Source\PSoC5/USB_std.c ****         USB_EP[ep].attrib     = 0u;
 1184              		.loc 1 588 0 discriminator 3
 1185 0014 FA7F     		ldrb	r2, [r7, #31]	@ zero_extendqisi2
 1186 0016 B449     		ldr	r1, .L120
 1187 0018 1346     		mov	r3, r2
 1188 001a 5B00     		lsls	r3, r3, #1
 1189 001c 1344     		add	r3, r3, r2
 1190 001e 9B00     		lsls	r3, r3, #2
 1191 0020 0B44     		add	r3, r3, r1
 1192 0022 0022     		movs	r2, #0
 1193 0024 1A70     		strb	r2, [r3]
 589:Generated_Source\PSoC5/USB_std.c ****         USB_EP[ep].hwEpState  = 0u;
 1194              		.loc 1 589 0 discriminator 3
 1195 0026 FA7F     		ldrb	r2, [r7, #31]	@ zero_extendqisi2
 1196 0028 AF49     		ldr	r1, .L120
 1197 002a 1346     		mov	r3, r2
 1198 002c 5B00     		lsls	r3, r3, #1
 1199 002e 1344     		add	r3, r3, r2
 1200 0030 9B00     		lsls	r3, r3, #2
 1201 0032 0B44     		add	r3, r3, r1
 1202 0034 0233     		adds	r3, r3, #2
 1203 0036 0022     		movs	r2, #0
 1204 0038 1A70     		strb	r2, [r3]
 590:Generated_Source\PSoC5/USB_std.c ****         USB_EP[ep].epToggle   = 0u;
 1205              		.loc 1 590 0 discriminator 3
 1206 003a FA7F     		ldrb	r2, [r7, #31]	@ zero_extendqisi2
 1207 003c AA49     		ldr	r1, .L120
 1208 003e 1346     		mov	r3, r2
 1209 0040 5B00     		lsls	r3, r3, #1
 1210 0042 1344     		add	r3, r3, r2
ARM GAS  C:\Users\JEFFSN~1\AppData\Local\Temp\cczY2IKK.s 			page 34


 1211 0044 9B00     		lsls	r3, r3, #2
 1212 0046 0B44     		add	r3, r3, r1
 1213 0048 0333     		adds	r3, r3, #3
 1214 004a 0022     		movs	r2, #0
 1215 004c 1A70     		strb	r2, [r3]
 591:Generated_Source\PSoC5/USB_std.c ****         USB_EP[ep].bufferSize = 0u;
 1216              		.loc 1 591 0 discriminator 3
 1217 004e FA7F     		ldrb	r2, [r7, #31]	@ zero_extendqisi2
 1218 0050 A549     		ldr	r1, .L120
 1219 0052 1346     		mov	r3, r2
 1220 0054 5B00     		lsls	r3, r3, #1
 1221 0056 1344     		add	r3, r3, r2
 1222 0058 9B00     		lsls	r3, r3, #2
 1223 005a 0B44     		add	r3, r3, r1
 1224 005c 0833     		adds	r3, r3, #8
 1225 005e 0022     		movs	r2, #0
 1226 0060 1A80     		strh	r2, [r3]	@ movhi
 592:Generated_Source\PSoC5/USB_std.c ****         USB_EP[ep].interface  = 0u;
 1227              		.loc 1 592 0 discriminator 3
 1228 0062 FA7F     		ldrb	r2, [r7, #31]	@ zero_extendqisi2
 1229 0064 A049     		ldr	r1, .L120
 1230 0066 1346     		mov	r3, r2
 1231 0068 5B00     		lsls	r3, r3, #1
 1232 006a 1344     		add	r3, r3, r2
 1233 006c 9B00     		lsls	r3, r3, #2
 1234 006e 0B44     		add	r3, r3, r1
 1235 0070 0A33     		adds	r3, r3, #10
 1236 0072 0022     		movs	r2, #0
 1237 0074 1A70     		strb	r2, [r3]
 593:Generated_Source\PSoC5/USB_std.c ****         USB_EP[ep].apiEpState = USB_NO_EVENT_PENDING;
 1238              		.loc 1 593 0 discriminator 3
 1239 0076 FA7F     		ldrb	r2, [r7, #31]	@ zero_extendqisi2
 1240 0078 9B49     		ldr	r1, .L120
 1241 007a 1346     		mov	r3, r2
 1242 007c 5B00     		lsls	r3, r3, #1
 1243 007e 1344     		add	r3, r3, r2
 1244 0080 9B00     		lsls	r3, r3, #2
 1245 0082 0B44     		add	r3, r3, r1
 1246 0084 0133     		adds	r3, r3, #1
 1247 0086 0022     		movs	r2, #0
 1248 0088 1A70     		strb	r2, [r3]
 594:Generated_Source\PSoC5/USB_std.c ****         USB_EP[ep].epMode     = USB_MODE_DISABLE;   
 1249              		.loc 1 594 0 discriminator 3
 1250 008a FA7F     		ldrb	r2, [r7, #31]	@ zero_extendqisi2
 1251 008c 9649     		ldr	r1, .L120
 1252 008e 1346     		mov	r3, r2
 1253 0090 5B00     		lsls	r3, r3, #1
 1254 0092 1344     		add	r3, r3, r2
 1255 0094 9B00     		lsls	r3, r3, #2
 1256 0096 0B44     		add	r3, r3, r1
 1257 0098 0533     		adds	r3, r3, #5
 1258 009a 0022     		movs	r2, #0
 1259 009c 1A70     		strb	r2, [r3]
 586:Generated_Source\PSoC5/USB_std.c ****     {
 1260              		.loc 1 586 0 discriminator 3
 1261 009e FB7F     		ldrb	r3, [r7, #31]
 1262 00a0 0133     		adds	r3, r3, #1
ARM GAS  C:\Users\JEFFSN~1\AppData\Local\Temp\cczY2IKK.s 			page 35


 1263 00a2 FB77     		strb	r3, [r7, #31]
 1264              	.L95:
 586:Generated_Source\PSoC5/USB_std.c ****     {
 1265              		.loc 1 586 0 is_stmt 0 discriminator 1
 1266 00a4 FB7F     		ldrb	r3, [r7, #31]	@ zero_extendqisi2
 1267 00a6 082B     		cmp	r3, #8
 1268 00a8 B4D9     		bls	.L96
 595:Generated_Source\PSoC5/USB_std.c ****     }
 596:Generated_Source\PSoC5/USB_std.c **** 
 597:Generated_Source\PSoC5/USB_std.c ****     /* Clear Alternate settings for all interfaces. */
 598:Generated_Source\PSoC5/USB_std.c ****     if (0u != clearAltSetting)
 1269              		.loc 1 598 0 is_stmt 1
 1270 00aa FB79     		ldrb	r3, [r7, #7]	@ zero_extendqisi2
 1271 00ac 002B     		cmp	r3, #0
 1272 00ae 10D0     		beq	.L97
 599:Generated_Source\PSoC5/USB_std.c ****     {
 600:Generated_Source\PSoC5/USB_std.c ****         for (i = 0u; i < USB_MAX_INTERFACES_NUMBER; ++i)
 1273              		.loc 1 600 0
 1274 00b0 0023     		movs	r3, #0
 1275 00b2 7B77     		strb	r3, [r7, #29]
 1276 00b4 0AE0     		b	.L98
 1277              	.L99:
 601:Generated_Source\PSoC5/USB_std.c ****         {
 602:Generated_Source\PSoC5/USB_std.c ****             USB_interfaceSetting[i]     = 0u;
 1278              		.loc 1 602 0 discriminator 3
 1279 00b6 7B7F     		ldrb	r3, [r7, #29]	@ zero_extendqisi2
 1280 00b8 8C4A     		ldr	r2, .L120+4
 1281 00ba 0021     		movs	r1, #0
 1282 00bc D154     		strb	r1, [r2, r3]
 603:Generated_Source\PSoC5/USB_std.c ****             USB_interfaceSettingLast[i] = 0u;
 1283              		.loc 1 603 0 discriminator 3
 1284 00be 7B7F     		ldrb	r3, [r7, #29]	@ zero_extendqisi2
 1285 00c0 8B4A     		ldr	r2, .L120+8
 1286 00c2 0021     		movs	r1, #0
 1287 00c4 D154     		strb	r1, [r2, r3]
 600:Generated_Source\PSoC5/USB_std.c ****         {
 1288              		.loc 1 600 0 discriminator 3
 1289 00c6 7B7F     		ldrb	r3, [r7, #29]
 1290 00c8 0133     		adds	r3, r3, #1
 1291 00ca 7B77     		strb	r3, [r7, #29]
 1292              	.L98:
 600:Generated_Source\PSoC5/USB_std.c ****         {
 1293              		.loc 1 600 0 is_stmt 0 discriminator 1
 1294 00cc 7B7F     		ldrb	r3, [r7, #29]	@ zero_extendqisi2
 1295 00ce 012B     		cmp	r3, #1
 1296 00d0 F1D9     		bls	.L99
 1297              	.L97:
 604:Generated_Source\PSoC5/USB_std.c ****         }
 605:Generated_Source\PSoC5/USB_std.c ****     }
 606:Generated_Source\PSoC5/USB_std.c **** 
 607:Generated_Source\PSoC5/USB_std.c ****     /* Init Endpoints and Device Status if configured */
 608:Generated_Source\PSoC5/USB_std.c ****     if (USB_configuration > 0u)
 1298              		.loc 1 608 0 is_stmt 1
 1299 00d2 884B     		ldr	r3, .L120+12
 1300 00d4 1B78     		ldrb	r3, [r3]
 1301 00d6 DBB2     		uxtb	r3, r3
 1302 00d8 002B     		cmp	r3, #0
ARM GAS  C:\Users\JEFFSN~1\AppData\Local\Temp\cczY2IKK.s 			page 36


 1303 00da 00F03B81 		beq	.L119
 609:Generated_Source\PSoC5/USB_std.c ****     {
 610:Generated_Source\PSoC5/USB_std.c ****         #if defined(USB_ENABLE_CDC_CLASS)
 611:Generated_Source\PSoC5/USB_std.c ****             uint8 cdcComNums = 0u;
 612:Generated_Source\PSoC5/USB_std.c ****         #endif  /* (USB_ENABLE_CDC_CLASS) */  
 613:Generated_Source\PSoC5/USB_std.c **** 
 614:Generated_Source\PSoC5/USB_std.c ****         pTmp = USB_GetConfigTablePtr(USB_configuration - 1u);
 1304              		.loc 1 614 0
 1305 00de 854B     		ldr	r3, .L120+12
 1306 00e0 1B78     		ldrb	r3, [r3]
 1307 00e2 DBB2     		uxtb	r3, r3
 1308 00e4 013B     		subs	r3, r3, #1
 1309 00e6 DBB2     		uxtb	r3, r3
 1310 00e8 1846     		mov	r0, r3
 1311 00ea FFF7FEFF 		bl	USB_GetConfigTablePtr
 1312 00ee 3861     		str	r0, [r7, #16]
 615:Generated_Source\PSoC5/USB_std.c ****         
 616:Generated_Source\PSoC5/USB_std.c ****         /* Set Power status for current configuration */
 617:Generated_Source\PSoC5/USB_std.c ****         pDescr = (const uint8 *)pTmp->p_list;
 1313              		.loc 1 617 0
 1314 00f0 3B69     		ldr	r3, [r7, #16]
 1315 00f2 5B68     		ldr	r3, [r3, #4]
 1316 00f4 FB60     		str	r3, [r7, #12]
 618:Generated_Source\PSoC5/USB_std.c ****         if ((pDescr[USB_CONFIG_DESCR_ATTRIB] & USB_CONFIG_DESCR_ATTRIB_SELF_POWERED) != 0u)
 1317              		.loc 1 618 0
 1318 00f6 FB68     		ldr	r3, [r7, #12]
 1319 00f8 0733     		adds	r3, r3, #7
 1320 00fa 1B78     		ldrb	r3, [r3]	@ zero_extendqisi2
 1321 00fc 03F04003 		and	r3, r3, #64
 1322 0100 002B     		cmp	r3, #0
 1323 0102 08D0     		beq	.L101
 619:Generated_Source\PSoC5/USB_std.c ****         {
 620:Generated_Source\PSoC5/USB_std.c ****             USB_deviceStatus |= (uint8)  USB_DEVICE_STATUS_SELF_POWERED;
 1324              		.loc 1 620 0
 1325 0104 7C4B     		ldr	r3, .L120+16
 1326 0106 1B78     		ldrb	r3, [r3]
 1327 0108 DBB2     		uxtb	r3, r3
 1328 010a 43F00103 		orr	r3, r3, #1
 1329 010e DAB2     		uxtb	r2, r3
 1330 0110 794B     		ldr	r3, .L120+16
 1331 0112 1A70     		strb	r2, [r3]
 1332 0114 07E0     		b	.L102
 1333              	.L101:
 621:Generated_Source\PSoC5/USB_std.c ****         }
 622:Generated_Source\PSoC5/USB_std.c ****         else
 623:Generated_Source\PSoC5/USB_std.c ****         {
 624:Generated_Source\PSoC5/USB_std.c ****             USB_deviceStatus &= (uint8) ~USB_DEVICE_STATUS_SELF_POWERED;
 1334              		.loc 1 624 0
 1335 0116 784B     		ldr	r3, .L120+16
 1336 0118 1B78     		ldrb	r3, [r3]
 1337 011a DBB2     		uxtb	r3, r3
 1338 011c 23F00103 		bic	r3, r3, #1
 1339 0120 DAB2     		uxtb	r2, r3
 1340 0122 754B     		ldr	r3, .L120+16
 1341 0124 1A70     		strb	r2, [r3]
 1342              	.L102:
 625:Generated_Source\PSoC5/USB_std.c ****         }
ARM GAS  C:\Users\JEFFSN~1\AppData\Local\Temp\cczY2IKK.s 			page 37


 626:Generated_Source\PSoC5/USB_std.c ****         
 627:Generated_Source\PSoC5/USB_std.c ****         /* Move to next element */
 628:Generated_Source\PSoC5/USB_std.c ****         pTmp = &pTmp[1u];
 1343              		.loc 1 628 0
 1344 0126 3B69     		ldr	r3, [r7, #16]
 1345 0128 0833     		adds	r3, r3, #8
 1346 012a 3B61     		str	r3, [r7, #16]
 629:Generated_Source\PSoC5/USB_std.c ****         ep = pTmp->c;  /* For this table, c is the number of endpoints configurations  */
 1347              		.loc 1 629 0
 1348 012c 3B69     		ldr	r3, [r7, #16]
 1349 012e 1B78     		ldrb	r3, [r3]
 1350 0130 FB77     		strb	r3, [r7, #31]
 630:Generated_Source\PSoC5/USB_std.c **** 
 631:Generated_Source\PSoC5/USB_std.c ****         #if (USB_EP_MANAGEMENT_MANUAL && USB_EP_ALLOC_DYNAMIC)
 632:Generated_Source\PSoC5/USB_std.c ****             /* Configure for dynamic EP memory allocation */
 633:Generated_Source\PSoC5/USB_std.c ****             /* p_list points the endpoint setting table. */
 634:Generated_Source\PSoC5/USB_std.c ****             pEP = (T_USB_EP_SETTINGS_BLOCK *) pTmp->p_list;
 635:Generated_Source\PSoC5/USB_std.c ****             
 636:Generated_Source\PSoC5/USB_std.c ****             for (i = 0u; i < ep; i++)
 637:Generated_Source\PSoC5/USB_std.c ****             {     
 638:Generated_Source\PSoC5/USB_std.c ****                 /* Compare current Alternate setting with EP Alt */
 639:Generated_Source\PSoC5/USB_std.c ****                 if (USB_interfaceSetting[pEP->interface] == pEP->altSetting)
 640:Generated_Source\PSoC5/USB_std.c ****                 {                                                          
 641:Generated_Source\PSoC5/USB_std.c ****                     curEp  = pEP->addr & USB_DIR_UNUSED;
 642:Generated_Source\PSoC5/USB_std.c ****                     epType = pEP->attributes & USB_EP_TYPE_MASK;
 643:Generated_Source\PSoC5/USB_std.c ****                     
 644:Generated_Source\PSoC5/USB_std.c ****                     USB_EP[curEp].addr       = pEP->addr;
 645:Generated_Source\PSoC5/USB_std.c ****                     USB_EP[curEp].attrib     = pEP->attributes;
 646:Generated_Source\PSoC5/USB_std.c ****                     USB_EP[curEp].bufferSize = pEP->bufferSize;
 647:Generated_Source\PSoC5/USB_std.c **** 
 648:Generated_Source\PSoC5/USB_std.c ****                     if (0u != (pEP->addr & USB_DIR_IN))
 649:Generated_Source\PSoC5/USB_std.c ****                     {
 650:Generated_Source\PSoC5/USB_std.c ****                         /* IN Endpoint */
 651:Generated_Source\PSoC5/USB_std.c ****                         USB_EP[curEp].epMode     = USB_GET_ACTIVE_IN_EP_CR0_MODE(epType);
 652:Generated_Source\PSoC5/USB_std.c ****                         USB_EP[curEp].apiEpState = USB_EVENT_PENDING;
 653:Generated_Source\PSoC5/USB_std.c ****                     
 654:Generated_Source\PSoC5/USB_std.c ****                     #if (defined(USB_ENABLE_MIDI_STREAMING) && (USB_MIDI_IN_BUFF_SIZE > 0))
 655:Generated_Source\PSoC5/USB_std.c ****                         if ((pEP->bMisc == USB_CLASS_AUDIO) && (epType == USB_EP_TYPE_BULK))
 656:Generated_Source\PSoC5/USB_std.c ****                         {
 657:Generated_Source\PSoC5/USB_std.c ****                             USB_midi_in_ep = curEp;
 658:Generated_Source\PSoC5/USB_std.c ****                         }
 659:Generated_Source\PSoC5/USB_std.c ****                     #endif  /* (USB_ENABLE_MIDI_STREAMING) */
 660:Generated_Source\PSoC5/USB_std.c ****                     }
 661:Generated_Source\PSoC5/USB_std.c ****                     else
 662:Generated_Source\PSoC5/USB_std.c ****                     {
 663:Generated_Source\PSoC5/USB_std.c ****                         /* OUT Endpoint */
 664:Generated_Source\PSoC5/USB_std.c ****                         USB_EP[curEp].epMode     = USB_GET_ACTIVE_OUT_EP_CR0_MODE(epType);
 665:Generated_Source\PSoC5/USB_std.c ****                         USB_EP[curEp].apiEpState = USB_NO_EVENT_PENDING;
 666:Generated_Source\PSoC5/USB_std.c ****                         
 667:Generated_Source\PSoC5/USB_std.c ****                     #if (defined(USB_ENABLE_MIDI_STREAMING) && (USB_MIDI_OUT_BUFF_SIZE > 0))
 668:Generated_Source\PSoC5/USB_std.c ****                         if ((pEP->bMisc == USB_CLASS_AUDIO) && (epType == USB_EP_TYPE_BULK))
 669:Generated_Source\PSoC5/USB_std.c ****                         {
 670:Generated_Source\PSoC5/USB_std.c ****                             USB_midi_out_ep = curEp;
 671:Generated_Source\PSoC5/USB_std.c ****                         }
 672:Generated_Source\PSoC5/USB_std.c ****                     #endif  /* (USB_ENABLE_MIDI_STREAMING) */
 673:Generated_Source\PSoC5/USB_std.c ****                     }
 674:Generated_Source\PSoC5/USB_std.c **** 
ARM GAS  C:\Users\JEFFSN~1\AppData\Local\Temp\cczY2IKK.s 			page 38


 675:Generated_Source\PSoC5/USB_std.c ****                 #if(defined (USB_ENABLE_CDC_CLASS))
 676:Generated_Source\PSoC5/USB_std.c ****                     if((pEP->bMisc == USB_CLASS_CDC_DATA) ||(pEP->bMisc == USB_CLASS_CDC))
 677:Generated_Source\PSoC5/USB_std.c ****                     {
 678:Generated_Source\PSoC5/USB_std.c ****                         cdcComNums = USB_Cdc_EpInit(pEP, curEp, cdcComNums);
 679:Generated_Source\PSoC5/USB_std.c ****                     }
 680:Generated_Source\PSoC5/USB_std.c ****                 #endif  /* (USB_ENABLE_CDC_CLASS) */
 681:Generated_Source\PSoC5/USB_std.c ****                 }
 682:Generated_Source\PSoC5/USB_std.c ****                 
 683:Generated_Source\PSoC5/USB_std.c ****                 pEP = &pEP[1u];
 684:Generated_Source\PSoC5/USB_std.c ****             }
 685:Generated_Source\PSoC5/USB_std.c ****             
 686:Generated_Source\PSoC5/USB_std.c ****         #else
 687:Generated_Source\PSoC5/USB_std.c ****             for (i = USB_EP1; i < USB_MAX_EP; ++i)
 1351              		.loc 1 687 0
 1352 0132 0123     		movs	r3, #1
 1353 0134 7B77     		strb	r3, [r7, #29]
 1354 0136 A9E0     		b	.L103
 1355              	.L114:
 688:Generated_Source\PSoC5/USB_std.c ****             {
 689:Generated_Source\PSoC5/USB_std.c ****                 /* p_list points the endpoint setting table. */
 690:Generated_Source\PSoC5/USB_std.c ****                 pEP = (const T_USB_EP_SETTINGS_BLOCK CYCODE *) pTmp->p_list;
 1356              		.loc 1 690 0
 1357 0138 3B69     		ldr	r3, [r7, #16]
 1358 013a 5B68     		ldr	r3, [r3, #4]
 1359 013c 7B61     		str	r3, [r7, #20]
 691:Generated_Source\PSoC5/USB_std.c ****                 /* Find max length for each EP and select it (length could be different in differen
 692:Generated_Source\PSoC5/USB_std.c ****                 /* but other settings should be correct with regards to Interface alt Setting */
 693:Generated_Source\PSoC5/USB_std.c ****                 
 694:Generated_Source\PSoC5/USB_std.c ****                 for (curEp = 0u; curEp < ep; ++curEp)
 1360              		.loc 1 694 0
 1361 013e 0023     		movs	r3, #0
 1362 0140 BB77     		strb	r3, [r7, #30]
 1363 0142 9BE0     		b	.L104
 1364              	.L113:
 695:Generated_Source\PSoC5/USB_std.c ****                 {
 696:Generated_Source\PSoC5/USB_std.c ****                     if (i == (pEP->addr & USB_DIR_UNUSED))
 1365              		.loc 1 696 0
 1366 0144 7A7F     		ldrb	r2, [r7, #29]	@ zero_extendqisi2
 1367 0146 7B69     		ldr	r3, [r7, #20]
 1368 0148 9B78     		ldrb	r3, [r3, #2]	@ zero_extendqisi2
 1369 014a 03F07F03 		and	r3, r3, #127
 1370 014e 9A42     		cmp	r2, r3
 1371 0150 40F08E80 		bne	.L105
 697:Generated_Source\PSoC5/USB_std.c ****                     {
 698:Generated_Source\PSoC5/USB_std.c ****                         /* Compare endpoint buffers size with current size to find greater. */
 699:Generated_Source\PSoC5/USB_std.c ****                         if (USB_EP[i].bufferSize < pEP->bufferSize)
 1372              		.loc 1 699 0
 1373 0154 7A7F     		ldrb	r2, [r7, #29]	@ zero_extendqisi2
 1374 0156 6449     		ldr	r1, .L120
 1375 0158 1346     		mov	r3, r2
 1376 015a 5B00     		lsls	r3, r3, #1
 1377 015c 1344     		add	r3, r3, r2
 1378 015e 9B00     		lsls	r3, r3, #2
 1379 0160 0B44     		add	r3, r3, r1
 1380 0162 0833     		adds	r3, r3, #8
 1381 0164 1B88     		ldrh	r3, [r3]	@ movhi
 1382 0166 9AB2     		uxth	r2, r3
ARM GAS  C:\Users\JEFFSN~1\AppData\Local\Temp\cczY2IKK.s 			page 39


 1383 0168 7B69     		ldr	r3, [r7, #20]
 1384 016a 9B88     		ldrh	r3, [r3, #4]
 1385 016c 9A42     		cmp	r2, r3
 1386 016e 0BD2     		bcs	.L106
 700:Generated_Source\PSoC5/USB_std.c ****                         {
 701:Generated_Source\PSoC5/USB_std.c ****                             USB_EP[i].bufferSize = pEP->bufferSize;
 1387              		.loc 1 701 0
 1388 0170 7A7F     		ldrb	r2, [r7, #29]	@ zero_extendqisi2
 1389 0172 7B69     		ldr	r3, [r7, #20]
 1390 0174 9888     		ldrh	r0, [r3, #4]
 1391 0176 5C49     		ldr	r1, .L120
 1392 0178 1346     		mov	r3, r2
 1393 017a 5B00     		lsls	r3, r3, #1
 1394 017c 1344     		add	r3, r3, r2
 1395 017e 9B00     		lsls	r3, r3, #2
 1396 0180 0B44     		add	r3, r3, r1
 1397 0182 0833     		adds	r3, r3, #8
 1398 0184 0246     		mov	r2, r0	@ movhi
 1399 0186 1A80     		strh	r2, [r3]	@ movhi
 1400              	.L106:
 702:Generated_Source\PSoC5/USB_std.c ****                         }
 703:Generated_Source\PSoC5/USB_std.c ****                         
 704:Generated_Source\PSoC5/USB_std.c ****                         /* Compare current Alternate setting with EP Alt */
 705:Generated_Source\PSoC5/USB_std.c ****                         if (USB_interfaceSetting[pEP->interface] == pEP->altSetting)
 1401              		.loc 1 705 0
 1402 0188 7B69     		ldr	r3, [r7, #20]
 1403 018a 1B78     		ldrb	r3, [r3]	@ zero_extendqisi2
 1404 018c 1A46     		mov	r2, r3
 1405 018e 574B     		ldr	r3, .L120+4
 1406 0190 9B5C     		ldrb	r3, [r3, r2]
 1407 0192 DAB2     		uxtb	r2, r3
 1408 0194 7B69     		ldr	r3, [r7, #20]
 1409 0196 5B78     		ldrb	r3, [r3, #1]	@ zero_extendqisi2
 1410 0198 9A42     		cmp	r2, r3
 1411 019a 69D1     		bne	.L105
 706:Generated_Source\PSoC5/USB_std.c ****                         {                            
 707:Generated_Source\PSoC5/USB_std.c ****                             USB_EP[i].addr = pEP->addr;
 1412              		.loc 1 707 0
 1413 019c 7A7F     		ldrb	r2, [r7, #29]	@ zero_extendqisi2
 1414 019e 7B69     		ldr	r3, [r7, #20]
 1415 01a0 9878     		ldrb	r0, [r3, #2]	@ zero_extendqisi2
 1416 01a2 5149     		ldr	r1, .L120
 1417 01a4 1346     		mov	r3, r2
 1418 01a6 5B00     		lsls	r3, r3, #1
 1419 01a8 1344     		add	r3, r3, r2
 1420 01aa 9B00     		lsls	r3, r3, #2
 1421 01ac 0B44     		add	r3, r3, r1
 1422 01ae 0433     		adds	r3, r3, #4
 1423 01b0 0246     		mov	r2, r0
 1424 01b2 1A70     		strb	r2, [r3]
 708:Generated_Source\PSoC5/USB_std.c ****                             USB_EP[i].attrib = pEP->attributes;
 1425              		.loc 1 708 0
 1426 01b4 7A7F     		ldrb	r2, [r7, #29]	@ zero_extendqisi2
 1427 01b6 7B69     		ldr	r3, [r7, #20]
 1428 01b8 D878     		ldrb	r0, [r3, #3]	@ zero_extendqisi2
 1429 01ba 4B49     		ldr	r1, .L120
 1430 01bc 1346     		mov	r3, r2
ARM GAS  C:\Users\JEFFSN~1\AppData\Local\Temp\cczY2IKK.s 			page 40


 1431 01be 5B00     		lsls	r3, r3, #1
 1432 01c0 1344     		add	r3, r3, r2
 1433 01c2 9B00     		lsls	r3, r3, #2
 1434 01c4 0B44     		add	r3, r3, r1
 1435 01c6 0246     		mov	r2, r0
 1436 01c8 1A70     		strb	r2, [r3]
 709:Generated_Source\PSoC5/USB_std.c ****                             
 710:Generated_Source\PSoC5/USB_std.c ****                             epType = pEP->attributes & USB_EP_TYPE_MASK;
 1437              		.loc 1 710 0
 1438 01ca 7B69     		ldr	r3, [r7, #20]
 1439 01cc DB78     		ldrb	r3, [r3, #3]	@ zero_extendqisi2
 1440 01ce 03F00303 		and	r3, r3, #3
 1441 01d2 FB72     		strb	r3, [r7, #11]
 711:Generated_Source\PSoC5/USB_std.c ****                             
 712:Generated_Source\PSoC5/USB_std.c ****                             if (0u != (pEP->addr & USB_DIR_IN))
 1442              		.loc 1 712 0
 1443 01d4 7B69     		ldr	r3, [r7, #20]
 1444 01d6 9B78     		ldrb	r3, [r3, #2]	@ zero_extendqisi2
 1445 01d8 5BB2     		sxtb	r3, r3
 1446 01da 002B     		cmp	r3, #0
 1447 01dc 24DA     		bge	.L107
 713:Generated_Source\PSoC5/USB_std.c ****                             {
 714:Generated_Source\PSoC5/USB_std.c ****                                 /* IN Endpoint */
 715:Generated_Source\PSoC5/USB_std.c ****                                 USB_EP[i].epMode     = USB_GET_ACTIVE_IN_EP_CR0_MODE(epType);
 1448              		.loc 1 715 0
 1449 01de 7A7F     		ldrb	r2, [r7, #29]	@ zero_extendqisi2
 1450 01e0 FB7A     		ldrb	r3, [r7, #11]	@ zero_extendqisi2
 1451 01e2 012B     		cmp	r3, #1
 1452 01e4 01D1     		bne	.L108
 1453              		.loc 1 715 0 is_stmt 0 discriminator 1
 1454 01e6 0720     		movs	r0, #7
 1455 01e8 00E0     		b	.L109
 1456              	.L108:
 1457              		.loc 1 715 0 discriminator 2
 1458 01ea 0D20     		movs	r0, #13
 1459              	.L109:
 1460              		.loc 1 715 0 discriminator 4
 1461 01ec 3E49     		ldr	r1, .L120
 1462 01ee 1346     		mov	r3, r2
 1463 01f0 5B00     		lsls	r3, r3, #1
 1464 01f2 1344     		add	r3, r3, r2
 1465 01f4 9B00     		lsls	r3, r3, #2
 1466 01f6 0B44     		add	r3, r3, r1
 1467 01f8 0533     		adds	r3, r3, #5
 1468 01fa 0246     		mov	r2, r0
 1469 01fc 1A70     		strb	r2, [r3]
 716:Generated_Source\PSoC5/USB_std.c ****                                 USB_EP[i].apiEpState = USB_EVENT_PENDING;
 1470              		.loc 1 716 0 is_stmt 1 discriminator 4
 1471 01fe 7A7F     		ldrb	r2, [r7, #29]	@ zero_extendqisi2
 1472 0200 3949     		ldr	r1, .L120
 1473 0202 1346     		mov	r3, r2
 1474 0204 5B00     		lsls	r3, r3, #1
 1475 0206 1344     		add	r3, r3, r2
 1476 0208 9B00     		lsls	r3, r3, #2
 1477 020a 0B44     		add	r3, r3, r1
 1478 020c 0133     		adds	r3, r3, #1
 1479 020e 0122     		movs	r2, #1
ARM GAS  C:\Users\JEFFSN~1\AppData\Local\Temp\cczY2IKK.s 			page 41


 1480 0210 1A70     		strb	r2, [r3]
 717:Generated_Source\PSoC5/USB_std.c ****                                 
 718:Generated_Source\PSoC5/USB_std.c ****                             #if (defined(USB_ENABLE_MIDI_STREAMING) && (USB_MIDI_IN_BUFF_SIZE > 0))
 719:Generated_Source\PSoC5/USB_std.c ****                                 if ((pEP->bMisc == USB_CLASS_AUDIO) && (epType == USB_EP_TYPE_BULK)
 1481              		.loc 1 719 0 discriminator 4
 1482 0212 7B69     		ldr	r3, [r7, #20]
 1483 0214 9B79     		ldrb	r3, [r3, #6]	@ zero_extendqisi2
 1484 0216 012B     		cmp	r3, #1
 1485 0218 2AD1     		bne	.L105
 1486              		.loc 1 719 0 is_stmt 0 discriminator 1
 1487 021a FB7A     		ldrb	r3, [r7, #11]	@ zero_extendqisi2
 1488 021c 022B     		cmp	r3, #2
 1489 021e 27D1     		bne	.L105
 720:Generated_Source\PSoC5/USB_std.c ****                                 {
 721:Generated_Source\PSoC5/USB_std.c ****                                     USB_midi_in_ep = i;
 1490              		.loc 1 721 0 is_stmt 1
 1491 0220 364A     		ldr	r2, .L120+20
 1492 0222 7B7F     		ldrb	r3, [r7, #29]
 1493 0224 1370     		strb	r3, [r2]
 1494 0226 23E0     		b	.L105
 1495              	.L107:
 722:Generated_Source\PSoC5/USB_std.c ****                                 }
 723:Generated_Source\PSoC5/USB_std.c ****                             #endif  /* (USB_ENABLE_MIDI_STREAMING) */
 724:Generated_Source\PSoC5/USB_std.c ****                             }
 725:Generated_Source\PSoC5/USB_std.c ****                             else
 726:Generated_Source\PSoC5/USB_std.c ****                             {
 727:Generated_Source\PSoC5/USB_std.c ****                                 /* OUT Endpoint */
 728:Generated_Source\PSoC5/USB_std.c ****                                 USB_EP[i].epMode     = USB_GET_ACTIVE_OUT_EP_CR0_MODE(epType);
 1496              		.loc 1 728 0
 1497 0228 7A7F     		ldrb	r2, [r7, #29]	@ zero_extendqisi2
 1498 022a FB7A     		ldrb	r3, [r7, #11]	@ zero_extendqisi2
 1499 022c 012B     		cmp	r3, #1
 1500 022e 01D1     		bne	.L111
 1501              		.loc 1 728 0 is_stmt 0 discriminator 1
 1502 0230 0520     		movs	r0, #5
 1503 0232 00E0     		b	.L112
 1504              	.L111:
 1505              		.loc 1 728 0 discriminator 2
 1506 0234 0920     		movs	r0, #9
 1507              	.L112:
 1508              		.loc 1 728 0 discriminator 4
 1509 0236 2C49     		ldr	r1, .L120
 1510 0238 1346     		mov	r3, r2
 1511 023a 5B00     		lsls	r3, r3, #1
 1512 023c 1344     		add	r3, r3, r2
 1513 023e 9B00     		lsls	r3, r3, #2
 1514 0240 0B44     		add	r3, r3, r1
 1515 0242 0533     		adds	r3, r3, #5
 1516 0244 0246     		mov	r2, r0
 1517 0246 1A70     		strb	r2, [r3]
 729:Generated_Source\PSoC5/USB_std.c ****                                 USB_EP[i].apiEpState = USB_NO_EVENT_PENDING;
 1518              		.loc 1 729 0 is_stmt 1 discriminator 4
 1519 0248 7A7F     		ldrb	r2, [r7, #29]	@ zero_extendqisi2
 1520 024a 2749     		ldr	r1, .L120
 1521 024c 1346     		mov	r3, r2
 1522 024e 5B00     		lsls	r3, r3, #1
 1523 0250 1344     		add	r3, r3, r2
ARM GAS  C:\Users\JEFFSN~1\AppData\Local\Temp\cczY2IKK.s 			page 42


 1524 0252 9B00     		lsls	r3, r3, #2
 1525 0254 0B44     		add	r3, r3, r1
 1526 0256 0133     		adds	r3, r3, #1
 1527 0258 0022     		movs	r2, #0
 1528 025a 1A70     		strb	r2, [r3]
 730:Generated_Source\PSoC5/USB_std.c ****                                 
 731:Generated_Source\PSoC5/USB_std.c ****                             #if (defined(USB_ENABLE_MIDI_STREAMING) && (USB_MIDI_OUT_BUFF_SIZE > 0)
 732:Generated_Source\PSoC5/USB_std.c ****                                 if ((pEP->bMisc == USB_CLASS_AUDIO) && (epType == USB_EP_TYPE_BULK)
 1529              		.loc 1 732 0 discriminator 4
 1530 025c 7B69     		ldr	r3, [r7, #20]
 1531 025e 9B79     		ldrb	r3, [r3, #6]	@ zero_extendqisi2
 1532 0260 012B     		cmp	r3, #1
 1533 0262 05D1     		bne	.L105
 1534              		.loc 1 732 0 is_stmt 0 discriminator 1
 1535 0264 FB7A     		ldrb	r3, [r7, #11]	@ zero_extendqisi2
 1536 0266 022B     		cmp	r3, #2
 1537 0268 02D1     		bne	.L105
 733:Generated_Source\PSoC5/USB_std.c ****                                 {
 734:Generated_Source\PSoC5/USB_std.c ****                                     USB_midi_out_ep = i;
 1538              		.loc 1 734 0 is_stmt 1
 1539 026a 254A     		ldr	r2, .L120+24
 1540 026c 7B7F     		ldrb	r3, [r7, #29]
 1541 026e 1370     		strb	r3, [r2]
 1542              	.L105:
 735:Generated_Source\PSoC5/USB_std.c ****                                 }
 736:Generated_Source\PSoC5/USB_std.c ****                             #endif  /* (USB_ENABLE_MIDI_STREAMING) */
 737:Generated_Source\PSoC5/USB_std.c ****                             }
 738:Generated_Source\PSoC5/USB_std.c **** 
 739:Generated_Source\PSoC5/USB_std.c ****                         #if (defined(USB_ENABLE_CDC_CLASS))
 740:Generated_Source\PSoC5/USB_std.c ****                             if((pEP->bMisc == USB_CLASS_CDC_DATA) ||(pEP->bMisc == USB_CLASS_CDC))
 741:Generated_Source\PSoC5/USB_std.c ****                             {
 742:Generated_Source\PSoC5/USB_std.c ****                                 cdcComNums = USB_Cdc_EpInit(pEP, i, cdcComNums);
 743:Generated_Source\PSoC5/USB_std.c ****                             }
 744:Generated_Source\PSoC5/USB_std.c ****                         #endif  /* (USB_ENABLE_CDC_CLASS) */
 745:Generated_Source\PSoC5/USB_std.c **** 
 746:Generated_Source\PSoC5/USB_std.c ****                             #if (USB_EP_MANAGEMENT_DMA_AUTO)
 747:Generated_Source\PSoC5/USB_std.c ****                                 break;  /* Use first EP setting in Auto memory management */
 748:Generated_Source\PSoC5/USB_std.c ****                             #endif /* (USB_EP_MANAGEMENT_DMA_AUTO) */
 749:Generated_Source\PSoC5/USB_std.c ****                         }
 750:Generated_Source\PSoC5/USB_std.c ****                     }
 751:Generated_Source\PSoC5/USB_std.c ****                     
 752:Generated_Source\PSoC5/USB_std.c ****                     pEP = &pEP[1u];
 1543              		.loc 1 752 0 discriminator 2
 1544 0270 7B69     		ldr	r3, [r7, #20]
 1545 0272 0833     		adds	r3, r3, #8
 1546 0274 7B61     		str	r3, [r7, #20]
 694:Generated_Source\PSoC5/USB_std.c ****                 {
 1547              		.loc 1 694 0 discriminator 2
 1548 0276 BB7F     		ldrb	r3, [r7, #30]
 1549 0278 0133     		adds	r3, r3, #1
 1550 027a BB77     		strb	r3, [r7, #30]
 1551              	.L104:
 694:Generated_Source\PSoC5/USB_std.c ****                 {
 1552              		.loc 1 694 0 is_stmt 0 discriminator 1
 1553 027c BA7F     		ldrb	r2, [r7, #30]	@ zero_extendqisi2
 1554 027e FB7F     		ldrb	r3, [r7, #31]	@ zero_extendqisi2
 1555 0280 9A42     		cmp	r2, r3
ARM GAS  C:\Users\JEFFSN~1\AppData\Local\Temp\cczY2IKK.s 			page 43


 1556 0282 FFF45FAF 		bcc	.L113
 687:Generated_Source\PSoC5/USB_std.c ****             {
 1557              		.loc 1 687 0 is_stmt 1 discriminator 2
 1558 0286 7B7F     		ldrb	r3, [r7, #29]
 1559 0288 0133     		adds	r3, r3, #1
 1560 028a 7B77     		strb	r3, [r7, #29]
 1561              	.L103:
 687:Generated_Source\PSoC5/USB_std.c ****             {
 1562              		.loc 1 687 0 is_stmt 0 discriminator 1
 1563 028c 7B7F     		ldrb	r3, [r7, #29]	@ zero_extendqisi2
 1564 028e 082B     		cmp	r3, #8
 1565 0290 7FF652AF 		bls	.L114
 753:Generated_Source\PSoC5/USB_std.c ****                 }
 754:Generated_Source\PSoC5/USB_std.c ****             }
 755:Generated_Source\PSoC5/USB_std.c ****         #endif /*  (USB_EP_MANAGEMENT_MANUAL && USB_EP_ALLOC_DYNAMIC) */
 756:Generated_Source\PSoC5/USB_std.c **** 
 757:Generated_Source\PSoC5/USB_std.c ****         /* Init class array for each interface and interface number for each EP.
 758:Generated_Source\PSoC5/USB_std.c ****         *  It is used for handling Class specific requests directed to either an
 759:Generated_Source\PSoC5/USB_std.c ****         *  interface or the endpoint.
 760:Generated_Source\PSoC5/USB_std.c ****         */
 761:Generated_Source\PSoC5/USB_std.c ****         /* p_list points the endpoint setting table. */
 762:Generated_Source\PSoC5/USB_std.c ****         pEP = (const T_USB_EP_SETTINGS_BLOCK CYCODE *) pTmp->p_list;
 1566              		.loc 1 762 0 is_stmt 1
 1567 0294 3B69     		ldr	r3, [r7, #16]
 1568 0296 5B68     		ldr	r3, [r3, #4]
 1569 0298 7B61     		str	r3, [r7, #20]
 763:Generated_Source\PSoC5/USB_std.c ****         for (i = 0u; i < ep; i++)
 1570              		.loc 1 763 0
 1571 029a 0023     		movs	r3, #0
 1572 029c 7B77     		strb	r3, [r7, #29]
 1573 029e 14E0     		b	.L115
 1574              	.L116:
 764:Generated_Source\PSoC5/USB_std.c ****         {
 765:Generated_Source\PSoC5/USB_std.c ****             /* Configure interface number for each EP */
 766:Generated_Source\PSoC5/USB_std.c ****             USB_EP[pEP->addr & USB_DIR_UNUSED].interface = pEP->interface;
 1575              		.loc 1 766 0 discriminator 3
 1576 02a0 7B69     		ldr	r3, [r7, #20]
 1577 02a2 9B78     		ldrb	r3, [r3, #2]	@ zero_extendqisi2
 1578 02a4 03F07F02 		and	r2, r3, #127
 1579 02a8 7B69     		ldr	r3, [r7, #20]
 1580 02aa 1878     		ldrb	r0, [r3]	@ zero_extendqisi2
 1581 02ac 0E49     		ldr	r1, .L120
 1582 02ae 1346     		mov	r3, r2
 1583 02b0 5B00     		lsls	r3, r3, #1
 1584 02b2 1344     		add	r3, r3, r2
 1585 02b4 9B00     		lsls	r3, r3, #2
 1586 02b6 0B44     		add	r3, r3, r1
 1587 02b8 0A33     		adds	r3, r3, #10
 1588 02ba 0246     		mov	r2, r0
 1589 02bc 1A70     		strb	r2, [r3]
 767:Generated_Source\PSoC5/USB_std.c ****             pEP = &pEP[1u];
 1590              		.loc 1 767 0 discriminator 3
 1591 02be 7B69     		ldr	r3, [r7, #20]
 1592 02c0 0833     		adds	r3, r3, #8
 1593 02c2 7B61     		str	r3, [r7, #20]
 763:Generated_Source\PSoC5/USB_std.c ****         for (i = 0u; i < ep; i++)
 1594              		.loc 1 763 0 discriminator 3
ARM GAS  C:\Users\JEFFSN~1\AppData\Local\Temp\cczY2IKK.s 			page 44


 1595 02c4 7B7F     		ldrb	r3, [r7, #29]	@ zero_extendqisi2
 1596 02c6 0133     		adds	r3, r3, #1
 1597 02c8 7B77     		strb	r3, [r7, #29]
 1598              	.L115:
 763:Generated_Source\PSoC5/USB_std.c ****         for (i = 0u; i < ep; i++)
 1599              		.loc 1 763 0 is_stmt 0 discriminator 1
 1600 02ca 7A7F     		ldrb	r2, [r7, #29]	@ zero_extendqisi2
 1601 02cc FB7F     		ldrb	r3, [r7, #31]	@ zero_extendqisi2
 1602 02ce 9A42     		cmp	r2, r3
 1603 02d0 E6D3     		bcc	.L116
 768:Generated_Source\PSoC5/USB_std.c ****         }
 769:Generated_Source\PSoC5/USB_std.c ****         
 770:Generated_Source\PSoC5/USB_std.c ****         /* Init pointer on interface class table */
 771:Generated_Source\PSoC5/USB_std.c ****         USB_interfaceClass = USB_GetInterfaceClassTablePtr();
 1604              		.loc 1 771 0 is_stmt 1
 1605 02d2 FFF7FEFF 		bl	USB_GetInterfaceClassTablePtr
 1606 02d6 0246     		mov	r2, r0
 1607 02d8 0A4B     		ldr	r3, .L120+28
 1608 02da 1A60     		str	r2, [r3]
 772:Generated_Source\PSoC5/USB_std.c ****         
 773:Generated_Source\PSoC5/USB_std.c ****     /* Set the endpoint buffer addresses */
 774:Generated_Source\PSoC5/USB_std.c ****     #if (!USB_EP_MANAGEMENT_DMA_AUTO)
 775:Generated_Source\PSoC5/USB_std.c ****         buffCount = 0u;
 1609              		.loc 1 775 0
 1610 02dc 0023     		movs	r3, #0
 1611 02de 7B83     		strh	r3, [r7, #26]	@ movhi
 776:Generated_Source\PSoC5/USB_std.c ****         for (ep = USB_EP1; ep < USB_MAX_EP; ++ep)
 1612              		.loc 1 776 0
 1613 02e0 0123     		movs	r3, #1
 1614 02e2 FB77     		strb	r3, [r7, #31]
 1615 02e4 31E0     		b	.L117
 1616              	.L121:
 1617 02e6 00BF     		.align	2
 1618              	.L120:
 1619 02e8 00000000 		.word	USB_EP
 1620 02ec 00000000 		.word	USB_interfaceSetting
 1621 02f0 00000000 		.word	USB_interfaceSettingLast
 1622 02f4 00000000 		.word	USB_configuration
 1623 02f8 00000000 		.word	USB_deviceStatus
 1624 02fc 00000000 		.word	USB_midi_in_ep
 1625 0300 00000000 		.word	USB_midi_out_ep
 1626 0304 00000000 		.word	USB_interfaceClass
 1627              	.L118:
 777:Generated_Source\PSoC5/USB_std.c ****         {
 778:Generated_Source\PSoC5/USB_std.c ****             USB_EP[ep].buffOffset = buffCount;        
 1628              		.loc 1 778 0 discriminator 3
 1629 0308 FA7F     		ldrb	r2, [r7, #31]	@ zero_extendqisi2
 1630 030a 1449     		ldr	r1, .L122
 1631 030c 1346     		mov	r3, r2
 1632 030e 5B00     		lsls	r3, r3, #1
 1633 0310 1344     		add	r3, r3, r2
 1634 0312 9B00     		lsls	r3, r3, #2
 1635 0314 0B44     		add	r3, r3, r1
 1636 0316 0633     		adds	r3, r3, #6
 1637 0318 7A8B     		ldrh	r2, [r7, #26]	@ movhi
 1638 031a 1A80     		strh	r2, [r3]	@ movhi
 779:Generated_Source\PSoC5/USB_std.c ****             buffCount += USB_EP[ep].bufferSize;
ARM GAS  C:\Users\JEFFSN~1\AppData\Local\Temp\cczY2IKK.s 			page 45


 1639              		.loc 1 779 0 discriminator 3
 1640 031c FA7F     		ldrb	r2, [r7, #31]	@ zero_extendqisi2
 1641 031e 0F49     		ldr	r1, .L122
 1642 0320 1346     		mov	r3, r2
 1643 0322 5B00     		lsls	r3, r3, #1
 1644 0324 1344     		add	r3, r3, r2
 1645 0326 9B00     		lsls	r3, r3, #2
 1646 0328 0B44     		add	r3, r3, r1
 1647 032a 0833     		adds	r3, r3, #8
 1648 032c 1B88     		ldrh	r3, [r3]	@ movhi
 1649 032e 9AB2     		uxth	r2, r3
 1650 0330 7B8B     		ldrh	r3, [r7, #26]	@ movhi
 1651 0332 1344     		add	r3, r3, r2
 1652 0334 7B83     		strh	r3, [r7, #26]	@ movhi
 780:Generated_Source\PSoC5/USB_std.c ****             
 781:Generated_Source\PSoC5/USB_std.c ****         #if (USB_GEN_16BITS_EP_ACCESS)
 782:Generated_Source\PSoC5/USB_std.c ****             /* Align EP buffers to be event size to access 16-bits DR register. */
 783:Generated_Source\PSoC5/USB_std.c ****             buffCount += (0u != (buffCount & 0x01u)) ? 1u : 0u;
 1653              		.loc 1 783 0 discriminator 3
 1654 0336 7B8B     		ldrh	r3, [r7, #26]	@ movhi
 1655 0338 03F00103 		and	r3, r3, #1
 1656 033c 9AB2     		uxth	r2, r3
 1657 033e 7B8B     		ldrh	r3, [r7, #26]	@ movhi
 1658 0340 1344     		add	r3, r3, r2
 1659 0342 7B83     		strh	r3, [r7, #26]	@ movhi
 776:Generated_Source\PSoC5/USB_std.c ****         {
 1660              		.loc 1 776 0 discriminator 3
 1661 0344 FB7F     		ldrb	r3, [r7, #31]
 1662 0346 0133     		adds	r3, r3, #1
 1663 0348 FB77     		strb	r3, [r7, #31]
 1664              	.L117:
 776:Generated_Source\PSoC5/USB_std.c ****         {
 1665              		.loc 1 776 0 is_stmt 0 discriminator 1
 1666 034a FB7F     		ldrb	r3, [r7, #31]	@ zero_extendqisi2
 1667 034c 082B     		cmp	r3, #8
 1668 034e DBD9     		bls	.L118
 784:Generated_Source\PSoC5/USB_std.c ****         #endif /* (USB_GEN_16BITS_EP_ACCESS) */            
 785:Generated_Source\PSoC5/USB_std.c ****         }
 786:Generated_Source\PSoC5/USB_std.c ****     #endif /* (!USB_EP_MANAGEMENT_DMA_AUTO) */
 787:Generated_Source\PSoC5/USB_std.c **** 
 788:Generated_Source\PSoC5/USB_std.c ****         /* Configure hardware registers */
 789:Generated_Source\PSoC5/USB_std.c ****         USB_ConfigReg();
 1669              		.loc 1 789 0 is_stmt 1
 1670 0350 FFF7FEFF 		bl	USB_ConfigReg
 1671              	.L119:
 790:Generated_Source\PSoC5/USB_std.c ****     }
 791:Generated_Source\PSoC5/USB_std.c **** }
 1672              		.loc 1 791 0
 1673 0354 00BF     		nop
 1674 0356 2037     		adds	r7, r7, #32
 1675              		.cfi_def_cfa_offset 8
 1676 0358 BD46     		mov	sp, r7
 1677              		.cfi_def_cfa_register 13
 1678              		@ sp needed
 1679 035a 80BD     		pop	{r7, pc}
 1680              	.L123:
 1681              		.align	2
ARM GAS  C:\Users\JEFFSN~1\AppData\Local\Temp\cczY2IKK.s 			page 46


 1682              	.L122:
 1683 035c 00000000 		.word	USB_EP
 1684              		.cfi_endproc
 1685              	.LFE4:
 1686              		.size	USB_Config, .-USB_Config
 1687              		.section	.text.USB_ConfigAltChanged,"ax",%progbits
 1688              		.align	2
 1689              		.global	USB_ConfigAltChanged
 1690              		.thumb
 1691              		.thumb_func
 1692              		.type	USB_ConfigAltChanged, %function
 1693              	USB_ConfigAltChanged:
 1694              	.LFB5:
 792:Generated_Source\PSoC5/USB_std.c **** 
 793:Generated_Source\PSoC5/USB_std.c **** 
 794:Generated_Source\PSoC5/USB_std.c **** /*******************************************************************************
 795:Generated_Source\PSoC5/USB_std.c **** * Function Name: USB_ConfigAltChanged
 796:Generated_Source\PSoC5/USB_std.c **** ****************************************************************************//**
 797:Generated_Source\PSoC5/USB_std.c **** *
 798:Generated_Source\PSoC5/USB_std.c **** *  This routine update configuration for the required endpoints only.
 799:Generated_Source\PSoC5/USB_std.c **** *  It is called after SET_INTERFACE request when Static memory allocation used.
 800:Generated_Source\PSoC5/USB_std.c **** *
 801:Generated_Source\PSoC5/USB_std.c **** * \reentrant
 802:Generated_Source\PSoC5/USB_std.c **** *  No.
 803:Generated_Source\PSoC5/USB_std.c **** *
 804:Generated_Source\PSoC5/USB_std.c **** *******************************************************************************/
 805:Generated_Source\PSoC5/USB_std.c **** void USB_ConfigAltChanged(void) 
 806:Generated_Source\PSoC5/USB_std.c **** {
 1695              		.loc 1 806 0
 1696              		.cfi_startproc
 1697              		@ args = 0, pretend = 0, frame = 16
 1698              		@ frame_needed = 1, uses_anonymous_args = 0
 1699 0000 90B5     		push	{r4, r7, lr}
 1700              		.cfi_def_cfa_offset 12
 1701              		.cfi_offset 4, -12
 1702              		.cfi_offset 7, -8
 1703              		.cfi_offset 14, -4
 1704 0002 85B0     		sub	sp, sp, #20
 1705              		.cfi_def_cfa_offset 32
 1706 0004 00AF     		add	r7, sp, #0
 1707              		.cfi_def_cfa_register 7
 807:Generated_Source\PSoC5/USB_std.c ****     uint8 ep;
 808:Generated_Source\PSoC5/USB_std.c ****     uint8 curEp;
 809:Generated_Source\PSoC5/USB_std.c ****     uint8 epType;
 810:Generated_Source\PSoC5/USB_std.c ****     uint8 i;
 811:Generated_Source\PSoC5/USB_std.c ****     uint8 interfaceNum;
 812:Generated_Source\PSoC5/USB_std.c **** 
 813:Generated_Source\PSoC5/USB_std.c ****     const T_USB_LUT CYCODE *pTmp;
 814:Generated_Source\PSoC5/USB_std.c ****     const T_USB_EP_SETTINGS_BLOCK CYCODE *pEP;
 815:Generated_Source\PSoC5/USB_std.c **** 
 816:Generated_Source\PSoC5/USB_std.c ****     /* Init Endpoints and Device Status if configured */
 817:Generated_Source\PSoC5/USB_std.c ****     if (USB_configuration > 0u)
 1708              		.loc 1 817 0
 1709 0006 8F4B     		ldr	r3, .L136
 1710 0008 1B78     		ldrb	r3, [r3]
 1711 000a DBB2     		uxtb	r3, r3
 1712 000c 002B     		cmp	r3, #0
ARM GAS  C:\Users\JEFFSN~1\AppData\Local\Temp\cczY2IKK.s 			page 47


 1713 000e 00F01581 		beq	.L135
 818:Generated_Source\PSoC5/USB_std.c ****     {
 819:Generated_Source\PSoC5/USB_std.c ****         /* Get number of endpoints configurations (ep). */
 820:Generated_Source\PSoC5/USB_std.c ****         pTmp = USB_GetConfigTablePtr(USB_configuration - 1u);
 1714              		.loc 1 820 0
 1715 0012 8C4B     		ldr	r3, .L136
 1716 0014 1B78     		ldrb	r3, [r3]
 1717 0016 DBB2     		uxtb	r3, r3
 1718 0018 013B     		subs	r3, r3, #1
 1719 001a DBB2     		uxtb	r3, r3
 1720 001c 1846     		mov	r0, r3
 1721 001e FFF7FEFF 		bl	USB_GetConfigTablePtr
 1722 0022 7860     		str	r0, [r7, #4]
 821:Generated_Source\PSoC5/USB_std.c ****         pTmp = &pTmp[1u];
 1723              		.loc 1 821 0
 1724 0024 7B68     		ldr	r3, [r7, #4]
 1725 0026 0833     		adds	r3, r3, #8
 1726 0028 7B60     		str	r3, [r7, #4]
 822:Generated_Source\PSoC5/USB_std.c ****         ep = pTmp->c;
 1727              		.loc 1 822 0
 1728 002a 7B68     		ldr	r3, [r7, #4]
 1729 002c 1B78     		ldrb	r3, [r3]
 1730 002e FB70     		strb	r3, [r7, #3]
 823:Generated_Source\PSoC5/USB_std.c **** 
 824:Generated_Source\PSoC5/USB_std.c ****         /* Get pointer to endpoints setting table (pEP). */
 825:Generated_Source\PSoC5/USB_std.c ****         pEP = (const T_USB_EP_SETTINGS_BLOCK CYCODE *) pTmp->p_list;
 1731              		.loc 1 825 0
 1732 0030 7B68     		ldr	r3, [r7, #4]
 1733 0032 5B68     		ldr	r3, [r3, #4]
 1734 0034 BB60     		str	r3, [r7, #8]
 826:Generated_Source\PSoC5/USB_std.c ****         
 827:Generated_Source\PSoC5/USB_std.c ****         /* Look through all possible endpoint configurations. Find endpoints 
 828:Generated_Source\PSoC5/USB_std.c ****         * which belong to current interface and alternate settings for 
 829:Generated_Source\PSoC5/USB_std.c ****         * re-configuration.
 830:Generated_Source\PSoC5/USB_std.c ****         */
 831:Generated_Source\PSoC5/USB_std.c ****         interfaceNum = USB_interfaceNumber;
 1735              		.loc 1 831 0
 1736 0036 844B     		ldr	r3, .L136+4
 1737 0038 1B78     		ldrb	r3, [r3]
 1738 003a BB70     		strb	r3, [r7, #2]
 832:Generated_Source\PSoC5/USB_std.c ****         for (i = 0u; i < ep; i++)
 1739              		.loc 1 832 0
 1740 003c 0023     		movs	r3, #0
 1741 003e FB73     		strb	r3, [r7, #15]
 1742 0040 F7E0     		b	.L126
 1743              	.L134:
 833:Generated_Source\PSoC5/USB_std.c ****         {
 834:Generated_Source\PSoC5/USB_std.c ****             /* Find endpoints which belong to current interface and alternate settings. */
 835:Generated_Source\PSoC5/USB_std.c ****             if ((interfaceNum == pEP->interface) && 
 1744              		.loc 1 835 0
 1745 0042 BB68     		ldr	r3, [r7, #8]
 1746 0044 1B78     		ldrb	r3, [r3]	@ zero_extendqisi2
 1747 0046 BA78     		ldrb	r2, [r7, #2]	@ zero_extendqisi2
 1748 0048 9A42     		cmp	r2, r3
 1749 004a 40F0EC80 		bne	.L127
 836:Generated_Source\PSoC5/USB_std.c ****                 (USB_interfaceSetting[interfaceNum] == pEP->altSetting))
 1750              		.loc 1 836 0 discriminator 1
ARM GAS  C:\Users\JEFFSN~1\AppData\Local\Temp\cczY2IKK.s 			page 48


 1751 004e BB78     		ldrb	r3, [r7, #2]	@ zero_extendqisi2
 1752 0050 7E4A     		ldr	r2, .L136+8
 1753 0052 D35C     		ldrb	r3, [r2, r3]
 1754 0054 DAB2     		uxtb	r2, r3
 1755 0056 BB68     		ldr	r3, [r7, #8]
 1756 0058 5B78     		ldrb	r3, [r3, #1]	@ zero_extendqisi2
 835:Generated_Source\PSoC5/USB_std.c ****                 (USB_interfaceSetting[interfaceNum] == pEP->altSetting))
 1757              		.loc 1 835 0 discriminator 1
 1758 005a 9A42     		cmp	r2, r3
 1759 005c 40F0E380 		bne	.L127
 837:Generated_Source\PSoC5/USB_std.c ****             {
 838:Generated_Source\PSoC5/USB_std.c ****                 curEp  = ((uint8) pEP->addr & USB_DIR_UNUSED);
 1760              		.loc 1 838 0
 1761 0060 BB68     		ldr	r3, [r7, #8]
 1762 0062 9B78     		ldrb	r3, [r3, #2]	@ zero_extendqisi2
 1763 0064 03F07F03 		and	r3, r3, #127
 1764 0068 7B70     		strb	r3, [r7, #1]
 839:Generated_Source\PSoC5/USB_std.c ****                 epType = ((uint8) pEP->attributes & USB_EP_TYPE_MASK);
 1765              		.loc 1 839 0
 1766 006a BB68     		ldr	r3, [r7, #8]
 1767 006c DB78     		ldrb	r3, [r3, #3]	@ zero_extendqisi2
 1768 006e 03F00303 		and	r3, r3, #3
 1769 0072 3B70     		strb	r3, [r7]
 840:Generated_Source\PSoC5/USB_std.c ****                 
 841:Generated_Source\PSoC5/USB_std.c ****                 /* Change the SIE mode for the selected EP to NAK ALL */
 842:Generated_Source\PSoC5/USB_std.c ****                 USB_EP[curEp].epToggle   = 0u;
 1770              		.loc 1 842 0
 1771 0074 7A78     		ldrb	r2, [r7, #1]	@ zero_extendqisi2
 1772 0076 7649     		ldr	r1, .L136+12
 1773 0078 1346     		mov	r3, r2
 1774 007a 5B00     		lsls	r3, r3, #1
 1775 007c 1344     		add	r3, r3, r2
 1776 007e 9B00     		lsls	r3, r3, #2
 1777 0080 0B44     		add	r3, r3, r1
 1778 0082 0333     		adds	r3, r3, #3
 1779 0084 0022     		movs	r2, #0
 1780 0086 1A70     		strb	r2, [r3]
 843:Generated_Source\PSoC5/USB_std.c ****                 USB_EP[curEp].addr       = pEP->addr;
 1781              		.loc 1 843 0
 1782 0088 7A78     		ldrb	r2, [r7, #1]	@ zero_extendqisi2
 1783 008a BB68     		ldr	r3, [r7, #8]
 1784 008c 9878     		ldrb	r0, [r3, #2]	@ zero_extendqisi2
 1785 008e 7049     		ldr	r1, .L136+12
 1786 0090 1346     		mov	r3, r2
 1787 0092 5B00     		lsls	r3, r3, #1
 1788 0094 1344     		add	r3, r3, r2
 1789 0096 9B00     		lsls	r3, r3, #2
 1790 0098 0B44     		add	r3, r3, r1
 1791 009a 0433     		adds	r3, r3, #4
 1792 009c 0246     		mov	r2, r0
 1793 009e 1A70     		strb	r2, [r3]
 844:Generated_Source\PSoC5/USB_std.c ****                 USB_EP[curEp].attrib     = pEP->attributes;
 1794              		.loc 1 844 0
 1795 00a0 7A78     		ldrb	r2, [r7, #1]	@ zero_extendqisi2
 1796 00a2 BB68     		ldr	r3, [r7, #8]
 1797 00a4 D878     		ldrb	r0, [r3, #3]	@ zero_extendqisi2
 1798 00a6 6A49     		ldr	r1, .L136+12
ARM GAS  C:\Users\JEFFSN~1\AppData\Local\Temp\cczY2IKK.s 			page 49


 1799 00a8 1346     		mov	r3, r2
 1800 00aa 5B00     		lsls	r3, r3, #1
 1801 00ac 1344     		add	r3, r3, r2
 1802 00ae 9B00     		lsls	r3, r3, #2
 1803 00b0 0B44     		add	r3, r3, r1
 1804 00b2 0246     		mov	r2, r0
 1805 00b4 1A70     		strb	r2, [r3]
 845:Generated_Source\PSoC5/USB_std.c ****                 USB_EP[curEp].bufferSize = pEP->bufferSize;
 1806              		.loc 1 845 0
 1807 00b6 7A78     		ldrb	r2, [r7, #1]	@ zero_extendqisi2
 1808 00b8 BB68     		ldr	r3, [r7, #8]
 1809 00ba 9888     		ldrh	r0, [r3, #4]
 1810 00bc 6449     		ldr	r1, .L136+12
 1811 00be 1346     		mov	r3, r2
 1812 00c0 5B00     		lsls	r3, r3, #1
 1813 00c2 1344     		add	r3, r3, r2
 1814 00c4 9B00     		lsls	r3, r3, #2
 1815 00c6 0B44     		add	r3, r3, r1
 1816 00c8 0833     		adds	r3, r3, #8
 1817 00ca 0246     		mov	r2, r0	@ movhi
 1818 00cc 1A80     		strh	r2, [r3]	@ movhi
 846:Generated_Source\PSoC5/USB_std.c **** 
 847:Generated_Source\PSoC5/USB_std.c ****                 if (0u != (pEP->addr & USB_DIR_IN))
 1819              		.loc 1 847 0
 1820 00ce BB68     		ldr	r3, [r7, #8]
 1821 00d0 9B78     		ldrb	r3, [r3, #2]	@ zero_extendqisi2
 1822 00d2 5BB2     		sxtb	r3, r3
 1823 00d4 002B     		cmp	r3, #0
 1824 00d6 1ADA     		bge	.L128
 848:Generated_Source\PSoC5/USB_std.c ****                 {
 849:Generated_Source\PSoC5/USB_std.c ****                     /* IN Endpoint */
 850:Generated_Source\PSoC5/USB_std.c ****                     USB_EP[curEp].epMode     = USB_GET_ACTIVE_IN_EP_CR0_MODE(epType);
 1825              		.loc 1 850 0
 1826 00d8 7A78     		ldrb	r2, [r7, #1]	@ zero_extendqisi2
 1827 00da 3B78     		ldrb	r3, [r7]	@ zero_extendqisi2
 1828 00dc 012B     		cmp	r3, #1
 1829 00de 01D1     		bne	.L129
 1830              		.loc 1 850 0 is_stmt 0 discriminator 1
 1831 00e0 0720     		movs	r0, #7
 1832 00e2 00E0     		b	.L130
 1833              	.L129:
 1834              		.loc 1 850 0 discriminator 2
 1835 00e4 0D20     		movs	r0, #13
 1836              	.L130:
 1837              		.loc 1 850 0 discriminator 4
 1838 00e6 5A49     		ldr	r1, .L136+12
 1839 00e8 1346     		mov	r3, r2
 1840 00ea 5B00     		lsls	r3, r3, #1
 1841 00ec 1344     		add	r3, r3, r2
 1842 00ee 9B00     		lsls	r3, r3, #2
 1843 00f0 0B44     		add	r3, r3, r1
 1844 00f2 0533     		adds	r3, r3, #5
 1845 00f4 0246     		mov	r2, r0
 1846 00f6 1A70     		strb	r2, [r3]
 851:Generated_Source\PSoC5/USB_std.c ****                     USB_EP[curEp].apiEpState = USB_EVENT_PENDING;
 1847              		.loc 1 851 0 is_stmt 1 discriminator 4
 1848 00f8 7A78     		ldrb	r2, [r7, #1]	@ zero_extendqisi2
ARM GAS  C:\Users\JEFFSN~1\AppData\Local\Temp\cczY2IKK.s 			page 50


 1849 00fa 5549     		ldr	r1, .L136+12
 1850 00fc 1346     		mov	r3, r2
 1851 00fe 5B00     		lsls	r3, r3, #1
 1852 0100 1344     		add	r3, r3, r2
 1853 0102 9B00     		lsls	r3, r3, #2
 1854 0104 0B44     		add	r3, r3, r1
 1855 0106 0133     		adds	r3, r3, #1
 1856 0108 0122     		movs	r2, #1
 1857 010a 1A70     		strb	r2, [r3]
 1858 010c 19E0     		b	.L131
 1859              	.L128:
 852:Generated_Source\PSoC5/USB_std.c ****                 }
 853:Generated_Source\PSoC5/USB_std.c ****                 else
 854:Generated_Source\PSoC5/USB_std.c ****                 {
 855:Generated_Source\PSoC5/USB_std.c ****                     /* OUT Endpoint */
 856:Generated_Source\PSoC5/USB_std.c ****                     USB_EP[curEp].epMode     = USB_GET_ACTIVE_OUT_EP_CR0_MODE(epType);
 1860              		.loc 1 856 0
 1861 010e 7A78     		ldrb	r2, [r7, #1]	@ zero_extendqisi2
 1862 0110 3B78     		ldrb	r3, [r7]	@ zero_extendqisi2
 1863 0112 012B     		cmp	r3, #1
 1864 0114 01D1     		bne	.L132
 1865              		.loc 1 856 0 is_stmt 0 discriminator 1
 1866 0116 0520     		movs	r0, #5
 1867 0118 00E0     		b	.L133
 1868              	.L132:
 1869              		.loc 1 856 0 discriminator 2
 1870 011a 0920     		movs	r0, #9
 1871              	.L133:
 1872              		.loc 1 856 0 discriminator 4
 1873 011c 4C49     		ldr	r1, .L136+12
 1874 011e 1346     		mov	r3, r2
 1875 0120 5B00     		lsls	r3, r3, #1
 1876 0122 1344     		add	r3, r3, r2
 1877 0124 9B00     		lsls	r3, r3, #2
 1878 0126 0B44     		add	r3, r3, r1
 1879 0128 0533     		adds	r3, r3, #5
 1880 012a 0246     		mov	r2, r0
 1881 012c 1A70     		strb	r2, [r3]
 857:Generated_Source\PSoC5/USB_std.c ****                     USB_EP[curEp].apiEpState = USB_NO_EVENT_PENDING;
 1882              		.loc 1 857 0 is_stmt 1 discriminator 4
 1883 012e 7A78     		ldrb	r2, [r7, #1]	@ zero_extendqisi2
 1884 0130 4749     		ldr	r1, .L136+12
 1885 0132 1346     		mov	r3, r2
 1886 0134 5B00     		lsls	r3, r3, #1
 1887 0136 1344     		add	r3, r3, r2
 1888 0138 9B00     		lsls	r3, r3, #2
 1889 013a 0B44     		add	r3, r3, r1
 1890 013c 0133     		adds	r3, r3, #1
 1891 013e 0022     		movs	r2, #0
 1892 0140 1A70     		strb	r2, [r3]
 1893              	.L131:
 858:Generated_Source\PSoC5/USB_std.c ****                 }
 859:Generated_Source\PSoC5/USB_std.c ****                 
 860:Generated_Source\PSoC5/USB_std.c ****                 /* Make SIE to NAK any endpoint requests */
 861:Generated_Source\PSoC5/USB_std.c ****                 USB_SIE_EP_BASE.sieEp[curEp].epCr0 = USB_MODE_NAK_IN_OUT;
 1894              		.loc 1 861 0
 1895 0142 444A     		ldr	r2, .L136+16
ARM GAS  C:\Users\JEFFSN~1\AppData\Local\Temp\cczY2IKK.s 			page 51


 1896 0144 7B78     		ldrb	r3, [r7, #1]	@ zero_extendqisi2
 1897 0146 1B01     		lsls	r3, r3, #4
 1898 0148 1344     		add	r3, r3, r2
 1899 014a 0233     		adds	r3, r3, #2
 1900 014c 0122     		movs	r2, #1
 1901 014e 1A70     		strb	r2, [r3]
 862:Generated_Source\PSoC5/USB_std.c **** 
 863:Generated_Source\PSoC5/USB_std.c ****             #if (USB_EP_MANAGEMENT_DMA_AUTO)
 864:Generated_Source\PSoC5/USB_std.c ****                 /* Clear IN data ready. */
 865:Generated_Source\PSoC5/USB_std.c ****                 USB_ARB_EP_BASE.arbEp[curEp].epCfg &= (uint8) ~USB_ARB_EPX_CFG_IN_DATA_RDY;
 866:Generated_Source\PSoC5/USB_std.c **** 
 867:Generated_Source\PSoC5/USB_std.c ****                 /* Select endpoint number of reconfiguration */
 868:Generated_Source\PSoC5/USB_std.c ****                 USB_DYN_RECONFIG_REG = (uint8) ((curEp - 1u) << USB_DYN_RECONFIG_EP_SHIFT);
 869:Generated_Source\PSoC5/USB_std.c ****                 
 870:Generated_Source\PSoC5/USB_std.c ****                 /* Request for dynamic re-configuration of endpoint. */
 871:Generated_Source\PSoC5/USB_std.c ****                 USB_DYN_RECONFIG_REG |= USB_DYN_RECONFIG_ENABLE;
 872:Generated_Source\PSoC5/USB_std.c ****                 
 873:Generated_Source\PSoC5/USB_std.c ****                 /* Wait until block is ready for re-configuration */
 874:Generated_Source\PSoC5/USB_std.c ****                 while (0u == (USB_DYN_RECONFIG_REG & USB_DYN_RECONFIG_RDY_STS))
 875:Generated_Source\PSoC5/USB_std.c ****                 {
 876:Generated_Source\PSoC5/USB_std.c ****                 }
 877:Generated_Source\PSoC5/USB_std.c ****                 
 878:Generated_Source\PSoC5/USB_std.c ****                 /* Once DYN_RECONFIG_RDY_STS bit is set, FW can change the EP configuration. */
 879:Generated_Source\PSoC5/USB_std.c ****                 /* Change EP Type with new direction */
 880:Generated_Source\PSoC5/USB_std.c ****                 if (0u != (pEP->addr & USB_DIR_IN))
 881:Generated_Source\PSoC5/USB_std.c ****                 {
 882:Generated_Source\PSoC5/USB_std.c ****                     /* Set endpoint type: 0 - IN and 1 - OUT. */
 883:Generated_Source\PSoC5/USB_std.c ****                     USB_EP_TYPE_REG &= (uint8) ~(uint8)((uint8) 0x01u << (curEp - 1u));
 884:Generated_Source\PSoC5/USB_std.c ****                     
 885:Generated_Source\PSoC5/USB_std.c ****                 #if (CY_PSOC4)
 886:Generated_Source\PSoC5/USB_std.c ****                     /* Clear DMA_TERMIN for IN endpoint */
 887:Generated_Source\PSoC5/USB_std.c ****                     USB_ARB_EP_BASE.arbEp[curEp].epIntEn &= (uint32) ~USB_ARB_EPX_INT_DMA_TERMIN;
 888:Generated_Source\PSoC5/USB_std.c ****                 #endif /* (CY_PSOC4) */
 889:Generated_Source\PSoC5/USB_std.c ****                 }
 890:Generated_Source\PSoC5/USB_std.c ****                 else
 891:Generated_Source\PSoC5/USB_std.c ****                 {
 892:Generated_Source\PSoC5/USB_std.c ****                     /* Set endpoint type: 0 - IN and 1- OUT. */
 893:Generated_Source\PSoC5/USB_std.c ****                     USB_EP_TYPE_REG |= (uint8) ((uint8) 0x01u << (curEp - 1u));
 894:Generated_Source\PSoC5/USB_std.c ****                     
 895:Generated_Source\PSoC5/USB_std.c ****                 #if (CY_PSOC4)
 896:Generated_Source\PSoC5/USB_std.c ****                     /* Set DMA_TERMIN for OUT endpoint */
 897:Generated_Source\PSoC5/USB_std.c ****                     USB_ARB_EP_BASE.arbEp[curEp].epIntEn |= (uint32) USB_ARB_EPX_INT_DMA_TERMIN;
 898:Generated_Source\PSoC5/USB_std.c ****                 #endif /* (CY_PSOC4) */
 899:Generated_Source\PSoC5/USB_std.c ****                 }
 900:Generated_Source\PSoC5/USB_std.c ****                 
 901:Generated_Source\PSoC5/USB_std.c ****                 /* Complete dynamic re-configuration: all endpoint related status and signals 
 902:Generated_Source\PSoC5/USB_std.c ****                 * are set into the default state.
 903:Generated_Source\PSoC5/USB_std.c ****                 */
 904:Generated_Source\PSoC5/USB_std.c ****                 USB_DYN_RECONFIG_REG &= (uint8) ~USB_DYN_RECONFIG_ENABLE;
 905:Generated_Source\PSoC5/USB_std.c **** 
 906:Generated_Source\PSoC5/USB_std.c ****             #else
 907:Generated_Source\PSoC5/USB_std.c ****                 USB_SIE_EP_BASE.sieEp[curEp].epCnt0 = HI8(USB_EP[curEp].bufferSize);
 1902              		.loc 1 907 0
 1903 0150 4048     		ldr	r0, .L136+16
 1904 0152 7978     		ldrb	r1, [r7, #1]	@ zero_extendqisi2
 1905 0154 7A78     		ldrb	r2, [r7, #1]	@ zero_extendqisi2
 1906 0156 3E4C     		ldr	r4, .L136+12
ARM GAS  C:\Users\JEFFSN~1\AppData\Local\Temp\cczY2IKK.s 			page 52


 1907 0158 1346     		mov	r3, r2
 1908 015a 5B00     		lsls	r3, r3, #1
 1909 015c 1344     		add	r3, r3, r2
 1910 015e 9B00     		lsls	r3, r3, #2
 1911 0160 2344     		add	r3, r3, r4
 1912 0162 0833     		adds	r3, r3, #8
 1913 0164 1B88     		ldrh	r3, [r3]	@ movhi
 1914 0166 9BB2     		uxth	r3, r3
 1915 0168 1B0A     		lsrs	r3, r3, #8
 1916 016a 9BB2     		uxth	r3, r3
 1917 016c DAB2     		uxtb	r2, r3
 1918 016e 0B01     		lsls	r3, r1, #4
 1919 0170 0344     		add	r3, r3, r0
 1920 0172 1A70     		strb	r2, [r3]
 908:Generated_Source\PSoC5/USB_std.c ****                 USB_SIE_EP_BASE.sieEp[curEp].epCnt1 = LO8(USB_EP[curEp].bufferSize);
 1921              		.loc 1 908 0
 1922 0174 3748     		ldr	r0, .L136+16
 1923 0176 7978     		ldrb	r1, [r7, #1]	@ zero_extendqisi2
 1924 0178 7A78     		ldrb	r2, [r7, #1]	@ zero_extendqisi2
 1925 017a 354C     		ldr	r4, .L136+12
 1926 017c 1346     		mov	r3, r2
 1927 017e 5B00     		lsls	r3, r3, #1
 1928 0180 1344     		add	r3, r3, r2
 1929 0182 9B00     		lsls	r3, r3, #2
 1930 0184 2344     		add	r3, r3, r4
 1931 0186 0833     		adds	r3, r3, #8
 1932 0188 1B88     		ldrh	r3, [r3]	@ movhi
 1933 018a 9BB2     		uxth	r3, r3
 1934 018c DAB2     		uxtb	r2, r3
 1935 018e 0B01     		lsls	r3, r1, #4
 1936 0190 0344     		add	r3, r3, r0
 1937 0192 0133     		adds	r3, r3, #1
 1938 0194 1A70     		strb	r2, [r3]
 909:Generated_Source\PSoC5/USB_std.c ****                 
 910:Generated_Source\PSoC5/USB_std.c ****                 #if (CY_PSOC4)
 911:Generated_Source\PSoC5/USB_std.c ****                     USB_ARB_EP16_BASE.arbEp[curEp].rwRa16  = (uint32) USB_EP[curEp].buffOffset;
 912:Generated_Source\PSoC5/USB_std.c ****                     USB_ARB_EP16_BASE.arbEp[curEp].rwWa16  = (uint32) USB_EP[curEp].buffOffset;
 913:Generated_Source\PSoC5/USB_std.c ****                 #else
 914:Generated_Source\PSoC5/USB_std.c ****                     USB_ARB_EP_BASE.arbEp[curEp].rwRa    = LO8(USB_EP[curEp].buffOffset);
 1939              		.loc 1 914 0
 1940 0196 3048     		ldr	r0, .L136+20
 1941 0198 7978     		ldrb	r1, [r7, #1]	@ zero_extendqisi2
 1942 019a 7A78     		ldrb	r2, [r7, #1]	@ zero_extendqisi2
 1943 019c 2C4C     		ldr	r4, .L136+12
 1944 019e 1346     		mov	r3, r2
 1945 01a0 5B00     		lsls	r3, r3, #1
 1946 01a2 1344     		add	r3, r3, r2
 1947 01a4 9B00     		lsls	r3, r3, #2
 1948 01a6 2344     		add	r3, r3, r4
 1949 01a8 0633     		adds	r3, r3, #6
 1950 01aa 1B88     		ldrh	r3, [r3]	@ movhi
 1951 01ac 9BB2     		uxth	r3, r3
 1952 01ae DAB2     		uxtb	r2, r3
 1953 01b0 0B01     		lsls	r3, r1, #4
 1954 01b2 0344     		add	r3, r3, r0
 1955 01b4 0633     		adds	r3, r3, #6
 1956 01b6 1A70     		strb	r2, [r3]
ARM GAS  C:\Users\JEFFSN~1\AppData\Local\Temp\cczY2IKK.s 			page 53


 915:Generated_Source\PSoC5/USB_std.c ****                     USB_ARB_EP_BASE.arbEp[curEp].rwRaMsb = HI8(USB_EP[curEp].buffOffset);
 1957              		.loc 1 915 0
 1958 01b8 2748     		ldr	r0, .L136+20
 1959 01ba 7978     		ldrb	r1, [r7, #1]	@ zero_extendqisi2
 1960 01bc 7A78     		ldrb	r2, [r7, #1]	@ zero_extendqisi2
 1961 01be 244C     		ldr	r4, .L136+12
 1962 01c0 1346     		mov	r3, r2
 1963 01c2 5B00     		lsls	r3, r3, #1
 1964 01c4 1344     		add	r3, r3, r2
 1965 01c6 9B00     		lsls	r3, r3, #2
 1966 01c8 2344     		add	r3, r3, r4
 1967 01ca 0633     		adds	r3, r3, #6
 1968 01cc 1B88     		ldrh	r3, [r3]	@ movhi
 1969 01ce 9BB2     		uxth	r3, r3
 1970 01d0 1B0A     		lsrs	r3, r3, #8
 1971 01d2 9BB2     		uxth	r3, r3
 1972 01d4 DAB2     		uxtb	r2, r3
 1973 01d6 0B01     		lsls	r3, r1, #4
 1974 01d8 0344     		add	r3, r3, r0
 1975 01da 0733     		adds	r3, r3, #7
 1976 01dc 1A70     		strb	r2, [r3]
 916:Generated_Source\PSoC5/USB_std.c ****                     USB_ARB_EP_BASE.arbEp[curEp].rwWa    = LO8(USB_EP[curEp].buffOffset);
 1977              		.loc 1 916 0
 1978 01de 1E48     		ldr	r0, .L136+20
 1979 01e0 7978     		ldrb	r1, [r7, #1]	@ zero_extendqisi2
 1980 01e2 7A78     		ldrb	r2, [r7, #1]	@ zero_extendqisi2
 1981 01e4 1A4C     		ldr	r4, .L136+12
 1982 01e6 1346     		mov	r3, r2
 1983 01e8 5B00     		lsls	r3, r3, #1
 1984 01ea 1344     		add	r3, r3, r2
 1985 01ec 9B00     		lsls	r3, r3, #2
 1986 01ee 2344     		add	r3, r3, r4
 1987 01f0 0633     		adds	r3, r3, #6
 1988 01f2 1B88     		ldrh	r3, [r3]	@ movhi
 1989 01f4 9BB2     		uxth	r3, r3
 1990 01f6 DAB2     		uxtb	r2, r3
 1991 01f8 0B01     		lsls	r3, r1, #4
 1992 01fa 0344     		add	r3, r3, r0
 1993 01fc 0433     		adds	r3, r3, #4
 1994 01fe 1A70     		strb	r2, [r3]
 917:Generated_Source\PSoC5/USB_std.c ****                     USB_ARB_EP_BASE.arbEp[curEp].rwWaMsb = HI8(USB_EP[curEp].buffOffset);
 1995              		.loc 1 917 0
 1996 0200 1548     		ldr	r0, .L136+20
 1997 0202 7978     		ldrb	r1, [r7, #1]	@ zero_extendqisi2
 1998 0204 7A78     		ldrb	r2, [r7, #1]	@ zero_extendqisi2
 1999 0206 124C     		ldr	r4, .L136+12
 2000 0208 1346     		mov	r3, r2
 2001 020a 5B00     		lsls	r3, r3, #1
 2002 020c 1344     		add	r3, r3, r2
 2003 020e 9B00     		lsls	r3, r3, #2
 2004 0210 2344     		add	r3, r3, r4
 2005 0212 0633     		adds	r3, r3, #6
 2006 0214 1B88     		ldrh	r3, [r3]	@ movhi
 2007 0216 9BB2     		uxth	r3, r3
 2008 0218 1B0A     		lsrs	r3, r3, #8
 2009 021a 9BB2     		uxth	r3, r3
 2010 021c DAB2     		uxtb	r2, r3
ARM GAS  C:\Users\JEFFSN~1\AppData\Local\Temp\cczY2IKK.s 			page 54


 2011 021e 0B01     		lsls	r3, r1, #4
 2012 0220 0344     		add	r3, r3, r0
 2013 0222 0533     		adds	r3, r3, #5
 2014 0224 1A70     		strb	r2, [r3]
 2015              	.L127:
 918:Generated_Source\PSoC5/USB_std.c ****                 #endif /* (CY_PSOC4) */                
 919:Generated_Source\PSoC5/USB_std.c ****             #endif /* (USB_EP_MANAGEMENT_DMA_AUTO) */
 920:Generated_Source\PSoC5/USB_std.c ****             }
 921:Generated_Source\PSoC5/USB_std.c ****             
 922:Generated_Source\PSoC5/USB_std.c ****             pEP = &pEP[1u]; /* Get next EP element */
 2016              		.loc 1 922 0 discriminator 2
 2017 0226 BB68     		ldr	r3, [r7, #8]
 2018 0228 0833     		adds	r3, r3, #8
 2019 022a BB60     		str	r3, [r7, #8]
 832:Generated_Source\PSoC5/USB_std.c ****         {
 2020              		.loc 1 832 0 discriminator 2
 2021 022c FB7B     		ldrb	r3, [r7, #15]	@ zero_extendqisi2
 2022 022e 0133     		adds	r3, r3, #1
 2023 0230 FB73     		strb	r3, [r7, #15]
 2024              	.L126:
 832:Generated_Source\PSoC5/USB_std.c ****         {
 2025              		.loc 1 832 0 is_stmt 0 discriminator 1
 2026 0232 FA7B     		ldrb	r2, [r7, #15]	@ zero_extendqisi2
 2027 0234 FB78     		ldrb	r3, [r7, #3]	@ zero_extendqisi2
 2028 0236 9A42     		cmp	r2, r3
 2029 0238 FFF403AF 		bcc	.L134
 2030              	.L135:
 923:Generated_Source\PSoC5/USB_std.c ****         }
 924:Generated_Source\PSoC5/USB_std.c ****         
 925:Generated_Source\PSoC5/USB_std.c ****         /* The main loop has to re-enable DMA and OUT endpoint */
 926:Generated_Source\PSoC5/USB_std.c ****     }
 927:Generated_Source\PSoC5/USB_std.c **** }
 2031              		.loc 1 927 0 is_stmt 1
 2032 023c 00BF     		nop
 2033 023e 1437     		adds	r7, r7, #20
 2034              		.cfi_def_cfa_offset 12
 2035 0240 BD46     		mov	sp, r7
 2036              		.cfi_def_cfa_register 13
 2037              		@ sp needed
 2038 0242 90BD     		pop	{r4, r7, pc}
 2039              	.L137:
 2040              		.align	2
 2041              	.L136:
 2042 0244 00000000 		.word	USB_configuration
 2043 0248 00000000 		.word	USB_interfaceNumber
 2044 024c 00000000 		.word	USB_interfaceSetting
 2045 0250 00000000 		.word	USB_EP
 2046 0254 FC5F0040 		.word	1073766396
 2047 0258 70600040 		.word	1073766512
 2048              		.cfi_endproc
 2049              	.LFE5:
 2050              		.size	USB_ConfigAltChanged, .-USB_ConfigAltChanged
 2051              		.section	.text.USB_GetConfigTablePtr,"ax",%progbits
 2052              		.align	2
 2053              		.global	USB_GetConfigTablePtr
 2054              		.thumb
 2055              		.thumb_func
ARM GAS  C:\Users\JEFFSN~1\AppData\Local\Temp\cczY2IKK.s 			page 55


 2056              		.type	USB_GetConfigTablePtr, %function
 2057              	USB_GetConfigTablePtr:
 2058              	.LFB6:
 928:Generated_Source\PSoC5/USB_std.c **** 
 929:Generated_Source\PSoC5/USB_std.c **** 
 930:Generated_Source\PSoC5/USB_std.c **** /*******************************************************************************
 931:Generated_Source\PSoC5/USB_std.c **** * Function Name: USB_GetConfigTablePtr
 932:Generated_Source\PSoC5/USB_std.c **** ****************************************************************************//**
 933:Generated_Source\PSoC5/USB_std.c **** *
 934:Generated_Source\PSoC5/USB_std.c **** *  This routine returns a pointer a configuration table entry
 935:Generated_Source\PSoC5/USB_std.c **** *
 936:Generated_Source\PSoC5/USB_std.c **** *  \param confIndex:  Configuration Index
 937:Generated_Source\PSoC5/USB_std.c **** *
 938:Generated_Source\PSoC5/USB_std.c **** * \return
 939:Generated_Source\PSoC5/USB_std.c **** *  Device Descriptor pointer or NULL when descriptor does not exist.
 940:Generated_Source\PSoC5/USB_std.c **** *
 941:Generated_Source\PSoC5/USB_std.c **** *******************************************************************************/
 942:Generated_Source\PSoC5/USB_std.c **** const T_USB_LUT CYCODE *USB_GetConfigTablePtr(uint8 confIndex)
 943:Generated_Source\PSoC5/USB_std.c ****                                                         
 944:Generated_Source\PSoC5/USB_std.c **** {
 2059              		.loc 1 944 0
 2060              		.cfi_startproc
 2061              		@ args = 0, pretend = 0, frame = 16
 2062              		@ frame_needed = 1, uses_anonymous_args = 0
 2063              		@ link register save eliminated.
 2064 0000 80B4     		push	{r7}
 2065              		.cfi_def_cfa_offset 4
 2066              		.cfi_offset 7, -4
 2067 0002 85B0     		sub	sp, sp, #20
 2068              		.cfi_def_cfa_offset 24
 2069 0004 00AF     		add	r7, sp, #0
 2070              		.cfi_def_cfa_register 7
 2071 0006 0346     		mov	r3, r0
 2072 0008 FB71     		strb	r3, [r7, #7]
 945:Generated_Source\PSoC5/USB_std.c ****     /* Device Table */
 946:Generated_Source\PSoC5/USB_std.c ****     const T_USB_LUT CYCODE *pTmp;
 947:Generated_Source\PSoC5/USB_std.c **** 
 948:Generated_Source\PSoC5/USB_std.c ****     pTmp = (const T_USB_LUT CYCODE *) USB_TABLE[USB_device].p_list;
 2073              		.loc 1 948 0
 2074 000a 0F4B     		ldr	r3, .L142
 2075 000c 1B78     		ldrb	r3, [r3]
 2076 000e DBB2     		uxtb	r3, r3
 2077 0010 0E4A     		ldr	r2, .L142+4
 2078 0012 DB00     		lsls	r3, r3, #3
 2079 0014 1344     		add	r3, r3, r2
 2080 0016 5B68     		ldr	r3, [r3, #4]
 2081 0018 FB60     		str	r3, [r7, #12]
 949:Generated_Source\PSoC5/USB_std.c **** 
 950:Generated_Source\PSoC5/USB_std.c ****     /* The first entry points to the Device Descriptor,
 951:Generated_Source\PSoC5/USB_std.c ****     *  the second entry point to the BOS Descriptor
 952:Generated_Source\PSoC5/USB_std.c ****     *  the rest configuration entries.
 953:Generated_Source\PSoC5/USB_std.c ****     *  Set pointer to the first Configuration Descriptor
 954:Generated_Source\PSoC5/USB_std.c ****     */
 955:Generated_Source\PSoC5/USB_std.c ****     pTmp = &pTmp[2u];
 2082              		.loc 1 955 0
 2083 001a FB68     		ldr	r3, [r7, #12]
 2084 001c 1033     		adds	r3, r3, #16
ARM GAS  C:\Users\JEFFSN~1\AppData\Local\Temp\cczY2IKK.s 			page 56


 2085 001e FB60     		str	r3, [r7, #12]
 956:Generated_Source\PSoC5/USB_std.c ****     /* For this table, c is the number of configuration descriptors  */
 957:Generated_Source\PSoC5/USB_std.c ****     if(confIndex >= pTmp->c)   /* Verify that required configuration descriptor exists */
 2086              		.loc 1 957 0
 2087 0020 FB68     		ldr	r3, [r7, #12]
 2088 0022 1B78     		ldrb	r3, [r3]	@ zero_extendqisi2
 2089 0024 FA79     		ldrb	r2, [r7, #7]	@ zero_extendqisi2
 2090 0026 9A42     		cmp	r2, r3
 2091 0028 02D3     		bcc	.L139
 958:Generated_Source\PSoC5/USB_std.c ****     {
 959:Generated_Source\PSoC5/USB_std.c ****         pTmp = (const T_USB_LUT CYCODE *) NULL;
 2092              		.loc 1 959 0
 2093 002a 0023     		movs	r3, #0
 2094 002c FB60     		str	r3, [r7, #12]
 2095 002e 05E0     		b	.L140
 2096              	.L139:
 960:Generated_Source\PSoC5/USB_std.c ****     }
 961:Generated_Source\PSoC5/USB_std.c ****     else
 962:Generated_Source\PSoC5/USB_std.c ****     {
 963:Generated_Source\PSoC5/USB_std.c ****         pTmp = (const T_USB_LUT CYCODE *) pTmp[confIndex].p_list;
 2097              		.loc 1 963 0
 2098 0030 FB79     		ldrb	r3, [r7, #7]	@ zero_extendqisi2
 2099 0032 DB00     		lsls	r3, r3, #3
 2100 0034 FA68     		ldr	r2, [r7, #12]
 2101 0036 1344     		add	r3, r3, r2
 2102 0038 5B68     		ldr	r3, [r3, #4]
 2103 003a FB60     		str	r3, [r7, #12]
 2104              	.L140:
 964:Generated_Source\PSoC5/USB_std.c ****     }
 965:Generated_Source\PSoC5/USB_std.c **** 
 966:Generated_Source\PSoC5/USB_std.c ****     return (pTmp);
 2105              		.loc 1 966 0
 2106 003c FB68     		ldr	r3, [r7, #12]
 967:Generated_Source\PSoC5/USB_std.c **** }
 2107              		.loc 1 967 0
 2108 003e 1846     		mov	r0, r3
 2109 0040 1437     		adds	r7, r7, #20
 2110              		.cfi_def_cfa_offset 4
 2111 0042 BD46     		mov	sp, r7
 2112              		.cfi_def_cfa_register 13
 2113              		@ sp needed
 2114 0044 80BC     		pop	{r7}
 2115              		.cfi_restore 7
 2116              		.cfi_def_cfa_offset 0
 2117 0046 7047     		bx	lr
 2118              	.L143:
 2119              		.align	2
 2120              	.L142:
 2121 0048 00000000 		.word	USB_device
 2122 004c 00000000 		.word	USB_TABLE
 2123              		.cfi_endproc
 2124              	.LFE6:
 2125              		.size	USB_GetConfigTablePtr, .-USB_GetConfigTablePtr
 2126              		.section	.text.USB_GetDeviceTablePtr,"ax",%progbits
 2127              		.align	2
 2128              		.global	USB_GetDeviceTablePtr
 2129              		.thumb
ARM GAS  C:\Users\JEFFSN~1\AppData\Local\Temp\cczY2IKK.s 			page 57


 2130              		.thumb_func
 2131              		.type	USB_GetDeviceTablePtr, %function
 2132              	USB_GetDeviceTablePtr:
 2133              	.LFB7:
 968:Generated_Source\PSoC5/USB_std.c **** 
 969:Generated_Source\PSoC5/USB_std.c **** 
 970:Generated_Source\PSoC5/USB_std.c **** #if (USB_BOS_ENABLE)
 971:Generated_Source\PSoC5/USB_std.c ****     /*******************************************************************************
 972:Generated_Source\PSoC5/USB_std.c ****     * Function Name: USB_GetBOSPtr
 973:Generated_Source\PSoC5/USB_std.c ****     ****************************************************************************//**
 974:Generated_Source\PSoC5/USB_std.c ****     *
 975:Generated_Source\PSoC5/USB_std.c ****     *  This routine returns a pointer a BOS table entry
 976:Generated_Source\PSoC5/USB_std.c ****     *
 977:Generated_Source\PSoC5/USB_std.c ****     *  
 978:Generated_Source\PSoC5/USB_std.c ****     *
 979:Generated_Source\PSoC5/USB_std.c ****     * \return
 980:Generated_Source\PSoC5/USB_std.c ****     *  BOS Descriptor pointer or NULL when descriptor does not exist.
 981:Generated_Source\PSoC5/USB_std.c ****     *
 982:Generated_Source\PSoC5/USB_std.c ****     *******************************************************************************/
 983:Generated_Source\PSoC5/USB_std.c ****     const T_USB_LUT CYCODE *USB_GetBOSPtr(void)
 984:Generated_Source\PSoC5/USB_std.c ****                                                             
 985:Generated_Source\PSoC5/USB_std.c ****     {
 986:Generated_Source\PSoC5/USB_std.c ****         /* Device Table */
 987:Generated_Source\PSoC5/USB_std.c ****         const T_USB_LUT CYCODE *pTmp;
 988:Generated_Source\PSoC5/USB_std.c **** 
 989:Generated_Source\PSoC5/USB_std.c ****         pTmp = (const T_USB_LUT CYCODE *) USB_TABLE[USB_device].p_list;
 990:Generated_Source\PSoC5/USB_std.c **** 
 991:Generated_Source\PSoC5/USB_std.c ****         /* The first entry points to the Device Descriptor,
 992:Generated_Source\PSoC5/USB_std.c ****         *  the second entry points to the BOS Descriptor
 993:Generated_Source\PSoC5/USB_std.c ****         */
 994:Generated_Source\PSoC5/USB_std.c ****         pTmp = &pTmp[1u];
 995:Generated_Source\PSoC5/USB_std.c ****         pTmp = (const T_USB_LUT CYCODE *) pTmp->p_list;
 996:Generated_Source\PSoC5/USB_std.c ****         return (pTmp);
 997:Generated_Source\PSoC5/USB_std.c ****     }
 998:Generated_Source\PSoC5/USB_std.c **** #endif /* (USB_BOS_ENABLE) */
 999:Generated_Source\PSoC5/USB_std.c **** 
1000:Generated_Source\PSoC5/USB_std.c **** 
1001:Generated_Source\PSoC5/USB_std.c **** /*******************************************************************************
1002:Generated_Source\PSoC5/USB_std.c **** * Function Name: USB_GetDeviceTablePtr
1003:Generated_Source\PSoC5/USB_std.c **** ****************************************************************************//**
1004:Generated_Source\PSoC5/USB_std.c **** *
1005:Generated_Source\PSoC5/USB_std.c **** *  This routine returns a pointer to the Device table
1006:Generated_Source\PSoC5/USB_std.c **** *
1007:Generated_Source\PSoC5/USB_std.c **** * \return
1008:Generated_Source\PSoC5/USB_std.c **** *  Device Table pointer
1009:Generated_Source\PSoC5/USB_std.c **** *
1010:Generated_Source\PSoC5/USB_std.c **** *******************************************************************************/
1011:Generated_Source\PSoC5/USB_std.c **** const T_USB_LUT CYCODE *USB_GetDeviceTablePtr(void)
1012:Generated_Source\PSoC5/USB_std.c ****                                                             
1013:Generated_Source\PSoC5/USB_std.c **** {
 2134              		.loc 1 1013 0
 2135              		.cfi_startproc
 2136              		@ args = 0, pretend = 0, frame = 0
 2137              		@ frame_needed = 1, uses_anonymous_args = 0
 2138              		@ link register save eliminated.
 2139 0000 80B4     		push	{r7}
 2140              		.cfi_def_cfa_offset 4
ARM GAS  C:\Users\JEFFSN~1\AppData\Local\Temp\cczY2IKK.s 			page 58


 2141              		.cfi_offset 7, -4
 2142 0002 00AF     		add	r7, sp, #0
 2143              		.cfi_def_cfa_register 7
1014:Generated_Source\PSoC5/USB_std.c ****     /* Device Table */
1015:Generated_Source\PSoC5/USB_std.c ****     return( (const T_USB_LUT CYCODE *) USB_TABLE[USB_device].p_list );
 2144              		.loc 1 1015 0
 2145 0004 054B     		ldr	r3, .L146
 2146 0006 1B78     		ldrb	r3, [r3]
 2147 0008 DBB2     		uxtb	r3, r3
 2148 000a 054A     		ldr	r2, .L146+4
 2149 000c DB00     		lsls	r3, r3, #3
 2150 000e 1344     		add	r3, r3, r2
 2151 0010 5B68     		ldr	r3, [r3, #4]
1016:Generated_Source\PSoC5/USB_std.c **** }
 2152              		.loc 1 1016 0
 2153 0012 1846     		mov	r0, r3
 2154 0014 BD46     		mov	sp, r7
 2155              		.cfi_def_cfa_register 13
 2156              		@ sp needed
 2157 0016 80BC     		pop	{r7}
 2158              		.cfi_restore 7
 2159              		.cfi_def_cfa_offset 0
 2160 0018 7047     		bx	lr
 2161              	.L147:
 2162 001a 00BF     		.align	2
 2163              	.L146:
 2164 001c 00000000 		.word	USB_device
 2165 0020 00000000 		.word	USB_TABLE
 2166              		.cfi_endproc
 2167              	.LFE7:
 2168              		.size	USB_GetDeviceTablePtr, .-USB_GetDeviceTablePtr
 2169              		.section	.text.USB_GetInterfaceClassTablePtr,"ax",%progbits
 2170              		.align	2
 2171              		.global	USB_GetInterfaceClassTablePtr
 2172              		.thumb
 2173              		.thumb_func
 2174              		.type	USB_GetInterfaceClassTablePtr, %function
 2175              	USB_GetInterfaceClassTablePtr:
 2176              	.LFB8:
1017:Generated_Source\PSoC5/USB_std.c **** 
1018:Generated_Source\PSoC5/USB_std.c **** 
1019:Generated_Source\PSoC5/USB_std.c **** /*******************************************************************************
1020:Generated_Source\PSoC5/USB_std.c **** * Function Name: USB_GetInterfaceClassTablePtr
1021:Generated_Source\PSoC5/USB_std.c **** ****************************************************************************//**
1022:Generated_Source\PSoC5/USB_std.c **** *
1023:Generated_Source\PSoC5/USB_std.c **** *  This routine returns Interface Class table pointer, which contains
1024:Generated_Source\PSoC5/USB_std.c **** *  the relation between interface number and interface class.
1025:Generated_Source\PSoC5/USB_std.c **** *
1026:Generated_Source\PSoC5/USB_std.c **** * \return
1027:Generated_Source\PSoC5/USB_std.c **** *  Interface Class table pointer.
1028:Generated_Source\PSoC5/USB_std.c **** *
1029:Generated_Source\PSoC5/USB_std.c **** *******************************************************************************/
1030:Generated_Source\PSoC5/USB_std.c **** const uint8 CYCODE *USB_GetInterfaceClassTablePtr(void)
1031:Generated_Source\PSoC5/USB_std.c ****                                                         
1032:Generated_Source\PSoC5/USB_std.c **** {
 2177              		.loc 1 1032 0
 2178              		.cfi_startproc
ARM GAS  C:\Users\JEFFSN~1\AppData\Local\Temp\cczY2IKK.s 			page 59


 2179              		@ args = 0, pretend = 0, frame = 16
 2180              		@ frame_needed = 1, uses_anonymous_args = 0
 2181 0000 80B5     		push	{r7, lr}
 2182              		.cfi_def_cfa_offset 8
 2183              		.cfi_offset 7, -8
 2184              		.cfi_offset 14, -4
 2185 0002 84B0     		sub	sp, sp, #16
 2186              		.cfi_def_cfa_offset 24
 2187 0004 00AF     		add	r7, sp, #0
 2188              		.cfi_def_cfa_register 7
1033:Generated_Source\PSoC5/USB_std.c ****     const T_USB_LUT CYCODE *pTmp;
1034:Generated_Source\PSoC5/USB_std.c ****     const uint8 CYCODE *pInterfaceClass;
1035:Generated_Source\PSoC5/USB_std.c ****     uint8 currentInterfacesNum;
1036:Generated_Source\PSoC5/USB_std.c **** 
1037:Generated_Source\PSoC5/USB_std.c ****     pTmp = USB_GetConfigTablePtr(USB_configuration - 1u);
 2189              		.loc 1 1037 0
 2190 0006 104B     		ldr	r3, .L152
 2191 0008 1B78     		ldrb	r3, [r3]
 2192 000a DBB2     		uxtb	r3, r3
 2193 000c 013B     		subs	r3, r3, #1
 2194 000e DBB2     		uxtb	r3, r3
 2195 0010 1846     		mov	r0, r3
 2196 0012 FFF7FEFF 		bl	USB_GetConfigTablePtr
 2197 0016 B860     		str	r0, [r7, #8]
1038:Generated_Source\PSoC5/USB_std.c ****     if (pTmp != NULL)
 2198              		.loc 1 1038 0
 2199 0018 BB68     		ldr	r3, [r7, #8]
 2200 001a 002B     		cmp	r3, #0
 2201 001c 0DD0     		beq	.L149
1039:Generated_Source\PSoC5/USB_std.c ****     {
1040:Generated_Source\PSoC5/USB_std.c ****         currentInterfacesNum  = ((const uint8 *) pTmp->p_list)[USB_CONFIG_DESCR_NUM_INTERFACES];
 2202              		.loc 1 1040 0
 2203 001e BB68     		ldr	r3, [r7, #8]
 2204 0020 5B68     		ldr	r3, [r3, #4]
 2205 0022 1B79     		ldrb	r3, [r3, #4]
 2206 0024 FB71     		strb	r3, [r7, #7]
1041:Generated_Source\PSoC5/USB_std.c ****         /* Third entry in the LUT starts the Interface Table pointers */
1042:Generated_Source\PSoC5/USB_std.c ****         /* The INTERFACE_CLASS table is located after all interfaces */
1043:Generated_Source\PSoC5/USB_std.c ****         pTmp = &pTmp[currentInterfacesNum + 2u];
 2207              		.loc 1 1043 0
 2208 0026 FB79     		ldrb	r3, [r7, #7]	@ zero_extendqisi2
 2209 0028 0233     		adds	r3, r3, #2
 2210 002a DB00     		lsls	r3, r3, #3
 2211 002c BA68     		ldr	r2, [r7, #8]
 2212 002e 1344     		add	r3, r3, r2
 2213 0030 BB60     		str	r3, [r7, #8]
1044:Generated_Source\PSoC5/USB_std.c ****         pInterfaceClass = (const uint8 CYCODE *) pTmp->p_list;
 2214              		.loc 1 1044 0
 2215 0032 BB68     		ldr	r3, [r7, #8]
 2216 0034 5B68     		ldr	r3, [r3, #4]
 2217 0036 FB60     		str	r3, [r7, #12]
 2218 0038 01E0     		b	.L150
 2219              	.L149:
1045:Generated_Source\PSoC5/USB_std.c ****     }
1046:Generated_Source\PSoC5/USB_std.c ****     else
1047:Generated_Source\PSoC5/USB_std.c ****     {
1048:Generated_Source\PSoC5/USB_std.c ****         pInterfaceClass = (const uint8 CYCODE *) NULL;
ARM GAS  C:\Users\JEFFSN~1\AppData\Local\Temp\cczY2IKK.s 			page 60


 2220              		.loc 1 1048 0
 2221 003a 0023     		movs	r3, #0
 2222 003c FB60     		str	r3, [r7, #12]
 2223              	.L150:
1049:Generated_Source\PSoC5/USB_std.c ****     }
1050:Generated_Source\PSoC5/USB_std.c **** 
1051:Generated_Source\PSoC5/USB_std.c ****     return (pInterfaceClass);
 2224              		.loc 1 1051 0
 2225 003e FB68     		ldr	r3, [r7, #12]
1052:Generated_Source\PSoC5/USB_std.c **** }
 2226              		.loc 1 1052 0
 2227 0040 1846     		mov	r0, r3
 2228 0042 1037     		adds	r7, r7, #16
 2229              		.cfi_def_cfa_offset 8
 2230 0044 BD46     		mov	sp, r7
 2231              		.cfi_def_cfa_register 13
 2232              		@ sp needed
 2233 0046 80BD     		pop	{r7, pc}
 2234              	.L153:
 2235              		.align	2
 2236              	.L152:
 2237 0048 00000000 		.word	USB_configuration
 2238              		.cfi_endproc
 2239              	.LFE8:
 2240              		.size	USB_GetInterfaceClassTablePtr, .-USB_GetInterfaceClassTablePtr
 2241              		.section	.text.USB_TerminateEP,"ax",%progbits
 2242              		.align	2
 2243              		.global	USB_TerminateEP
 2244              		.thumb
 2245              		.thumb_func
 2246              		.type	USB_TerminateEP, %function
 2247              	USB_TerminateEP:
 2248              	.LFB9:
1053:Generated_Source\PSoC5/USB_std.c **** 
1054:Generated_Source\PSoC5/USB_std.c **** 
1055:Generated_Source\PSoC5/USB_std.c **** /*******************************************************************************
1056:Generated_Source\PSoC5/USB_std.c **** * Function Name: USB_TerminateEP
1057:Generated_Source\PSoC5/USB_std.c **** ****************************************************************************//**
1058:Generated_Source\PSoC5/USB_std.c **** *
1059:Generated_Source\PSoC5/USB_std.c **** *  This function terminates the specified USBFS endpoint.
1060:Generated_Source\PSoC5/USB_std.c **** *  This function should be used before endpoint reconfiguration.
1061:Generated_Source\PSoC5/USB_std.c **** *
1062:Generated_Source\PSoC5/USB_std.c **** *  \param ep Contains the data endpoint number.
1063:Generated_Source\PSoC5/USB_std.c **** *
1064:Generated_Source\PSoC5/USB_std.c **** *  \reentrant
1065:Generated_Source\PSoC5/USB_std.c **** *  No.
1066:Generated_Source\PSoC5/USB_std.c **** *
1067:Generated_Source\PSoC5/USB_std.c **** * \sideeffect
1068:Generated_Source\PSoC5/USB_std.c **** * 
1069:Generated_Source\PSoC5/USB_std.c **** * The device responds with a NAK for any transactions on the selected endpoint.
1070:Generated_Source\PSoC5/USB_std.c **** *   
1071:Generated_Source\PSoC5/USB_std.c **** *******************************************************************************/
1072:Generated_Source\PSoC5/USB_std.c **** void USB_TerminateEP(uint8 epNumber) 
1073:Generated_Source\PSoC5/USB_std.c **** {
 2249              		.loc 1 1073 0
 2250              		.cfi_startproc
 2251              		@ args = 0, pretend = 0, frame = 8
ARM GAS  C:\Users\JEFFSN~1\AppData\Local\Temp\cczY2IKK.s 			page 61


 2252              		@ frame_needed = 1, uses_anonymous_args = 0
 2253              		@ link register save eliminated.
 2254 0000 80B4     		push	{r7}
 2255              		.cfi_def_cfa_offset 4
 2256              		.cfi_offset 7, -4
 2257 0002 83B0     		sub	sp, sp, #12
 2258              		.cfi_def_cfa_offset 16
 2259 0004 00AF     		add	r7, sp, #0
 2260              		.cfi_def_cfa_register 7
 2261 0006 0346     		mov	r3, r0
 2262 0008 FB71     		strb	r3, [r7, #7]
1074:Generated_Source\PSoC5/USB_std.c ****     /* Get endpoint number */
1075:Generated_Source\PSoC5/USB_std.c ****     epNumber &= USB_DIR_UNUSED;
 2263              		.loc 1 1075 0
 2264 000a FB79     		ldrb	r3, [r7, #7]
 2265 000c 03F07F03 		and	r3, r3, #127
 2266 0010 FB71     		strb	r3, [r7, #7]
1076:Generated_Source\PSoC5/USB_std.c **** 
1077:Generated_Source\PSoC5/USB_std.c ****     if ((epNumber > USB_EP0) && (epNumber < USB_MAX_EP))
 2267              		.loc 1 1077 0
 2268 0012 FB79     		ldrb	r3, [r7, #7]	@ zero_extendqisi2
 2269 0014 002B     		cmp	r3, #0
 2270 0016 49D0     		beq	.L157
 2271              		.loc 1 1077 0 is_stmt 0 discriminator 1
 2272 0018 FB79     		ldrb	r3, [r7, #7]	@ zero_extendqisi2
 2273 001a 082B     		cmp	r3, #8
 2274 001c 46D8     		bhi	.L157
1078:Generated_Source\PSoC5/USB_std.c ****     {
1079:Generated_Source\PSoC5/USB_std.c ****         /* Set the endpoint Halt */
1080:Generated_Source\PSoC5/USB_std.c ****         USB_EP[epNumber].hwEpState |= USB_ENDPOINT_STATUS_HALT;
 2275              		.loc 1 1080 0 is_stmt 1
 2276 001e FA79     		ldrb	r2, [r7, #7]	@ zero_extendqisi2
 2277 0020 F979     		ldrb	r1, [r7, #7]	@ zero_extendqisi2
 2278 0022 2548     		ldr	r0, .L158
 2279 0024 0B46     		mov	r3, r1
 2280 0026 5B00     		lsls	r3, r3, #1
 2281 0028 0B44     		add	r3, r3, r1
 2282 002a 9B00     		lsls	r3, r3, #2
 2283 002c 0344     		add	r3, r3, r0
 2284 002e 0233     		adds	r3, r3, #2
 2285 0030 1B78     		ldrb	r3, [r3]
 2286 0032 DBB2     		uxtb	r3, r3
 2287 0034 43F00103 		orr	r3, r3, #1
 2288 0038 D8B2     		uxtb	r0, r3
 2289 003a 1F49     		ldr	r1, .L158
 2290 003c 1346     		mov	r3, r2
 2291 003e 5B00     		lsls	r3, r3, #1
 2292 0040 1344     		add	r3, r3, r2
 2293 0042 9B00     		lsls	r3, r3, #2
 2294 0044 0B44     		add	r3, r3, r1
 2295 0046 0233     		adds	r3, r3, #2
 2296 0048 0246     		mov	r2, r0
 2297 004a 1A70     		strb	r2, [r3]
1081:Generated_Source\PSoC5/USB_std.c **** 
1082:Generated_Source\PSoC5/USB_std.c ****         /* Clear the data toggle */
1083:Generated_Source\PSoC5/USB_std.c ****         USB_EP[epNumber].epToggle = 0u;
 2298              		.loc 1 1083 0
ARM GAS  C:\Users\JEFFSN~1\AppData\Local\Temp\cczY2IKK.s 			page 62


 2299 004c FA79     		ldrb	r2, [r7, #7]	@ zero_extendqisi2
 2300 004e 1A49     		ldr	r1, .L158
 2301 0050 1346     		mov	r3, r2
 2302 0052 5B00     		lsls	r3, r3, #1
 2303 0054 1344     		add	r3, r3, r2
 2304 0056 9B00     		lsls	r3, r3, #2
 2305 0058 0B44     		add	r3, r3, r1
 2306 005a 0333     		adds	r3, r3, #3
 2307 005c 0022     		movs	r2, #0
 2308 005e 1A70     		strb	r2, [r3]
1084:Generated_Source\PSoC5/USB_std.c ****         USB_EP[epNumber].apiEpState = USB_NO_EVENT_ALLOWED;
 2309              		.loc 1 1084 0
 2310 0060 FA79     		ldrb	r2, [r7, #7]	@ zero_extendqisi2
 2311 0062 1549     		ldr	r1, .L158
 2312 0064 1346     		mov	r3, r2
 2313 0066 5B00     		lsls	r3, r3, #1
 2314 0068 1344     		add	r3, r3, r2
 2315 006a 9B00     		lsls	r3, r3, #2
 2316 006c 0B44     		add	r3, r3, r1
 2317 006e 0133     		adds	r3, r3, #1
 2318 0070 0222     		movs	r2, #2
 2319 0072 1A70     		strb	r2, [r3]
1085:Generated_Source\PSoC5/USB_std.c **** 
1086:Generated_Source\PSoC5/USB_std.c ****         if ((USB_EP[epNumber].addr & USB_DIR_IN) != 0u)
 2320              		.loc 1 1086 0
 2321 0074 FA79     		ldrb	r2, [r7, #7]	@ zero_extendqisi2
 2322 0076 1049     		ldr	r1, .L158
 2323 0078 1346     		mov	r3, r2
 2324 007a 5B00     		lsls	r3, r3, #1
 2325 007c 1344     		add	r3, r3, r2
 2326 007e 9B00     		lsls	r3, r3, #2
 2327 0080 0B44     		add	r3, r3, r1
 2328 0082 0433     		adds	r3, r3, #4
 2329 0084 1B78     		ldrb	r3, [r3]
 2330 0086 DBB2     		uxtb	r3, r3
 2331 0088 5BB2     		sxtb	r3, r3
 2332 008a 002B     		cmp	r3, #0
 2333 008c 07DA     		bge	.L156
1087:Generated_Source\PSoC5/USB_std.c ****         {   
1088:Generated_Source\PSoC5/USB_std.c ****             /* IN Endpoint */
1089:Generated_Source\PSoC5/USB_std.c ****             USB_SIE_EP_BASE.sieEp[epNumber].epCr0 = USB_MODE_NAK_IN;
 2334              		.loc 1 1089 0
 2335 008e 0B4A     		ldr	r2, .L158+4
 2336 0090 FB79     		ldrb	r3, [r7, #7]	@ zero_extendqisi2
 2337 0092 1B01     		lsls	r3, r3, #4
 2338 0094 1344     		add	r3, r3, r2
 2339 0096 0233     		adds	r3, r3, #2
 2340 0098 0C22     		movs	r2, #12
 2341 009a 1A70     		strb	r2, [r3]
1090:Generated_Source\PSoC5/USB_std.c ****         }
1091:Generated_Source\PSoC5/USB_std.c ****         else
1092:Generated_Source\PSoC5/USB_std.c ****         {
1093:Generated_Source\PSoC5/USB_std.c ****             /* OUT Endpoint */
1094:Generated_Source\PSoC5/USB_std.c ****             USB_SIE_EP_BASE.sieEp[epNumber].epCr0 = USB_MODE_NAK_OUT;
1095:Generated_Source\PSoC5/USB_std.c ****         }
1096:Generated_Source\PSoC5/USB_std.c ****     }
1097:Generated_Source\PSoC5/USB_std.c **** }
ARM GAS  C:\Users\JEFFSN~1\AppData\Local\Temp\cczY2IKK.s 			page 63


 2342              		.loc 1 1097 0
 2343 009c 06E0     		b	.L157
 2344              	.L156:
1094:Generated_Source\PSoC5/USB_std.c ****         }
 2345              		.loc 1 1094 0
 2346 009e 074A     		ldr	r2, .L158+4
 2347 00a0 FB79     		ldrb	r3, [r7, #7]	@ zero_extendqisi2
 2348 00a2 1B01     		lsls	r3, r3, #4
 2349 00a4 1344     		add	r3, r3, r2
 2350 00a6 0233     		adds	r3, r3, #2
 2351 00a8 0822     		movs	r2, #8
 2352 00aa 1A70     		strb	r2, [r3]
 2353              	.L157:
 2354              		.loc 1 1097 0
 2355 00ac 00BF     		nop
 2356 00ae 0C37     		adds	r7, r7, #12
 2357              		.cfi_def_cfa_offset 4
 2358 00b0 BD46     		mov	sp, r7
 2359              		.cfi_def_cfa_register 13
 2360              		@ sp needed
 2361 00b2 80BC     		pop	{r7}
 2362              		.cfi_restore 7
 2363              		.cfi_def_cfa_offset 0
 2364 00b4 7047     		bx	lr
 2365              	.L159:
 2366 00b6 00BF     		.align	2
 2367              	.L158:
 2368 00b8 00000000 		.word	USB_EP
 2369 00bc FC5F0040 		.word	1073766396
 2370              		.cfi_endproc
 2371              	.LFE9:
 2372              		.size	USB_TerminateEP, .-USB_TerminateEP
 2373              		.section	.text.USB_SetEndpointHalt,"ax",%progbits
 2374              		.align	2
 2375              		.global	USB_SetEndpointHalt
 2376              		.thumb
 2377              		.thumb_func
 2378              		.type	USB_SetEndpointHalt, %function
 2379              	USB_SetEndpointHalt:
 2380              	.LFB10:
1098:Generated_Source\PSoC5/USB_std.c **** 
1099:Generated_Source\PSoC5/USB_std.c **** 
1100:Generated_Source\PSoC5/USB_std.c **** /*******************************************************************************
1101:Generated_Source\PSoC5/USB_std.c **** * Function Name: USB_SetEndpointHalt
1102:Generated_Source\PSoC5/USB_std.c **** ****************************************************************************//**
1103:Generated_Source\PSoC5/USB_std.c **** *
1104:Generated_Source\PSoC5/USB_std.c **** *  This routine handles set endpoint halt.
1105:Generated_Source\PSoC5/USB_std.c **** *
1106:Generated_Source\PSoC5/USB_std.c **** * \return
1107:Generated_Source\PSoC5/USB_std.c **** *  requestHandled.
1108:Generated_Source\PSoC5/USB_std.c **** *
1109:Generated_Source\PSoC5/USB_std.c **** * \reentrant
1110:Generated_Source\PSoC5/USB_std.c **** *  No.
1111:Generated_Source\PSoC5/USB_std.c **** *
1112:Generated_Source\PSoC5/USB_std.c **** *******************************************************************************/
1113:Generated_Source\PSoC5/USB_std.c **** uint8 USB_SetEndpointHalt(void) 
1114:Generated_Source\PSoC5/USB_std.c **** {
ARM GAS  C:\Users\JEFFSN~1\AppData\Local\Temp\cczY2IKK.s 			page 64


 2381              		.loc 1 1114 0
 2382              		.cfi_startproc
 2383              		@ args = 0, pretend = 0, frame = 8
 2384              		@ frame_needed = 1, uses_anonymous_args = 0
 2385 0000 80B5     		push	{r7, lr}
 2386              		.cfi_def_cfa_offset 8
 2387              		.cfi_offset 7, -8
 2388              		.cfi_offset 14, -4
 2389 0002 82B0     		sub	sp, sp, #8
 2390              		.cfi_def_cfa_offset 16
 2391 0004 00AF     		add	r7, sp, #0
 2392              		.cfi_def_cfa_register 7
1115:Generated_Source\PSoC5/USB_std.c ****     uint8 requestHandled = USB_FALSE;
 2393              		.loc 1 1115 0
 2394 0006 0023     		movs	r3, #0
 2395 0008 FB71     		strb	r3, [r7, #7]
1116:Generated_Source\PSoC5/USB_std.c ****     uint8 ep;
1117:Generated_Source\PSoC5/USB_std.c ****     
1118:Generated_Source\PSoC5/USB_std.c ****     /* Set endpoint halt */
1119:Generated_Source\PSoC5/USB_std.c ****     ep = USB_wIndexLoReg & USB_DIR_UNUSED;
 2396              		.loc 1 1119 0
 2397 000a 344B     		ldr	r3, .L165
 2398 000c 1B79     		ldrb	r3, [r3, #4]
 2399 000e DBB2     		uxtb	r3, r3
 2400 0010 03F07F03 		and	r3, r3, #127
 2401 0014 BB71     		strb	r3, [r7, #6]
1120:Generated_Source\PSoC5/USB_std.c **** 
1121:Generated_Source\PSoC5/USB_std.c ****     if ((ep > USB_EP0) && (ep < USB_MAX_EP))
 2402              		.loc 1 1121 0
 2403 0016 BB79     		ldrb	r3, [r7, #6]	@ zero_extendqisi2
 2404 0018 002B     		cmp	r3, #0
 2405 001a 5AD0     		beq	.L161
 2406              		.loc 1 1121 0 is_stmt 0 discriminator 1
 2407 001c BB79     		ldrb	r3, [r7, #6]	@ zero_extendqisi2
 2408 001e 082B     		cmp	r3, #8
 2409 0020 57D8     		bhi	.L161
1122:Generated_Source\PSoC5/USB_std.c ****     {
1123:Generated_Source\PSoC5/USB_std.c ****         /* Set the endpoint Halt */
1124:Generated_Source\PSoC5/USB_std.c ****         USB_EP[ep].hwEpState |= (USB_ENDPOINT_STATUS_HALT);
 2410              		.loc 1 1124 0 is_stmt 1
 2411 0022 BA79     		ldrb	r2, [r7, #6]	@ zero_extendqisi2
 2412 0024 B979     		ldrb	r1, [r7, #6]	@ zero_extendqisi2
 2413 0026 2E48     		ldr	r0, .L165+4
 2414 0028 0B46     		mov	r3, r1
 2415 002a 5B00     		lsls	r3, r3, #1
 2416 002c 0B44     		add	r3, r3, r1
 2417 002e 9B00     		lsls	r3, r3, #2
 2418 0030 0344     		add	r3, r3, r0
 2419 0032 0233     		adds	r3, r3, #2
 2420 0034 1B78     		ldrb	r3, [r3]
 2421 0036 DBB2     		uxtb	r3, r3
 2422 0038 43F00103 		orr	r3, r3, #1
 2423 003c D8B2     		uxtb	r0, r3
 2424 003e 2849     		ldr	r1, .L165+4
 2425 0040 1346     		mov	r3, r2
 2426 0042 5B00     		lsls	r3, r3, #1
 2427 0044 1344     		add	r3, r3, r2
ARM GAS  C:\Users\JEFFSN~1\AppData\Local\Temp\cczY2IKK.s 			page 65


 2428 0046 9B00     		lsls	r3, r3, #2
 2429 0048 0B44     		add	r3, r3, r1
 2430 004a 0233     		adds	r3, r3, #2
 2431 004c 0246     		mov	r2, r0
 2432 004e 1A70     		strb	r2, [r3]
1125:Generated_Source\PSoC5/USB_std.c **** 
1126:Generated_Source\PSoC5/USB_std.c ****         /* Clear the data toggle */
1127:Generated_Source\PSoC5/USB_std.c ****         USB_EP[ep].epToggle = 0u;
 2433              		.loc 1 1127 0
 2434 0050 BA79     		ldrb	r2, [r7, #6]	@ zero_extendqisi2
 2435 0052 2349     		ldr	r1, .L165+4
 2436 0054 1346     		mov	r3, r2
 2437 0056 5B00     		lsls	r3, r3, #1
 2438 0058 1344     		add	r3, r3, r2
 2439 005a 9B00     		lsls	r3, r3, #2
 2440 005c 0B44     		add	r3, r3, r1
 2441 005e 0333     		adds	r3, r3, #3
 2442 0060 0022     		movs	r2, #0
 2443 0062 1A70     		strb	r2, [r3]
1128:Generated_Source\PSoC5/USB_std.c ****         USB_EP[ep].apiEpState |= USB_NO_EVENT_ALLOWED;
 2444              		.loc 1 1128 0
 2445 0064 BA79     		ldrb	r2, [r7, #6]	@ zero_extendqisi2
 2446 0066 B979     		ldrb	r1, [r7, #6]	@ zero_extendqisi2
 2447 0068 1D48     		ldr	r0, .L165+4
 2448 006a 0B46     		mov	r3, r1
 2449 006c 5B00     		lsls	r3, r3, #1
 2450 006e 0B44     		add	r3, r3, r1
 2451 0070 9B00     		lsls	r3, r3, #2
 2452 0072 0344     		add	r3, r3, r0
 2453 0074 0133     		adds	r3, r3, #1
 2454 0076 1B78     		ldrb	r3, [r3]
 2455 0078 DBB2     		uxtb	r3, r3
 2456 007a 43F00203 		orr	r3, r3, #2
 2457 007e D8B2     		uxtb	r0, r3
 2458 0080 1749     		ldr	r1, .L165+4
 2459 0082 1346     		mov	r3, r2
 2460 0084 5B00     		lsls	r3, r3, #1
 2461 0086 1344     		add	r3, r3, r2
 2462 0088 9B00     		lsls	r3, r3, #2
 2463 008a 0B44     		add	r3, r3, r1
 2464 008c 0133     		adds	r3, r3, #1
 2465 008e 0246     		mov	r2, r0
 2466 0090 1A70     		strb	r2, [r3]
1129:Generated_Source\PSoC5/USB_std.c **** 
1130:Generated_Source\PSoC5/USB_std.c ****         if ((USB_EP[ep].addr & USB_DIR_IN) != 0u)
 2467              		.loc 1 1130 0
 2468 0092 BA79     		ldrb	r2, [r7, #6]	@ zero_extendqisi2
 2469 0094 1249     		ldr	r1, .L165+4
 2470 0096 1346     		mov	r3, r2
 2471 0098 5B00     		lsls	r3, r3, #1
 2472 009a 1344     		add	r3, r3, r2
 2473 009c 9B00     		lsls	r3, r3, #2
 2474 009e 0B44     		add	r3, r3, r1
 2475 00a0 0433     		adds	r3, r3, #4
 2476 00a2 1B78     		ldrb	r3, [r3]
 2477 00a4 DBB2     		uxtb	r3, r3
 2478 00a6 5BB2     		sxtb	r3, r3
ARM GAS  C:\Users\JEFFSN~1\AppData\Local\Temp\cczY2IKK.s 			page 66


 2479 00a8 002B     		cmp	r3, #0
 2480 00aa 07DA     		bge	.L162
1131:Generated_Source\PSoC5/USB_std.c ****         {
1132:Generated_Source\PSoC5/USB_std.c ****             /* IN Endpoint */
1133:Generated_Source\PSoC5/USB_std.c ****             USB_SIE_EP_BASE.sieEp[ep].epCr0 = (USB_MODE_STALL_DATA_EP | 
 2481              		.loc 1 1133 0
 2482 00ac 0D4A     		ldr	r2, .L165+8
 2483 00ae BB79     		ldrb	r3, [r7, #6]	@ zero_extendqisi2
 2484 00b0 1B01     		lsls	r3, r3, #4
 2485 00b2 1344     		add	r3, r3, r2
 2486 00b4 0233     		adds	r3, r3, #2
 2487 00b6 8D22     		movs	r2, #141
 2488 00b8 1A70     		strb	r2, [r3]
 2489 00ba 06E0     		b	.L163
 2490              	.L162:
1134:Generated_Source\PSoC5/USB_std.c ****                                                             USB_MODE_ACK_IN);
1135:Generated_Source\PSoC5/USB_std.c ****         }
1136:Generated_Source\PSoC5/USB_std.c ****         else
1137:Generated_Source\PSoC5/USB_std.c ****         {
1138:Generated_Source\PSoC5/USB_std.c ****             /* OUT Endpoint */
1139:Generated_Source\PSoC5/USB_std.c ****             USB_SIE_EP_BASE.sieEp[ep].epCr0 = (USB_MODE_STALL_DATA_EP | 
 2491              		.loc 1 1139 0
 2492 00bc 094A     		ldr	r2, .L165+8
 2493 00be BB79     		ldrb	r3, [r7, #6]	@ zero_extendqisi2
 2494 00c0 1B01     		lsls	r3, r3, #4
 2495 00c2 1344     		add	r3, r3, r2
 2496 00c4 0233     		adds	r3, r3, #2
 2497 00c6 8922     		movs	r2, #137
 2498 00c8 1A70     		strb	r2, [r3]
 2499              	.L163:
1140:Generated_Source\PSoC5/USB_std.c ****                                                             USB_MODE_ACK_OUT);
1141:Generated_Source\PSoC5/USB_std.c ****         }
1142:Generated_Source\PSoC5/USB_std.c ****         requestHandled = USB_InitNoDataControlTransfer();
 2500              		.loc 1 1142 0
 2501 00ca FFF7FEFF 		bl	USB_InitNoDataControlTransfer
 2502 00ce 0346     		mov	r3, r0
 2503 00d0 FB71     		strb	r3, [r7, #7]
 2504              	.L161:
1143:Generated_Source\PSoC5/USB_std.c ****     }
1144:Generated_Source\PSoC5/USB_std.c **** 
1145:Generated_Source\PSoC5/USB_std.c ****     return (requestHandled);
 2505              		.loc 1 1145 0
 2506 00d2 FB79     		ldrb	r3, [r7, #7]	@ zero_extendqisi2
1146:Generated_Source\PSoC5/USB_std.c **** }
 2507              		.loc 1 1146 0
 2508 00d4 1846     		mov	r0, r3
 2509 00d6 0837     		adds	r7, r7, #8
 2510              		.cfi_def_cfa_offset 8
 2511 00d8 BD46     		mov	sp, r7
 2512              		.cfi_def_cfa_register 13
 2513              		@ sp needed
 2514 00da 80BD     		pop	{r7, pc}
 2515              	.L166:
 2516              		.align	2
 2517              	.L165:
 2518 00dc 00600040 		.word	1073766400
 2519 00e0 00000000 		.word	USB_EP
ARM GAS  C:\Users\JEFFSN~1\AppData\Local\Temp\cczY2IKK.s 			page 67


 2520 00e4 FC5F0040 		.word	1073766396
 2521              		.cfi_endproc
 2522              	.LFE10:
 2523              		.size	USB_SetEndpointHalt, .-USB_SetEndpointHalt
 2524              		.section	.text.USB_ClearEndpointHalt,"ax",%progbits
 2525              		.align	2
 2526              		.global	USB_ClearEndpointHalt
 2527              		.thumb
 2528              		.thumb_func
 2529              		.type	USB_ClearEndpointHalt, %function
 2530              	USB_ClearEndpointHalt:
 2531              	.LFB11:
1147:Generated_Source\PSoC5/USB_std.c **** 
1148:Generated_Source\PSoC5/USB_std.c **** 
1149:Generated_Source\PSoC5/USB_std.c **** /*******************************************************************************
1150:Generated_Source\PSoC5/USB_std.c **** * Function Name: USB_ClearEndpointHalt
1151:Generated_Source\PSoC5/USB_std.c **** ****************************************************************************//**
1152:Generated_Source\PSoC5/USB_std.c **** *
1153:Generated_Source\PSoC5/USB_std.c **** *  This routine handles clear endpoint halt.
1154:Generated_Source\PSoC5/USB_std.c **** *
1155:Generated_Source\PSoC5/USB_std.c **** * \return
1156:Generated_Source\PSoC5/USB_std.c **** *  requestHandled.
1157:Generated_Source\PSoC5/USB_std.c **** *
1158:Generated_Source\PSoC5/USB_std.c **** * \reentrant
1159:Generated_Source\PSoC5/USB_std.c **** *  No.
1160:Generated_Source\PSoC5/USB_std.c **** *
1161:Generated_Source\PSoC5/USB_std.c **** *******************************************************************************/
1162:Generated_Source\PSoC5/USB_std.c **** uint8 USB_ClearEndpointHalt(void) 
1163:Generated_Source\PSoC5/USB_std.c **** {
 2532              		.loc 1 1163 0
 2533              		.cfi_startproc
 2534              		@ args = 0, pretend = 0, frame = 8
 2535              		@ frame_needed = 1, uses_anonymous_args = 0
 2536 0000 80B5     		push	{r7, lr}
 2537              		.cfi_def_cfa_offset 8
 2538              		.cfi_offset 7, -8
 2539              		.cfi_offset 14, -4
 2540 0002 82B0     		sub	sp, sp, #8
 2541              		.cfi_def_cfa_offset 16
 2542 0004 00AF     		add	r7, sp, #0
 2543              		.cfi_def_cfa_register 7
1164:Generated_Source\PSoC5/USB_std.c ****     uint8 requestHandled = USB_FALSE;
 2544              		.loc 1 1164 0
 2545 0006 0023     		movs	r3, #0
 2546 0008 FB71     		strb	r3, [r7, #7]
1165:Generated_Source\PSoC5/USB_std.c ****     uint8 ep;
1166:Generated_Source\PSoC5/USB_std.c **** 
1167:Generated_Source\PSoC5/USB_std.c ****     /* Clear endpoint halt */
1168:Generated_Source\PSoC5/USB_std.c ****     ep = USB_wIndexLoReg & USB_DIR_UNUSED;
 2547              		.loc 1 1168 0
 2548 000a 504B     		ldr	r3, .L175
 2549 000c 1B79     		ldrb	r3, [r3, #4]
 2550 000e DBB2     		uxtb	r3, r3
 2551 0010 03F07F03 		and	r3, r3, #127
 2552 0014 BB71     		strb	r3, [r7, #6]
1169:Generated_Source\PSoC5/USB_std.c **** 
1170:Generated_Source\PSoC5/USB_std.c ****     if ((ep > USB_EP0) && (ep < USB_MAX_EP))
ARM GAS  C:\Users\JEFFSN~1\AppData\Local\Temp\cczY2IKK.s 			page 68


 2553              		.loc 1 1170 0
 2554 0016 BB79     		ldrb	r3, [r7, #6]	@ zero_extendqisi2
 2555 0018 002B     		cmp	r3, #0
 2556 001a 00F09280 		beq	.L168
 2557              		.loc 1 1170 0 is_stmt 0 discriminator 1
 2558 001e BB79     		ldrb	r3, [r7, #6]	@ zero_extendqisi2
 2559 0020 082B     		cmp	r3, #8
 2560 0022 00F28E80 		bhi	.L168
1171:Generated_Source\PSoC5/USB_std.c ****     {
1172:Generated_Source\PSoC5/USB_std.c ****         /* Clear the endpoint Halt */
1173:Generated_Source\PSoC5/USB_std.c ****         USB_EP[ep].hwEpState &= (uint8) ~USB_ENDPOINT_STATUS_HALT;
 2561              		.loc 1 1173 0 is_stmt 1
 2562 0026 BA79     		ldrb	r2, [r7, #6]	@ zero_extendqisi2
 2563 0028 B979     		ldrb	r1, [r7, #6]	@ zero_extendqisi2
 2564 002a 4948     		ldr	r0, .L175+4
 2565 002c 0B46     		mov	r3, r1
 2566 002e 5B00     		lsls	r3, r3, #1
 2567 0030 0B44     		add	r3, r3, r1
 2568 0032 9B00     		lsls	r3, r3, #2
 2569 0034 0344     		add	r3, r3, r0
 2570 0036 0233     		adds	r3, r3, #2
 2571 0038 1B78     		ldrb	r3, [r3]
 2572 003a DBB2     		uxtb	r3, r3
 2573 003c 23F00103 		bic	r3, r3, #1
 2574 0040 D8B2     		uxtb	r0, r3
 2575 0042 4349     		ldr	r1, .L175+4
 2576 0044 1346     		mov	r3, r2
 2577 0046 5B00     		lsls	r3, r3, #1
 2578 0048 1344     		add	r3, r3, r2
 2579 004a 9B00     		lsls	r3, r3, #2
 2580 004c 0B44     		add	r3, r3, r1
 2581 004e 0233     		adds	r3, r3, #2
 2582 0050 0246     		mov	r2, r0
 2583 0052 1A70     		strb	r2, [r3]
1174:Generated_Source\PSoC5/USB_std.c **** 
1175:Generated_Source\PSoC5/USB_std.c ****         /* Clear the data toggle */
1176:Generated_Source\PSoC5/USB_std.c ****         USB_EP[ep].epToggle = 0u;
 2584              		.loc 1 1176 0
 2585 0054 BA79     		ldrb	r2, [r7, #6]	@ zero_extendqisi2
 2586 0056 3E49     		ldr	r1, .L175+4
 2587 0058 1346     		mov	r3, r2
 2588 005a 5B00     		lsls	r3, r3, #1
 2589 005c 1344     		add	r3, r3, r2
 2590 005e 9B00     		lsls	r3, r3, #2
 2591 0060 0B44     		add	r3, r3, r1
 2592 0062 0333     		adds	r3, r3, #3
 2593 0064 0022     		movs	r2, #0
 2594 0066 1A70     		strb	r2, [r3]
1177:Generated_Source\PSoC5/USB_std.c ****         
1178:Generated_Source\PSoC5/USB_std.c ****         /* Clear toggle bit for already armed packet */
1179:Generated_Source\PSoC5/USB_std.c ****         USB_SIE_EP_BASE.sieEp[ep].epCnt0 &= (uint8) ~(uint8)USB_EPX_CNT_DATA_TOGGLE;
 2595              		.loc 1 1179 0
 2596 0068 3A49     		ldr	r1, .L175+8
 2597 006a BB79     		ldrb	r3, [r7, #6]	@ zero_extendqisi2
 2598 006c 3948     		ldr	r0, .L175+8
 2599 006e BA79     		ldrb	r2, [r7, #6]	@ zero_extendqisi2
 2600 0070 1201     		lsls	r2, r2, #4
ARM GAS  C:\Users\JEFFSN~1\AppData\Local\Temp\cczY2IKK.s 			page 69


 2601 0072 0244     		add	r2, r2, r0
 2602 0074 1278     		ldrb	r2, [r2]
 2603 0076 D2B2     		uxtb	r2, r2
 2604 0078 02F07F02 		and	r2, r2, #127
 2605 007c D2B2     		uxtb	r2, r2
 2606 007e 1B01     		lsls	r3, r3, #4
 2607 0080 0B44     		add	r3, r3, r1
 2608 0082 1A70     		strb	r2, [r3]
1180:Generated_Source\PSoC5/USB_std.c ****         
1181:Generated_Source\PSoC5/USB_std.c ****         /* Return API State as it was defined before */
1182:Generated_Source\PSoC5/USB_std.c ****         USB_EP[ep].apiEpState &= (uint8) ~USB_NO_EVENT_ALLOWED;
 2609              		.loc 1 1182 0
 2610 0084 BA79     		ldrb	r2, [r7, #6]	@ zero_extendqisi2
 2611 0086 B979     		ldrb	r1, [r7, #6]	@ zero_extendqisi2
 2612 0088 3148     		ldr	r0, .L175+4
 2613 008a 0B46     		mov	r3, r1
 2614 008c 5B00     		lsls	r3, r3, #1
 2615 008e 0B44     		add	r3, r3, r1
 2616 0090 9B00     		lsls	r3, r3, #2
 2617 0092 0344     		add	r3, r3, r0
 2618 0094 0133     		adds	r3, r3, #1
 2619 0096 1B78     		ldrb	r3, [r3]
 2620 0098 DBB2     		uxtb	r3, r3
 2621 009a 23F00203 		bic	r3, r3, #2
 2622 009e D8B2     		uxtb	r0, r3
 2623 00a0 2B49     		ldr	r1, .L175+4
 2624 00a2 1346     		mov	r3, r2
 2625 00a4 5B00     		lsls	r3, r3, #1
 2626 00a6 1344     		add	r3, r3, r2
 2627 00a8 9B00     		lsls	r3, r3, #2
 2628 00aa 0B44     		add	r3, r3, r1
 2629 00ac 0133     		adds	r3, r3, #1
 2630 00ae 0246     		mov	r2, r0
 2631 00b0 1A70     		strb	r2, [r3]
1183:Generated_Source\PSoC5/USB_std.c **** 
1184:Generated_Source\PSoC5/USB_std.c ****         if ((USB_EP[ep].addr & USB_DIR_IN) != 0u)
 2632              		.loc 1 1184 0
 2633 00b2 BA79     		ldrb	r2, [r7, #6]	@ zero_extendqisi2
 2634 00b4 2649     		ldr	r1, .L175+4
 2635 00b6 1346     		mov	r3, r2
 2636 00b8 5B00     		lsls	r3, r3, #1
 2637 00ba 1344     		add	r3, r3, r2
 2638 00bc 9B00     		lsls	r3, r3, #2
 2639 00be 0B44     		add	r3, r3, r1
 2640 00c0 0433     		adds	r3, r3, #4
 2641 00c2 1B78     		ldrb	r3, [r3]
 2642 00c4 DBB2     		uxtb	r3, r3
 2643 00c6 5BB2     		sxtb	r3, r3
 2644 00c8 002B     		cmp	r3, #0
 2645 00ca 1BDA     		bge	.L169
1185:Generated_Source\PSoC5/USB_std.c ****         {
1186:Generated_Source\PSoC5/USB_std.c ****             /* IN Endpoint */
1187:Generated_Source\PSoC5/USB_std.c ****             if(USB_EP[ep].apiEpState == USB_IN_BUFFER_EMPTY)
 2646              		.loc 1 1187 0
 2647 00cc BA79     		ldrb	r2, [r7, #6]	@ zero_extendqisi2
 2648 00ce 2049     		ldr	r1, .L175+4
 2649 00d0 1346     		mov	r3, r2
ARM GAS  C:\Users\JEFFSN~1\AppData\Local\Temp\cczY2IKK.s 			page 70


 2650 00d2 5B00     		lsls	r3, r3, #1
 2651 00d4 1344     		add	r3, r3, r2
 2652 00d6 9B00     		lsls	r3, r3, #2
 2653 00d8 0B44     		add	r3, r3, r1
 2654 00da 0133     		adds	r3, r3, #1
 2655 00dc 1B78     		ldrb	r3, [r3]
 2656 00de DBB2     		uxtb	r3, r3
 2657 00e0 012B     		cmp	r3, #1
 2658 00e2 07D1     		bne	.L170
1188:Generated_Source\PSoC5/USB_std.c ****             {       
1189:Generated_Source\PSoC5/USB_std.c ****                 /* Wait for next packet from application */
1190:Generated_Source\PSoC5/USB_std.c ****                 USB_SIE_EP_BASE.sieEp[ep].epCr0 = USB_MODE_NAK_IN;
 2659              		.loc 1 1190 0
 2660 00e4 1B4A     		ldr	r2, .L175+8
 2661 00e6 BB79     		ldrb	r3, [r7, #6]	@ zero_extendqisi2
 2662 00e8 1B01     		lsls	r3, r3, #4
 2663 00ea 1344     		add	r3, r3, r2
 2664 00ec 0233     		adds	r3, r3, #2
 2665 00ee 0C22     		movs	r2, #12
 2666 00f0 1A70     		strb	r2, [r3]
 2667 00f2 22E0     		b	.L172
 2668              	.L170:
1191:Generated_Source\PSoC5/USB_std.c ****             }
1192:Generated_Source\PSoC5/USB_std.c ****             else    /* Continue armed transfer */
1193:Generated_Source\PSoC5/USB_std.c ****             {
1194:Generated_Source\PSoC5/USB_std.c ****                 USB_SIE_EP_BASE.sieEp[ep].epCr0 = USB_MODE_ACK_IN;
 2669              		.loc 1 1194 0
 2670 00f4 174A     		ldr	r2, .L175+8
 2671 00f6 BB79     		ldrb	r3, [r7, #6]	@ zero_extendqisi2
 2672 00f8 1B01     		lsls	r3, r3, #4
 2673 00fa 1344     		add	r3, r3, r2
 2674 00fc 0233     		adds	r3, r3, #2
 2675 00fe 0D22     		movs	r2, #13
 2676 0100 1A70     		strb	r2, [r3]
 2677 0102 1AE0     		b	.L172
 2678              	.L169:
1195:Generated_Source\PSoC5/USB_std.c ****             }
1196:Generated_Source\PSoC5/USB_std.c ****         }
1197:Generated_Source\PSoC5/USB_std.c ****         else
1198:Generated_Source\PSoC5/USB_std.c ****         {
1199:Generated_Source\PSoC5/USB_std.c ****             /* OUT Endpoint */
1200:Generated_Source\PSoC5/USB_std.c ****             if (USB_EP[ep].apiEpState == USB_OUT_BUFFER_FULL)
 2679              		.loc 1 1200 0
 2680 0104 BA79     		ldrb	r2, [r7, #6]	@ zero_extendqisi2
 2681 0106 1249     		ldr	r1, .L175+4
 2682 0108 1346     		mov	r3, r2
 2683 010a 5B00     		lsls	r3, r3, #1
 2684 010c 1344     		add	r3, r3, r2
 2685 010e 9B00     		lsls	r3, r3, #2
 2686 0110 0B44     		add	r3, r3, r1
 2687 0112 0133     		adds	r3, r3, #1
 2688 0114 1B78     		ldrb	r3, [r3]
 2689 0116 DBB2     		uxtb	r3, r3
 2690 0118 012B     		cmp	r3, #1
 2691 011a 07D1     		bne	.L173
1201:Generated_Source\PSoC5/USB_std.c ****             {       
1202:Generated_Source\PSoC5/USB_std.c ****                 /* Allow application to read full buffer */
ARM GAS  C:\Users\JEFFSN~1\AppData\Local\Temp\cczY2IKK.s 			page 71


1203:Generated_Source\PSoC5/USB_std.c ****                 USB_SIE_EP_BASE.sieEp[ep].epCr0 = USB_MODE_NAK_OUT;
 2692              		.loc 1 1203 0
 2693 011c 0D4A     		ldr	r2, .L175+8
 2694 011e BB79     		ldrb	r3, [r7, #6]	@ zero_extendqisi2
 2695 0120 1B01     		lsls	r3, r3, #4
 2696 0122 1344     		add	r3, r3, r2
 2697 0124 0233     		adds	r3, r3, #2
 2698 0126 0822     		movs	r2, #8
 2699 0128 1A70     		strb	r2, [r3]
 2700 012a 06E0     		b	.L172
 2701              	.L173:
1204:Generated_Source\PSoC5/USB_std.c ****             }
1205:Generated_Source\PSoC5/USB_std.c ****             else    /* Mark endpoint as empty, so it will be reloaded */
1206:Generated_Source\PSoC5/USB_std.c ****             {
1207:Generated_Source\PSoC5/USB_std.c ****                 USB_SIE_EP_BASE.sieEp[ep].epCr0 = USB_MODE_ACK_OUT;
 2702              		.loc 1 1207 0
 2703 012c 094A     		ldr	r2, .L175+8
 2704 012e BB79     		ldrb	r3, [r7, #6]	@ zero_extendqisi2
 2705 0130 1B01     		lsls	r3, r3, #4
 2706 0132 1344     		add	r3, r3, r2
 2707 0134 0233     		adds	r3, r3, #2
 2708 0136 0922     		movs	r2, #9
 2709 0138 1A70     		strb	r2, [r3]
 2710              	.L172:
1208:Generated_Source\PSoC5/USB_std.c ****             }
1209:Generated_Source\PSoC5/USB_std.c ****         }
1210:Generated_Source\PSoC5/USB_std.c ****         
1211:Generated_Source\PSoC5/USB_std.c ****         requestHandled = USB_InitNoDataControlTransfer();
 2711              		.loc 1 1211 0
 2712 013a FFF7FEFF 		bl	USB_InitNoDataControlTransfer
 2713 013e 0346     		mov	r3, r0
 2714 0140 FB71     		strb	r3, [r7, #7]
 2715              	.L168:
1212:Generated_Source\PSoC5/USB_std.c ****     }
1213:Generated_Source\PSoC5/USB_std.c **** 
1214:Generated_Source\PSoC5/USB_std.c ****     return(requestHandled);
 2716              		.loc 1 1214 0
 2717 0142 FB79     		ldrb	r3, [r7, #7]	@ zero_extendqisi2
1215:Generated_Source\PSoC5/USB_std.c **** }
 2718              		.loc 1 1215 0
 2719 0144 1846     		mov	r0, r3
 2720 0146 0837     		adds	r7, r7, #8
 2721              		.cfi_def_cfa_offset 8
 2722 0148 BD46     		mov	sp, r7
 2723              		.cfi_def_cfa_register 13
 2724              		@ sp needed
 2725 014a 80BD     		pop	{r7, pc}
 2726              	.L176:
 2727              		.align	2
 2728              	.L175:
 2729 014c 00600040 		.word	1073766400
 2730 0150 00000000 		.word	USB_EP
 2731 0154 FC5F0040 		.word	1073766396
 2732              		.cfi_endproc
 2733              	.LFE11:
 2734              		.size	USB_ClearEndpointHalt, .-USB_ClearEndpointHalt
 2735              		.section	.text.USB_ValidateAlternateSetting,"ax",%progbits
ARM GAS  C:\Users\JEFFSN~1\AppData\Local\Temp\cczY2IKK.s 			page 72


 2736              		.align	2
 2737              		.global	USB_ValidateAlternateSetting
 2738              		.thumb
 2739              		.thumb_func
 2740              		.type	USB_ValidateAlternateSetting, %function
 2741              	USB_ValidateAlternateSetting:
 2742              	.LFB12:
1216:Generated_Source\PSoC5/USB_std.c **** 
1217:Generated_Source\PSoC5/USB_std.c **** 
1218:Generated_Source\PSoC5/USB_std.c **** /*******************************************************************************
1219:Generated_Source\PSoC5/USB_std.c **** * Function Name: USB_ValidateAlternateSetting
1220:Generated_Source\PSoC5/USB_std.c **** ****************************************************************************//**
1221:Generated_Source\PSoC5/USB_std.c **** *
1222:Generated_Source\PSoC5/USB_std.c **** *  Validates (and records) a SET INTERFACE request.
1223:Generated_Source\PSoC5/USB_std.c **** *
1224:Generated_Source\PSoC5/USB_std.c **** * \return
1225:Generated_Source\PSoC5/USB_std.c **** *  requestHandled.
1226:Generated_Source\PSoC5/USB_std.c **** *
1227:Generated_Source\PSoC5/USB_std.c **** * \reentrant
1228:Generated_Source\PSoC5/USB_std.c **** *  No.
1229:Generated_Source\PSoC5/USB_std.c **** *
1230:Generated_Source\PSoC5/USB_std.c **** *******************************************************************************/
1231:Generated_Source\PSoC5/USB_std.c **** uint8 USB_ValidateAlternateSetting(void) 
1232:Generated_Source\PSoC5/USB_std.c **** {
 2743              		.loc 1 1232 0
 2744              		.cfi_startproc
 2745              		@ args = 0, pretend = 0, frame = 16
 2746              		@ frame_needed = 1, uses_anonymous_args = 0
 2747 0000 80B5     		push	{r7, lr}
 2748              		.cfi_def_cfa_offset 8
 2749              		.cfi_offset 7, -8
 2750              		.cfi_offset 14, -4
 2751 0002 84B0     		sub	sp, sp, #16
 2752              		.cfi_def_cfa_offset 24
 2753 0004 00AF     		add	r7, sp, #0
 2754              		.cfi_def_cfa_register 7
1233:Generated_Source\PSoC5/USB_std.c ****     uint8 requestHandled = USB_FALSE;
 2755              		.loc 1 1233 0
 2756 0006 0023     		movs	r3, #0
 2757 0008 FB73     		strb	r3, [r7, #15]
1234:Generated_Source\PSoC5/USB_std.c ****     
1235:Generated_Source\PSoC5/USB_std.c ****     uint8 interfaceNum;
1236:Generated_Source\PSoC5/USB_std.c ****     uint8 curInterfacesNum;
1237:Generated_Source\PSoC5/USB_std.c ****     const T_USB_LUT CYCODE *pTmp;
1238:Generated_Source\PSoC5/USB_std.c ****     
1239:Generated_Source\PSoC5/USB_std.c ****     /* Get interface number from the request. */
1240:Generated_Source\PSoC5/USB_std.c ****     interfaceNum = (uint8) USB_wIndexLoReg;
 2758              		.loc 1 1240 0
 2759 000a 154B     		ldr	r3, .L181
 2760 000c 1B79     		ldrb	r3, [r3, #4]
 2761 000e BB73     		strb	r3, [r7, #14]
1241:Generated_Source\PSoC5/USB_std.c ****     
1242:Generated_Source\PSoC5/USB_std.c ****     /* Get number of interfaces for current configuration. */
1243:Generated_Source\PSoC5/USB_std.c ****     pTmp = USB_GetConfigTablePtr(USB_configuration - 1u);
 2762              		.loc 1 1243 0
 2763 0010 144B     		ldr	r3, .L181+4
 2764 0012 1B78     		ldrb	r3, [r3]
ARM GAS  C:\Users\JEFFSN~1\AppData\Local\Temp\cczY2IKK.s 			page 73


 2765 0014 DBB2     		uxtb	r3, r3
 2766 0016 013B     		subs	r3, r3, #1
 2767 0018 DBB2     		uxtb	r3, r3
 2768 001a 1846     		mov	r0, r3
 2769 001c FFF7FEFF 		bl	USB_GetConfigTablePtr
 2770 0020 B860     		str	r0, [r7, #8]
1244:Generated_Source\PSoC5/USB_std.c ****     curInterfacesNum  = ((const uint8 *) pTmp->p_list)[USB_CONFIG_DESCR_NUM_INTERFACES];
 2771              		.loc 1 1244 0
 2772 0022 BB68     		ldr	r3, [r7, #8]
 2773 0024 5B68     		ldr	r3, [r3, #4]
 2774 0026 1B79     		ldrb	r3, [r3, #4]
 2775 0028 FB71     		strb	r3, [r7, #7]
1245:Generated_Source\PSoC5/USB_std.c **** 
1246:Generated_Source\PSoC5/USB_std.c ****     /* Validate that interface number is within range. */
1247:Generated_Source\PSoC5/USB_std.c ****     if ((interfaceNum <= curInterfacesNum) || (interfaceNum <= USB_MAX_INTERFACES_NUMBER))
 2776              		.loc 1 1247 0
 2777 002a BA7B     		ldrb	r2, [r7, #14]	@ zero_extendqisi2
 2778 002c FB79     		ldrb	r3, [r7, #7]	@ zero_extendqisi2
 2779 002e 9A42     		cmp	r2, r3
 2780 0030 02D9     		bls	.L178
 2781              		.loc 1 1247 0 is_stmt 0 discriminator 1
 2782 0032 BB7B     		ldrb	r3, [r7, #14]	@ zero_extendqisi2
 2783 0034 022B     		cmp	r3, #2
 2784 0036 0ED8     		bhi	.L179
 2785              	.L178:
1248:Generated_Source\PSoC5/USB_std.c ****     {
1249:Generated_Source\PSoC5/USB_std.c ****         /* Save current and new alternate settings (come with request) to make 
1250:Generated_Source\PSoC5/USB_std.c ****         * desicion about following endpoint re-configuration.
1251:Generated_Source\PSoC5/USB_std.c ****         */
1252:Generated_Source\PSoC5/USB_std.c ****         USB_interfaceSettingLast[interfaceNum] = USB_interfaceSetting[interfaceNum];
 2786              		.loc 1 1252 0 is_stmt 1
 2787 0038 BB7B     		ldrb	r3, [r7, #14]	@ zero_extendqisi2
 2788 003a BA7B     		ldrb	r2, [r7, #14]	@ zero_extendqisi2
 2789 003c 0A49     		ldr	r1, .L181+8
 2790 003e 8A5C     		ldrb	r2, [r1, r2]
 2791 0040 D1B2     		uxtb	r1, r2
 2792 0042 0A4A     		ldr	r2, .L181+12
 2793 0044 D154     		strb	r1, [r2, r3]
1253:Generated_Source\PSoC5/USB_std.c ****         USB_interfaceSetting[interfaceNum]     = (uint8) USB_wValueLoReg;
 2794              		.loc 1 1253 0
 2795 0046 BB7B     		ldrb	r3, [r7, #14]	@ zero_extendqisi2
 2796 0048 054A     		ldr	r2, .L181
 2797 004a 9278     		ldrb	r2, [r2, #2]
 2798 004c D1B2     		uxtb	r1, r2
 2799 004e 064A     		ldr	r2, .L181+8
 2800 0050 D154     		strb	r1, [r2, r3]
1254:Generated_Source\PSoC5/USB_std.c ****         
1255:Generated_Source\PSoC5/USB_std.c ****         requestHandled = USB_TRUE;
 2801              		.loc 1 1255 0
 2802 0052 0123     		movs	r3, #1
 2803 0054 FB73     		strb	r3, [r7, #15]
 2804              	.L179:
1256:Generated_Source\PSoC5/USB_std.c ****     }
1257:Generated_Source\PSoC5/USB_std.c **** 
1258:Generated_Source\PSoC5/USB_std.c ****     return (requestHandled);
 2805              		.loc 1 1258 0
 2806 0056 FB7B     		ldrb	r3, [r7, #15]	@ zero_extendqisi2
ARM GAS  C:\Users\JEFFSN~1\AppData\Local\Temp\cczY2IKK.s 			page 74


1259:Generated_Source\PSoC5/USB_std.c **** }
 2807              		.loc 1 1259 0
 2808 0058 1846     		mov	r0, r3
 2809 005a 1037     		adds	r7, r7, #16
 2810              		.cfi_def_cfa_offset 8
 2811 005c BD46     		mov	sp, r7
 2812              		.cfi_def_cfa_register 13
 2813              		@ sp needed
 2814 005e 80BD     		pop	{r7, pc}
 2815              	.L182:
 2816              		.align	2
 2817              	.L181:
 2818 0060 00600040 		.word	1073766400
 2819 0064 00000000 		.word	USB_configuration
 2820 0068 00000000 		.word	USB_interfaceSetting
 2821 006c 00000000 		.word	USB_interfaceSettingLast
 2822              		.cfi_endproc
 2823              	.LFE12:
 2824              		.size	USB_ValidateAlternateSetting, .-USB_ValidateAlternateSetting
 2825              		.bss
 2826              		.align	2
 2827              	USB_tBuffer.5213:
 2828 0000 0000     		.space	2
 2829              		.text
 2830              	.Letext0:
 2831              		.file 2 "Generated_Source\\PSoC5\\cytypes.h"
 2832              		.file 3 "Generated_Source\\PSoC5\\USB.h"
 2833              		.file 4 "Generated_Source\\PSoC5\\USB_midi.h"
 2834              		.file 5 "Generated_Source\\PSoC5\\USB_pvt.h"