
Electrosteel_Daisy_Bootloader.elf:     file format elf32-littlearm

Sections:
Idx Name          Size      VMA       LMA       File off  Algn
  0 .isr_vector   00000298  08000000  08000000  00010000  2**2
                  CONTENTS, ALLOC, LOAD, DATA
  1 .text         00008ca4  08000298  08000298  00010298  2**2
                  CONTENTS, ALLOC, LOAD, READONLY, CODE
  2 .ARM.extab    00000000  08008f3c  08008f3c  00020018  2**0
                  CONTENTS
  3 .exidx        00000000  08008f3c  08008f3c  00020018  2**0
                  CONTENTS
  4 .ARM.attributes 0000002e  08008f3c  08008f3c  00020018  2**0
                  CONTENTS, READONLY
  5 .init_array   00000004  08008f3c  08008f3c  00018f3c  2**2
                  CONTENTS, ALLOC, LOAD, DATA
  6 .fini_array   00000004  08008f40  08008f40  00018f40  2**2
                  CONTENTS, ALLOC, LOAD, DATA
  7 .data         00000018  20000000  08008f44  00020000  2**2
                  CONTENTS, ALLOC, LOAD, DATA
  8 .bss          00000938  20000018  08008f5c  00020018  2**2
                  ALLOC
  9 .dtcmram_bss  00000000  20000950  20000950  00020046  2**0
                  CONTENTS
 10 .sram1_bss    00040000  24000000  24000000  00030000  2**5
                  ALLOC
 11 .userflash    00000020  38800000  38800000  00030000  2**5
                  ALLOC
 12 .sdram_bss    00000000  c0000000  c0000000  00020046  2**0
                  CONTENTS
 13 .qspiflash_text 00000000  90000000  90000000  00020046  2**0
                  CONTENTS
 14 .qspiflash_data 00000000  90000000  90000000  00020046  2**0
                  CONTENTS
 15 .qspiflash_bss 00040000  90000000  90000000  00030000  2**5
                  ALLOC
 16 .heap         00000000  20000950  20000950  00020046  2**0
                  CONTENTS
 17 .reserved_for_stack 00000000  20000950  20000950  00020046  2**0
                  CONTENTS
 18 .debug_info   00022b70  00000000  00000000  00020046  2**0
                  CONTENTS, READONLY, DEBUGGING, OCTETS
 19 .debug_abbrev 00003ac7  00000000  00000000  00042bb6  2**0
                  CONTENTS, READONLY, DEBUGGING, OCTETS
 20 .debug_aranges 00001300  00000000  00000000  0004667d  2**0
                  CONTENTS, READONLY, DEBUGGING, OCTETS
 21 .debug_ranges 000012b0  00000000  00000000  0004797d  2**0
                  CONTENTS, READONLY, DEBUGGING, OCTETS
 22 .debug_macro  0003972c  00000000  00000000  00048c2d  2**0
                  CONTENTS, READONLY, DEBUGGING, OCTETS
 23 .debug_line   000234be  00000000  00000000  00082359  2**0
                  CONTENTS, READONLY, DEBUGGING, OCTETS
 24 .debug_str    0015c2c8  00000000  00000000  000a5817  2**0
                  CONTENTS, READONLY, DEBUGGING, OCTETS
 25 .comment      00000050  00000000  00000000  00201adf  2**0
                  CONTENTS, READONLY
 26 .debug_frame  0000364c  00000000  00000000  00201b30  2**2
                  CONTENTS, READONLY, DEBUGGING, OCTETS
 27 .debug_loc    000152bf  00000000  00000000  0020517c  2**0
                  CONTENTS, READONLY, DEBUGGING, OCTETS

Disassembly of section .text:

08000298 <__do_global_dtors_aux>:
 8000298:	b510      	push	{r4, lr}
 800029a:	4c05      	ldr	r4, [pc, #20]	; (80002b0 <__do_global_dtors_aux+0x18>)
 800029c:	7823      	ldrb	r3, [r4, #0]
 800029e:	b933      	cbnz	r3, 80002ae <__do_global_dtors_aux+0x16>
 80002a0:	4b04      	ldr	r3, [pc, #16]	; (80002b4 <__do_global_dtors_aux+0x1c>)
 80002a2:	b113      	cbz	r3, 80002aa <__do_global_dtors_aux+0x12>
 80002a4:	4804      	ldr	r0, [pc, #16]	; (80002b8 <__do_global_dtors_aux+0x20>)
 80002a6:	f3af 8000 	nop.w
 80002aa:	2301      	movs	r3, #1
 80002ac:	7023      	strb	r3, [r4, #0]
 80002ae:	bd10      	pop	{r4, pc}
 80002b0:	20000018 	.word	0x20000018
 80002b4:	00000000 	.word	0x00000000
 80002b8:	08008f3c 	.word	0x08008f3c

080002bc <frame_dummy>:
 80002bc:	b508      	push	{r3, lr}
 80002be:	4b03      	ldr	r3, [pc, #12]	; (80002cc <frame_dummy+0x10>)
 80002c0:	b11b      	cbz	r3, 80002ca <frame_dummy+0xe>
 80002c2:	4903      	ldr	r1, [pc, #12]	; (80002d0 <frame_dummy+0x14>)
 80002c4:	4803      	ldr	r0, [pc, #12]	; (80002d4 <frame_dummy+0x18>)
 80002c6:	f3af 8000 	nop.w
 80002ca:	bd08      	pop	{r3, pc}
 80002cc:	00000000 	.word	0x00000000
 80002d0:	2000001c 	.word	0x2000001c
 80002d4:	08008f3c 	.word	0x08008f3c

080002d8 <MX_GPIO_Init>:
     PA13 (JTMS/SWDIO)   ------> DEBUG_JTMS-SWDIO
     PH0-OSC_IN (PH0)   ------> RCC_OSC_IN
     PH1-OSC_OUT (PH1)   ------> RCC_OSC_OUT
*/
void MX_GPIO_Init(void)
{
 80002d8:	e92d 43f0 	stmdb	sp!, {r4, r5, r6, r7, r8, r9, lr}
 80002dc:	b08f      	sub	sp, #60	; 0x3c

  GPIO_InitTypeDef GPIO_InitStruct = {0};
 80002de:	2400      	movs	r4, #0
 80002e0:	9409      	str	r4, [sp, #36]	; 0x24
 80002e2:	940a      	str	r4, [sp, #40]	; 0x28
 80002e4:	940b      	str	r4, [sp, #44]	; 0x2c
 80002e6:	940c      	str	r4, [sp, #48]	; 0x30
 80002e8:	940d      	str	r4, [sp, #52]	; 0x34

  /* GPIO Ports Clock Enable */
  __HAL_RCC_GPIOE_CLK_ENABLE();
 80002ea:	4b85      	ldr	r3, [pc, #532]	; (8000500 <MX_GPIO_Init+0x228>)
 80002ec:	f8d3 20e0 	ldr.w	r2, [r3, #224]	; 0xe0
 80002f0:	f042 0210 	orr.w	r2, r2, #16
 80002f4:	f8c3 20e0 	str.w	r2, [r3, #224]	; 0xe0
 80002f8:	f8d3 20e0 	ldr.w	r2, [r3, #224]	; 0xe0
 80002fc:	f002 0210 	and.w	r2, r2, #16
 8000300:	9200      	str	r2, [sp, #0]
 8000302:	9a00      	ldr	r2, [sp, #0]
  __HAL_RCC_GPIOB_CLK_ENABLE();
 8000304:	f8d3 20e0 	ldr.w	r2, [r3, #224]	; 0xe0
 8000308:	f042 0202 	orr.w	r2, r2, #2
 800030c:	f8c3 20e0 	str.w	r2, [r3, #224]	; 0xe0
 8000310:	f8d3 20e0 	ldr.w	r2, [r3, #224]	; 0xe0
 8000314:	f002 0202 	and.w	r2, r2, #2
 8000318:	9201      	str	r2, [sp, #4]
 800031a:	9a01      	ldr	r2, [sp, #4]
  __HAL_RCC_GPIOG_CLK_ENABLE();
 800031c:	f8d3 20e0 	ldr.w	r2, [r3, #224]	; 0xe0
 8000320:	f042 0240 	orr.w	r2, r2, #64	; 0x40
 8000324:	f8c3 20e0 	str.w	r2, [r3, #224]	; 0xe0
 8000328:	f8d3 20e0 	ldr.w	r2, [r3, #224]	; 0xe0
 800032c:	f002 0240 	and.w	r2, r2, #64	; 0x40
 8000330:	9202      	str	r2, [sp, #8]
 8000332:	9a02      	ldr	r2, [sp, #8]
  __HAL_RCC_GPIOD_CLK_ENABLE();
 8000334:	f8d3 20e0 	ldr.w	r2, [r3, #224]	; 0xe0
 8000338:	f042 0208 	orr.w	r2, r2, #8
 800033c:	f8c3 20e0 	str.w	r2, [r3, #224]	; 0xe0
 8000340:	f8d3 20e0 	ldr.w	r2, [r3, #224]	; 0xe0
 8000344:	f002 0208 	and.w	r2, r2, #8
 8000348:	9203      	str	r2, [sp, #12]
 800034a:	9a03      	ldr	r2, [sp, #12]
  __HAL_RCC_GPIOC_CLK_ENABLE();
 800034c:	f8d3 20e0 	ldr.w	r2, [r3, #224]	; 0xe0
 8000350:	f042 0204 	orr.w	r2, r2, #4
 8000354:	f8c3 20e0 	str.w	r2, [r3, #224]	; 0xe0
 8000358:	f8d3 20e0 	ldr.w	r2, [r3, #224]	; 0xe0
 800035c:	f002 0204 	and.w	r2, r2, #4
 8000360:	9204      	str	r2, [sp, #16]
 8000362:	9a04      	ldr	r2, [sp, #16]
  __HAL_RCC_GPIOA_CLK_ENABLE();
 8000364:	f8d3 20e0 	ldr.w	r2, [r3, #224]	; 0xe0
 8000368:	f042 0201 	orr.w	r2, r2, #1
 800036c:	f8c3 20e0 	str.w	r2, [r3, #224]	; 0xe0
 8000370:	f8d3 20e0 	ldr.w	r2, [r3, #224]	; 0xe0
 8000374:	f002 0201 	and.w	r2, r2, #1
 8000378:	9205      	str	r2, [sp, #20]
 800037a:	9a05      	ldr	r2, [sp, #20]
  __HAL_RCC_GPIOI_CLK_ENABLE();
 800037c:	f8d3 20e0 	ldr.w	r2, [r3, #224]	; 0xe0
 8000380:	f442 7280 	orr.w	r2, r2, #256	; 0x100
 8000384:	f8c3 20e0 	str.w	r2, [r3, #224]	; 0xe0
 8000388:	f8d3 20e0 	ldr.w	r2, [r3, #224]	; 0xe0
 800038c:	f402 7280 	and.w	r2, r2, #256	; 0x100
 8000390:	9206      	str	r2, [sp, #24]
 8000392:	9a06      	ldr	r2, [sp, #24]
  __HAL_RCC_GPIOH_CLK_ENABLE();
 8000394:	f8d3 20e0 	ldr.w	r2, [r3, #224]	; 0xe0
 8000398:	f042 0280 	orr.w	r2, r2, #128	; 0x80
 800039c:	f8c3 20e0 	str.w	r2, [r3, #224]	; 0xe0
 80003a0:	f8d3 20e0 	ldr.w	r2, [r3, #224]	; 0xe0
 80003a4:	f002 0280 	and.w	r2, r2, #128	; 0x80
 80003a8:	9207      	str	r2, [sp, #28]
 80003aa:	9a07      	ldr	r2, [sp, #28]
  __HAL_RCC_GPIOF_CLK_ENABLE();
 80003ac:	f8d3 20e0 	ldr.w	r2, [r3, #224]	; 0xe0
 80003b0:	f042 0220 	orr.w	r2, r2, #32
 80003b4:	f8c3 20e0 	str.w	r2, [r3, #224]	; 0xe0
 80003b8:	f8d3 30e0 	ldr.w	r3, [r3, #224]	; 0xe0
 80003bc:	f003 0320 	and.w	r3, r3, #32
 80003c0:	9308      	str	r3, [sp, #32]
 80003c2:	9b08      	ldr	r3, [sp, #32]

  /*Configure GPIO pin Output Level */
  HAL_GPIO_WritePin(GPIOC, GPIO_PIN_7, GPIO_PIN_RESET);
 80003c4:	f8df 9158 	ldr.w	r9, [pc, #344]	; 8000520 <MX_GPIO_Init+0x248>
 80003c8:	4622      	mov	r2, r4
 80003ca:	2180      	movs	r1, #128	; 0x80
 80003cc:	4648      	mov	r0, r9
 80003ce:	f001 fbe6 	bl	8001b9e <HAL_GPIO_WritePin>

  /*Configure GPIO pins : PE3 PE2 PE1 PE0
                           PE4 PE5 PE6 PE13
                           PE8 PE9 PE11 PE14
                           PE7 PE10 PE12 PE15 */
  GPIO_InitStruct.Pin = GPIO_PIN_3|GPIO_PIN_2|GPIO_PIN_1|GPIO_PIN_0
 80003d2:	f64f 73ff 	movw	r3, #65535	; 0xffff
 80003d6:	9309      	str	r3, [sp, #36]	; 0x24
                          |GPIO_PIN_4|GPIO_PIN_5|GPIO_PIN_6|GPIO_PIN_13
                          |GPIO_PIN_8|GPIO_PIN_9|GPIO_PIN_11|GPIO_PIN_14
                          |GPIO_PIN_7|GPIO_PIN_10|GPIO_PIN_12|GPIO_PIN_15;
  GPIO_InitStruct.Mode = GPIO_MODE_ANALOG;
 80003d8:	2503      	movs	r5, #3
 80003da:	950a      	str	r5, [sp, #40]	; 0x28
  GPIO_InitStruct.Pull = GPIO_NOPULL;
 80003dc:	940b      	str	r4, [sp, #44]	; 0x2c
  HAL_GPIO_Init(GPIOE, &GPIO_InitStruct);
 80003de:	a909      	add	r1, sp, #36	; 0x24
 80003e0:	4848      	ldr	r0, [pc, #288]	; (8000504 <MX_GPIO_Init+0x22c>)
 80003e2:	f001 fa1d 	bl	8001820 <HAL_GPIO_Init>

  /*Configure GPIO pins : PB5 PB4 PB7 PB2
                           PB13 PB1 PB0 PB10
                           PB11 */
  GPIO_InitStruct.Pin = GPIO_PIN_5|GPIO_PIN_4|GPIO_PIN_7|GPIO_PIN_2
 80003e6:	f642 43b7 	movw	r3, #11447	; 0x2cb7
 80003ea:	9309      	str	r3, [sp, #36]	; 0x24
                          |GPIO_PIN_13|GPIO_PIN_1|GPIO_PIN_0|GPIO_PIN_10
                          |GPIO_PIN_11;
  GPIO_InitStruct.Mode = GPIO_MODE_ANALOG;
 80003ec:	950a      	str	r5, [sp, #40]	; 0x28
  GPIO_InitStruct.Pull = GPIO_NOPULL;
 80003ee:	940b      	str	r4, [sp, #44]	; 0x2c
  HAL_GPIO_Init(GPIOB, &GPIO_InitStruct);
 80003f0:	4f45      	ldr	r7, [pc, #276]	; (8000508 <MX_GPIO_Init+0x230>)
 80003f2:	a909      	add	r1, sp, #36	; 0x24
 80003f4:	4638      	mov	r0, r7
 80003f6:	f001 fa13 	bl	8001820 <HAL_GPIO_Init>

  /*Configure GPIO pins : PG14 PG13 PG15 PG12
                           PG11 PG10 PG9 PG8
                           PG7 PG5 PG4 PG3
                           PG2 PG1 PG0 */
  GPIO_InitStruct.Pin = GPIO_PIN_14|GPIO_PIN_13|GPIO_PIN_15|GPIO_PIN_12
 80003fa:	f64f 73bf 	movw	r3, #65471	; 0xffbf
 80003fe:	9309      	str	r3, [sp, #36]	; 0x24
                          |GPIO_PIN_11|GPIO_PIN_10|GPIO_PIN_9|GPIO_PIN_8
                          |GPIO_PIN_7|GPIO_PIN_5|GPIO_PIN_4|GPIO_PIN_3
                          |GPIO_PIN_2|GPIO_PIN_1|GPIO_PIN_0;
  GPIO_InitStruct.Mode = GPIO_MODE_ANALOG;
 8000400:	950a      	str	r5, [sp, #40]	; 0x28
  GPIO_InitStruct.Pull = GPIO_NOPULL;
 8000402:	940b      	str	r4, [sp, #44]	; 0x2c
  HAL_GPIO_Init(GPIOG, &GPIO_InitStruct);
 8000404:	a909      	add	r1, sp, #36	; 0x24
 8000406:	4841      	ldr	r0, [pc, #260]	; (800050c <MX_GPIO_Init+0x234>)
 8000408:	f001 fa0a 	bl	8001820 <HAL_GPIO_Init>

  /*Configure GPIO pins : PD7 PD6 PD0 PD5
                           PD1 PD4 PD3 PD15
                           PD14 PD13 PD12 PD11
                           PD10 PD9 PD8 */
  GPIO_InitStruct.Pin = GPIO_PIN_7|GPIO_PIN_6|GPIO_PIN_0|GPIO_PIN_5
 800040c:	f64f 73fb 	movw	r3, #65531	; 0xfffb
 8000410:	9309      	str	r3, [sp, #36]	; 0x24
                          |GPIO_PIN_1|GPIO_PIN_4|GPIO_PIN_3|GPIO_PIN_15
                          |GPIO_PIN_14|GPIO_PIN_13|GPIO_PIN_12|GPIO_PIN_11
                          |GPIO_PIN_10|GPIO_PIN_9|GPIO_PIN_8;
  GPIO_InitStruct.Mode = GPIO_MODE_ANALOG;
 8000412:	950a      	str	r5, [sp, #40]	; 0x28
  GPIO_InitStruct.Pull = GPIO_NOPULL;
 8000414:	940b      	str	r4, [sp, #44]	; 0x2c
  HAL_GPIO_Init(GPIOD, &GPIO_InitStruct);
 8000416:	a909      	add	r1, sp, #36	; 0x24
 8000418:	483d      	ldr	r0, [pc, #244]	; (8000510 <MX_GPIO_Init+0x238>)
 800041a:	f001 fa01 	bl	8001820 <HAL_GPIO_Init>

  /*Configure GPIO pins : PA15 PA12 PA11 PA10
                           PA9 PA8 PA0 PA4
                           PA6 PA5 PA3 PA7 */
  GPIO_InitStruct.Pin = GPIO_PIN_15|GPIO_PIN_12|GPIO_PIN_11|GPIO_PIN_10
 800041e:	f649 73f9 	movw	r3, #40953	; 0x9ff9
 8000422:	9309      	str	r3, [sp, #36]	; 0x24
                          |GPIO_PIN_9|GPIO_PIN_8|GPIO_PIN_0|GPIO_PIN_4
                          |GPIO_PIN_6|GPIO_PIN_5|GPIO_PIN_3|GPIO_PIN_7;
  GPIO_InitStruct.Mode = GPIO_MODE_ANALOG;
 8000424:	950a      	str	r5, [sp, #40]	; 0x28
  GPIO_InitStruct.Pull = GPIO_NOPULL;
 8000426:	940b      	str	r4, [sp, #44]	; 0x2c
  HAL_GPIO_Init(GPIOA, &GPIO_InitStruct);
 8000428:	f8df 80f8 	ldr.w	r8, [pc, #248]	; 8000524 <MX_GPIO_Init+0x24c>
 800042c:	a909      	add	r1, sp, #36	; 0x24
 800042e:	4640      	mov	r0, r8
 8000430:	f001 f9f6 	bl	8001820 <HAL_GPIO_Init>

  /*Configure GPIO pin : PB6 */
  GPIO_InitStruct.Pin = GPIO_PIN_6;
 8000434:	2340      	movs	r3, #64	; 0x40
 8000436:	9309      	str	r3, [sp, #36]	; 0x24
  GPIO_InitStruct.Mode = GPIO_MODE_INPUT;
 8000438:	940a      	str	r4, [sp, #40]	; 0x28
  GPIO_InitStruct.Pull = GPIO_PULLUP;
 800043a:	2601      	movs	r6, #1
 800043c:	960b      	str	r6, [sp, #44]	; 0x2c
  HAL_GPIO_Init(GPIOB, &GPIO_InitStruct);
 800043e:	a909      	add	r1, sp, #36	; 0x24
 8000440:	4638      	mov	r0, r7
 8000442:	f001 f9ed 	bl	8001820 <HAL_GPIO_Init>

  /*Configure GPIO pins : PI7 PI6 PI5 PI3
                           PI2 PI8 PI9 PI4
                           PI1 PI10 PI11 PI0 */
  GPIO_InitStruct.Pin = GPIO_PIN_7|GPIO_PIN_6|GPIO_PIN_5|GPIO_PIN_3
 8000446:	f640 73ff 	movw	r3, #4095	; 0xfff
 800044a:	9309      	str	r3, [sp, #36]	; 0x24
                          |GPIO_PIN_2|GPIO_PIN_8|GPIO_PIN_9|GPIO_PIN_4
                          |GPIO_PIN_1|GPIO_PIN_10|GPIO_PIN_11|GPIO_PIN_0;
  GPIO_InitStruct.Mode = GPIO_MODE_ANALOG;
 800044c:	950a      	str	r5, [sp, #40]	; 0x28
  GPIO_InitStruct.Pull = GPIO_NOPULL;
 800044e:	940b      	str	r4, [sp, #44]	; 0x2c
  HAL_GPIO_Init(GPIOI, &GPIO_InitStruct);
 8000450:	a909      	add	r1, sp, #36	; 0x24
 8000452:	4830      	ldr	r0, [pc, #192]	; (8000514 <MX_GPIO_Init+0x23c>)
 8000454:	f001 f9e4 	bl	8001820 <HAL_GPIO_Init>

  /*Configure GPIO pins : PC13 PC14 PC15 PC6
                           PC0 PC1 PC2 PC3
                           PC4 PC5 */
  GPIO_InitStruct.Pin = GPIO_PIN_13|GPIO_PIN_14|GPIO_PIN_15|GPIO_PIN_6
 8000458:	f24e 037f 	movw	r3, #57471	; 0xe07f
 800045c:	9309      	str	r3, [sp, #36]	; 0x24
                          |GPIO_PIN_0|GPIO_PIN_1|GPIO_PIN_2|GPIO_PIN_3
                          |GPIO_PIN_4|GPIO_PIN_5;
  GPIO_InitStruct.Mode = GPIO_MODE_ANALOG;
 800045e:	950a      	str	r5, [sp, #40]	; 0x28
  GPIO_InitStruct.Pull = GPIO_NOPULL;
 8000460:	940b      	str	r4, [sp, #44]	; 0x2c
  HAL_GPIO_Init(GPIOC, &GPIO_InitStruct);
 8000462:	a909      	add	r1, sp, #36	; 0x24
 8000464:	4648      	mov	r0, r9
 8000466:	f001 f9db 	bl	8001820 <HAL_GPIO_Init>

  /*Configure GPIO pins : PH15 PH13 PH14 PH2
                           PH3 PH4 PH5 PH12
                           PH11 PH10 PH6 PH8
                           PH9 PH7 */
  GPIO_InitStruct.Pin = GPIO_PIN_15|GPIO_PIN_13|GPIO_PIN_14|GPIO_PIN_2
 800046a:	f64f 73fc 	movw	r3, #65532	; 0xfffc
 800046e:	9309      	str	r3, [sp, #36]	; 0x24
                          |GPIO_PIN_3|GPIO_PIN_4|GPIO_PIN_5|GPIO_PIN_12
                          |GPIO_PIN_11|GPIO_PIN_10|GPIO_PIN_6|GPIO_PIN_8
                          |GPIO_PIN_9|GPIO_PIN_7;
  GPIO_InitStruct.Mode = GPIO_MODE_ANALOG;
 8000470:	950a      	str	r5, [sp, #40]	; 0x28
  GPIO_InitStruct.Pull = GPIO_NOPULL;
 8000472:	940b      	str	r4, [sp, #44]	; 0x2c
  HAL_GPIO_Init(GPIOH, &GPIO_InitStruct);
 8000474:	a909      	add	r1, sp, #36	; 0x24
 8000476:	4828      	ldr	r0, [pc, #160]	; (8000518 <MX_GPIO_Init+0x240>)
 8000478:	f001 f9d2 	bl	8001820 <HAL_GPIO_Init>

  /*Configure GPIO pins : PF0 PF2 PF1 PF3
                           PF4 PF5 PF13 PF12
                           PF15 PF11 PF14 */
  GPIO_InitStruct.Pin = GPIO_PIN_0|GPIO_PIN_2|GPIO_PIN_1|GPIO_PIN_3
 800047c:	f64f 033f 	movw	r3, #63551	; 0xf83f
 8000480:	9309      	str	r3, [sp, #36]	; 0x24
                          |GPIO_PIN_4|GPIO_PIN_5|GPIO_PIN_13|GPIO_PIN_12
                          |GPIO_PIN_15|GPIO_PIN_11|GPIO_PIN_14;
  GPIO_InitStruct.Mode = GPIO_MODE_ANALOG;
 8000482:	950a      	str	r5, [sp, #40]	; 0x28
  GPIO_InitStruct.Pull = GPIO_NOPULL;
 8000484:	940b      	str	r4, [sp, #44]	; 0x2c
  HAL_GPIO_Init(GPIOF, &GPIO_InitStruct);
 8000486:	a909      	add	r1, sp, #36	; 0x24
 8000488:	4824      	ldr	r0, [pc, #144]	; (800051c <MX_GPIO_Init+0x244>)
 800048a:	f001 f9c9 	bl	8001820 <HAL_GPIO_Init>

  /*Configure GPIO pin : PC7 */
  GPIO_InitStruct.Pin = GPIO_PIN_7;
 800048e:	2380      	movs	r3, #128	; 0x80
 8000490:	9309      	str	r3, [sp, #36]	; 0x24
  GPIO_InitStruct.Mode = GPIO_MODE_OUTPUT_PP;
 8000492:	960a      	str	r6, [sp, #40]	; 0x28
  GPIO_InitStruct.Pull = GPIO_NOPULL;
 8000494:	940b      	str	r4, [sp, #44]	; 0x2c
  GPIO_InitStruct.Speed = GPIO_SPEED_FREQ_LOW;
 8000496:	940c      	str	r4, [sp, #48]	; 0x30
  HAL_GPIO_Init(GPIOC, &GPIO_InitStruct);
 8000498:	a909      	add	r1, sp, #36	; 0x24
 800049a:	4648      	mov	r0, r9
 800049c:	f001 f9c0 	bl	8001820 <HAL_GPIO_Init>

  /*Configure GPIO pin : PA1 */
  GPIO_InitStruct.Pin = GPIO_PIN_1;
 80004a0:	2302      	movs	r3, #2
 80004a2:	9309      	str	r3, [sp, #36]	; 0x24
  GPIO_InitStruct.Mode = GPIO_MODE_INPUT;
 80004a4:	940a      	str	r4, [sp, #40]	; 0x28
  GPIO_InitStruct.Pull = GPIO_PULLUP;
 80004a6:	960b      	str	r6, [sp, #44]	; 0x2c
  HAL_GPIO_Init(GPIOA, &GPIO_InitStruct);
 80004a8:	a909      	add	r1, sp, #36	; 0x24
 80004aa:	4640      	mov	r0, r8
 80004ac:	f001 f9b8 	bl	8001820 <HAL_GPIO_Init>

  /*Configure GPIO pin : PA2 */
  GPIO_InitStruct.Pin = GPIO_PIN_2;
 80004b0:	2304      	movs	r3, #4
 80004b2:	9309      	str	r3, [sp, #36]	; 0x24
  GPIO_InitStruct.Mode = GPIO_MODE_INPUT;
 80004b4:	940a      	str	r4, [sp, #40]	; 0x28
  GPIO_InitStruct.Pull = GPIO_NOPULL;
 80004b6:	940b      	str	r4, [sp, #44]	; 0x2c
  HAL_GPIO_Init(GPIOA, &GPIO_InitStruct);
 80004b8:	a909      	add	r1, sp, #36	; 0x24
 80004ba:	4640      	mov	r0, r8
 80004bc:	f001 f9b0 	bl	8001820 <HAL_GPIO_Init>

  /*Configure GPIO pin : PB12 */
  GPIO_InitStruct.Pin = GPIO_PIN_12;
 80004c0:	f44f 5380 	mov.w	r3, #4096	; 0x1000
 80004c4:	9309      	str	r3, [sp, #36]	; 0x24
  GPIO_InitStruct.Mode = GPIO_MODE_IT_RISING;
 80004c6:	f44f 1388 	mov.w	r3, #1114112	; 0x110000
 80004ca:	930a      	str	r3, [sp, #40]	; 0x28
  GPIO_InitStruct.Pull = GPIO_NOPULL;
 80004cc:	940b      	str	r4, [sp, #44]	; 0x2c
  HAL_GPIO_Init(GPIOB, &GPIO_InitStruct);
 80004ce:	a909      	add	r1, sp, #36	; 0x24
 80004d0:	4638      	mov	r0, r7
 80004d2:	f001 f9a5 	bl	8001820 <HAL_GPIO_Init>

  /*Configure GPIO pins : PB14 PB15 */
  GPIO_InitStruct.Pin = GPIO_PIN_14|GPIO_PIN_15;
 80004d6:	f44f 4340 	mov.w	r3, #49152	; 0xc000
 80004da:	9309      	str	r3, [sp, #36]	; 0x24
  GPIO_InitStruct.Mode = GPIO_MODE_INPUT;
 80004dc:	940a      	str	r4, [sp, #40]	; 0x28
  GPIO_InitStruct.Pull = GPIO_NOPULL;
 80004de:	940b      	str	r4, [sp, #44]	; 0x2c
  HAL_GPIO_Init(GPIOB, &GPIO_InitStruct);
 80004e0:	a909      	add	r1, sp, #36	; 0x24
 80004e2:	4638      	mov	r0, r7
 80004e4:	f001 f99c 	bl	8001820 <HAL_GPIO_Init>

  /* EXTI interrupt init*/
  HAL_NVIC_SetPriority(EXTI15_10_IRQn, 1, 0);
 80004e8:	4622      	mov	r2, r4
 80004ea:	4631      	mov	r1, r6
 80004ec:	2028      	movs	r0, #40	; 0x28
 80004ee:	f001 f91b 	bl	8001728 <HAL_NVIC_SetPriority>
  HAL_NVIC_EnableIRQ(EXTI15_10_IRQn);
 80004f2:	2028      	movs	r0, #40	; 0x28
 80004f4:	f001 f94e 	bl	8001794 <HAL_NVIC_EnableIRQ>

}
 80004f8:	b00f      	add	sp, #60	; 0x3c
 80004fa:	e8bd 83f0 	ldmia.w	sp!, {r4, r5, r6, r7, r8, r9, pc}
 80004fe:	bf00      	nop
 8000500:	58024400 	.word	0x58024400
 8000504:	58021000 	.word	0x58021000
 8000508:	58020400 	.word	0x58020400
 800050c:	58021800 	.word	0x58021800
 8000510:	58020c00 	.word	0x58020c00
 8000514:	58022000 	.word	0x58022000
 8000518:	58021c00 	.word	0x58021c00
 800051c:	58021400 	.word	0x58021400
 8000520:	58020800 	.word	0x58020800
 8000524:	58020000 	.word	0x58020000

08000528 <MX_I2C1_Init>:

I2C_HandleTypeDef hi2c1;

/* I2C1 init function */
void MX_I2C1_Init(void)
{
 8000528:	b508      	push	{r3, lr}
  /* USER CODE END I2C1_Init 0 */

  /* USER CODE BEGIN I2C1_Init 1 */

  /* USER CODE END I2C1_Init 1 */
  hi2c1.Instance = I2C1;
 800052a:	4815      	ldr	r0, [pc, #84]	; (8000580 <MX_I2C1_Init+0x58>)
 800052c:	4b15      	ldr	r3, [pc, #84]	; (8000584 <MX_I2C1_Init+0x5c>)
 800052e:	6003      	str	r3, [r0, #0]
  hi2c1.Init.Timing = 0x0050174F;
 8000530:	4b15      	ldr	r3, [pc, #84]	; (8000588 <MX_I2C1_Init+0x60>)
 8000532:	6043      	str	r3, [r0, #4]
  hi2c1.Init.OwnAddress1 = 0;
 8000534:	2300      	movs	r3, #0
 8000536:	6083      	str	r3, [r0, #8]
  hi2c1.Init.AddressingMode = I2C_ADDRESSINGMODE_7BIT;
 8000538:	2201      	movs	r2, #1
 800053a:	60c2      	str	r2, [r0, #12]
  hi2c1.Init.DualAddressMode = I2C_DUALADDRESS_DISABLE;
 800053c:	6103      	str	r3, [r0, #16]
  hi2c1.Init.OwnAddress2 = 0;
 800053e:	6143      	str	r3, [r0, #20]
  hi2c1.Init.OwnAddress2Masks = I2C_OA2_NOMASK;
 8000540:	6183      	str	r3, [r0, #24]
  hi2c1.Init.GeneralCallMode = I2C_GENERALCALL_ENABLE;
 8000542:	f44f 2200 	mov.w	r2, #524288	; 0x80000
 8000546:	61c2      	str	r2, [r0, #28]
  hi2c1.Init.NoStretchMode = I2C_NOSTRETCH_DISABLE;
 8000548:	6203      	str	r3, [r0, #32]
  if (HAL_I2C_Init(&hi2c1) != HAL_OK)
 800054a:	f001 fcf5 	bl	8001f38 <HAL_I2C_Init>
 800054e:	b968      	cbnz	r0, 800056c <MX_I2C1_Init+0x44>
    Error_Handler();
  }

  /** Configure Analogue filter
  */
  if (HAL_I2CEx_ConfigAnalogFilter(&hi2c1, I2C_ANALOGFILTER_ENABLE) != HAL_OK)
 8000550:	2100      	movs	r1, #0
 8000552:	480b      	ldr	r0, [pc, #44]	; (8000580 <MX_I2C1_Init+0x58>)
 8000554:	f001 fee8 	bl	8002328 <HAL_I2CEx_ConfigAnalogFilter>
 8000558:	b958      	cbnz	r0, 8000572 <MX_I2C1_Init+0x4a>
    Error_Handler();
  }

  /** Configure Digital filter
  */
  if (HAL_I2CEx_ConfigDigitalFilter(&hi2c1, 0) != HAL_OK)
 800055a:	2100      	movs	r1, #0
 800055c:	4808      	ldr	r0, [pc, #32]	; (8000580 <MX_I2C1_Init+0x58>)
 800055e:	f001 ff11 	bl	8002384 <HAL_I2CEx_ConfigDigitalFilter>
 8000562:	b948      	cbnz	r0, 8000578 <MX_I2C1_Init+0x50>
    Error_Handler();
  }

  /** I2C Enable Fast Mode Plus
  */
  HAL_I2CEx_EnableFastModePlus(I2C_FASTMODEPLUS_I2C1);
 8000564:	2001      	movs	r0, #1
 8000566:	f001 ff39 	bl	80023dc <HAL_I2CEx_EnableFastModePlus>
  /* USER CODE BEGIN I2C1_Init 2 */

  /* USER CODE END I2C1_Init 2 */

}
 800056a:	bd08      	pop	{r3, pc}
    Error_Handler();
 800056c:	f000 fc0e 	bl	8000d8c <Error_Handler>
 8000570:	e7ee      	b.n	8000550 <MX_I2C1_Init+0x28>
    Error_Handler();
 8000572:	f000 fc0b 	bl	8000d8c <Error_Handler>
 8000576:	e7f0      	b.n	800055a <MX_I2C1_Init+0x32>
    Error_Handler();
 8000578:	f000 fc08 	bl	8000d8c <Error_Handler>
 800057c:	e7f2      	b.n	8000564 <MX_I2C1_Init+0x3c>
 800057e:	bf00      	nop
 8000580:	20000034 	.word	0x20000034
 8000584:	40005400 	.word	0x40005400
 8000588:	0050174f 	.word	0x0050174f

0800058c <HAL_I2C_MspInit>:

void HAL_I2C_MspInit(I2C_HandleTypeDef* i2cHandle)
{
 800058c:	b510      	push	{r4, lr}
 800058e:	b0b8      	sub	sp, #224	; 0xe0
 8000590:	4604      	mov	r4, r0

  GPIO_InitTypeDef GPIO_InitStruct = {0};
 8000592:	2100      	movs	r1, #0
 8000594:	9133      	str	r1, [sp, #204]	; 0xcc
 8000596:	9134      	str	r1, [sp, #208]	; 0xd0
 8000598:	9135      	str	r1, [sp, #212]	; 0xd4
 800059a:	9136      	str	r1, [sp, #216]	; 0xd8
 800059c:	9137      	str	r1, [sp, #220]	; 0xdc
  RCC_PeriphCLKInitTypeDef PeriphClkInitStruct = {0};
 800059e:	22c0      	movs	r2, #192	; 0xc0
 80005a0:	a802      	add	r0, sp, #8
 80005a2:	f008 fa77 	bl	8008a94 <memset>
  if(i2cHandle->Instance==I2C1)
 80005a6:	6822      	ldr	r2, [r4, #0]
 80005a8:	4b1c      	ldr	r3, [pc, #112]	; (800061c <HAL_I2C_MspInit+0x90>)
 80005aa:	429a      	cmp	r2, r3
 80005ac:	d001      	beq.n	80005b2 <HAL_I2C_MspInit+0x26>
    __HAL_RCC_I2C1_CLK_ENABLE();
  /* USER CODE BEGIN I2C1_MspInit 1 */

  /* USER CODE END I2C1_MspInit 1 */
  }
}
 80005ae:	b038      	add	sp, #224	; 0xe0
 80005b0:	bd10      	pop	{r4, pc}
    PeriphClkInitStruct.PeriphClockSelection = RCC_PERIPHCLK_I2C1;
 80005b2:	2208      	movs	r2, #8
 80005b4:	2300      	movs	r3, #0
 80005b6:	e9cd 2302 	strd	r2, r3, [sp, #8]
    if (HAL_RCCEx_PeriphCLKConfig(&PeriphClkInitStruct) != HAL_OK)
 80005ba:	a802      	add	r0, sp, #8
 80005bc:	f003 f9f0 	bl	80039a0 <HAL_RCCEx_PeriphCLKConfig>
 80005c0:	bb40      	cbnz	r0, 8000614 <HAL_I2C_MspInit+0x88>
    __HAL_RCC_GPIOB_CLK_ENABLE();
 80005c2:	4c17      	ldr	r4, [pc, #92]	; (8000620 <HAL_I2C_MspInit+0x94>)
 80005c4:	f8d4 30e0 	ldr.w	r3, [r4, #224]	; 0xe0
 80005c8:	f043 0302 	orr.w	r3, r3, #2
 80005cc:	f8c4 30e0 	str.w	r3, [r4, #224]	; 0xe0
 80005d0:	f8d4 30e0 	ldr.w	r3, [r4, #224]	; 0xe0
 80005d4:	f003 0302 	and.w	r3, r3, #2
 80005d8:	9300      	str	r3, [sp, #0]
 80005da:	9b00      	ldr	r3, [sp, #0]
    GPIO_InitStruct.Pin = GPIO_PIN_8|GPIO_PIN_9;
 80005dc:	f44f 7340 	mov.w	r3, #768	; 0x300
 80005e0:	9333      	str	r3, [sp, #204]	; 0xcc
    GPIO_InitStruct.Mode = GPIO_MODE_AF_OD;
 80005e2:	2312      	movs	r3, #18
 80005e4:	9334      	str	r3, [sp, #208]	; 0xd0
    GPIO_InitStruct.Pull = GPIO_NOPULL;
 80005e6:	2300      	movs	r3, #0
 80005e8:	9335      	str	r3, [sp, #212]	; 0xd4
    GPIO_InitStruct.Speed = GPIO_SPEED_FREQ_MEDIUM;
 80005ea:	2301      	movs	r3, #1
 80005ec:	9336      	str	r3, [sp, #216]	; 0xd8
    GPIO_InitStruct.Alternate = GPIO_AF4_I2C1;
 80005ee:	2304      	movs	r3, #4
 80005f0:	9337      	str	r3, [sp, #220]	; 0xdc
    HAL_GPIO_Init(GPIOB, &GPIO_InitStruct);
 80005f2:	a933      	add	r1, sp, #204	; 0xcc
 80005f4:	480b      	ldr	r0, [pc, #44]	; (8000624 <HAL_I2C_MspInit+0x98>)
 80005f6:	f001 f913 	bl	8001820 <HAL_GPIO_Init>
    __HAL_RCC_I2C1_CLK_ENABLE();
 80005fa:	f8d4 30e8 	ldr.w	r3, [r4, #232]	; 0xe8
 80005fe:	f443 1300 	orr.w	r3, r3, #2097152	; 0x200000
 8000602:	f8c4 30e8 	str.w	r3, [r4, #232]	; 0xe8
 8000606:	f8d4 30e8 	ldr.w	r3, [r4, #232]	; 0xe8
 800060a:	f403 1300 	and.w	r3, r3, #2097152	; 0x200000
 800060e:	9301      	str	r3, [sp, #4]
 8000610:	9b01      	ldr	r3, [sp, #4]
}
 8000612:	e7cc      	b.n	80005ae <HAL_I2C_MspInit+0x22>
      Error_Handler();
 8000614:	f000 fbba 	bl	8000d8c <Error_Handler>
 8000618:	e7d3      	b.n	80005c2 <HAL_I2C_MspInit+0x36>
 800061a:	bf00      	nop
 800061c:	40005400 	.word	0x40005400
 8000620:	58024400 	.word	0x58024400
 8000624:	58020400 	.word	0x58020400

08000628 <HAL_I2C_MspDeInit>:

void HAL_I2C_MspDeInit(I2C_HandleTypeDef* i2cHandle)
{

  if(i2cHandle->Instance==I2C1)
 8000628:	6802      	ldr	r2, [r0, #0]
 800062a:	4b0c      	ldr	r3, [pc, #48]	; (800065c <HAL_I2C_MspDeInit+0x34>)
 800062c:	429a      	cmp	r2, r3
 800062e:	d000      	beq.n	8000632 <HAL_I2C_MspDeInit+0xa>
 8000630:	4770      	bx	lr
{
 8000632:	b510      	push	{r4, lr}
  {
  /* USER CODE BEGIN I2C1_MspDeInit 0 */

  /* USER CODE END I2C1_MspDeInit 0 */
    /* Peripheral clock disable */
    __HAL_RCC_I2C1_CLK_DISABLE();
 8000634:	4a0a      	ldr	r2, [pc, #40]	; (8000660 <HAL_I2C_MspDeInit+0x38>)
 8000636:	f8d2 30e8 	ldr.w	r3, [r2, #232]	; 0xe8
 800063a:	f423 1300 	bic.w	r3, r3, #2097152	; 0x200000
 800063e:	f8c2 30e8 	str.w	r3, [r2, #232]	; 0xe8

    /**I2C1 GPIO Configuration
    PB8     ------> I2C1_SCL
    PB9     ------> I2C1_SDA
    */
    HAL_GPIO_DeInit(GPIOB, GPIO_PIN_8);
 8000642:	4c08      	ldr	r4, [pc, #32]	; (8000664 <HAL_I2C_MspDeInit+0x3c>)
 8000644:	f44f 7180 	mov.w	r1, #256	; 0x100
 8000648:	4620      	mov	r0, r4
 800064a:	f001 f9f9 	bl	8001a40 <HAL_GPIO_DeInit>

    HAL_GPIO_DeInit(GPIOB, GPIO_PIN_9);
 800064e:	f44f 7100 	mov.w	r1, #512	; 0x200
 8000652:	4620      	mov	r0, r4
 8000654:	f001 f9f4 	bl	8001a40 <HAL_GPIO_DeInit>

  /* USER CODE BEGIN I2C1_MspDeInit 1 */

  /* USER CODE END I2C1_MspDeInit 1 */
  }
}
 8000658:	bd10      	pop	{r4, pc}
 800065a:	bf00      	nop
 800065c:	40005400 	.word	0x40005400
 8000660:	58024400 	.word	0x58024400
 8000664:	58020400 	.word	0x58020400

08000668 <BSP_SD_IsDetected>:
	}
}


uint8_t BSP_SD_IsDetected(void)
{
 8000668:	b082      	sub	sp, #8
  __IO uint8_t status = SD_PRESENT;
 800066a:	2301      	movs	r3, #1
 800066c:	f88d 3007 	strb.w	r3, [sp, #7]
  //if (BSP_PlatformIsDetected() == 0x0)
  {
    //status = SD_NOT_PRESENT;
  }

  return status;
 8000670:	f89d 0007 	ldrb.w	r0, [sp, #7]
}
 8000674:	b002      	add	sp, #8
 8000676:	4770      	bx	lr

08000678 <qspi_error>:

/* USER CODE BEGIN 4 */


void qspi_error(void)
{
 8000678:	b508      	push	{r3, lr}
	HAL_GPIO_WritePin(GPIOC, GPIO_PIN_7, GPIO_PIN_SET);
 800067a:	2201      	movs	r2, #1
 800067c:	2180      	movs	r1, #128	; 0x80
 800067e:	4802      	ldr	r0, [pc, #8]	; (8000688 <qspi_error+0x10>)
 8000680:	f001 fa8d 	bl	8001b9e <HAL_GPIO_WritePin>
}
 8000684:	bd08      	pop	{r3, pc}
 8000686:	bf00      	nop
 8000688:	58020800 	.word	0x58020800

0800068c <AutopollingMemReady>:

int AutopollingMemReady(int timeout)
{
 800068c:	b500      	push	{lr}
 800068e:	b095      	sub	sp, #84	; 0x54
 8000690:	4603      	mov	r3, r0
	 int ok = 0;
	QSPI_CommandTypeDef     s_command;
	    QSPI_AutoPollingTypeDef s_config;

	    /* Configure automatic polling mode to wait for memory ready */
	    s_command.InstructionMode   = QSPI_INSTRUCTION_1_LINE;
 8000692:	f44f 7280 	mov.w	r2, #256	; 0x100
 8000696:	920c      	str	r2, [sp, #48]	; 0x30
	    s_command.Instruction       = READ_STATUS_REG_CMD;
 8000698:	2205      	movs	r2, #5
 800069a:	9206      	str	r2, [sp, #24]
	    s_command.AddressMode       = QSPI_ADDRESS_NONE;
 800069c:	2200      	movs	r2, #0
 800069e:	920d      	str	r2, [sp, #52]	; 0x34
	    s_command.AlternateByteMode = QSPI_ALTERNATE_BYTES_NONE;
 80006a0:	920e      	str	r2, [sp, #56]	; 0x38
	    s_command.DataMode          = QSPI_DATA_1_LINE;
 80006a2:	f04f 7180 	mov.w	r1, #16777216	; 0x1000000
 80006a6:	910f      	str	r1, [sp, #60]	; 0x3c
	    s_command.DummyCycles       = 0;
 80006a8:	920b      	str	r2, [sp, #44]	; 0x2c
	    s_command.DdrMode           = QSPI_DDR_MODE_DISABLE;
 80006aa:	9211      	str	r2, [sp, #68]	; 0x44
	    s_command.DdrHoldHalfCycle  = QSPI_DDR_HHC_ANALOG_DELAY;
 80006ac:	9212      	str	r2, [sp, #72]	; 0x48
	    s_command.SIOOMode          = QSPI_SIOO_INST_EVERY_CMD;
 80006ae:	9213      	str	r2, [sp, #76]	; 0x4c

	    s_config.Match         = 0;
 80006b0:	9200      	str	r2, [sp, #0]
	    s_config.MatchMode     = QSPI_MATCH_MODE_AND;
 80006b2:	9204      	str	r2, [sp, #16]
	    s_config.Interval      = 0x10;
 80006b4:	2210      	movs	r2, #16
 80006b6:	9202      	str	r2, [sp, #8]
	    s_config.AutomaticStop = QSPI_AUTOMATIC_STOP_ENABLE;
 80006b8:	f44f 0280 	mov.w	r2, #4194304	; 0x400000
 80006bc:	9205      	str	r2, [sp, #20]
	    s_config.Mask          = IS25LP064A_SR_WIP;
 80006be:	2201      	movs	r2, #1
 80006c0:	9201      	str	r2, [sp, #4]
	    //s_config.Mask            = 0;
	    s_config.StatusBytesSize = 1;
 80006c2:	9203      	str	r2, [sp, #12]

	    if(HAL_QSPI_AutoPolling(&hqspi, &s_command, &s_config, timeout)
 80006c4:	466a      	mov	r2, sp
 80006c6:	a906      	add	r1, sp, #24
 80006c8:	4805      	ldr	r0, [pc, #20]	; (80006e0 <AutopollingMemReady+0x54>)
 80006ca:	f002 f8a7 	bl	800281c <HAL_QSPI_AutoPolling>
 80006ce:	b918      	cbnz	r0, 80006d8 <AutopollingMemReady+0x4c>
	    }

	    ok= 1;
	    return ok;

}
 80006d0:	2001      	movs	r0, #1
 80006d2:	b015      	add	sp, #84	; 0x54
 80006d4:	f85d fb04 	ldr.w	pc, [sp], #4
	    	qspi_error();
 80006d8:	f7ff ffce 	bl	8000678 <qspi_error>
 80006dc:	e7f8      	b.n	80006d0 <AutopollingMemReady+0x44>
 80006de:	bf00      	nop
 80006e0:	200001e8 	.word	0x200001e8

080006e4 <qspi_WriteEnable>:

int qspi_WriteEnable()
{
 80006e4:	b500      	push	{lr}
 80006e6:	b095      	sub	sp, #84	; 0x54
	 int ok = 0;
	QSPI_CommandTypeDef     s_command;
	    QSPI_AutoPollingTypeDef s_config;

	    /* Enable write operations */
	    s_command.InstructionMode   = QSPI_INSTRUCTION_1_LINE;
 80006e8:	f44f 7380 	mov.w	r3, #256	; 0x100
 80006ec:	930c      	str	r3, [sp, #48]	; 0x30
	    s_command.Instruction       = WRITE_ENABLE_CMD;
 80006ee:	2306      	movs	r3, #6
 80006f0:	9306      	str	r3, [sp, #24]
	    s_command.AddressMode       = QSPI_ADDRESS_NONE;
 80006f2:	2300      	movs	r3, #0
 80006f4:	930d      	str	r3, [sp, #52]	; 0x34
	    s_command.AlternateByteMode = QSPI_ALTERNATE_BYTES_NONE;
 80006f6:	930e      	str	r3, [sp, #56]	; 0x38
	    s_command.DataMode          = QSPI_DATA_NONE;
 80006f8:	930f      	str	r3, [sp, #60]	; 0x3c
	    s_command.DummyCycles       = 0;
 80006fa:	930b      	str	r3, [sp, #44]	; 0x2c
	    s_command.DdrMode           = QSPI_DDR_MODE_DISABLE;
 80006fc:	9311      	str	r3, [sp, #68]	; 0x44
	    s_command.DdrHoldHalfCycle  = QSPI_DDR_HHC_ANALOG_DELAY;
 80006fe:	9312      	str	r3, [sp, #72]	; 0x48
	    s_command.SIOOMode          = QSPI_SIOO_INST_EVERY_CMD;
 8000700:	9313      	str	r3, [sp, #76]	; 0x4c

	    //RETURN_IF_ERR(CheckProgramMemory());

	    if(HAL_QSPI_Command(&hqspi, &s_command, HAL_QPSI_TIMEOUT_DEFAULT_VALUE)
 8000702:	f241 3288 	movw	r2, #5000	; 0x1388
 8000706:	a906      	add	r1, sp, #24
 8000708:	4813      	ldr	r0, [pc, #76]	; (8000758 <qspi_WriteEnable+0x74>)
 800070a:	f001 ffcf 	bl	80026ac <HAL_QSPI_Command>
 800070e:	b9e0      	cbnz	r0, 800074a <qspi_WriteEnable+0x66>
	    }

	    /* Configure automatic polling mode to wait for write enabling */
	    //        s_config.Match           = IS25LP080D_SR_WREN | (IS25LP080D_SR_WREN << 8);
	    //        s_config.Mask            = IS25LP080D_SR_WREN | (IS25LP080D_SR_WREN << 8);
	    s_config.MatchMode       = QSPI_MATCH_MODE_AND;
 8000710:	2300      	movs	r3, #0
 8000712:	9304      	str	r3, [sp, #16]
	    s_config.Match           = IS25LP064A_SR_WREN;
 8000714:	2302      	movs	r3, #2
 8000716:	9300      	str	r3, [sp, #0]
	    s_config.Mask            = IS25LP064A_SR_WREN;
 8000718:	9301      	str	r3, [sp, #4]
	    s_config.Interval        = 0x10;
 800071a:	2310      	movs	r3, #16
 800071c:	9302      	str	r3, [sp, #8]
	    s_config.StatusBytesSize = 1;
 800071e:	2301      	movs	r3, #1
 8000720:	9303      	str	r3, [sp, #12]
	    s_config.AutomaticStop   = QSPI_AUTOMATIC_STOP_ENABLE;
 8000722:	f44f 0380 	mov.w	r3, #4194304	; 0x400000
 8000726:	9305      	str	r3, [sp, #20]

	    s_command.Instruction = READ_STATUS_REG_CMD;
 8000728:	2305      	movs	r3, #5
 800072a:	9306      	str	r3, [sp, #24]
	    s_command.DataMode    = QSPI_DATA_1_LINE;
 800072c:	f04f 7380 	mov.w	r3, #16777216	; 0x1000000
 8000730:	930f      	str	r3, [sp, #60]	; 0x3c

	    if(HAL_QSPI_AutoPolling(
 8000732:	f241 3388 	movw	r3, #5000	; 0x1388
 8000736:	466a      	mov	r2, sp
 8000738:	a906      	add	r1, sp, #24
 800073a:	4807      	ldr	r0, [pc, #28]	; (8000758 <qspi_WriteEnable+0x74>)
 800073c:	f002 f86e 	bl	800281c <HAL_QSPI_AutoPolling>
 8000740:	b930      	cbnz	r0, 8000750 <qspi_WriteEnable+0x6c>
	    }

	    ok= 1;
	    return ok;

}
 8000742:	2001      	movs	r0, #1
 8000744:	b015      	add	sp, #84	; 0x54
 8000746:	f85d fb04 	ldr.w	pc, [sp], #4
	    	qspi_error();
 800074a:	f7ff ff95 	bl	8000678 <qspi_error>
 800074e:	e7df      	b.n	8000710 <qspi_WriteEnable+0x2c>
	    	qspi_error();
 8000750:	f7ff ff92 	bl	8000678 <qspi_error>
 8000754:	e7f5      	b.n	8000742 <qspi_WriteEnable+0x5e>
 8000756:	bf00      	nop
 8000758:	200001e8 	.word	0x200001e8

0800075c <qspi_reset_memory>:

void qspi_reset_memory(void)
{
 800075c:	b500      	push	{lr}
 800075e:	b08f      	sub	sp, #60	; 0x3c
	//reset memory
		QSPI_CommandTypeDef s_command;

		    /* Initialize the reset enable command */
		    s_command.InstructionMode   = QSPI_INSTRUCTION_1_LINE;
 8000760:	f44f 7380 	mov.w	r3, #256	; 0x100
 8000764:	9306      	str	r3, [sp, #24]
		    s_command.Instruction       = RESET_ENABLE_CMD;
 8000766:	2366      	movs	r3, #102	; 0x66
 8000768:	9300      	str	r3, [sp, #0]
		    s_command.AddressMode       = QSPI_ADDRESS_NONE;
 800076a:	2300      	movs	r3, #0
 800076c:	9307      	str	r3, [sp, #28]
		    s_command.AlternateByteMode = QSPI_ALTERNATE_BYTES_NONE;
 800076e:	9308      	str	r3, [sp, #32]
		    s_command.DataMode          = QSPI_DATA_NONE;
 8000770:	9309      	str	r3, [sp, #36]	; 0x24
		    s_command.DummyCycles       = 0;
 8000772:	9305      	str	r3, [sp, #20]
		    s_command.DdrMode           = QSPI_DDR_MODE_DISABLE;
 8000774:	930b      	str	r3, [sp, #44]	; 0x2c
		    s_command.DdrHoldHalfCycle  = QSPI_DDR_HHC_ANALOG_DELAY;
 8000776:	930c      	str	r3, [sp, #48]	; 0x30
		    s_command.SIOOMode          = QSPI_SIOO_INST_EVERY_CMD;
 8000778:	930d      	str	r3, [sp, #52]	; 0x34

		    /* Send the command */
		    if(HAL_QSPI_Command(&hqspi, &s_command, HAL_QPSI_TIMEOUT_DEFAULT_VALUE)
 800077a:	f241 3288 	movw	r2, #5000	; 0x1388
 800077e:	4669      	mov	r1, sp
 8000780:	480f      	ldr	r0, [pc, #60]	; (80007c0 <qspi_reset_memory+0x64>)
 8000782:	f001 ff93 	bl	80026ac <HAL_QSPI_Command>
 8000786:	b988      	cbnz	r0, 80007ac <qspi_reset_memory+0x50>
		    {
		    	qspi_error();
		    }

		    /* Send the reset memory command */
		    s_command.Instruction = RESET_MEMORY_CMD;
 8000788:	2399      	movs	r3, #153	; 0x99
 800078a:	9300      	str	r3, [sp, #0]
		    if(HAL_QSPI_Command(&hqspi, &s_command, HAL_QPSI_TIMEOUT_DEFAULT_VALUE)
 800078c:	f241 3288 	movw	r2, #5000	; 0x1388
 8000790:	4669      	mov	r1, sp
 8000792:	480b      	ldr	r0, [pc, #44]	; (80007c0 <qspi_reset_memory+0x64>)
 8000794:	f001 ff8a 	bl	80026ac <HAL_QSPI_Command>
 8000798:	b958      	cbnz	r0, 80007b2 <qspi_reset_memory+0x56>
		    	qspi_error();
		    }


		    /* Configure automatic polling mode to wait the memory is ready */
		    if(AutopollingMemReady(HAL_QPSI_TIMEOUT_DEFAULT_VALUE)
 800079a:	f241 3088 	movw	r0, #5000	; 0x1388
 800079e:	f7ff ff75 	bl	800068c <AutopollingMemReady>
 80007a2:	2801      	cmp	r0, #1
 80007a4:	d108      	bne.n	80007b8 <qspi_reset_memory+0x5c>
		       != 1)
		    {
		    	qspi_error();
		    }

}
 80007a6:	b00f      	add	sp, #60	; 0x3c
 80007a8:	f85d fb04 	ldr.w	pc, [sp], #4
		    	qspi_error();
 80007ac:	f7ff ff64 	bl	8000678 <qspi_error>
 80007b0:	e7ea      	b.n	8000788 <qspi_reset_memory+0x2c>
		    	qspi_error();
 80007b2:	f7ff ff61 	bl	8000678 <qspi_error>
 80007b6:	e7f0      	b.n	800079a <qspi_reset_memory+0x3e>
		    	qspi_error();
 80007b8:	f7ff ff5e 	bl	8000678 <qspi_error>
}
 80007bc:	e7f3      	b.n	80007a6 <qspi_reset_memory+0x4a>
 80007be:	bf00      	nop
 80007c0:	200001e8 	.word	0x200001e8

080007c4 <qspi_dummy_cycles_config>:

void qspi_dummy_cycles_config()
{
 80007c4:	b500      	push	{lr}
 80007c6:	b091      	sub	sp, #68	; 0x44
	 QSPI_CommandTypeDef s_command;
	    uint16_t            reg     = 0;
 80007c8:	2300      	movs	r3, #0
 80007ca:	f8ad 3006 	strh.w	r3, [sp, #6]
	    s_command.InstructionMode   = QSPI_INSTRUCTION_1_LINE;
 80007ce:	f44f 7280 	mov.w	r2, #256	; 0x100
 80007d2:	9208      	str	r2, [sp, #32]
	    s_command.AddressMode       = QSPI_ADDRESS_NONE;
 80007d4:	9309      	str	r3, [sp, #36]	; 0x24
	    s_command.AlternateByteMode = QSPI_ALTERNATE_BYTES_NONE;
 80007d6:	930a      	str	r3, [sp, #40]	; 0x28
	    s_command.DataMode          = QSPI_DATA_1_LINE;
 80007d8:	f04f 7280 	mov.w	r2, #16777216	; 0x1000000
 80007dc:	920b      	str	r2, [sp, #44]	; 0x2c
	    s_command.DummyCycles       = 0;
 80007de:	9307      	str	r3, [sp, #28]
	    s_command.NbData            = 1;
 80007e0:	2201      	movs	r2, #1
 80007e2:	920c      	str	r2, [sp, #48]	; 0x30
	    s_command.DdrMode           = QSPI_DDR_MODE_DISABLE;
 80007e4:	930d      	str	r3, [sp, #52]	; 0x34
	    s_command.DdrHoldHalfCycle  = QSPI_DDR_HHC_ANALOG_DELAY;
 80007e6:	930e      	str	r3, [sp, #56]	; 0x38
	    s_command.SIOOMode          = QSPI_SIOO_INST_EVERY_CMD;
 80007e8:	930f      	str	r3, [sp, #60]	; 0x3c
	           // Dummy Cycles: (Config 3, bits 1 0)
	           // Drive Strength (50%, bits 1 1 1)
	           // Byte to write: 0b11110000 (0xF0)
	           // TODO: Probably expand Burst to maximum if that works out.

	           reg = 0xF0;
 80007ea:	23f0      	movs	r3, #240	; 0xf0
 80007ec:	f8ad 3006 	strh.w	r3, [sp, #6]
	           /* Update volatile configuration register (with new dummy cycles) */
	             s_command.Instruction = WRITE_READ_PARAM_REG_CMD;
 80007f0:	23c0      	movs	r3, #192	; 0xc0
 80007f2:	9302      	str	r3, [sp, #8]
	             /* Configure the write volatile configuration register command */
	             if(HAL_QSPI_Command(&hqspi, &s_command, HAL_QPSI_TIMEOUT_DEFAULT_VALUE)
 80007f4:	f241 3288 	movw	r2, #5000	; 0x1388
 80007f8:	a902      	add	r1, sp, #8
 80007fa:	480f      	ldr	r0, [pc, #60]	; (8000838 <qspi_dummy_cycles_config+0x74>)
 80007fc:	f001 ff56 	bl	80026ac <HAL_QSPI_Command>
 8000800:	b980      	cbnz	r0, 8000824 <qspi_dummy_cycles_config+0x60>
	             {
	            	 qspi_error();
	             }

	             /* Transmission of the data */
	             if(HAL_QSPI_Transmit(
 8000802:	f241 3288 	movw	r2, #5000	; 0x1388
 8000806:	f10d 0106 	add.w	r1, sp, #6
 800080a:	480b      	ldr	r0, [pc, #44]	; (8000838 <qspi_dummy_cycles_config+0x74>)
 800080c:	f001 ff9d 	bl	800274a <HAL_QSPI_Transmit>
 8000810:	b958      	cbnz	r0, 800082a <qspi_dummy_cycles_config+0x66>
	             {
	            	 qspi_error();
	             }

	             /* Configure automatic polling mode to wait the memory is ready */
	             if(AutopollingMemReady(HAL_QPSI_TIMEOUT_DEFAULT_VALUE)
 8000812:	f241 3088 	movw	r0, #5000	; 0x1388
 8000816:	f7ff ff39 	bl	800068c <AutopollingMemReady>
 800081a:	2801      	cmp	r0, #1
 800081c:	d108      	bne.n	8000830 <qspi_dummy_cycles_config+0x6c>
	                != 1)
	             {
	            	 qspi_error();
	             }
}
 800081e:	b011      	add	sp, #68	; 0x44
 8000820:	f85d fb04 	ldr.w	pc, [sp], #4
	            	 qspi_error();
 8000824:	f7ff ff28 	bl	8000678 <qspi_error>
 8000828:	e7eb      	b.n	8000802 <qspi_dummy_cycles_config+0x3e>
	            	 qspi_error();
 800082a:	f7ff ff25 	bl	8000678 <qspi_error>
 800082e:	e7f0      	b.n	8000812 <qspi_dummy_cycles_config+0x4e>
	            	 qspi_error();
 8000830:	f7ff ff22 	bl	8000678 <qspi_error>
}
 8000834:	e7f3      	b.n	800081e <qspi_dummy_cycles_config+0x5a>
 8000836:	bf00      	nop
 8000838:	200001e8 	.word	0x200001e8

0800083c <qspi_quad_enable>:

void qspi_quad_enable()
{
 800083c:	b500      	push	{lr}
 800083e:	b097      	sub	sp, #92	; 0x5c
	 QSPI_CommandTypeDef     s_command;
	    QSPI_AutoPollingTypeDef s_config;
	    uint8_t                 reg = 0;
 8000840:	2300      	movs	r3, #0
 8000842:	f88d 3007 	strb.w	r3, [sp, #7]

	    /* Enable write operations */
	    s_command.InstructionMode   = QSPI_INSTRUCTION_1_LINE;
 8000846:	f44f 7280 	mov.w	r2, #256	; 0x100
 800084a:	920e      	str	r2, [sp, #56]	; 0x38
	    s_command.Instruction       = WRITE_STATUS_REG_CMD;
 800084c:	2201      	movs	r2, #1
 800084e:	9208      	str	r2, [sp, #32]
	    s_command.AddressMode       = QSPI_ADDRESS_NONE;
 8000850:	930f      	str	r3, [sp, #60]	; 0x3c
	    s_command.AlternateByteMode = QSPI_ALTERNATE_BYTES_NONE;
 8000852:	9310      	str	r3, [sp, #64]	; 0x40
	    s_command.DataMode          = QSPI_DATA_1_LINE;
 8000854:	f04f 7180 	mov.w	r1, #16777216	; 0x1000000
 8000858:	9111      	str	r1, [sp, #68]	; 0x44
	    s_command.DummyCycles       = 0;
 800085a:	930d      	str	r3, [sp, #52]	; 0x34
	    s_command.NbData            = 1;
 800085c:	9212      	str	r2, [sp, #72]	; 0x48
	    s_command.DdrMode           = QSPI_DDR_MODE_DISABLE;
 800085e:	9313      	str	r3, [sp, #76]	; 0x4c
	    s_command.DdrHoldHalfCycle  = QSPI_DDR_HHC_ANALOG_DELAY;
 8000860:	9314      	str	r3, [sp, #80]	; 0x50
	    s_command.SIOOMode          = QSPI_SIOO_INST_EVERY_CMD;
 8000862:	9315      	str	r3, [sp, #84]	; 0x54

	    /* Enable write operations */
	    if(qspi_WriteEnable() != 1)
 8000864:	f7ff ff3e 	bl	80006e4 <qspi_WriteEnable>
 8000868:	2801      	cmp	r0, #1
 800086a:	d133      	bne.n	80008d4 <qspi_quad_enable+0x98>
	    {
	    	qspi_error();
	    }

	    if(HAL_QSPI_Command(&hqspi, &s_command, HAL_QPSI_TIMEOUT_DEFAULT_VALUE)
 800086c:	f241 3288 	movw	r2, #5000	; 0x1388
 8000870:	a908      	add	r1, sp, #32
 8000872:	4820      	ldr	r0, [pc, #128]	; (80008f4 <qspi_quad_enable+0xb8>)
 8000874:	f001 ff1a 	bl	80026ac <HAL_QSPI_Command>
 8000878:	bb78      	cbnz	r0, 80008da <qspi_quad_enable+0x9e>

	    //    reg = 0;
	    //    MODIFY_REG(reg,
	    //        0xF0,
	    //        (IS25LP08D_SR_QE));
	    reg = IS25LP064A_SR_QE; // Set QE bit  to 1
 800087a:	2340      	movs	r3, #64	; 0x40
 800087c:	f88d 3007 	strb.w	r3, [sp, #7]
	    /* Transmission of the data */
	    if(HAL_QSPI_Transmit(
 8000880:	f241 3288 	movw	r2, #5000	; 0x1388
 8000884:	f10d 0107 	add.w	r1, sp, #7
 8000888:	481a      	ldr	r0, [pc, #104]	; (80008f4 <qspi_quad_enable+0xb8>)
 800088a:	f001 ff5e 	bl	800274a <HAL_QSPI_Transmit>
 800088e:	bb38      	cbnz	r0, 80008e0 <qspi_quad_enable+0xa4>
	    /* Configure automatic polling mode to wait for write enabling */
	    //    s_config.Match           = IS25LP08D_SR_WREN | (IS25LP08D_SR_WREN << 8);
	    //    s_config.Mask            = IS25LP08D_SR_WREN | (IS25LP08D_SR_WREN << 8);
	    //    s_config.MatchMode       = QSPI_MATCH_MODE_AND;
	    //    s_config.StatusBytesSize = 2;
	    s_config.Match           = IS25LP064A_SR_QE;
 8000890:	2340      	movs	r3, #64	; 0x40
 8000892:	9302      	str	r3, [sp, #8]
	    s_config.Mask            = IS25LP064A_SR_QE;
 8000894:	9303      	str	r3, [sp, #12]
	    s_config.MatchMode       = QSPI_MATCH_MODE_AND;
 8000896:	2300      	movs	r3, #0
 8000898:	9306      	str	r3, [sp, #24]
	    s_config.StatusBytesSize = 1;
 800089a:	2301      	movs	r3, #1
 800089c:	9305      	str	r3, [sp, #20]

	    s_config.Interval      = 0x10;
 800089e:	2310      	movs	r3, #16
 80008a0:	9304      	str	r3, [sp, #16]
	    s_config.AutomaticStop = QSPI_AUTOMATIC_STOP_ENABLE;
 80008a2:	f44f 0380 	mov.w	r3, #4194304	; 0x400000
 80008a6:	9307      	str	r3, [sp, #28]

	    s_command.Instruction = READ_STATUS_REG_CMD;
 80008a8:	2305      	movs	r3, #5
 80008aa:	9308      	str	r3, [sp, #32]
	    s_command.DataMode    = QSPI_DATA_1_LINE;
 80008ac:	f04f 7380 	mov.w	r3, #16777216	; 0x1000000
 80008b0:	9311      	str	r3, [sp, #68]	; 0x44

	    if(HAL_QSPI_AutoPolling(
 80008b2:	f241 3388 	movw	r3, #5000	; 0x1388
 80008b6:	aa02      	add	r2, sp, #8
 80008b8:	a908      	add	r1, sp, #32
 80008ba:	480e      	ldr	r0, [pc, #56]	; (80008f4 <qspi_quad_enable+0xb8>)
 80008bc:	f001 ffae 	bl	800281c <HAL_QSPI_AutoPolling>
 80008c0:	b988      	cbnz	r0, 80008e6 <qspi_quad_enable+0xaa>
	    {
	    	qspi_error();
	    }

	    /* Configure automatic polling mode to wait the memory is ready */
	    if(AutopollingMemReady(HAL_QPSI_TIMEOUT_DEFAULT_VALUE)
 80008c2:	f241 3088 	movw	r0, #5000	; 0x1388
 80008c6:	f7ff fee1 	bl	800068c <AutopollingMemReady>
 80008ca:	2801      	cmp	r0, #1
 80008cc:	d10e      	bne.n	80008ec <qspi_quad_enable+0xb0>
	       != 1)
	    {
	    	qspi_error();
	    }

}
 80008ce:	b017      	add	sp, #92	; 0x5c
 80008d0:	f85d fb04 	ldr.w	pc, [sp], #4
	    	qspi_error();
 80008d4:	f7ff fed0 	bl	8000678 <qspi_error>
 80008d8:	e7c8      	b.n	800086c <qspi_quad_enable+0x30>
	    	qspi_error();
 80008da:	f7ff fecd 	bl	8000678 <qspi_error>
 80008de:	e7cc      	b.n	800087a <qspi_quad_enable+0x3e>
	    	qspi_error();
 80008e0:	f7ff feca 	bl	8000678 <qspi_error>
 80008e4:	e7d4      	b.n	8000890 <qspi_quad_enable+0x54>
	    	qspi_error();
 80008e6:	f7ff fec7 	bl	8000678 <qspi_error>
 80008ea:	e7ea      	b.n	80008c2 <qspi_quad_enable+0x86>
	    	qspi_error();
 80008ec:	f7ff fec4 	bl	8000678 <qspi_error>
}
 80008f0:	e7ed      	b.n	80008ce <qspi_quad_enable+0x92>
 80008f2:	bf00      	nop
 80008f4:	200001e8 	.word	0x200001e8

080008f8 <qspi_enable_memory_mapped>:

void qspi_enable_memory_mapped()
{
 80008f8:	b500      	push	{lr}
 80008fa:	b091      	sub	sp, #68	; 0x44
	   QSPI_CommandTypeDef      s_command;
	    QSPI_MemoryMappedTypeDef s_mem_mapped_cfg;

	    /* Configure the command for the read instruction */
	    s_command.InstructionMode = QSPI_INSTRUCTION_1_LINE;
 80008fc:	f44f 7380 	mov.w	r3, #256	; 0x100
 8000900:	9308      	str	r3, [sp, #32]
	    s_command.Instruction     = QUAD_INOUT_FAST_READ_CMD;
 8000902:	23eb      	movs	r3, #235	; 0xeb
 8000904:	9302      	str	r3, [sp, #8]
	    s_command.AddressMode     = QSPI_ADDRESS_4_LINES;
 8000906:	f44f 6340 	mov.w	r3, #3072	; 0xc00
 800090a:	9309      	str	r3, [sp, #36]	; 0x24
	    s_command.AddressSize     = QSPI_ADDRESS_24_BITS;
 800090c:	f44f 5300 	mov.w	r3, #8192	; 0x2000
 8000910:	9305      	str	r3, [sp, #20]
	    //    s_command.AlternateByteMode = QSPI_ALTERNATE_BYTES_NONE;
	    //s_command.DummyCycles       = IS25LP080D_DUMMY_CYCLES_READ_QUAD;
	    s_command.AlternateByteMode  = QSPI_ALTERNATE_BYTES_4_LINES;
 8000912:	f44f 4340 	mov.w	r3, #49152	; 0xc000
 8000916:	930a      	str	r3, [sp, #40]	; 0x28
	    s_command.AlternateBytesSize = QSPI_ALTERNATE_BYTES_8_BITS;
 8000918:	2300      	movs	r3, #0
 800091a:	9306      	str	r3, [sp, #24]
	    s_command.AlternateBytes     = 0x000000A0;
 800091c:	22a0      	movs	r2, #160	; 0xa0
 800091e:	9204      	str	r2, [sp, #16]
	    s_command.DummyCycles        = 6;
 8000920:	2206      	movs	r2, #6
 8000922:	9207      	str	r2, [sp, #28]
	    s_command.DdrMode            = QSPI_DDR_MODE_DISABLE;
 8000924:	930d      	str	r3, [sp, #52]	; 0x34
	    s_command.DdrHoldHalfCycle   = QSPI_DDR_HHC_ANALOG_DELAY;
 8000926:	930e      	str	r3, [sp, #56]	; 0x38
	    //s_command.SIOOMode          = QSPI_SIOO_INST_EVERY_CMD;
	    s_command.SIOOMode = QSPI_SIOO_INST_ONLY_FIRST_CMD;
 8000928:	f04f 5280 	mov.w	r2, #268435456	; 0x10000000
 800092c:	920f      	str	r2, [sp, #60]	; 0x3c
	    s_command.DataMode = QSPI_DATA_4_LINES;
 800092e:	f04f 7240 	mov.w	r2, #50331648	; 0x3000000
 8000932:	920b      	str	r2, [sp, #44]	; 0x2c

	    /* Configure the memory mapped mode */
	    s_mem_mapped_cfg.TimeOutActivation = QSPI_TIMEOUT_COUNTER_DISABLE;
 8000934:	9301      	str	r3, [sp, #4]
	    s_mem_mapped_cfg.TimeOutPeriod     = 0;
 8000936:	9300      	str	r3, [sp, #0]
	    uint32_t qspiresult = HAL_QSPI_MemoryMapped(&hqspi, &s_command, &s_mem_mapped_cfg);
 8000938:	466a      	mov	r2, sp
 800093a:	a902      	add	r1, sp, #8
 800093c:	4804      	ldr	r0, [pc, #16]	; (8000950 <qspi_enable_memory_mapped+0x58>)
 800093e:	f001 ffc8 	bl	80028d2 <HAL_QSPI_MemoryMapped>
	    if(qspiresult
 8000942:	b910      	cbnz	r0, 800094a <qspi_enable_memory_mapped+0x52>
	       != HAL_OK)
	    {
	    	qspi_error();
	    }
}
 8000944:	b011      	add	sp, #68	; 0x44
 8000946:	f85d fb04 	ldr.w	pc, [sp], #4
	    	qspi_error();
 800094a:	f7ff fe95 	bl	8000678 <qspi_error>
}
 800094e:	e7f9      	b.n	8000944 <qspi_enable_memory_mapped+0x4c>
 8000950:	200001e8 	.word	0x200001e8

08000954 <qspi_initialize>:

void qspi_initialize(uint8_t mode)
{
 8000954:	b538      	push	{r3, r4, r5, lr}
 8000956:	4604      	mov	r4, r0
	HAL_QSPI_DeInit(&hqspi);
 8000958:	4d09      	ldr	r5, [pc, #36]	; (8000980 <qspi_initialize+0x2c>)
 800095a:	4628      	mov	r0, r5
 800095c:	f001 fe95 	bl	800268a <HAL_QSPI_DeInit>
	HAL_QSPI_Init(&hqspi);
 8000960:	4628      	mov	r0, r5
 8000962:	f002 f805 	bl	8002970 <HAL_QSPI_Init>

	qspi_reset_memory();
 8000966:	f7ff fef9 	bl	800075c <qspi_reset_memory>
	qspi_dummy_cycles_config();
 800096a:	f7ff ff2b 	bl	80007c4 <qspi_dummy_cycles_config>
	qspi_quad_enable();
 800096e:	f7ff ff65 	bl	800083c <qspi_quad_enable>
	if (mode == MEMORY_MAPPED)
 8000972:	2c01      	cmp	r4, #1
 8000974:	d000      	beq.n	8000978 <qspi_initialize+0x24>
	{
		qspi_enable_memory_mapped();
	}
}
 8000976:	bd38      	pop	{r3, r4, r5, pc}
		qspi_enable_memory_mapped();
 8000978:	f7ff ffbe 	bl	80008f8 <qspi_enable_memory_mapped>
}
 800097c:	e7fb      	b.n	8000976 <qspi_initialize+0x22>
 800097e:	bf00      	nop
 8000980:	200001e8 	.word	0x200001e8

08000984 <qspi_SetMode>:

void qspi_SetMode(uint8_t mode)
{
	if (mode == INDIRECT_POLLING)
 8000984:	b130      	cbz	r0, 8000994 <qspi_SetMode+0x10>
{
 8000986:	b508      	push	{r3, lr}
	{
		//qspi_initialize(INDIRECT_POLLING);
	}
	else if (mode == MEMORY_MAPPED)
 8000988:	2801      	cmp	r0, #1
 800098a:	d000      	beq.n	800098e <qspi_SetMode+0xa>
	{
		qspi_enable_memory_mapped();
	}

}
 800098c:	bd08      	pop	{r3, pc}
		qspi_enable_memory_mapped();
 800098e:	f7ff ffb3 	bl	80008f8 <qspi_enable_memory_mapped>
}
 8000992:	e7fb      	b.n	800098c <qspi_SetMode+0x8>
 8000994:	4770      	bx	lr
	...

08000998 <qpsi_EraseSector>:

int qpsi_EraseSector(uint32_t address)
{
 8000998:	b500      	push	{lr}
 800099a:	b08f      	sub	sp, #60	; 0x3c
        s_command.Instruction     = SECTOR_ERASE_QPI_CMD;
        s_command.AddressMode     = QSPI_ADDRESS_4_LINES;
    }
    else
    {
        s_command.InstructionMode = QSPI_INSTRUCTION_1_LINE;
 800099c:	f44f 7380 	mov.w	r3, #256	; 0x100
 80009a0:	9306      	str	r3, [sp, #24]
        s_command.Instruction     = SECTOR_ERASE_CMD;
 80009a2:	23d7      	movs	r3, #215	; 0xd7
 80009a4:	9300      	str	r3, [sp, #0]
        s_command.AddressMode     = QSPI_ADDRESS_1_LINE;
 80009a6:	f44f 6380 	mov.w	r3, #1024	; 0x400
 80009aa:	9307      	str	r3, [sp, #28]
    }
    s_command.AddressSize       = QSPI_ADDRESS_24_BITS;
 80009ac:	f44f 5300 	mov.w	r3, #8192	; 0x2000
 80009b0:	9303      	str	r3, [sp, #12]
    s_command.AlternateByteMode = QSPI_ALTERNATE_BYTES_NONE;
 80009b2:	2300      	movs	r3, #0
 80009b4:	9308      	str	r3, [sp, #32]
    s_command.DataMode          = QSPI_DATA_NONE;
 80009b6:	9309      	str	r3, [sp, #36]	; 0x24
    s_command.DummyCycles       = 0;
 80009b8:	9305      	str	r3, [sp, #20]
    s_command.NbData            = 1;
 80009ba:	2201      	movs	r2, #1
 80009bc:	920a      	str	r2, [sp, #40]	; 0x28
    s_command.DdrMode           = QSPI_DDR_MODE_DISABLE;
 80009be:	930b      	str	r3, [sp, #44]	; 0x2c
    s_command.DdrHoldHalfCycle  = QSPI_DDR_HHC_ANALOG_DELAY;
 80009c0:	930c      	str	r3, [sp, #48]	; 0x30
    s_command.SIOOMode          = QSPI_SIOO_INST_EVERY_CMD;
 80009c2:	930d      	str	r3, [sp, #52]	; 0x34
    s_command.Address           = address;
 80009c4:	9001      	str	r0, [sp, #4]


    // Erasing takes a long time anyway, so not much point trying to
    // minimize reinitializations
    qspi_SetMode(INDIRECT_POLLING);
 80009c6:	4618      	mov	r0, r3
 80009c8:	f7ff ffdc 	bl	8000984 <qspi_SetMode>

    if(qspi_WriteEnable() != 1)
 80009cc:	f7ff fe8a 	bl	80006e4 <qspi_WriteEnable>
 80009d0:	2801      	cmp	r0, #1
 80009d2:	d110      	bne.n	80009f6 <qpsi_EraseSector+0x5e>
    {
    	qspi_error();
    }
    if(HAL_QSPI_Command(&hqspi, &s_command, HAL_QPSI_TIMEOUT_DEFAULT_VALUE)
 80009d4:	f241 3288 	movw	r2, #5000	; 0x1388
 80009d8:	4669      	mov	r1, sp
 80009da:	480b      	ldr	r0, [pc, #44]	; (8000a08 <qpsi_EraseSector+0x70>)
 80009dc:	f001 fe66 	bl	80026ac <HAL_QSPI_Command>
 80009e0:	b960      	cbnz	r0, 80009fc <qpsi_EraseSector+0x64>
       != HAL_OK)
    {
    	qspi_error();
    }
    if(AutopollingMemReady(HAL_QPSI_TIMEOUT_DEFAULT_VALUE)
 80009e2:	f241 3088 	movw	r0, #5000	; 0x1388
 80009e6:	f7ff fe51 	bl	800068c <AutopollingMemReady>
 80009ea:	2801      	cmp	r0, #1
 80009ec:	d109      	bne.n	8000a02 <qpsi_EraseSector+0x6a>
    //qspi_SetMode(MEMORY_MAPPED);

    ok= 1;
    return ok;

}
 80009ee:	2001      	movs	r0, #1
 80009f0:	b00f      	add	sp, #60	; 0x3c
 80009f2:	f85d fb04 	ldr.w	pc, [sp], #4
    	qspi_error();
 80009f6:	f7ff fe3f 	bl	8000678 <qspi_error>
 80009fa:	e7eb      	b.n	80009d4 <qpsi_EraseSector+0x3c>
    	qspi_error();
 80009fc:	f7ff fe3c 	bl	8000678 <qspi_error>
 8000a00:	e7ef      	b.n	80009e2 <qpsi_EraseSector+0x4a>
    	qspi_error();
 8000a02:	f7ff fe39 	bl	8000678 <qspi_error>
 8000a06:	e7f2      	b.n	80009ee <qpsi_EraseSector+0x56>
 8000a08:	200001e8 	.word	0x200001e8

08000a0c <qspi_Erase>:


void qspi_Erase(uint32_t start_addr, uint32_t end_addr)
{
 8000a0c:	b538      	push	{r3, r4, r5, lr}
 8000a0e:	460d      	mov	r5, r1
    uint32_t block_addr;
    uint32_t block_size = IS25LP064A_SECTOR_SIZE; // 4kB blocks for now.
    // 64kB chunks for now.
    start_addr = start_addr - (start_addr % block_size);
 8000a10:	4c08      	ldr	r4, [pc, #32]	; (8000a34 <qspi_Erase+0x28>)
 8000a12:	4004      	ands	r4, r0
    while(end_addr > start_addr)
 8000a14:	e001      	b.n	8000a1a <qspi_Erase+0xe>
        block_addr = start_addr & 0x0FFFFFFF;
        if(qpsi_EraseSector(block_addr) != 1)
        {
        	qspi_error();
        }
        start_addr += block_size;
 8000a16:	f504 5480 	add.w	r4, r4, #4096	; 0x1000
    while(end_addr > start_addr)
 8000a1a:	42ac      	cmp	r4, r5
 8000a1c:	d208      	bcs.n	8000a30 <qspi_Erase+0x24>
        if(qpsi_EraseSector(block_addr) != 1)
 8000a1e:	f024 4070 	bic.w	r0, r4, #4026531840	; 0xf0000000
 8000a22:	f7ff ffb9 	bl	8000998 <qpsi_EraseSector>
 8000a26:	2801      	cmp	r0, #1
 8000a28:	d0f5      	beq.n	8000a16 <qspi_Erase+0xa>
        	qspi_error();
 8000a2a:	f7ff fe25 	bl	8000678 <qspi_error>
 8000a2e:	e7f2      	b.n	8000a16 <qspi_Erase+0xa>
    }
}
 8000a30:	bd38      	pop	{r3, r4, r5, pc}
 8000a32:	bf00      	nop
 8000a34:	fffff000 	.word	0xfffff000

08000a38 <qspi_WritePage>:

int qspi_WritePage(uint32_t address, uint32_t size, uint8_t* buffer, uint8_t     reset_mode)
{
 8000a38:	e92d 41f0 	stmdb	sp!, {r4, r5, r6, r7, r8, lr}
 8000a3c:	b08e      	sub	sp, #56	; 0x38
 8000a3e:	4680      	mov	r8, r0
 8000a40:	460d      	mov	r5, r1
 8000a42:	4617      	mov	r7, r2
 8000a44:	461e      	mov	r6, r3
	  //RETURN_IF_ERR(CheckProgramMemory());
	int ok = 0;

	qspi_SetMode(INDIRECT_POLLING);
 8000a46:	2000      	movs	r0, #0
 8000a48:	f7ff ff9c 	bl	8000984 <qspi_SetMode>

	    QSPI_CommandTypeDef s_command;
	    s_command.InstructionMode   = QSPI_INSTRUCTION_1_LINE;
 8000a4c:	f44f 7380 	mov.w	r3, #256	; 0x100
 8000a50:	9306      	str	r3, [sp, #24]
	    s_command.Instruction       = PAGE_PROG_CMD;
 8000a52:	2302      	movs	r3, #2
 8000a54:	9300      	str	r3, [sp, #0]
	    s_command.AddressMode       = QSPI_ADDRESS_1_LINE;
 8000a56:	f44f 6380 	mov.w	r3, #1024	; 0x400
 8000a5a:	9307      	str	r3, [sp, #28]
	    s_command.AddressSize       = QSPI_ADDRESS_24_BITS;
 8000a5c:	f44f 5300 	mov.w	r3, #8192	; 0x2000
 8000a60:	9303      	str	r3, [sp, #12]
	    s_command.AlternateByteMode = QSPI_ALTERNATE_BYTES_NONE;
 8000a62:	2400      	movs	r4, #0
 8000a64:	9408      	str	r4, [sp, #32]
	    s_command.DataMode          = QSPI_DATA_1_LINE;
 8000a66:	f04f 7380 	mov.w	r3, #16777216	; 0x1000000
 8000a6a:	9309      	str	r3, [sp, #36]	; 0x24
	    s_command.DummyCycles       = 0;
 8000a6c:	9405      	str	r4, [sp, #20]
	    s_command.NbData            = size <= 256 ? size : 256;
 8000a6e:	f5b5 7f80 	cmp.w	r5, #256	; 0x100
 8000a72:	bf28      	it	cs
 8000a74:	f44f 7580 	movcs.w	r5, #256	; 0x100
 8000a78:	950a      	str	r5, [sp, #40]	; 0x28
	    s_command.DdrMode           = QSPI_DDR_MODE_DISABLE;
 8000a7a:	940b      	str	r4, [sp, #44]	; 0x2c
	    s_command.DdrHoldHalfCycle  = QSPI_DDR_HHC_ANALOG_DELAY;
 8000a7c:	940c      	str	r4, [sp, #48]	; 0x30
	    s_command.SIOOMode          = QSPI_SIOO_INST_EVERY_CMD;
 8000a7e:	940d      	str	r4, [sp, #52]	; 0x34
	    s_command.Address           = address;
 8000a80:	f8cd 8004 	str.w	r8, [sp, #4]
	    if(qspi_WriteEnable() != 1)
 8000a84:	f7ff fe2e 	bl	80006e4 <qspi_WriteEnable>
 8000a88:	2801      	cmp	r0, #1
 8000a8a:	d118      	bne.n	8000abe <qspi_WritePage+0x86>
	    {
	    	qspi_error();
	    }
	    if(HAL_QSPI_Command(&hqspi, &s_command, HAL_QPSI_TIMEOUT_DEFAULT_VALUE)
 8000a8c:	f241 3288 	movw	r2, #5000	; 0x1388
 8000a90:	4669      	mov	r1, sp
 8000a92:	4813      	ldr	r0, [pc, #76]	; (8000ae0 <qspi_WritePage+0xa8>)
 8000a94:	f001 fe0a 	bl	80026ac <HAL_QSPI_Command>
 8000a98:	b9a0      	cbnz	r0, 8000ac4 <qspi_WritePage+0x8c>
	       != HAL_OK)
	    {
	    	qspi_error();
	    }
	    if(HAL_QSPI_Transmit(
 8000a9a:	f241 3288 	movw	r2, #5000	; 0x1388
 8000a9e:	4639      	mov	r1, r7
 8000aa0:	480f      	ldr	r0, [pc, #60]	; (8000ae0 <qspi_WritePage+0xa8>)
 8000aa2:	f001 fe52 	bl	800274a <HAL_QSPI_Transmit>
 8000aa6:	b980      	cbnz	r0, 8000aca <qspi_WritePage+0x92>
	           &hqspi, (uint8_t*)buffer, HAL_QPSI_TIMEOUT_DEFAULT_VALUE)
	       != HAL_OK)
	    {
	    	qspi_error();
	    }
	    if(AutopollingMemReady(HAL_QPSI_TIMEOUT_DEFAULT_VALUE)
 8000aa8:	f241 3088 	movw	r0, #5000	; 0x1388
 8000aac:	f7ff fdee 	bl	800068c <AutopollingMemReady>
 8000ab0:	2801      	cmp	r0, #1
 8000ab2:	d10d      	bne.n	8000ad0 <qspi_WritePage+0x98>
	       != 1)
	    {
	    	qspi_error();
	    }

	    if(reset_mode)
 8000ab4:	b97e      	cbnz	r6, 8000ad6 <qspi_WritePage+0x9e>
	    	qspi_SetMode(MEMORY_MAPPED);

	    ok= 1;
	    return ok;

}
 8000ab6:	2001      	movs	r0, #1
 8000ab8:	b00e      	add	sp, #56	; 0x38
 8000aba:	e8bd 81f0 	ldmia.w	sp!, {r4, r5, r6, r7, r8, pc}
	    	qspi_error();
 8000abe:	f7ff fddb 	bl	8000678 <qspi_error>
 8000ac2:	e7e3      	b.n	8000a8c <qspi_WritePage+0x54>
	    	qspi_error();
 8000ac4:	f7ff fdd8 	bl	8000678 <qspi_error>
 8000ac8:	e7e7      	b.n	8000a9a <qspi_WritePage+0x62>
	    	qspi_error();
 8000aca:	f7ff fdd5 	bl	8000678 <qspi_error>
 8000ace:	e7eb      	b.n	8000aa8 <qspi_WritePage+0x70>
	    	qspi_error();
 8000ad0:	f7ff fdd2 	bl	8000678 <qspi_error>
 8000ad4:	e7ee      	b.n	8000ab4 <qspi_WritePage+0x7c>
	    	qspi_SetMode(MEMORY_MAPPED);
 8000ad6:	2001      	movs	r0, #1
 8000ad8:	f7ff ff54 	bl	8000984 <qspi_SetMode>
 8000adc:	e7eb      	b.n	8000ab6 <qspi_WritePage+0x7e>
 8000ade:	bf00      	nop
 8000ae0:	200001e8 	.word	0x200001e8

08000ae4 <qspi_Write>:

void qspi_Write(uint32_t address, uint32_t size, uint8_t* buffer)
{
 8000ae4:	e92d 41f0 	stmdb	sp!, {r4, r5, r6, r7, r8, lr}
 8000ae8:	4614      	mov	r4, r2
	 uint32_t NumOfPage = 0, NumOfSingle = 0, Addr = 0, count = 0, temp = 0;
	    uint32_t QSPI_DataNum    = 0;
	    uint32_t flash_page_size = IS25LP064A_PAGE_SIZE;
	    address                  = address & 0x0FFFFFFF;
 8000aea:	f020 4570 	bic.w	r5, r0, #4026531840	; 0xf0000000
	    Addr                     = address % flash_page_size;
 8000aee:	b2c0      	uxtb	r0, r0
	    count                    = flash_page_size - Addr;
	    NumOfPage                = size / flash_page_size;
	    NumOfSingle              = size % flash_page_size;
 8000af0:	b2ce      	uxtb	r6, r1

	    if(Addr == 0) /*!< Address is QSPI_PAGESIZE aligned  */
 8000af2:	bb10      	cbnz	r0, 8000b3a <qspi_Write+0x56>
 8000af4:	0a0b      	lsrs	r3, r1, #8
	    {
	        if(NumOfPage == 0) /*!< NumByteToWrite < QSPI_PAGESIZE */
 8000af6:	29ff      	cmp	r1, #255	; 0xff
 8000af8:	d810      	bhi.n	8000b1c <qspi_Write+0x38>
	        {
	            QSPI_DataNum = size;
	            qspi_WritePage(address, QSPI_DataNum, buffer, 0);
 8000afa:	2300      	movs	r3, #0
 8000afc:	4628      	mov	r0, r5
 8000afe:	f7ff ff9b 	bl	8000a38 <qspi_WritePage>
 8000b02:	e00f      	b.n	8000b24 <qspi_Write+0x40>
	        else /*!< Size > QSPI_PAGESIZE */
	        {
	            while(NumOfPage--)
	            {
	                QSPI_DataNum = flash_page_size;
	                qspi_WritePage(address, QSPI_DataNum, buffer, 0);
 8000b04:	2300      	movs	r3, #0
 8000b06:	4622      	mov	r2, r4
 8000b08:	f44f 7180 	mov.w	r1, #256	; 0x100
 8000b0c:	4628      	mov	r0, r5
 8000b0e:	f7ff ff93 	bl	8000a38 <qspi_WritePage>
	                address += flash_page_size;
 8000b12:	f505 7580 	add.w	r5, r5, #256	; 0x100
	                buffer += flash_page_size;
 8000b16:	f504 7480 	add.w	r4, r4, #256	; 0x100
	            while(NumOfPage--)
 8000b1a:	463b      	mov	r3, r7
 8000b1c:	1e5f      	subs	r7, r3, #1
 8000b1e:	2b00      	cmp	r3, #0
 8000b20:	d1f0      	bne.n	8000b04 <qspi_Write+0x20>
	            }

	            QSPI_DataNum = NumOfSingle;
	            if(QSPI_DataNum > 0)
 8000b22:	b926      	cbnz	r6, 8000b2e <qspi_Write+0x4a>
	                qspi_WritePage(address, QSPI_DataNum, buffer, 0);
	            }
	        }
	    }

	    qspi_SetMode(MEMORY_MAPPED);
 8000b24:	2001      	movs	r0, #1
 8000b26:	f7ff ff2d 	bl	8000984 <qspi_SetMode>


}
 8000b2a:	e8bd 81f0 	ldmia.w	sp!, {r4, r5, r6, r7, r8, pc}
	            	qspi_WritePage(address, QSPI_DataNum, buffer, 0);
 8000b2e:	4622      	mov	r2, r4
 8000b30:	4631      	mov	r1, r6
 8000b32:	4628      	mov	r0, r5
 8000b34:	f7ff ff80 	bl	8000a38 <qspi_WritePage>
 8000b38:	e7f4      	b.n	8000b24 <qspi_Write+0x40>
 8000b3a:	f5c0 7780 	rsb	r7, r0, #256	; 0x100
	        if(NumOfPage == 0) /*!< Size < QSPI_PAGESIZE */
 8000b3e:	29ff      	cmp	r1, #255	; 0xff
 8000b40:	d815      	bhi.n	8000b6e <qspi_Write+0x8a>
	            if(NumOfSingle > count) /*!< (Size + Address) > QSPI_PAGESIZE */
 8000b42:	42b7      	cmp	r7, r6
 8000b44:	d20e      	bcs.n	8000b64 <qspi_Write+0x80>
	                temp         = NumOfSingle - count;
 8000b46:	f5a0 7080 	sub.w	r0, r0, #256	; 0x100
 8000b4a:	4406      	add	r6, r0
	                qspi_WritePage(address, QSPI_DataNum, buffer, 0);
 8000b4c:	2300      	movs	r3, #0
 8000b4e:	4639      	mov	r1, r7
 8000b50:	4628      	mov	r0, r5
 8000b52:	f7ff ff71 	bl	8000a38 <qspi_WritePage>
	                qspi_WritePage(address, QSPI_DataNum, buffer, 0);
 8000b56:	2300      	movs	r3, #0
 8000b58:	19e2      	adds	r2, r4, r7
 8000b5a:	4631      	mov	r1, r6
 8000b5c:	19e8      	adds	r0, r5, r7
 8000b5e:	f7ff ff6b 	bl	8000a38 <qspi_WritePage>
 8000b62:	e7df      	b.n	8000b24 <qspi_Write+0x40>
	                qspi_WritePage(address, QSPI_DataNum, buffer, 0);
 8000b64:	2300      	movs	r3, #0
 8000b66:	4628      	mov	r0, r5
 8000b68:	f7ff ff66 	bl	8000a38 <qspi_WritePage>
 8000b6c:	e7da      	b.n	8000b24 <qspi_Write+0x40>
	            size -= count;
 8000b6e:	f5a0 7080 	sub.w	r0, r0, #256	; 0x100
 8000b72:	4401      	add	r1, r0
	            NumOfPage    = size / flash_page_size;
 8000b74:	ea4f 2811 	mov.w	r8, r1, lsr #8
	            NumOfSingle  = size % flash_page_size;
 8000b78:	b2ce      	uxtb	r6, r1
	            qspi_WritePage(address, QSPI_DataNum, buffer, 0);
 8000b7a:	2300      	movs	r3, #0
 8000b7c:	4639      	mov	r1, r7
 8000b7e:	4628      	mov	r0, r5
 8000b80:	f7ff ff5a 	bl	8000a38 <qspi_WritePage>
	            address += count;
 8000b84:	443d      	add	r5, r7
	            buffer += count;
 8000b86:	443c      	add	r4, r7
	            while(NumOfPage--)
 8000b88:	e00b      	b.n	8000ba2 <qspi_Write+0xbe>
	                qspi_WritePage(address, QSPI_DataNum, buffer, 0);
 8000b8a:	2300      	movs	r3, #0
 8000b8c:	4622      	mov	r2, r4
 8000b8e:	f44f 7180 	mov.w	r1, #256	; 0x100
 8000b92:	4628      	mov	r0, r5
 8000b94:	f7ff ff50 	bl	8000a38 <qspi_WritePage>
	                address += flash_page_size;
 8000b98:	f505 7580 	add.w	r5, r5, #256	; 0x100
	                buffer += flash_page_size;
 8000b9c:	f504 7480 	add.w	r4, r4, #256	; 0x100
	            while(NumOfPage--)
 8000ba0:	46b8      	mov	r8, r7
 8000ba2:	f108 37ff 	add.w	r7, r8, #4294967295	; 0xffffffff
 8000ba6:	f1b8 0f00 	cmp.w	r8, #0
 8000baa:	d1ee      	bne.n	8000b8a <qspi_Write+0xa6>
	            if(NumOfSingle != 0)
 8000bac:	2e00      	cmp	r6, #0
 8000bae:	d0b9      	beq.n	8000b24 <qspi_Write+0x40>
	                qspi_WritePage(address, QSPI_DataNum, buffer, 0);
 8000bb0:	2300      	movs	r3, #0
 8000bb2:	4622      	mov	r2, r4
 8000bb4:	4631      	mov	r1, r6
 8000bb6:	4628      	mov	r0, r5
 8000bb8:	f7ff ff3e 	bl	8000a38 <qspi_WritePage>
 8000bbc:	e7b2      	b.n	8000b24 <qspi_Write+0x40>
	...

08000bc0 <FS_FileOperations>:



static void FS_FileOperations(void)
{
 8000bc0:	b510      	push	{r4, lr}
	HAL_Delay(300);
 8000bc2:	f44f 7096 	mov.w	r0, #300	; 0x12c
 8000bc6:	f000 fd83 	bl	80016d0 <HAL_Delay>
	disk_initialize(0);
 8000bca:	2000      	movs	r0, #0
 8000bcc:	f005 ffdc 	bl	8006b88 <disk_initialize>

    disk_status(0);
 8000bd0:	2000      	movs	r0, #0
 8000bd2:	f005 ffcd 	bl	8006b70 <disk_status>
    //{
      //ShowDiskStatus(status);
    //}


	if(f_mount(&SDFatFS,  SDPath, 1) == FR_OK)
 8000bd6:	2201      	movs	r2, #1
 8000bd8:	4922      	ldr	r1, [pc, #136]	; (8000c64 <FS_FileOperations+0xa4>)
 8000bda:	4823      	ldr	r0, [pc, #140]	; (8000c68 <FS_FileOperations+0xa8>)
 8000bdc:	f007 fb6e 	bl	80082bc <f_mount>
 8000be0:	b100      	cbz	r0, 8000be4 <FS_FileOperations+0x24>
		f_closedir(&dir);
		f_mount(0, "", 0); //unmount
	}


}
 8000be2:	bd10      	pop	{r4, pc}
		res = f_findfirst(&dir, &fno, SDPath, "*.bin");
 8000be4:	4c21      	ldr	r4, [pc, #132]	; (8000c6c <FS_FileOperations+0xac>)
 8000be6:	4b22      	ldr	r3, [pc, #136]	; (8000c70 <FS_FileOperations+0xb0>)
 8000be8:	4a1e      	ldr	r2, [pc, #120]	; (8000c64 <FS_FileOperations+0xa4>)
 8000bea:	4621      	mov	r1, r4
 8000bec:	4821      	ldr	r0, [pc, #132]	; (8000c74 <FS_FileOperations+0xb4>)
 8000bee:	f007 fe82 	bl	80088f6 <f_findfirst>
		if (fno.fname[0])
 8000bf2:	7da3      	ldrb	r3, [r4, #22]
 8000bf4:	b103      	cbz	r3, 8000bf8 <FS_FileOperations+0x38>
		  if(res == FR_OK)
 8000bf6:	b140      	cbz	r0, 8000c0a <FS_FileOperations+0x4a>
		f_closedir(&dir);
 8000bf8:	481e      	ldr	r0, [pc, #120]	; (8000c74 <FS_FileOperations+0xb4>)
 8000bfa:	f007 fe26 	bl	800884a <f_closedir>
		f_mount(0, "", 0); //unmount
 8000bfe:	2200      	movs	r2, #0
 8000c00:	491d      	ldr	r1, [pc, #116]	; (8000c78 <FS_FileOperations+0xb8>)
 8000c02:	4610      	mov	r0, r2
 8000c04:	f007 fb5a 	bl	80082bc <f_mount>
}
 8000c08:	e7eb      	b.n	8000be2 <FS_FileOperations+0x22>
				if(f_open(&SDFile, fno.fname, FA_OPEN_ALWAYS | FA_READ) == FR_OK)
 8000c0a:	2211      	movs	r2, #17
 8000c0c:	f104 0116 	add.w	r1, r4, #22
 8000c10:	481a      	ldr	r0, [pc, #104]	; (8000c7c <FS_FileOperations+0xbc>)
 8000c12:	f007 fb83 	bl	800831c <f_open>
 8000c16:	2800      	cmp	r0, #0
 8000c18:	d1ee      	bne.n	8000bf8 <FS_FileOperations+0x38>
					f_read(&SDFile, &tempBinaryBuffer, f_size(&SDFile), &bytesRead);
 8000c1a:	4818      	ldr	r0, [pc, #96]	; (8000c7c <FS_FileOperations+0xbc>)
 8000c1c:	4c18      	ldr	r4, [pc, #96]	; (8000c80 <FS_FileOperations+0xc0>)
 8000c1e:	4623      	mov	r3, r4
 8000c20:	68c2      	ldr	r2, [r0, #12]
 8000c22:	4918      	ldr	r1, [pc, #96]	; (8000c84 <FS_FileOperations+0xc4>)
 8000c24:	f007 fc90 	bl	8008548 <f_read>
					if (bytesRead < 262144)
 8000c28:	6821      	ldr	r1, [r4, #0]
 8000c2a:	f5b1 2f80 	cmp.w	r1, #262144	; 0x40000
 8000c2e:	d303      	bcc.n	8000c38 <FS_FileOperations+0x78>
					f_close(&SDFile);
 8000c30:	4812      	ldr	r0, [pc, #72]	; (8000c7c <FS_FileOperations+0xbc>)
 8000c32:	f007 fdb0 	bl	8008796 <f_close>
 8000c36:	e7df      	b.n	8000bf8 <FS_FileOperations+0x38>
						qspi_Erase(QSPI_START, QSPI_START+bytesRead);
 8000c38:	f101 4110 	add.w	r1, r1, #2415919104	; 0x90000000
 8000c3c:	f04f 4010 	mov.w	r0, #2415919104	; 0x90000000
 8000c40:	f7ff fee4 	bl	8000a0c <qspi_Erase>
						qspi_Write(QSPI_START, bytesRead,(uint8_t*)tempBinaryBuffer);
 8000c44:	4a0f      	ldr	r2, [pc, #60]	; (8000c84 <FS_FileOperations+0xc4>)
 8000c46:	6821      	ldr	r1, [r4, #0]
 8000c48:	f04f 4010 	mov.w	r0, #2415919104	; 0x90000000
 8000c4c:	f7ff ff4a 	bl	8000ae4 <qspi_Write>
						HAL_GPIO_WritePin(GPIOC, GPIO_PIN_7, GPIO_PIN_SET);
 8000c50:	2201      	movs	r2, #1
 8000c52:	2180      	movs	r1, #128	; 0x80
 8000c54:	480c      	ldr	r0, [pc, #48]	; (8000c88 <FS_FileOperations+0xc8>)
 8000c56:	f000 ffa2 	bl	8001b9e <HAL_GPIO_WritePin>
						memory_already_mapped = 1;
 8000c5a:	4b0c      	ldr	r3, [pc, #48]	; (8000c8c <FS_FileOperations+0xcc>)
 8000c5c:	2201      	movs	r2, #1
 8000c5e:	701a      	strb	r2, [r3, #0]
 8000c60:	e7e6      	b.n	8000c30 <FS_FileOperations+0x70>
 8000c62:	bf00      	nop
 8000c64:	20000714 	.word	0x20000714
 8000c68:	200002b4 	.word	0x200002b4
 8000c6c:	200000cc 	.word	0x200000cc
 8000c70:	08008aa4 	.word	0x08008aa4
 8000c74:	20000094 	.word	0x20000094
 8000c78:	08008ad8 	.word	0x08008ad8
 8000c7c:	200004e8 	.word	0x200004e8
 8000c80:	20000090 	.word	0x20000090
 8000c84:	24000000 	.word	0x24000000
 8000c88:	58020800 	.word	0x58020800
 8000c8c:	200001e4 	.word	0x200001e4

08000c90 <HAL_GPIO_EXTI_Callback>:
}


// EXTI Line12 External Interrupt ISR Handler CallBackFun
void HAL_GPIO_EXTI_Callback(uint16_t GPIO_Pin)
{
 8000c90:	b538      	push	{r3, r4, r5, lr}
	if (boardNumber != 0)
 8000c92:	4b32      	ldr	r3, [pc, #200]	; (8000d5c <HAL_GPIO_EXTI_Callback+0xcc>)
 8000c94:	781b      	ldrb	r3, [r3, #0]
 8000c96:	b113      	cbz	r3, 8000c9e <HAL_GPIO_EXTI_Callback+0xe>
	{
		if(GPIO_Pin == GPIO_PIN_12) // If The INT Source Is EXTI Line12
 8000c98:	f5b0 5f80 	cmp.w	r0, #4096	; 0x1000
 8000c9c:	d000      	beq.n	8000ca0 <HAL_GPIO_EXTI_Callback+0x10>
*/
  	 	  HAL_NVIC_SystemReset();

		}
	}
}
 8000c9e:	bd38      	pop	{r3, r4, r5, pc}
			MX_I2C1_Init();
 8000ca0:	f7ff fc42 	bl	8000528 <MX_I2C1_Init>
			while(HAL_GPIO_ReadPin(GPIOB, GPIO_PIN_12) ==  1)
 8000ca4:	f44f 5180 	mov.w	r1, #4096	; 0x1000
 8000ca8:	482d      	ldr	r0, [pc, #180]	; (8000d60 <HAL_GPIO_EXTI_Callback+0xd0>)
 8000caa:	f000 ff71 	bl	8001b90 <HAL_GPIO_ReadPin>
 8000cae:	2801      	cmp	r0, #1
 8000cb0:	d0f8      	beq.n	8000ca4 <HAL_GPIO_EXTI_Callback+0x14>
			HAL_I2C_Slave_Receive(&hi2c1, tempBinaryBuffer, 65535,
 8000cb2:	4d2c      	ldr	r5, [pc, #176]	; (8000d64 <HAL_GPIO_EXTI_Callback+0xd4>)
 8000cb4:	4c2c      	ldr	r4, [pc, #176]	; (8000d68 <HAL_GPIO_EXTI_Callback+0xd8>)
 8000cb6:	f242 7310 	movw	r3, #10000	; 0x2710
 8000cba:	f64f 72ff 	movw	r2, #65535	; 0xffff
 8000cbe:	4629      	mov	r1, r5
 8000cc0:	4620      	mov	r0, r4
 8000cc2:	f001 fa6f 	bl	80021a4 <HAL_I2C_Slave_Receive>
			HAL_Delay(98);
 8000cc6:	2062      	movs	r0, #98	; 0x62
 8000cc8:	f000 fd02 	bl	80016d0 <HAL_Delay>
			HAL_I2C_Slave_Receive(&hi2c1, tempBinaryBuffer+65535, 65535,
 8000ccc:	f242 7310 	movw	r3, #10000	; 0x2710
 8000cd0:	f64f 72ff 	movw	r2, #65535	; 0xffff
 8000cd4:	4925      	ldr	r1, [pc, #148]	; (8000d6c <HAL_GPIO_EXTI_Callback+0xdc>)
 8000cd6:	4620      	mov	r0, r4
 8000cd8:	f001 fa64 	bl	80021a4 <HAL_I2C_Slave_Receive>
			HAL_Delay(98);
 8000cdc:	2062      	movs	r0, #98	; 0x62
 8000cde:	f000 fcf7 	bl	80016d0 <HAL_Delay>
			HAL_I2C_Slave_Receive(&hi2c1, tempBinaryBuffer+131070, 65535,
 8000ce2:	f242 7310 	movw	r3, #10000	; 0x2710
 8000ce6:	f64f 72ff 	movw	r2, #65535	; 0xffff
 8000cea:	4921      	ldr	r1, [pc, #132]	; (8000d70 <HAL_GPIO_EXTI_Callback+0xe0>)
 8000cec:	4620      	mov	r0, r4
 8000cee:	f001 fa59 	bl	80021a4 <HAL_I2C_Slave_Receive>
			HAL_Delay(98);
 8000cf2:	2062      	movs	r0, #98	; 0x62
 8000cf4:	f000 fcec 	bl	80016d0 <HAL_Delay>
			HAL_I2C_Slave_Receive(&hi2c1, tempBinaryBuffer+196605, 65535,
 8000cf8:	f242 7310 	movw	r3, #10000	; 0x2710
 8000cfc:	f64f 72ff 	movw	r2, #65535	; 0xffff
 8000d00:	491c      	ldr	r1, [pc, #112]	; (8000d74 <HAL_GPIO_EXTI_Callback+0xe4>)
 8000d02:	4620      	mov	r0, r4
 8000d04:	f001 fa4e 	bl	80021a4 <HAL_I2C_Slave_Receive>
			qspi_Erase(QSPI_START, QSPI_START+262144);
 8000d08:	491b      	ldr	r1, [pc, #108]	; (8000d78 <HAL_GPIO_EXTI_Callback+0xe8>)
 8000d0a:	f04f 4010 	mov.w	r0, #2415919104	; 0x90000000
 8000d0e:	f7ff fe7d 	bl	8000a0c <qspi_Erase>
			qspi_Write(QSPI_START, 262144,(uint8_t*)tempBinaryBuffer);
 8000d12:	462a      	mov	r2, r5
 8000d14:	f44f 2180 	mov.w	r1, #262144	; 0x40000
 8000d18:	f04f 4010 	mov.w	r0, #2415919104	; 0x90000000
 8000d1c:	f7ff fee2 	bl	8000ae4 <qspi_Write>
			HAL_GPIO_WritePin(GPIOC, GPIO_PIN_7, GPIO_PIN_SET);
 8000d20:	2201      	movs	r2, #1
 8000d22:	2180      	movs	r1, #128	; 0x80
 8000d24:	4815      	ldr	r0, [pc, #84]	; (8000d7c <HAL_GPIO_EXTI_Callback+0xec>)
 8000d26:	f000 ff3a 	bl	8001b9e <HAL_GPIO_WritePin>
			memory_already_mapped = 1;
 8000d2a:	4b15      	ldr	r3, [pc, #84]	; (8000d80 <HAL_GPIO_EXTI_Callback+0xf0>)
 8000d2c:	2201      	movs	r2, #1
 8000d2e:	701a      	strb	r2, [r3, #0]
  	 	  HAL_QSPI_MspDeInit(&hqspi);
 8000d30:	4814      	ldr	r0, [pc, #80]	; (8000d84 <HAL_GPIO_EXTI_Callback+0xf4>)
 8000d32:	f000 fa95 	bl	8001260 <HAL_QSPI_MspDeInit>
    	  HAL_I2C_DeInit(&hi2c1);
 8000d36:	4620      	mov	r0, r4
 8000d38:	f001 f95c 	bl	8001ff4 <HAL_I2C_DeInit>
  	 	  HAL_SD_MspDeInit(&hsd1);
 8000d3c:	4812      	ldr	r0, [pc, #72]	; (8000d88 <HAL_GPIO_EXTI_Callback+0xf8>)
 8000d3e:	f000 fb41 	bl	80013c4 <HAL_SD_MspDeInit>
  	 	  HAL_RCC_DeInit();
 8000d42:	f001 fe69 	bl	8002a18 <HAL_RCC_DeInit>
  	 	  HAL_DeInit();
 8000d46:	f000 fc19 	bl	800157c <HAL_DeInit>
  	 	  SysTick->CTRL = 0;
 8000d4a:	f04f 23e0 	mov.w	r3, #3758153728	; 0xe000e000
 8000d4e:	2200      	movs	r2, #0
 8000d50:	611a      	str	r2, [r3, #16]
  	 	  SysTick->LOAD = 0;
 8000d52:	615a      	str	r2, [r3, #20]
  	 	  SysTick->VAL  = 0;
 8000d54:	619a      	str	r2, [r3, #24]
  	 	  HAL_NVIC_SystemReset();
 8000d56:	f000 fd3d 	bl	80017d4 <HAL_NVIC_SystemReset>
}
 8000d5a:	e7a0      	b.n	8000c9e <HAL_GPIO_EXTI_Callback+0xe>
 8000d5c:	20000000 	.word	0x20000000
 8000d60:	58020400 	.word	0x58020400
 8000d64:	24000000 	.word	0x24000000
 8000d68:	20000034 	.word	0x20000034
 8000d6c:	2400ffff 	.word	0x2400ffff
 8000d70:	2401fffe 	.word	0x2401fffe
 8000d74:	2402fffd 	.word	0x2402fffd
 8000d78:	90040000 	.word	0x90040000
 8000d7c:	58020800 	.word	0x58020800
 8000d80:	200001e4 	.word	0x200001e4
 8000d84:	200001e8 	.word	0x200001e8
 8000d88:	20000234 	.word	0x20000234

08000d8c <Error_Handler>:
  \details Disables IRQ interrupts by setting the I-bit in the CPSR.
           Can only be executed in Privileged modes.
 */
__STATIC_FORCEINLINE void __disable_irq(void)
{
  __ASM volatile ("cpsid i" : : : "memory");
 8000d8c:	b672      	cpsid	i
void Error_Handler(void)
{
  /* USER CODE BEGIN Error_Handler_Debug */
  /* User can add his own implementation to report the HAL error return state */
  __disable_irq();
  while (1)
 8000d8e:	e7fe      	b.n	8000d8e <Error_Handler+0x2>

08000d90 <SystemClock_Config>:
{
 8000d90:	b500      	push	{lr}
 8000d92:	b09f      	sub	sp, #124	; 0x7c
  RCC_OscInitTypeDef RCC_OscInitStruct = {0};
 8000d94:	224c      	movs	r2, #76	; 0x4c
 8000d96:	2100      	movs	r1, #0
 8000d98:	a80b      	add	r0, sp, #44	; 0x2c
 8000d9a:	f007 fe7b 	bl	8008a94 <memset>
  RCC_ClkInitTypeDef RCC_ClkInitStruct = {0};
 8000d9e:	2220      	movs	r2, #32
 8000da0:	2100      	movs	r1, #0
 8000da2:	a803      	add	r0, sp, #12
 8000da4:	f007 fe76 	bl	8008a94 <memset>
  HAL_PWREx_ConfigSupply(PWR_LDO_SUPPLY);
 8000da8:	2002      	movs	r0, #2
 8000daa:	f001 fb2f 	bl	800240c <HAL_PWREx_ConfigSupply>
  __HAL_PWR_VOLTAGESCALING_CONFIG(PWR_REGULATOR_VOLTAGE_SCALE1);
 8000dae:	2300      	movs	r3, #0
 8000db0:	9300      	str	r3, [sp, #0]
 8000db2:	4b3d      	ldr	r3, [pc, #244]	; (8000ea8 <SystemClock_Config+0x118>)
 8000db4:	6ada      	ldr	r2, [r3, #44]	; 0x2c
 8000db6:	f022 0201 	bic.w	r2, r2, #1
 8000dba:	62da      	str	r2, [r3, #44]	; 0x2c
 8000dbc:	6adb      	ldr	r3, [r3, #44]	; 0x2c
 8000dbe:	f003 0301 	and.w	r3, r3, #1
 8000dc2:	9300      	str	r3, [sp, #0]
 8000dc4:	4b39      	ldr	r3, [pc, #228]	; (8000eac <SystemClock_Config+0x11c>)
 8000dc6:	699a      	ldr	r2, [r3, #24]
 8000dc8:	f442 4240 	orr.w	r2, r2, #49152	; 0xc000
 8000dcc:	619a      	str	r2, [r3, #24]
 8000dce:	699b      	ldr	r3, [r3, #24]
 8000dd0:	f403 4340 	and.w	r3, r3, #49152	; 0xc000
 8000dd4:	9300      	str	r3, [sp, #0]
 8000dd6:	9b00      	ldr	r3, [sp, #0]
  while(!__HAL_PWR_GET_FLAG(PWR_FLAG_VOSRDY)) {}
 8000dd8:	4b34      	ldr	r3, [pc, #208]	; (8000eac <SystemClock_Config+0x11c>)
 8000dda:	699b      	ldr	r3, [r3, #24]
 8000ddc:	f413 5f00 	tst.w	r3, #8192	; 0x2000
 8000de0:	d0fa      	beq.n	8000dd8 <SystemClock_Config+0x48>
  __HAL_RCC_SYSCFG_CLK_ENABLE();
 8000de2:	4b33      	ldr	r3, [pc, #204]	; (8000eb0 <SystemClock_Config+0x120>)
 8000de4:	f8d3 20f4 	ldr.w	r2, [r3, #244]	; 0xf4
 8000de8:	f042 0202 	orr.w	r2, r2, #2
 8000dec:	f8c3 20f4 	str.w	r2, [r3, #244]	; 0xf4
 8000df0:	f8d3 30f4 	ldr.w	r3, [r3, #244]	; 0xf4
 8000df4:	f003 0302 	and.w	r3, r3, #2
 8000df8:	9301      	str	r3, [sp, #4]
 8000dfa:	9b01      	ldr	r3, [sp, #4]
  __HAL_PWR_VOLTAGESCALING_CONFIG(PWR_REGULATOR_VOLTAGE_SCALE0);
 8000dfc:	2300      	movs	r3, #0
 8000dfe:	9302      	str	r3, [sp, #8]
 8000e00:	4b2a      	ldr	r3, [pc, #168]	; (8000eac <SystemClock_Config+0x11c>)
 8000e02:	699a      	ldr	r2, [r3, #24]
 8000e04:	f442 4240 	orr.w	r2, r2, #49152	; 0xc000
 8000e08:	619a      	str	r2, [r3, #24]
 8000e0a:	699b      	ldr	r3, [r3, #24]
 8000e0c:	f403 4340 	and.w	r3, r3, #49152	; 0xc000
 8000e10:	9302      	str	r3, [sp, #8]
 8000e12:	4b25      	ldr	r3, [pc, #148]	; (8000ea8 <SystemClock_Config+0x118>)
 8000e14:	6ada      	ldr	r2, [r3, #44]	; 0x2c
 8000e16:	f042 0201 	orr.w	r2, r2, #1
 8000e1a:	62da      	str	r2, [r3, #44]	; 0x2c
 8000e1c:	6adb      	ldr	r3, [r3, #44]	; 0x2c
 8000e1e:	f003 0301 	and.w	r3, r3, #1
 8000e22:	9302      	str	r3, [sp, #8]
 8000e24:	9b02      	ldr	r3, [sp, #8]
  while(!__HAL_PWR_GET_FLAG(PWR_FLAG_VOSRDY)) {}
 8000e26:	4b21      	ldr	r3, [pc, #132]	; (8000eac <SystemClock_Config+0x11c>)
 8000e28:	699b      	ldr	r3, [r3, #24]
 8000e2a:	f413 5f00 	tst.w	r3, #8192	; 0x2000
 8000e2e:	d0fa      	beq.n	8000e26 <SystemClock_Config+0x96>
  __HAL_RCC_PLL_PLLSOURCE_CONFIG(RCC_PLLSOURCE_HSE);
 8000e30:	4a1f      	ldr	r2, [pc, #124]	; (8000eb0 <SystemClock_Config+0x120>)
 8000e32:	6a93      	ldr	r3, [r2, #40]	; 0x28
 8000e34:	f023 0303 	bic.w	r3, r3, #3
 8000e38:	f043 0302 	orr.w	r3, r3, #2
 8000e3c:	6293      	str	r3, [r2, #40]	; 0x28
  RCC_OscInitStruct.OscillatorType = RCC_OSCILLATORTYPE_HSE;
 8000e3e:	2201      	movs	r2, #1
 8000e40:	920b      	str	r2, [sp, #44]	; 0x2c
  RCC_OscInitStruct.HSEState = RCC_HSE_ON;
 8000e42:	f44f 3380 	mov.w	r3, #65536	; 0x10000
 8000e46:	930c      	str	r3, [sp, #48]	; 0x30
  RCC_OscInitStruct.PLL.PLLState = RCC_PLL_ON;
 8000e48:	2302      	movs	r3, #2
 8000e4a:	9314      	str	r3, [sp, #80]	; 0x50
  RCC_OscInitStruct.PLL.PLLSource = RCC_PLLSOURCE_HSE;
 8000e4c:	9315      	str	r3, [sp, #84]	; 0x54
  RCC_OscInitStruct.PLL.PLLM = 1;
 8000e4e:	9216      	str	r2, [sp, #88]	; 0x58
  RCC_OscInitStruct.PLL.PLLN = 60;
 8000e50:	223c      	movs	r2, #60	; 0x3c
 8000e52:	9217      	str	r2, [sp, #92]	; 0x5c
  RCC_OscInitStruct.PLL.PLLP = 2;
 8000e54:	9318      	str	r3, [sp, #96]	; 0x60
  RCC_OscInitStruct.PLL.PLLQ = 6;
 8000e56:	2306      	movs	r3, #6
 8000e58:	9319      	str	r3, [sp, #100]	; 0x64
  RCC_OscInitStruct.PLL.PLLR = 8;
 8000e5a:	2308      	movs	r3, #8
 8000e5c:	931a      	str	r3, [sp, #104]	; 0x68
  RCC_OscInitStruct.PLL.PLLRGE = RCC_PLL1VCIRANGE_3;
 8000e5e:	230c      	movs	r3, #12
 8000e60:	931b      	str	r3, [sp, #108]	; 0x6c
  RCC_OscInitStruct.PLL.PLLVCOSEL = RCC_PLL1VCOWIDE;
 8000e62:	2300      	movs	r3, #0
 8000e64:	931c      	str	r3, [sp, #112]	; 0x70
  RCC_OscInitStruct.PLL.PLLFRACN = 0;
 8000e66:	931d      	str	r3, [sp, #116]	; 0x74
  if (HAL_RCC_OscConfig(&RCC_OscInitStruct) != HAL_OK)
 8000e68:	a80b      	add	r0, sp, #44	; 0x2c
 8000e6a:	f001 febb 	bl	8002be4 <HAL_RCC_OscConfig>
 8000e6e:	b9b0      	cbnz	r0, 8000e9e <SystemClock_Config+0x10e>
  RCC_ClkInitStruct.ClockType = RCC_CLOCKTYPE_HCLK|RCC_CLOCKTYPE_SYSCLK
 8000e70:	233f      	movs	r3, #63	; 0x3f
 8000e72:	9303      	str	r3, [sp, #12]
  RCC_ClkInitStruct.SYSCLKSource = RCC_SYSCLKSOURCE_PLLCLK;
 8000e74:	2303      	movs	r3, #3
 8000e76:	9304      	str	r3, [sp, #16]
  RCC_ClkInitStruct.SYSCLKDivider = RCC_SYSCLK_DIV1;
 8000e78:	2300      	movs	r3, #0
 8000e7a:	9305      	str	r3, [sp, #20]
  RCC_ClkInitStruct.AHBCLKDivider = RCC_HCLK_DIV2;
 8000e7c:	2308      	movs	r3, #8
 8000e7e:	9306      	str	r3, [sp, #24]
  RCC_ClkInitStruct.APB3CLKDivider = RCC_APB3_DIV2;
 8000e80:	2340      	movs	r3, #64	; 0x40
 8000e82:	9307      	str	r3, [sp, #28]
  RCC_ClkInitStruct.APB1CLKDivider = RCC_APB1_DIV2;
 8000e84:	9308      	str	r3, [sp, #32]
  RCC_ClkInitStruct.APB2CLKDivider = RCC_APB2_DIV2;
 8000e86:	f44f 6280 	mov.w	r2, #1024	; 0x400
 8000e8a:	9209      	str	r2, [sp, #36]	; 0x24
  RCC_ClkInitStruct.APB4CLKDivider = RCC_APB4_DIV2;
 8000e8c:	930a      	str	r3, [sp, #40]	; 0x28
  if (HAL_RCC_ClockConfig(&RCC_ClkInitStruct, FLASH_LATENCY_4) != HAL_OK)
 8000e8e:	2104      	movs	r1, #4
 8000e90:	a803      	add	r0, sp, #12
 8000e92:	f002 fafb 	bl	800348c <HAL_RCC_ClockConfig>
 8000e96:	b920      	cbnz	r0, 8000ea2 <SystemClock_Config+0x112>
}
 8000e98:	b01f      	add	sp, #124	; 0x7c
 8000e9a:	f85d fb04 	ldr.w	pc, [sp], #4
    Error_Handler();
 8000e9e:	f7ff ff75 	bl	8000d8c <Error_Handler>
    Error_Handler();
 8000ea2:	f7ff ff73 	bl	8000d8c <Error_Handler>
 8000ea6:	bf00      	nop
 8000ea8:	58000400 	.word	0x58000400
 8000eac:	58024800 	.word	0x58024800
 8000eb0:	58024400 	.word	0x58024400

08000eb4 <main>:
{
 8000eb4:	b570      	push	{r4, r5, r6, lr}
 8000eb6:	b088      	sub	sp, #32
  HAL_Init();
 8000eb8:	f000 fbca 	bl	8001650 <HAL_Init>
  SystemClock_Config();
 8000ebc:	f7ff ff68 	bl	8000d90 <SystemClock_Config>
  MX_GPIO_Init();
 8000ec0:	f7ff fa0a 	bl	80002d8 <MX_GPIO_Init>
  MX_QUADSPI_Init();
 8000ec4:	f000 f936 	bl	8001134 <MX_QUADSPI_Init>
     PWR->CR1 |= PWR_CR1_DBP;
 8000ec8:	4a89      	ldr	r2, [pc, #548]	; (80010f0 <main+0x23c>)
 8000eca:	6813      	ldr	r3, [r2, #0]
 8000ecc:	f443 7380 	orr.w	r3, r3, #256	; 0x100
 8000ed0:	6013      	str	r3, [r2, #0]
     while((PWR->CR1 & PWR_CR1_DBP) == RESET)
 8000ed2:	4b87      	ldr	r3, [pc, #540]	; (80010f0 <main+0x23c>)
 8000ed4:	681b      	ldr	r3, [r3, #0]
 8000ed6:	f413 7f80 	tst.w	r3, #256	; 0x100
 8000eda:	d0fa      	beq.n	8000ed2 <main+0x1e>
     __HAL_RCC_BKPRAM_CLK_ENABLE();
 8000edc:	4b85      	ldr	r3, [pc, #532]	; (80010f4 <main+0x240>)
 8000ede:	f8d3 20e0 	ldr.w	r2, [r3, #224]	; 0xe0
 8000ee2:	f042 5280 	orr.w	r2, r2, #268435456	; 0x10000000
 8000ee6:	f8c3 20e0 	str.w	r2, [r3, #224]	; 0xe0
 8000eea:	f8d3 30e0 	ldr.w	r3, [r3, #224]	; 0xe0
 8000eee:	f003 5380 	and.w	r3, r3, #268435456	; 0x10000000
 8000ef2:	9302      	str	r3, [sp, #8]
 8000ef4:	9b02      	ldr	r3, [sp, #8]
 	int bit0 = HAL_GPIO_ReadPin(GPIOB, GPIO_PIN_15);
 8000ef6:	4d80      	ldr	r5, [pc, #512]	; (80010f8 <main+0x244>)
 8000ef8:	f44f 4100 	mov.w	r1, #32768	; 0x8000
 8000efc:	4628      	mov	r0, r5
 8000efe:	f000 fe47 	bl	8001b90 <HAL_GPIO_ReadPin>
 8000f02:	4604      	mov	r4, r0
 	int bit1 = HAL_GPIO_ReadPin(GPIOB, GPIO_PIN_14);
 8000f04:	f44f 4180 	mov.w	r1, #16384	; 0x4000
 8000f08:	4628      	mov	r0, r5
 8000f0a:	f000 fe41 	bl	8001b90 <HAL_GPIO_ReadPin>
 8000f0e:	4605      	mov	r5, r0
 	int bit2 = HAL_GPIO_ReadPin(GPIOA, GPIO_PIN_2);
 8000f10:	2104      	movs	r1, #4
 8000f12:	487a      	ldr	r0, [pc, #488]	; (80010fc <main+0x248>)
 8000f14:	f000 fe3c 	bl	8001b90 <HAL_GPIO_ReadPin>
 	boardNumber = ((bit0 << 1)+(bit1 << 2)+(bit2));
 8000f18:	0063      	lsls	r3, r4, #1
 8000f1a:	b2db      	uxtb	r3, r3
 8000f1c:	00aa      	lsls	r2, r5, #2
 8000f1e:	b2d2      	uxtb	r2, r2
 8000f20:	4413      	add	r3, r2
 8000f22:	b2db      	uxtb	r3, r3
 8000f24:	4403      	add	r3, r0
 8000f26:	b2db      	uxtb	r3, r3
 8000f28:	4a75      	ldr	r2, [pc, #468]	; (8001100 <main+0x24c>)
 8000f2a:	7013      	strb	r3, [r2, #0]
 	if (boardNumber == 0)
 8000f2c:	b163      	cbz	r3, 8000f48 <main+0x94>
	  qspi_initialize(INDIRECT_POLLING);
 8000f2e:	2000      	movs	r0, #0
 8000f30:	f7ff fd10 	bl	8000954 <qspi_initialize>
     if (HAL_GPIO_ReadPin(GPIOB, GPIO_PIN_6) == 0)
 8000f34:	2140      	movs	r1, #64	; 0x40
 8000f36:	4870      	ldr	r0, [pc, #448]	; (80010f8 <main+0x244>)
 8000f38:	f000 fe2a 	bl	8001b90 <HAL_GPIO_ReadPin>
 8000f3c:	b158      	cbz	r0, 8000f56 <main+0xa2>
    	 bootloader_button_pressed = 0;
 8000f3e:	4b71      	ldr	r3, [pc, #452]	; (8001104 <main+0x250>)
 8000f40:	2200      	movs	r2, #0
 8000f42:	701a      	strb	r2, [r3, #0]
    	 int i = 6;
 8000f44:	2406      	movs	r4, #6
		  while(i--)
 8000f46:	e09c      	b.n	8001082 <main+0x1ce>
 		HAL_GPIO_WritePin(GPIOB, GPIO_PIN_12, GPIO_PIN_RESET);
 8000f48:	2200      	movs	r2, #0
 8000f4a:	f44f 5180 	mov.w	r1, #4096	; 0x1000
 8000f4e:	486a      	ldr	r0, [pc, #424]	; (80010f8 <main+0x244>)
 8000f50:	f000 fe25 	bl	8001b9e <HAL_GPIO_WritePin>
 8000f54:	e7eb      	b.n	8000f2e <main+0x7a>
    	 bootloader_button_pressed = 1;
 8000f56:	2401      	movs	r4, #1
 8000f58:	4b6a      	ldr	r3, [pc, #424]	; (8001104 <main+0x250>)
 8000f5a:	701c      	strb	r4, [r3, #0]
    		  MX_I2C1_Init();
 8000f5c:	f7ff fae4 	bl	8000528 <MX_I2C1_Init>
    		  MX_SDMMC1_SD_Init();
 8000f60:	f000 f99e 	bl	80012a0 <MX_SDMMC1_SD_Init>
    		  MX_FATFS_Init();
 8000f64:	f005 fd24 	bl	80069b0 <MX_FATFS_Init>
    		  GPIO_InitTypeDef GPIO_InitStruct = {0};
 8000f68:	2300      	movs	r3, #0
 8000f6a:	9303      	str	r3, [sp, #12]
 8000f6c:	9304      	str	r3, [sp, #16]
 8000f6e:	9305      	str	r3, [sp, #20]
 8000f70:	9306      	str	r3, [sp, #24]
 8000f72:	9307      	str	r3, [sp, #28]
    		  GPIO_InitStruct.Pin = GPIO_PIN_12;
 8000f74:	f44f 5680 	mov.w	r6, #4096	; 0x1000
 8000f78:	9603      	str	r6, [sp, #12]
    		  GPIO_InitStruct.Mode = GPIO_MODE_OUTPUT_PP;
 8000f7a:	9404      	str	r4, [sp, #16]
    		  GPIO_InitStruct.Pull = GPIO_PULLDOWN;
 8000f7c:	2302      	movs	r3, #2
 8000f7e:	9305      	str	r3, [sp, #20]
    		  HAL_GPIO_Init(GPIOB, &GPIO_InitStruct);
 8000f80:	4d5d      	ldr	r5, [pc, #372]	; (80010f8 <main+0x244>)
 8000f82:	a903      	add	r1, sp, #12
 8000f84:	4628      	mov	r0, r5
 8000f86:	f000 fc4b 	bl	8001820 <HAL_GPIO_Init>
    		  HAL_GPIO_WritePin(GPIOB, GPIO_PIN_12, GPIO_PIN_SET);
 8000f8a:	4622      	mov	r2, r4
 8000f8c:	4631      	mov	r1, r6
 8000f8e:	4628      	mov	r0, r5
 8000f90:	f000 fe05 	bl	8001b9e <HAL_GPIO_WritePin>
    		  int i = 6;
 8000f94:	2406      	movs	r4, #6
    	   	  while(i--)
 8000f96:	e007      	b.n	8000fa8 <main+0xf4>
    	   		  HAL_GPIO_TogglePin(GPIOC, GPIO_PIN_7);
 8000f98:	2180      	movs	r1, #128	; 0x80
 8000f9a:	485b      	ldr	r0, [pc, #364]	; (8001108 <main+0x254>)
 8000f9c:	f000 fe05 	bl	8001baa <HAL_GPIO_TogglePin>
    	   		  HAL_Delay(200);
 8000fa0:	20c8      	movs	r0, #200	; 0xc8
 8000fa2:	f000 fb95 	bl	80016d0 <HAL_Delay>
    	   	  while(i--)
 8000fa6:	462c      	mov	r4, r5
 8000fa8:	1e65      	subs	r5, r4, #1
 8000faa:	2c00      	cmp	r4, #0
 8000fac:	d1f4      	bne.n	8000f98 <main+0xe4>
    	 	  if(BSP_SD_IsDetected())
 8000fae:	f7ff fb5b 	bl	8000668 <BSP_SD_IsDetected>
 8000fb2:	b928      	cbnz	r0, 8000fc0 <main+0x10c>
    	 	  if (!memory_already_mapped)
 8000fb4:	4b55      	ldr	r3, [pc, #340]	; (800110c <main+0x258>)
 8000fb6:	781b      	ldrb	r3, [r3, #0]
 8000fb8:	b953      	cbnz	r3, 8000fd0 <main+0x11c>
    	 		  qspi_enable_memory_mapped();
 8000fba:	f7ff fc9d 	bl	80008f8 <qspi_enable_memory_mapped>
 8000fbe:	e007      	b.n	8000fd0 <main+0x11c>
    	 		  FS_FileOperations();
 8000fc0:	f7ff fdfe 	bl	8000bc0 <FS_FileOperations>
 8000fc4:	e7f6      	b.n	8000fb4 <main+0x100>
    	 		  tempBinaryBuffer[i] = flash_mem[i];
 8000fc6:	4b52      	ldr	r3, [pc, #328]	; (8001110 <main+0x25c>)
 8000fc8:	5d1a      	ldrb	r2, [r3, r4]
 8000fca:	4b52      	ldr	r3, [pc, #328]	; (8001114 <main+0x260>)
 8000fcc:	551a      	strb	r2, [r3, r4]
    	 	  for (int i = 0; i < 262144; i++)
 8000fce:	3401      	adds	r4, #1
 8000fd0:	f5b4 2f80 	cmp.w	r4, #262144	; 0x40000
 8000fd4:	dbf7      	blt.n	8000fc6 <main+0x112>
    	 	 HAL_GPIO_WritePin(GPIOB, GPIO_PIN_12, GPIO_PIN_RESET);
 8000fd6:	2200      	movs	r2, #0
 8000fd8:	f44f 5180 	mov.w	r1, #4096	; 0x1000
 8000fdc:	4846      	ldr	r0, [pc, #280]	; (80010f8 <main+0x244>)
 8000fde:	f000 fdde 	bl	8001b9e <HAL_GPIO_WritePin>
    	 	 HAL_Delay(1);
 8000fe2:	2001      	movs	r0, #1
 8000fe4:	f000 fb74 	bl	80016d0 <HAL_Delay>
			HAL_I2C_Master_Transmit(&hi2c1, 0, tempBinaryBuffer, 65535,
 8000fe8:	4c4b      	ldr	r4, [pc, #300]	; (8001118 <main+0x264>)
 8000fea:	f242 7510 	movw	r5, #10000	; 0x2710
 8000fee:	9500      	str	r5, [sp, #0]
 8000ff0:	f64f 73ff 	movw	r3, #65535	; 0xffff
 8000ff4:	4a47      	ldr	r2, [pc, #284]	; (8001114 <main+0x260>)
 8000ff6:	2100      	movs	r1, #0
 8000ff8:	4620      	mov	r0, r4
 8000ffa:	f001 f815 	bl	8002028 <HAL_I2C_Master_Transmit>
			HAL_Delay(100);
 8000ffe:	2064      	movs	r0, #100	; 0x64
 8001000:	f000 fb66 	bl	80016d0 <HAL_Delay>
			HAL_I2C_Master_Transmit(&hi2c1, 0, tempBinaryBuffer+65535, 65535,
 8001004:	9500      	str	r5, [sp, #0]
 8001006:	f64f 73ff 	movw	r3, #65535	; 0xffff
 800100a:	4a44      	ldr	r2, [pc, #272]	; (800111c <main+0x268>)
 800100c:	2100      	movs	r1, #0
 800100e:	4620      	mov	r0, r4
 8001010:	f001 f80a 	bl	8002028 <HAL_I2C_Master_Transmit>
			HAL_Delay(100);
 8001014:	2064      	movs	r0, #100	; 0x64
 8001016:	f000 fb5b 	bl	80016d0 <HAL_Delay>
			HAL_I2C_Master_Transmit(&hi2c1, 0, tempBinaryBuffer+131070, 65535,
 800101a:	9500      	str	r5, [sp, #0]
 800101c:	f64f 73ff 	movw	r3, #65535	; 0xffff
 8001020:	4a3f      	ldr	r2, [pc, #252]	; (8001120 <main+0x26c>)
 8001022:	2100      	movs	r1, #0
 8001024:	4620      	mov	r0, r4
 8001026:	f000 ffff 	bl	8002028 <HAL_I2C_Master_Transmit>
			HAL_Delay(100);
 800102a:	2064      	movs	r0, #100	; 0x64
 800102c:	f000 fb50 	bl	80016d0 <HAL_Delay>
			HAL_I2C_Master_Transmit(&hi2c1, 0, tempBinaryBuffer+196605, 65535,
 8001030:	9500      	str	r5, [sp, #0]
 8001032:	f64f 73ff 	movw	r3, #65535	; 0xffff
 8001036:	4a3b      	ldr	r2, [pc, #236]	; (8001124 <main+0x270>)
 8001038:	2100      	movs	r1, #0
 800103a:	4620      	mov	r0, r4
 800103c:	f000 fff4 	bl	8002028 <HAL_I2C_Master_Transmit>
			HAL_Delay(10000);
 8001040:	4628      	mov	r0, r5
 8001042:	f000 fb45 	bl	80016d0 <HAL_Delay>
    	 	  HAL_QSPI_MspDeInit(&hqspi);
 8001046:	4838      	ldr	r0, [pc, #224]	; (8001128 <main+0x274>)
 8001048:	f000 f90a 	bl	8001260 <HAL_QSPI_MspDeInit>
      	 	  HAL_I2C_DeInit(&hi2c1);
 800104c:	4620      	mov	r0, r4
 800104e:	f000 ffd1 	bl	8001ff4 <HAL_I2C_DeInit>
    	 	  HAL_SD_MspDeInit(&hsd1);
 8001052:	4836      	ldr	r0, [pc, #216]	; (800112c <main+0x278>)
 8001054:	f000 f9b6 	bl	80013c4 <HAL_SD_MspDeInit>
    	 	  HAL_RCC_DeInit();
 8001058:	f001 fcde 	bl	8002a18 <HAL_RCC_DeInit>
    	 	  HAL_DeInit();
 800105c:	f000 fa8e 	bl	800157c <HAL_DeInit>
    	 	  SysTick->CTRL = 0;
 8001060:	f04f 23e0 	mov.w	r3, #3758153728	; 0xe000e000
 8001064:	2200      	movs	r2, #0
 8001066:	611a      	str	r2, [r3, #16]
    	 	  SysTick->LOAD = 0;
 8001068:	615a      	str	r2, [r3, #20]
    	 	  SysTick->VAL  = 0;
 800106a:	619a      	str	r2, [r3, #24]
    	 	  HAL_NVIC_SystemReset();
 800106c:	f000 fbb2 	bl	80017d4 <HAL_NVIC_SystemReset>
  while (1)
 8001070:	e7fe      	b.n	8001070 <main+0x1bc>
			  HAL_GPIO_TogglePin(GPIOC, GPIO_PIN_7);
 8001072:	2180      	movs	r1, #128	; 0x80
 8001074:	4824      	ldr	r0, [pc, #144]	; (8001108 <main+0x254>)
 8001076:	f000 fd98 	bl	8001baa <HAL_GPIO_TogglePin>
			  HAL_Delay(20);
 800107a:	2014      	movs	r0, #20
 800107c:	f000 fb28 	bl	80016d0 <HAL_Delay>
		  while(i--)
 8001080:	462c      	mov	r4, r5
 8001082:	1e65      	subs	r5, r4, #1
 8001084:	2c00      	cmp	r4, #0
 8001086:	d1f4      	bne.n	8001072 <main+0x1be>
		  if (!memory_already_mapped)
 8001088:	4b20      	ldr	r3, [pc, #128]	; (800110c <main+0x258>)
 800108a:	781b      	ldrb	r3, [r3, #0]
 800108c:	b93b      	cbnz	r3, 800109e <main+0x1ea>
			  qspi_enable_memory_mapped();
 800108e:	f7ff fc33 	bl	80008f8 <qspi_enable_memory_mapped>
 8001092:	e004      	b.n	800109e <main+0x1ea>
			  tempBinaryBuffer[i] = flash_mem[i];
 8001094:	4b1e      	ldr	r3, [pc, #120]	; (8001110 <main+0x25c>)
 8001096:	5d1a      	ldrb	r2, [r3, r4]
 8001098:	4b1e      	ldr	r3, [pc, #120]	; (8001114 <main+0x260>)
 800109a:	551a      	strb	r2, [r3, r4]
		  for (int i = 0; i < 262144; i++)
 800109c:	3401      	adds	r4, #1
 800109e:	f5b4 2f80 	cmp.w	r4, #262144	; 0x40000
 80010a2:	dbf7      	blt.n	8001094 <main+0x1e0>
		  HAL_GPIO_TogglePin(GPIOC, GPIO_PIN_7);
 80010a4:	2180      	movs	r1, #128	; 0x80
 80010a6:	4818      	ldr	r0, [pc, #96]	; (8001108 <main+0x254>)
 80010a8:	f000 fd7f 	bl	8001baa <HAL_GPIO_TogglePin>
		  JumpToApplication = (pFunction) (*(__IO uint32_t*) (APPLICATION_ADDRESS+4));
 80010ac:	f04f 5310 	mov.w	r3, #603979776	; 0x24000000
 80010b0:	685b      	ldr	r3, [r3, #4]
 80010b2:	4a1f      	ldr	r2, [pc, #124]	; (8001130 <main+0x27c>)
 80010b4:	6013      	str	r3, [r2, #0]
		  if ((JumpToApplication > 0x30000000) ||  (JumpToApplication < 0x24000000) )
 80010b6:	f103 435c 	add.w	r3, r3, #3690987520	; 0xdc000000
 80010ba:	f1b3 6f40 	cmp.w	r3, #201326592	; 0xc000000
 80010be:	d900      	bls.n	80010c2 <main+0x20e>
			  while(1)
 80010c0:	e7fe      	b.n	80010c0 <main+0x20c>
	 	  HAL_QSPI_MspDeInit(&hqspi);
 80010c2:	4819      	ldr	r0, [pc, #100]	; (8001128 <main+0x274>)
 80010c4:	f000 f8cc 	bl	8001260 <HAL_QSPI_MspDeInit>
		  HAL_RCC_DeInit();
 80010c8:	f001 fca6 	bl	8002a18 <HAL_RCC_DeInit>
		  HAL_DeInit();
 80010cc:	f000 fa56 	bl	800157c <HAL_DeInit>
		  __set_MSP(*(__IO uint32_t*) APPLICATION_ADDRESS);
 80010d0:	f04f 5310 	mov.w	r3, #603979776	; 0x24000000
 80010d4:	681b      	ldr	r3, [r3, #0]
  \details Assigns the given value to the Main Stack Pointer (MSP).
  \param [in]    topOfMainStack  Main Stack Pointer value to set
 */
__STATIC_FORCEINLINE void __set_MSP(uint32_t topOfMainStack)
{
  __ASM volatile ("MSR msp, %0" : : "r" (topOfMainStack) : );
 80010d6:	f383 8808 	msr	MSP, r3
  __ASM volatile ("cpsid i" : : : "memory");
 80010da:	b672      	cpsid	i
		  SysTick->CTRL = 0;
 80010dc:	f04f 23e0 	mov.w	r3, #3758153728	; 0xe000e000
 80010e0:	2200      	movs	r2, #0
 80010e2:	611a      	str	r2, [r3, #16]
		  SysTick->LOAD = 0;
 80010e4:	615a      	str	r2, [r3, #20]
		  SysTick->VAL  = 0;
 80010e6:	619a      	str	r2, [r3, #24]
		  JumpToApplication();
 80010e8:	4b11      	ldr	r3, [pc, #68]	; (8001130 <main+0x27c>)
 80010ea:	681b      	ldr	r3, [r3, #0]
 80010ec:	4798      	blx	r3
 80010ee:	e7bf      	b.n	8001070 <main+0x1bc>
 80010f0:	58024800 	.word	0x58024800
 80010f4:	58024400 	.word	0x58024400
 80010f8:	58020400 	.word	0x58020400
 80010fc:	58020000 	.word	0x58020000
 8001100:	20000000 	.word	0x20000000
 8001104:	2000008c 	.word	0x2000008c
 8001108:	58020800 	.word	0x58020800
 800110c:	200001e4 	.word	0x200001e4
 8001110:	90000000 	.word	0x90000000
 8001114:	24000000 	.word	0x24000000
 8001118:	20000034 	.word	0x20000034
 800111c:	2400ffff 	.word	0x2400ffff
 8001120:	2401fffe 	.word	0x2401fffe
 8001124:	2402fffd 	.word	0x2402fffd
 8001128:	200001e8 	.word	0x200001e8
 800112c:	20000234 	.word	0x20000234
 8001130:	20000088 	.word	0x20000088

08001134 <MX_QUADSPI_Init>:

QSPI_HandleTypeDef hqspi;

/* QUADSPI init function */
void MX_QUADSPI_Init(void)
{
 8001134:	b508      	push	{r3, lr}
  /* USER CODE END QUADSPI_Init 0 */

  /* USER CODE BEGIN QUADSPI_Init 1 */

  /* USER CODE END QUADSPI_Init 1 */
  hqspi.Instance = QUADSPI;
 8001136:	480a      	ldr	r0, [pc, #40]	; (8001160 <MX_QUADSPI_Init+0x2c>)
 8001138:	4b0a      	ldr	r3, [pc, #40]	; (8001164 <MX_QUADSPI_Init+0x30>)
 800113a:	6003      	str	r3, [r0, #0]
  hqspi.Init.ClockPrescaler = 1;
 800113c:	2301      	movs	r3, #1
 800113e:	6043      	str	r3, [r0, #4]
  hqspi.Init.FifoThreshold = 1;
 8001140:	6083      	str	r3, [r0, #8]
  hqspi.Init.SampleShifting = QSPI_SAMPLE_SHIFTING_NONE;
 8001142:	2300      	movs	r3, #0
 8001144:	60c3      	str	r3, [r0, #12]
  hqspi.Init.FlashSize = 19;
 8001146:	2213      	movs	r2, #19
 8001148:	6102      	str	r2, [r0, #16]
  hqspi.Init.ChipSelectHighTime = QSPI_CS_HIGH_TIME_1_CYCLE;
 800114a:	6143      	str	r3, [r0, #20]
  hqspi.Init.ClockMode = QSPI_CLOCK_MODE_0;
 800114c:	6183      	str	r3, [r0, #24]
  hqspi.Init.FlashID = QSPI_FLASH_ID_1;
 800114e:	61c3      	str	r3, [r0, #28]
  hqspi.Init.DualFlash = QSPI_DUALFLASH_DISABLE;
 8001150:	6203      	str	r3, [r0, #32]
  if (HAL_QSPI_Init(&hqspi) != HAL_OK)
 8001152:	f001 fc0d 	bl	8002970 <HAL_QSPI_Init>
 8001156:	b900      	cbnz	r0, 800115a <MX_QUADSPI_Init+0x26>
  }
  /* USER CODE BEGIN QUADSPI_Init 2 */

  /* USER CODE END QUADSPI_Init 2 */

}
 8001158:	bd08      	pop	{r3, pc}
    Error_Handler();
 800115a:	f7ff fe17 	bl	8000d8c <Error_Handler>
}
 800115e:	e7fb      	b.n	8001158 <MX_QUADSPI_Init+0x24>
 8001160:	200001e8 	.word	0x200001e8
 8001164:	52005000 	.word	0x52005000

08001168 <HAL_QSPI_MspInit>:

void HAL_QSPI_MspInit(QSPI_HandleTypeDef* qspiHandle)
{
 8001168:	e92d 41f0 	stmdb	sp!, {r4, r5, r6, r7, r8, lr}
 800116c:	b0ba      	sub	sp, #232	; 0xe8
 800116e:	4604      	mov	r4, r0

  GPIO_InitTypeDef GPIO_InitStruct = {0};
 8001170:	2100      	movs	r1, #0
 8001172:	9135      	str	r1, [sp, #212]	; 0xd4
 8001174:	9136      	str	r1, [sp, #216]	; 0xd8
 8001176:	9137      	str	r1, [sp, #220]	; 0xdc
 8001178:	9138      	str	r1, [sp, #224]	; 0xe0
 800117a:	9139      	str	r1, [sp, #228]	; 0xe4
  RCC_PeriphCLKInitTypeDef PeriphClkInitStruct = {0};
 800117c:	22c0      	movs	r2, #192	; 0xc0
 800117e:	a804      	add	r0, sp, #16
 8001180:	f007 fc88 	bl	8008a94 <memset>
  if(qspiHandle->Instance==QUADSPI)
 8001184:	6822      	ldr	r2, [r4, #0]
 8001186:	4b32      	ldr	r3, [pc, #200]	; (8001250 <HAL_QSPI_MspInit+0xe8>)
 8001188:	429a      	cmp	r2, r3
 800118a:	d002      	beq.n	8001192 <HAL_QSPI_MspInit+0x2a>

  /* USER CODE BEGIN QUADSPI_MspInit 1 */

  /* USER CODE END QUADSPI_MspInit 1 */
  }
}
 800118c:	b03a      	add	sp, #232	; 0xe8
 800118e:	e8bd 81f0 	ldmia.w	sp!, {r4, r5, r6, r7, r8, pc}
    PeriphClkInitStruct.PeriphClockSelection = RCC_PERIPHCLK_QSPI;
 8001192:	f04f 7200 	mov.w	r2, #33554432	; 0x2000000
 8001196:	2300      	movs	r3, #0
 8001198:	e9cd 2304 	strd	r2, r3, [sp, #16]
    PeriphClkInitStruct.QspiClockSelection = RCC_QSPICLKSOURCE_PLL;
 800119c:	2310      	movs	r3, #16
 800119e:	9317      	str	r3, [sp, #92]	; 0x5c
    if (HAL_RCCEx_PeriphCLKConfig(&PeriphClkInitStruct) != HAL_OK)
 80011a0:	eb0d 0003 	add.w	r0, sp, r3
 80011a4:	f002 fbfc 	bl	80039a0 <HAL_RCCEx_PeriphCLKConfig>
 80011a8:	2800      	cmp	r0, #0
 80011aa:	d14e      	bne.n	800124a <HAL_QSPI_MspInit+0xe2>
    __HAL_RCC_QSPI_CLK_ENABLE();
 80011ac:	4b29      	ldr	r3, [pc, #164]	; (8001254 <HAL_QSPI_MspInit+0xec>)
 80011ae:	f8d3 20d4 	ldr.w	r2, [r3, #212]	; 0xd4
 80011b2:	f442 4280 	orr.w	r2, r2, #16384	; 0x4000
 80011b6:	f8c3 20d4 	str.w	r2, [r3, #212]	; 0xd4
 80011ba:	f8d3 20d4 	ldr.w	r2, [r3, #212]	; 0xd4
 80011be:	f402 4280 	and.w	r2, r2, #16384	; 0x4000
 80011c2:	9201      	str	r2, [sp, #4]
 80011c4:	9a01      	ldr	r2, [sp, #4]
    __HAL_RCC_GPIOG_CLK_ENABLE();
 80011c6:	f8d3 20e0 	ldr.w	r2, [r3, #224]	; 0xe0
 80011ca:	f042 0240 	orr.w	r2, r2, #64	; 0x40
 80011ce:	f8c3 20e0 	str.w	r2, [r3, #224]	; 0xe0
 80011d2:	f8d3 20e0 	ldr.w	r2, [r3, #224]	; 0xe0
 80011d6:	f002 0240 	and.w	r2, r2, #64	; 0x40
 80011da:	9202      	str	r2, [sp, #8]
 80011dc:	9a02      	ldr	r2, [sp, #8]
    __HAL_RCC_GPIOF_CLK_ENABLE();
 80011de:	f8d3 20e0 	ldr.w	r2, [r3, #224]	; 0xe0
 80011e2:	f042 0220 	orr.w	r2, r2, #32
 80011e6:	f8c3 20e0 	str.w	r2, [r3, #224]	; 0xe0
 80011ea:	f8d3 30e0 	ldr.w	r3, [r3, #224]	; 0xe0
 80011ee:	f003 0320 	and.w	r3, r3, #32
 80011f2:	9303      	str	r3, [sp, #12]
 80011f4:	9b03      	ldr	r3, [sp, #12]
    GPIO_InitStruct.Pin = GPIO_PIN_6;
 80011f6:	2340      	movs	r3, #64	; 0x40
 80011f8:	9335      	str	r3, [sp, #212]	; 0xd4
    GPIO_InitStruct.Mode = GPIO_MODE_AF_PP;
 80011fa:	2602      	movs	r6, #2
 80011fc:	9636      	str	r6, [sp, #216]	; 0xd8
    GPIO_InitStruct.Pull = GPIO_NOPULL;
 80011fe:	2500      	movs	r5, #0
 8001200:	9537      	str	r5, [sp, #220]	; 0xdc
    GPIO_InitStruct.Speed = GPIO_SPEED_FREQ_VERY_HIGH;
 8001202:	2403      	movs	r4, #3
 8001204:	9438      	str	r4, [sp, #224]	; 0xe0
    GPIO_InitStruct.Alternate = GPIO_AF10_QUADSPI;
 8001206:	f04f 080a 	mov.w	r8, #10
 800120a:	f8cd 80e4 	str.w	r8, [sp, #228]	; 0xe4
    HAL_GPIO_Init(GPIOG, &GPIO_InitStruct);
 800120e:	a935      	add	r1, sp, #212	; 0xd4
 8001210:	4811      	ldr	r0, [pc, #68]	; (8001258 <HAL_QSPI_MspInit+0xf0>)
 8001212:	f000 fb05 	bl	8001820 <HAL_GPIO_Init>
    GPIO_InitStruct.Pin = GPIO_PIN_7|GPIO_PIN_6|GPIO_PIN_10;
 8001216:	f44f 6398 	mov.w	r3, #1216	; 0x4c0
 800121a:	9335      	str	r3, [sp, #212]	; 0xd4
    GPIO_InitStruct.Mode = GPIO_MODE_AF_PP;
 800121c:	9636      	str	r6, [sp, #216]	; 0xd8
    GPIO_InitStruct.Pull = GPIO_NOPULL;
 800121e:	9537      	str	r5, [sp, #220]	; 0xdc
    GPIO_InitStruct.Speed = GPIO_SPEED_FREQ_VERY_HIGH;
 8001220:	9438      	str	r4, [sp, #224]	; 0xe0
    GPIO_InitStruct.Alternate = GPIO_AF9_QUADSPI;
 8001222:	2309      	movs	r3, #9
 8001224:	9339      	str	r3, [sp, #228]	; 0xe4
    HAL_GPIO_Init(GPIOF, &GPIO_InitStruct);
 8001226:	4f0d      	ldr	r7, [pc, #52]	; (800125c <HAL_QSPI_MspInit+0xf4>)
 8001228:	a935      	add	r1, sp, #212	; 0xd4
 800122a:	4638      	mov	r0, r7
 800122c:	f000 faf8 	bl	8001820 <HAL_GPIO_Init>
    GPIO_InitStruct.Pin = GPIO_PIN_9|GPIO_PIN_8;
 8001230:	f44f 7340 	mov.w	r3, #768	; 0x300
 8001234:	9335      	str	r3, [sp, #212]	; 0xd4
    GPIO_InitStruct.Mode = GPIO_MODE_AF_PP;
 8001236:	9636      	str	r6, [sp, #216]	; 0xd8
    GPIO_InitStruct.Pull = GPIO_NOPULL;
 8001238:	9537      	str	r5, [sp, #220]	; 0xdc
    GPIO_InitStruct.Speed = GPIO_SPEED_FREQ_VERY_HIGH;
 800123a:	9438      	str	r4, [sp, #224]	; 0xe0
    GPIO_InitStruct.Alternate = GPIO_AF10_QUADSPI;
 800123c:	f8cd 80e4 	str.w	r8, [sp, #228]	; 0xe4
    HAL_GPIO_Init(GPIOF, &GPIO_InitStruct);
 8001240:	a935      	add	r1, sp, #212	; 0xd4
 8001242:	4638      	mov	r0, r7
 8001244:	f000 faec 	bl	8001820 <HAL_GPIO_Init>
}
 8001248:	e7a0      	b.n	800118c <HAL_QSPI_MspInit+0x24>
      Error_Handler();
 800124a:	f7ff fd9f 	bl	8000d8c <Error_Handler>
 800124e:	e7ad      	b.n	80011ac <HAL_QSPI_MspInit+0x44>
 8001250:	52005000 	.word	0x52005000
 8001254:	58024400 	.word	0x58024400
 8001258:	58021800 	.word	0x58021800
 800125c:	58021400 	.word	0x58021400

08001260 <HAL_QSPI_MspDeInit>:

void HAL_QSPI_MspDeInit(QSPI_HandleTypeDef* qspiHandle)
{
 8001260:	b508      	push	{r3, lr}

  if(qspiHandle->Instance==QUADSPI)
 8001262:	6802      	ldr	r2, [r0, #0]
 8001264:	4b0a      	ldr	r3, [pc, #40]	; (8001290 <HAL_QSPI_MspDeInit+0x30>)
 8001266:	429a      	cmp	r2, r3
 8001268:	d000      	beq.n	800126c <HAL_QSPI_MspDeInit+0xc>

  /* USER CODE BEGIN QUADSPI_MspDeInit 1 */

  /* USER CODE END QUADSPI_MspDeInit 1 */
  }
}
 800126a:	bd08      	pop	{r3, pc}
    __HAL_RCC_QSPI_CLK_DISABLE();
 800126c:	4a09      	ldr	r2, [pc, #36]	; (8001294 <HAL_QSPI_MspDeInit+0x34>)
 800126e:	f8d2 30d4 	ldr.w	r3, [r2, #212]	; 0xd4
 8001272:	f423 4380 	bic.w	r3, r3, #16384	; 0x4000
 8001276:	f8c2 30d4 	str.w	r3, [r2, #212]	; 0xd4
    HAL_GPIO_DeInit(GPIOG, GPIO_PIN_6);
 800127a:	2140      	movs	r1, #64	; 0x40
 800127c:	4806      	ldr	r0, [pc, #24]	; (8001298 <HAL_QSPI_MspDeInit+0x38>)
 800127e:	f000 fbdf 	bl	8001a40 <HAL_GPIO_DeInit>
    HAL_GPIO_DeInit(GPIOF, GPIO_PIN_7|GPIO_PIN_6|GPIO_PIN_10|GPIO_PIN_9
 8001282:	f44f 61f8 	mov.w	r1, #1984	; 0x7c0
 8001286:	4805      	ldr	r0, [pc, #20]	; (800129c <HAL_QSPI_MspDeInit+0x3c>)
 8001288:	f000 fbda 	bl	8001a40 <HAL_GPIO_DeInit>
}
 800128c:	e7ed      	b.n	800126a <HAL_QSPI_MspDeInit+0xa>
 800128e:	bf00      	nop
 8001290:	52005000 	.word	0x52005000
 8001294:	58024400 	.word	0x58024400
 8001298:	58021800 	.word	0x58021800
 800129c:	58021400 	.word	0x58021400

080012a0 <MX_SDMMC1_SD_Init>:
  /* USER CODE END SDMMC1_Init 0 */

  /* USER CODE BEGIN SDMMC1_Init 1 */

  /* USER CODE END SDMMC1_Init 1 */
  hsd1.Instance = SDMMC1;
 80012a0:	4b06      	ldr	r3, [pc, #24]	; (80012bc <MX_SDMMC1_SD_Init+0x1c>)
 80012a2:	4a07      	ldr	r2, [pc, #28]	; (80012c0 <MX_SDMMC1_SD_Init+0x20>)
 80012a4:	601a      	str	r2, [r3, #0]
  hsd1.Init.ClockEdge = SDMMC_CLOCK_EDGE_RISING;
 80012a6:	2200      	movs	r2, #0
 80012a8:	605a      	str	r2, [r3, #4]
  hsd1.Init.ClockPowerSave = SDMMC_CLOCK_POWER_SAVE_DISABLE;
 80012aa:	609a      	str	r2, [r3, #8]
  hsd1.Init.BusWide = SDMMC_BUS_WIDE_4B;
 80012ac:	f44f 4180 	mov.w	r1, #16384	; 0x4000
 80012b0:	60d9      	str	r1, [r3, #12]
  hsd1.Init.HardwareFlowControl = SDMMC_HARDWARE_FLOW_CONTROL_DISABLE;
 80012b2:	611a      	str	r2, [r3, #16]
  hsd1.Init.ClockDiv = 25;
 80012b4:	2219      	movs	r2, #25
 80012b6:	615a      	str	r2, [r3, #20]
  /* USER CODE BEGIN SDMMC1_Init 2 */

  /* USER CODE END SDMMC1_Init 2 */

}
 80012b8:	4770      	bx	lr
 80012ba:	bf00      	nop
 80012bc:	20000234 	.word	0x20000234
 80012c0:	52007000 	.word	0x52007000

080012c4 <HAL_SD_MspInit>:

void HAL_SD_MspInit(SD_HandleTypeDef* sdHandle)
{
 80012c4:	b5f0      	push	{r4, r5, r6, r7, lr}
 80012c6:	b0bb      	sub	sp, #236	; 0xec
 80012c8:	4604      	mov	r4, r0

  GPIO_InitTypeDef GPIO_InitStruct = {0};
 80012ca:	2100      	movs	r1, #0
 80012cc:	9135      	str	r1, [sp, #212]	; 0xd4
 80012ce:	9136      	str	r1, [sp, #216]	; 0xd8
 80012d0:	9137      	str	r1, [sp, #220]	; 0xdc
 80012d2:	9138      	str	r1, [sp, #224]	; 0xe0
 80012d4:	9139      	str	r1, [sp, #228]	; 0xe4
  RCC_PeriphCLKInitTypeDef PeriphClkInitStruct = {0};
 80012d6:	22c0      	movs	r2, #192	; 0xc0
 80012d8:	a804      	add	r0, sp, #16
 80012da:	f007 fbdb 	bl	8008a94 <memset>
  if(sdHandle->Instance==SDMMC1)
 80012de:	6822      	ldr	r2, [r4, #0]
 80012e0:	4b34      	ldr	r3, [pc, #208]	; (80013b4 <HAL_SD_MspInit+0xf0>)
 80012e2:	429a      	cmp	r2, r3
 80012e4:	d001      	beq.n	80012ea <HAL_SD_MspInit+0x26>
    HAL_NVIC_EnableIRQ(SDMMC1_IRQn);
  /* USER CODE BEGIN SDMMC1_MspInit 1 */

  /* USER CODE END SDMMC1_MspInit 1 */
  }
}
 80012e6:	b03b      	add	sp, #236	; 0xec
 80012e8:	bdf0      	pop	{r4, r5, r6, r7, pc}
    PeriphClkInitStruct.PeriphClockSelection = RCC_PERIPHCLK_SDMMC;
 80012ea:	f44f 3280 	mov.w	r2, #65536	; 0x10000
 80012ee:	2300      	movs	r3, #0
 80012f0:	e9cd 2304 	strd	r2, r3, [sp, #16]
    PeriphClkInitStruct.PLL2.PLL2M = 1;
 80012f4:	2301      	movs	r3, #1
 80012f6:	9306      	str	r3, [sp, #24]
    PeriphClkInitStruct.PLL2.PLL2N = 12;
 80012f8:	230c      	movs	r3, #12
 80012fa:	9307      	str	r3, [sp, #28]
    PeriphClkInitStruct.PLL2.PLL2P = 8;
 80012fc:	2308      	movs	r3, #8
 80012fe:	9308      	str	r3, [sp, #32]
    PeriphClkInitStruct.PLL2.PLL2Q = 2;
 8001300:	2302      	movs	r3, #2
 8001302:	9309      	str	r3, [sp, #36]	; 0x24
    PeriphClkInitStruct.PLL2.PLL2R = 2;
 8001304:	930a      	str	r3, [sp, #40]	; 0x28
    PeriphClkInitStruct.PLL2.PLL2RGE = RCC_PLL2VCIRANGE_3;
 8001306:	23c0      	movs	r3, #192	; 0xc0
 8001308:	930b      	str	r3, [sp, #44]	; 0x2c
    PeriphClkInitStruct.PLL2.PLL2FRACN = 4096;
 800130a:	f44f 5380 	mov.w	r3, #4096	; 0x1000
 800130e:	930d      	str	r3, [sp, #52]	; 0x34
    PeriphClkInitStruct.SdmmcClockSelection = RCC_SDMMCCLKSOURCE_PLL2;
 8001310:	f44f 3380 	mov.w	r3, #65536	; 0x10000
 8001314:	9318      	str	r3, [sp, #96]	; 0x60
    if (HAL_RCCEx_PeriphCLKConfig(&PeriphClkInitStruct) != HAL_OK)
 8001316:	a804      	add	r0, sp, #16
 8001318:	f002 fb42 	bl	80039a0 <HAL_RCCEx_PeriphCLKConfig>
 800131c:	2800      	cmp	r0, #0
 800131e:	d146      	bne.n	80013ae <HAL_SD_MspInit+0xea>
    __HAL_RCC_SDMMC1_CLK_ENABLE();
 8001320:	4b25      	ldr	r3, [pc, #148]	; (80013b8 <HAL_SD_MspInit+0xf4>)
 8001322:	f8d3 20d4 	ldr.w	r2, [r3, #212]	; 0xd4
 8001326:	f442 3280 	orr.w	r2, r2, #65536	; 0x10000
 800132a:	f8c3 20d4 	str.w	r2, [r3, #212]	; 0xd4
 800132e:	f8d3 20d4 	ldr.w	r2, [r3, #212]	; 0xd4
 8001332:	f402 3280 	and.w	r2, r2, #65536	; 0x10000
 8001336:	9201      	str	r2, [sp, #4]
 8001338:	9a01      	ldr	r2, [sp, #4]
    __HAL_RCC_GPIOC_CLK_ENABLE();
 800133a:	f8d3 20e0 	ldr.w	r2, [r3, #224]	; 0xe0
 800133e:	f042 0204 	orr.w	r2, r2, #4
 8001342:	f8c3 20e0 	str.w	r2, [r3, #224]	; 0xe0
 8001346:	f8d3 20e0 	ldr.w	r2, [r3, #224]	; 0xe0
 800134a:	f002 0204 	and.w	r2, r2, #4
 800134e:	9202      	str	r2, [sp, #8]
 8001350:	9a02      	ldr	r2, [sp, #8]
    __HAL_RCC_GPIOD_CLK_ENABLE();
 8001352:	f8d3 20e0 	ldr.w	r2, [r3, #224]	; 0xe0
 8001356:	f042 0208 	orr.w	r2, r2, #8
 800135a:	f8c3 20e0 	str.w	r2, [r3, #224]	; 0xe0
 800135e:	f8d3 30e0 	ldr.w	r3, [r3, #224]	; 0xe0
 8001362:	f003 0308 	and.w	r3, r3, #8
 8001366:	9303      	str	r3, [sp, #12]
 8001368:	9b03      	ldr	r3, [sp, #12]
    GPIO_InitStruct.Pin = GPIO_PIN_12|GPIO_PIN_11|GPIO_PIN_10|GPIO_PIN_9
 800136a:	f44f 53f8 	mov.w	r3, #7936	; 0x1f00
 800136e:	9335      	str	r3, [sp, #212]	; 0xd4
    GPIO_InitStruct.Mode = GPIO_MODE_AF_PP;
 8001370:	2402      	movs	r4, #2
 8001372:	9436      	str	r4, [sp, #216]	; 0xd8
    GPIO_InitStruct.Pull = GPIO_PULLUP;
 8001374:	2701      	movs	r7, #1
 8001376:	9737      	str	r7, [sp, #220]	; 0xdc
    GPIO_InitStruct.Speed = GPIO_SPEED_FREQ_VERY_HIGH;
 8001378:	2603      	movs	r6, #3
 800137a:	9638      	str	r6, [sp, #224]	; 0xe0
    GPIO_InitStruct.Alternate = GPIO_AF12_SDIO1;
 800137c:	250c      	movs	r5, #12
 800137e:	9539      	str	r5, [sp, #228]	; 0xe4
    HAL_GPIO_Init(GPIOC, &GPIO_InitStruct);
 8001380:	a935      	add	r1, sp, #212	; 0xd4
 8001382:	480e      	ldr	r0, [pc, #56]	; (80013bc <HAL_SD_MspInit+0xf8>)
 8001384:	f000 fa4c 	bl	8001820 <HAL_GPIO_Init>
    GPIO_InitStruct.Pin = GPIO_PIN_2;
 8001388:	2304      	movs	r3, #4
 800138a:	9335      	str	r3, [sp, #212]	; 0xd4
    GPIO_InitStruct.Mode = GPIO_MODE_AF_PP;
 800138c:	9436      	str	r4, [sp, #216]	; 0xd8
    GPIO_InitStruct.Pull = GPIO_PULLUP;
 800138e:	9737      	str	r7, [sp, #220]	; 0xdc
    GPIO_InitStruct.Speed = GPIO_SPEED_FREQ_VERY_HIGH;
 8001390:	9638      	str	r6, [sp, #224]	; 0xe0
    GPIO_InitStruct.Alternate = GPIO_AF12_SDIO1;
 8001392:	9539      	str	r5, [sp, #228]	; 0xe4
    HAL_GPIO_Init(GPIOD, &GPIO_InitStruct);
 8001394:	a935      	add	r1, sp, #212	; 0xd4
 8001396:	480a      	ldr	r0, [pc, #40]	; (80013c0 <HAL_SD_MspInit+0xfc>)
 8001398:	f000 fa42 	bl	8001820 <HAL_GPIO_Init>
    HAL_NVIC_SetPriority(SDMMC1_IRQn, 2, 0);
 800139c:	2200      	movs	r2, #0
 800139e:	4621      	mov	r1, r4
 80013a0:	2031      	movs	r0, #49	; 0x31
 80013a2:	f000 f9c1 	bl	8001728 <HAL_NVIC_SetPriority>
    HAL_NVIC_EnableIRQ(SDMMC1_IRQn);
 80013a6:	2031      	movs	r0, #49	; 0x31
 80013a8:	f000 f9f4 	bl	8001794 <HAL_NVIC_EnableIRQ>
}
 80013ac:	e79b      	b.n	80012e6 <HAL_SD_MspInit+0x22>
      Error_Handler();
 80013ae:	f7ff fced 	bl	8000d8c <Error_Handler>
 80013b2:	e7b5      	b.n	8001320 <HAL_SD_MspInit+0x5c>
 80013b4:	52007000 	.word	0x52007000
 80013b8:	58024400 	.word	0x58024400
 80013bc:	58020800 	.word	0x58020800
 80013c0:	58020c00 	.word	0x58020c00

080013c4 <HAL_SD_MspDeInit>:

void HAL_SD_MspDeInit(SD_HandleTypeDef* sdHandle)
{
 80013c4:	b508      	push	{r3, lr}

  if(sdHandle->Instance==SDMMC1)
 80013c6:	6802      	ldr	r2, [r0, #0]
 80013c8:	4b0b      	ldr	r3, [pc, #44]	; (80013f8 <HAL_SD_MspDeInit+0x34>)
 80013ca:	429a      	cmp	r2, r3
 80013cc:	d000      	beq.n	80013d0 <HAL_SD_MspDeInit+0xc>
    HAL_NVIC_DisableIRQ(SDMMC1_IRQn);
  /* USER CODE BEGIN SDMMC1_MspDeInit 1 */

  /* USER CODE END SDMMC1_MspDeInit 1 */
  }
}
 80013ce:	bd08      	pop	{r3, pc}
    __HAL_RCC_SDMMC1_CLK_DISABLE();
 80013d0:	4a0a      	ldr	r2, [pc, #40]	; (80013fc <HAL_SD_MspDeInit+0x38>)
 80013d2:	f8d2 30d4 	ldr.w	r3, [r2, #212]	; 0xd4
 80013d6:	f423 3380 	bic.w	r3, r3, #65536	; 0x10000
 80013da:	f8c2 30d4 	str.w	r3, [r2, #212]	; 0xd4
    HAL_GPIO_DeInit(GPIOC, GPIO_PIN_12|GPIO_PIN_11|GPIO_PIN_10|GPIO_PIN_9
 80013de:	f44f 51f8 	mov.w	r1, #7936	; 0x1f00
 80013e2:	4807      	ldr	r0, [pc, #28]	; (8001400 <HAL_SD_MspDeInit+0x3c>)
 80013e4:	f000 fb2c 	bl	8001a40 <HAL_GPIO_DeInit>
    HAL_GPIO_DeInit(GPIOD, GPIO_PIN_2);
 80013e8:	2104      	movs	r1, #4
 80013ea:	4806      	ldr	r0, [pc, #24]	; (8001404 <HAL_SD_MspDeInit+0x40>)
 80013ec:	f000 fb28 	bl	8001a40 <HAL_GPIO_DeInit>
    HAL_NVIC_DisableIRQ(SDMMC1_IRQn);
 80013f0:	2031      	movs	r0, #49	; 0x31
 80013f2:	f000 f9dd 	bl	80017b0 <HAL_NVIC_DisableIRQ>
}
 80013f6:	e7ea      	b.n	80013ce <HAL_SD_MspDeInit+0xa>
 80013f8:	52007000 	.word	0x52007000
 80013fc:	58024400 	.word	0x58024400
 8001400:	58020800 	.word	0x58020800
 8001404:	58020c00 	.word	0x58020c00

08001408 <Default_Handler>:
void __attribute__((naked, noreturn)) Default_Handler()
{
	//If you get stuck here, your code is missing a handler for some interrupt.
	//Define a 'DEBUG_DEFAULT_INTERRUPT_HANDLERS' macro via VisualGDB Project Properties and rebuild your project.
	//This will pinpoint a specific missing vector.
	for (;;) ;
 8001408:	e7fe      	b.n	8001408 <Default_Handler>
	...

0800140c <Reset_Handler>:
	for (pSource = &_sidata, pDest = &_sdata; pDest != &_edata; pSource++, pDest++)
 800140c:	4b0c      	ldr	r3, [pc, #48]	; (8001440 <Reset_Handler+0x34>)
 800140e:	490d      	ldr	r1, [pc, #52]	; (8001444 <Reset_Handler+0x38>)
 8001410:	e003      	b.n	800141a <Reset_Handler+0xe>
		*pDest = *pSource;
 8001412:	f851 2b04 	ldr.w	r2, [r1], #4
 8001416:	f843 2b04 	str.w	r2, [r3], #4
	for (pSource = &_sidata, pDest = &_sdata; pDest != &_edata; pSource++, pDest++)
 800141a:	4a0b      	ldr	r2, [pc, #44]	; (8001448 <Reset_Handler+0x3c>)
 800141c:	4293      	cmp	r3, r2
 800141e:	d1f8      	bne.n	8001412 <Reset_Handler+0x6>
	for (pDest = &_sbss; pDest != &_ebss; pDest++)
 8001420:	4b0a      	ldr	r3, [pc, #40]	; (800144c <Reset_Handler+0x40>)
 8001422:	e002      	b.n	800142a <Reset_Handler+0x1e>
		*pDest = 0;
 8001424:	2200      	movs	r2, #0
 8001426:	f843 2b04 	str.w	r2, [r3], #4
	for (pDest = &_sbss; pDest != &_ebss; pDest++)
 800142a:	4a09      	ldr	r2, [pc, #36]	; (8001450 <Reset_Handler+0x44>)
 800142c:	4293      	cmp	r3, r2
 800142e:	d1f9      	bne.n	8001424 <Reset_Handler+0x18>
	SystemInit();
 8001430:	f000 f83c 	bl	80014ac <SystemInit>
	__libc_init_array();
 8001434:	f007 fb0a 	bl	8008a4c <__libc_init_array>
	(void)main();
 8001438:	f7ff fd3c 	bl	8000eb4 <main>
	for (;;) ;
 800143c:	e7fe      	b.n	800143c <Reset_Handler+0x30>
 800143e:	bf00      	nop
 8001440:	20000000 	.word	0x20000000
 8001444:	08008f44 	.word	0x08008f44
 8001448:	20000018 	.word	0x20000018
 800144c:	20000018 	.word	0x20000018
 8001450:	20000950 	.word	0x20000950

08001454 <HAL_MspInit>:
/* USER CODE END 0 */
/**
  * Initializes the Global MSP.
  */
void HAL_MspInit(void)
{
 8001454:	b082      	sub	sp, #8
  /* USER CODE BEGIN MspInit 0 */

  /* USER CODE END MspInit 0 */

  __HAL_RCC_SYSCFG_CLK_ENABLE();
 8001456:	4b07      	ldr	r3, [pc, #28]	; (8001474 <HAL_MspInit+0x20>)
 8001458:	f8d3 20f4 	ldr.w	r2, [r3, #244]	; 0xf4
 800145c:	f042 0202 	orr.w	r2, r2, #2
 8001460:	f8c3 20f4 	str.w	r2, [r3, #244]	; 0xf4
 8001464:	f8d3 30f4 	ldr.w	r3, [r3, #244]	; 0xf4
 8001468:	f003 0302 	and.w	r3, r3, #2
 800146c:	9301      	str	r3, [sp, #4]
 800146e:	9b01      	ldr	r3, [sp, #4]
  /* System interrupt init*/

  /* USER CODE BEGIN MspInit 1 */

  /* USER CODE END MspInit 1 */
}
 8001470:	b002      	add	sp, #8
 8001472:	4770      	bx	lr
 8001474:	58024400 	.word	0x58024400

08001478 <NMI_Handler>:
{
  /* USER CODE BEGIN NonMaskableInt_IRQn 0 */

  /* USER CODE END NonMaskableInt_IRQn 0 */
  /* USER CODE BEGIN NonMaskableInt_IRQn 1 */
  while (1)
 8001478:	e7fe      	b.n	8001478 <NMI_Handler>

0800147a <HardFault_Handler>:
void HardFault_Handler(void)
{
  /* USER CODE BEGIN HardFault_IRQn 0 */

  /* USER CODE END HardFault_IRQn 0 */
  while (1)
 800147a:	e7fe      	b.n	800147a <HardFault_Handler>

0800147c <MemManage_Handler>:
void MemManage_Handler(void)
{
  /* USER CODE BEGIN MemoryManagement_IRQn 0 */

  /* USER CODE END MemoryManagement_IRQn 0 */
  while (1)
 800147c:	e7fe      	b.n	800147c <MemManage_Handler>

0800147e <BusFault_Handler>:
void BusFault_Handler(void)
{
  /* USER CODE BEGIN BusFault_IRQn 0 */

  /* USER CODE END BusFault_IRQn 0 */
  while (1)
 800147e:	e7fe      	b.n	800147e <BusFault_Handler>

08001480 <UsageFault_Handler>:
void UsageFault_Handler(void)
{
  /* USER CODE BEGIN UsageFault_IRQn 0 */

  /* USER CODE END UsageFault_IRQn 0 */
  while (1)
 8001480:	e7fe      	b.n	8001480 <UsageFault_Handler>

08001482 <SVC_Handler>:

  /* USER CODE END SVCall_IRQn 0 */
  /* USER CODE BEGIN SVCall_IRQn 1 */

  /* USER CODE END SVCall_IRQn 1 */
}
 8001482:	4770      	bx	lr

08001484 <DebugMon_Handler>:

  /* USER CODE END DebugMonitor_IRQn 0 */
  /* USER CODE BEGIN DebugMonitor_IRQn 1 */

  /* USER CODE END DebugMonitor_IRQn 1 */
}
 8001484:	4770      	bx	lr

08001486 <PendSV_Handler>:

  /* USER CODE END PendSV_IRQn 0 */
  /* USER CODE BEGIN PendSV_IRQn 1 */

  /* USER CODE END PendSV_IRQn 1 */
}
 8001486:	4770      	bx	lr

08001488 <SysTick_Handler>:

/**
  * @brief This function handles System tick timer.
  */
void SysTick_Handler(void)
{
 8001488:	b508      	push	{r3, lr}
  /* USER CODE BEGIN SysTick_IRQn 0 */

  /* USER CODE END SysTick_IRQn 0 */
  HAL_IncTick();
 800148a:	f000 f90f 	bl	80016ac <HAL_IncTick>
  /* USER CODE BEGIN SysTick_IRQn 1 */

  /* USER CODE END SysTick_IRQn 1 */
}
 800148e:	bd08      	pop	{r3, pc}

08001490 <EXTI15_10_IRQHandler>:

/**
  * @brief This function handles EXTI line[15:10] interrupts.
  */
void EXTI15_10_IRQHandler(void)
{
 8001490:	b508      	push	{r3, lr}
  /* USER CODE BEGIN EXTI15_10_IRQn 0 */

  /* USER CODE END EXTI15_10_IRQn 0 */
  HAL_GPIO_EXTI_IRQHandler(GPIO_PIN_12);
 8001492:	f44f 5080 	mov.w	r0, #4096	; 0x1000
 8001496:	f000 fb91 	bl	8001bbc <HAL_GPIO_EXTI_IRQHandler>
  /* USER CODE BEGIN EXTI15_10_IRQn 1 */

  /* USER CODE END EXTI15_10_IRQn 1 */
}
 800149a:	bd08      	pop	{r3, pc}

0800149c <SDMMC1_IRQHandler>:

/**
  * @brief This function handles SDMMC1 global interrupt.
  */
void SDMMC1_IRQHandler(void)
{
 800149c:	b508      	push	{r3, lr}
  /* USER CODE BEGIN SDMMC1_IRQn 0 */

  /* USER CODE END SDMMC1_IRQn 0 */
  HAL_SD_IRQHandler(&hsd1);
 800149e:	4802      	ldr	r0, [pc, #8]	; (80014a8 <SDMMC1_IRQHandler+0xc>)
 80014a0:	f004 fdaa 	bl	8005ff8 <HAL_SD_IRQHandler>
  /* USER CODE BEGIN SDMMC1_IRQn 1 */

  /* USER CODE END SDMMC1_IRQn 1 */
}
 80014a4:	bd08      	pop	{r3, pc}
 80014a6:	bf00      	nop
 80014a8:	20000234 	.word	0x20000234

080014ac <SystemInit>:
 __IO uint32_t tmpreg;
#endif /* DATA_IN_D2_SRAM */

  /* FPU settings ------------------------------------------------------------*/
  #if (__FPU_PRESENT == 1) && (__FPU_USED == 1)
    SCB->CPACR |= ((3UL << (10*2))|(3UL << (11*2)));  /* set CP10 and CP11 Full Access */
 80014ac:	4a27      	ldr	r2, [pc, #156]	; (800154c <SystemInit+0xa0>)
 80014ae:	f8d2 3088 	ldr.w	r3, [r2, #136]	; 0x88
 80014b2:	f443 0370 	orr.w	r3, r3, #15728640	; 0xf00000
 80014b6:	f8c2 3088 	str.w	r3, [r2, #136]	; 0x88
  #endif
  /* Reset the RCC clock configuration to the default reset state ------------*/

   /* Increasing the CPU frequency */
  if(FLASH_LATENCY_DEFAULT  > (READ_BIT((FLASH->ACR), FLASH_ACR_LATENCY)))
 80014ba:	4b25      	ldr	r3, [pc, #148]	; (8001550 <SystemInit+0xa4>)
 80014bc:	681b      	ldr	r3, [r3, #0]
 80014be:	f003 030f 	and.w	r3, r3, #15
 80014c2:	2b06      	cmp	r3, #6
 80014c4:	d806      	bhi.n	80014d4 <SystemInit+0x28>
  {
    /* Program the new number of wait states to the LATENCY bits in the FLASH_ACR register */
    MODIFY_REG(FLASH->ACR, FLASH_ACR_LATENCY, (uint32_t)(FLASH_LATENCY_DEFAULT));
 80014c6:	4a22      	ldr	r2, [pc, #136]	; (8001550 <SystemInit+0xa4>)
 80014c8:	6813      	ldr	r3, [r2, #0]
 80014ca:	f023 030f 	bic.w	r3, r3, #15
 80014ce:	f043 0307 	orr.w	r3, r3, #7
 80014d2:	6013      	str	r3, [r2, #0]
  }

  /* Set HSION bit */
  RCC->CR |= RCC_CR_HSION;
 80014d4:	4b1f      	ldr	r3, [pc, #124]	; (8001554 <SystemInit+0xa8>)
 80014d6:	681a      	ldr	r2, [r3, #0]
 80014d8:	f042 0201 	orr.w	r2, r2, #1
 80014dc:	601a      	str	r2, [r3, #0]

  /* Reset CFGR register */
  RCC->CFGR = 0x00000000;
 80014de:	2200      	movs	r2, #0
 80014e0:	611a      	str	r2, [r3, #16]

  /* Reset HSEON, HSECSSON, CSION, HSI48ON, CSIKERON, PLL1ON, PLL2ON and PLL3ON bits */
  RCC->CR &= 0xEAF6ED7FU;
 80014e2:	6819      	ldr	r1, [r3, #0]
 80014e4:	4a1c      	ldr	r2, [pc, #112]	; (8001558 <SystemInit+0xac>)
 80014e6:	400a      	ands	r2, r1
 80014e8:	601a      	str	r2, [r3, #0]

   /* Decreasing the number of wait states because of lower CPU frequency */
  if(FLASH_LATENCY_DEFAULT  < (READ_BIT((FLASH->ACR), FLASH_ACR_LATENCY)))
 80014ea:	4b19      	ldr	r3, [pc, #100]	; (8001550 <SystemInit+0xa4>)
 80014ec:	681b      	ldr	r3, [r3, #0]
 80014ee:	f013 0f08 	tst.w	r3, #8
 80014f2:	d006      	beq.n	8001502 <SystemInit+0x56>
  {
    /* Program the new number of wait states to the LATENCY bits in the FLASH_ACR register */
    MODIFY_REG(FLASH->ACR, FLASH_ACR_LATENCY, (uint32_t)(FLASH_LATENCY_DEFAULT));
 80014f4:	4a16      	ldr	r2, [pc, #88]	; (8001550 <SystemInit+0xa4>)
 80014f6:	6813      	ldr	r3, [r2, #0]
 80014f8:	f023 030f 	bic.w	r3, r3, #15
 80014fc:	f043 0307 	orr.w	r3, r3, #7
 8001500:	6013      	str	r3, [r2, #0]
  }

#if defined(D3_SRAM_BASE)
  /* Reset D1CFGR register */
  RCC->D1CFGR = 0x00000000;
 8001502:	4b14      	ldr	r3, [pc, #80]	; (8001554 <SystemInit+0xa8>)
 8001504:	2200      	movs	r2, #0
 8001506:	619a      	str	r2, [r3, #24]

  /* Reset D2CFGR register */
  RCC->D2CFGR = 0x00000000;
 8001508:	61da      	str	r2, [r3, #28]

  /* Reset D3CFGR register */
  RCC->D3CFGR = 0x00000000;
 800150a:	621a      	str	r2, [r3, #32]

  /* Reset SRDCFGR register */
  RCC->SRDCFGR = 0x00000000;
#endif
  /* Reset PLLCKSELR register */
  RCC->PLLCKSELR = 0x02020200;
 800150c:	4913      	ldr	r1, [pc, #76]	; (800155c <SystemInit+0xb0>)
 800150e:	6299      	str	r1, [r3, #40]	; 0x28

  /* Reset PLLCFGR register */
  RCC->PLLCFGR = 0x01FF0000;
 8001510:	4913      	ldr	r1, [pc, #76]	; (8001560 <SystemInit+0xb4>)
 8001512:	62d9      	str	r1, [r3, #44]	; 0x2c
  /* Reset PLL1DIVR register */
  RCC->PLL1DIVR = 0x01010280;
 8001514:	4913      	ldr	r1, [pc, #76]	; (8001564 <SystemInit+0xb8>)
 8001516:	6319      	str	r1, [r3, #48]	; 0x30
  /* Reset PLL1FRACR register */
  RCC->PLL1FRACR = 0x00000000;
 8001518:	635a      	str	r2, [r3, #52]	; 0x34

  /* Reset PLL2DIVR register */
  RCC->PLL2DIVR = 0x01010280;
 800151a:	6399      	str	r1, [r3, #56]	; 0x38

  /* Reset PLL2FRACR register */

  RCC->PLL2FRACR = 0x00000000;
 800151c:	63da      	str	r2, [r3, #60]	; 0x3c
  /* Reset PLL3DIVR register */
  RCC->PLL3DIVR = 0x01010280;
 800151e:	6419      	str	r1, [r3, #64]	; 0x40

  /* Reset PLL3FRACR register */
  RCC->PLL3FRACR = 0x00000000;
 8001520:	645a      	str	r2, [r3, #68]	; 0x44

  /* Reset HSEBYP bit */
  RCC->CR &= 0xFFFBFFFFU;
 8001522:	6819      	ldr	r1, [r3, #0]
 8001524:	f421 2180 	bic.w	r1, r1, #262144	; 0x40000
 8001528:	6019      	str	r1, [r3, #0]

  /* Disable all interrupts */
  RCC->CIER = 0x00000000;
 800152a:	661a      	str	r2, [r3, #96]	; 0x60

#if (STM32H7_DEV_ID == 0x450UL)
  /* dual core CM7 or single core line */
  if((DBGMCU->IDCODE & 0xFFFF0000U) < 0x20000000U)
 800152c:	4b0e      	ldr	r3, [pc, #56]	; (8001568 <SystemInit+0xbc>)
 800152e:	681a      	ldr	r2, [r3, #0]
 8001530:	4b0e      	ldr	r3, [pc, #56]	; (800156c <SystemInit+0xc0>)
 8001532:	4013      	ands	r3, r2
 8001534:	f1b3 5f00 	cmp.w	r3, #536870912	; 0x20000000
 8001538:	d203      	bcs.n	8001542 <SystemInit+0x96>
  {
    /* if stm32h7 revY*/
    /* Change  the switch matrix read issuing capability to 1 for the AXI SRAM target (Target 7) */
    *((__IO uint32_t*)0x51008108) = 0x000000001U;
 800153a:	4b0d      	ldr	r3, [pc, #52]	; (8001570 <SystemInit+0xc4>)
 800153c:	2201      	movs	r2, #1
 800153e:	f8c3 2108 	str.w	r2, [r3, #264]	; 0x108
  /*
   * Disable the FMC bank1 (enabled after reset).
   * This, prevents CPU speculation access on this bank which blocks the use of FMC during
   * 24us. During this time the others FMC master (such as LTDC) cannot use it!
   */
  FMC_Bank1_R->BTCR[0] = 0x000030D2;
 8001542:	4b0c      	ldr	r3, [pc, #48]	; (8001574 <SystemInit+0xc8>)
 8001544:	f243 02d2 	movw	r2, #12498	; 0x30d2
 8001548:	601a      	str	r2, [r3, #0]
#if defined(USER_VECT_TAB_ADDRESS)
  SCB->VTOR = VECT_TAB_BASE_ADDRESS | VECT_TAB_OFFSET; /* Vector Table Relocation in Internal D1 AXI-RAM or in Internal FLASH */
#endif /* USER_VECT_TAB_ADDRESS */

#endif /*DUAL_CORE && CORE_CM4*/
}
 800154a:	4770      	bx	lr
 800154c:	e000ed00 	.word	0xe000ed00
 8001550:	52002000 	.word	0x52002000
 8001554:	58024400 	.word	0x58024400
 8001558:	eaf6ed7f 	.word	0xeaf6ed7f
 800155c:	02020200 	.word	0x02020200
 8001560:	01ff0000 	.word	0x01ff0000
 8001564:	01010280 	.word	0x01010280
 8001568:	5c001000 	.word	0x5c001000
 800156c:	ffff0000 	.word	0xffff0000
 8001570:	51008000 	.word	0x51008000
 8001574:	52004000 	.word	0x52004000

08001578 <HAL_MspDeInit>:
__weak void HAL_MspDeInit(void)
{
  /* NOTE : This function Should not be modified, when the callback is needed,
            the HAL_MspDeInit could be implemented in the user file
   */
}
 8001578:	4770      	bx	lr
	...

0800157c <HAL_DeInit>:
{
 800157c:	b510      	push	{r4, lr}
  __HAL_RCC_AHB3_FORCE_RESET();
 800157e:	4b19      	ldr	r3, [pc, #100]	; (80015e4 <HAL_DeInit+0x68>)
 8001580:	4a19      	ldr	r2, [pc, #100]	; (80015e8 <HAL_DeInit+0x6c>)
 8001582:	67da      	str	r2, [r3, #124]	; 0x7c
  __HAL_RCC_AHB3_RELEASE_RESET();
 8001584:	2400      	movs	r4, #0
 8001586:	67dc      	str	r4, [r3, #124]	; 0x7c
  __HAL_RCC_AHB1_FORCE_RESET();
 8001588:	4a18      	ldr	r2, [pc, #96]	; (80015ec <HAL_DeInit+0x70>)
 800158a:	f8c3 2080 	str.w	r2, [r3, #128]	; 0x80
  __HAL_RCC_AHB1_RELEASE_RESET();
 800158e:	f8c3 4080 	str.w	r4, [r3, #128]	; 0x80
  __HAL_RCC_AHB2_FORCE_RESET();
 8001592:	f240 2271 	movw	r2, #625	; 0x271
 8001596:	f8c3 2084 	str.w	r2, [r3, #132]	; 0x84
  __HAL_RCC_AHB2_RELEASE_RESET();
 800159a:	f8c3 4084 	str.w	r4, [r3, #132]	; 0x84
  __HAL_RCC_AHB4_FORCE_RESET();
 800159e:	4a14      	ldr	r2, [pc, #80]	; (80015f0 <HAL_DeInit+0x74>)
 80015a0:	f8c3 2088 	str.w	r2, [r3, #136]	; 0x88
 __HAL_RCC_AHB4_RELEASE_RESET();
 80015a4:	f8c3 4088 	str.w	r4, [r3, #136]	; 0x88
  __HAL_RCC_APB3_FORCE_RESET();
 80015a8:	2218      	movs	r2, #24
 80015aa:	f8c3 208c 	str.w	r2, [r3, #140]	; 0x8c
  __HAL_RCC_APB3_RELEASE_RESET();
 80015ae:	f8c3 408c 	str.w	r4, [r3, #140]	; 0x8c
  __HAL_RCC_APB1L_FORCE_RESET();
 80015b2:	4a10      	ldr	r2, [pc, #64]	; (80015f4 <HAL_DeInit+0x78>)
 80015b4:	f8c3 2090 	str.w	r2, [r3, #144]	; 0x90
  __HAL_RCC_APB1L_RELEASE_RESET();
 80015b8:	f8c3 4090 	str.w	r4, [r3, #144]	; 0x90
  __HAL_RCC_APB1H_FORCE_RESET();
 80015bc:	f44f 729b 	mov.w	r2, #310	; 0x136
 80015c0:	f8c3 2094 	str.w	r2, [r3, #148]	; 0x94
  __HAL_RCC_APB1H_RELEASE_RESET();
 80015c4:	f8c3 4094 	str.w	r4, [r3, #148]	; 0x94
   __HAL_RCC_APB2_FORCE_RESET();
 80015c8:	4a0b      	ldr	r2, [pc, #44]	; (80015f8 <HAL_DeInit+0x7c>)
 80015ca:	f8c3 2098 	str.w	r2, [r3, #152]	; 0x98
   __HAL_RCC_APB2_RELEASE_RESET();
 80015ce:	f8c3 4098 	str.w	r4, [r3, #152]	; 0x98
  __HAL_RCC_APB4_FORCE_RESET();
 80015d2:	4a0a      	ldr	r2, [pc, #40]	; (80015fc <HAL_DeInit+0x80>)
 80015d4:	f8c3 209c 	str.w	r2, [r3, #156]	; 0x9c
  __HAL_RCC_APB4_RELEASE_RESET();
 80015d8:	f8c3 409c 	str.w	r4, [r3, #156]	; 0x9c
  HAL_MspDeInit();
 80015dc:	f7ff ffcc 	bl	8001578 <HAL_MspDeInit>
}
 80015e0:	4620      	mov	r0, r4
 80015e2:	bd10      	pop	{r4, pc}
 80015e4:	58024400 	.word	0x58024400
 80015e8:	00015031 	.word	0x00015031
 80015ec:	0a00c023 	.word	0x0a00c023
 80015f0:	032807ff 	.word	0x032807ff
 80015f4:	e8ffc3ff 	.word	0xe8ffc3ff
 80015f8:	31d73033 	.word	0x31d73033
 80015fc:	0020deaa 	.word	0x0020deaa

08001600 <HAL_InitTick>:
  * @retval HAL status
  */
__weak HAL_StatusTypeDef HAL_InitTick(uint32_t TickPriority)
{
  /* Check uwTickFreq for MisraC 2012 (even if uwTickFreq is a enum type that don't take the value zero)*/
  if((uint32_t)uwTickFreq == 0UL)
 8001600:	4b10      	ldr	r3, [pc, #64]	; (8001644 <HAL_InitTick+0x44>)
 8001602:	781b      	ldrb	r3, [r3, #0]
 8001604:	b90b      	cbnz	r3, 800160a <HAL_InitTick+0xa>
  {
    return HAL_ERROR;
 8001606:	2001      	movs	r0, #1
    return HAL_ERROR;
  }

  /* Return function status */
  return HAL_OK;
}
 8001608:	4770      	bx	lr
{
 800160a:	b510      	push	{r4, lr}
 800160c:	4604      	mov	r4, r0
    if (HAL_SYSTICK_Config(SystemCoreClock / (1000UL / (uint32_t)uwTickFreq)) > 0U)
 800160e:	f44f 707a 	mov.w	r0, #1000	; 0x3e8
 8001612:	fbb0 f3f3 	udiv	r3, r0, r3
 8001616:	4a0c      	ldr	r2, [pc, #48]	; (8001648 <HAL_InitTick+0x48>)
 8001618:	6810      	ldr	r0, [r2, #0]
 800161a:	fbb0 f0f3 	udiv	r0, r0, r3
 800161e:	f000 f8eb 	bl	80017f8 <HAL_SYSTICK_Config>
 8001622:	b968      	cbnz	r0, 8001640 <HAL_InitTick+0x40>
  if (TickPriority < (1UL << __NVIC_PRIO_BITS))
 8001624:	2c0f      	cmp	r4, #15
 8001626:	d901      	bls.n	800162c <HAL_InitTick+0x2c>
    return HAL_ERROR;
 8001628:	2001      	movs	r0, #1
 800162a:	e00a      	b.n	8001642 <HAL_InitTick+0x42>
    HAL_NVIC_SetPriority(SysTick_IRQn, TickPriority, 0U);
 800162c:	2200      	movs	r2, #0
 800162e:	4621      	mov	r1, r4
 8001630:	f04f 30ff 	mov.w	r0, #4294967295	; 0xffffffff
 8001634:	f000 f878 	bl	8001728 <HAL_NVIC_SetPriority>
    uwTickPrio = TickPriority;
 8001638:	4b04      	ldr	r3, [pc, #16]	; (800164c <HAL_InitTick+0x4c>)
 800163a:	601c      	str	r4, [r3, #0]
  return HAL_OK;
 800163c:	2000      	movs	r0, #0
 800163e:	e000      	b.n	8001642 <HAL_InitTick+0x42>
      return HAL_ERROR;
 8001640:	2001      	movs	r0, #1
}
 8001642:	bd10      	pop	{r4, pc}
 8001644:	2000000c 	.word	0x2000000c
 8001648:	20000004 	.word	0x20000004
 800164c:	20000010 	.word	0x20000010

08001650 <HAL_Init>:
{
 8001650:	b510      	push	{r4, lr}
  HAL_NVIC_SetPriorityGrouping(NVIC_PRIORITYGROUP_4);
 8001652:	2003      	movs	r0, #3
 8001654:	f000 f856 	bl	8001704 <HAL_NVIC_SetPriorityGrouping>
  common_system_clock = HAL_RCC_GetSysClockFreq() >> ((D1CorePrescTable[(RCC->D1CFGR & RCC_D1CFGR_D1CPRE)>> RCC_D1CFGR_D1CPRE_Pos]) & 0x1FU);
 8001658:	f001 fe1e 	bl	8003298 <HAL_RCC_GetSysClockFreq>
 800165c:	490f      	ldr	r1, [pc, #60]	; (800169c <HAL_Init+0x4c>)
 800165e:	698b      	ldr	r3, [r1, #24]
 8001660:	f3c3 2303 	ubfx	r3, r3, #8, #4
 8001664:	4a0e      	ldr	r2, [pc, #56]	; (80016a0 <HAL_Init+0x50>)
 8001666:	5cd3      	ldrb	r3, [r2, r3]
 8001668:	f003 031f 	and.w	r3, r3, #31
 800166c:	40d8      	lsrs	r0, r3
  SystemD2Clock = (common_system_clock >> ((D1CorePrescTable[(RCC->D1CFGR & RCC_D1CFGR_HPRE)>> RCC_D1CFGR_HPRE_Pos]) & 0x1FU));
 800166e:	698b      	ldr	r3, [r1, #24]
 8001670:	f003 030f 	and.w	r3, r3, #15
 8001674:	5cd3      	ldrb	r3, [r2, r3]
 8001676:	f003 031f 	and.w	r3, r3, #31
 800167a:	fa20 f303 	lsr.w	r3, r0, r3
 800167e:	4a09      	ldr	r2, [pc, #36]	; (80016a4 <HAL_Init+0x54>)
 8001680:	6013      	str	r3, [r2, #0]
  SystemCoreClock = common_system_clock;
 8001682:	4b09      	ldr	r3, [pc, #36]	; (80016a8 <HAL_Init+0x58>)
 8001684:	6018      	str	r0, [r3, #0]
  if(HAL_InitTick(TICK_INT_PRIORITY) != HAL_OK)
 8001686:	2000      	movs	r0, #0
 8001688:	f7ff ffba 	bl	8001600 <HAL_InitTick>
 800168c:	b110      	cbz	r0, 8001694 <HAL_Init+0x44>
    return HAL_ERROR;
 800168e:	2401      	movs	r4, #1
}
 8001690:	4620      	mov	r0, r4
 8001692:	bd10      	pop	{r4, pc}
 8001694:	4604      	mov	r4, r0
  HAL_MspInit();
 8001696:	f7ff fedd 	bl	8001454 <HAL_MspInit>
  return HAL_OK;
 800169a:	e7f9      	b.n	8001690 <HAL_Init+0x40>
 800169c:	58024400 	.word	0x58024400
 80016a0:	08008aac 	.word	0x08008aac
 80016a4:	20000008 	.word	0x20000008
 80016a8:	20000004 	.word	0x20000004

080016ac <HAL_IncTick>:
  *      implementations in user file.
  * @retval None
  */
__weak void HAL_IncTick(void)
{
  uwTick += (uint32_t)uwTickFreq;
 80016ac:	4b03      	ldr	r3, [pc, #12]	; (80016bc <HAL_IncTick+0x10>)
 80016ae:	781b      	ldrb	r3, [r3, #0]
 80016b0:	4a03      	ldr	r2, [pc, #12]	; (80016c0 <HAL_IncTick+0x14>)
 80016b2:	6811      	ldr	r1, [r2, #0]
 80016b4:	440b      	add	r3, r1
 80016b6:	6013      	str	r3, [r2, #0]
}
 80016b8:	4770      	bx	lr
 80016ba:	bf00      	nop
 80016bc:	2000000c 	.word	0x2000000c
 80016c0:	200002b0 	.word	0x200002b0

080016c4 <HAL_GetTick>:
  *       implementations in user file.
  * @retval tick value
  */
__weak uint32_t HAL_GetTick(void)
{
  return uwTick;
 80016c4:	4b01      	ldr	r3, [pc, #4]	; (80016cc <HAL_GetTick+0x8>)
 80016c6:	6818      	ldr	r0, [r3, #0]
}
 80016c8:	4770      	bx	lr
 80016ca:	bf00      	nop
 80016cc:	200002b0 	.word	0x200002b0

080016d0 <HAL_Delay>:
  *       implementations in user file.
  * @param Delay  specifies the delay time length, in milliseconds.
  * @retval None
  */
__weak void HAL_Delay(uint32_t Delay)
{
 80016d0:	b538      	push	{r3, r4, r5, lr}
 80016d2:	4604      	mov	r4, r0
  uint32_t tickstart = HAL_GetTick();
 80016d4:	f7ff fff6 	bl	80016c4 <HAL_GetTick>
 80016d8:	4605      	mov	r5, r0
  uint32_t wait = Delay;

  /* Add a freq to guarantee minimum wait */
  if (wait < HAL_MAX_DELAY)
 80016da:	f1b4 3fff 	cmp.w	r4, #4294967295	; 0xffffffff
 80016de:	d002      	beq.n	80016e6 <HAL_Delay+0x16>
  {
    wait += (uint32_t)(uwTickFreq);
 80016e0:	4b04      	ldr	r3, [pc, #16]	; (80016f4 <HAL_Delay+0x24>)
 80016e2:	781b      	ldrb	r3, [r3, #0]
 80016e4:	441c      	add	r4, r3
  }

  while ((HAL_GetTick() - tickstart) < wait)
 80016e6:	f7ff ffed 	bl	80016c4 <HAL_GetTick>
 80016ea:	1b40      	subs	r0, r0, r5
 80016ec:	42a0      	cmp	r0, r4
 80016ee:	d3fa      	bcc.n	80016e6 <HAL_Delay+0x16>
  {
  }
}
 80016f0:	bd38      	pop	{r3, r4, r5, pc}
 80016f2:	bf00      	nop
 80016f4:	2000000c 	.word	0x2000000c

080016f8 <HAL_GetREVID>:
  * @brief  Returns the device revision identifier.
  * @retval Device revision identifier
  */
uint32_t HAL_GetREVID(void)
{
   return((DBGMCU->IDCODE) >> 16);
 80016f8:	4b01      	ldr	r3, [pc, #4]	; (8001700 <HAL_GetREVID+0x8>)
 80016fa:	6818      	ldr	r0, [r3, #0]
}
 80016fc:	0c00      	lsrs	r0, r0, #16
 80016fe:	4770      	bx	lr
 8001700:	5c001000 	.word	0x5c001000

08001704 <HAL_NVIC_SetPriorityGrouping>:
__STATIC_INLINE void __NVIC_SetPriorityGrouping(uint32_t PriorityGroup)
{
  uint32_t reg_value;
  uint32_t PriorityGroupTmp = (PriorityGroup & (uint32_t)0x07UL);             /* only values 0..7 are used          */

  reg_value  =  SCB->AIRCR;                                                   /* read old register configuration    */
 8001704:	4906      	ldr	r1, [pc, #24]	; (8001720 <HAL_NVIC_SetPriorityGrouping+0x1c>)
 8001706:	68cb      	ldr	r3, [r1, #12]
  reg_value &= ~((uint32_t)(SCB_AIRCR_VECTKEY_Msk | SCB_AIRCR_PRIGROUP_Msk)); /* clear bits to change               */
 8001708:	f423 63e0 	bic.w	r3, r3, #1792	; 0x700
 800170c:	041b      	lsls	r3, r3, #16
 800170e:	0c1b      	lsrs	r3, r3, #16
  reg_value  =  (reg_value                                   |
                ((uint32_t)0x5FAUL << SCB_AIRCR_VECTKEY_Pos) |
                (PriorityGroupTmp << SCB_AIRCR_PRIGROUP_Pos)  );              /* Insert write key and priority group */
 8001710:	0200      	lsls	r0, r0, #8
 8001712:	f400 60e0 	and.w	r0, r0, #1792	; 0x700
                ((uint32_t)0x5FAUL << SCB_AIRCR_VECTKEY_Pos) |
 8001716:	4303      	orrs	r3, r0
  reg_value  =  (reg_value                                   |
 8001718:	4a02      	ldr	r2, [pc, #8]	; (8001724 <HAL_NVIC_SetPriorityGrouping+0x20>)
 800171a:	431a      	orrs	r2, r3
  SCB->AIRCR =  reg_value;
 800171c:	60ca      	str	r2, [r1, #12]
  /* Check the parameters */
  assert_param(IS_NVIC_PRIORITY_GROUP(PriorityGroup));

  /* Set the PRIGROUP[10:8] bits according to the PriorityGroup parameter value */
  NVIC_SetPriorityGrouping(PriorityGroup);
}
 800171e:	4770      	bx	lr
 8001720:	e000ed00 	.word	0xe000ed00
 8001724:	05fa0000 	.word	0x05fa0000

08001728 <HAL_NVIC_SetPriority>:
  *         This parameter can be a value between 0 and 15
  *         A lower priority value indicates a higher priority.
  * @retval None
  */
void HAL_NVIC_SetPriority(IRQn_Type IRQn, uint32_t PreemptPriority, uint32_t SubPriority)
{
 8001728:	b500      	push	{lr}
  \details Reads the priority grouping field from the NVIC Interrupt Controller.
  \return                Priority grouping field (SCB->AIRCR [10:8] PRIGROUP field).
 */
__STATIC_INLINE uint32_t __NVIC_GetPriorityGrouping(void)
{
  return ((uint32_t)((SCB->AIRCR & SCB_AIRCR_PRIGROUP_Msk) >> SCB_AIRCR_PRIGROUP_Pos));
 800172a:	4b17      	ldr	r3, [pc, #92]	; (8001788 <HAL_NVIC_SetPriority+0x60>)
 800172c:	68db      	ldr	r3, [r3, #12]
 800172e:	f3c3 2302 	ubfx	r3, r3, #8, #3
{
  uint32_t PriorityGroupTmp = (PriorityGroup & (uint32_t)0x07UL);   /* only values 0..7 are used          */
  uint32_t PreemptPriorityBits;
  uint32_t SubPriorityBits;

  PreemptPriorityBits = ((7UL - PriorityGroupTmp) > (uint32_t)(__NVIC_PRIO_BITS)) ? (uint32_t)(__NVIC_PRIO_BITS) : (uint32_t)(7UL - PriorityGroupTmp);
 8001732:	f1c3 0c07 	rsb	ip, r3, #7
 8001736:	f1bc 0f04 	cmp.w	ip, #4
 800173a:	bf28      	it	cs
 800173c:	f04f 0c04 	movcs.w	ip, #4
  SubPriorityBits     = ((PriorityGroupTmp + (uint32_t)(__NVIC_PRIO_BITS)) < (uint32_t)7UL) ? (uint32_t)0UL : (uint32_t)((PriorityGroupTmp - 7UL) + (uint32_t)(__NVIC_PRIO_BITS));
 8001740:	f103 0e04 	add.w	lr, r3, #4
 8001744:	f1be 0f06 	cmp.w	lr, #6
 8001748:	d914      	bls.n	8001774 <HAL_NVIC_SetPriority+0x4c>
 800174a:	3b03      	subs	r3, #3

  return (
           ((PreemptPriority & (uint32_t)((1UL << (PreemptPriorityBits)) - 1UL)) << SubPriorityBits) |
 800174c:	f04f 3eff 	mov.w	lr, #4294967295	; 0xffffffff
 8001750:	fa0e fc0c 	lsl.w	ip, lr, ip
 8001754:	ea21 010c 	bic.w	r1, r1, ip
 8001758:	4099      	lsls	r1, r3
           ((SubPriority     & (uint32_t)((1UL << (SubPriorityBits    )) - 1UL)))
 800175a:	fa0e f303 	lsl.w	r3, lr, r3
 800175e:	ea22 0303 	bic.w	r3, r2, r3
           ((PreemptPriority & (uint32_t)((1UL << (PreemptPriorityBits)) - 1UL)) << SubPriorityBits) |
 8001762:	4319      	orrs	r1, r3
  if ((int32_t)(IRQn) >= 0)
 8001764:	2800      	cmp	r0, #0
 8001766:	db07      	blt.n	8001778 <HAL_NVIC_SetPriority+0x50>
    NVIC->IP[((uint32_t)IRQn)]                = (uint8_t)((priority << (8U - __NVIC_PRIO_BITS)) & (uint32_t)0xFFUL);
 8001768:	0109      	lsls	r1, r1, #4
 800176a:	b2c9      	uxtb	r1, r1
 800176c:	4b07      	ldr	r3, [pc, #28]	; (800178c <HAL_NVIC_SetPriority+0x64>)
 800176e:	5419      	strb	r1, [r3, r0]
  assert_param(IS_NVIC_PREEMPTION_PRIORITY(PreemptPriority));

  prioritygroup = NVIC_GetPriorityGrouping();

  NVIC_SetPriority(IRQn, NVIC_EncodePriority(prioritygroup, PreemptPriority, SubPriority));
}
 8001770:	f85d fb04 	ldr.w	pc, [sp], #4
  SubPriorityBits     = ((PriorityGroupTmp + (uint32_t)(__NVIC_PRIO_BITS)) < (uint32_t)7UL) ? (uint32_t)0UL : (uint32_t)((PriorityGroupTmp - 7UL) + (uint32_t)(__NVIC_PRIO_BITS));
 8001774:	2300      	movs	r3, #0
 8001776:	e7e9      	b.n	800174c <HAL_NVIC_SetPriority+0x24>
    SCB->SHPR[(((uint32_t)IRQn) & 0xFUL)-4UL] = (uint8_t)((priority << (8U - __NVIC_PRIO_BITS)) & (uint32_t)0xFFUL);
 8001778:	f000 000f 	and.w	r0, r0, #15
 800177c:	0109      	lsls	r1, r1, #4
 800177e:	b2c9      	uxtb	r1, r1
 8001780:	4b03      	ldr	r3, [pc, #12]	; (8001790 <HAL_NVIC_SetPriority+0x68>)
 8001782:	5419      	strb	r1, [r3, r0]
 8001784:	e7f4      	b.n	8001770 <HAL_NVIC_SetPriority+0x48>
 8001786:	bf00      	nop
 8001788:	e000ed00 	.word	0xe000ed00
 800178c:	e000e400 	.word	0xe000e400
 8001790:	e000ed14 	.word	0xe000ed14

08001794 <HAL_NVIC_EnableIRQ>:
  if ((int32_t)(IRQn) >= 0)
 8001794:	2800      	cmp	r0, #0
 8001796:	db07      	blt.n	80017a8 <HAL_NVIC_EnableIRQ+0x14>
    NVIC->ISER[(((uint32_t)IRQn) >> 5UL)] = (uint32_t)(1UL << (((uint32_t)IRQn) & 0x1FUL));
 8001798:	f000 021f 	and.w	r2, r0, #31
 800179c:	0940      	lsrs	r0, r0, #5
 800179e:	2301      	movs	r3, #1
 80017a0:	4093      	lsls	r3, r2
 80017a2:	4a02      	ldr	r2, [pc, #8]	; (80017ac <HAL_NVIC_EnableIRQ+0x18>)
 80017a4:	f842 3020 	str.w	r3, [r2, r0, lsl #2]
  /* Check the parameters */
  assert_param(IS_NVIC_DEVICE_IRQ(IRQn));

  /* Enable interrupt */
  NVIC_EnableIRQ(IRQn);
}
 80017a8:	4770      	bx	lr
 80017aa:	bf00      	nop
 80017ac:	e000e100 	.word	0xe000e100

080017b0 <HAL_NVIC_DisableIRQ>:
  if ((int32_t)(IRQn) >= 0)
 80017b0:	2800      	cmp	r0, #0
 80017b2:	db0c      	blt.n	80017ce <HAL_NVIC_DisableIRQ+0x1e>
    NVIC->ICER[(((uint32_t)IRQn) >> 5UL)] = (uint32_t)(1UL << (((uint32_t)IRQn) & 0x1FUL));
 80017b4:	f000 021f 	and.w	r2, r0, #31
 80017b8:	0940      	lsrs	r0, r0, #5
 80017ba:	2301      	movs	r3, #1
 80017bc:	4093      	lsls	r3, r2
 80017be:	3020      	adds	r0, #32
 80017c0:	4a03      	ldr	r2, [pc, #12]	; (80017d0 <HAL_NVIC_DisableIRQ+0x20>)
 80017c2:	f842 3020 	str.w	r3, [r2, r0, lsl #2]
  \details Acts as a special kind of Data Memory Barrier.
           It completes when all explicit memory accesses before this instruction complete.
 */
__STATIC_FORCEINLINE void __DSB(void)
{
  __ASM volatile ("dsb 0xF":::"memory");
 80017c6:	f3bf 8f4f 	dsb	sy
  __ASM volatile ("isb 0xF":::"memory");
 80017ca:	f3bf 8f6f 	isb	sy
  /* Check the parameters */
  assert_param(IS_NVIC_DEVICE_IRQ(IRQn));

  /* Disable interrupt */
  NVIC_DisableIRQ(IRQn);
}
 80017ce:	4770      	bx	lr
 80017d0:	e000e100 	.word	0xe000e100

080017d4 <HAL_NVIC_SystemReset>:
  __ASM volatile ("dsb 0xF":::"memory");
 80017d4:	f3bf 8f4f 	dsb	sy
__NO_RETURN __STATIC_INLINE void __NVIC_SystemReset(void)
{
  __DSB();                                                          /* Ensure all outstanding memory accesses included
                                                                       buffered write are completed before reset */
  SCB->AIRCR  = (uint32_t)((0x5FAUL << SCB_AIRCR_VECTKEY_Pos)    |
                           (SCB->AIRCR & SCB_AIRCR_PRIGROUP_Msk) |
 80017d8:	4905      	ldr	r1, [pc, #20]	; (80017f0 <HAL_NVIC_SystemReset+0x1c>)
 80017da:	68ca      	ldr	r2, [r1, #12]
 80017dc:	f402 62e0 	and.w	r2, r2, #1792	; 0x700
  SCB->AIRCR  = (uint32_t)((0x5FAUL << SCB_AIRCR_VECTKEY_Pos)    |
 80017e0:	4b04      	ldr	r3, [pc, #16]	; (80017f4 <HAL_NVIC_SystemReset+0x20>)
 80017e2:	4313      	orrs	r3, r2
 80017e4:	60cb      	str	r3, [r1, #12]
 80017e6:	f3bf 8f4f 	dsb	sy
                            SCB_AIRCR_SYSRESETREQ_Msk    );         /* Keep priority group unchanged */
  __DSB();                                                          /* Ensure completion of memory access */

  for(;;)                                                           /* wait until reset */
  {
    __NOP();
 80017ea:	bf00      	nop
  for(;;)                                                           /* wait until reset */
 80017ec:	e7fd      	b.n	80017ea <HAL_NVIC_SystemReset+0x16>
 80017ee:	bf00      	nop
 80017f0:	e000ed00 	.word	0xe000ed00
 80017f4:	05fa0004 	.word	0x05fa0004

080017f8 <HAL_SYSTICK_Config>:
           function <b>SysTick_Config</b> is not included. In this case, the file <b><i>device</i>.h</b>
           must contain a vendor-specific implementation of this function.
 */
__STATIC_INLINE uint32_t SysTick_Config(uint32_t ticks)
{
  if ((ticks - 1UL) > SysTick_LOAD_RELOAD_Msk)
 80017f8:	3801      	subs	r0, #1
 80017fa:	f1b0 7f80 	cmp.w	r0, #16777216	; 0x1000000
 80017fe:	d20b      	bcs.n	8001818 <HAL_SYSTICK_Config+0x20>
  {
    return (1UL);                                                   /* Reload value impossible */
  }

  SysTick->LOAD  = (uint32_t)(ticks - 1UL);                         /* set reload register */
 8001800:	f04f 23e0 	mov.w	r3, #3758153728	; 0xe000e000
 8001804:	6158      	str	r0, [r3, #20]
    SCB->SHPR[(((uint32_t)IRQn) & 0xFUL)-4UL] = (uint8_t)((priority << (8U - __NVIC_PRIO_BITS)) & (uint32_t)0xFFUL);
 8001806:	4a05      	ldr	r2, [pc, #20]	; (800181c <HAL_SYSTICK_Config+0x24>)
 8001808:	21f0      	movs	r1, #240	; 0xf0
 800180a:	f882 1023 	strb.w	r1, [r2, #35]	; 0x23
  NVIC_SetPriority (SysTick_IRQn, (1UL << __NVIC_PRIO_BITS) - 1UL); /* set Priority for Systick Interrupt */
  SysTick->VAL   = 0UL;                                             /* Load the SysTick Counter Value */
 800180e:	2000      	movs	r0, #0
 8001810:	6198      	str	r0, [r3, #24]
  SysTick->CTRL  = SysTick_CTRL_CLKSOURCE_Msk |
 8001812:	2207      	movs	r2, #7
 8001814:	611a      	str	r2, [r3, #16]
                   SysTick_CTRL_TICKINT_Msk   |
                   SysTick_CTRL_ENABLE_Msk;                         /* Enable SysTick IRQ and SysTick Timer */
  return (0UL);                                                     /* Function successful */
 8001816:	4770      	bx	lr
    return (1UL);                                                   /* Reload value impossible */
 8001818:	2001      	movs	r0, #1
  *                  - 1  Function failed.
  */
uint32_t HAL_SYSTICK_Config(uint32_t TicksNumb)
{
   return SysTick_Config(TicksNumb);
}
 800181a:	4770      	bx	lr
 800181c:	e000ed00 	.word	0xe000ed00

08001820 <HAL_GPIO_Init>:
  * @param  GPIO_Init: pointer to a GPIO_InitTypeDef structure that contains
  *         the configuration information for the specified GPIO peripheral.
  * @retval None
  */
void HAL_GPIO_Init(GPIO_TypeDef  *GPIOx, GPIO_InitTypeDef *GPIO_Init)
{
 8001820:	b5f0      	push	{r4, r5, r6, r7, lr}
 8001822:	b083      	sub	sp, #12
  uint32_t position = 0x00U;
 8001824:	2300      	movs	r3, #0
  assert_param(IS_GPIO_ALL_INSTANCE(GPIOx));
  assert_param(IS_GPIO_PIN(GPIO_Init->Pin));
  assert_param(IS_GPIO_MODE(GPIO_Init->Mode));

  /* Configure the port pins */
  while (((GPIO_Init->Pin) >> position) != 0x00U)
 8001826:	e06b      	b.n	8001900 <HAL_GPIO_Init+0xe0>
      {
        /* Check the Speed parameter */
        assert_param(IS_GPIO_SPEED(GPIO_Init->Speed));

        /* Configure the IO Speed */
        temp = GPIOx->OSPEEDR;
 8001828:	6885      	ldr	r5, [r0, #8]
        temp &= ~(GPIO_OSPEEDR_OSPEED0 << (position * 2U));
 800182a:	005e      	lsls	r6, r3, #1
 800182c:	2403      	movs	r4, #3
 800182e:	40b4      	lsls	r4, r6
 8001830:	ea25 0504 	bic.w	r5, r5, r4
        temp |= (GPIO_Init->Speed << (position * 2U));
 8001834:	68cc      	ldr	r4, [r1, #12]
 8001836:	40b4      	lsls	r4, r6
 8001838:	432c      	orrs	r4, r5
        GPIOx->OSPEEDR = temp;
 800183a:	6084      	str	r4, [r0, #8]

        /* Configure the IO Output Type */
        temp = GPIOx->OTYPER;
 800183c:	6844      	ldr	r4, [r0, #4]
        temp &= ~(GPIO_OTYPER_OT0 << position) ;
 800183e:	ea24 0c0c 	bic.w	ip, r4, ip
        temp |= (((GPIO_Init->Mode & OUTPUT_TYPE) >> OUTPUT_TYPE_Pos) << position);
 8001842:	684c      	ldr	r4, [r1, #4]
 8001844:	f3c4 1400 	ubfx	r4, r4, #4, #1
 8001848:	409c      	lsls	r4, r3
 800184a:	ea44 040c 	orr.w	r4, r4, ip
        GPIOx->OTYPER = temp;
 800184e:	6044      	str	r4, [r0, #4]
 8001850:	e068      	b.n	8001924 <HAL_GPIO_Init+0x104>
        /* Check the Alternate function parameters */
        assert_param(IS_GPIO_AF_INSTANCE(GPIOx));
        assert_param(IS_GPIO_AF(GPIO_Init->Alternate));

        /* Configure Alternate function mapped with the current IO */
        temp = GPIOx->AFR[position >> 3U];
 8001852:	08dd      	lsrs	r5, r3, #3
 8001854:	3508      	adds	r5, #8
 8001856:	f850 6025 	ldr.w	r6, [r0, r5, lsl #2]
        temp &= ~(0xFU << ((position & 0x07U) * 4U));
 800185a:	f003 0407 	and.w	r4, r3, #7
 800185e:	ea4f 0c84 	mov.w	ip, r4, lsl #2
 8001862:	240f      	movs	r4, #15
 8001864:	fa04 f40c 	lsl.w	r4, r4, ip
 8001868:	ea26 0e04 	bic.w	lr, r6, r4
        temp |= ((GPIO_Init->Alternate) << ((position & 0x07U) * 4U));
 800186c:	690c      	ldr	r4, [r1, #16]
 800186e:	fa04 f40c 	lsl.w	r4, r4, ip
 8001872:	ea44 040e 	orr.w	r4, r4, lr
        GPIOx->AFR[position >> 3U] = temp;
 8001876:	f840 4025 	str.w	r4, [r0, r5, lsl #2]
 800187a:	e06b      	b.n	8001954 <HAL_GPIO_Init+0x134>
        /* Enable SYSCFG Clock */
        __HAL_RCC_SYSCFG_CLK_ENABLE();

        temp = SYSCFG->EXTICR[position >> 2U];
        temp &= ~(0x0FUL << (4U * (position & 0x03U)));
        temp |= (GPIO_GET_INDEX(GPIOx) << (4U * (position & 0x03U)));
 800187c:	2409      	movs	r4, #9
 800187e:	e000      	b.n	8001882 <HAL_GPIO_Init+0x62>
 8001880:	2400      	movs	r4, #0
 8001882:	fa04 f40e 	lsl.w	r4, r4, lr
 8001886:	432c      	orrs	r4, r5
        SYSCFG->EXTICR[position >> 2U] = temp;
 8001888:	f10c 0c02 	add.w	ip, ip, #2
 800188c:	4d69      	ldr	r5, [pc, #420]	; (8001a34 <HAL_GPIO_Init+0x214>)
 800188e:	f845 402c 	str.w	r4, [r5, ip, lsl #2]

        /* Clear Rising Falling edge configuration */
        temp = EXTI->RTSR1;
 8001892:	f04f 44b0 	mov.w	r4, #1476395008	; 0x58000000
 8001896:	6825      	ldr	r5, [r4, #0]
        temp &= ~(iocurrent);
 8001898:	43d4      	mvns	r4, r2
 800189a:	ea25 0602 	bic.w	r6, r5, r2
        if ((GPIO_Init->Mode & TRIGGER_RISING) != 0x00U)
 800189e:	684f      	ldr	r7, [r1, #4]
 80018a0:	f417 1f80 	tst.w	r7, #1048576	; 0x100000
 80018a4:	d001      	beq.n	80018aa <HAL_GPIO_Init+0x8a>
        {
          temp |= iocurrent;
 80018a6:	ea42 0605 	orr.w	r6, r2, r5
        }
        EXTI->RTSR1 = temp;
 80018aa:	f04f 45b0 	mov.w	r5, #1476395008	; 0x58000000
 80018ae:	602e      	str	r6, [r5, #0]

        temp = EXTI->FTSR1;
 80018b0:	686d      	ldr	r5, [r5, #4]
        temp &= ~(iocurrent);
 80018b2:	ea04 0605 	and.w	r6, r4, r5
        if ((GPIO_Init->Mode & TRIGGER_FALLING) != 0x00U)
 80018b6:	684f      	ldr	r7, [r1, #4]
 80018b8:	f417 1f00 	tst.w	r7, #2097152	; 0x200000
 80018bc:	d001      	beq.n	80018c2 <HAL_GPIO_Init+0xa2>
        {
          temp |= iocurrent;
 80018be:	ea42 0605 	orr.w	r6, r2, r5
        }
        EXTI->FTSR1 = temp;
 80018c2:	f04f 45b0 	mov.w	r5, #1476395008	; 0x58000000
 80018c6:	606e      	str	r6, [r5, #4]

        temp = EXTI_CurrentCPU->EMR1;
 80018c8:	f8d5 5084 	ldr.w	r5, [r5, #132]	; 0x84
        temp &= ~(iocurrent);
 80018cc:	ea04 0605 	and.w	r6, r4, r5
        if ((GPIO_Init->Mode & EXTI_EVT) != 0x00U)
 80018d0:	684f      	ldr	r7, [r1, #4]
 80018d2:	f417 3f00 	tst.w	r7, #131072	; 0x20000
 80018d6:	d001      	beq.n	80018dc <HAL_GPIO_Init+0xbc>
        {
          temp |= iocurrent;
 80018d8:	ea42 0605 	orr.w	r6, r2, r5
        }
        EXTI_CurrentCPU->EMR1 = temp;
 80018dc:	f04f 45b0 	mov.w	r5, #1476395008	; 0x58000000
 80018e0:	f8c5 6084 	str.w	r6, [r5, #132]	; 0x84

        /* Clear EXTI line configuration */
        temp = EXTI_CurrentCPU->IMR1;
 80018e4:	f8d5 5080 	ldr.w	r5, [r5, #128]	; 0x80
        temp &= ~(iocurrent);
 80018e8:	402c      	ands	r4, r5
        if ((GPIO_Init->Mode & EXTI_IT) != 0x00U)
 80018ea:	684e      	ldr	r6, [r1, #4]
 80018ec:	f416 3f80 	tst.w	r6, #65536	; 0x10000
 80018f0:	d001      	beq.n	80018f6 <HAL_GPIO_Init+0xd6>
        {
          temp |= iocurrent;
 80018f2:	ea42 0405 	orr.w	r4, r2, r5
        }
        EXTI_CurrentCPU->IMR1 = temp;
 80018f6:	f04f 42b0 	mov.w	r2, #1476395008	; 0x58000000
 80018fa:	f8c2 4080 	str.w	r4, [r2, #128]	; 0x80
      }
    }

    position++;
 80018fe:	3301      	adds	r3, #1
  while (((GPIO_Init->Pin) >> position) != 0x00U)
 8001900:	680a      	ldr	r2, [r1, #0]
 8001902:	fa32 f403 	lsrs.w	r4, r2, r3
 8001906:	f000 8092 	beq.w	8001a2e <HAL_GPIO_Init+0x20e>
    iocurrent = (GPIO_Init->Pin) & (1UL << position);
 800190a:	f04f 0c01 	mov.w	ip, #1
 800190e:	fa0c fc03 	lsl.w	ip, ip, r3
    if (iocurrent != 0x00U)
 8001912:	ea1c 0202 	ands.w	r2, ip, r2
 8001916:	d0f2      	beq.n	80018fe <HAL_GPIO_Init+0xde>
      if (((GPIO_Init->Mode & GPIO_MODE) == MODE_OUTPUT) || ((GPIO_Init->Mode & GPIO_MODE) == MODE_AF))
 8001918:	684c      	ldr	r4, [r1, #4]
 800191a:	f004 0403 	and.w	r4, r4, #3
 800191e:	3c01      	subs	r4, #1
 8001920:	2c01      	cmp	r4, #1
 8001922:	d981      	bls.n	8001828 <HAL_GPIO_Init+0x8>
      if ((GPIO_Init->Mode & GPIO_MODE) != MODE_ANALOG)
 8001924:	684c      	ldr	r4, [r1, #4]
 8001926:	f004 0403 	and.w	r4, r4, #3
 800192a:	2c03      	cmp	r4, #3
 800192c:	d00c      	beq.n	8001948 <HAL_GPIO_Init+0x128>
      temp = GPIOx->PUPDR;
 800192e:	68c4      	ldr	r4, [r0, #12]
      temp &= ~(GPIO_PUPDR_PUPD0 << (position * 2U));
 8001930:	005d      	lsls	r5, r3, #1
 8001932:	f04f 0c03 	mov.w	ip, #3
 8001936:	fa0c fc05 	lsl.w	ip, ip, r5
 800193a:	ea24 0c0c 	bic.w	ip, r4, ip
      temp |= ((GPIO_Init->Pull) << (position * 2U));
 800193e:	688c      	ldr	r4, [r1, #8]
 8001940:	40ac      	lsls	r4, r5
 8001942:	ea44 040c 	orr.w	r4, r4, ip
      GPIOx->PUPDR = temp;
 8001946:	60c4      	str	r4, [r0, #12]
      if ((GPIO_Init->Mode & GPIO_MODE) == MODE_AF)
 8001948:	684c      	ldr	r4, [r1, #4]
 800194a:	f004 0403 	and.w	r4, r4, #3
 800194e:	2c02      	cmp	r4, #2
 8001950:	f43f af7f 	beq.w	8001852 <HAL_GPIO_Init+0x32>
      temp = GPIOx->MODER;
 8001954:	6804      	ldr	r4, [r0, #0]
      temp &= ~(GPIO_MODER_MODE0 << (position * 2U));
 8001956:	ea4f 0e43 	mov.w	lr, r3, lsl #1
 800195a:	f04f 0c03 	mov.w	ip, #3
 800195e:	fa0c fc0e 	lsl.w	ip, ip, lr
 8001962:	ea24 0c0c 	bic.w	ip, r4, ip
      temp |= ((GPIO_Init->Mode & GPIO_MODE) << (position * 2U));
 8001966:	684c      	ldr	r4, [r1, #4]
 8001968:	f004 0403 	and.w	r4, r4, #3
 800196c:	fa04 f40e 	lsl.w	r4, r4, lr
 8001970:	ea44 040c 	orr.w	r4, r4, ip
      GPIOx->MODER = temp;
 8001974:	6004      	str	r4, [r0, #0]
      if ((GPIO_Init->Mode & EXTI_MODE) != 0x00U)
 8001976:	684c      	ldr	r4, [r1, #4]
 8001978:	f414 3f40 	tst.w	r4, #196608	; 0x30000
 800197c:	d0bf      	beq.n	80018fe <HAL_GPIO_Init+0xde>
        __HAL_RCC_SYSCFG_CLK_ENABLE();
 800197e:	4c2e      	ldr	r4, [pc, #184]	; (8001a38 <HAL_GPIO_Init+0x218>)
 8001980:	f8d4 50f4 	ldr.w	r5, [r4, #244]	; 0xf4
 8001984:	f045 0502 	orr.w	r5, r5, #2
 8001988:	f8c4 50f4 	str.w	r5, [r4, #244]	; 0xf4
 800198c:	f8d4 40f4 	ldr.w	r4, [r4, #244]	; 0xf4
 8001990:	f004 0402 	and.w	r4, r4, #2
 8001994:	9401      	str	r4, [sp, #4]
 8001996:	9c01      	ldr	r4, [sp, #4]
        temp = SYSCFG->EXTICR[position >> 2U];
 8001998:	ea4f 0c93 	mov.w	ip, r3, lsr #2
 800199c:	f10c 0502 	add.w	r5, ip, #2
 80019a0:	4c24      	ldr	r4, [pc, #144]	; (8001a34 <HAL_GPIO_Init+0x214>)
 80019a2:	f854 5025 	ldr.w	r5, [r4, r5, lsl #2]
        temp &= ~(0x0FUL << (4U * (position & 0x03U)));
 80019a6:	f003 0403 	and.w	r4, r3, #3
 80019aa:	ea4f 0e84 	mov.w	lr, r4, lsl #2
 80019ae:	240f      	movs	r4, #15
 80019b0:	fa04 f40e 	lsl.w	r4, r4, lr
 80019b4:	ea25 0504 	bic.w	r5, r5, r4
        temp |= (GPIO_GET_INDEX(GPIOx) << (4U * (position & 0x03U)));
 80019b8:	4c20      	ldr	r4, [pc, #128]	; (8001a3c <HAL_GPIO_Init+0x21c>)
 80019ba:	42a0      	cmp	r0, r4
 80019bc:	f43f af60 	beq.w	8001880 <HAL_GPIO_Init+0x60>
 80019c0:	f504 6480 	add.w	r4, r4, #1024	; 0x400
 80019c4:	42a0      	cmp	r0, r4
 80019c6:	d022      	beq.n	8001a0e <HAL_GPIO_Init+0x1ee>
 80019c8:	f504 6480 	add.w	r4, r4, #1024	; 0x400
 80019cc:	42a0      	cmp	r0, r4
 80019ce:	d020      	beq.n	8001a12 <HAL_GPIO_Init+0x1f2>
 80019d0:	f504 6480 	add.w	r4, r4, #1024	; 0x400
 80019d4:	42a0      	cmp	r0, r4
 80019d6:	d01e      	beq.n	8001a16 <HAL_GPIO_Init+0x1f6>
 80019d8:	f504 6480 	add.w	r4, r4, #1024	; 0x400
 80019dc:	42a0      	cmp	r0, r4
 80019de:	d01c      	beq.n	8001a1a <HAL_GPIO_Init+0x1fa>
 80019e0:	f504 6480 	add.w	r4, r4, #1024	; 0x400
 80019e4:	42a0      	cmp	r0, r4
 80019e6:	d01a      	beq.n	8001a1e <HAL_GPIO_Init+0x1fe>
 80019e8:	f504 6480 	add.w	r4, r4, #1024	; 0x400
 80019ec:	42a0      	cmp	r0, r4
 80019ee:	d018      	beq.n	8001a22 <HAL_GPIO_Init+0x202>
 80019f0:	f504 6480 	add.w	r4, r4, #1024	; 0x400
 80019f4:	42a0      	cmp	r0, r4
 80019f6:	d016      	beq.n	8001a26 <HAL_GPIO_Init+0x206>
 80019f8:	f504 6480 	add.w	r4, r4, #1024	; 0x400
 80019fc:	42a0      	cmp	r0, r4
 80019fe:	d014      	beq.n	8001a2a <HAL_GPIO_Init+0x20a>
 8001a00:	f504 6480 	add.w	r4, r4, #1024	; 0x400
 8001a04:	42a0      	cmp	r0, r4
 8001a06:	f43f af39 	beq.w	800187c <HAL_GPIO_Init+0x5c>
 8001a0a:	240a      	movs	r4, #10
 8001a0c:	e739      	b.n	8001882 <HAL_GPIO_Init+0x62>
 8001a0e:	2401      	movs	r4, #1
 8001a10:	e737      	b.n	8001882 <HAL_GPIO_Init+0x62>
 8001a12:	2402      	movs	r4, #2
 8001a14:	e735      	b.n	8001882 <HAL_GPIO_Init+0x62>
 8001a16:	2403      	movs	r4, #3
 8001a18:	e733      	b.n	8001882 <HAL_GPIO_Init+0x62>
 8001a1a:	2404      	movs	r4, #4
 8001a1c:	e731      	b.n	8001882 <HAL_GPIO_Init+0x62>
 8001a1e:	2405      	movs	r4, #5
 8001a20:	e72f      	b.n	8001882 <HAL_GPIO_Init+0x62>
 8001a22:	2406      	movs	r4, #6
 8001a24:	e72d      	b.n	8001882 <HAL_GPIO_Init+0x62>
 8001a26:	2407      	movs	r4, #7
 8001a28:	e72b      	b.n	8001882 <HAL_GPIO_Init+0x62>
 8001a2a:	2408      	movs	r4, #8
 8001a2c:	e729      	b.n	8001882 <HAL_GPIO_Init+0x62>
  }
}
 8001a2e:	b003      	add	sp, #12
 8001a30:	bdf0      	pop	{r4, r5, r6, r7, pc}
 8001a32:	bf00      	nop
 8001a34:	58000400 	.word	0x58000400
 8001a38:	58024400 	.word	0x58024400
 8001a3c:	58020000 	.word	0x58020000

08001a40 <HAL_GPIO_DeInit>:
  *          This parameter can be one of GPIO_PIN_x where x can be (0..15).
  * @retval None
  */
void HAL_GPIO_DeInit(GPIO_TypeDef  *GPIOx, uint32_t GPIO_Pin)
{
  uint32_t position = 0x00U;
 8001a40:	2300      	movs	r3, #0
  /* Check the parameters */
  assert_param(IS_GPIO_ALL_INSTANCE(GPIOx));
  assert_param(IS_GPIO_PIN(GPIO_Pin));

  /* Configure the port pins */
  while ((GPIO_Pin >> position) != 0x00U)
 8001a42:	fa31 f203 	lsrs.w	r2, r1, r3
 8001a46:	f000 809d 	beq.w	8001b84 <HAL_GPIO_DeInit+0x144>
{
 8001a4a:	b5f0      	push	{r4, r5, r6, r7, lr}
 8001a4c:	e02e      	b.n	8001aac <HAL_GPIO_DeInit+0x6c>
    {
      /*------------------------- EXTI Mode Configuration --------------------*/
      /* Clear the External Interrupt or Event for the current IO */
      tmp = SYSCFG->EXTICR[position >> 2U];
      tmp &= (0x0FUL << (4U * (position & 0x03U)));
      if (tmp == (GPIO_GET_INDEX(GPIOx) << (4U * (position & 0x03U))))
 8001a4e:	2509      	movs	r5, #9
 8001a50:	e000      	b.n	8001a54 <HAL_GPIO_DeInit+0x14>
 8001a52:	2500      	movs	r5, #0
 8001a54:	fa05 fc0c 	lsl.w	ip, r5, ip
 8001a58:	45a4      	cmp	ip, r4
 8001a5a:	d072      	beq.n	8001b42 <HAL_GPIO_DeInit+0x102>
        SYSCFG->EXTICR[position >> 2U] &= ~tmp;
      }

      /*------------------------- GPIO Mode Configuration --------------------*/
      /* Configure IO in Analog Mode */
      GPIOx->MODER |= (GPIO_MODER_MODE0 << (position * 2U));
 8001a5c:	6804      	ldr	r4, [r0, #0]
 8001a5e:	005d      	lsls	r5, r3, #1
 8001a60:	f04f 0c03 	mov.w	ip, #3
 8001a64:	fa0c fc05 	lsl.w	ip, ip, r5
 8001a68:	ea44 040c 	orr.w	r4, r4, ip
 8001a6c:	6004      	str	r4, [r0, #0]

      /* Configure the default Alternate Function in current IO */
      GPIOx->AFR[position >> 3U] &= ~(0xFU << ((position & 0x07U) * 4U)) ;
 8001a6e:	ea4f 0ed3 	mov.w	lr, r3, lsr #3
 8001a72:	f10e 0e08 	add.w	lr, lr, #8
 8001a76:	f850 402e 	ldr.w	r4, [r0, lr, lsl #2]
 8001a7a:	f003 0507 	and.w	r5, r3, #7
 8001a7e:	00ae      	lsls	r6, r5, #2
 8001a80:	250f      	movs	r5, #15
 8001a82:	40b5      	lsls	r5, r6
 8001a84:	ea24 0405 	bic.w	r4, r4, r5
 8001a88:	f840 402e 	str.w	r4, [r0, lr, lsl #2]

      /* Deactivate the Pull-up and Pull-down resistor for the current IO */
      GPIOx->PUPDR &= ~(GPIO_PUPDR_PUPD0 << (position * 2U));
 8001a8c:	68c4      	ldr	r4, [r0, #12]
 8001a8e:	ea24 040c 	bic.w	r4, r4, ip
 8001a92:	60c4      	str	r4, [r0, #12]

      /* Configure the default value IO Output Type */
      GPIOx->OTYPER  &= ~(GPIO_OTYPER_OT0 << position) ;
 8001a94:	6844      	ldr	r4, [r0, #4]
 8001a96:	ea24 0202 	bic.w	r2, r4, r2
 8001a9a:	6042      	str	r2, [r0, #4]

      /* Configure the default value for IO Speed */
      GPIOx->OSPEEDR &= ~(GPIO_OSPEEDR_OSPEED0 << (position * 2U));
 8001a9c:	6882      	ldr	r2, [r0, #8]
 8001a9e:	ea22 020c 	bic.w	r2, r2, ip
 8001aa2:	6082      	str	r2, [r0, #8]
    }

    position++;
 8001aa4:	3301      	adds	r3, #1
  while ((GPIO_Pin >> position) != 0x00U)
 8001aa6:	fa31 f203 	lsrs.w	r2, r1, r3
 8001aaa:	d06a      	beq.n	8001b82 <HAL_GPIO_DeInit+0x142>
    iocurrent = GPIO_Pin & (1UL << position) ;
 8001aac:	2201      	movs	r2, #1
 8001aae:	409a      	lsls	r2, r3
    if (iocurrent != 0x00U)
 8001ab0:	ea12 0e01 	ands.w	lr, r2, r1
 8001ab4:	d0f6      	beq.n	8001aa4 <HAL_GPIO_DeInit+0x64>
      tmp = SYSCFG->EXTICR[position >> 2U];
 8001ab6:	089e      	lsrs	r6, r3, #2
 8001ab8:	1cb5      	adds	r5, r6, #2
 8001aba:	4c33      	ldr	r4, [pc, #204]	; (8001b88 <HAL_GPIO_DeInit+0x148>)
 8001abc:	f854 4025 	ldr.w	r4, [r4, r5, lsl #2]
      tmp &= (0x0FUL << (4U * (position & 0x03U)));
 8001ac0:	f003 0c03 	and.w	ip, r3, #3
 8001ac4:	ea4f 0c8c 	mov.w	ip, ip, lsl #2
 8001ac8:	250f      	movs	r5, #15
 8001aca:	fa05 f70c 	lsl.w	r7, r5, ip
 8001ace:	403c      	ands	r4, r7
      if (tmp == (GPIO_GET_INDEX(GPIOx) << (4U * (position & 0x03U))))
 8001ad0:	4d2e      	ldr	r5, [pc, #184]	; (8001b8c <HAL_GPIO_DeInit+0x14c>)
 8001ad2:	42a8      	cmp	r0, r5
 8001ad4:	d0bd      	beq.n	8001a52 <HAL_GPIO_DeInit+0x12>
 8001ad6:	f505 6580 	add.w	r5, r5, #1024	; 0x400
 8001ada:	42a8      	cmp	r0, r5
 8001adc:	d021      	beq.n	8001b22 <HAL_GPIO_DeInit+0xe2>
 8001ade:	f505 6580 	add.w	r5, r5, #1024	; 0x400
 8001ae2:	42a8      	cmp	r0, r5
 8001ae4:	d01f      	beq.n	8001b26 <HAL_GPIO_DeInit+0xe6>
 8001ae6:	f505 6580 	add.w	r5, r5, #1024	; 0x400
 8001aea:	42a8      	cmp	r0, r5
 8001aec:	d01d      	beq.n	8001b2a <HAL_GPIO_DeInit+0xea>
 8001aee:	f505 6580 	add.w	r5, r5, #1024	; 0x400
 8001af2:	42a8      	cmp	r0, r5
 8001af4:	d01b      	beq.n	8001b2e <HAL_GPIO_DeInit+0xee>
 8001af6:	f505 6580 	add.w	r5, r5, #1024	; 0x400
 8001afa:	42a8      	cmp	r0, r5
 8001afc:	d019      	beq.n	8001b32 <HAL_GPIO_DeInit+0xf2>
 8001afe:	f505 6580 	add.w	r5, r5, #1024	; 0x400
 8001b02:	42a8      	cmp	r0, r5
 8001b04:	d017      	beq.n	8001b36 <HAL_GPIO_DeInit+0xf6>
 8001b06:	f505 6580 	add.w	r5, r5, #1024	; 0x400
 8001b0a:	42a8      	cmp	r0, r5
 8001b0c:	d015      	beq.n	8001b3a <HAL_GPIO_DeInit+0xfa>
 8001b0e:	f505 6580 	add.w	r5, r5, #1024	; 0x400
 8001b12:	42a8      	cmp	r0, r5
 8001b14:	d013      	beq.n	8001b3e <HAL_GPIO_DeInit+0xfe>
 8001b16:	f505 6580 	add.w	r5, r5, #1024	; 0x400
 8001b1a:	42a8      	cmp	r0, r5
 8001b1c:	d097      	beq.n	8001a4e <HAL_GPIO_DeInit+0xe>
 8001b1e:	250a      	movs	r5, #10
 8001b20:	e798      	b.n	8001a54 <HAL_GPIO_DeInit+0x14>
 8001b22:	2501      	movs	r5, #1
 8001b24:	e796      	b.n	8001a54 <HAL_GPIO_DeInit+0x14>
 8001b26:	2502      	movs	r5, #2
 8001b28:	e794      	b.n	8001a54 <HAL_GPIO_DeInit+0x14>
 8001b2a:	2503      	movs	r5, #3
 8001b2c:	e792      	b.n	8001a54 <HAL_GPIO_DeInit+0x14>
 8001b2e:	2504      	movs	r5, #4
 8001b30:	e790      	b.n	8001a54 <HAL_GPIO_DeInit+0x14>
 8001b32:	2505      	movs	r5, #5
 8001b34:	e78e      	b.n	8001a54 <HAL_GPIO_DeInit+0x14>
 8001b36:	2506      	movs	r5, #6
 8001b38:	e78c      	b.n	8001a54 <HAL_GPIO_DeInit+0x14>
 8001b3a:	2507      	movs	r5, #7
 8001b3c:	e78a      	b.n	8001a54 <HAL_GPIO_DeInit+0x14>
 8001b3e:	2508      	movs	r5, #8
 8001b40:	e788      	b.n	8001a54 <HAL_GPIO_DeInit+0x14>
        EXTI_CurrentCPU->IMR1 &= ~(iocurrent);
 8001b42:	f04f 44b0 	mov.w	r4, #1476395008	; 0x58000000
 8001b46:	f8d4 5080 	ldr.w	r5, [r4, #128]	; 0x80
 8001b4a:	ea25 050e 	bic.w	r5, r5, lr
 8001b4e:	f8c4 5080 	str.w	r5, [r4, #128]	; 0x80
        EXTI_CurrentCPU->EMR1 &= ~(iocurrent);
 8001b52:	f8d4 5084 	ldr.w	r5, [r4, #132]	; 0x84
 8001b56:	ea25 050e 	bic.w	r5, r5, lr
 8001b5a:	f8c4 5084 	str.w	r5, [r4, #132]	; 0x84
        EXTI->FTSR1 &= ~(iocurrent);
 8001b5e:	6865      	ldr	r5, [r4, #4]
 8001b60:	ea25 050e 	bic.w	r5, r5, lr
 8001b64:	6065      	str	r5, [r4, #4]
        EXTI->RTSR1 &= ~(iocurrent);
 8001b66:	6825      	ldr	r5, [r4, #0]
 8001b68:	ea25 050e 	bic.w	r5, r5, lr
 8001b6c:	6025      	str	r5, [r4, #0]
        SYSCFG->EXTICR[position >> 2U] &= ~tmp;
 8001b6e:	f8df c018 	ldr.w	ip, [pc, #24]	; 8001b88 <HAL_GPIO_DeInit+0x148>
 8001b72:	1cb4      	adds	r4, r6, #2
 8001b74:	f85c 5024 	ldr.w	r5, [ip, r4, lsl #2]
 8001b78:	ea25 0507 	bic.w	r5, r5, r7
 8001b7c:	f84c 5024 	str.w	r5, [ip, r4, lsl #2]
 8001b80:	e76c      	b.n	8001a5c <HAL_GPIO_DeInit+0x1c>
  }
}
 8001b82:	bdf0      	pop	{r4, r5, r6, r7, pc}
 8001b84:	4770      	bx	lr
 8001b86:	bf00      	nop
 8001b88:	58000400 	.word	0x58000400
 8001b8c:	58020000 	.word	0x58020000

08001b90 <HAL_GPIO_ReadPin>:
  GPIO_PinState bitstatus;

  /* Check the parameters */
  assert_param(IS_GPIO_PIN(GPIO_Pin));

  if ((GPIOx->IDR & GPIO_Pin) != 0x00U)
 8001b90:	6903      	ldr	r3, [r0, #16]
 8001b92:	4219      	tst	r1, r3
 8001b94:	d001      	beq.n	8001b9a <HAL_GPIO_ReadPin+0xa>
  {
    bitstatus = GPIO_PIN_SET;
 8001b96:	2001      	movs	r0, #1
 8001b98:	4770      	bx	lr
  }
  else
  {
    bitstatus = GPIO_PIN_RESET;
 8001b9a:	2000      	movs	r0, #0
  }
  return bitstatus;
}
 8001b9c:	4770      	bx	lr

08001b9e <HAL_GPIO_WritePin>:
{
  /* Check the parameters */
  assert_param(IS_GPIO_PIN(GPIO_Pin));
  assert_param(IS_GPIO_PIN_ACTION(PinState));

  if (PinState != GPIO_PIN_RESET)
 8001b9e:	b10a      	cbz	r2, 8001ba4 <HAL_GPIO_WritePin+0x6>
  {
    GPIOx->BSRR = GPIO_Pin;
 8001ba0:	6181      	str	r1, [r0, #24]
 8001ba2:	4770      	bx	lr
  }
  else
  {
    GPIOx->BSRR = (uint32_t)GPIO_Pin << GPIO_NUMBER;
 8001ba4:	0409      	lsls	r1, r1, #16
 8001ba6:	6181      	str	r1, [r0, #24]
  }
}
 8001ba8:	4770      	bx	lr

08001baa <HAL_GPIO_TogglePin>:

  /* Check the parameters */
  assert_param(IS_GPIO_PIN(GPIO_Pin));

  /* get current Output Data Register value */
  odr = GPIOx->ODR;
 8001baa:	6943      	ldr	r3, [r0, #20]

  /* Set selected pins that were at low level, and reset ones that were high */
  GPIOx->BSRR = ((odr & GPIO_Pin) << GPIO_NUMBER) | (~odr & GPIO_Pin);
 8001bac:	ea01 0203 	and.w	r2, r1, r3
 8001bb0:	ea21 0103 	bic.w	r1, r1, r3
 8001bb4:	ea41 4102 	orr.w	r1, r1, r2, lsl #16
 8001bb8:	6181      	str	r1, [r0, #24]
}
 8001bba:	4770      	bx	lr

08001bbc <HAL_GPIO_EXTI_IRQHandler>:
  * @brief  Handle EXTI interrupt request.
  * @param  GPIO_Pin: Specifies the port pin connected to corresponding EXTI line.
  * @retval None
  */
void HAL_GPIO_EXTI_IRQHandler(uint16_t GPIO_Pin)
{
 8001bbc:	b508      	push	{r3, lr}
    __HAL_GPIO_EXTID2_CLEAR_IT(GPIO_Pin);
    HAL_GPIO_EXTI_Callback(GPIO_Pin);
  }
#else
  /* EXTI line interrupt detected */
  if (__HAL_GPIO_EXTI_GET_IT(GPIO_Pin) != 0x00U)
 8001bbe:	f04f 43b0 	mov.w	r3, #1476395008	; 0x58000000
 8001bc2:	f8d3 3088 	ldr.w	r3, [r3, #136]	; 0x88
 8001bc6:	4203      	tst	r3, r0
 8001bc8:	d100      	bne.n	8001bcc <HAL_GPIO_EXTI_IRQHandler+0x10>
  {
    __HAL_GPIO_EXTI_CLEAR_IT(GPIO_Pin);
    HAL_GPIO_EXTI_Callback(GPIO_Pin);
  }
#endif
}
 8001bca:	bd08      	pop	{r3, pc}
    __HAL_GPIO_EXTI_CLEAR_IT(GPIO_Pin);
 8001bcc:	f04f 43b0 	mov.w	r3, #1476395008	; 0x58000000
 8001bd0:	f8c3 0088 	str.w	r0, [r3, #136]	; 0x88
    HAL_GPIO_EXTI_Callback(GPIO_Pin);
 8001bd4:	f7ff f85c 	bl	8000c90 <HAL_GPIO_EXTI_Callback>
}
 8001bd8:	e7f7      	b.n	8001bca <HAL_GPIO_EXTI_IRQHandler+0xe>

08001bda <I2C_Flush_TXDR>:
  */
static void I2C_Flush_TXDR(I2C_HandleTypeDef *hi2c)
{
  /* If a pending TXIS flag is set */
  /* Write a dummy data in TXDR to clear it */
  if (__HAL_I2C_GET_FLAG(hi2c, I2C_FLAG_TXIS) != RESET)
 8001bda:	6803      	ldr	r3, [r0, #0]
 8001bdc:	699a      	ldr	r2, [r3, #24]
 8001bde:	f012 0f02 	tst.w	r2, #2
 8001be2:	d001      	beq.n	8001be8 <I2C_Flush_TXDR+0xe>
  {
    hi2c->Instance->TXDR = 0x00U;
 8001be4:	2200      	movs	r2, #0
 8001be6:	629a      	str	r2, [r3, #40]	; 0x28
  }

  /* Flush TX register if not empty */
  if (__HAL_I2C_GET_FLAG(hi2c, I2C_FLAG_TXE) == RESET)
 8001be8:	6803      	ldr	r3, [r0, #0]
 8001bea:	699a      	ldr	r2, [r3, #24]
 8001bec:	f012 0f01 	tst.w	r2, #1
 8001bf0:	d103      	bne.n	8001bfa <I2C_Flush_TXDR+0x20>
  {
    __HAL_I2C_CLEAR_FLAG(hi2c, I2C_FLAG_TXE);
 8001bf2:	699a      	ldr	r2, [r3, #24]
 8001bf4:	f042 0201 	orr.w	r2, r2, #1
 8001bf8:	619a      	str	r2, [r3, #24]
  }
}
 8001bfa:	4770      	bx	lr

08001bfc <I2C_TransferConfig>:
  *     @arg @ref I2C_GENERATE_START_WRITE Generate Restart for write request.
  * @retval None
  */
static void I2C_TransferConfig(I2C_HandleTypeDef *hi2c, uint16_t DevAddress, uint8_t Size, uint32_t Mode,
                               uint32_t Request)
{
 8001bfc:	b410      	push	{r4}
 8001bfe:	9c01      	ldr	r4, [sp, #4]
  assert_param(IS_I2C_ALL_INSTANCE(hi2c->Instance));
  assert_param(IS_TRANSFER_MODE(Mode));
  assert_param(IS_TRANSFER_REQUEST(Request));

  /* Declaration of tmp to prevent undefined behavior of volatile usage */
  uint32_t tmp = ((uint32_t)(((uint32_t)DevAddress & I2C_CR2_SADD) | \
 8001c00:	f3c1 0109 	ubfx	r1, r1, #0, #10
 8001c04:	ea41 4102 	orr.w	r1, r1, r2, lsl #16
                             (((uint32_t)Size << I2C_CR2_NBYTES_Pos) & I2C_CR2_NBYTES) | \
 8001c08:	4319      	orrs	r1, r3
  uint32_t tmp = ((uint32_t)(((uint32_t)DevAddress & I2C_CR2_SADD) | \
 8001c0a:	4321      	orrs	r1, r4
 8001c0c:	f021 4100 	bic.w	r1, r1, #2147483648	; 0x80000000
                             (uint32_t)Mode | (uint32_t)Request) & (~0x80000000U));

  /* update CR2 register */
  MODIFY_REG(hi2c->Instance->CR2, \
 8001c10:	6802      	ldr	r2, [r0, #0]
 8001c12:	6853      	ldr	r3, [r2, #4]
 8001c14:	0d64      	lsrs	r4, r4, #21
 8001c16:	f404 6480 	and.w	r4, r4, #1024	; 0x400
 8001c1a:	f044 747f 	orr.w	r4, r4, #66846720	; 0x3fc0000
 8001c1e:	f444 3458 	orr.w	r4, r4, #221184	; 0x36000
 8001c22:	f444 747f 	orr.w	r4, r4, #1020	; 0x3fc
 8001c26:	f044 0403 	orr.w	r4, r4, #3
 8001c2a:	ea23 0404 	bic.w	r4, r3, r4
 8001c2e:	4321      	orrs	r1, r4
 8001c30:	6051      	str	r1, [r2, #4]
             ((I2C_CR2_SADD | I2C_CR2_NBYTES | I2C_CR2_RELOAD | I2C_CR2_AUTOEND | \
               (I2C_CR2_RD_WRN & (uint32_t)(Request >> (31U - I2C_CR2_RD_WRN_Pos))) | \
               I2C_CR2_START | I2C_CR2_STOP)), tmp);
}
 8001c32:	f85d 4b04 	ldr.w	r4, [sp], #4
 8001c36:	4770      	bx	lr

08001c38 <I2C_IsErrorOccurred>:
{
 8001c38:	e92d 41f0 	stmdb	sp!, {r4, r5, r6, r7, r8, lr}
 8001c3c:	4604      	mov	r4, r0
  uint32_t itflag   = hi2c->Instance->ISR;
 8001c3e:	6803      	ldr	r3, [r0, #0]
 8001c40:	699e      	ldr	r6, [r3, #24]
  if (HAL_IS_BIT_SET(itflag, I2C_FLAG_AF))
 8001c42:	f016 0610 	ands.w	r6, r6, #16
 8001c46:	d07e      	beq.n	8001d46 <I2C_IsErrorOccurred+0x10e>
 8001c48:	460d      	mov	r5, r1
 8001c4a:	4690      	mov	r8, r2
    __HAL_I2C_CLEAR_FLAG(hi2c, I2C_FLAG_AF);
 8001c4c:	2210      	movs	r2, #16
 8001c4e:	61da      	str	r2, [r3, #28]
  uint32_t error_code = 0;
 8001c50:	2600      	movs	r6, #0
  HAL_StatusTypeDef status = HAL_OK;
 8001c52:	4637      	mov	r7, r6
    while ((__HAL_I2C_GET_FLAG(hi2c, I2C_FLAG_STOPF) == RESET) && (status == HAL_OK))
 8001c54:	6823      	ldr	r3, [r4, #0]
 8001c56:	6998      	ldr	r0, [r3, #24]
 8001c58:	f010 0f20 	tst.w	r0, #32
 8001c5c:	d132      	bne.n	8001cc4 <I2C_IsErrorOccurred+0x8c>
 8001c5e:	bb8f      	cbnz	r7, 8001cc4 <I2C_IsErrorOccurred+0x8c>
      if (Timeout != HAL_MAX_DELAY)
 8001c60:	f1b5 3fff 	cmp.w	r5, #4294967295	; 0xffffffff
 8001c64:	d0f6      	beq.n	8001c54 <I2C_IsErrorOccurred+0x1c>
        if (((HAL_GetTick() - tickstart) > Timeout) || (Timeout == 0U))
 8001c66:	f7ff fd2d 	bl	80016c4 <HAL_GetTick>
 8001c6a:	eba0 0008 	sub.w	r0, r0, r8
 8001c6e:	42a8      	cmp	r0, r5
 8001c70:	d801      	bhi.n	8001c76 <I2C_IsErrorOccurred+0x3e>
 8001c72:	2d00      	cmp	r5, #0
 8001c74:	d1ee      	bne.n	8001c54 <I2C_IsErrorOccurred+0x1c>
          tmp1 = (uint32_t)(hi2c->Instance->CR2 & I2C_CR2_STOP);
 8001c76:	6821      	ldr	r1, [r4, #0]
 8001c78:	684a      	ldr	r2, [r1, #4]
 8001c7a:	f402 4280 	and.w	r2, r2, #16384	; 0x4000
          tmp2 = hi2c->Mode;
 8001c7e:	f894 3042 	ldrb.w	r3, [r4, #66]	; 0x42
 8001c82:	b2db      	uxtb	r3, r3
          if ((__HAL_I2C_GET_FLAG(hi2c, I2C_FLAG_BUSY) != RESET) && \
 8001c84:	6988      	ldr	r0, [r1, #24]
 8001c86:	f410 4f00 	tst.w	r0, #32768	; 0x8000
 8001c8a:	d004      	beq.n	8001c96 <I2C_IsErrorOccurred+0x5e>
              (tmp2 != HAL_I2C_MODE_SLAVE))
 8001c8c:	3b20      	subs	r3, #32
 8001c8e:	bf18      	it	ne
 8001c90:	2301      	movne	r3, #1
              (tmp1 != I2C_CR2_STOP) && \
 8001c92:	b902      	cbnz	r2, 8001c96 <I2C_IsErrorOccurred+0x5e>
 8001c94:	b973      	cbnz	r3, 8001cb4 <I2C_IsErrorOccurred+0x7c>
          while (__HAL_I2C_GET_FLAG(hi2c, I2C_FLAG_STOPF) == RESET)
 8001c96:	6823      	ldr	r3, [r4, #0]
 8001c98:	699b      	ldr	r3, [r3, #24]
 8001c9a:	f013 0f20 	tst.w	r3, #32
 8001c9e:	d1d9      	bne.n	8001c54 <I2C_IsErrorOccurred+0x1c>
            if ((HAL_GetTick() - tickstart) > I2C_TIMEOUT_STOPF)
 8001ca0:	f7ff fd10 	bl	80016c4 <HAL_GetTick>
 8001ca4:	eba0 0008 	sub.w	r0, r0, r8
 8001ca8:	2819      	cmp	r0, #25
 8001caa:	d9f4      	bls.n	8001c96 <I2C_IsErrorOccurred+0x5e>
              error_code |= HAL_I2C_ERROR_TIMEOUT;
 8001cac:	f046 0620 	orr.w	r6, r6, #32
              status = HAL_ERROR;
 8001cb0:	2701      	movs	r7, #1
              break;
 8001cb2:	e7cf      	b.n	8001c54 <I2C_IsErrorOccurred+0x1c>
            hi2c->Instance->CR2 |= I2C_CR2_STOP;
 8001cb4:	684b      	ldr	r3, [r1, #4]
 8001cb6:	f443 4380 	orr.w	r3, r3, #16384	; 0x4000
 8001cba:	604b      	str	r3, [r1, #4]
            tickstart = HAL_GetTick();
 8001cbc:	f7ff fd02 	bl	80016c4 <HAL_GetTick>
 8001cc0:	4680      	mov	r8, r0
 8001cc2:	e7e8      	b.n	8001c96 <I2C_IsErrorOccurred+0x5e>
    if (status == HAL_OK)
 8001cc4:	b90f      	cbnz	r7, 8001cca <I2C_IsErrorOccurred+0x92>
      __HAL_I2C_CLEAR_FLAG(hi2c, I2C_FLAG_STOPF);
 8001cc6:	2220      	movs	r2, #32
 8001cc8:	61da      	str	r2, [r3, #28]
    error_code |= HAL_I2C_ERROR_AF;
 8001cca:	f046 0604 	orr.w	r6, r6, #4
    status = HAL_ERROR;
 8001cce:	2501      	movs	r5, #1
  itflag = hi2c->Instance->ISR;
 8001cd0:	6822      	ldr	r2, [r4, #0]
 8001cd2:	6993      	ldr	r3, [r2, #24]
  if (HAL_IS_BIT_SET(itflag, I2C_FLAG_BERR))
 8001cd4:	f413 7f80 	tst.w	r3, #256	; 0x100
 8001cd8:	d005      	beq.n	8001ce6 <I2C_IsErrorOccurred+0xae>
    error_code |= HAL_I2C_ERROR_BERR;
 8001cda:	f046 0601 	orr.w	r6, r6, #1
    __HAL_I2C_CLEAR_FLAG(hi2c, I2C_FLAG_BERR);
 8001cde:	f44f 7180 	mov.w	r1, #256	; 0x100
 8001ce2:	61d1      	str	r1, [r2, #28]
    status = HAL_ERROR;
 8001ce4:	2501      	movs	r5, #1
  if (HAL_IS_BIT_SET(itflag, I2C_FLAG_OVR))
 8001ce6:	f413 6f80 	tst.w	r3, #1024	; 0x400
 8001cea:	d006      	beq.n	8001cfa <I2C_IsErrorOccurred+0xc2>
    error_code |= HAL_I2C_ERROR_OVR;
 8001cec:	f046 0608 	orr.w	r6, r6, #8
    __HAL_I2C_CLEAR_FLAG(hi2c, I2C_FLAG_OVR);
 8001cf0:	6822      	ldr	r2, [r4, #0]
 8001cf2:	f44f 6180 	mov.w	r1, #1024	; 0x400
 8001cf6:	61d1      	str	r1, [r2, #28]
    status = HAL_ERROR;
 8001cf8:	2501      	movs	r5, #1
  if (HAL_IS_BIT_SET(itflag, I2C_FLAG_ARLO))
 8001cfa:	f413 7f00 	tst.w	r3, #512	; 0x200
 8001cfe:	d024      	beq.n	8001d4a <I2C_IsErrorOccurred+0x112>
    error_code |= HAL_I2C_ERROR_ARLO;
 8001d00:	f046 0602 	orr.w	r6, r6, #2
    __HAL_I2C_CLEAR_FLAG(hi2c, I2C_FLAG_ARLO);
 8001d04:	6823      	ldr	r3, [r4, #0]
 8001d06:	f44f 7200 	mov.w	r2, #512	; 0x200
 8001d0a:	61da      	str	r2, [r3, #28]
    status = HAL_ERROR;
 8001d0c:	2501      	movs	r5, #1
    I2C_Flush_TXDR(hi2c);
 8001d0e:	4620      	mov	r0, r4
 8001d10:	f7ff ff63 	bl	8001bda <I2C_Flush_TXDR>
    I2C_RESET_CR2(hi2c);
 8001d14:	6822      	ldr	r2, [r4, #0]
 8001d16:	6853      	ldr	r3, [r2, #4]
 8001d18:	f023 73ff 	bic.w	r3, r3, #33423360	; 0x1fe0000
 8001d1c:	f423 338b 	bic.w	r3, r3, #71168	; 0x11600
 8001d20:	f423 73ff 	bic.w	r3, r3, #510	; 0x1fe
 8001d24:	f023 0301 	bic.w	r3, r3, #1
 8001d28:	6053      	str	r3, [r2, #4]
    hi2c->ErrorCode |= error_code;
 8001d2a:	6c63      	ldr	r3, [r4, #68]	; 0x44
 8001d2c:	431e      	orrs	r6, r3
 8001d2e:	6466      	str	r6, [r4, #68]	; 0x44
    hi2c->State = HAL_I2C_STATE_READY;
 8001d30:	2320      	movs	r3, #32
 8001d32:	f884 3041 	strb.w	r3, [r4, #65]	; 0x41
    hi2c->Mode = HAL_I2C_MODE_NONE;
 8001d36:	2300      	movs	r3, #0
 8001d38:	f884 3042 	strb.w	r3, [r4, #66]	; 0x42
    __HAL_UNLOCK(hi2c);
 8001d3c:	f884 3040 	strb.w	r3, [r4, #64]	; 0x40
}
 8001d40:	4628      	mov	r0, r5
 8001d42:	e8bd 81f0 	ldmia.w	sp!, {r4, r5, r6, r7, r8, pc}
  HAL_StatusTypeDef status = HAL_OK;
 8001d46:	2500      	movs	r5, #0
 8001d48:	e7c2      	b.n	8001cd0 <I2C_IsErrorOccurred+0x98>
  if (status != HAL_OK)
 8001d4a:	2d00      	cmp	r5, #0
 8001d4c:	d0f8      	beq.n	8001d40 <I2C_IsErrorOccurred+0x108>
 8001d4e:	e7de      	b.n	8001d0e <I2C_IsErrorOccurred+0xd6>

08001d50 <I2C_WaitOnTXISFlagUntilTimeout>:
{
 8001d50:	b570      	push	{r4, r5, r6, lr}
 8001d52:	4604      	mov	r4, r0
 8001d54:	460d      	mov	r5, r1
 8001d56:	4616      	mov	r6, r2
  while (__HAL_I2C_GET_FLAG(hi2c, I2C_FLAG_TXIS) == RESET)
 8001d58:	6823      	ldr	r3, [r4, #0]
 8001d5a:	699b      	ldr	r3, [r3, #24]
 8001d5c:	f013 0f02 	tst.w	r3, #2
 8001d60:	d122      	bne.n	8001da8 <I2C_WaitOnTXISFlagUntilTimeout+0x58>
    if (I2C_IsErrorOccurred(hi2c, Timeout, Tickstart) != HAL_OK)
 8001d62:	4632      	mov	r2, r6
 8001d64:	4629      	mov	r1, r5
 8001d66:	4620      	mov	r0, r4
 8001d68:	f7ff ff66 	bl	8001c38 <I2C_IsErrorOccurred>
 8001d6c:	b9f0      	cbnz	r0, 8001dac <I2C_WaitOnTXISFlagUntilTimeout+0x5c>
    if (Timeout != HAL_MAX_DELAY)
 8001d6e:	f1b5 3fff 	cmp.w	r5, #4294967295	; 0xffffffff
 8001d72:	d0f1      	beq.n	8001d58 <I2C_WaitOnTXISFlagUntilTimeout+0x8>
      if (((HAL_GetTick() - Tickstart) > Timeout) || (Timeout == 0U))
 8001d74:	f7ff fca6 	bl	80016c4 <HAL_GetTick>
 8001d78:	1b80      	subs	r0, r0, r6
 8001d7a:	42a8      	cmp	r0, r5
 8001d7c:	d801      	bhi.n	8001d82 <I2C_WaitOnTXISFlagUntilTimeout+0x32>
 8001d7e:	2d00      	cmp	r5, #0
 8001d80:	d1ea      	bne.n	8001d58 <I2C_WaitOnTXISFlagUntilTimeout+0x8>
        if ((__HAL_I2C_GET_FLAG(hi2c, I2C_FLAG_TXIS) == RESET))
 8001d82:	6823      	ldr	r3, [r4, #0]
 8001d84:	699b      	ldr	r3, [r3, #24]
 8001d86:	f013 0f02 	tst.w	r3, #2
 8001d8a:	d1e5      	bne.n	8001d58 <I2C_WaitOnTXISFlagUntilTimeout+0x8>
          hi2c->ErrorCode |= HAL_I2C_ERROR_TIMEOUT;
 8001d8c:	6c63      	ldr	r3, [r4, #68]	; 0x44
 8001d8e:	f043 0320 	orr.w	r3, r3, #32
 8001d92:	6463      	str	r3, [r4, #68]	; 0x44
          hi2c->State = HAL_I2C_STATE_READY;
 8001d94:	2320      	movs	r3, #32
 8001d96:	f884 3041 	strb.w	r3, [r4, #65]	; 0x41
          hi2c->Mode = HAL_I2C_MODE_NONE;
 8001d9a:	2300      	movs	r3, #0
 8001d9c:	f884 3042 	strb.w	r3, [r4, #66]	; 0x42
          __HAL_UNLOCK(hi2c);
 8001da0:	f884 3040 	strb.w	r3, [r4, #64]	; 0x40
          return HAL_ERROR;
 8001da4:	2001      	movs	r0, #1
 8001da6:	e000      	b.n	8001daa <I2C_WaitOnTXISFlagUntilTimeout+0x5a>
  return HAL_OK;
 8001da8:	2000      	movs	r0, #0
}
 8001daa:	bd70      	pop	{r4, r5, r6, pc}
      return HAL_ERROR;
 8001dac:	2001      	movs	r0, #1
 8001dae:	e7fc      	b.n	8001daa <I2C_WaitOnTXISFlagUntilTimeout+0x5a>

08001db0 <I2C_WaitOnFlagUntilTimeout>:
{
 8001db0:	e92d 41f0 	stmdb	sp!, {r4, r5, r6, r7, r8, lr}
 8001db4:	4605      	mov	r5, r0
 8001db6:	460f      	mov	r7, r1
 8001db8:	4616      	mov	r6, r2
 8001dba:	4698      	mov	r8, r3
  while (__HAL_I2C_GET_FLAG(hi2c, Flag) == Status)
 8001dbc:	682c      	ldr	r4, [r5, #0]
 8001dbe:	69a4      	ldr	r4, [r4, #24]
 8001dc0:	ea37 0304 	bics.w	r3, r7, r4
 8001dc4:	bf0c      	ite	eq
 8001dc6:	f04f 0c01 	moveq.w	ip, #1
 8001dca:	f04f 0c00 	movne.w	ip, #0
 8001dce:	45b4      	cmp	ip, r6
 8001dd0:	d122      	bne.n	8001e18 <I2C_WaitOnFlagUntilTimeout+0x68>
    if (Timeout != HAL_MAX_DELAY)
 8001dd2:	f1b8 3fff 	cmp.w	r8, #4294967295	; 0xffffffff
 8001dd6:	d0f1      	beq.n	8001dbc <I2C_WaitOnFlagUntilTimeout+0xc>
      if (((HAL_GetTick() - Tickstart) > Timeout) || (Timeout == 0U))
 8001dd8:	f7ff fc74 	bl	80016c4 <HAL_GetTick>
 8001ddc:	9b06      	ldr	r3, [sp, #24]
 8001dde:	1ac0      	subs	r0, r0, r3
 8001de0:	4540      	cmp	r0, r8
 8001de2:	d802      	bhi.n	8001dea <I2C_WaitOnFlagUntilTimeout+0x3a>
 8001de4:	f1b8 0f00 	cmp.w	r8, #0
 8001de8:	d1e8      	bne.n	8001dbc <I2C_WaitOnFlagUntilTimeout+0xc>
        if ((__HAL_I2C_GET_FLAG(hi2c, Flag) == Status))
 8001dea:	682b      	ldr	r3, [r5, #0]
 8001dec:	699b      	ldr	r3, [r3, #24]
 8001dee:	ea37 0303 	bics.w	r3, r7, r3
 8001df2:	bf0c      	ite	eq
 8001df4:	2301      	moveq	r3, #1
 8001df6:	2300      	movne	r3, #0
 8001df8:	42b3      	cmp	r3, r6
 8001dfa:	d1df      	bne.n	8001dbc <I2C_WaitOnFlagUntilTimeout+0xc>
          hi2c->ErrorCode |= HAL_I2C_ERROR_TIMEOUT;
 8001dfc:	6c6b      	ldr	r3, [r5, #68]	; 0x44
 8001dfe:	f043 0320 	orr.w	r3, r3, #32
 8001e02:	646b      	str	r3, [r5, #68]	; 0x44
          hi2c->State = HAL_I2C_STATE_READY;
 8001e04:	2320      	movs	r3, #32
 8001e06:	f885 3041 	strb.w	r3, [r5, #65]	; 0x41
          hi2c->Mode = HAL_I2C_MODE_NONE;
 8001e0a:	2300      	movs	r3, #0
 8001e0c:	f885 3042 	strb.w	r3, [r5, #66]	; 0x42
          __HAL_UNLOCK(hi2c);
 8001e10:	f885 3040 	strb.w	r3, [r5, #64]	; 0x40
          return HAL_ERROR;
 8001e14:	2001      	movs	r0, #1
 8001e16:	e000      	b.n	8001e1a <I2C_WaitOnFlagUntilTimeout+0x6a>
  return HAL_OK;
 8001e18:	2000      	movs	r0, #0
}
 8001e1a:	e8bd 81f0 	ldmia.w	sp!, {r4, r5, r6, r7, r8, pc}

08001e1e <I2C_WaitOnSTOPFlagUntilTimeout>:
{
 8001e1e:	b570      	push	{r4, r5, r6, lr}
 8001e20:	4604      	mov	r4, r0
 8001e22:	460d      	mov	r5, r1
 8001e24:	4616      	mov	r6, r2
  while (__HAL_I2C_GET_FLAG(hi2c, I2C_FLAG_STOPF) == RESET)
 8001e26:	e004      	b.n	8001e32 <I2C_WaitOnSTOPFlagUntilTimeout+0x14>
      if ((__HAL_I2C_GET_FLAG(hi2c, I2C_FLAG_STOPF) == RESET))
 8001e28:	6823      	ldr	r3, [r4, #0]
 8001e2a:	699b      	ldr	r3, [r3, #24]
 8001e2c:	f013 0f20 	tst.w	r3, #32
 8001e30:	d012      	beq.n	8001e58 <I2C_WaitOnSTOPFlagUntilTimeout+0x3a>
  while (__HAL_I2C_GET_FLAG(hi2c, I2C_FLAG_STOPF) == RESET)
 8001e32:	6823      	ldr	r3, [r4, #0]
 8001e34:	699b      	ldr	r3, [r3, #24]
 8001e36:	f013 0f20 	tst.w	r3, #32
 8001e3a:	d11b      	bne.n	8001e74 <I2C_WaitOnSTOPFlagUntilTimeout+0x56>
    if (I2C_IsErrorOccurred(hi2c, Timeout, Tickstart) != HAL_OK)
 8001e3c:	4632      	mov	r2, r6
 8001e3e:	4629      	mov	r1, r5
 8001e40:	4620      	mov	r0, r4
 8001e42:	f7ff fef9 	bl	8001c38 <I2C_IsErrorOccurred>
 8001e46:	b9b8      	cbnz	r0, 8001e78 <I2C_WaitOnSTOPFlagUntilTimeout+0x5a>
    if (((HAL_GetTick() - Tickstart) > Timeout) || (Timeout == 0U))
 8001e48:	f7ff fc3c 	bl	80016c4 <HAL_GetTick>
 8001e4c:	1b80      	subs	r0, r0, r6
 8001e4e:	42a8      	cmp	r0, r5
 8001e50:	d8ea      	bhi.n	8001e28 <I2C_WaitOnSTOPFlagUntilTimeout+0xa>
 8001e52:	2d00      	cmp	r5, #0
 8001e54:	d1ed      	bne.n	8001e32 <I2C_WaitOnSTOPFlagUntilTimeout+0x14>
 8001e56:	e7e7      	b.n	8001e28 <I2C_WaitOnSTOPFlagUntilTimeout+0xa>
        hi2c->ErrorCode |= HAL_I2C_ERROR_TIMEOUT;
 8001e58:	6c63      	ldr	r3, [r4, #68]	; 0x44
 8001e5a:	f043 0320 	orr.w	r3, r3, #32
 8001e5e:	6463      	str	r3, [r4, #68]	; 0x44
        hi2c->State = HAL_I2C_STATE_READY;
 8001e60:	2320      	movs	r3, #32
 8001e62:	f884 3041 	strb.w	r3, [r4, #65]	; 0x41
        hi2c->Mode = HAL_I2C_MODE_NONE;
 8001e66:	2300      	movs	r3, #0
 8001e68:	f884 3042 	strb.w	r3, [r4, #66]	; 0x42
        __HAL_UNLOCK(hi2c);
 8001e6c:	f884 3040 	strb.w	r3, [r4, #64]	; 0x40
        return HAL_ERROR;
 8001e70:	2001      	movs	r0, #1
 8001e72:	e000      	b.n	8001e76 <I2C_WaitOnSTOPFlagUntilTimeout+0x58>
  return HAL_OK;
 8001e74:	2000      	movs	r0, #0
}
 8001e76:	bd70      	pop	{r4, r5, r6, pc}
      return HAL_ERROR;
 8001e78:	2001      	movs	r0, #1
 8001e7a:	e7fc      	b.n	8001e76 <I2C_WaitOnSTOPFlagUntilTimeout+0x58>

08001e7c <I2C_WaitOnRXNEFlagUntilTimeout>:
{
 8001e7c:	b570      	push	{r4, r5, r6, lr}
 8001e7e:	4604      	mov	r4, r0
 8001e80:	460d      	mov	r5, r1
 8001e82:	4616      	mov	r6, r2
  while (__HAL_I2C_GET_FLAG(hi2c, I2C_FLAG_RXNE) == RESET)
 8001e84:	e02d      	b.n	8001ee2 <I2C_WaitOnRXNEFlagUntilTimeout+0x66>
      if ((__HAL_I2C_GET_FLAG(hi2c, I2C_FLAG_RXNE) == SET) && (hi2c->XferSize > 0U))
 8001e86:	699a      	ldr	r2, [r3, #24]
 8001e88:	f012 0f04 	tst.w	r2, #4
 8001e8c:	d002      	beq.n	8001e94 <I2C_WaitOnRXNEFlagUntilTimeout+0x18>
 8001e8e:	8d22      	ldrh	r2, [r4, #40]	; 0x28
 8001e90:	2a00      	cmp	r2, #0
 8001e92:	d14c      	bne.n	8001f2e <I2C_WaitOnRXNEFlagUntilTimeout+0xb2>
        if (__HAL_I2C_GET_FLAG(hi2c, I2C_FLAG_AF) == SET)
 8001e94:	699a      	ldr	r2, [r3, #24]
 8001e96:	f012 0f10 	tst.w	r2, #16
 8001e9a:	d01a      	beq.n	8001ed2 <I2C_WaitOnRXNEFlagUntilTimeout+0x56>
          __HAL_I2C_CLEAR_FLAG(hi2c, I2C_FLAG_AF);
 8001e9c:	2210      	movs	r2, #16
 8001e9e:	61da      	str	r2, [r3, #28]
          hi2c->ErrorCode = HAL_I2C_ERROR_AF;
 8001ea0:	2304      	movs	r3, #4
 8001ea2:	6463      	str	r3, [r4, #68]	; 0x44
        __HAL_I2C_CLEAR_FLAG(hi2c, I2C_FLAG_STOPF);
 8001ea4:	6823      	ldr	r3, [r4, #0]
 8001ea6:	2220      	movs	r2, #32
 8001ea8:	61da      	str	r2, [r3, #28]
        I2C_RESET_CR2(hi2c);
 8001eaa:	6821      	ldr	r1, [r4, #0]
 8001eac:	684b      	ldr	r3, [r1, #4]
 8001eae:	f023 73ff 	bic.w	r3, r3, #33423360	; 0x1fe0000
 8001eb2:	f423 338b 	bic.w	r3, r3, #71168	; 0x11600
 8001eb6:	f423 73ff 	bic.w	r3, r3, #510	; 0x1fe
 8001eba:	f023 0301 	bic.w	r3, r3, #1
 8001ebe:	604b      	str	r3, [r1, #4]
        hi2c->State = HAL_I2C_STATE_READY;
 8001ec0:	f884 2041 	strb.w	r2, [r4, #65]	; 0x41
        hi2c->Mode = HAL_I2C_MODE_NONE;
 8001ec4:	2300      	movs	r3, #0
 8001ec6:	f884 3042 	strb.w	r3, [r4, #66]	; 0x42
        __HAL_UNLOCK(hi2c);
 8001eca:	f884 3040 	strb.w	r3, [r4, #64]	; 0x40
        return HAL_ERROR;
 8001ece:	2101      	movs	r1, #1
 8001ed0:	e02d      	b.n	8001f2e <I2C_WaitOnRXNEFlagUntilTimeout+0xb2>
          hi2c->ErrorCode = HAL_I2C_ERROR_NONE;
 8001ed2:	2300      	movs	r3, #0
 8001ed4:	6463      	str	r3, [r4, #68]	; 0x44
 8001ed6:	e7e5      	b.n	8001ea4 <I2C_WaitOnRXNEFlagUntilTimeout+0x28>
      if ((__HAL_I2C_GET_FLAG(hi2c, I2C_FLAG_RXNE) == RESET))
 8001ed8:	6823      	ldr	r3, [r4, #0]
 8001eda:	699b      	ldr	r3, [r3, #24]
 8001edc:	f013 0f04 	tst.w	r3, #4
 8001ee0:	d018      	beq.n	8001f14 <I2C_WaitOnRXNEFlagUntilTimeout+0x98>
  while (__HAL_I2C_GET_FLAG(hi2c, I2C_FLAG_RXNE) == RESET)
 8001ee2:	6823      	ldr	r3, [r4, #0]
 8001ee4:	699b      	ldr	r3, [r3, #24]
 8001ee6:	f013 0f04 	tst.w	r3, #4
 8001eea:	d11f      	bne.n	8001f2c <I2C_WaitOnRXNEFlagUntilTimeout+0xb0>
    if (I2C_IsErrorOccurred(hi2c, Timeout, Tickstart) != HAL_OK)
 8001eec:	4632      	mov	r2, r6
 8001eee:	4629      	mov	r1, r5
 8001ef0:	4620      	mov	r0, r4
 8001ef2:	f7ff fea1 	bl	8001c38 <I2C_IsErrorOccurred>
 8001ef6:	4601      	mov	r1, r0
 8001ef8:	b9d8      	cbnz	r0, 8001f32 <I2C_WaitOnRXNEFlagUntilTimeout+0xb6>
    if (__HAL_I2C_GET_FLAG(hi2c, I2C_FLAG_STOPF) == SET)
 8001efa:	6823      	ldr	r3, [r4, #0]
 8001efc:	699a      	ldr	r2, [r3, #24]
 8001efe:	f012 0f20 	tst.w	r2, #32
 8001f02:	d1c0      	bne.n	8001e86 <I2C_WaitOnRXNEFlagUntilTimeout+0xa>
    if (((HAL_GetTick() - Tickstart) > Timeout) || (Timeout == 0U))
 8001f04:	f7ff fbde 	bl	80016c4 <HAL_GetTick>
 8001f08:	1b80      	subs	r0, r0, r6
 8001f0a:	42a8      	cmp	r0, r5
 8001f0c:	d8e4      	bhi.n	8001ed8 <I2C_WaitOnRXNEFlagUntilTimeout+0x5c>
 8001f0e:	2d00      	cmp	r5, #0
 8001f10:	d1e7      	bne.n	8001ee2 <I2C_WaitOnRXNEFlagUntilTimeout+0x66>
 8001f12:	e7e1      	b.n	8001ed8 <I2C_WaitOnRXNEFlagUntilTimeout+0x5c>
        hi2c->ErrorCode |= HAL_I2C_ERROR_TIMEOUT;
 8001f14:	6c63      	ldr	r3, [r4, #68]	; 0x44
 8001f16:	f043 0320 	orr.w	r3, r3, #32
 8001f1a:	6463      	str	r3, [r4, #68]	; 0x44
        hi2c->State = HAL_I2C_STATE_READY;
 8001f1c:	2320      	movs	r3, #32
 8001f1e:	f884 3041 	strb.w	r3, [r4, #65]	; 0x41
        __HAL_UNLOCK(hi2c);
 8001f22:	2300      	movs	r3, #0
 8001f24:	f884 3040 	strb.w	r3, [r4, #64]	; 0x40
        return HAL_ERROR;
 8001f28:	2101      	movs	r1, #1
 8001f2a:	e000      	b.n	8001f2e <I2C_WaitOnRXNEFlagUntilTimeout+0xb2>
  return HAL_OK;
 8001f2c:	2100      	movs	r1, #0
}
 8001f2e:	4608      	mov	r0, r1
 8001f30:	bd70      	pop	{r4, r5, r6, pc}
      return HAL_ERROR;
 8001f32:	2101      	movs	r1, #1
 8001f34:	e7fb      	b.n	8001f2e <I2C_WaitOnRXNEFlagUntilTimeout+0xb2>
	...

08001f38 <HAL_I2C_Init>:
  if (hi2c == NULL)
 8001f38:	2800      	cmp	r0, #0
 8001f3a:	d057      	beq.n	8001fec <HAL_I2C_Init+0xb4>
{
 8001f3c:	b510      	push	{r4, lr}
 8001f3e:	4604      	mov	r4, r0
  if (hi2c->State == HAL_I2C_STATE_RESET)
 8001f40:	f890 3041 	ldrb.w	r3, [r0, #65]	; 0x41
 8001f44:	2b00      	cmp	r3, #0
 8001f46:	d041      	beq.n	8001fcc <HAL_I2C_Init+0x94>
  hi2c->State = HAL_I2C_STATE_BUSY;
 8001f48:	2324      	movs	r3, #36	; 0x24
 8001f4a:	f884 3041 	strb.w	r3, [r4, #65]	; 0x41
  __HAL_I2C_DISABLE(hi2c);
 8001f4e:	6822      	ldr	r2, [r4, #0]
 8001f50:	6813      	ldr	r3, [r2, #0]
 8001f52:	f023 0301 	bic.w	r3, r3, #1
 8001f56:	6013      	str	r3, [r2, #0]
  hi2c->Instance->TIMINGR = hi2c->Init.Timing & TIMING_CLEAR_MASK;
 8001f58:	6863      	ldr	r3, [r4, #4]
 8001f5a:	6822      	ldr	r2, [r4, #0]
 8001f5c:	f023 6370 	bic.w	r3, r3, #251658240	; 0xf000000
 8001f60:	6113      	str	r3, [r2, #16]
  hi2c->Instance->OAR1 &= ~I2C_OAR1_OA1EN;
 8001f62:	6822      	ldr	r2, [r4, #0]
 8001f64:	6893      	ldr	r3, [r2, #8]
 8001f66:	f423 4300 	bic.w	r3, r3, #32768	; 0x8000
 8001f6a:	6093      	str	r3, [r2, #8]
  if (hi2c->Init.AddressingMode == I2C_ADDRESSINGMODE_7BIT)
 8001f6c:	68e3      	ldr	r3, [r4, #12]
 8001f6e:	2b01      	cmp	r3, #1
 8001f70:	d031      	beq.n	8001fd6 <HAL_I2C_Init+0x9e>
    hi2c->Instance->OAR1 = (I2C_OAR1_OA1EN | I2C_OAR1_OA1MODE | hi2c->Init.OwnAddress1);
 8001f72:	68a3      	ldr	r3, [r4, #8]
 8001f74:	6822      	ldr	r2, [r4, #0]
 8001f76:	f443 4304 	orr.w	r3, r3, #33792	; 0x8400
 8001f7a:	6093      	str	r3, [r2, #8]
  if (hi2c->Init.AddressingMode == I2C_ADDRESSINGMODE_10BIT)
 8001f7c:	68e3      	ldr	r3, [r4, #12]
 8001f7e:	2b02      	cmp	r3, #2
 8001f80:	d02f      	beq.n	8001fe2 <HAL_I2C_Init+0xaa>
  hi2c->Instance->CR2 |= (I2C_CR2_AUTOEND | I2C_CR2_NACK);
 8001f82:	6822      	ldr	r2, [r4, #0]
 8001f84:	6851      	ldr	r1, [r2, #4]
 8001f86:	4b1a      	ldr	r3, [pc, #104]	; (8001ff0 <HAL_I2C_Init+0xb8>)
 8001f88:	430b      	orrs	r3, r1
 8001f8a:	6053      	str	r3, [r2, #4]
  hi2c->Instance->OAR2 &= ~I2C_DUALADDRESS_ENABLE;
 8001f8c:	6822      	ldr	r2, [r4, #0]
 8001f8e:	68d3      	ldr	r3, [r2, #12]
 8001f90:	f423 4300 	bic.w	r3, r3, #32768	; 0x8000
 8001f94:	60d3      	str	r3, [r2, #12]
  hi2c->Instance->OAR2 = (hi2c->Init.DualAddressMode | hi2c->Init.OwnAddress2 | \
 8001f96:	6923      	ldr	r3, [r4, #16]
 8001f98:	6962      	ldr	r2, [r4, #20]
 8001f9a:	4313      	orrs	r3, r2
                          (hi2c->Init.OwnAddress2Masks << 8));
 8001f9c:	69a1      	ldr	r1, [r4, #24]
  hi2c->Instance->OAR2 = (hi2c->Init.DualAddressMode | hi2c->Init.OwnAddress2 | \
 8001f9e:	6822      	ldr	r2, [r4, #0]
 8001fa0:	ea43 2301 	orr.w	r3, r3, r1, lsl #8
 8001fa4:	60d3      	str	r3, [r2, #12]
  hi2c->Instance->CR1 = (hi2c->Init.GeneralCallMode | hi2c->Init.NoStretchMode);
 8001fa6:	69e3      	ldr	r3, [r4, #28]
 8001fa8:	6a21      	ldr	r1, [r4, #32]
 8001faa:	6822      	ldr	r2, [r4, #0]
 8001fac:	430b      	orrs	r3, r1
 8001fae:	6013      	str	r3, [r2, #0]
  __HAL_I2C_ENABLE(hi2c);
 8001fb0:	6822      	ldr	r2, [r4, #0]
 8001fb2:	6813      	ldr	r3, [r2, #0]
 8001fb4:	f043 0301 	orr.w	r3, r3, #1
 8001fb8:	6013      	str	r3, [r2, #0]
  hi2c->ErrorCode = HAL_I2C_ERROR_NONE;
 8001fba:	2000      	movs	r0, #0
 8001fbc:	6460      	str	r0, [r4, #68]	; 0x44
  hi2c->State = HAL_I2C_STATE_READY;
 8001fbe:	2320      	movs	r3, #32
 8001fc0:	f884 3041 	strb.w	r3, [r4, #65]	; 0x41
  hi2c->PreviousState = I2C_STATE_NONE;
 8001fc4:	6320      	str	r0, [r4, #48]	; 0x30
  hi2c->Mode = HAL_I2C_MODE_NONE;
 8001fc6:	f884 0042 	strb.w	r0, [r4, #66]	; 0x42
}
 8001fca:	bd10      	pop	{r4, pc}
    hi2c->Lock = HAL_UNLOCKED;
 8001fcc:	f880 3040 	strb.w	r3, [r0, #64]	; 0x40
    HAL_I2C_MspInit(hi2c);
 8001fd0:	f7fe fadc 	bl	800058c <HAL_I2C_MspInit>
 8001fd4:	e7b8      	b.n	8001f48 <HAL_I2C_Init+0x10>
    hi2c->Instance->OAR1 = (I2C_OAR1_OA1EN | hi2c->Init.OwnAddress1);
 8001fd6:	68a3      	ldr	r3, [r4, #8]
 8001fd8:	6822      	ldr	r2, [r4, #0]
 8001fda:	f443 4300 	orr.w	r3, r3, #32768	; 0x8000
 8001fde:	6093      	str	r3, [r2, #8]
 8001fe0:	e7cc      	b.n	8001f7c <HAL_I2C_Init+0x44>
    hi2c->Instance->CR2 = (I2C_CR2_ADD10);
 8001fe2:	6823      	ldr	r3, [r4, #0]
 8001fe4:	f44f 6200 	mov.w	r2, #2048	; 0x800
 8001fe8:	605a      	str	r2, [r3, #4]
 8001fea:	e7ca      	b.n	8001f82 <HAL_I2C_Init+0x4a>
    return HAL_ERROR;
 8001fec:	2001      	movs	r0, #1
}
 8001fee:	4770      	bx	lr
 8001ff0:	02008000 	.word	0x02008000

08001ff4 <HAL_I2C_DeInit>:
  if (hi2c == NULL)
 8001ff4:	b1a8      	cbz	r0, 8002022 <HAL_I2C_DeInit+0x2e>
{
 8001ff6:	b510      	push	{r4, lr}
 8001ff8:	4604      	mov	r4, r0
  hi2c->State = HAL_I2C_STATE_BUSY;
 8001ffa:	2324      	movs	r3, #36	; 0x24
 8001ffc:	f880 3041 	strb.w	r3, [r0, #65]	; 0x41
  __HAL_I2C_DISABLE(hi2c);
 8002000:	6802      	ldr	r2, [r0, #0]
 8002002:	6813      	ldr	r3, [r2, #0]
 8002004:	f023 0301 	bic.w	r3, r3, #1
 8002008:	6013      	str	r3, [r2, #0]
  HAL_I2C_MspDeInit(hi2c);
 800200a:	f7fe fb0d 	bl	8000628 <HAL_I2C_MspDeInit>
  hi2c->ErrorCode = HAL_I2C_ERROR_NONE;
 800200e:	2000      	movs	r0, #0
 8002010:	6460      	str	r0, [r4, #68]	; 0x44
  hi2c->State = HAL_I2C_STATE_RESET;
 8002012:	f884 0041 	strb.w	r0, [r4, #65]	; 0x41
  hi2c->PreviousState = I2C_STATE_NONE;
 8002016:	6320      	str	r0, [r4, #48]	; 0x30
  hi2c->Mode = HAL_I2C_MODE_NONE;
 8002018:	f884 0042 	strb.w	r0, [r4, #66]	; 0x42
  __HAL_UNLOCK(hi2c);
 800201c:	f884 0040 	strb.w	r0, [r4, #64]	; 0x40
}
 8002020:	bd10      	pop	{r4, pc}
    return HAL_ERROR;
 8002022:	2001      	movs	r0, #1
}
 8002024:	4770      	bx	lr
	...

08002028 <HAL_I2C_Master_Transmit>:
{
 8002028:	e92d 47f0 	stmdb	sp!, {r4, r5, r6, r7, r8, r9, sl, lr}
 800202c:	b082      	sub	sp, #8
 800202e:	460f      	mov	r7, r1
 8002030:	9e0a      	ldr	r6, [sp, #40]	; 0x28
  if (hi2c->State == HAL_I2C_STATE_READY)
 8002032:	f890 1041 	ldrb.w	r1, [r0, #65]	; 0x41
 8002036:	b2c9      	uxtb	r1, r1
 8002038:	2920      	cmp	r1, #32
 800203a:	f040 80a3 	bne.w	8002184 <HAL_I2C_Master_Transmit+0x15c>
 800203e:	4604      	mov	r4, r0
 8002040:	4690      	mov	r8, r2
 8002042:	4699      	mov	r9, r3
    __HAL_LOCK(hi2c);
 8002044:	f890 3040 	ldrb.w	r3, [r0, #64]	; 0x40
 8002048:	2b01      	cmp	r3, #1
 800204a:	f000 809f 	beq.w	800218c <HAL_I2C_Master_Transmit+0x164>
 800204e:	f04f 0a01 	mov.w	sl, #1
 8002052:	f880 a040 	strb.w	sl, [r0, #64]	; 0x40
    tickstart = HAL_GetTick();
 8002056:	f7ff fb35 	bl	80016c4 <HAL_GetTick>
 800205a:	4605      	mov	r5, r0
    if (I2C_WaitOnFlagUntilTimeout(hi2c, I2C_FLAG_BUSY, SET, I2C_TIMEOUT_BUSY, tickstart) != HAL_OK)
 800205c:	9000      	str	r0, [sp, #0]
 800205e:	2319      	movs	r3, #25
 8002060:	4652      	mov	r2, sl
 8002062:	f44f 4100 	mov.w	r1, #32768	; 0x8000
 8002066:	4620      	mov	r0, r4
 8002068:	f7ff fea2 	bl	8001db0 <I2C_WaitOnFlagUntilTimeout>
 800206c:	2800      	cmp	r0, #0
 800206e:	f040 808f 	bne.w	8002190 <HAL_I2C_Master_Transmit+0x168>
    hi2c->State     = HAL_I2C_STATE_BUSY_TX;
 8002072:	2321      	movs	r3, #33	; 0x21
 8002074:	f884 3041 	strb.w	r3, [r4, #65]	; 0x41
    hi2c->Mode      = HAL_I2C_MODE_MASTER;
 8002078:	2310      	movs	r3, #16
 800207a:	f884 3042 	strb.w	r3, [r4, #66]	; 0x42
    hi2c->ErrorCode = HAL_I2C_ERROR_NONE;
 800207e:	2300      	movs	r3, #0
 8002080:	6463      	str	r3, [r4, #68]	; 0x44
    hi2c->pBuffPtr  = pData;
 8002082:	f8c4 8024 	str.w	r8, [r4, #36]	; 0x24
    hi2c->XferCount = Size;
 8002086:	f8a4 902a 	strh.w	r9, [r4, #42]	; 0x2a
    hi2c->XferISR   = NULL;
 800208a:	6363      	str	r3, [r4, #52]	; 0x34
    if (hi2c->XferCount > MAX_NBYTE_SIZE)
 800208c:	8d63      	ldrh	r3, [r4, #42]	; 0x2a
 800208e:	b29b      	uxth	r3, r3
 8002090:	2bff      	cmp	r3, #255	; 0xff
 8002092:	d90a      	bls.n	80020aa <HAL_I2C_Master_Transmit+0x82>
      hi2c->XferSize = MAX_NBYTE_SIZE;
 8002094:	22ff      	movs	r2, #255	; 0xff
 8002096:	8522      	strh	r2, [r4, #40]	; 0x28
      I2C_TransferConfig(hi2c, DevAddress, (uint8_t)hi2c->XferSize, I2C_RELOAD_MODE,
 8002098:	4b41      	ldr	r3, [pc, #260]	; (80021a0 <HAL_I2C_Master_Transmit+0x178>)
 800209a:	9300      	str	r3, [sp, #0]
 800209c:	f04f 7380 	mov.w	r3, #16777216	; 0x1000000
 80020a0:	4639      	mov	r1, r7
 80020a2:	4620      	mov	r0, r4
 80020a4:	f7ff fdaa 	bl	8001bfc <I2C_TransferConfig>
 80020a8:	e018      	b.n	80020dc <HAL_I2C_Master_Transmit+0xb4>
      hi2c->XferSize = hi2c->XferCount;
 80020aa:	8d62      	ldrh	r2, [r4, #42]	; 0x2a
 80020ac:	b292      	uxth	r2, r2
 80020ae:	8522      	strh	r2, [r4, #40]	; 0x28
      I2C_TransferConfig(hi2c, DevAddress, (uint8_t)hi2c->XferSize, I2C_AUTOEND_MODE,
 80020b0:	4b3b      	ldr	r3, [pc, #236]	; (80021a0 <HAL_I2C_Master_Transmit+0x178>)
 80020b2:	9300      	str	r3, [sp, #0]
 80020b4:	f04f 7300 	mov.w	r3, #33554432	; 0x2000000
 80020b8:	b2d2      	uxtb	r2, r2
 80020ba:	4639      	mov	r1, r7
 80020bc:	4620      	mov	r0, r4
 80020be:	f7ff fd9d 	bl	8001bfc <I2C_TransferConfig>
 80020c2:	e00b      	b.n	80020dc <HAL_I2C_Master_Transmit+0xb4>
          hi2c->XferSize = hi2c->XferCount;
 80020c4:	8d62      	ldrh	r2, [r4, #42]	; 0x2a
 80020c6:	b292      	uxth	r2, r2
 80020c8:	8522      	strh	r2, [r4, #40]	; 0x28
          I2C_TransferConfig(hi2c, DevAddress, (uint8_t)hi2c->XferSize, I2C_AUTOEND_MODE,
 80020ca:	2300      	movs	r3, #0
 80020cc:	9300      	str	r3, [sp, #0]
 80020ce:	f04f 7300 	mov.w	r3, #33554432	; 0x2000000
 80020d2:	b2d2      	uxtb	r2, r2
 80020d4:	4639      	mov	r1, r7
 80020d6:	4620      	mov	r0, r4
 80020d8:	f7ff fd90 	bl	8001bfc <I2C_TransferConfig>
    while (hi2c->XferCount > 0U)
 80020dc:	8d63      	ldrh	r3, [r4, #42]	; 0x2a
 80020de:	b29b      	uxth	r3, r3
 80020e0:	2b00      	cmp	r3, #0
 80020e2:	d033      	beq.n	800214c <HAL_I2C_Master_Transmit+0x124>
      if (I2C_WaitOnTXISFlagUntilTimeout(hi2c, Timeout, tickstart) != HAL_OK)
 80020e4:	462a      	mov	r2, r5
 80020e6:	4631      	mov	r1, r6
 80020e8:	4620      	mov	r0, r4
 80020ea:	f7ff fe31 	bl	8001d50 <I2C_WaitOnTXISFlagUntilTimeout>
 80020ee:	2800      	cmp	r0, #0
 80020f0:	d150      	bne.n	8002194 <HAL_I2C_Master_Transmit+0x16c>
      hi2c->Instance->TXDR = *hi2c->pBuffPtr;
 80020f2:	6a62      	ldr	r2, [r4, #36]	; 0x24
 80020f4:	6823      	ldr	r3, [r4, #0]
 80020f6:	7812      	ldrb	r2, [r2, #0]
 80020f8:	629a      	str	r2, [r3, #40]	; 0x28
      hi2c->pBuffPtr++;
 80020fa:	6a63      	ldr	r3, [r4, #36]	; 0x24
 80020fc:	3301      	adds	r3, #1
 80020fe:	6263      	str	r3, [r4, #36]	; 0x24
      hi2c->XferCount--;
 8002100:	8d63      	ldrh	r3, [r4, #42]	; 0x2a
 8002102:	b29b      	uxth	r3, r3
 8002104:	3b01      	subs	r3, #1
 8002106:	b29b      	uxth	r3, r3
 8002108:	8563      	strh	r3, [r4, #42]	; 0x2a
      hi2c->XferSize--;
 800210a:	8d23      	ldrh	r3, [r4, #40]	; 0x28
 800210c:	3b01      	subs	r3, #1
 800210e:	b29b      	uxth	r3, r3
 8002110:	8523      	strh	r3, [r4, #40]	; 0x28
      if ((hi2c->XferCount != 0U) && (hi2c->XferSize == 0U))
 8002112:	8d62      	ldrh	r2, [r4, #42]	; 0x2a
 8002114:	b292      	uxth	r2, r2
 8002116:	2a00      	cmp	r2, #0
 8002118:	d0e0      	beq.n	80020dc <HAL_I2C_Master_Transmit+0xb4>
 800211a:	2b00      	cmp	r3, #0
 800211c:	d1de      	bne.n	80020dc <HAL_I2C_Master_Transmit+0xb4>
        if (I2C_WaitOnFlagUntilTimeout(hi2c, I2C_FLAG_TCR, RESET, Timeout, tickstart) != HAL_OK)
 800211e:	9500      	str	r5, [sp, #0]
 8002120:	4633      	mov	r3, r6
 8002122:	2200      	movs	r2, #0
 8002124:	2180      	movs	r1, #128	; 0x80
 8002126:	4620      	mov	r0, r4
 8002128:	f7ff fe42 	bl	8001db0 <I2C_WaitOnFlagUntilTimeout>
 800212c:	bba0      	cbnz	r0, 8002198 <HAL_I2C_Master_Transmit+0x170>
        if (hi2c->XferCount > MAX_NBYTE_SIZE)
 800212e:	8d63      	ldrh	r3, [r4, #42]	; 0x2a
 8002130:	b29b      	uxth	r3, r3
 8002132:	2bff      	cmp	r3, #255	; 0xff
 8002134:	d9c6      	bls.n	80020c4 <HAL_I2C_Master_Transmit+0x9c>
          hi2c->XferSize = MAX_NBYTE_SIZE;
 8002136:	22ff      	movs	r2, #255	; 0xff
 8002138:	8522      	strh	r2, [r4, #40]	; 0x28
          I2C_TransferConfig(hi2c, DevAddress, (uint8_t)hi2c->XferSize, I2C_RELOAD_MODE,
 800213a:	2300      	movs	r3, #0
 800213c:	9300      	str	r3, [sp, #0]
 800213e:	f04f 7380 	mov.w	r3, #16777216	; 0x1000000
 8002142:	4639      	mov	r1, r7
 8002144:	4620      	mov	r0, r4
 8002146:	f7ff fd59 	bl	8001bfc <I2C_TransferConfig>
 800214a:	e7c7      	b.n	80020dc <HAL_I2C_Master_Transmit+0xb4>
    if (I2C_WaitOnSTOPFlagUntilTimeout(hi2c, Timeout, tickstart) != HAL_OK)
 800214c:	462a      	mov	r2, r5
 800214e:	4631      	mov	r1, r6
 8002150:	4620      	mov	r0, r4
 8002152:	f7ff fe64 	bl	8001e1e <I2C_WaitOnSTOPFlagUntilTimeout>
 8002156:	bb08      	cbnz	r0, 800219c <HAL_I2C_Master_Transmit+0x174>
    __HAL_I2C_CLEAR_FLAG(hi2c, I2C_FLAG_STOPF);
 8002158:	6823      	ldr	r3, [r4, #0]
 800215a:	2220      	movs	r2, #32
 800215c:	61da      	str	r2, [r3, #28]
    I2C_RESET_CR2(hi2c);
 800215e:	6821      	ldr	r1, [r4, #0]
 8002160:	684b      	ldr	r3, [r1, #4]
 8002162:	f023 73ff 	bic.w	r3, r3, #33423360	; 0x1fe0000
 8002166:	f423 338b 	bic.w	r3, r3, #71168	; 0x11600
 800216a:	f423 73ff 	bic.w	r3, r3, #510	; 0x1fe
 800216e:	f023 0301 	bic.w	r3, r3, #1
 8002172:	604b      	str	r3, [r1, #4]
    hi2c->State = HAL_I2C_STATE_READY;
 8002174:	f884 2041 	strb.w	r2, [r4, #65]	; 0x41
    hi2c->Mode  = HAL_I2C_MODE_NONE;
 8002178:	2300      	movs	r3, #0
 800217a:	f884 3042 	strb.w	r3, [r4, #66]	; 0x42
    __HAL_UNLOCK(hi2c);
 800217e:	f884 3040 	strb.w	r3, [r4, #64]	; 0x40
    return HAL_OK;
 8002182:	e000      	b.n	8002186 <HAL_I2C_Master_Transmit+0x15e>
    return HAL_BUSY;
 8002184:	2002      	movs	r0, #2
}
 8002186:	b002      	add	sp, #8
 8002188:	e8bd 87f0 	ldmia.w	sp!, {r4, r5, r6, r7, r8, r9, sl, pc}
    __HAL_LOCK(hi2c);
 800218c:	2002      	movs	r0, #2
 800218e:	e7fa      	b.n	8002186 <HAL_I2C_Master_Transmit+0x15e>
      return HAL_ERROR;
 8002190:	2001      	movs	r0, #1
 8002192:	e7f8      	b.n	8002186 <HAL_I2C_Master_Transmit+0x15e>
        return HAL_ERROR;
 8002194:	2001      	movs	r0, #1
 8002196:	e7f6      	b.n	8002186 <HAL_I2C_Master_Transmit+0x15e>
          return HAL_ERROR;
 8002198:	2001      	movs	r0, #1
 800219a:	e7f4      	b.n	8002186 <HAL_I2C_Master_Transmit+0x15e>
      return HAL_ERROR;
 800219c:	2001      	movs	r0, #1
 800219e:	e7f2      	b.n	8002186 <HAL_I2C_Master_Transmit+0x15e>
 80021a0:	80002000 	.word	0x80002000

080021a4 <HAL_I2C_Slave_Receive>:
{
 80021a4:	e92d 41f0 	stmdb	sp!, {r4, r5, r6, r7, r8, lr}
 80021a8:	b082      	sub	sp, #8
 80021aa:	461d      	mov	r5, r3
  if (hi2c->State == HAL_I2C_STATE_READY)
 80021ac:	f890 3041 	ldrb.w	r3, [r0, #65]	; 0x41
 80021b0:	b2db      	uxtb	r3, r3
 80021b2:	2b20      	cmp	r3, #32
 80021b4:	f040 80b2 	bne.w	800231c <HAL_I2C_Slave_Receive+0x178>
 80021b8:	4604      	mov	r4, r0
 80021ba:	460f      	mov	r7, r1
 80021bc:	4690      	mov	r8, r2
    if ((pData == NULL) || (Size == 0U))
 80021be:	2a00      	cmp	r2, #0
 80021c0:	bf18      	it	ne
 80021c2:	2900      	cmpne	r1, #0
 80021c4:	d02b      	beq.n	800221e <HAL_I2C_Slave_Receive+0x7a>
    __HAL_LOCK(hi2c);
 80021c6:	f890 3040 	ldrb.w	r3, [r0, #64]	; 0x40
 80021ca:	2b01      	cmp	r3, #1
 80021cc:	f000 80aa 	beq.w	8002324 <HAL_I2C_Slave_Receive+0x180>
 80021d0:	2301      	movs	r3, #1
 80021d2:	f880 3040 	strb.w	r3, [r0, #64]	; 0x40
    tickstart = HAL_GetTick();
 80021d6:	f7ff fa75 	bl	80016c4 <HAL_GetTick>
 80021da:	4606      	mov	r6, r0
    hi2c->State     = HAL_I2C_STATE_BUSY_RX;
 80021dc:	2322      	movs	r3, #34	; 0x22
 80021de:	f884 3041 	strb.w	r3, [r4, #65]	; 0x41
    hi2c->Mode      = HAL_I2C_MODE_SLAVE;
 80021e2:	2320      	movs	r3, #32
 80021e4:	f884 3042 	strb.w	r3, [r4, #66]	; 0x42
    hi2c->ErrorCode = HAL_I2C_ERROR_NONE;
 80021e8:	2200      	movs	r2, #0
 80021ea:	6462      	str	r2, [r4, #68]	; 0x44
    hi2c->pBuffPtr  = pData;
 80021ec:	6267      	str	r7, [r4, #36]	; 0x24
    hi2c->XferCount = Size;
 80021ee:	f8a4 802a 	strh.w	r8, [r4, #42]	; 0x2a
    hi2c->XferSize = hi2c->XferCount;
 80021f2:	8d63      	ldrh	r3, [r4, #42]	; 0x2a
 80021f4:	8523      	strh	r3, [r4, #40]	; 0x28
    hi2c->XferISR   = NULL;
 80021f6:	6362      	str	r2, [r4, #52]	; 0x34
    hi2c->Instance->CR2 &= ~I2C_CR2_NACK;
 80021f8:	6821      	ldr	r1, [r4, #0]
 80021fa:	684b      	ldr	r3, [r1, #4]
 80021fc:	f423 4300 	bic.w	r3, r3, #32768	; 0x8000
 8002200:	604b      	str	r3, [r1, #4]
    if (I2C_WaitOnFlagUntilTimeout(hi2c, I2C_FLAG_ADDR, RESET, Timeout, tickstart) != HAL_OK)
 8002202:	9000      	str	r0, [sp, #0]
 8002204:	462b      	mov	r3, r5
 8002206:	2108      	movs	r1, #8
 8002208:	4620      	mov	r0, r4
 800220a:	f7ff fdd1 	bl	8001db0 <I2C_WaitOnFlagUntilTimeout>
 800220e:	b158      	cbz	r0, 8002228 <HAL_I2C_Slave_Receive+0x84>
      hi2c->Instance->CR2 |= I2C_CR2_NACK;
 8002210:	6822      	ldr	r2, [r4, #0]
 8002212:	6853      	ldr	r3, [r2, #4]
 8002214:	f443 4300 	orr.w	r3, r3, #32768	; 0x8000
 8002218:	6053      	str	r3, [r2, #4]
      return HAL_ERROR;
 800221a:	2001      	movs	r0, #1
 800221c:	e07f      	b.n	800231e <HAL_I2C_Slave_Receive+0x17a>
      hi2c->ErrorCode = HAL_I2C_ERROR_INVALID_PARAM;
 800221e:	f44f 7300 	mov.w	r3, #512	; 0x200
 8002222:	6443      	str	r3, [r0, #68]	; 0x44
      return  HAL_ERROR;
 8002224:	2001      	movs	r0, #1
 8002226:	e07a      	b.n	800231e <HAL_I2C_Slave_Receive+0x17a>
    __HAL_I2C_CLEAR_FLAG(hi2c, I2C_FLAG_ADDR);
 8002228:	6823      	ldr	r3, [r4, #0]
 800222a:	2208      	movs	r2, #8
 800222c:	61da      	str	r2, [r3, #28]
    if (I2C_WaitOnFlagUntilTimeout(hi2c, I2C_FLAG_DIR, SET, Timeout, tickstart) != HAL_OK)
 800222e:	9600      	str	r6, [sp, #0]
 8002230:	462b      	mov	r3, r5
 8002232:	2201      	movs	r2, #1
 8002234:	f44f 3180 	mov.w	r1, #65536	; 0x10000
 8002238:	4620      	mov	r0, r4
 800223a:	f7ff fdb9 	bl	8001db0 <I2C_WaitOnFlagUntilTimeout>
 800223e:	b9f0      	cbnz	r0, 800227e <HAL_I2C_Slave_Receive+0xda>
    while (hi2c->XferCount > 0U)
 8002240:	8d63      	ldrh	r3, [r4, #42]	; 0x2a
 8002242:	b29b      	uxth	r3, r3
 8002244:	2b00      	cmp	r3, #0
 8002246:	d03b      	beq.n	80022c0 <HAL_I2C_Slave_Receive+0x11c>
      if (I2C_WaitOnRXNEFlagUntilTimeout(hi2c, Timeout, tickstart) != HAL_OK)
 8002248:	4632      	mov	r2, r6
 800224a:	4629      	mov	r1, r5
 800224c:	4620      	mov	r0, r4
 800224e:	f7ff fe15 	bl	8001e7c <I2C_WaitOnRXNEFlagUntilTimeout>
 8002252:	b9d8      	cbnz	r0, 800228c <HAL_I2C_Slave_Receive+0xe8>
      *hi2c->pBuffPtr = (uint8_t)hi2c->Instance->RXDR;
 8002254:	6823      	ldr	r3, [r4, #0]
 8002256:	6a5a      	ldr	r2, [r3, #36]	; 0x24
 8002258:	6a63      	ldr	r3, [r4, #36]	; 0x24
 800225a:	701a      	strb	r2, [r3, #0]
      hi2c->pBuffPtr++;
 800225c:	6a63      	ldr	r3, [r4, #36]	; 0x24
 800225e:	3301      	adds	r3, #1
 8002260:	6263      	str	r3, [r4, #36]	; 0x24
      hi2c->XferCount--;
 8002262:	f8b4 c02a 	ldrh.w	ip, [r4, #42]	; 0x2a
 8002266:	fa1f fc8c 	uxth.w	ip, ip
 800226a:	f10c 3cff 	add.w	ip, ip, #4294967295	; 0xffffffff
 800226e:	fa1f fc8c 	uxth.w	ip, ip
 8002272:	f8a4 c02a 	strh.w	ip, [r4, #42]	; 0x2a
      hi2c->XferSize--;
 8002276:	8d23      	ldrh	r3, [r4, #40]	; 0x28
 8002278:	3b01      	subs	r3, #1
 800227a:	8523      	strh	r3, [r4, #40]	; 0x28
 800227c:	e7e0      	b.n	8002240 <HAL_I2C_Slave_Receive+0x9c>
      hi2c->Instance->CR2 |= I2C_CR2_NACK;
 800227e:	6822      	ldr	r2, [r4, #0]
 8002280:	6853      	ldr	r3, [r2, #4]
 8002282:	f443 4300 	orr.w	r3, r3, #32768	; 0x8000
 8002286:	6053      	str	r3, [r2, #4]
      return HAL_ERROR;
 8002288:	2001      	movs	r0, #1
 800228a:	e048      	b.n	800231e <HAL_I2C_Slave_Receive+0x17a>
        hi2c->Instance->CR2 |= I2C_CR2_NACK;
 800228c:	6822      	ldr	r2, [r4, #0]
 800228e:	6853      	ldr	r3, [r2, #4]
 8002290:	f443 4300 	orr.w	r3, r3, #32768	; 0x8000
 8002294:	6053      	str	r3, [r2, #4]
        if (__HAL_I2C_GET_FLAG(hi2c, I2C_FLAG_RXNE) == SET)
 8002296:	6823      	ldr	r3, [r4, #0]
 8002298:	699a      	ldr	r2, [r3, #24]
 800229a:	f012 0f04 	tst.w	r2, #4
 800229e:	d00d      	beq.n	80022bc <HAL_I2C_Slave_Receive+0x118>
          *hi2c->pBuffPtr = (uint8_t)hi2c->Instance->RXDR;
 80022a0:	6a5a      	ldr	r2, [r3, #36]	; 0x24
 80022a2:	6a63      	ldr	r3, [r4, #36]	; 0x24
 80022a4:	701a      	strb	r2, [r3, #0]
          hi2c->pBuffPtr++;
 80022a6:	6a63      	ldr	r3, [r4, #36]	; 0x24
 80022a8:	3301      	adds	r3, #1
 80022aa:	6263      	str	r3, [r4, #36]	; 0x24
          hi2c->XferCount--;
 80022ac:	8d63      	ldrh	r3, [r4, #42]	; 0x2a
 80022ae:	b29b      	uxth	r3, r3
 80022b0:	3b01      	subs	r3, #1
 80022b2:	b29b      	uxth	r3, r3
 80022b4:	8563      	strh	r3, [r4, #42]	; 0x2a
          hi2c->XferSize--;
 80022b6:	8d23      	ldrh	r3, [r4, #40]	; 0x28
 80022b8:	3b01      	subs	r3, #1
 80022ba:	8523      	strh	r3, [r4, #40]	; 0x28
        return HAL_ERROR;
 80022bc:	2001      	movs	r0, #1
 80022be:	e02e      	b.n	800231e <HAL_I2C_Slave_Receive+0x17a>
    if (I2C_WaitOnSTOPFlagUntilTimeout(hi2c, Timeout, tickstart) != HAL_OK)
 80022c0:	4632      	mov	r2, r6
 80022c2:	4629      	mov	r1, r5
 80022c4:	4620      	mov	r0, r4
 80022c6:	f7ff fdaa 	bl	8001e1e <I2C_WaitOnSTOPFlagUntilTimeout>
 80022ca:	b130      	cbz	r0, 80022da <HAL_I2C_Slave_Receive+0x136>
      hi2c->Instance->CR2 |= I2C_CR2_NACK;
 80022cc:	6822      	ldr	r2, [r4, #0]
 80022ce:	6853      	ldr	r3, [r2, #4]
 80022d0:	f443 4300 	orr.w	r3, r3, #32768	; 0x8000
 80022d4:	6053      	str	r3, [r2, #4]
      return HAL_ERROR;
 80022d6:	2001      	movs	r0, #1
 80022d8:	e021      	b.n	800231e <HAL_I2C_Slave_Receive+0x17a>
    __HAL_I2C_CLEAR_FLAG(hi2c, I2C_FLAG_STOPF);
 80022da:	6823      	ldr	r3, [r4, #0]
 80022dc:	2220      	movs	r2, #32
 80022de:	61da      	str	r2, [r3, #28]
    if (I2C_WaitOnFlagUntilTimeout(hi2c, I2C_FLAG_BUSY, SET, Timeout, tickstart) != HAL_OK)
 80022e0:	9600      	str	r6, [sp, #0]
 80022e2:	462b      	mov	r3, r5
 80022e4:	2201      	movs	r2, #1
 80022e6:	f44f 4100 	mov.w	r1, #32768	; 0x8000
 80022ea:	4620      	mov	r0, r4
 80022ec:	f7ff fd60 	bl	8001db0 <I2C_WaitOnFlagUntilTimeout>
 80022f0:	b130      	cbz	r0, 8002300 <HAL_I2C_Slave_Receive+0x15c>
      hi2c->Instance->CR2 |= I2C_CR2_NACK;
 80022f2:	6822      	ldr	r2, [r4, #0]
 80022f4:	6853      	ldr	r3, [r2, #4]
 80022f6:	f443 4300 	orr.w	r3, r3, #32768	; 0x8000
 80022fa:	6053      	str	r3, [r2, #4]
      return HAL_ERROR;
 80022fc:	2001      	movs	r0, #1
 80022fe:	e00e      	b.n	800231e <HAL_I2C_Slave_Receive+0x17a>
    hi2c->Instance->CR2 |= I2C_CR2_NACK;
 8002300:	6822      	ldr	r2, [r4, #0]
 8002302:	6853      	ldr	r3, [r2, #4]
 8002304:	f443 4300 	orr.w	r3, r3, #32768	; 0x8000
 8002308:	6053      	str	r3, [r2, #4]
    hi2c->State = HAL_I2C_STATE_READY;
 800230a:	2320      	movs	r3, #32
 800230c:	f884 3041 	strb.w	r3, [r4, #65]	; 0x41
    hi2c->Mode  = HAL_I2C_MODE_NONE;
 8002310:	2300      	movs	r3, #0
 8002312:	f884 3042 	strb.w	r3, [r4, #66]	; 0x42
    __HAL_UNLOCK(hi2c);
 8002316:	f884 3040 	strb.w	r3, [r4, #64]	; 0x40
    return HAL_OK;
 800231a:	e000      	b.n	800231e <HAL_I2C_Slave_Receive+0x17a>
    return HAL_BUSY;
 800231c:	2002      	movs	r0, #2
}
 800231e:	b002      	add	sp, #8
 8002320:	e8bd 81f0 	ldmia.w	sp!, {r4, r5, r6, r7, r8, pc}
    __HAL_LOCK(hi2c);
 8002324:	2002      	movs	r0, #2
 8002326:	e7fa      	b.n	800231e <HAL_I2C_Slave_Receive+0x17a>

08002328 <HAL_I2CEx_ConfigAnalogFilter>:
{
  /* Check the parameters */
  assert_param(IS_I2C_ALL_INSTANCE(hi2c->Instance));
  assert_param(IS_I2C_ANALOG_FILTER(AnalogFilter));

  if (hi2c->State == HAL_I2C_STATE_READY)
 8002328:	f890 3041 	ldrb.w	r3, [r0, #65]	; 0x41
 800232c:	b2db      	uxtb	r3, r3
 800232e:	2b20      	cmp	r3, #32
 8002330:	d124      	bne.n	800237c <HAL_I2CEx_ConfigAnalogFilter+0x54>
  {
    /* Process Locked */
    __HAL_LOCK(hi2c);
 8002332:	f890 3040 	ldrb.w	r3, [r0, #64]	; 0x40
 8002336:	2b01      	cmp	r3, #1
 8002338:	d022      	beq.n	8002380 <HAL_I2CEx_ConfigAnalogFilter+0x58>
 800233a:	2301      	movs	r3, #1
 800233c:	f880 3040 	strb.w	r3, [r0, #64]	; 0x40

    hi2c->State = HAL_I2C_STATE_BUSY;
 8002340:	2324      	movs	r3, #36	; 0x24
 8002342:	f880 3041 	strb.w	r3, [r0, #65]	; 0x41

    /* Disable the selected I2C peripheral */
    __HAL_I2C_DISABLE(hi2c);
 8002346:	6802      	ldr	r2, [r0, #0]
 8002348:	6813      	ldr	r3, [r2, #0]
 800234a:	f023 0301 	bic.w	r3, r3, #1
 800234e:	6013      	str	r3, [r2, #0]

    /* Reset I2Cx ANOFF bit */
    hi2c->Instance->CR1 &= ~(I2C_CR1_ANFOFF);
 8002350:	6802      	ldr	r2, [r0, #0]
 8002352:	6813      	ldr	r3, [r2, #0]
 8002354:	f423 5380 	bic.w	r3, r3, #4096	; 0x1000
 8002358:	6013      	str	r3, [r2, #0]

    /* Set analog filter bit*/
    hi2c->Instance->CR1 |= AnalogFilter;
 800235a:	6802      	ldr	r2, [r0, #0]
 800235c:	6813      	ldr	r3, [r2, #0]
 800235e:	4319      	orrs	r1, r3
 8002360:	6011      	str	r1, [r2, #0]

    __HAL_I2C_ENABLE(hi2c);
 8002362:	6802      	ldr	r2, [r0, #0]
 8002364:	6813      	ldr	r3, [r2, #0]
 8002366:	f043 0301 	orr.w	r3, r3, #1
 800236a:	6013      	str	r3, [r2, #0]

    hi2c->State = HAL_I2C_STATE_READY;
 800236c:	2320      	movs	r3, #32
 800236e:	f880 3041 	strb.w	r3, [r0, #65]	; 0x41

    /* Process Unlocked */
    __HAL_UNLOCK(hi2c);
 8002372:	2300      	movs	r3, #0
 8002374:	f880 3040 	strb.w	r3, [r0, #64]	; 0x40

    return HAL_OK;
 8002378:	4618      	mov	r0, r3
 800237a:	4770      	bx	lr
  }
  else
  {
    return HAL_BUSY;
 800237c:	2002      	movs	r0, #2
 800237e:	4770      	bx	lr
    __HAL_LOCK(hi2c);
 8002380:	2002      	movs	r0, #2
  }
}
 8002382:	4770      	bx	lr

08002384 <HAL_I2CEx_ConfigDigitalFilter>:

  /* Check the parameters */
  assert_param(IS_I2C_ALL_INSTANCE(hi2c->Instance));
  assert_param(IS_I2C_DIGITAL_FILTER(DigitalFilter));

  if (hi2c->State == HAL_I2C_STATE_READY)
 8002384:	f890 3041 	ldrb.w	r3, [r0, #65]	; 0x41
 8002388:	b2db      	uxtb	r3, r3
 800238a:	2b20      	cmp	r3, #32
 800238c:	d122      	bne.n	80023d4 <HAL_I2CEx_ConfigDigitalFilter+0x50>
  {
    /* Process Locked */
    __HAL_LOCK(hi2c);
 800238e:	f890 3040 	ldrb.w	r3, [r0, #64]	; 0x40
 8002392:	2b01      	cmp	r3, #1
 8002394:	d020      	beq.n	80023d8 <HAL_I2CEx_ConfigDigitalFilter+0x54>
 8002396:	2301      	movs	r3, #1
 8002398:	f880 3040 	strb.w	r3, [r0, #64]	; 0x40

    hi2c->State = HAL_I2C_STATE_BUSY;
 800239c:	2324      	movs	r3, #36	; 0x24
 800239e:	f880 3041 	strb.w	r3, [r0, #65]	; 0x41

    /* Disable the selected I2C peripheral */
    __HAL_I2C_DISABLE(hi2c);
 80023a2:	6802      	ldr	r2, [r0, #0]
 80023a4:	6813      	ldr	r3, [r2, #0]
 80023a6:	f023 0301 	bic.w	r3, r3, #1
 80023aa:	6013      	str	r3, [r2, #0]

    /* Get the old register value */
    tmpreg = hi2c->Instance->CR1;
 80023ac:	6802      	ldr	r2, [r0, #0]
 80023ae:	6813      	ldr	r3, [r2, #0]

    /* Reset I2Cx DNF bits [11:8] */
    tmpreg &= ~(I2C_CR1_DNF);
 80023b0:	f423 6370 	bic.w	r3, r3, #3840	; 0xf00

    /* Set I2Cx DNF coefficient */
    tmpreg |= DigitalFilter << 8U;
 80023b4:	ea43 2101 	orr.w	r1, r3, r1, lsl #8

    /* Store the new register value */
    hi2c->Instance->CR1 = tmpreg;
 80023b8:	6011      	str	r1, [r2, #0]

    __HAL_I2C_ENABLE(hi2c);
 80023ba:	6802      	ldr	r2, [r0, #0]
 80023bc:	6813      	ldr	r3, [r2, #0]
 80023be:	f043 0301 	orr.w	r3, r3, #1
 80023c2:	6013      	str	r3, [r2, #0]

    hi2c->State = HAL_I2C_STATE_READY;
 80023c4:	2320      	movs	r3, #32
 80023c6:	f880 3041 	strb.w	r3, [r0, #65]	; 0x41

    /* Process Unlocked */
    __HAL_UNLOCK(hi2c);
 80023ca:	2300      	movs	r3, #0
 80023cc:	f880 3040 	strb.w	r3, [r0, #64]	; 0x40

    return HAL_OK;
 80023d0:	4618      	mov	r0, r3
 80023d2:	4770      	bx	lr
  }
  else
  {
    return HAL_BUSY;
 80023d4:	2002      	movs	r0, #2
 80023d6:	4770      	bx	lr
    __HAL_LOCK(hi2c);
 80023d8:	2002      	movs	r0, #2
  }
}
 80023da:	4770      	bx	lr

080023dc <HAL_I2CEx_EnableFastModePlus>:
  * @note  For all I2C5 pins fast mode plus driving capability can be enabled
  *        only by using I2C_FASTMODEPLUS_I2C5 parameter.
  * @retval None
  */
void HAL_I2CEx_EnableFastModePlus(uint32_t ConfigFastModePlus)
{
 80023dc:	b082      	sub	sp, #8
  /* Check the parameter */
  assert_param(IS_I2C_FASTMODEPLUS(ConfigFastModePlus));

  /* Enable SYSCFG clock */
  __HAL_RCC_SYSCFG_CLK_ENABLE();
 80023de:	4a09      	ldr	r2, [pc, #36]	; (8002404 <HAL_I2CEx_EnableFastModePlus+0x28>)
 80023e0:	f8d2 10f4 	ldr.w	r1, [r2, #244]	; 0xf4
 80023e4:	f041 0102 	orr.w	r1, r1, #2
 80023e8:	f8c2 10f4 	str.w	r1, [r2, #244]	; 0xf4
 80023ec:	f8d2 20f4 	ldr.w	r2, [r2, #244]	; 0xf4
 80023f0:	f002 0202 	and.w	r2, r2, #2
 80023f4:	9201      	str	r2, [sp, #4]
 80023f6:	9b01      	ldr	r3, [sp, #4]

  /* Enable fast mode plus driving capability for selected pin */
  SET_BIT(SYSCFG->PMCR, (uint32_t)ConfigFastModePlus);
 80023f8:	4a03      	ldr	r2, [pc, #12]	; (8002408 <HAL_I2CEx_EnableFastModePlus+0x2c>)
 80023fa:	6853      	ldr	r3, [r2, #4]
 80023fc:	4303      	orrs	r3, r0
 80023fe:	6053      	str	r3, [r2, #4]
}
 8002400:	b002      	add	sp, #8
 8002402:	4770      	bx	lr
 8002404:	58024400 	.word	0x58024400
 8002408:	58000400 	.word	0x58000400

0800240c <HAL_PWREx_ConfigSupply>:
  /* Check the parameters */
  assert_param (IS_PWR_SUPPLY (SupplySource));

  /* Check if supply source was configured */
#if defined (PWR_FLAG_SCUEN)
  if (__HAL_PWR_GET_FLAG (PWR_FLAG_SCUEN) == 0U)
 800240c:	4b13      	ldr	r3, [pc, #76]	; (800245c <HAL_PWREx_ConfigSupply+0x50>)
 800240e:	68db      	ldr	r3, [r3, #12]
 8002410:	f013 0f04 	tst.w	r3, #4
 8002414:	d107      	bne.n	8002426 <HAL_PWREx_ConfigSupply+0x1a>
#else
  if ((PWR->CR3 & (PWR_CR3_SMPSEN | PWR_CR3_LDOEN | PWR_CR3_BYPASS)) != (PWR_CR3_SMPSEN | PWR_CR3_LDOEN))
#endif /* defined (PWR_FLAG_SCUEN) */
  {
    /* Check supply configuration */
    if ((PWR->CR3 & PWR_SUPPLY_CONFIG_MASK) != SupplySource)
 8002416:	4b11      	ldr	r3, [pc, #68]	; (800245c <HAL_PWREx_ConfigSupply+0x50>)
 8002418:	68db      	ldr	r3, [r3, #12]
 800241a:	f003 0307 	and.w	r3, r3, #7
 800241e:	4283      	cmp	r3, r0
 8002420:	d01a      	beq.n	8002458 <HAL_PWREx_ConfigSupply+0x4c>
    {
      /* Supply configuration update locked, can't apply a new supply config */
      return HAL_ERROR;
 8002422:	2001      	movs	r0, #1
 8002424:	4770      	bx	lr
{
 8002426:	b510      	push	{r4, lr}
      return HAL_OK;
    }
  }

  /* Set the power supply configuration */
  MODIFY_REG (PWR->CR3, PWR_SUPPLY_CONFIG_MASK, SupplySource);
 8002428:	4a0c      	ldr	r2, [pc, #48]	; (800245c <HAL_PWREx_ConfigSupply+0x50>)
 800242a:	68d3      	ldr	r3, [r2, #12]
 800242c:	f023 0307 	bic.w	r3, r3, #7
 8002430:	4318      	orrs	r0, r3
 8002432:	60d0      	str	r0, [r2, #12]

  /* Get tick */
  tickstart = HAL_GetTick ();
 8002434:	f7ff f946 	bl	80016c4 <HAL_GetTick>
 8002438:	4604      	mov	r4, r0

  /* Wait till voltage level flag is set */
  while (__HAL_PWR_GET_FLAG (PWR_FLAG_ACTVOSRDY) == 0U)
 800243a:	4b08      	ldr	r3, [pc, #32]	; (800245c <HAL_PWREx_ConfigSupply+0x50>)
 800243c:	685b      	ldr	r3, [r3, #4]
 800243e:	f413 5f00 	tst.w	r3, #8192	; 0x2000
 8002442:	d107      	bne.n	8002454 <HAL_PWREx_ConfigSupply+0x48>
  {
    if ((HAL_GetTick () - tickstart) > PWR_FLAG_SETTING_DELAY)
 8002444:	f7ff f93e 	bl	80016c4 <HAL_GetTick>
 8002448:	1b00      	subs	r0, r0, r4
 800244a:	f5b0 7f7a 	cmp.w	r0, #1000	; 0x3e8
 800244e:	d9f4      	bls.n	800243a <HAL_PWREx_ConfigSupply+0x2e>
    {
      return HAL_ERROR;
 8002450:	2001      	movs	r0, #1
 8002452:	e000      	b.n	8002456 <HAL_PWREx_ConfigSupply+0x4a>
      }
    }
  }
#endif /* defined (SMPS) */

  return HAL_OK;
 8002454:	2000      	movs	r0, #0
}
 8002456:	bd10      	pop	{r4, pc}
      return HAL_OK;
 8002458:	2000      	movs	r0, #0
}
 800245a:	4770      	bx	lr
 800245c:	58024800 	.word	0x58024800

08002460 <QSPI_Config>:
  *            @arg QSPI_FUNCTIONAL_MODE_AUTO_POLLING: Automatic polling mode
  *            @arg QSPI_FUNCTIONAL_MODE_MEMORY_MAPPED: Memory-mapped mode
  * @retval None
  */
static void QSPI_Config(QSPI_HandleTypeDef *hqspi, QSPI_CommandTypeDef *cmd, uint32_t FunctionalMode)
{
 8002460:	b4f0      	push	{r4, r5, r6, r7}
  assert_param(IS_QSPI_FUNCTIONAL_MODE(FunctionalMode));

  if ((cmd->DataMode != QSPI_DATA_NONE) && (FunctionalMode != QSPI_FUNCTIONAL_MODE_MEMORY_MAPPED))
 8002462:	6a4b      	ldr	r3, [r1, #36]	; 0x24
 8002464:	b133      	cbz	r3, 8002474 <QSPI_Config+0x14>
 8002466:	f1b2 6f40 	cmp.w	r2, #201326592	; 0xc000000
 800246a:	d003      	beq.n	8002474 <QSPI_Config+0x14>
  {
    /* Configure QSPI: DLR register with the number of data to read or write */
    WRITE_REG(hqspi->Instance->DLR, (cmd->NbData - 1U));
 800246c:	6a8b      	ldr	r3, [r1, #40]	; 0x28
 800246e:	6804      	ldr	r4, [r0, #0]
 8002470:	3b01      	subs	r3, #1
 8002472:	6123      	str	r3, [r4, #16]
  }

  if (cmd->InstructionMode != QSPI_INSTRUCTION_NONE)
 8002474:	698c      	ldr	r4, [r1, #24]
 8002476:	2c00      	cmp	r4, #0
 8002478:	d06e      	beq.n	8002558 <QSPI_Config+0xf8>
  {
    if (cmd->AlternateByteMode != QSPI_ALTERNATE_BYTES_NONE)
 800247a:	6a0e      	ldr	r6, [r1, #32]
 800247c:	2e00      	cmp	r6, #0
 800247e:	d03b      	beq.n	80024f8 <QSPI_Config+0x98>
    {
      /* Configure QSPI: ABR register with alternate bytes value */
      WRITE_REG(hqspi->Instance->ABR, cmd->AlternateBytes);
 8002480:	6803      	ldr	r3, [r0, #0]
 8002482:	688c      	ldr	r4, [r1, #8]
 8002484:	61dc      	str	r4, [r3, #28]

      if (cmd->AddressMode != QSPI_ADDRESS_NONE)
 8002486:	69cc      	ldr	r4, [r1, #28]
 8002488:	b1f4      	cbz	r4, 80024c8 <QSPI_Config+0x68>
      {
        /*---- Command with instruction, address and alternate bytes ----*/
        /* Configure QSPI: CCR register with all communications parameters */
        WRITE_REG(hqspi->Instance->CCR, (cmd->DdrMode | cmd->DdrHoldHalfCycle | cmd->SIOOMode |
 800248a:	6acb      	ldr	r3, [r1, #44]	; 0x2c
 800248c:	6b0d      	ldr	r5, [r1, #48]	; 0x30
 800248e:	432b      	orrs	r3, r5
 8002490:	6b4d      	ldr	r5, [r1, #52]	; 0x34
 8002492:	432b      	orrs	r3, r5
 8002494:	6a4d      	ldr	r5, [r1, #36]	; 0x24
 8002496:	432b      	orrs	r3, r5
 8002498:	694d      	ldr	r5, [r1, #20]
 800249a:	ea43 4385 	orr.w	r3, r3, r5, lsl #18
 800249e:	690d      	ldr	r5, [r1, #16]
 80024a0:	432b      	orrs	r3, r5
 80024a2:	6a0d      	ldr	r5, [r1, #32]
 80024a4:	432b      	orrs	r3, r5
 80024a6:	68cd      	ldr	r5, [r1, #12]
 80024a8:	432b      	orrs	r3, r5
 80024aa:	4323      	orrs	r3, r4
 80024ac:	698c      	ldr	r4, [r1, #24]
 80024ae:	4323      	orrs	r3, r4
 80024b0:	680c      	ldr	r4, [r1, #0]
 80024b2:	4323      	orrs	r3, r4
 80024b4:	6804      	ldr	r4, [r0, #0]
 80024b6:	4313      	orrs	r3, r2
 80024b8:	6163      	str	r3, [r4, #20]
                                         cmd->DataMode | (cmd->DummyCycles << QUADSPI_CCR_DCYC_Pos) |
                                         cmd->AlternateBytesSize | cmd->AlternateByteMode |
                                         cmd->AddressSize | cmd->AddressMode | cmd->InstructionMode |
                                         cmd->Instruction | FunctionalMode));

        if (FunctionalMode != QSPI_FUNCTIONAL_MODE_MEMORY_MAPPED)
 80024ba:	f1b2 6f40 	cmp.w	r2, #201326592	; 0xc000000
 80024be:	d019      	beq.n	80024f4 <QSPI_Config+0x94>
        {
          /* Configure QSPI: AR register with address value */
          WRITE_REG(hqspi->Instance->AR, cmd->Address);
 80024c0:	6803      	ldr	r3, [r0, #0]
 80024c2:	684a      	ldr	r2, [r1, #4]
 80024c4:	619a      	str	r2, [r3, #24]
 80024c6:	e015      	b.n	80024f4 <QSPI_Config+0x94>
      }
      else
      {
        /*---- Command with instruction and alternate bytes ----*/
        /* Configure QSPI: CCR register with all communications parameters */
        WRITE_REG(hqspi->Instance->CCR, (cmd->DdrMode | cmd->DdrHoldHalfCycle | cmd->SIOOMode |
 80024c8:	6acb      	ldr	r3, [r1, #44]	; 0x2c
 80024ca:	6b0d      	ldr	r5, [r1, #48]	; 0x30
 80024cc:	432b      	orrs	r3, r5
 80024ce:	6b4d      	ldr	r5, [r1, #52]	; 0x34
 80024d0:	432b      	orrs	r3, r5
 80024d2:	6a4d      	ldr	r5, [r1, #36]	; 0x24
 80024d4:	432b      	orrs	r3, r5
 80024d6:	694d      	ldr	r5, [r1, #20]
 80024d8:	ea43 4385 	orr.w	r3, r3, r5, lsl #18
 80024dc:	690d      	ldr	r5, [r1, #16]
 80024de:	432b      	orrs	r3, r5
 80024e0:	6a0d      	ldr	r5, [r1, #32]
 80024e2:	432b      	orrs	r3, r5
 80024e4:	4323      	orrs	r3, r4
 80024e6:	698c      	ldr	r4, [r1, #24]
 80024e8:	4323      	orrs	r3, r4
 80024ea:	680c      	ldr	r4, [r1, #0]
 80024ec:	4323      	orrs	r3, r4
 80024ee:	6801      	ldr	r1, [r0, #0]
 80024f0:	431a      	orrs	r2, r3
 80024f2:	614a      	str	r2, [r1, #20]
                                           cmd->InstructionMode | FunctionalMode));
        }
      }
    }
  }
}
 80024f4:	bcf0      	pop	{r4, r5, r6, r7}
 80024f6:	4770      	bx	lr
      if (cmd->AddressMode != QSPI_ADDRESS_NONE)
 80024f8:	69cd      	ldr	r5, [r1, #28]
 80024fa:	b1d5      	cbz	r5, 8002532 <QSPI_Config+0xd2>
        WRITE_REG(hqspi->Instance->CCR, (cmd->DdrMode | cmd->DdrHoldHalfCycle | cmd->SIOOMode |
 80024fc:	6acb      	ldr	r3, [r1, #44]	; 0x2c
 80024fe:	6b0f      	ldr	r7, [r1, #48]	; 0x30
 8002500:	433b      	orrs	r3, r7
 8002502:	6b4f      	ldr	r7, [r1, #52]	; 0x34
 8002504:	433b      	orrs	r3, r7
 8002506:	6a4f      	ldr	r7, [r1, #36]	; 0x24
 8002508:	433b      	orrs	r3, r7
 800250a:	694f      	ldr	r7, [r1, #20]
 800250c:	ea43 4387 	orr.w	r3, r3, r7, lsl #18
 8002510:	4333      	orrs	r3, r6
 8002512:	68ce      	ldr	r6, [r1, #12]
 8002514:	4333      	orrs	r3, r6
 8002516:	432b      	orrs	r3, r5
 8002518:	4323      	orrs	r3, r4
 800251a:	680c      	ldr	r4, [r1, #0]
 800251c:	4323      	orrs	r3, r4
 800251e:	6804      	ldr	r4, [r0, #0]
 8002520:	4313      	orrs	r3, r2
 8002522:	6163      	str	r3, [r4, #20]
        if (FunctionalMode != QSPI_FUNCTIONAL_MODE_MEMORY_MAPPED)
 8002524:	f1b2 6f40 	cmp.w	r2, #201326592	; 0xc000000
 8002528:	d0e4      	beq.n	80024f4 <QSPI_Config+0x94>
          WRITE_REG(hqspi->Instance->AR, cmd->Address);
 800252a:	6803      	ldr	r3, [r0, #0]
 800252c:	684a      	ldr	r2, [r1, #4]
 800252e:	619a      	str	r2, [r3, #24]
 8002530:	e7e0      	b.n	80024f4 <QSPI_Config+0x94>
        WRITE_REG(hqspi->Instance->CCR, (cmd->DdrMode | cmd->DdrHoldHalfCycle | cmd->SIOOMode |
 8002532:	6acb      	ldr	r3, [r1, #44]	; 0x2c
 8002534:	6b0f      	ldr	r7, [r1, #48]	; 0x30
 8002536:	433b      	orrs	r3, r7
 8002538:	6b4f      	ldr	r7, [r1, #52]	; 0x34
 800253a:	433b      	orrs	r3, r7
 800253c:	6a4f      	ldr	r7, [r1, #36]	; 0x24
 800253e:	433b      	orrs	r3, r7
 8002540:	694f      	ldr	r7, [r1, #20]
 8002542:	ea43 4387 	orr.w	r3, r3, r7, lsl #18
 8002546:	4333      	orrs	r3, r6
 8002548:	432b      	orrs	r3, r5
 800254a:	4323      	orrs	r3, r4
 800254c:	680c      	ldr	r4, [r1, #0]
 800254e:	4323      	orrs	r3, r4
 8002550:	6801      	ldr	r1, [r0, #0]
 8002552:	431a      	orrs	r2, r3
 8002554:	614a      	str	r2, [r1, #20]
 8002556:	e7cd      	b.n	80024f4 <QSPI_Config+0x94>
    if (cmd->AlternateByteMode != QSPI_ALTERNATE_BYTES_NONE)
 8002558:	6a0d      	ldr	r5, [r1, #32]
 800255a:	2d00      	cmp	r5, #0
 800255c:	d037      	beq.n	80025ce <QSPI_Config+0x16e>
      WRITE_REG(hqspi->Instance->ABR, cmd->AlternateBytes);
 800255e:	6803      	ldr	r3, [r0, #0]
 8002560:	688c      	ldr	r4, [r1, #8]
 8002562:	61dc      	str	r4, [r3, #28]
      if (cmd->AddressMode != QSPI_ADDRESS_NONE)
 8002564:	69cd      	ldr	r5, [r1, #28]
 8002566:	b1e5      	cbz	r5, 80025a2 <QSPI_Config+0x142>
        WRITE_REG(hqspi->Instance->CCR, (cmd->DdrMode | cmd->DdrHoldHalfCycle | cmd->SIOOMode |
 8002568:	6acb      	ldr	r3, [r1, #44]	; 0x2c
 800256a:	6b0c      	ldr	r4, [r1, #48]	; 0x30
 800256c:	4323      	orrs	r3, r4
 800256e:	6b4c      	ldr	r4, [r1, #52]	; 0x34
 8002570:	4323      	orrs	r3, r4
 8002572:	6a4c      	ldr	r4, [r1, #36]	; 0x24
 8002574:	4323      	orrs	r3, r4
 8002576:	694c      	ldr	r4, [r1, #20]
 8002578:	ea43 4384 	orr.w	r3, r3, r4, lsl #18
 800257c:	690c      	ldr	r4, [r1, #16]
 800257e:	4323      	orrs	r3, r4
 8002580:	6a0c      	ldr	r4, [r1, #32]
 8002582:	4323      	orrs	r3, r4
 8002584:	68cc      	ldr	r4, [r1, #12]
 8002586:	4323      	orrs	r3, r4
 8002588:	432b      	orrs	r3, r5
 800258a:	698c      	ldr	r4, [r1, #24]
 800258c:	4323      	orrs	r3, r4
 800258e:	6804      	ldr	r4, [r0, #0]
 8002590:	4313      	orrs	r3, r2
 8002592:	6163      	str	r3, [r4, #20]
        if (FunctionalMode != QSPI_FUNCTIONAL_MODE_MEMORY_MAPPED)
 8002594:	f1b2 6f40 	cmp.w	r2, #201326592	; 0xc000000
 8002598:	d0ac      	beq.n	80024f4 <QSPI_Config+0x94>
          WRITE_REG(hqspi->Instance->AR, cmd->Address);
 800259a:	6803      	ldr	r3, [r0, #0]
 800259c:	684a      	ldr	r2, [r1, #4]
 800259e:	619a      	str	r2, [r3, #24]
 80025a0:	e7a8      	b.n	80024f4 <QSPI_Config+0x94>
        WRITE_REG(hqspi->Instance->CCR, (cmd->DdrMode | cmd->DdrHoldHalfCycle | cmd->SIOOMode |
 80025a2:	6acc      	ldr	r4, [r1, #44]	; 0x2c
 80025a4:	6b0b      	ldr	r3, [r1, #48]	; 0x30
 80025a6:	431c      	orrs	r4, r3
 80025a8:	6b4b      	ldr	r3, [r1, #52]	; 0x34
 80025aa:	431c      	orrs	r4, r3
 80025ac:	6a4b      	ldr	r3, [r1, #36]	; 0x24
 80025ae:	431c      	orrs	r4, r3
 80025b0:	694b      	ldr	r3, [r1, #20]
 80025b2:	ea44 4483 	orr.w	r4, r4, r3, lsl #18
 80025b6:	690b      	ldr	r3, [r1, #16]
 80025b8:	431c      	orrs	r4, r3
 80025ba:	6a0b      	ldr	r3, [r1, #32]
 80025bc:	431c      	orrs	r4, r3
 80025be:	ea45 0304 	orr.w	r3, r5, r4
 80025c2:	698c      	ldr	r4, [r1, #24]
 80025c4:	4323      	orrs	r3, r4
 80025c6:	6801      	ldr	r1, [r0, #0]
 80025c8:	431a      	orrs	r2, r3
 80025ca:	614a      	str	r2, [r1, #20]
 80025cc:	e792      	b.n	80024f4 <QSPI_Config+0x94>
      if (cmd->AddressMode != QSPI_ADDRESS_NONE)
 80025ce:	69ce      	ldr	r6, [r1, #28]
 80025d0:	b1ce      	cbz	r6, 8002606 <QSPI_Config+0x1a6>
        WRITE_REG(hqspi->Instance->CCR, (cmd->DdrMode | cmd->DdrHoldHalfCycle | cmd->SIOOMode |
 80025d2:	6b0b      	ldr	r3, [r1, #48]	; 0x30
 80025d4:	6acf      	ldr	r7, [r1, #44]	; 0x2c
 80025d6:	433b      	orrs	r3, r7
 80025d8:	6b4f      	ldr	r7, [r1, #52]	; 0x34
 80025da:	433b      	orrs	r3, r7
 80025dc:	6a4f      	ldr	r7, [r1, #36]	; 0x24
 80025de:	433b      	orrs	r3, r7
 80025e0:	694f      	ldr	r7, [r1, #20]
 80025e2:	ea43 4387 	orr.w	r3, r3, r7, lsl #18
 80025e6:	432b      	orrs	r3, r5
 80025e8:	68cd      	ldr	r5, [r1, #12]
 80025ea:	432b      	orrs	r3, r5
 80025ec:	4333      	orrs	r3, r6
 80025ee:	4323      	orrs	r3, r4
 80025f0:	6804      	ldr	r4, [r0, #0]
 80025f2:	4313      	orrs	r3, r2
 80025f4:	6163      	str	r3, [r4, #20]
        if (FunctionalMode != QSPI_FUNCTIONAL_MODE_MEMORY_MAPPED)
 80025f6:	f1b2 6f40 	cmp.w	r2, #201326592	; 0xc000000
 80025fa:	f43f af7b 	beq.w	80024f4 <QSPI_Config+0x94>
          WRITE_REG(hqspi->Instance->AR, cmd->Address);
 80025fe:	6803      	ldr	r3, [r0, #0]
 8002600:	684a      	ldr	r2, [r1, #4]
 8002602:	619a      	str	r2, [r3, #24]
 8002604:	e776      	b.n	80024f4 <QSPI_Config+0x94>
        if (cmd->DataMode != QSPI_DATA_NONE)
 8002606:	f8d1 c024 	ldr.w	ip, [r1, #36]	; 0x24
 800260a:	f1bc 0f00 	cmp.w	ip, #0
 800260e:	f43f af71 	beq.w	80024f4 <QSPI_Config+0x94>
          WRITE_REG(hqspi->Instance->CCR, (cmd->DdrMode | cmd->DdrHoldHalfCycle | cmd->SIOOMode |
 8002612:	6acb      	ldr	r3, [r1, #44]	; 0x2c
 8002614:	6b0f      	ldr	r7, [r1, #48]	; 0x30
 8002616:	433b      	orrs	r3, r7
 8002618:	6b4f      	ldr	r7, [r1, #52]	; 0x34
 800261a:	433b      	orrs	r3, r7
 800261c:	ea4c 0703 	orr.w	r7, ip, r3
 8002620:	694b      	ldr	r3, [r1, #20]
 8002622:	ea47 4383 	orr.w	r3, r7, r3, lsl #18
 8002626:	431d      	orrs	r5, r3
 8002628:	ea46 0305 	orr.w	r3, r6, r5
 800262c:	4323      	orrs	r3, r4
 800262e:	6801      	ldr	r1, [r0, #0]
 8002630:	431a      	orrs	r2, r3
 8002632:	614a      	str	r2, [r1, #20]
}
 8002634:	e75e      	b.n	80024f4 <QSPI_Config+0x94>

08002636 <QSPI_WaitFlagStateUntilTimeout>:
{
 8002636:	e92d 43f8 	stmdb	sp!, {r3, r4, r5, r6, r7, r8, r9, lr}
 800263a:	4605      	mov	r5, r0
 800263c:	460f      	mov	r7, r1
 800263e:	4616      	mov	r6, r2
 8002640:	4699      	mov	r9, r3
 8002642:	f8dd 8020 	ldr.w	r8, [sp, #32]
  while((__HAL_QSPI_GET_FLAG(hqspi, Flag)) != State)
 8002646:	682c      	ldr	r4, [r5, #0]
 8002648:	68a4      	ldr	r4, [r4, #8]
 800264a:	423c      	tst	r4, r7
 800264c:	bf14      	ite	ne
 800264e:	f04f 0c01 	movne.w	ip, #1
 8002652:	f04f 0c00 	moveq.w	ip, #0
 8002656:	45b4      	cmp	ip, r6
 8002658:	d014      	beq.n	8002684 <QSPI_WaitFlagStateUntilTimeout+0x4e>
    if (Timeout != HAL_MAX_DELAY)
 800265a:	f1b8 3fff 	cmp.w	r8, #4294967295	; 0xffffffff
 800265e:	d0f2      	beq.n	8002646 <QSPI_WaitFlagStateUntilTimeout+0x10>
      if(((HAL_GetTick() - Tickstart) > Timeout) || (Timeout == 0U))
 8002660:	f7ff f830 	bl	80016c4 <HAL_GetTick>
 8002664:	eba0 0009 	sub.w	r0, r0, r9
 8002668:	4540      	cmp	r0, r8
 800266a:	d802      	bhi.n	8002672 <QSPI_WaitFlagStateUntilTimeout+0x3c>
 800266c:	f1b8 0f00 	cmp.w	r8, #0
 8002670:	d1e9      	bne.n	8002646 <QSPI_WaitFlagStateUntilTimeout+0x10>
        hqspi->State     = HAL_QSPI_STATE_ERROR;
 8002672:	2304      	movs	r3, #4
 8002674:	f885 3041 	strb.w	r3, [r5, #65]	; 0x41
        hqspi->ErrorCode |= HAL_QSPI_ERROR_TIMEOUT;
 8002678:	6c6b      	ldr	r3, [r5, #68]	; 0x44
 800267a:	f043 0301 	orr.w	r3, r3, #1
 800267e:	646b      	str	r3, [r5, #68]	; 0x44
        return HAL_ERROR;
 8002680:	2001      	movs	r0, #1
 8002682:	e000      	b.n	8002686 <QSPI_WaitFlagStateUntilTimeout+0x50>
  return HAL_OK;
 8002684:	2000      	movs	r0, #0
}
 8002686:	e8bd 83f8 	ldmia.w	sp!, {r3, r4, r5, r6, r7, r8, r9, pc}

0800268a <HAL_QSPI_DeInit>:
  if(hqspi == NULL)
 800268a:	b168      	cbz	r0, 80026a8 <HAL_QSPI_DeInit+0x1e>
{
 800268c:	b510      	push	{r4, lr}
 800268e:	4604      	mov	r4, r0
  __HAL_QSPI_DISABLE(hqspi);
 8002690:	6802      	ldr	r2, [r0, #0]
 8002692:	6813      	ldr	r3, [r2, #0]
 8002694:	f023 0301 	bic.w	r3, r3, #1
 8002698:	6013      	str	r3, [r2, #0]
  HAL_QSPI_MspDeInit(hqspi);
 800269a:	f7fe fde1 	bl	8001260 <HAL_QSPI_MspDeInit>
  hqspi->ErrorCode = HAL_QSPI_ERROR_NONE;
 800269e:	2000      	movs	r0, #0
 80026a0:	6460      	str	r0, [r4, #68]	; 0x44
  hqspi->State = HAL_QSPI_STATE_RESET;
 80026a2:	f884 0041 	strb.w	r0, [r4, #65]	; 0x41
}
 80026a6:	bd10      	pop	{r4, pc}
    return HAL_ERROR;
 80026a8:	2001      	movs	r0, #1
}
 80026aa:	4770      	bx	lr

080026ac <HAL_QSPI_Command>:
{
 80026ac:	e92d 41f0 	stmdb	sp!, {r4, r5, r6, r7, r8, lr}
 80026b0:	b082      	sub	sp, #8
 80026b2:	4604      	mov	r4, r0
 80026b4:	460f      	mov	r7, r1
 80026b6:	4616      	mov	r6, r2
  uint32_t tickstart = HAL_GetTick();
 80026b8:	f7ff f804 	bl	80016c4 <HAL_GetTick>
  __HAL_LOCK(hqspi);
 80026bc:	f894 c040 	ldrb.w	ip, [r4, #64]	; 0x40
 80026c0:	fa5f fc8c 	uxtb.w	ip, ip
 80026c4:	f1bc 0f01 	cmp.w	ip, #1
 80026c8:	d03c      	beq.n	8002744 <HAL_QSPI_Command+0x98>
 80026ca:	4605      	mov	r5, r0
 80026cc:	2301      	movs	r3, #1
 80026ce:	f884 3040 	strb.w	r3, [r4, #64]	; 0x40
  if(hqspi->State == HAL_QSPI_STATE_READY)
 80026d2:	f894 c041 	ldrb.w	ip, [r4, #65]	; 0x41
 80026d6:	fa5f fc8c 	uxtb.w	ip, ip
 80026da:	459c      	cmp	ip, r3
 80026dc:	d008      	beq.n	80026f0 <HAL_QSPI_Command+0x44>
    status = HAL_BUSY;
 80026de:	f04f 0802 	mov.w	r8, #2
  __HAL_UNLOCK(hqspi);
 80026e2:	2300      	movs	r3, #0
 80026e4:	f884 3040 	strb.w	r3, [r4, #64]	; 0x40
}
 80026e8:	4640      	mov	r0, r8
 80026ea:	b002      	add	sp, #8
 80026ec:	e8bd 81f0 	ldmia.w	sp!, {r4, r5, r6, r7, r8, pc}
    hqspi->ErrorCode = HAL_QSPI_ERROR_NONE;
 80026f0:	2200      	movs	r2, #0
 80026f2:	6462      	str	r2, [r4, #68]	; 0x44
    hqspi->State = HAL_QSPI_STATE_BUSY;
 80026f4:	2302      	movs	r3, #2
 80026f6:	f884 3041 	strb.w	r3, [r4, #65]	; 0x41
    status = QSPI_WaitFlagStateUntilTimeout(hqspi, QSPI_FLAG_BUSY, RESET, tickstart, Timeout);
 80026fa:	9600      	str	r6, [sp, #0]
 80026fc:	4603      	mov	r3, r0
 80026fe:	2120      	movs	r1, #32
 8002700:	4620      	mov	r0, r4
 8002702:	f7ff ff98 	bl	8002636 <QSPI_WaitFlagStateUntilTimeout>
    if (status == HAL_OK)
 8002706:	4680      	mov	r8, r0
 8002708:	2800      	cmp	r0, #0
 800270a:	d1ea      	bne.n	80026e2 <HAL_QSPI_Command+0x36>
      QSPI_Config(hqspi, cmd, QSPI_FUNCTIONAL_MODE_INDIRECT_WRITE);
 800270c:	2200      	movs	r2, #0
 800270e:	4639      	mov	r1, r7
 8002710:	4620      	mov	r0, r4
 8002712:	f7ff fea5 	bl	8002460 <QSPI_Config>
      if (cmd->DataMode == QSPI_DATA_NONE)
 8002716:	6a7b      	ldr	r3, [r7, #36]	; 0x24
 8002718:	b11b      	cbz	r3, 8002722 <HAL_QSPI_Command+0x76>
        hqspi->State = HAL_QSPI_STATE_READY;
 800271a:	2301      	movs	r3, #1
 800271c:	f884 3041 	strb.w	r3, [r4, #65]	; 0x41
 8002720:	e7df      	b.n	80026e2 <HAL_QSPI_Command+0x36>
        status = QSPI_WaitFlagStateUntilTimeout(hqspi, QSPI_FLAG_TC, SET, tickstart, Timeout);
 8002722:	9600      	str	r6, [sp, #0]
 8002724:	462b      	mov	r3, r5
 8002726:	2201      	movs	r2, #1
 8002728:	2102      	movs	r1, #2
 800272a:	4620      	mov	r0, r4
 800272c:	f7ff ff83 	bl	8002636 <QSPI_WaitFlagStateUntilTimeout>
        if (status == HAL_OK)
 8002730:	4680      	mov	r8, r0
 8002732:	2800      	cmp	r0, #0
 8002734:	d1d5      	bne.n	80026e2 <HAL_QSPI_Command+0x36>
          __HAL_QSPI_CLEAR_FLAG(hqspi, QSPI_FLAG_TC);
 8002736:	6823      	ldr	r3, [r4, #0]
 8002738:	2202      	movs	r2, #2
 800273a:	60da      	str	r2, [r3, #12]
          hqspi->State = HAL_QSPI_STATE_READY;
 800273c:	2301      	movs	r3, #1
 800273e:	f884 3041 	strb.w	r3, [r4, #65]	; 0x41
 8002742:	e7ce      	b.n	80026e2 <HAL_QSPI_Command+0x36>
  __HAL_LOCK(hqspi);
 8002744:	f04f 0802 	mov.w	r8, #2
 8002748:	e7ce      	b.n	80026e8 <HAL_QSPI_Command+0x3c>

0800274a <HAL_QSPI_Transmit>:
{
 800274a:	e92d 43f0 	stmdb	sp!, {r4, r5, r6, r7, r8, r9, lr}
 800274e:	b083      	sub	sp, #12
 8002750:	4604      	mov	r4, r0
 8002752:	4689      	mov	r9, r1
 8002754:	4617      	mov	r7, r2
  uint32_t tickstart = HAL_GetTick();
 8002756:	f7fe ffb5 	bl	80016c4 <HAL_GetTick>
  __IO uint32_t *data_reg = &hqspi->Instance->DR;
 800275a:	f8d4 8000 	ldr.w	r8, [r4]
  __HAL_LOCK(hqspi);
 800275e:	f894 3040 	ldrb.w	r3, [r4, #64]	; 0x40
 8002762:	b2db      	uxtb	r3, r3
 8002764:	2b01      	cmp	r3, #1
 8002766:	d057      	beq.n	8002818 <HAL_QSPI_Transmit+0xce>
 8002768:	4606      	mov	r6, r0
 800276a:	2301      	movs	r3, #1
 800276c:	f884 3040 	strb.w	r3, [r4, #64]	; 0x40
  if(hqspi->State == HAL_QSPI_STATE_READY)
 8002770:	f894 5041 	ldrb.w	r5, [r4, #65]	; 0x41
 8002774:	b2ed      	uxtb	r5, r5
 8002776:	429d      	cmp	r5, r3
 8002778:	d007      	beq.n	800278a <HAL_QSPI_Transmit+0x40>
    status = HAL_BUSY;
 800277a:	2502      	movs	r5, #2
  __HAL_UNLOCK(hqspi);
 800277c:	2300      	movs	r3, #0
 800277e:	f884 3040 	strb.w	r3, [r4, #64]	; 0x40
}
 8002782:	4628      	mov	r0, r5
 8002784:	b003      	add	sp, #12
 8002786:	e8bd 83f0 	ldmia.w	sp!, {r4, r5, r6, r7, r8, r9, pc}
    hqspi->ErrorCode = HAL_QSPI_ERROR_NONE;
 800278a:	2300      	movs	r3, #0
 800278c:	6463      	str	r3, [r4, #68]	; 0x44
    if(pData != NULL )
 800278e:	f1b9 0f00 	cmp.w	r9, #0
 8002792:	d03c      	beq.n	800280e <HAL_QSPI_Transmit+0xc4>
      hqspi->State = HAL_QSPI_STATE_BUSY_INDIRECT_TX;
 8002794:	2312      	movs	r3, #18
 8002796:	f884 3041 	strb.w	r3, [r4, #65]	; 0x41
      hqspi->TxXferCount = READ_REG(hqspi->Instance->DLR) + 1U;
 800279a:	f8d8 3010 	ldr.w	r3, [r8, #16]
 800279e:	3301      	adds	r3, #1
 80027a0:	62e3      	str	r3, [r4, #44]	; 0x2c
      hqspi->TxXferSize = READ_REG(hqspi->Instance->DLR) + 1U;
 80027a2:	f8d8 3010 	ldr.w	r3, [r8, #16]
 80027a6:	3301      	adds	r3, #1
 80027a8:	62a3      	str	r3, [r4, #40]	; 0x28
      hqspi->pTxBuffPtr = pData;
 80027aa:	f8c4 9024 	str.w	r9, [r4, #36]	; 0x24
      MODIFY_REG(hqspi->Instance->CCR, QUADSPI_CCR_FMODE, QSPI_FUNCTIONAL_MODE_INDIRECT_WRITE);
 80027ae:	f8d8 3014 	ldr.w	r3, [r8, #20]
 80027b2:	f023 6340 	bic.w	r3, r3, #201326592	; 0xc000000
 80027b6:	f8c8 3014 	str.w	r3, [r8, #20]
  HAL_StatusTypeDef status = HAL_OK;
 80027ba:	2500      	movs	r5, #0
      while(hqspi->TxXferCount > 0U)
 80027bc:	6ae3      	ldr	r3, [r4, #44]	; 0x2c
 80027be:	b19b      	cbz	r3, 80027e8 <HAL_QSPI_Transmit+0x9e>
        status = QSPI_WaitFlagStateUntilTimeout(hqspi, QSPI_FLAG_FT, SET, tickstart, Timeout);
 80027c0:	9700      	str	r7, [sp, #0]
 80027c2:	4633      	mov	r3, r6
 80027c4:	2201      	movs	r2, #1
 80027c6:	2104      	movs	r1, #4
 80027c8:	4620      	mov	r0, r4
 80027ca:	f7ff ff34 	bl	8002636 <QSPI_WaitFlagStateUntilTimeout>
        if (status != HAL_OK)
 80027ce:	4605      	mov	r5, r0
 80027d0:	b950      	cbnz	r0, 80027e8 <HAL_QSPI_Transmit+0x9e>
        *((__IO uint8_t *)data_reg) = *hqspi->pTxBuffPtr;
 80027d2:	6a63      	ldr	r3, [r4, #36]	; 0x24
 80027d4:	781b      	ldrb	r3, [r3, #0]
 80027d6:	f888 3020 	strb.w	r3, [r8, #32]
        hqspi->pTxBuffPtr++;
 80027da:	6a61      	ldr	r1, [r4, #36]	; 0x24
 80027dc:	3101      	adds	r1, #1
 80027de:	6261      	str	r1, [r4, #36]	; 0x24
        hqspi->TxXferCount--;
 80027e0:	6ae1      	ldr	r1, [r4, #44]	; 0x2c
 80027e2:	3901      	subs	r1, #1
 80027e4:	62e1      	str	r1, [r4, #44]	; 0x2c
 80027e6:	e7e9      	b.n	80027bc <HAL_QSPI_Transmit+0x72>
      if (status == HAL_OK)
 80027e8:	b11d      	cbz	r5, 80027f2 <HAL_QSPI_Transmit+0xa8>
      hqspi->State = HAL_QSPI_STATE_READY;
 80027ea:	2301      	movs	r3, #1
 80027ec:	f884 3041 	strb.w	r3, [r4, #65]	; 0x41
 80027f0:	e7c4      	b.n	800277c <HAL_QSPI_Transmit+0x32>
        status = QSPI_WaitFlagStateUntilTimeout(hqspi, QSPI_FLAG_TC, SET, tickstart, Timeout);
 80027f2:	9700      	str	r7, [sp, #0]
 80027f4:	4633      	mov	r3, r6
 80027f6:	2201      	movs	r2, #1
 80027f8:	2102      	movs	r1, #2
 80027fa:	4620      	mov	r0, r4
 80027fc:	f7ff ff1b 	bl	8002636 <QSPI_WaitFlagStateUntilTimeout>
        if (status == HAL_OK)
 8002800:	4605      	mov	r5, r0
 8002802:	2800      	cmp	r0, #0
 8002804:	d1f1      	bne.n	80027ea <HAL_QSPI_Transmit+0xa0>
          __HAL_QSPI_CLEAR_FLAG(hqspi, QSPI_FLAG_TC);
 8002806:	6823      	ldr	r3, [r4, #0]
 8002808:	2202      	movs	r2, #2
 800280a:	60da      	str	r2, [r3, #12]
 800280c:	e7ed      	b.n	80027ea <HAL_QSPI_Transmit+0xa0>
      hqspi->ErrorCode |= HAL_QSPI_ERROR_INVALID_PARAM;
 800280e:	6c63      	ldr	r3, [r4, #68]	; 0x44
 8002810:	f043 0308 	orr.w	r3, r3, #8
 8002814:	6463      	str	r3, [r4, #68]	; 0x44
      status = HAL_ERROR;
 8002816:	e7b1      	b.n	800277c <HAL_QSPI_Transmit+0x32>
  __HAL_LOCK(hqspi);
 8002818:	2502      	movs	r5, #2
 800281a:	e7b2      	b.n	8002782 <HAL_QSPI_Transmit+0x38>

0800281c <HAL_QSPI_AutoPolling>:
{
 800281c:	e92d 41f0 	stmdb	sp!, {r4, r5, r6, r7, r8, lr}
 8002820:	b082      	sub	sp, #8
 8002822:	4604      	mov	r4, r0
 8002824:	4688      	mov	r8, r1
 8002826:	4615      	mov	r5, r2
 8002828:	461f      	mov	r7, r3
  uint32_t tickstart = HAL_GetTick();
 800282a:	f7fe ff4b 	bl	80016c4 <HAL_GetTick>
  __HAL_LOCK(hqspi);
 800282e:	f894 c040 	ldrb.w	ip, [r4, #64]	; 0x40
 8002832:	fa5f fc8c 	uxtb.w	ip, ip
 8002836:	f1bc 0f01 	cmp.w	ip, #1
 800283a:	d048      	beq.n	80028ce <HAL_QSPI_AutoPolling+0xb2>
 800283c:	4606      	mov	r6, r0
 800283e:	2301      	movs	r3, #1
 8002840:	f884 3040 	strb.w	r3, [r4, #64]	; 0x40
  if(hqspi->State == HAL_QSPI_STATE_READY)
 8002844:	f894 c041 	ldrb.w	ip, [r4, #65]	; 0x41
 8002848:	fa5f fc8c 	uxtb.w	ip, ip
 800284c:	459c      	cmp	ip, r3
 800284e:	d006      	beq.n	800285e <HAL_QSPI_AutoPolling+0x42>
    status = HAL_BUSY;
 8002850:	2002      	movs	r0, #2
  __HAL_UNLOCK(hqspi);
 8002852:	2300      	movs	r3, #0
 8002854:	f884 3040 	strb.w	r3, [r4, #64]	; 0x40
}
 8002858:	b002      	add	sp, #8
 800285a:	e8bd 81f0 	ldmia.w	sp!, {r4, r5, r6, r7, r8, pc}
    hqspi->ErrorCode = HAL_QSPI_ERROR_NONE;
 800285e:	2200      	movs	r2, #0
 8002860:	6462      	str	r2, [r4, #68]	; 0x44
    hqspi->State = HAL_QSPI_STATE_BUSY_AUTO_POLLING;
 8002862:	2342      	movs	r3, #66	; 0x42
 8002864:	f884 3041 	strb.w	r3, [r4, #65]	; 0x41
    status = QSPI_WaitFlagStateUntilTimeout(hqspi, QSPI_FLAG_BUSY, RESET, tickstart, Timeout);
 8002868:	9700      	str	r7, [sp, #0]
 800286a:	4603      	mov	r3, r0
 800286c:	2120      	movs	r1, #32
 800286e:	4620      	mov	r0, r4
 8002870:	f7ff fee1 	bl	8002636 <QSPI_WaitFlagStateUntilTimeout>
    if (status == HAL_OK)
 8002874:	2800      	cmp	r0, #0
 8002876:	d1ec      	bne.n	8002852 <HAL_QSPI_AutoPolling+0x36>
      WRITE_REG(hqspi->Instance->PSMAR, cfg->Match);
 8002878:	6823      	ldr	r3, [r4, #0]
 800287a:	682a      	ldr	r2, [r5, #0]
 800287c:	629a      	str	r2, [r3, #40]	; 0x28
      WRITE_REG(hqspi->Instance->PSMKR, cfg->Mask);
 800287e:	6823      	ldr	r3, [r4, #0]
 8002880:	686a      	ldr	r2, [r5, #4]
 8002882:	625a      	str	r2, [r3, #36]	; 0x24
      WRITE_REG(hqspi->Instance->PIR, cfg->Interval);
 8002884:	6823      	ldr	r3, [r4, #0]
 8002886:	68aa      	ldr	r2, [r5, #8]
 8002888:	62da      	str	r2, [r3, #44]	; 0x2c
      MODIFY_REG(hqspi->Instance->CR, (QUADSPI_CR_PMM | QUADSPI_CR_APMS),
 800288a:	6822      	ldr	r2, [r4, #0]
 800288c:	6813      	ldr	r3, [r2, #0]
 800288e:	f423 0340 	bic.w	r3, r3, #12582912	; 0xc00000
 8002892:	6929      	ldr	r1, [r5, #16]
 8002894:	430b      	orrs	r3, r1
 8002896:	f443 0380 	orr.w	r3, r3, #4194304	; 0x400000
 800289a:	6013      	str	r3, [r2, #0]
      cmd->NbData = cfg->StatusBytesSize;
 800289c:	68eb      	ldr	r3, [r5, #12]
 800289e:	f8c8 3028 	str.w	r3, [r8, #40]	; 0x28
      QSPI_Config(hqspi, cmd, QSPI_FUNCTIONAL_MODE_AUTO_POLLING);
 80028a2:	f04f 6200 	mov.w	r2, #134217728	; 0x8000000
 80028a6:	4641      	mov	r1, r8
 80028a8:	4620      	mov	r0, r4
 80028aa:	f7ff fdd9 	bl	8002460 <QSPI_Config>
      status = QSPI_WaitFlagStateUntilTimeout(hqspi, QSPI_FLAG_SM, SET, tickstart, Timeout);
 80028ae:	9700      	str	r7, [sp, #0]
 80028b0:	4633      	mov	r3, r6
 80028b2:	2201      	movs	r2, #1
 80028b4:	2108      	movs	r1, #8
 80028b6:	4620      	mov	r0, r4
 80028b8:	f7ff febd 	bl	8002636 <QSPI_WaitFlagStateUntilTimeout>
      if (status == HAL_OK)
 80028bc:	2800      	cmp	r0, #0
 80028be:	d1c8      	bne.n	8002852 <HAL_QSPI_AutoPolling+0x36>
        __HAL_QSPI_CLEAR_FLAG(hqspi, QSPI_FLAG_SM);
 80028c0:	6823      	ldr	r3, [r4, #0]
 80028c2:	2208      	movs	r2, #8
 80028c4:	60da      	str	r2, [r3, #12]
        hqspi->State = HAL_QSPI_STATE_READY;
 80028c6:	2301      	movs	r3, #1
 80028c8:	f884 3041 	strb.w	r3, [r4, #65]	; 0x41
 80028cc:	e7c1      	b.n	8002852 <HAL_QSPI_AutoPolling+0x36>
  __HAL_LOCK(hqspi);
 80028ce:	2002      	movs	r0, #2
 80028d0:	e7c2      	b.n	8002858 <HAL_QSPI_AutoPolling+0x3c>

080028d2 <HAL_QSPI_MemoryMapped>:
{
 80028d2:	b5f0      	push	{r4, r5, r6, r7, lr}
 80028d4:	b083      	sub	sp, #12
 80028d6:	4604      	mov	r4, r0
 80028d8:	460e      	mov	r6, r1
 80028da:	4615      	mov	r5, r2
  uint32_t tickstart = HAL_GetTick();
 80028dc:	f7fe fef2 	bl	80016c4 <HAL_GetTick>
  __HAL_LOCK(hqspi);
 80028e0:	f894 c040 	ldrb.w	ip, [r4, #64]	; 0x40
 80028e4:	fa5f fc8c 	uxtb.w	ip, ip
 80028e8:	f1bc 0f01 	cmp.w	ip, #1
 80028ec:	d03b      	beq.n	8002966 <HAL_QSPI_MemoryMapped+0x94>
 80028ee:	2301      	movs	r3, #1
 80028f0:	f884 3040 	strb.w	r3, [r4, #64]	; 0x40
  if(hqspi->State == HAL_QSPI_STATE_READY)
 80028f4:	f894 c041 	ldrb.w	ip, [r4, #65]	; 0x41
 80028f8:	fa5f fc8c 	uxtb.w	ip, ip
 80028fc:	459c      	cmp	ip, r3
 80028fe:	d006      	beq.n	800290e <HAL_QSPI_MemoryMapped+0x3c>
    status = HAL_BUSY;
 8002900:	2702      	movs	r7, #2
  __HAL_UNLOCK(hqspi);
 8002902:	2300      	movs	r3, #0
 8002904:	f884 3040 	strb.w	r3, [r4, #64]	; 0x40
}
 8002908:	4638      	mov	r0, r7
 800290a:	b003      	add	sp, #12
 800290c:	bdf0      	pop	{r4, r5, r6, r7, pc}
    hqspi->ErrorCode = HAL_QSPI_ERROR_NONE;
 800290e:	2200      	movs	r2, #0
 8002910:	6462      	str	r2, [r4, #68]	; 0x44
    hqspi->State = HAL_QSPI_STATE_BUSY_MEM_MAPPED;
 8002912:	2382      	movs	r3, #130	; 0x82
 8002914:	f884 3041 	strb.w	r3, [r4, #65]	; 0x41
    status = QSPI_WaitFlagStateUntilTimeout(hqspi, QSPI_FLAG_BUSY, RESET, tickstart, hqspi->Timeout);
 8002918:	6ca3      	ldr	r3, [r4, #72]	; 0x48
 800291a:	9300      	str	r3, [sp, #0]
 800291c:	4603      	mov	r3, r0
 800291e:	2120      	movs	r1, #32
 8002920:	4620      	mov	r0, r4
 8002922:	f7ff fe88 	bl	8002636 <QSPI_WaitFlagStateUntilTimeout>
    if (status == HAL_OK)
 8002926:	4607      	mov	r7, r0
 8002928:	2800      	cmp	r0, #0
 800292a:	d1ea      	bne.n	8002902 <HAL_QSPI_MemoryMapped+0x30>
    MODIFY_REG(hqspi->Instance->CR, QUADSPI_CR_TCEN, cfg->TimeOutActivation);
 800292c:	6822      	ldr	r2, [r4, #0]
 800292e:	6813      	ldr	r3, [r2, #0]
 8002930:	f023 0308 	bic.w	r3, r3, #8
 8002934:	6869      	ldr	r1, [r5, #4]
 8002936:	430b      	orrs	r3, r1
 8002938:	6013      	str	r3, [r2, #0]
    if (cfg->TimeOutActivation == QSPI_TIMEOUT_COUNTER_ENABLE)
 800293a:	686b      	ldr	r3, [r5, #4]
 800293c:	2b08      	cmp	r3, #8
 800293e:	d006      	beq.n	800294e <HAL_QSPI_MemoryMapped+0x7c>
      QSPI_Config(hqspi, cmd, QSPI_FUNCTIONAL_MODE_MEMORY_MAPPED);
 8002940:	f04f 6240 	mov.w	r2, #201326592	; 0xc000000
 8002944:	4631      	mov	r1, r6
 8002946:	4620      	mov	r0, r4
 8002948:	f7ff fd8a 	bl	8002460 <QSPI_Config>
 800294c:	e7d9      	b.n	8002902 <HAL_QSPI_MemoryMapped+0x30>
        WRITE_REG(hqspi->Instance->LPTR, cfg->TimeOutPeriod);
 800294e:	6823      	ldr	r3, [r4, #0]
 8002950:	682a      	ldr	r2, [r5, #0]
 8002952:	631a      	str	r2, [r3, #48]	; 0x30
        __HAL_QSPI_CLEAR_FLAG(hqspi, QSPI_FLAG_TO);
 8002954:	6823      	ldr	r3, [r4, #0]
 8002956:	2210      	movs	r2, #16
 8002958:	60da      	str	r2, [r3, #12]
        __HAL_QSPI_ENABLE_IT(hqspi, QSPI_IT_TO);
 800295a:	6822      	ldr	r2, [r4, #0]
 800295c:	6813      	ldr	r3, [r2, #0]
 800295e:	f443 1380 	orr.w	r3, r3, #1048576	; 0x100000
 8002962:	6013      	str	r3, [r2, #0]
 8002964:	e7ec      	b.n	8002940 <HAL_QSPI_MemoryMapped+0x6e>
  __HAL_LOCK(hqspi);
 8002966:	2702      	movs	r7, #2
 8002968:	e7ce      	b.n	8002908 <HAL_QSPI_MemoryMapped+0x36>

0800296a <HAL_QSPI_SetTimeout>:
  hqspi->Timeout = Timeout;
 800296a:	6481      	str	r1, [r0, #72]	; 0x48
}
 800296c:	4770      	bx	lr
	...

08002970 <HAL_QSPI_Init>:
{
 8002970:	b570      	push	{r4, r5, r6, lr}
 8002972:	b082      	sub	sp, #8
 8002974:	4604      	mov	r4, r0
  uint32_t tickstart = HAL_GetTick();
 8002976:	f7fe fea5 	bl	80016c4 <HAL_GetTick>
  if(hqspi == NULL)
 800297a:	2c00      	cmp	r4, #0
 800297c:	d045      	beq.n	8002a0a <HAL_QSPI_Init+0x9a>
 800297e:	4606      	mov	r6, r0
  if(hqspi->State == HAL_QSPI_STATE_RESET)
 8002980:	f894 3041 	ldrb.w	r3, [r4, #65]	; 0x41
 8002984:	2b00      	cmp	r3, #0
 8002986:	d037      	beq.n	80029f8 <HAL_QSPI_Init+0x88>
  MODIFY_REG(hqspi->Instance->CR, QUADSPI_CR_FTHRES,
 8002988:	6825      	ldr	r5, [r4, #0]
 800298a:	682a      	ldr	r2, [r5, #0]
 800298c:	f422 52f8 	bic.w	r2, r2, #7936	; 0x1f00
 8002990:	68a1      	ldr	r1, [r4, #8]
 8002992:	3901      	subs	r1, #1
 8002994:	ea42 2201 	orr.w	r2, r2, r1, lsl #8
 8002998:	602a      	str	r2, [r5, #0]
  status = QSPI_WaitFlagStateUntilTimeout(hqspi, QSPI_FLAG_BUSY, RESET, tickstart, hqspi->Timeout);
 800299a:	6ca3      	ldr	r3, [r4, #72]	; 0x48
 800299c:	9300      	str	r3, [sp, #0]
 800299e:	4633      	mov	r3, r6
 80029a0:	2200      	movs	r2, #0
 80029a2:	2120      	movs	r1, #32
 80029a4:	4620      	mov	r0, r4
 80029a6:	f7ff fe46 	bl	8002636 <QSPI_WaitFlagStateUntilTimeout>
  if(status == HAL_OK)
 80029aa:	bb18      	cbnz	r0, 80029f4 <HAL_QSPI_Init+0x84>
    MODIFY_REG(hqspi->Instance->CR, (QUADSPI_CR_PRESCALER | QUADSPI_CR_SSHIFT | QUADSPI_CR_FSEL | QUADSPI_CR_DFM),
 80029ac:	6821      	ldr	r1, [r4, #0]
 80029ae:	680b      	ldr	r3, [r1, #0]
 80029b0:	4a17      	ldr	r2, [pc, #92]	; (8002a10 <HAL_QSPI_Init+0xa0>)
 80029b2:	401a      	ands	r2, r3
 80029b4:	6865      	ldr	r5, [r4, #4]
 80029b6:	68e3      	ldr	r3, [r4, #12]
 80029b8:	ea43 6305 	orr.w	r3, r3, r5, lsl #24
 80029bc:	69e5      	ldr	r5, [r4, #28]
 80029be:	432b      	orrs	r3, r5
 80029c0:	6a25      	ldr	r5, [r4, #32]
 80029c2:	432b      	orrs	r3, r5
 80029c4:	4313      	orrs	r3, r2
 80029c6:	600b      	str	r3, [r1, #0]
    MODIFY_REG(hqspi->Instance->DCR, (QUADSPI_DCR_FSIZE | QUADSPI_DCR_CSHT | QUADSPI_DCR_CKMODE),
 80029c8:	6821      	ldr	r1, [r4, #0]
 80029ca:	684a      	ldr	r2, [r1, #4]
 80029cc:	4b11      	ldr	r3, [pc, #68]	; (8002a14 <HAL_QSPI_Init+0xa4>)
 80029ce:	4013      	ands	r3, r2
 80029d0:	6925      	ldr	r5, [r4, #16]
 80029d2:	6962      	ldr	r2, [r4, #20]
 80029d4:	ea42 4205 	orr.w	r2, r2, r5, lsl #16
 80029d8:	69a5      	ldr	r5, [r4, #24]
 80029da:	432a      	orrs	r2, r5
 80029dc:	4313      	orrs	r3, r2
 80029de:	604b      	str	r3, [r1, #4]
    __HAL_QSPI_ENABLE(hqspi);
 80029e0:	6822      	ldr	r2, [r4, #0]
 80029e2:	6813      	ldr	r3, [r2, #0]
 80029e4:	f043 0301 	orr.w	r3, r3, #1
 80029e8:	6013      	str	r3, [r2, #0]
    hqspi->ErrorCode = HAL_QSPI_ERROR_NONE;
 80029ea:	2300      	movs	r3, #0
 80029ec:	6463      	str	r3, [r4, #68]	; 0x44
    hqspi->State = HAL_QSPI_STATE_READY;
 80029ee:	2301      	movs	r3, #1
 80029f0:	f884 3041 	strb.w	r3, [r4, #65]	; 0x41
}
 80029f4:	b002      	add	sp, #8
 80029f6:	bd70      	pop	{r4, r5, r6, pc}
    HAL_QSPI_MspInit(hqspi);
 80029f8:	4620      	mov	r0, r4
 80029fa:	f7fe fbb5 	bl	8001168 <HAL_QSPI_MspInit>
    HAL_QSPI_SetTimeout(hqspi, HAL_QSPI_TIMEOUT_DEFAULT_VALUE);
 80029fe:	f241 3188 	movw	r1, #5000	; 0x1388
 8002a02:	4620      	mov	r0, r4
 8002a04:	f7ff ffb1 	bl	800296a <HAL_QSPI_SetTimeout>
 8002a08:	e7be      	b.n	8002988 <HAL_QSPI_Init+0x18>
    return HAL_ERROR;
 8002a0a:	2001      	movs	r0, #1
 8002a0c:	e7f2      	b.n	80029f4 <HAL_QSPI_Init+0x84>
 8002a0e:	bf00      	nop
 8002a10:	00ffff2f 	.word	0x00ffff2f
 8002a14:	ffe0f8fe 	.word	0xffe0f8fe

08002a18 <HAL_RCC_DeInit>:
  *            - Peripheral clocks
  *            - LSI, LSE and RTC clocks
  * @retval HAL status
  */
HAL_StatusTypeDef HAL_RCC_DeInit(void)
{
 8002a18:	b538      	push	{r3, r4, r5, lr}
  uint32_t tickstart;

  /* Increasing the CPU frequency */
  if (FLASH_LATENCY_DEFAULT  > __HAL_FLASH_GET_LATENCY())
 8002a1a:	4b68      	ldr	r3, [pc, #416]	; (8002bbc <HAL_RCC_DeInit+0x1a4>)
 8002a1c:	681b      	ldr	r3, [r3, #0]
 8002a1e:	f003 030f 	and.w	r3, r3, #15
 8002a22:	2b06      	cmp	r3, #6
 8002a24:	d80c      	bhi.n	8002a40 <HAL_RCC_DeInit+0x28>
  {
    /* Program the new number of wait states to the LATENCY bits in the FLASH_ACR register */
    __HAL_FLASH_SET_LATENCY(FLASH_LATENCY_DEFAULT);
 8002a26:	4a65      	ldr	r2, [pc, #404]	; (8002bbc <HAL_RCC_DeInit+0x1a4>)
 8002a28:	6813      	ldr	r3, [r2, #0]
 8002a2a:	f023 030f 	bic.w	r3, r3, #15
 8002a2e:	f043 0307 	orr.w	r3, r3, #7
 8002a32:	6013      	str	r3, [r2, #0]

    /* Check that the new number of wait states is taken into account to access the Flash
    memory by reading the FLASH_ACR register */
    if (__HAL_FLASH_GET_LATENCY() != FLASH_LATENCY_DEFAULT)
 8002a34:	6813      	ldr	r3, [r2, #0]
 8002a36:	f003 030f 	and.w	r3, r3, #15
 8002a3a:	2b07      	cmp	r3, #7
 8002a3c:	f040 80ba 	bne.w	8002bb4 <HAL_RCC_DeInit+0x19c>

  }


  /* Get Start Tick */
  tickstart = HAL_GetTick();
 8002a40:	f7fe fe40 	bl	80016c4 <HAL_GetTick>
 8002a44:	4604      	mov	r4, r0

  /* Set HSION bit */
  SET_BIT(RCC->CR, RCC_CR_HSION);
 8002a46:	4a5e      	ldr	r2, [pc, #376]	; (8002bc0 <HAL_RCC_DeInit+0x1a8>)
 8002a48:	6813      	ldr	r3, [r2, #0]
 8002a4a:	f043 0301 	orr.w	r3, r3, #1
 8002a4e:	6013      	str	r3, [r2, #0]

  /* Wait till HSI is ready */
  while (READ_BIT(RCC->CR, RCC_CR_HSIRDY) == 0U)
 8002a50:	4b5b      	ldr	r3, [pc, #364]	; (8002bc0 <HAL_RCC_DeInit+0x1a8>)
 8002a52:	681b      	ldr	r3, [r3, #0]
 8002a54:	f013 0f04 	tst.w	r3, #4
 8002a58:	d106      	bne.n	8002a68 <HAL_RCC_DeInit+0x50>
  {
    if ((HAL_GetTick() - tickstart) > HSI_TIMEOUT_VALUE)
 8002a5a:	f7fe fe33 	bl	80016c4 <HAL_GetTick>
 8002a5e:	1b00      	subs	r0, r0, r4
 8002a60:	2802      	cmp	r0, #2
 8002a62:	d9f5      	bls.n	8002a50 <HAL_RCC_DeInit+0x38>
    {
      return HAL_TIMEOUT;
 8002a64:	2403      	movs	r4, #3
 8002a66:	e0a6      	b.n	8002bb6 <HAL_RCC_DeInit+0x19e>
    }
  }

  /* Set HSITRIM[6:0] bits to the reset value */
  SET_BIT(RCC->HSICFGR, RCC_HSICFGR_HSITRIM_6);
 8002a68:	4b55      	ldr	r3, [pc, #340]	; (8002bc0 <HAL_RCC_DeInit+0x1a8>)
 8002a6a:	685a      	ldr	r2, [r3, #4]
 8002a6c:	f042 4280 	orr.w	r2, r2, #1073741824	; 0x40000000
 8002a70:	605a      	str	r2, [r3, #4]

  /* Reset CFGR register */
  CLEAR_REG(RCC->CFGR);
 8002a72:	2200      	movs	r2, #0
 8002a74:	611a      	str	r2, [r3, #16]

  /* Update the SystemCoreClock and SystemD2Clock global variables */
  SystemCoreClock = HSI_VALUE;
 8002a76:	4b53      	ldr	r3, [pc, #332]	; (8002bc4 <HAL_RCC_DeInit+0x1ac>)
 8002a78:	4a53      	ldr	r2, [pc, #332]	; (8002bc8 <HAL_RCC_DeInit+0x1b0>)
 8002a7a:	6013      	str	r3, [r2, #0]
  SystemD2Clock = HSI_VALUE;
 8002a7c:	4a53      	ldr	r2, [pc, #332]	; (8002bcc <HAL_RCC_DeInit+0x1b4>)
 8002a7e:	6013      	str	r3, [r2, #0]

  /* Adapt Systick interrupt period */
  if (HAL_InitTick(uwTickPrio) != HAL_OK)
 8002a80:	4b53      	ldr	r3, [pc, #332]	; (8002bd0 <HAL_RCC_DeInit+0x1b8>)
 8002a82:	6818      	ldr	r0, [r3, #0]
 8002a84:	f7fe fdbc 	bl	8001600 <HAL_InitTick>
 8002a88:	4604      	mov	r4, r0
 8002a8a:	b108      	cbz	r0, 8002a90 <HAL_RCC_DeInit+0x78>
  {
    return HAL_ERROR;
 8002a8c:	2401      	movs	r4, #1
 8002a8e:	e092      	b.n	8002bb6 <HAL_RCC_DeInit+0x19e>
  }

  /* Get Start Tick */
  tickstart = HAL_GetTick();
 8002a90:	f7fe fe18 	bl	80016c4 <HAL_GetTick>
 8002a94:	4605      	mov	r5, r0

  /* Wait till clock switch is ready */
  while (READ_BIT(RCC->CFGR, RCC_CFGR_SWS) != 0U)
 8002a96:	4b4a      	ldr	r3, [pc, #296]	; (8002bc0 <HAL_RCC_DeInit+0x1a8>)
 8002a98:	691b      	ldr	r3, [r3, #16]
 8002a9a:	f013 0f38 	tst.w	r3, #56	; 0x38
 8002a9e:	d008      	beq.n	8002ab2 <HAL_RCC_DeInit+0x9a>
  {
    if ((HAL_GetTick() - tickstart) > CLOCKSWITCH_TIMEOUT_VALUE)
 8002aa0:	f7fe fe10 	bl	80016c4 <HAL_GetTick>
 8002aa4:	1b40      	subs	r0, r0, r5
 8002aa6:	f241 3388 	movw	r3, #5000	; 0x1388
 8002aaa:	4298      	cmp	r0, r3
 8002aac:	d9f3      	bls.n	8002a96 <HAL_RCC_DeInit+0x7e>
    {
      return HAL_TIMEOUT;
 8002aae:	2403      	movs	r4, #3
 8002ab0:	e081      	b.n	8002bb6 <HAL_RCC_DeInit+0x19e>
    }
  }

  /* Get Start Tick */
  tickstart = HAL_GetTick();
 8002ab2:	f7fe fe07 	bl	80016c4 <HAL_GetTick>
 8002ab6:	4605      	mov	r5, r0

  /* Reset CSION, CSIKERON, HSEON, HSI48ON, HSECSSON, HSIDIV bits */
  CLEAR_BIT(RCC->CR, RCC_CR_HSEON | RCC_CR_HSIKERON | RCC_CR_HSIDIV | RCC_CR_HSIDIVF | RCC_CR_CSION | RCC_CR_CSIKERON  \
 8002ab8:	4a41      	ldr	r2, [pc, #260]	; (8002bc0 <HAL_RCC_DeInit+0x1a8>)
 8002aba:	6811      	ldr	r1, [r2, #0]
 8002abc:	4b45      	ldr	r3, [pc, #276]	; (8002bd4 <HAL_RCC_DeInit+0x1bc>)
 8002abe:	400b      	ands	r3, r1
 8002ac0:	6013      	str	r3, [r2, #0]
            | RCC_CR_HSI48ON | RCC_CR_CSSHSEON);

  /* Wait till HSE is disabled */
  while (READ_BIT(RCC->CR, RCC_CR_HSERDY) != 0U)
 8002ac2:	4b3f      	ldr	r3, [pc, #252]	; (8002bc0 <HAL_RCC_DeInit+0x1a8>)
 8002ac4:	681b      	ldr	r3, [r3, #0]
 8002ac6:	f413 3f00 	tst.w	r3, #131072	; 0x20000
 8002aca:	d006      	beq.n	8002ada <HAL_RCC_DeInit+0xc2>
  {
    if ((HAL_GetTick() - tickstart) > HSE_TIMEOUT_VALUE)
 8002acc:	f7fe fdfa 	bl	80016c4 <HAL_GetTick>
 8002ad0:	1b40      	subs	r0, r0, r5
 8002ad2:	2864      	cmp	r0, #100	; 0x64
 8002ad4:	d9f5      	bls.n	8002ac2 <HAL_RCC_DeInit+0xaa>
    {
      return HAL_TIMEOUT;
 8002ad6:	2403      	movs	r4, #3
 8002ad8:	e06d      	b.n	8002bb6 <HAL_RCC_DeInit+0x19e>
    }
  }

  /* Get Start Tick */
  tickstart = HAL_GetTick();
 8002ada:	f7fe fdf3 	bl	80016c4 <HAL_GetTick>
 8002ade:	4605      	mov	r5, r0

  /* Clear PLLON bit */
  CLEAR_BIT(RCC->CR, RCC_CR_PLL1ON);
 8002ae0:	4a37      	ldr	r2, [pc, #220]	; (8002bc0 <HAL_RCC_DeInit+0x1a8>)
 8002ae2:	6813      	ldr	r3, [r2, #0]
 8002ae4:	f023 7380 	bic.w	r3, r3, #16777216	; 0x1000000
 8002ae8:	6013      	str	r3, [r2, #0]

  /* Wait till PLL is disabled */
  while (READ_BIT(RCC->CR, RCC_CR_PLL1RDY) != 0U)
 8002aea:	4b35      	ldr	r3, [pc, #212]	; (8002bc0 <HAL_RCC_DeInit+0x1a8>)
 8002aec:	681b      	ldr	r3, [r3, #0]
 8002aee:	f013 7f00 	tst.w	r3, #33554432	; 0x2000000
 8002af2:	d006      	beq.n	8002b02 <HAL_RCC_DeInit+0xea>
  {
    if ((HAL_GetTick() - tickstart) > PLL_TIMEOUT_VALUE)
 8002af4:	f7fe fde6 	bl	80016c4 <HAL_GetTick>
 8002af8:	1b40      	subs	r0, r0, r5
 8002afa:	2802      	cmp	r0, #2
 8002afc:	d9f5      	bls.n	8002aea <HAL_RCC_DeInit+0xd2>
    {
      return HAL_TIMEOUT;
 8002afe:	2403      	movs	r4, #3
 8002b00:	e059      	b.n	8002bb6 <HAL_RCC_DeInit+0x19e>
    }
  }

  /* Get Start Tick */
  tickstart = HAL_GetTick();
 8002b02:	f7fe fddf 	bl	80016c4 <HAL_GetTick>
 8002b06:	4605      	mov	r5, r0

  /* Reset PLL2ON bit */
  CLEAR_BIT(RCC->CR, RCC_CR_PLL2ON);
 8002b08:	4a2d      	ldr	r2, [pc, #180]	; (8002bc0 <HAL_RCC_DeInit+0x1a8>)
 8002b0a:	6813      	ldr	r3, [r2, #0]
 8002b0c:	f023 6380 	bic.w	r3, r3, #67108864	; 0x4000000
 8002b10:	6013      	str	r3, [r2, #0]

  /* Wait till PLL2 is disabled */
  while (READ_BIT(RCC->CR, RCC_CR_PLL2RDY) != 0U)
 8002b12:	4b2b      	ldr	r3, [pc, #172]	; (8002bc0 <HAL_RCC_DeInit+0x1a8>)
 8002b14:	681b      	ldr	r3, [r3, #0]
 8002b16:	f013 6f00 	tst.w	r3, #134217728	; 0x8000000
 8002b1a:	d006      	beq.n	8002b2a <HAL_RCC_DeInit+0x112>
  {
    if ((HAL_GetTick() - tickstart) > PLL_TIMEOUT_VALUE)
 8002b1c:	f7fe fdd2 	bl	80016c4 <HAL_GetTick>
 8002b20:	1b40      	subs	r0, r0, r5
 8002b22:	2802      	cmp	r0, #2
 8002b24:	d9f5      	bls.n	8002b12 <HAL_RCC_DeInit+0xfa>
    {
      return HAL_TIMEOUT;
 8002b26:	2403      	movs	r4, #3
 8002b28:	e045      	b.n	8002bb6 <HAL_RCC_DeInit+0x19e>
    }
  }

  /* Get Start Tick */
  tickstart = HAL_GetTick();
 8002b2a:	f7fe fdcb 	bl	80016c4 <HAL_GetTick>
 8002b2e:	4605      	mov	r5, r0

  /* Reset PLL3 bit */
  CLEAR_BIT(RCC->CR, RCC_CR_PLL3ON);
 8002b30:	4a23      	ldr	r2, [pc, #140]	; (8002bc0 <HAL_RCC_DeInit+0x1a8>)
 8002b32:	6813      	ldr	r3, [r2, #0]
 8002b34:	f023 5380 	bic.w	r3, r3, #268435456	; 0x10000000
 8002b38:	6013      	str	r3, [r2, #0]

  /* Wait till PLL3 is disabled */
  while (READ_BIT(RCC->CR, RCC_CR_PLL3RDY) != 0U)
 8002b3a:	4b21      	ldr	r3, [pc, #132]	; (8002bc0 <HAL_RCC_DeInit+0x1a8>)
 8002b3c:	681b      	ldr	r3, [r3, #0]
 8002b3e:	f013 5f00 	tst.w	r3, #536870912	; 0x20000000
 8002b42:	d006      	beq.n	8002b52 <HAL_RCC_DeInit+0x13a>
  {
    if ((HAL_GetTick() - tickstart) > PLL_TIMEOUT_VALUE)
 8002b44:	f7fe fdbe 	bl	80016c4 <HAL_GetTick>
 8002b48:	1b40      	subs	r0, r0, r5
 8002b4a:	2802      	cmp	r0, #2
 8002b4c:	d9f5      	bls.n	8002b3a <HAL_RCC_DeInit+0x122>
    {
      return HAL_TIMEOUT;
 8002b4e:	2403      	movs	r4, #3
 8002b50:	e031      	b.n	8002bb6 <HAL_RCC_DeInit+0x19e>
    }
  }

#if defined(RCC_D1CFGR_HPRE)
  /* Reset D1CFGR register */
  CLEAR_REG(RCC->D1CFGR);
 8002b52:	4b1b      	ldr	r3, [pc, #108]	; (8002bc0 <HAL_RCC_DeInit+0x1a8>)
 8002b54:	2200      	movs	r2, #0
 8002b56:	619a      	str	r2, [r3, #24]

  /* Reset D2CFGR register */
  CLEAR_REG(RCC->D2CFGR);
 8002b58:	61da      	str	r2, [r3, #28]

  /* Reset D3CFGR register */
  CLEAR_REG(RCC->D3CFGR);
 8002b5a:	621a      	str	r2, [r3, #32]
  /* Reset SRDCFGR register */
  CLEAR_REG(RCC->SRDCFGR);
#endif

  /* Reset PLLCKSELR register to default value */
  RCC->PLLCKSELR = RCC_PLLCKSELR_DIVM1_5 | RCC_PLLCKSELR_DIVM2_5 | RCC_PLLCKSELR_DIVM3_5;
 8002b5c:	491e      	ldr	r1, [pc, #120]	; (8002bd8 <HAL_RCC_DeInit+0x1c0>)
 8002b5e:	6299      	str	r1, [r3, #40]	; 0x28

  /* Reset PLLCFGR register to default value */
  WRITE_REG(RCC->PLLCFGR, 0x01FF0000U);
 8002b60:	491e      	ldr	r1, [pc, #120]	; (8002bdc <HAL_RCC_DeInit+0x1c4>)
 8002b62:	62d9      	str	r1, [r3, #44]	; 0x2c

  /* Reset PLL1DIVR register to default value */
  WRITE_REG(RCC->PLL1DIVR, 0x01010280U);
 8002b64:	491e      	ldr	r1, [pc, #120]	; (8002be0 <HAL_RCC_DeInit+0x1c8>)
 8002b66:	6319      	str	r1, [r3, #48]	; 0x30

  /* Reset PLL1FRACR register */
  CLEAR_REG(RCC->PLL1FRACR);
 8002b68:	635a      	str	r2, [r3, #52]	; 0x34

  /* Reset PLL2DIVR register to default value */
  WRITE_REG(RCC->PLL2DIVR, 0x01010280U);
 8002b6a:	6399      	str	r1, [r3, #56]	; 0x38

  /* Reset PLL2FRACR register */
  CLEAR_REG(RCC->PLL2FRACR);
 8002b6c:	63da      	str	r2, [r3, #60]	; 0x3c

  /* Reset PLL3DIVR register to default value */
  WRITE_REG(RCC->PLL3DIVR, 0x01010280U);
 8002b6e:	6419      	str	r1, [r3, #64]	; 0x40

  /* Reset PLL3FRACR register */
  CLEAR_REG(RCC->PLL3FRACR);
 8002b70:	645a      	str	r2, [r3, #68]	; 0x44
  /* Reset HSEEXT  */
  CLEAR_BIT(RCC->CR, RCC_CR_HSEEXT);
#endif /* RCC_CR_HSEEXT */

  /* Reset HSEBYP bit */
  CLEAR_BIT(RCC->CR, RCC_CR_HSEBYP);
 8002b72:	6819      	ldr	r1, [r3, #0]
 8002b74:	f421 2180 	bic.w	r1, r1, #262144	; 0x40000
 8002b78:	6019      	str	r1, [r3, #0]

  /* Disable all interrupts */
  CLEAR_REG(RCC->CIER);
 8002b7a:	661a      	str	r2, [r3, #96]	; 0x60

  /* Clear all interrupts flags */
  WRITE_REG(RCC->CICR, 0xFFFFFFFFU);
 8002b7c:	f04f 32ff 	mov.w	r2, #4294967295	; 0xffffffff
 8002b80:	669a      	str	r2, [r3, #104]	; 0x68

  /* Reset all RSR flags */
  SET_BIT(RCC->RSR, RCC_RSR_RMVF);
 8002b82:	f8d3 20d0 	ldr.w	r2, [r3, #208]	; 0xd0
 8002b86:	f442 3280 	orr.w	r2, r2, #65536	; 0x10000
 8002b8a:	f8c3 20d0 	str.w	r2, [r3, #208]	; 0xd0

  /* Decreasing the number of wait states because of lower CPU frequency */
  if (FLASH_LATENCY_DEFAULT  < __HAL_FLASH_GET_LATENCY())
 8002b8e:	4b0b      	ldr	r3, [pc, #44]	; (8002bbc <HAL_RCC_DeInit+0x1a4>)
 8002b90:	681b      	ldr	r3, [r3, #0]
 8002b92:	f013 0f08 	tst.w	r3, #8
 8002b96:	d00e      	beq.n	8002bb6 <HAL_RCC_DeInit+0x19e>
  {
    /* Program the new number of wait states to the LATENCY bits in the FLASH_ACR register */
    __HAL_FLASH_SET_LATENCY(FLASH_LATENCY_DEFAULT);
 8002b98:	4a08      	ldr	r2, [pc, #32]	; (8002bbc <HAL_RCC_DeInit+0x1a4>)
 8002b9a:	6813      	ldr	r3, [r2, #0]
 8002b9c:	f023 030f 	bic.w	r3, r3, #15
 8002ba0:	f043 0307 	orr.w	r3, r3, #7
 8002ba4:	6013      	str	r3, [r2, #0]

    /* Check that the new number of wait states is taken into account to access the Flash
    memory by reading the FLASH_ACR register */
    if (__HAL_FLASH_GET_LATENCY() != FLASH_LATENCY_DEFAULT)
 8002ba6:	6813      	ldr	r3, [r2, #0]
 8002ba8:	f003 030f 	and.w	r3, r3, #15
 8002bac:	2b07      	cmp	r3, #7
 8002bae:	d002      	beq.n	8002bb6 <HAL_RCC_DeInit+0x19e>
    {
      return HAL_ERROR;
 8002bb0:	2401      	movs	r4, #1
 8002bb2:	e000      	b.n	8002bb6 <HAL_RCC_DeInit+0x19e>
      return HAL_ERROR;
 8002bb4:	2401      	movs	r4, #1
    }

  }

  return HAL_OK;
}
 8002bb6:	4620      	mov	r0, r4
 8002bb8:	bd38      	pop	{r3, r4, r5, pc}
 8002bba:	bf00      	nop
 8002bbc:	52002000 	.word	0x52002000
 8002bc0:	58024400 	.word	0x58024400
 8002bc4:	03d09000 	.word	0x03d09000
 8002bc8:	20000004 	.word	0x20000004
 8002bcc:	20000008 	.word	0x20000008
 8002bd0:	20000010 	.word	0x20000010
 8002bd4:	fff6ed45 	.word	0xfff6ed45
 8002bd8:	02020200 	.word	0x02020200
 8002bdc:	01ff0000 	.word	0x01ff0000
 8002be0:	01010280 	.word	0x01010280

08002be4 <HAL_RCC_OscConfig>:
{
  uint32_t tickstart;
  uint32_t temp1_pllckcfg, temp2_pllckcfg;

  /* Check Null pointer */
  if (RCC_OscInitStruct == NULL)
 8002be4:	2800      	cmp	r0, #0
 8002be6:	f000 8339 	beq.w	800325c <HAL_RCC_OscConfig+0x678>
{
 8002bea:	b538      	push	{r3, r4, r5, lr}
 8002bec:	4604      	mov	r4, r0
  }

  /* Check the parameters */
  assert_param(IS_RCC_OSCILLATORTYPE(RCC_OscInitStruct->OscillatorType));
  /*------------------------------- HSE Configuration ------------------------*/
  if (((RCC_OscInitStruct->OscillatorType) & RCC_OSCILLATORTYPE_HSE) == RCC_OSCILLATORTYPE_HSE)
 8002bee:	6803      	ldr	r3, [r0, #0]
 8002bf0:	f013 0f01 	tst.w	r3, #1
 8002bf4:	d025      	beq.n	8002c42 <HAL_RCC_OscConfig+0x5e>
  {
    /* Check the parameters */
    assert_param(IS_RCC_HSE(RCC_OscInitStruct->HSEState));

    const uint32_t temp_sysclksrc = __HAL_RCC_GET_SYSCLK_SOURCE();
 8002bf6:	4a94      	ldr	r2, [pc, #592]	; (8002e48 <HAL_RCC_OscConfig+0x264>)
 8002bf8:	6913      	ldr	r3, [r2, #16]
 8002bfa:	f003 0338 	and.w	r3, r3, #56	; 0x38
    const uint32_t temp_pllckselr = RCC->PLLCKSELR;
 8002bfe:	6a92      	ldr	r2, [r2, #40]	; 0x28
    /* When the HSE is used as system clock or clock source for PLL in these cases HSE will not disabled */
    if ((temp_sysclksrc == RCC_CFGR_SWS_HSE) || ((temp_sysclksrc == RCC_CFGR_SWS_PLL1) && ((temp_pllckselr & RCC_PLLCKSELR_PLLSRC) == RCC_PLLCKSELR_PLLSRC_HSE)))
 8002c00:	2b10      	cmp	r3, #16
 8002c02:	d015      	beq.n	8002c30 <HAL_RCC_OscConfig+0x4c>
 8002c04:	2b18      	cmp	r3, #24
 8002c06:	d00f      	beq.n	8002c28 <HAL_RCC_OscConfig+0x44>
      }
    }
    else
    {
      /* Set the new HSE configuration ---------------------------------------*/
      __HAL_RCC_HSE_CONFIG(RCC_OscInitStruct->HSEState);
 8002c08:	6863      	ldr	r3, [r4, #4]
 8002c0a:	f5b3 3f80 	cmp.w	r3, #65536	; 0x10000
 8002c0e:	d03f      	beq.n	8002c90 <HAL_RCC_OscConfig+0xac>
 8002c10:	2b00      	cmp	r3, #0
 8002c12:	d153      	bne.n	8002cbc <HAL_RCC_OscConfig+0xd8>
 8002c14:	4b8c      	ldr	r3, [pc, #560]	; (8002e48 <HAL_RCC_OscConfig+0x264>)
 8002c16:	681a      	ldr	r2, [r3, #0]
 8002c18:	f422 3280 	bic.w	r2, r2, #65536	; 0x10000
 8002c1c:	601a      	str	r2, [r3, #0]
 8002c1e:	681a      	ldr	r2, [r3, #0]
 8002c20:	f422 2280 	bic.w	r2, r2, #262144	; 0x40000
 8002c24:	601a      	str	r2, [r3, #0]
 8002c26:	e038      	b.n	8002c9a <HAL_RCC_OscConfig+0xb6>
    if ((temp_sysclksrc == RCC_CFGR_SWS_HSE) || ((temp_sysclksrc == RCC_CFGR_SWS_PLL1) && ((temp_pllckselr & RCC_PLLCKSELR_PLLSRC) == RCC_PLLCKSELR_PLLSRC_HSE)))
 8002c28:	f002 0203 	and.w	r2, r2, #3
 8002c2c:	2a02      	cmp	r2, #2
 8002c2e:	d1eb      	bne.n	8002c08 <HAL_RCC_OscConfig+0x24>
      if ((__HAL_RCC_GET_FLAG(RCC_FLAG_HSERDY) != 0U) && (RCC_OscInitStruct->HSEState == RCC_HSE_OFF))
 8002c30:	4b85      	ldr	r3, [pc, #532]	; (8002e48 <HAL_RCC_OscConfig+0x264>)
 8002c32:	681b      	ldr	r3, [r3, #0]
 8002c34:	f413 3f00 	tst.w	r3, #131072	; 0x20000
 8002c38:	d003      	beq.n	8002c42 <HAL_RCC_OscConfig+0x5e>
 8002c3a:	6863      	ldr	r3, [r4, #4]
 8002c3c:	2b00      	cmp	r3, #0
 8002c3e:	f000 830f 	beq.w	8003260 <HAL_RCC_OscConfig+0x67c>
        }
      }
    }
  }
  /*----------------------------- HSI Configuration --------------------------*/
  if (((RCC_OscInitStruct->OscillatorType) & RCC_OSCILLATORTYPE_HSI) == RCC_OSCILLATORTYPE_HSI)
 8002c42:	6823      	ldr	r3, [r4, #0]
 8002c44:	f013 0f02 	tst.w	r3, #2
 8002c48:	f000 80a1 	beq.w	8002d8e <HAL_RCC_OscConfig+0x1aa>
    /* Check the parameters */
    assert_param(IS_RCC_HSI(RCC_OscInitStruct->HSIState));
    assert_param(IS_RCC_HSICALIBRATION_VALUE(RCC_OscInitStruct->HSICalibrationValue));

    /* When the HSI is used as system clock it will not be disabled */
    const uint32_t temp_sysclksrc = __HAL_RCC_GET_SYSCLK_SOURCE();
 8002c4c:	4a7e      	ldr	r2, [pc, #504]	; (8002e48 <HAL_RCC_OscConfig+0x264>)
 8002c4e:	6913      	ldr	r3, [r2, #16]
    const uint32_t temp_pllckselr = RCC->PLLCKSELR;
 8002c50:	6a92      	ldr	r2, [r2, #40]	; 0x28
    if ((temp_sysclksrc == RCC_CFGR_SWS_HSI) || ((temp_sysclksrc == RCC_CFGR_SWS_PLL1) && ((temp_pllckselr & RCC_PLLCKSELR_PLLSRC) == RCC_PLLCKSELR_PLLSRC_HSI)))
 8002c52:	f013 0338 	ands.w	r3, r3, #56	; 0x38
 8002c56:	d05a      	beq.n	8002d0e <HAL_RCC_OscConfig+0x12a>
 8002c58:	2b18      	cmp	r3, #24
 8002c5a:	d055      	beq.n	8002d08 <HAL_RCC_OscConfig+0x124>
    }

    else
    {
      /* Check the HSI State */
      if ((RCC_OscInitStruct->HSIState) != RCC_HSI_OFF)
 8002c5c:	68e3      	ldr	r3, [r4, #12]
 8002c5e:	2b00      	cmp	r3, #0
 8002c60:	f000 80de 	beq.w	8002e20 <HAL_RCC_OscConfig+0x23c>
      {
        /* Enable the Internal High Speed oscillator (HSI, HSIDIV2,HSIDIV4, or HSIDIV8) */
        __HAL_RCC_HSI_CONFIG(RCC_OscInitStruct->HSIState);
 8002c64:	4978      	ldr	r1, [pc, #480]	; (8002e48 <HAL_RCC_OscConfig+0x264>)
 8002c66:	680a      	ldr	r2, [r1, #0]
 8002c68:	f022 0219 	bic.w	r2, r2, #25
 8002c6c:	4313      	orrs	r3, r2
 8002c6e:	600b      	str	r3, [r1, #0]

        /* Get Start Tick*/
        tickstart = HAL_GetTick();
 8002c70:	f7fe fd28 	bl	80016c4 <HAL_GetTick>
 8002c74:	4605      	mov	r5, r0

        /* Wait till HSI is ready */
        while (__HAL_RCC_GET_FLAG(RCC_FLAG_HSIRDY) == 0U)
 8002c76:	4b74      	ldr	r3, [pc, #464]	; (8002e48 <HAL_RCC_OscConfig+0x264>)
 8002c78:	681b      	ldr	r3, [r3, #0]
 8002c7a:	f013 0f04 	tst.w	r3, #4
 8002c7e:	f040 80ad 	bne.w	8002ddc <HAL_RCC_OscConfig+0x1f8>
        {
          if ((HAL_GetTick() - tickstart) > HSI_TIMEOUT_VALUE)
 8002c82:	f7fe fd1f 	bl	80016c4 <HAL_GetTick>
 8002c86:	1b40      	subs	r0, r0, r5
 8002c88:	2802      	cmp	r0, #2
 8002c8a:	d9f4      	bls.n	8002c76 <HAL_RCC_OscConfig+0x92>
          {
            return HAL_TIMEOUT;
 8002c8c:	2003      	movs	r0, #3
 8002c8e:	e2ee      	b.n	800326e <HAL_RCC_OscConfig+0x68a>
      __HAL_RCC_HSE_CONFIG(RCC_OscInitStruct->HSEState);
 8002c90:	4a6d      	ldr	r2, [pc, #436]	; (8002e48 <HAL_RCC_OscConfig+0x264>)
 8002c92:	6813      	ldr	r3, [r2, #0]
 8002c94:	f443 3380 	orr.w	r3, r3, #65536	; 0x10000
 8002c98:	6013      	str	r3, [r2, #0]
      if (RCC_OscInitStruct->HSEState != RCC_HSE_OFF)
 8002c9a:	6863      	ldr	r3, [r4, #4]
 8002c9c:	b32b      	cbz	r3, 8002cea <HAL_RCC_OscConfig+0x106>
        tickstart = HAL_GetTick();
 8002c9e:	f7fe fd11 	bl	80016c4 <HAL_GetTick>
 8002ca2:	4605      	mov	r5, r0
        while (__HAL_RCC_GET_FLAG(RCC_FLAG_HSERDY) == 0U)
 8002ca4:	4b68      	ldr	r3, [pc, #416]	; (8002e48 <HAL_RCC_OscConfig+0x264>)
 8002ca6:	681b      	ldr	r3, [r3, #0]
 8002ca8:	f413 3f00 	tst.w	r3, #131072	; 0x20000
 8002cac:	d1c9      	bne.n	8002c42 <HAL_RCC_OscConfig+0x5e>
          if ((uint32_t)(HAL_GetTick() - tickstart) > HSE_TIMEOUT_VALUE)
 8002cae:	f7fe fd09 	bl	80016c4 <HAL_GetTick>
 8002cb2:	1b40      	subs	r0, r0, r5
 8002cb4:	2864      	cmp	r0, #100	; 0x64
 8002cb6:	d9f5      	bls.n	8002ca4 <HAL_RCC_OscConfig+0xc0>
            return HAL_TIMEOUT;
 8002cb8:	2003      	movs	r0, #3
 8002cba:	e2d8      	b.n	800326e <HAL_RCC_OscConfig+0x68a>
      __HAL_RCC_HSE_CONFIG(RCC_OscInitStruct->HSEState);
 8002cbc:	f5b3 2fa0 	cmp.w	r3, #327680	; 0x50000
 8002cc0:	d009      	beq.n	8002cd6 <HAL_RCC_OscConfig+0xf2>
 8002cc2:	4b61      	ldr	r3, [pc, #388]	; (8002e48 <HAL_RCC_OscConfig+0x264>)
 8002cc4:	681a      	ldr	r2, [r3, #0]
 8002cc6:	f422 3280 	bic.w	r2, r2, #65536	; 0x10000
 8002cca:	601a      	str	r2, [r3, #0]
 8002ccc:	681a      	ldr	r2, [r3, #0]
 8002cce:	f422 2280 	bic.w	r2, r2, #262144	; 0x40000
 8002cd2:	601a      	str	r2, [r3, #0]
 8002cd4:	e7e1      	b.n	8002c9a <HAL_RCC_OscConfig+0xb6>
 8002cd6:	4b5c      	ldr	r3, [pc, #368]	; (8002e48 <HAL_RCC_OscConfig+0x264>)
 8002cd8:	681a      	ldr	r2, [r3, #0]
 8002cda:	f442 2280 	orr.w	r2, r2, #262144	; 0x40000
 8002cde:	601a      	str	r2, [r3, #0]
 8002ce0:	681a      	ldr	r2, [r3, #0]
 8002ce2:	f442 3280 	orr.w	r2, r2, #65536	; 0x10000
 8002ce6:	601a      	str	r2, [r3, #0]
 8002ce8:	e7d7      	b.n	8002c9a <HAL_RCC_OscConfig+0xb6>
        tickstart = HAL_GetTick();
 8002cea:	f7fe fceb 	bl	80016c4 <HAL_GetTick>
 8002cee:	4605      	mov	r5, r0
        while (__HAL_RCC_GET_FLAG(RCC_FLAG_HSERDY) != 0U)
 8002cf0:	4b55      	ldr	r3, [pc, #340]	; (8002e48 <HAL_RCC_OscConfig+0x264>)
 8002cf2:	681b      	ldr	r3, [r3, #0]
 8002cf4:	f413 3f00 	tst.w	r3, #131072	; 0x20000
 8002cf8:	d0a3      	beq.n	8002c42 <HAL_RCC_OscConfig+0x5e>
          if ((uint32_t)(HAL_GetTick() - tickstart) > HSE_TIMEOUT_VALUE)
 8002cfa:	f7fe fce3 	bl	80016c4 <HAL_GetTick>
 8002cfe:	1b40      	subs	r0, r0, r5
 8002d00:	2864      	cmp	r0, #100	; 0x64
 8002d02:	d9f5      	bls.n	8002cf0 <HAL_RCC_OscConfig+0x10c>
            return HAL_TIMEOUT;
 8002d04:	2003      	movs	r0, #3
 8002d06:	e2b2      	b.n	800326e <HAL_RCC_OscConfig+0x68a>
    if ((temp_sysclksrc == RCC_CFGR_SWS_HSI) || ((temp_sysclksrc == RCC_CFGR_SWS_PLL1) && ((temp_pllckselr & RCC_PLLCKSELR_PLLSRC) == RCC_PLLCKSELR_PLLSRC_HSI)))
 8002d08:	f012 0f03 	tst.w	r2, #3
 8002d0c:	d1a6      	bne.n	8002c5c <HAL_RCC_OscConfig+0x78>
      if ((__HAL_RCC_GET_FLAG(RCC_FLAG_HSIRDY) != 0U) && (RCC_OscInitStruct->HSIState == RCC_HSI_OFF))
 8002d0e:	4b4e      	ldr	r3, [pc, #312]	; (8002e48 <HAL_RCC_OscConfig+0x264>)
 8002d10:	681b      	ldr	r3, [r3, #0]
 8002d12:	f013 0f04 	tst.w	r3, #4
 8002d16:	d003      	beq.n	8002d20 <HAL_RCC_OscConfig+0x13c>
 8002d18:	68e3      	ldr	r3, [r4, #12]
 8002d1a:	2b00      	cmp	r3, #0
 8002d1c:	f000 82a2 	beq.w	8003264 <HAL_RCC_OscConfig+0x680>
        __HAL_RCC_HSI_CONFIG(RCC_OscInitStruct->HSIState);
 8002d20:	4a49      	ldr	r2, [pc, #292]	; (8002e48 <HAL_RCC_OscConfig+0x264>)
 8002d22:	6813      	ldr	r3, [r2, #0]
 8002d24:	f023 0319 	bic.w	r3, r3, #25
 8002d28:	68e1      	ldr	r1, [r4, #12]
 8002d2a:	430b      	orrs	r3, r1
 8002d2c:	6013      	str	r3, [r2, #0]
        tickstart = HAL_GetTick();
 8002d2e:	f7fe fcc9 	bl	80016c4 <HAL_GetTick>
 8002d32:	4605      	mov	r5, r0
        while (__HAL_RCC_GET_FLAG(RCC_FLAG_HSIRDY) == 0U)
 8002d34:	4b44      	ldr	r3, [pc, #272]	; (8002e48 <HAL_RCC_OscConfig+0x264>)
 8002d36:	681b      	ldr	r3, [r3, #0]
 8002d38:	f013 0f04 	tst.w	r3, #4
 8002d3c:	d106      	bne.n	8002d4c <HAL_RCC_OscConfig+0x168>
          if ((uint32_t)(HAL_GetTick() - tickstart) > HSI_TIMEOUT_VALUE)
 8002d3e:	f7fe fcc1 	bl	80016c4 <HAL_GetTick>
 8002d42:	1b40      	subs	r0, r0, r5
 8002d44:	2802      	cmp	r0, #2
 8002d46:	d9f5      	bls.n	8002d34 <HAL_RCC_OscConfig+0x150>
            return HAL_TIMEOUT;
 8002d48:	2003      	movs	r0, #3
 8002d4a:	e290      	b.n	800326e <HAL_RCC_OscConfig+0x68a>
        __HAL_RCC_HSI_CALIBRATIONVALUE_ADJUST(RCC_OscInitStruct->HSICalibrationValue);
 8002d4c:	f7fe fcd4 	bl	80016f8 <HAL_GetREVID>
 8002d50:	f241 0303 	movw	r3, #4099	; 0x1003
 8002d54:	4298      	cmp	r0, r3
 8002d56:	d812      	bhi.n	8002d7e <HAL_RCC_OscConfig+0x19a>
 8002d58:	6922      	ldr	r2, [r4, #16]
 8002d5a:	2a40      	cmp	r2, #64	; 0x40
 8002d5c:	d007      	beq.n	8002d6e <HAL_RCC_OscConfig+0x18a>
 8002d5e:	493a      	ldr	r1, [pc, #232]	; (8002e48 <HAL_RCC_OscConfig+0x264>)
 8002d60:	684b      	ldr	r3, [r1, #4]
 8002d62:	f423 337c 	bic.w	r3, r3, #258048	; 0x3f000
 8002d66:	ea43 3302 	orr.w	r3, r3, r2, lsl #12
 8002d6a:	604b      	str	r3, [r1, #4]
 8002d6c:	e00f      	b.n	8002d8e <HAL_RCC_OscConfig+0x1aa>
 8002d6e:	4a36      	ldr	r2, [pc, #216]	; (8002e48 <HAL_RCC_OscConfig+0x264>)
 8002d70:	6853      	ldr	r3, [r2, #4]
 8002d72:	f423 337c 	bic.w	r3, r3, #258048	; 0x3f000
 8002d76:	f443 3300 	orr.w	r3, r3, #131072	; 0x20000
 8002d7a:	6053      	str	r3, [r2, #4]
 8002d7c:	e007      	b.n	8002d8e <HAL_RCC_OscConfig+0x1aa>
 8002d7e:	4a32      	ldr	r2, [pc, #200]	; (8002e48 <HAL_RCC_OscConfig+0x264>)
 8002d80:	6853      	ldr	r3, [r2, #4]
 8002d82:	f023 43fe 	bic.w	r3, r3, #2130706432	; 0x7f000000
 8002d86:	6921      	ldr	r1, [r4, #16]
 8002d88:	ea43 6301 	orr.w	r3, r3, r1, lsl #24
 8002d8c:	6053      	str	r3, [r2, #4]
        }
      }
    }
  }
  /*----------------------------- CSI Configuration --------------------------*/
  if (((RCC_OscInitStruct->OscillatorType) & RCC_OSCILLATORTYPE_CSI) == RCC_OSCILLATORTYPE_CSI)
 8002d8e:	6823      	ldr	r3, [r4, #0]
 8002d90:	f013 0f10 	tst.w	r3, #16
 8002d94:	f000 8088 	beq.w	8002ea8 <HAL_RCC_OscConfig+0x2c4>
    /* Check the parameters */
    assert_param(IS_RCC_CSI(RCC_OscInitStruct->CSIState));
    assert_param(IS_RCC_CSICALIBRATION_VALUE(RCC_OscInitStruct->CSICalibrationValue));

    /* When the CSI is used as system clock it will not disabled */
    const uint32_t temp_sysclksrc = __HAL_RCC_GET_SYSCLK_SOURCE();
 8002d98:	4a2b      	ldr	r2, [pc, #172]	; (8002e48 <HAL_RCC_OscConfig+0x264>)
 8002d9a:	6913      	ldr	r3, [r2, #16]
 8002d9c:	f003 0338 	and.w	r3, r3, #56	; 0x38
    const uint32_t temp_pllckselr = RCC->PLLCKSELR;
 8002da0:	6a92      	ldr	r2, [r2, #40]	; 0x28
    if ((temp_sysclksrc == RCC_CFGR_SWS_CSI) || ((temp_sysclksrc == RCC_CFGR_SWS_PLL1) && ((temp_pllckselr & RCC_PLLCKSELR_PLLSRC) == RCC_PLLCKSELR_PLLSRC_CSI)))
 8002da2:	2b08      	cmp	r3, #8
 8002da4:	d056      	beq.n	8002e54 <HAL_RCC_OscConfig+0x270>
 8002da6:	2b18      	cmp	r3, #24
 8002da8:	d050      	beq.n	8002e4c <HAL_RCC_OscConfig+0x268>
      }
    }
    else
    {
      /* Check the CSI State */
      if ((RCC_OscInitStruct->CSIState) != RCC_CSI_OFF)
 8002daa:	69e3      	ldr	r3, [r4, #28]
 8002dac:	2b00      	cmp	r3, #0
 8002dae:	f000 80b8 	beq.w	8002f22 <HAL_RCC_OscConfig+0x33e>
      {
        /* Enable the Internal High Speed oscillator (CSI). */
        __HAL_RCC_CSI_ENABLE();
 8002db2:	4a25      	ldr	r2, [pc, #148]	; (8002e48 <HAL_RCC_OscConfig+0x264>)
 8002db4:	6813      	ldr	r3, [r2, #0]
 8002db6:	f043 0380 	orr.w	r3, r3, #128	; 0x80
 8002dba:	6013      	str	r3, [r2, #0]

        /* Get Start Tick*/
        tickstart = HAL_GetTick();
 8002dbc:	f7fe fc82 	bl	80016c4 <HAL_GetTick>
 8002dc0:	4605      	mov	r5, r0

        /* Wait till CSI is ready */
        while (__HAL_RCC_GET_FLAG(RCC_FLAG_CSIRDY) == 0U)
 8002dc2:	4b21      	ldr	r3, [pc, #132]	; (8002e48 <HAL_RCC_OscConfig+0x264>)
 8002dc4:	681b      	ldr	r3, [r3, #0]
 8002dc6:	f413 7f80 	tst.w	r3, #256	; 0x100
 8002dca:	f040 8088 	bne.w	8002ede <HAL_RCC_OscConfig+0x2fa>
        {
          if ((HAL_GetTick() - tickstart) > CSI_TIMEOUT_VALUE)
 8002dce:	f7fe fc79 	bl	80016c4 <HAL_GetTick>
 8002dd2:	1b40      	subs	r0, r0, r5
 8002dd4:	2802      	cmp	r0, #2
 8002dd6:	d9f4      	bls.n	8002dc2 <HAL_RCC_OscConfig+0x1de>
          {
            return HAL_TIMEOUT;
 8002dd8:	2003      	movs	r0, #3
 8002dda:	e248      	b.n	800326e <HAL_RCC_OscConfig+0x68a>
        __HAL_RCC_HSI_CALIBRATIONVALUE_ADJUST(RCC_OscInitStruct->HSICalibrationValue);
 8002ddc:	f7fe fc8c 	bl	80016f8 <HAL_GetREVID>
 8002de0:	f241 0303 	movw	r3, #4099	; 0x1003
 8002de4:	4298      	cmp	r0, r3
 8002de6:	d812      	bhi.n	8002e0e <HAL_RCC_OscConfig+0x22a>
 8002de8:	6922      	ldr	r2, [r4, #16]
 8002dea:	2a40      	cmp	r2, #64	; 0x40
 8002dec:	d007      	beq.n	8002dfe <HAL_RCC_OscConfig+0x21a>
 8002dee:	4916      	ldr	r1, [pc, #88]	; (8002e48 <HAL_RCC_OscConfig+0x264>)
 8002df0:	684b      	ldr	r3, [r1, #4]
 8002df2:	f423 337c 	bic.w	r3, r3, #258048	; 0x3f000
 8002df6:	ea43 3302 	orr.w	r3, r3, r2, lsl #12
 8002dfa:	604b      	str	r3, [r1, #4]
 8002dfc:	e7c7      	b.n	8002d8e <HAL_RCC_OscConfig+0x1aa>
 8002dfe:	4a12      	ldr	r2, [pc, #72]	; (8002e48 <HAL_RCC_OscConfig+0x264>)
 8002e00:	6853      	ldr	r3, [r2, #4]
 8002e02:	f423 337c 	bic.w	r3, r3, #258048	; 0x3f000
 8002e06:	f443 3300 	orr.w	r3, r3, #131072	; 0x20000
 8002e0a:	6053      	str	r3, [r2, #4]
 8002e0c:	e7bf      	b.n	8002d8e <HAL_RCC_OscConfig+0x1aa>
 8002e0e:	4a0e      	ldr	r2, [pc, #56]	; (8002e48 <HAL_RCC_OscConfig+0x264>)
 8002e10:	6853      	ldr	r3, [r2, #4]
 8002e12:	f023 43fe 	bic.w	r3, r3, #2130706432	; 0x7f000000
 8002e16:	6921      	ldr	r1, [r4, #16]
 8002e18:	ea43 6301 	orr.w	r3, r3, r1, lsl #24
 8002e1c:	6053      	str	r3, [r2, #4]
 8002e1e:	e7b6      	b.n	8002d8e <HAL_RCC_OscConfig+0x1aa>
        __HAL_RCC_HSI_DISABLE();
 8002e20:	4a09      	ldr	r2, [pc, #36]	; (8002e48 <HAL_RCC_OscConfig+0x264>)
 8002e22:	6813      	ldr	r3, [r2, #0]
 8002e24:	f023 0301 	bic.w	r3, r3, #1
 8002e28:	6013      	str	r3, [r2, #0]
        tickstart = HAL_GetTick();
 8002e2a:	f7fe fc4b 	bl	80016c4 <HAL_GetTick>
 8002e2e:	4605      	mov	r5, r0
        while (__HAL_RCC_GET_FLAG(RCC_FLAG_HSIRDY) != 0U)
 8002e30:	4b05      	ldr	r3, [pc, #20]	; (8002e48 <HAL_RCC_OscConfig+0x264>)
 8002e32:	681b      	ldr	r3, [r3, #0]
 8002e34:	f013 0f04 	tst.w	r3, #4
 8002e38:	d0a9      	beq.n	8002d8e <HAL_RCC_OscConfig+0x1aa>
          if ((HAL_GetTick() - tickstart) > HSI_TIMEOUT_VALUE)
 8002e3a:	f7fe fc43 	bl	80016c4 <HAL_GetTick>
 8002e3e:	1b40      	subs	r0, r0, r5
 8002e40:	2802      	cmp	r0, #2
 8002e42:	d9f5      	bls.n	8002e30 <HAL_RCC_OscConfig+0x24c>
            return HAL_TIMEOUT;
 8002e44:	2003      	movs	r0, #3
 8002e46:	e212      	b.n	800326e <HAL_RCC_OscConfig+0x68a>
 8002e48:	58024400 	.word	0x58024400
    if ((temp_sysclksrc == RCC_CFGR_SWS_CSI) || ((temp_sysclksrc == RCC_CFGR_SWS_PLL1) && ((temp_pllckselr & RCC_PLLCKSELR_PLLSRC) == RCC_PLLCKSELR_PLLSRC_CSI)))
 8002e4c:	f002 0203 	and.w	r2, r2, #3
 8002e50:	2a01      	cmp	r2, #1
 8002e52:	d1aa      	bne.n	8002daa <HAL_RCC_OscConfig+0x1c6>
      if ((__HAL_RCC_GET_FLAG(RCC_FLAG_CSIRDY) != 0U) && (RCC_OscInitStruct->CSIState != RCC_CSI_ON))
 8002e54:	4ba1      	ldr	r3, [pc, #644]	; (80030dc <HAL_RCC_OscConfig+0x4f8>)
 8002e56:	681b      	ldr	r3, [r3, #0]
 8002e58:	f413 7f80 	tst.w	r3, #256	; 0x100
 8002e5c:	d003      	beq.n	8002e66 <HAL_RCC_OscConfig+0x282>
 8002e5e:	69e3      	ldr	r3, [r4, #28]
 8002e60:	2b80      	cmp	r3, #128	; 0x80
 8002e62:	f040 8201 	bne.w	8003268 <HAL_RCC_OscConfig+0x684>
        __HAL_RCC_CSI_CALIBRATIONVALUE_ADJUST(RCC_OscInitStruct->CSICalibrationValue);
 8002e66:	f7fe fc47 	bl	80016f8 <HAL_GetREVID>
 8002e6a:	f241 0303 	movw	r3, #4099	; 0x1003
 8002e6e:	4298      	cmp	r0, r3
 8002e70:	d812      	bhi.n	8002e98 <HAL_RCC_OscConfig+0x2b4>
 8002e72:	6a22      	ldr	r2, [r4, #32]
 8002e74:	2a20      	cmp	r2, #32
 8002e76:	d007      	beq.n	8002e88 <HAL_RCC_OscConfig+0x2a4>
 8002e78:	4998      	ldr	r1, [pc, #608]	; (80030dc <HAL_RCC_OscConfig+0x4f8>)
 8002e7a:	684b      	ldr	r3, [r1, #4]
 8002e7c:	f023 43f8 	bic.w	r3, r3, #2080374784	; 0x7c000000
 8002e80:	ea43 6382 	orr.w	r3, r3, r2, lsl #26
 8002e84:	604b      	str	r3, [r1, #4]
 8002e86:	e00f      	b.n	8002ea8 <HAL_RCC_OscConfig+0x2c4>
 8002e88:	4a94      	ldr	r2, [pc, #592]	; (80030dc <HAL_RCC_OscConfig+0x4f8>)
 8002e8a:	6853      	ldr	r3, [r2, #4]
 8002e8c:	f023 43f8 	bic.w	r3, r3, #2080374784	; 0x7c000000
 8002e90:	f043 4380 	orr.w	r3, r3, #1073741824	; 0x40000000
 8002e94:	6053      	str	r3, [r2, #4]
 8002e96:	e007      	b.n	8002ea8 <HAL_RCC_OscConfig+0x2c4>
 8002e98:	4a90      	ldr	r2, [pc, #576]	; (80030dc <HAL_RCC_OscConfig+0x4f8>)
 8002e9a:	68d3      	ldr	r3, [r2, #12]
 8002e9c:	f023 537c 	bic.w	r3, r3, #1056964608	; 0x3f000000
 8002ea0:	6a21      	ldr	r1, [r4, #32]
 8002ea2:	ea43 6301 	orr.w	r3, r3, r1, lsl #24
 8002ea6:	60d3      	str	r3, [r2, #12]
        }
      }
    }
  }
  /*------------------------------ LSI Configuration -------------------------*/
  if (((RCC_OscInitStruct->OscillatorType) & RCC_OSCILLATORTYPE_LSI) == RCC_OSCILLATORTYPE_LSI)
 8002ea8:	6823      	ldr	r3, [r4, #0]
 8002eaa:	f013 0f08 	tst.w	r3, #8
 8002eae:	d060      	beq.n	8002f72 <HAL_RCC_OscConfig+0x38e>
  {
    /* Check the parameters */
    assert_param(IS_RCC_LSI(RCC_OscInitStruct->LSIState));

    /* Check the LSI State */
    if ((RCC_OscInitStruct->LSIState) != RCC_LSI_OFF)
 8002eb0:	6963      	ldr	r3, [r4, #20]
 8002eb2:	2b00      	cmp	r3, #0
 8002eb4:	d049      	beq.n	8002f4a <HAL_RCC_OscConfig+0x366>
    {
      /* Enable the Internal Low Speed oscillator (LSI). */
      __HAL_RCC_LSI_ENABLE();
 8002eb6:	4a89      	ldr	r2, [pc, #548]	; (80030dc <HAL_RCC_OscConfig+0x4f8>)
 8002eb8:	6f53      	ldr	r3, [r2, #116]	; 0x74
 8002eba:	f043 0301 	orr.w	r3, r3, #1
 8002ebe:	6753      	str	r3, [r2, #116]	; 0x74

      /* Get Start Tick*/
      tickstart = HAL_GetTick();
 8002ec0:	f7fe fc00 	bl	80016c4 <HAL_GetTick>
 8002ec4:	4605      	mov	r5, r0

      /* Wait till LSI is ready */
      while (__HAL_RCC_GET_FLAG(RCC_FLAG_LSIRDY) == 0U)
 8002ec6:	4b85      	ldr	r3, [pc, #532]	; (80030dc <HAL_RCC_OscConfig+0x4f8>)
 8002ec8:	6f5b      	ldr	r3, [r3, #116]	; 0x74
 8002eca:	f013 0f02 	tst.w	r3, #2
 8002ece:	d150      	bne.n	8002f72 <HAL_RCC_OscConfig+0x38e>
      {
        if ((HAL_GetTick() - tickstart) > LSI_TIMEOUT_VALUE)
 8002ed0:	f7fe fbf8 	bl	80016c4 <HAL_GetTick>
 8002ed4:	1b40      	subs	r0, r0, r5
 8002ed6:	2802      	cmp	r0, #2
 8002ed8:	d9f5      	bls.n	8002ec6 <HAL_RCC_OscConfig+0x2e2>
        {
          return HAL_TIMEOUT;
 8002eda:	2003      	movs	r0, #3
 8002edc:	e1c7      	b.n	800326e <HAL_RCC_OscConfig+0x68a>
        __HAL_RCC_CSI_CALIBRATIONVALUE_ADJUST(RCC_OscInitStruct->CSICalibrationValue);
 8002ede:	f7fe fc0b 	bl	80016f8 <HAL_GetREVID>
 8002ee2:	f241 0303 	movw	r3, #4099	; 0x1003
 8002ee6:	4298      	cmp	r0, r3
 8002ee8:	d812      	bhi.n	8002f10 <HAL_RCC_OscConfig+0x32c>
 8002eea:	6a22      	ldr	r2, [r4, #32]
 8002eec:	2a20      	cmp	r2, #32
 8002eee:	d007      	beq.n	8002f00 <HAL_RCC_OscConfig+0x31c>
 8002ef0:	497a      	ldr	r1, [pc, #488]	; (80030dc <HAL_RCC_OscConfig+0x4f8>)
 8002ef2:	684b      	ldr	r3, [r1, #4]
 8002ef4:	f023 43f8 	bic.w	r3, r3, #2080374784	; 0x7c000000
 8002ef8:	ea43 6382 	orr.w	r3, r3, r2, lsl #26
 8002efc:	604b      	str	r3, [r1, #4]
 8002efe:	e7d3      	b.n	8002ea8 <HAL_RCC_OscConfig+0x2c4>
 8002f00:	4a76      	ldr	r2, [pc, #472]	; (80030dc <HAL_RCC_OscConfig+0x4f8>)
 8002f02:	6853      	ldr	r3, [r2, #4]
 8002f04:	f023 43f8 	bic.w	r3, r3, #2080374784	; 0x7c000000
 8002f08:	f043 4380 	orr.w	r3, r3, #1073741824	; 0x40000000
 8002f0c:	6053      	str	r3, [r2, #4]
 8002f0e:	e7cb      	b.n	8002ea8 <HAL_RCC_OscConfig+0x2c4>
 8002f10:	4a72      	ldr	r2, [pc, #456]	; (80030dc <HAL_RCC_OscConfig+0x4f8>)
 8002f12:	68d3      	ldr	r3, [r2, #12]
 8002f14:	f023 537c 	bic.w	r3, r3, #1056964608	; 0x3f000000
 8002f18:	6a21      	ldr	r1, [r4, #32]
 8002f1a:	ea43 6301 	orr.w	r3, r3, r1, lsl #24
 8002f1e:	60d3      	str	r3, [r2, #12]
 8002f20:	e7c2      	b.n	8002ea8 <HAL_RCC_OscConfig+0x2c4>
        __HAL_RCC_CSI_DISABLE();
 8002f22:	4a6e      	ldr	r2, [pc, #440]	; (80030dc <HAL_RCC_OscConfig+0x4f8>)
 8002f24:	6813      	ldr	r3, [r2, #0]
 8002f26:	f023 0380 	bic.w	r3, r3, #128	; 0x80
 8002f2a:	6013      	str	r3, [r2, #0]
        tickstart = HAL_GetTick();
 8002f2c:	f7fe fbca 	bl	80016c4 <HAL_GetTick>
 8002f30:	4605      	mov	r5, r0
        while (__HAL_RCC_GET_FLAG(RCC_FLAG_CSIRDY) != 0U)
 8002f32:	4b6a      	ldr	r3, [pc, #424]	; (80030dc <HAL_RCC_OscConfig+0x4f8>)
 8002f34:	681b      	ldr	r3, [r3, #0]
 8002f36:	f413 7f80 	tst.w	r3, #256	; 0x100
 8002f3a:	d0b5      	beq.n	8002ea8 <HAL_RCC_OscConfig+0x2c4>
          if ((HAL_GetTick() - tickstart) > CSI_TIMEOUT_VALUE)
 8002f3c:	f7fe fbc2 	bl	80016c4 <HAL_GetTick>
 8002f40:	1b40      	subs	r0, r0, r5
 8002f42:	2802      	cmp	r0, #2
 8002f44:	d9f5      	bls.n	8002f32 <HAL_RCC_OscConfig+0x34e>
            return HAL_TIMEOUT;
 8002f46:	2003      	movs	r0, #3
 8002f48:	e191      	b.n	800326e <HAL_RCC_OscConfig+0x68a>
      }
    }
    else
    {
      /* Disable the Internal Low Speed oscillator (LSI). */
      __HAL_RCC_LSI_DISABLE();
 8002f4a:	4a64      	ldr	r2, [pc, #400]	; (80030dc <HAL_RCC_OscConfig+0x4f8>)
 8002f4c:	6f53      	ldr	r3, [r2, #116]	; 0x74
 8002f4e:	f023 0301 	bic.w	r3, r3, #1
 8002f52:	6753      	str	r3, [r2, #116]	; 0x74

      /* Get Start Tick*/
      tickstart = HAL_GetTick();
 8002f54:	f7fe fbb6 	bl	80016c4 <HAL_GetTick>
 8002f58:	4605      	mov	r5, r0

      /* Wait till LSI is ready */
      while (__HAL_RCC_GET_FLAG(RCC_FLAG_LSIRDY) != 0U)
 8002f5a:	4b60      	ldr	r3, [pc, #384]	; (80030dc <HAL_RCC_OscConfig+0x4f8>)
 8002f5c:	6f5b      	ldr	r3, [r3, #116]	; 0x74
 8002f5e:	f013 0f02 	tst.w	r3, #2
 8002f62:	d006      	beq.n	8002f72 <HAL_RCC_OscConfig+0x38e>
      {
        if ((HAL_GetTick() - tickstart) > LSI_TIMEOUT_VALUE)
 8002f64:	f7fe fbae 	bl	80016c4 <HAL_GetTick>
 8002f68:	1b40      	subs	r0, r0, r5
 8002f6a:	2802      	cmp	r0, #2
 8002f6c:	d9f5      	bls.n	8002f5a <HAL_RCC_OscConfig+0x376>
        {
          return HAL_TIMEOUT;
 8002f6e:	2003      	movs	r0, #3
 8002f70:	e17d      	b.n	800326e <HAL_RCC_OscConfig+0x68a>
      }
    }
  }

  /*------------------------------ HSI48 Configuration -------------------------*/
  if (((RCC_OscInitStruct->OscillatorType) & RCC_OSCILLATORTYPE_HSI48) == RCC_OSCILLATORTYPE_HSI48)
 8002f72:	6823      	ldr	r3, [r4, #0]
 8002f74:	f013 0f20 	tst.w	r3, #32
 8002f78:	d029      	beq.n	8002fce <HAL_RCC_OscConfig+0x3ea>
  {
    /* Check the parameters */
    assert_param(IS_RCC_HSI48(RCC_OscInitStruct->HSI48State));

    /* Check the HSI48 State */
    if ((RCC_OscInitStruct->HSI48State) != RCC_HSI48_OFF)
 8002f7a:	69a3      	ldr	r3, [r4, #24]
 8002f7c:	b19b      	cbz	r3, 8002fa6 <HAL_RCC_OscConfig+0x3c2>
    {
      /* Enable the Internal Low Speed oscillator (HSI48). */
      __HAL_RCC_HSI48_ENABLE();
 8002f7e:	4a57      	ldr	r2, [pc, #348]	; (80030dc <HAL_RCC_OscConfig+0x4f8>)
 8002f80:	6813      	ldr	r3, [r2, #0]
 8002f82:	f443 5380 	orr.w	r3, r3, #4096	; 0x1000
 8002f86:	6013      	str	r3, [r2, #0]

      /* Get time-out */
      tickstart = HAL_GetTick();
 8002f88:	f7fe fb9c 	bl	80016c4 <HAL_GetTick>
 8002f8c:	4605      	mov	r5, r0

      /* Wait till HSI48 is ready */
      while (__HAL_RCC_GET_FLAG(RCC_FLAG_HSI48RDY) == 0U)
 8002f8e:	4b53      	ldr	r3, [pc, #332]	; (80030dc <HAL_RCC_OscConfig+0x4f8>)
 8002f90:	681b      	ldr	r3, [r3, #0]
 8002f92:	f413 5f00 	tst.w	r3, #8192	; 0x2000
 8002f96:	d11a      	bne.n	8002fce <HAL_RCC_OscConfig+0x3ea>
      {
        if ((HAL_GetTick() - tickstart) > HSI48_TIMEOUT_VALUE)
 8002f98:	f7fe fb94 	bl	80016c4 <HAL_GetTick>
 8002f9c:	1b40      	subs	r0, r0, r5
 8002f9e:	2802      	cmp	r0, #2
 8002fa0:	d9f5      	bls.n	8002f8e <HAL_RCC_OscConfig+0x3aa>
        {
          return HAL_TIMEOUT;
 8002fa2:	2003      	movs	r0, #3
 8002fa4:	e163      	b.n	800326e <HAL_RCC_OscConfig+0x68a>
      }
    }
    else
    {
      /* Disable the Internal Low Speed oscillator (HSI48). */
      __HAL_RCC_HSI48_DISABLE();
 8002fa6:	4a4d      	ldr	r2, [pc, #308]	; (80030dc <HAL_RCC_OscConfig+0x4f8>)
 8002fa8:	6813      	ldr	r3, [r2, #0]
 8002faa:	f423 5380 	bic.w	r3, r3, #4096	; 0x1000
 8002fae:	6013      	str	r3, [r2, #0]

      /* Get time-out */
      tickstart = HAL_GetTick();
 8002fb0:	f7fe fb88 	bl	80016c4 <HAL_GetTick>
 8002fb4:	4605      	mov	r5, r0

      /* Wait till HSI48 is ready */
      while (__HAL_RCC_GET_FLAG(RCC_FLAG_HSI48RDY) != 0U)
 8002fb6:	4b49      	ldr	r3, [pc, #292]	; (80030dc <HAL_RCC_OscConfig+0x4f8>)
 8002fb8:	681b      	ldr	r3, [r3, #0]
 8002fba:	f413 5f00 	tst.w	r3, #8192	; 0x2000
 8002fbe:	d006      	beq.n	8002fce <HAL_RCC_OscConfig+0x3ea>
      {
        if ((HAL_GetTick() - tickstart) > HSI48_TIMEOUT_VALUE)
 8002fc0:	f7fe fb80 	bl	80016c4 <HAL_GetTick>
 8002fc4:	1b40      	subs	r0, r0, r5
 8002fc6:	2802      	cmp	r0, #2
 8002fc8:	d9f5      	bls.n	8002fb6 <HAL_RCC_OscConfig+0x3d2>
        {
          return HAL_TIMEOUT;
 8002fca:	2003      	movs	r0, #3
 8002fcc:	e14f      	b.n	800326e <HAL_RCC_OscConfig+0x68a>
        }
      }
    }
  }
  /*------------------------------ LSE Configuration -------------------------*/
  if (((RCC_OscInitStruct->OscillatorType) & RCC_OSCILLATORTYPE_LSE) == RCC_OSCILLATORTYPE_LSE)
 8002fce:	6823      	ldr	r3, [r4, #0]
 8002fd0:	f013 0f04 	tst.w	r3, #4
 8002fd4:	d121      	bne.n	800301a <HAL_RCC_OscConfig+0x436>
    }
  }
  /*-------------------------------- PLL Configuration -----------------------*/
  /* Check the parameters */
  assert_param(IS_RCC_PLL(RCC_OscInitStruct->PLL.PLLState));
  if ((RCC_OscInitStruct->PLL.PLLState) != RCC_PLL_NONE)
 8002fd6:	6a63      	ldr	r3, [r4, #36]	; 0x24
 8002fd8:	2b00      	cmp	r3, #0
 8002fda:	f000 8147 	beq.w	800326c <HAL_RCC_OscConfig+0x688>
  {
    /* Check if the PLL is used as system clock or not */
    if (__HAL_RCC_GET_SYSCLK_SOURCE() != RCC_CFGR_SWS_PLL1)
 8002fde:	4a3f      	ldr	r2, [pc, #252]	; (80030dc <HAL_RCC_OscConfig+0x4f8>)
 8002fe0:	6912      	ldr	r2, [r2, #16]
 8002fe2:	f002 0238 	and.w	r2, r2, #56	; 0x38
 8002fe6:	2a18      	cmp	r2, #24
 8002fe8:	f000 80ee 	beq.w	80031c8 <HAL_RCC_OscConfig+0x5e4>
    {
      if ((RCC_OscInitStruct->PLL.PLLState) == RCC_PLL_ON)
 8002fec:	2b02      	cmp	r3, #2
 8002fee:	d079      	beq.n	80030e4 <HAL_RCC_OscConfig+0x500>
        }
      }
      else
      {
        /* Disable the main PLL. */
        __HAL_RCC_PLL_DISABLE();
 8002ff0:	4a3a      	ldr	r2, [pc, #232]	; (80030dc <HAL_RCC_OscConfig+0x4f8>)
 8002ff2:	6813      	ldr	r3, [r2, #0]
 8002ff4:	f023 7380 	bic.w	r3, r3, #16777216	; 0x1000000
 8002ff8:	6013      	str	r3, [r2, #0]

        /* Get Start Tick*/
        tickstart = HAL_GetTick();
 8002ffa:	f7fe fb63 	bl	80016c4 <HAL_GetTick>
 8002ffe:	4604      	mov	r4, r0

        /* Wait till PLL is disabled */
        while (__HAL_RCC_GET_FLAG(RCC_FLAG_PLLRDY) != 0U)
 8003000:	4b36      	ldr	r3, [pc, #216]	; (80030dc <HAL_RCC_OscConfig+0x4f8>)
 8003002:	681b      	ldr	r3, [r3, #0]
 8003004:	f013 7f00 	tst.w	r3, #33554432	; 0x2000000
 8003008:	f000 80dc 	beq.w	80031c4 <HAL_RCC_OscConfig+0x5e0>
        {
          if ((HAL_GetTick() - tickstart) > PLL_TIMEOUT_VALUE)
 800300c:	f7fe fb5a 	bl	80016c4 <HAL_GetTick>
 8003010:	1b00      	subs	r0, r0, r4
 8003012:	2802      	cmp	r0, #2
 8003014:	d9f4      	bls.n	8003000 <HAL_RCC_OscConfig+0x41c>
          {
            return HAL_TIMEOUT;
 8003016:	2003      	movs	r0, #3
 8003018:	e129      	b.n	800326e <HAL_RCC_OscConfig+0x68a>
    PWR->CR1 |= PWR_CR1_DBP;
 800301a:	4a31      	ldr	r2, [pc, #196]	; (80030e0 <HAL_RCC_OscConfig+0x4fc>)
 800301c:	6813      	ldr	r3, [r2, #0]
 800301e:	f443 7380 	orr.w	r3, r3, #256	; 0x100
 8003022:	6013      	str	r3, [r2, #0]
    tickstart = HAL_GetTick();
 8003024:	f7fe fb4e 	bl	80016c4 <HAL_GetTick>
 8003028:	4605      	mov	r5, r0
    while ((PWR->CR1 & PWR_CR1_DBP) == 0U)
 800302a:	4b2d      	ldr	r3, [pc, #180]	; (80030e0 <HAL_RCC_OscConfig+0x4fc>)
 800302c:	681b      	ldr	r3, [r3, #0]
 800302e:	f413 7f80 	tst.w	r3, #256	; 0x100
 8003032:	d106      	bne.n	8003042 <HAL_RCC_OscConfig+0x45e>
      if ((HAL_GetTick() - tickstart) > RCC_DBP_TIMEOUT_VALUE)
 8003034:	f7fe fb46 	bl	80016c4 <HAL_GetTick>
 8003038:	1b40      	subs	r0, r0, r5
 800303a:	2864      	cmp	r0, #100	; 0x64
 800303c:	d9f5      	bls.n	800302a <HAL_RCC_OscConfig+0x446>
        return HAL_TIMEOUT;
 800303e:	2003      	movs	r0, #3
 8003040:	e115      	b.n	800326e <HAL_RCC_OscConfig+0x68a>
    __HAL_RCC_LSE_CONFIG(RCC_OscInitStruct->LSEState);
 8003042:	68a3      	ldr	r3, [r4, #8]
 8003044:	2b01      	cmp	r3, #1
 8003046:	d00a      	beq.n	800305e <HAL_RCC_OscConfig+0x47a>
 8003048:	bb0b      	cbnz	r3, 800308e <HAL_RCC_OscConfig+0x4aa>
 800304a:	4b24      	ldr	r3, [pc, #144]	; (80030dc <HAL_RCC_OscConfig+0x4f8>)
 800304c:	6f1a      	ldr	r2, [r3, #112]	; 0x70
 800304e:	f022 0201 	bic.w	r2, r2, #1
 8003052:	671a      	str	r2, [r3, #112]	; 0x70
 8003054:	6f1a      	ldr	r2, [r3, #112]	; 0x70
 8003056:	f022 0204 	bic.w	r2, r2, #4
 800305a:	671a      	str	r2, [r3, #112]	; 0x70
 800305c:	e004      	b.n	8003068 <HAL_RCC_OscConfig+0x484>
 800305e:	4a1f      	ldr	r2, [pc, #124]	; (80030dc <HAL_RCC_OscConfig+0x4f8>)
 8003060:	6f13      	ldr	r3, [r2, #112]	; 0x70
 8003062:	f043 0301 	orr.w	r3, r3, #1
 8003066:	6713      	str	r3, [r2, #112]	; 0x70
    if ((RCC_OscInitStruct->LSEState) != RCC_LSE_OFF)
 8003068:	68a3      	ldr	r3, [r4, #8]
 800306a:	b333      	cbz	r3, 80030ba <HAL_RCC_OscConfig+0x4d6>
      tickstart = HAL_GetTick();
 800306c:	f7fe fb2a 	bl	80016c4 <HAL_GetTick>
 8003070:	4605      	mov	r5, r0
      while (__HAL_RCC_GET_FLAG(RCC_FLAG_LSERDY) == 0U)
 8003072:	4b1a      	ldr	r3, [pc, #104]	; (80030dc <HAL_RCC_OscConfig+0x4f8>)
 8003074:	6f1b      	ldr	r3, [r3, #112]	; 0x70
 8003076:	f013 0f02 	tst.w	r3, #2
 800307a:	d1ac      	bne.n	8002fd6 <HAL_RCC_OscConfig+0x3f2>
        if ((HAL_GetTick() - tickstart) > RCC_LSE_TIMEOUT_VALUE)
 800307c:	f7fe fb22 	bl	80016c4 <HAL_GetTick>
 8003080:	1b40      	subs	r0, r0, r5
 8003082:	f241 3388 	movw	r3, #5000	; 0x1388
 8003086:	4298      	cmp	r0, r3
 8003088:	d9f3      	bls.n	8003072 <HAL_RCC_OscConfig+0x48e>
          return HAL_TIMEOUT;
 800308a:	2003      	movs	r0, #3
 800308c:	e0ef      	b.n	800326e <HAL_RCC_OscConfig+0x68a>
    __HAL_RCC_LSE_CONFIG(RCC_OscInitStruct->LSEState);
 800308e:	2b05      	cmp	r3, #5
 8003090:	d009      	beq.n	80030a6 <HAL_RCC_OscConfig+0x4c2>
 8003092:	4b12      	ldr	r3, [pc, #72]	; (80030dc <HAL_RCC_OscConfig+0x4f8>)
 8003094:	6f1a      	ldr	r2, [r3, #112]	; 0x70
 8003096:	f022 0201 	bic.w	r2, r2, #1
 800309a:	671a      	str	r2, [r3, #112]	; 0x70
 800309c:	6f1a      	ldr	r2, [r3, #112]	; 0x70
 800309e:	f022 0204 	bic.w	r2, r2, #4
 80030a2:	671a      	str	r2, [r3, #112]	; 0x70
 80030a4:	e7e0      	b.n	8003068 <HAL_RCC_OscConfig+0x484>
 80030a6:	4b0d      	ldr	r3, [pc, #52]	; (80030dc <HAL_RCC_OscConfig+0x4f8>)
 80030a8:	6f1a      	ldr	r2, [r3, #112]	; 0x70
 80030aa:	f042 0204 	orr.w	r2, r2, #4
 80030ae:	671a      	str	r2, [r3, #112]	; 0x70
 80030b0:	6f1a      	ldr	r2, [r3, #112]	; 0x70
 80030b2:	f042 0201 	orr.w	r2, r2, #1
 80030b6:	671a      	str	r2, [r3, #112]	; 0x70
 80030b8:	e7d6      	b.n	8003068 <HAL_RCC_OscConfig+0x484>
      tickstart = HAL_GetTick();
 80030ba:	f7fe fb03 	bl	80016c4 <HAL_GetTick>
 80030be:	4605      	mov	r5, r0
      while (__HAL_RCC_GET_FLAG(RCC_FLAG_LSERDY) != 0U)
 80030c0:	4b06      	ldr	r3, [pc, #24]	; (80030dc <HAL_RCC_OscConfig+0x4f8>)
 80030c2:	6f1b      	ldr	r3, [r3, #112]	; 0x70
 80030c4:	f013 0f02 	tst.w	r3, #2
 80030c8:	d085      	beq.n	8002fd6 <HAL_RCC_OscConfig+0x3f2>
        if ((HAL_GetTick() - tickstart) > RCC_LSE_TIMEOUT_VALUE)
 80030ca:	f7fe fafb 	bl	80016c4 <HAL_GetTick>
 80030ce:	1b40      	subs	r0, r0, r5
 80030d0:	f241 3388 	movw	r3, #5000	; 0x1388
 80030d4:	4298      	cmp	r0, r3
 80030d6:	d9f3      	bls.n	80030c0 <HAL_RCC_OscConfig+0x4dc>
          return HAL_TIMEOUT;
 80030d8:	2003      	movs	r0, #3
 80030da:	e0c8      	b.n	800326e <HAL_RCC_OscConfig+0x68a>
 80030dc:	58024400 	.word	0x58024400
 80030e0:	58024800 	.word	0x58024800
        __HAL_RCC_PLL_DISABLE();
 80030e4:	4a69      	ldr	r2, [pc, #420]	; (800328c <HAL_RCC_OscConfig+0x6a8>)
 80030e6:	6813      	ldr	r3, [r2, #0]
 80030e8:	f023 7380 	bic.w	r3, r3, #16777216	; 0x1000000
 80030ec:	6013      	str	r3, [r2, #0]
        tickstart = HAL_GetTick();
 80030ee:	f7fe fae9 	bl	80016c4 <HAL_GetTick>
 80030f2:	4605      	mov	r5, r0
        while (__HAL_RCC_GET_FLAG(RCC_FLAG_PLLRDY) != 0U)
 80030f4:	4b65      	ldr	r3, [pc, #404]	; (800328c <HAL_RCC_OscConfig+0x6a8>)
 80030f6:	681b      	ldr	r3, [r3, #0]
 80030f8:	f013 7f00 	tst.w	r3, #33554432	; 0x2000000
 80030fc:	d006      	beq.n	800310c <HAL_RCC_OscConfig+0x528>
          if ((HAL_GetTick() - tickstart) > PLL_TIMEOUT_VALUE)
 80030fe:	f7fe fae1 	bl	80016c4 <HAL_GetTick>
 8003102:	1b40      	subs	r0, r0, r5
 8003104:	2802      	cmp	r0, #2
 8003106:	d9f5      	bls.n	80030f4 <HAL_RCC_OscConfig+0x510>
            return HAL_TIMEOUT;
 8003108:	2003      	movs	r0, #3
 800310a:	e0b0      	b.n	800326e <HAL_RCC_OscConfig+0x68a>
        __HAL_RCC_PLL_CONFIG(RCC_OscInitStruct->PLL.PLLSource,
 800310c:	4b5f      	ldr	r3, [pc, #380]	; (800328c <HAL_RCC_OscConfig+0x6a8>)
 800310e:	6a99      	ldr	r1, [r3, #40]	; 0x28
 8003110:	4a5f      	ldr	r2, [pc, #380]	; (8003290 <HAL_RCC_OscConfig+0x6ac>)
 8003112:	400a      	ands	r2, r1
 8003114:	6aa1      	ldr	r1, [r4, #40]	; 0x28
 8003116:	6ae0      	ldr	r0, [r4, #44]	; 0x2c
 8003118:	ea41 1100 	orr.w	r1, r1, r0, lsl #4
 800311c:	430a      	orrs	r2, r1
 800311e:	629a      	str	r2, [r3, #40]	; 0x28
 8003120:	6b22      	ldr	r2, [r4, #48]	; 0x30
 8003122:	3a01      	subs	r2, #1
 8003124:	f3c2 0208 	ubfx	r2, r2, #0, #9
 8003128:	6b61      	ldr	r1, [r4, #52]	; 0x34
 800312a:	3901      	subs	r1, #1
 800312c:	0249      	lsls	r1, r1, #9
 800312e:	b289      	uxth	r1, r1
 8003130:	430a      	orrs	r2, r1
 8003132:	6ba1      	ldr	r1, [r4, #56]	; 0x38
 8003134:	3901      	subs	r1, #1
 8003136:	0409      	lsls	r1, r1, #16
 8003138:	f401 01fe 	and.w	r1, r1, #8323072	; 0x7f0000
 800313c:	430a      	orrs	r2, r1
 800313e:	6be1      	ldr	r1, [r4, #60]	; 0x3c
 8003140:	3901      	subs	r1, #1
 8003142:	0609      	lsls	r1, r1, #24
 8003144:	f001 41fe 	and.w	r1, r1, #2130706432	; 0x7f000000
 8003148:	430a      	orrs	r2, r1
 800314a:	631a      	str	r2, [r3, #48]	; 0x30
        __HAL_RCC_PLLFRACN_DISABLE();
 800314c:	6ada      	ldr	r2, [r3, #44]	; 0x2c
 800314e:	f022 0201 	bic.w	r2, r2, #1
 8003152:	62da      	str	r2, [r3, #44]	; 0x2c
        __HAL_RCC_PLLFRACN_CONFIG(RCC_OscInitStruct->PLL.PLLFRACN);
 8003154:	6b59      	ldr	r1, [r3, #52]	; 0x34
 8003156:	4a4f      	ldr	r2, [pc, #316]	; (8003294 <HAL_RCC_OscConfig+0x6b0>)
 8003158:	400a      	ands	r2, r1
 800315a:	6ca1      	ldr	r1, [r4, #72]	; 0x48
 800315c:	ea42 02c1 	orr.w	r2, r2, r1, lsl #3
 8003160:	635a      	str	r2, [r3, #52]	; 0x34
        __HAL_RCC_PLL_VCIRANGE(RCC_OscInitStruct->PLL.PLLRGE) ;
 8003162:	6ada      	ldr	r2, [r3, #44]	; 0x2c
 8003164:	f022 020c 	bic.w	r2, r2, #12
 8003168:	6c21      	ldr	r1, [r4, #64]	; 0x40
 800316a:	430a      	orrs	r2, r1
 800316c:	62da      	str	r2, [r3, #44]	; 0x2c
        __HAL_RCC_PLL_VCORANGE(RCC_OscInitStruct->PLL.PLLVCOSEL) ;
 800316e:	6ada      	ldr	r2, [r3, #44]	; 0x2c
 8003170:	f022 0202 	bic.w	r2, r2, #2
 8003174:	6c61      	ldr	r1, [r4, #68]	; 0x44
 8003176:	430a      	orrs	r2, r1
 8003178:	62da      	str	r2, [r3, #44]	; 0x2c
        __HAL_RCC_PLLCLKOUT_ENABLE(RCC_PLL1_DIVP);
 800317a:	6ada      	ldr	r2, [r3, #44]	; 0x2c
 800317c:	f442 3280 	orr.w	r2, r2, #65536	; 0x10000
 8003180:	62da      	str	r2, [r3, #44]	; 0x2c
        __HAL_RCC_PLLCLKOUT_ENABLE(RCC_PLL1_DIVQ);
 8003182:	6ada      	ldr	r2, [r3, #44]	; 0x2c
 8003184:	f442 3200 	orr.w	r2, r2, #131072	; 0x20000
 8003188:	62da      	str	r2, [r3, #44]	; 0x2c
        __HAL_RCC_PLLCLKOUT_ENABLE(RCC_PLL1_DIVR);
 800318a:	6ada      	ldr	r2, [r3, #44]	; 0x2c
 800318c:	f442 2280 	orr.w	r2, r2, #262144	; 0x40000
 8003190:	62da      	str	r2, [r3, #44]	; 0x2c
        __HAL_RCC_PLLFRACN_ENABLE();
 8003192:	6ada      	ldr	r2, [r3, #44]	; 0x2c
 8003194:	f042 0201 	orr.w	r2, r2, #1
 8003198:	62da      	str	r2, [r3, #44]	; 0x2c
        __HAL_RCC_PLL_ENABLE();
 800319a:	681a      	ldr	r2, [r3, #0]
 800319c:	f042 7280 	orr.w	r2, r2, #16777216	; 0x1000000
 80031a0:	601a      	str	r2, [r3, #0]
        tickstart = HAL_GetTick();
 80031a2:	f7fe fa8f 	bl	80016c4 <HAL_GetTick>
 80031a6:	4604      	mov	r4, r0
        while (__HAL_RCC_GET_FLAG(RCC_FLAG_PLLRDY) == 0U)
 80031a8:	4b38      	ldr	r3, [pc, #224]	; (800328c <HAL_RCC_OscConfig+0x6a8>)
 80031aa:	681b      	ldr	r3, [r3, #0]
 80031ac:	f013 7f00 	tst.w	r3, #33554432	; 0x2000000
 80031b0:	d106      	bne.n	80031c0 <HAL_RCC_OscConfig+0x5dc>
          if ((HAL_GetTick() - tickstart) > PLL_TIMEOUT_VALUE)
 80031b2:	f7fe fa87 	bl	80016c4 <HAL_GetTick>
 80031b6:	1b00      	subs	r0, r0, r4
 80031b8:	2802      	cmp	r0, #2
 80031ba:	d9f5      	bls.n	80031a8 <HAL_RCC_OscConfig+0x5c4>
            return HAL_TIMEOUT;
 80031bc:	2003      	movs	r0, #3
 80031be:	e056      	b.n	800326e <HAL_RCC_OscConfig+0x68a>
          __HAL_RCC_PLLFRACN_ENABLE();
        }
      }
    }
  }
  return HAL_OK;
 80031c0:	2000      	movs	r0, #0
 80031c2:	e054      	b.n	800326e <HAL_RCC_OscConfig+0x68a>
 80031c4:	2000      	movs	r0, #0
 80031c6:	e052      	b.n	800326e <HAL_RCC_OscConfig+0x68a>
      temp1_pllckcfg = RCC->PLLCKSELR;
 80031c8:	4a30      	ldr	r2, [pc, #192]	; (800328c <HAL_RCC_OscConfig+0x6a8>)
 80031ca:	6a91      	ldr	r1, [r2, #40]	; 0x28
      temp2_pllckcfg = RCC->PLL1DIVR;
 80031cc:	6b10      	ldr	r0, [r2, #48]	; 0x30
      if (((RCC_OscInitStruct->PLL.PLLState) == RCC_PLL_OFF) ||
 80031ce:	2b01      	cmp	r3, #1
 80031d0:	d04e      	beq.n	8003270 <HAL_RCC_OscConfig+0x68c>
          (READ_BIT(temp1_pllckcfg, RCC_PLLCKSELR_PLLSRC) != RCC_OscInitStruct->PLL.PLLSource) ||
 80031d2:	f001 0303 	and.w	r3, r1, #3
 80031d6:	6aa2      	ldr	r2, [r4, #40]	; 0x28
      if (((RCC_OscInitStruct->PLL.PLLState) == RCC_PLL_OFF) ||
 80031d8:	4293      	cmp	r3, r2
 80031da:	d14b      	bne.n	8003274 <HAL_RCC_OscConfig+0x690>
          ((READ_BIT(temp1_pllckcfg, RCC_PLLCKSELR_DIVM1) >> RCC_PLLCKSELR_DIVM1_Pos) != RCC_OscInitStruct->PLL.PLLM) ||
 80031dc:	f3c1 1105 	ubfx	r1, r1, #4, #6
 80031e0:	6ae3      	ldr	r3, [r4, #44]	; 0x2c
          (READ_BIT(temp1_pllckcfg, RCC_PLLCKSELR_PLLSRC) != RCC_OscInitStruct->PLL.PLLSource) ||
 80031e2:	4299      	cmp	r1, r3
 80031e4:	d148      	bne.n	8003278 <HAL_RCC_OscConfig+0x694>
          (READ_BIT(temp2_pllckcfg, RCC_PLL1DIVR_N1) != (RCC_OscInitStruct->PLL.PLLN - 1U)) ||
 80031e6:	f3c0 0208 	ubfx	r2, r0, #0, #9
 80031ea:	6b23      	ldr	r3, [r4, #48]	; 0x30
 80031ec:	3b01      	subs	r3, #1
          ((READ_BIT(temp1_pllckcfg, RCC_PLLCKSELR_DIVM1) >> RCC_PLLCKSELR_DIVM1_Pos) != RCC_OscInitStruct->PLL.PLLM) ||
 80031ee:	429a      	cmp	r2, r3
 80031f0:	d144      	bne.n	800327c <HAL_RCC_OscConfig+0x698>
          ((READ_BIT(temp2_pllckcfg, RCC_PLL1DIVR_P1) >> RCC_PLL1DIVR_P1_Pos) != (RCC_OscInitStruct->PLL.PLLP - 1U)) ||
 80031f2:	f3c0 2246 	ubfx	r2, r0, #9, #7
 80031f6:	6b63      	ldr	r3, [r4, #52]	; 0x34
 80031f8:	3b01      	subs	r3, #1
          (READ_BIT(temp2_pllckcfg, RCC_PLL1DIVR_N1) != (RCC_OscInitStruct->PLL.PLLN - 1U)) ||
 80031fa:	429a      	cmp	r2, r3
 80031fc:	d140      	bne.n	8003280 <HAL_RCC_OscConfig+0x69c>
          ((READ_BIT(temp2_pllckcfg, RCC_PLL1DIVR_Q1) >> RCC_PLL1DIVR_Q1_Pos) != (RCC_OscInitStruct->PLL.PLLQ - 1U)) ||
 80031fe:	f3c0 4206 	ubfx	r2, r0, #16, #7
 8003202:	6ba3      	ldr	r3, [r4, #56]	; 0x38
 8003204:	3b01      	subs	r3, #1
          ((READ_BIT(temp2_pllckcfg, RCC_PLL1DIVR_P1) >> RCC_PLL1DIVR_P1_Pos) != (RCC_OscInitStruct->PLL.PLLP - 1U)) ||
 8003206:	429a      	cmp	r2, r3
 8003208:	d13c      	bne.n	8003284 <HAL_RCC_OscConfig+0x6a0>
          ((READ_BIT(temp2_pllckcfg, RCC_PLL1DIVR_R1) >> RCC_PLL1DIVR_R1_Pos) != (RCC_OscInitStruct->PLL.PLLR - 1U)))
 800320a:	f3c0 6006 	ubfx	r0, r0, #24, #7
 800320e:	6be3      	ldr	r3, [r4, #60]	; 0x3c
 8003210:	3b01      	subs	r3, #1
          ((READ_BIT(temp2_pllckcfg, RCC_PLL1DIVR_Q1) >> RCC_PLL1DIVR_Q1_Pos) != (RCC_OscInitStruct->PLL.PLLQ - 1U)) ||
 8003212:	4298      	cmp	r0, r3
 8003214:	d138      	bne.n	8003288 <HAL_RCC_OscConfig+0x6a4>
        temp1_pllckcfg = ((RCC->PLL1FRACR & RCC_PLL1FRACR_FRACN1) >> RCC_PLL1FRACR_FRACN1_Pos);
 8003216:	4b1d      	ldr	r3, [pc, #116]	; (800328c <HAL_RCC_OscConfig+0x6a8>)
 8003218:	6b5b      	ldr	r3, [r3, #52]	; 0x34
 800321a:	f3c3 03cc 	ubfx	r3, r3, #3, #13
        if (RCC_OscInitStruct->PLL.PLLFRACN != temp1_pllckcfg)
 800321e:	6ca2      	ldr	r2, [r4, #72]	; 0x48
 8003220:	429a      	cmp	r2, r3
 8003222:	d101      	bne.n	8003228 <HAL_RCC_OscConfig+0x644>
  return HAL_OK;
 8003224:	2000      	movs	r0, #0
 8003226:	e022      	b.n	800326e <HAL_RCC_OscConfig+0x68a>
          __HAL_RCC_PLLFRACN_DISABLE();
 8003228:	4a18      	ldr	r2, [pc, #96]	; (800328c <HAL_RCC_OscConfig+0x6a8>)
 800322a:	6ad3      	ldr	r3, [r2, #44]	; 0x2c
 800322c:	f023 0301 	bic.w	r3, r3, #1
 8003230:	62d3      	str	r3, [r2, #44]	; 0x2c
          tickstart = HAL_GetTick();
 8003232:	f7fe fa47 	bl	80016c4 <HAL_GetTick>
 8003236:	4605      	mov	r5, r0
          while ((HAL_GetTick() - tickstart) < PLL_FRAC_TIMEOUT_VALUE)
 8003238:	f7fe fa44 	bl	80016c4 <HAL_GetTick>
 800323c:	42a8      	cmp	r0, r5
 800323e:	d0fb      	beq.n	8003238 <HAL_RCC_OscConfig+0x654>
          __HAL_RCC_PLLFRACN_CONFIG(RCC_OscInitStruct->PLL.PLLFRACN);
 8003240:	4a12      	ldr	r2, [pc, #72]	; (800328c <HAL_RCC_OscConfig+0x6a8>)
 8003242:	6b51      	ldr	r1, [r2, #52]	; 0x34
 8003244:	4b13      	ldr	r3, [pc, #76]	; (8003294 <HAL_RCC_OscConfig+0x6b0>)
 8003246:	400b      	ands	r3, r1
 8003248:	6ca1      	ldr	r1, [r4, #72]	; 0x48
 800324a:	ea43 03c1 	orr.w	r3, r3, r1, lsl #3
 800324e:	6353      	str	r3, [r2, #52]	; 0x34
          __HAL_RCC_PLLFRACN_ENABLE();
 8003250:	6ad3      	ldr	r3, [r2, #44]	; 0x2c
 8003252:	f043 0301 	orr.w	r3, r3, #1
 8003256:	62d3      	str	r3, [r2, #44]	; 0x2c
  return HAL_OK;
 8003258:	2000      	movs	r0, #0
 800325a:	e008      	b.n	800326e <HAL_RCC_OscConfig+0x68a>
    return HAL_ERROR;
 800325c:	2001      	movs	r0, #1
}
 800325e:	4770      	bx	lr
        return HAL_ERROR;
 8003260:	2001      	movs	r0, #1
 8003262:	e004      	b.n	800326e <HAL_RCC_OscConfig+0x68a>
        return HAL_ERROR;
 8003264:	2001      	movs	r0, #1
 8003266:	e002      	b.n	800326e <HAL_RCC_OscConfig+0x68a>
        return HAL_ERROR;
 8003268:	2001      	movs	r0, #1
 800326a:	e000      	b.n	800326e <HAL_RCC_OscConfig+0x68a>
  return HAL_OK;
 800326c:	2000      	movs	r0, #0
}
 800326e:	bd38      	pop	{r3, r4, r5, pc}
        return HAL_ERROR;
 8003270:	2001      	movs	r0, #1
 8003272:	e7fc      	b.n	800326e <HAL_RCC_OscConfig+0x68a>
 8003274:	2001      	movs	r0, #1
 8003276:	e7fa      	b.n	800326e <HAL_RCC_OscConfig+0x68a>
 8003278:	2001      	movs	r0, #1
 800327a:	e7f8      	b.n	800326e <HAL_RCC_OscConfig+0x68a>
 800327c:	2001      	movs	r0, #1
 800327e:	e7f6      	b.n	800326e <HAL_RCC_OscConfig+0x68a>
 8003280:	2001      	movs	r0, #1
 8003282:	e7f4      	b.n	800326e <HAL_RCC_OscConfig+0x68a>
 8003284:	2001      	movs	r0, #1
 8003286:	e7f2      	b.n	800326e <HAL_RCC_OscConfig+0x68a>
 8003288:	2001      	movs	r0, #1
 800328a:	e7f0      	b.n	800326e <HAL_RCC_OscConfig+0x68a>
 800328c:	58024400 	.word	0x58024400
 8003290:	fffffc0c 	.word	0xfffffc0c
 8003294:	ffff0007 	.word	0xffff0007

08003298 <HAL_RCC_GetSysClockFreq>:
  float_t fracn1, pllvco;
  uint32_t sysclockfreq;

  /* Get SYSCLK source -------------------------------------------------------*/

  switch (RCC->CFGR & RCC_CFGR_SWS)
 8003298:	4b74      	ldr	r3, [pc, #464]	; (800346c <HAL_RCC_GetSysClockFreq+0x1d4>)
 800329a:	691b      	ldr	r3, [r3, #16]
 800329c:	f003 0338 	and.w	r3, r3, #56	; 0x38
 80032a0:	2b10      	cmp	r3, #16
 80032a2:	f000 80de 	beq.w	8003462 <HAL_RCC_GetSysClockFreq+0x1ca>
 80032a6:	2b18      	cmp	r3, #24
 80032a8:	d010      	beq.n	80032cc <HAL_RCC_GetSysClockFreq+0x34>
 80032aa:	b10b      	cbz	r3, 80032b0 <HAL_RCC_GetSysClockFreq+0x18>
 80032ac:	4870      	ldr	r0, [pc, #448]	; (8003470 <HAL_RCC_GetSysClockFreq+0x1d8>)
 80032ae:	4770      	bx	lr
  {
    case RCC_CFGR_SWS_HSI:  /* HSI used as system clock source */

      if (__HAL_RCC_GET_FLAG(RCC_FLAG_HSIDIV) != 0U)
 80032b0:	4b6e      	ldr	r3, [pc, #440]	; (800346c <HAL_RCC_GetSysClockFreq+0x1d4>)
 80032b2:	681b      	ldr	r3, [r3, #0]
 80032b4:	f013 0f20 	tst.w	r3, #32
 80032b8:	f000 80d5 	beq.w	8003466 <HAL_RCC_GetSysClockFreq+0x1ce>
      {
        sysclockfreq = (uint32_t)(HSI_VALUE >> (__HAL_RCC_GET_HSI_DIVIDER() >> 3));
 80032bc:	4b6b      	ldr	r3, [pc, #428]	; (800346c <HAL_RCC_GetSysClockFreq+0x1d4>)
 80032be:	6818      	ldr	r0, [r3, #0]
 80032c0:	f3c0 00c1 	ubfx	r0, r0, #3, #2
 80032c4:	4b6b      	ldr	r3, [pc, #428]	; (8003474 <HAL_RCC_GetSysClockFreq+0x1dc>)
 80032c6:	fa23 f000 	lsr.w	r0, r3, r0
 80032ca:	4770      	bx	lr
{
 80032cc:	b410      	push	{r4}
    case RCC_CFGR_SWS_PLL1:  /* PLL1 used as system clock  source */

      /* PLL_VCO = (HSE_VALUE or HSI_VALUE or CSI_VALUE/ PLLM) * PLLN
      SYSCLK = PLL_VCO / PLLR
      */
      pllsource = (RCC->PLLCKSELR & RCC_PLLCKSELR_PLLSRC);
 80032ce:	4a67      	ldr	r2, [pc, #412]	; (800346c <HAL_RCC_GetSysClockFreq+0x1d4>)
 80032d0:	6a91      	ldr	r1, [r2, #40]	; 0x28
 80032d2:	f001 0103 	and.w	r1, r1, #3
      pllm = ((RCC->PLLCKSELR & RCC_PLLCKSELR_DIVM1) >> 4)  ;
 80032d6:	6a94      	ldr	r4, [r2, #40]	; 0x28
 80032d8:	f3c4 1005 	ubfx	r0, r4, #4, #6
      pllfracen = ((RCC-> PLLCFGR & RCC_PLLCFGR_PLL1FRACEN) >> RCC_PLLCFGR_PLL1FRACEN_Pos);
 80032dc:	6ad3      	ldr	r3, [r2, #44]	; 0x2c
 80032de:	f003 0c01 	and.w	ip, r3, #1
      fracn1 = (float_t)(uint32_t)(pllfracen * ((RCC->PLL1FRACR & RCC_PLL1FRACR_FRACN1) >> 3));
 80032e2:	6b53      	ldr	r3, [r2, #52]	; 0x34
 80032e4:	f3c3 03cc 	ubfx	r3, r3, #3, #13
 80032e8:	fb0c f303 	mul.w	r3, ip, r3
 80032ec:	ee07 3a90 	vmov	s15, r3
 80032f0:	eef8 7a67 	vcvt.f32.u32	s15, s15

      if (pllm != 0U)
 80032f4:	f414 7f7c 	tst.w	r4, #1008	; 0x3f0
 80032f8:	f000 8093 	beq.w	8003422 <HAL_RCC_GetSysClockFreq+0x18a>
      {
        switch (pllsource)
 80032fc:	2901      	cmp	r1, #1
 80032fe:	d065      	beq.n	80033cc <HAL_RCC_GetSysClockFreq+0x134>
 8003300:	2902      	cmp	r1, #2
 8003302:	f000 8091 	beq.w	8003428 <HAL_RCC_GetSysClockFreq+0x190>
 8003306:	b1e1      	cbz	r1, 8003342 <HAL_RCC_GetSysClockFreq+0xaa>
          case RCC_PLLSOURCE_HSE:  /* HSE used as PLL clock source */
            pllvco = ((float_t)HSE_VALUE / (float_t)pllm) * ((float_t)(uint32_t)(RCC->PLL1DIVR & RCC_PLL1DIVR_N1) + (fracn1 / (float_t)0x2000) + (float_t)1);
            break;

          default:
            pllvco = ((float_t)CSI_VALUE / (float_t)pllm) * ((float_t)(uint32_t)(RCC->PLL1DIVR & RCC_PLL1DIVR_N1) + (fracn1 / (float_t)0x2000) + (float_t)1);
 8003308:	ee07 0a10 	vmov	s14, r0
 800330c:	eef8 6a47 	vcvt.f32.u32	s13, s14
 8003310:	ed9f 6a59 	vldr	s12, [pc, #356]	; 8003478 <HAL_RCC_GetSysClockFreq+0x1e0>
 8003314:	ee86 7a26 	vdiv.f32	s14, s12, s13
 8003318:	4b54      	ldr	r3, [pc, #336]	; (800346c <HAL_RCC_GetSysClockFreq+0x1d4>)
 800331a:	6b1b      	ldr	r3, [r3, #48]	; 0x30
 800331c:	f3c3 0308 	ubfx	r3, r3, #0, #9
 8003320:	ee06 3a90 	vmov	s13, r3
 8003324:	eef8 6a66 	vcvt.f32.u32	s13, s13
 8003328:	ed9f 6a54 	vldr	s12, [pc, #336]	; 800347c <HAL_RCC_GetSysClockFreq+0x1e4>
 800332c:	ee67 7a86 	vmul.f32	s15, s15, s12
 8003330:	ee76 7aa7 	vadd.f32	s15, s13, s15
 8003334:	eef7 6a00 	vmov.f32	s13, #112	; 0x3f800000  1.0
 8003338:	ee77 7aa6 	vadd.f32	s15, s15, s13
 800333c:	ee27 7a27 	vmul.f32	s14, s14, s15
            break;
 8003340:	e060      	b.n	8003404 <HAL_RCC_GetSysClockFreq+0x16c>
            if (__HAL_RCC_GET_FLAG(RCC_FLAG_HSIDIV) != 0U)
 8003342:	6813      	ldr	r3, [r2, #0]
 8003344:	f013 0f20 	tst.w	r3, #32
 8003348:	d023      	beq.n	8003392 <HAL_RCC_GetSysClockFreq+0xfa>
              hsivalue = (HSI_VALUE >> (__HAL_RCC_GET_HSI_DIVIDER() >> 3));
 800334a:	4611      	mov	r1, r2
 800334c:	6812      	ldr	r2, [r2, #0]
 800334e:	f3c2 02c1 	ubfx	r2, r2, #3, #2
 8003352:	4b48      	ldr	r3, [pc, #288]	; (8003474 <HAL_RCC_GetSysClockFreq+0x1dc>)
 8003354:	40d3      	lsrs	r3, r2
              pllvco = ((float_t)hsivalue / (float_t)pllm) * ((float_t)(uint32_t)(RCC->PLL1DIVR & RCC_PLL1DIVR_N1) + (fracn1 / (float_t)0x2000) + (float_t)1);
 8003356:	ee07 3a10 	vmov	s14, r3
 800335a:	eef8 6a47 	vcvt.f32.u32	s13, s14
 800335e:	ee07 0a10 	vmov	s14, r0
 8003362:	eeb8 6a47 	vcvt.f32.u32	s12, s14
 8003366:	ee86 7a86 	vdiv.f32	s14, s13, s12
 800336a:	6b0b      	ldr	r3, [r1, #48]	; 0x30
 800336c:	f3c3 0308 	ubfx	r3, r3, #0, #9
 8003370:	ee06 3a90 	vmov	s13, r3
 8003374:	eef8 6a66 	vcvt.f32.u32	s13, s13
 8003378:	ed9f 6a40 	vldr	s12, [pc, #256]	; 800347c <HAL_RCC_GetSysClockFreq+0x1e4>
 800337c:	ee67 7a86 	vmul.f32	s15, s15, s12
 8003380:	ee76 7aa7 	vadd.f32	s15, s13, s15
 8003384:	eef7 6a00 	vmov.f32	s13, #112	; 0x3f800000  1.0
 8003388:	ee77 7aa6 	vadd.f32	s15, s15, s13
 800338c:	ee27 7a27 	vmul.f32	s14, s14, s15
 8003390:	e038      	b.n	8003404 <HAL_RCC_GetSysClockFreq+0x16c>
              pllvco = ((float_t)HSI_VALUE / (float_t)pllm) * ((float_t)(uint32_t)(RCC->PLL1DIVR & RCC_PLL1DIVR_N1) + (fracn1 / (float_t)0x2000) + (float_t)1);
 8003392:	ee07 0a10 	vmov	s14, r0
 8003396:	eef8 6a47 	vcvt.f32.u32	s13, s14
 800339a:	ed9f 6a39 	vldr	s12, [pc, #228]	; 8003480 <HAL_RCC_GetSysClockFreq+0x1e8>
 800339e:	ee86 7a26 	vdiv.f32	s14, s12, s13
 80033a2:	4b32      	ldr	r3, [pc, #200]	; (800346c <HAL_RCC_GetSysClockFreq+0x1d4>)
 80033a4:	6b1b      	ldr	r3, [r3, #48]	; 0x30
 80033a6:	f3c3 0308 	ubfx	r3, r3, #0, #9
 80033aa:	ee06 3a90 	vmov	s13, r3
 80033ae:	eef8 6a66 	vcvt.f32.u32	s13, s13
 80033b2:	ed9f 6a32 	vldr	s12, [pc, #200]	; 800347c <HAL_RCC_GetSysClockFreq+0x1e4>
 80033b6:	ee67 7a86 	vmul.f32	s15, s15, s12
 80033ba:	ee76 7aa7 	vadd.f32	s15, s13, s15
 80033be:	eef7 6a00 	vmov.f32	s13, #112	; 0x3f800000  1.0
 80033c2:	ee77 7aa6 	vadd.f32	s15, s15, s13
 80033c6:	ee27 7a27 	vmul.f32	s14, s14, s15
 80033ca:	e01b      	b.n	8003404 <HAL_RCC_GetSysClockFreq+0x16c>
            pllvco = ((float_t)CSI_VALUE / (float_t)pllm) * ((float_t)(uint32_t)(RCC->PLL1DIVR & RCC_PLL1DIVR_N1) + (fracn1 / (float_t)0x2000) + (float_t)1);
 80033cc:	ee07 0a10 	vmov	s14, r0
 80033d0:	eef8 6a47 	vcvt.f32.u32	s13, s14
 80033d4:	ed9f 6a28 	vldr	s12, [pc, #160]	; 8003478 <HAL_RCC_GetSysClockFreq+0x1e0>
 80033d8:	ee86 7a26 	vdiv.f32	s14, s12, s13
 80033dc:	4b23      	ldr	r3, [pc, #140]	; (800346c <HAL_RCC_GetSysClockFreq+0x1d4>)
 80033de:	6b1b      	ldr	r3, [r3, #48]	; 0x30
 80033e0:	f3c3 0308 	ubfx	r3, r3, #0, #9
 80033e4:	ee06 3a90 	vmov	s13, r3
 80033e8:	eef8 6a66 	vcvt.f32.u32	s13, s13
 80033ec:	ed9f 6a23 	vldr	s12, [pc, #140]	; 800347c <HAL_RCC_GetSysClockFreq+0x1e4>
 80033f0:	ee67 7a86 	vmul.f32	s15, s15, s12
 80033f4:	ee76 7aa7 	vadd.f32	s15, s13, s15
 80033f8:	eef7 6a00 	vmov.f32	s13, #112	; 0x3f800000  1.0
 80033fc:	ee77 7aa6 	vadd.f32	s15, s15, s13
 8003400:	ee27 7a27 	vmul.f32	s14, s14, s15
        }
        pllp = (((RCC->PLL1DIVR & RCC_PLL1DIVR_P1) >> 9) + 1U) ;
 8003404:	4b19      	ldr	r3, [pc, #100]	; (800346c <HAL_RCC_GetSysClockFreq+0x1d4>)
 8003406:	6b1b      	ldr	r3, [r3, #48]	; 0x30
 8003408:	f3c3 2346 	ubfx	r3, r3, #9, #7
 800340c:	3301      	adds	r3, #1
        sysclockfreq = (uint32_t)(float_t)(pllvco / (float_t)pllp);
 800340e:	ee07 3a90 	vmov	s15, r3
 8003412:	eef8 7a67 	vcvt.f32.u32	s15, s15
 8003416:	eec7 6a27 	vdiv.f32	s13, s14, s15
 800341a:	eefc 7ae6 	vcvt.u32.f32	s15, s13
 800341e:	ee17 0a90 	vmov	r0, s15
      sysclockfreq = CSI_VALUE;
      break;
  }

  return sysclockfreq;
}
 8003422:	f85d 4b04 	ldr.w	r4, [sp], #4
 8003426:	4770      	bx	lr
            pllvco = ((float_t)HSE_VALUE / (float_t)pllm) * ((float_t)(uint32_t)(RCC->PLL1DIVR & RCC_PLL1DIVR_N1) + (fracn1 / (float_t)0x2000) + (float_t)1);
 8003428:	ee07 0a10 	vmov	s14, r0
 800342c:	eef8 6a47 	vcvt.f32.u32	s13, s14
 8003430:	ed9f 6a14 	vldr	s12, [pc, #80]	; 8003484 <HAL_RCC_GetSysClockFreq+0x1ec>
 8003434:	ee86 7a26 	vdiv.f32	s14, s12, s13
 8003438:	4b0c      	ldr	r3, [pc, #48]	; (800346c <HAL_RCC_GetSysClockFreq+0x1d4>)
 800343a:	6b1b      	ldr	r3, [r3, #48]	; 0x30
 800343c:	f3c3 0308 	ubfx	r3, r3, #0, #9
 8003440:	ee06 3a90 	vmov	s13, r3
 8003444:	eef8 6a66 	vcvt.f32.u32	s13, s13
 8003448:	ed9f 6a0c 	vldr	s12, [pc, #48]	; 800347c <HAL_RCC_GetSysClockFreq+0x1e4>
 800344c:	ee67 7a86 	vmul.f32	s15, s15, s12
 8003450:	ee76 7aa7 	vadd.f32	s15, s13, s15
 8003454:	eef7 6a00 	vmov.f32	s13, #112	; 0x3f800000  1.0
 8003458:	ee77 7aa6 	vadd.f32	s15, s15, s13
 800345c:	ee27 7a27 	vmul.f32	s14, s14, s15
            break;
 8003460:	e7d0      	b.n	8003404 <HAL_RCC_GetSysClockFreq+0x16c>
      sysclockfreq = HSE_VALUE;
 8003462:	4809      	ldr	r0, [pc, #36]	; (8003488 <HAL_RCC_GetSysClockFreq+0x1f0>)
 8003464:	4770      	bx	lr
        sysclockfreq = (uint32_t) HSI_VALUE;
 8003466:	4803      	ldr	r0, [pc, #12]	; (8003474 <HAL_RCC_GetSysClockFreq+0x1dc>)
}
 8003468:	4770      	bx	lr
 800346a:	bf00      	nop
 800346c:	58024400 	.word	0x58024400
 8003470:	003d0900 	.word	0x003d0900
 8003474:	03d09000 	.word	0x03d09000
 8003478:	4a742400 	.word	0x4a742400
 800347c:	39000000 	.word	0x39000000
 8003480:	4c742400 	.word	0x4c742400
 8003484:	4b742400 	.word	0x4b742400
 8003488:	00f42400 	.word	0x00f42400

0800348c <HAL_RCC_ClockConfig>:
  if (RCC_ClkInitStruct == NULL)
 800348c:	2800      	cmp	r0, #0
 800348e:	f000 8132 	beq.w	80036f6 <HAL_RCC_ClockConfig+0x26a>
{
 8003492:	b570      	push	{r4, r5, r6, lr}
 8003494:	460d      	mov	r5, r1
 8003496:	4604      	mov	r4, r0
  if (FLatency > __HAL_FLASH_GET_LATENCY())
 8003498:	4b9b      	ldr	r3, [pc, #620]	; (8003708 <HAL_RCC_ClockConfig+0x27c>)
 800349a:	681b      	ldr	r3, [r3, #0]
 800349c:	f003 030f 	and.w	r3, r3, #15
 80034a0:	428b      	cmp	r3, r1
 80034a2:	d20b      	bcs.n	80034bc <HAL_RCC_ClockConfig+0x30>
    __HAL_FLASH_SET_LATENCY(FLatency);
 80034a4:	4a98      	ldr	r2, [pc, #608]	; (8003708 <HAL_RCC_ClockConfig+0x27c>)
 80034a6:	6813      	ldr	r3, [r2, #0]
 80034a8:	f023 030f 	bic.w	r3, r3, #15
 80034ac:	430b      	orrs	r3, r1
 80034ae:	6013      	str	r3, [r2, #0]
    if (__HAL_FLASH_GET_LATENCY() != FLatency)
 80034b0:	6813      	ldr	r3, [r2, #0]
 80034b2:	f003 030f 	and.w	r3, r3, #15
 80034b6:	428b      	cmp	r3, r1
 80034b8:	f040 811f 	bne.w	80036fa <HAL_RCC_ClockConfig+0x26e>
  if (((RCC_ClkInitStruct->ClockType) & RCC_CLOCKTYPE_D1PCLK1) == RCC_CLOCKTYPE_D1PCLK1)
 80034bc:	6823      	ldr	r3, [r4, #0]
 80034be:	f013 0f04 	tst.w	r3, #4
 80034c2:	d00c      	beq.n	80034de <HAL_RCC_ClockConfig+0x52>
    if ((RCC_ClkInitStruct->APB3CLKDivider) > (RCC->D1CFGR & RCC_D1CFGR_D1PPRE))
 80034c4:	6922      	ldr	r2, [r4, #16]
 80034c6:	4b91      	ldr	r3, [pc, #580]	; (800370c <HAL_RCC_ClockConfig+0x280>)
 80034c8:	699b      	ldr	r3, [r3, #24]
 80034ca:	f003 0370 	and.w	r3, r3, #112	; 0x70
 80034ce:	429a      	cmp	r2, r3
 80034d0:	d905      	bls.n	80034de <HAL_RCC_ClockConfig+0x52>
      MODIFY_REG(RCC->D1CFGR, RCC_D1CFGR_D1PPRE, RCC_ClkInitStruct->APB3CLKDivider);
 80034d2:	498e      	ldr	r1, [pc, #568]	; (800370c <HAL_RCC_ClockConfig+0x280>)
 80034d4:	698b      	ldr	r3, [r1, #24]
 80034d6:	f023 0370 	bic.w	r3, r3, #112	; 0x70
 80034da:	431a      	orrs	r2, r3
 80034dc:	618a      	str	r2, [r1, #24]
  if (((RCC_ClkInitStruct->ClockType) & RCC_CLOCKTYPE_PCLK1) == RCC_CLOCKTYPE_PCLK1)
 80034de:	6823      	ldr	r3, [r4, #0]
 80034e0:	f013 0f08 	tst.w	r3, #8
 80034e4:	d00c      	beq.n	8003500 <HAL_RCC_ClockConfig+0x74>
    if ((RCC_ClkInitStruct->APB1CLKDivider) > (RCC->D2CFGR & RCC_D2CFGR_D2PPRE1))
 80034e6:	6962      	ldr	r2, [r4, #20]
 80034e8:	4b88      	ldr	r3, [pc, #544]	; (800370c <HAL_RCC_ClockConfig+0x280>)
 80034ea:	69db      	ldr	r3, [r3, #28]
 80034ec:	f003 0370 	and.w	r3, r3, #112	; 0x70
 80034f0:	429a      	cmp	r2, r3
 80034f2:	d905      	bls.n	8003500 <HAL_RCC_ClockConfig+0x74>
      MODIFY_REG(RCC->D2CFGR, RCC_D2CFGR_D2PPRE1, (RCC_ClkInitStruct->APB1CLKDivider));
 80034f4:	4985      	ldr	r1, [pc, #532]	; (800370c <HAL_RCC_ClockConfig+0x280>)
 80034f6:	69cb      	ldr	r3, [r1, #28]
 80034f8:	f023 0370 	bic.w	r3, r3, #112	; 0x70
 80034fc:	431a      	orrs	r2, r3
 80034fe:	61ca      	str	r2, [r1, #28]
  if (((RCC_ClkInitStruct->ClockType) & RCC_CLOCKTYPE_PCLK2) == RCC_CLOCKTYPE_PCLK2)
 8003500:	6823      	ldr	r3, [r4, #0]
 8003502:	f013 0f10 	tst.w	r3, #16
 8003506:	d00c      	beq.n	8003522 <HAL_RCC_ClockConfig+0x96>
    if ((RCC_ClkInitStruct->APB2CLKDivider) > (RCC->D2CFGR & RCC_D2CFGR_D2PPRE2))
 8003508:	69a2      	ldr	r2, [r4, #24]
 800350a:	4b80      	ldr	r3, [pc, #512]	; (800370c <HAL_RCC_ClockConfig+0x280>)
 800350c:	69db      	ldr	r3, [r3, #28]
 800350e:	f403 63e0 	and.w	r3, r3, #1792	; 0x700
 8003512:	429a      	cmp	r2, r3
 8003514:	d905      	bls.n	8003522 <HAL_RCC_ClockConfig+0x96>
      MODIFY_REG(RCC->D2CFGR, RCC_D2CFGR_D2PPRE2, (RCC_ClkInitStruct->APB2CLKDivider));
 8003516:	497d      	ldr	r1, [pc, #500]	; (800370c <HAL_RCC_ClockConfig+0x280>)
 8003518:	69cb      	ldr	r3, [r1, #28]
 800351a:	f423 63e0 	bic.w	r3, r3, #1792	; 0x700
 800351e:	431a      	orrs	r2, r3
 8003520:	61ca      	str	r2, [r1, #28]
  if (((RCC_ClkInitStruct->ClockType) & RCC_CLOCKTYPE_D3PCLK1) == RCC_CLOCKTYPE_D3PCLK1)
 8003522:	6823      	ldr	r3, [r4, #0]
 8003524:	f013 0f20 	tst.w	r3, #32
 8003528:	d00c      	beq.n	8003544 <HAL_RCC_ClockConfig+0xb8>
    if ((RCC_ClkInitStruct->APB4CLKDivider) > (RCC->D3CFGR & RCC_D3CFGR_D3PPRE))
 800352a:	69e2      	ldr	r2, [r4, #28]
 800352c:	4b77      	ldr	r3, [pc, #476]	; (800370c <HAL_RCC_ClockConfig+0x280>)
 800352e:	6a1b      	ldr	r3, [r3, #32]
 8003530:	f003 0370 	and.w	r3, r3, #112	; 0x70
 8003534:	429a      	cmp	r2, r3
 8003536:	d905      	bls.n	8003544 <HAL_RCC_ClockConfig+0xb8>
      MODIFY_REG(RCC->D3CFGR, RCC_D3CFGR_D3PPRE, (RCC_ClkInitStruct->APB4CLKDivider));
 8003538:	4974      	ldr	r1, [pc, #464]	; (800370c <HAL_RCC_ClockConfig+0x280>)
 800353a:	6a0b      	ldr	r3, [r1, #32]
 800353c:	f023 0370 	bic.w	r3, r3, #112	; 0x70
 8003540:	431a      	orrs	r2, r3
 8003542:	620a      	str	r2, [r1, #32]
  if (((RCC_ClkInitStruct->ClockType) & RCC_CLOCKTYPE_HCLK) == RCC_CLOCKTYPE_HCLK)
 8003544:	6823      	ldr	r3, [r4, #0]
 8003546:	f013 0f02 	tst.w	r3, #2
 800354a:	d00c      	beq.n	8003566 <HAL_RCC_ClockConfig+0xda>
    if ((RCC_ClkInitStruct->AHBCLKDivider) > (RCC->D1CFGR & RCC_D1CFGR_HPRE))
 800354c:	68e2      	ldr	r2, [r4, #12]
 800354e:	4b6f      	ldr	r3, [pc, #444]	; (800370c <HAL_RCC_ClockConfig+0x280>)
 8003550:	699b      	ldr	r3, [r3, #24]
 8003552:	f003 030f 	and.w	r3, r3, #15
 8003556:	429a      	cmp	r2, r3
 8003558:	d905      	bls.n	8003566 <HAL_RCC_ClockConfig+0xda>
      MODIFY_REG(RCC->D1CFGR, RCC_D1CFGR_HPRE, RCC_ClkInitStruct->AHBCLKDivider);
 800355a:	496c      	ldr	r1, [pc, #432]	; (800370c <HAL_RCC_ClockConfig+0x280>)
 800355c:	698b      	ldr	r3, [r1, #24]
 800355e:	f023 030f 	bic.w	r3, r3, #15
 8003562:	431a      	orrs	r2, r3
 8003564:	618a      	str	r2, [r1, #24]
  if (((RCC_ClkInitStruct->ClockType) & RCC_CLOCKTYPE_SYSCLK) == RCC_CLOCKTYPE_SYSCLK)
 8003566:	6823      	ldr	r3, [r4, #0]
 8003568:	f013 0f01 	tst.w	r3, #1
 800356c:	d041      	beq.n	80035f2 <HAL_RCC_ClockConfig+0x166>
    MODIFY_REG(RCC->D1CFGR, RCC_D1CFGR_D1CPRE, RCC_ClkInitStruct->SYSCLKDivider);
 800356e:	4a67      	ldr	r2, [pc, #412]	; (800370c <HAL_RCC_ClockConfig+0x280>)
 8003570:	6993      	ldr	r3, [r2, #24]
 8003572:	f423 6370 	bic.w	r3, r3, #3840	; 0xf00
 8003576:	68a1      	ldr	r1, [r4, #8]
 8003578:	430b      	orrs	r3, r1
 800357a:	6193      	str	r3, [r2, #24]
    if (RCC_ClkInitStruct->SYSCLKSource == RCC_SYSCLKSOURCE_HSE)
 800357c:	6863      	ldr	r3, [r4, #4]
 800357e:	2b02      	cmp	r3, #2
 8003580:	d00a      	beq.n	8003598 <HAL_RCC_ClockConfig+0x10c>
    else if (RCC_ClkInitStruct->SYSCLKSource == RCC_SYSCLKSOURCE_PLLCLK)
 8003582:	2b03      	cmp	r3, #3
 8003584:	d027      	beq.n	80035d6 <HAL_RCC_ClockConfig+0x14a>
    else if (RCC_ClkInitStruct->SYSCLKSource == RCC_SYSCLKSOURCE_CSI)
 8003586:	2b01      	cmp	r3, #1
 8003588:	d02c      	beq.n	80035e4 <HAL_RCC_ClockConfig+0x158>
      if (__HAL_RCC_GET_FLAG(RCC_FLAG_HSIRDY) == 0U)
 800358a:	4a60      	ldr	r2, [pc, #384]	; (800370c <HAL_RCC_ClockConfig+0x280>)
 800358c:	6812      	ldr	r2, [r2, #0]
 800358e:	f012 0f04 	tst.w	r2, #4
 8003592:	d106      	bne.n	80035a2 <HAL_RCC_ClockConfig+0x116>
        return HAL_ERROR;
 8003594:	2001      	movs	r0, #1
 8003596:	e0ad      	b.n	80036f4 <HAL_RCC_ClockConfig+0x268>
      if (__HAL_RCC_GET_FLAG(RCC_FLAG_HSERDY) == 0U)
 8003598:	6812      	ldr	r2, [r2, #0]
 800359a:	f412 3f00 	tst.w	r2, #131072	; 0x20000
 800359e:	f000 80ae 	beq.w	80036fe <HAL_RCC_ClockConfig+0x272>
    MODIFY_REG(RCC->CFGR, RCC_CFGR_SW, RCC_ClkInitStruct->SYSCLKSource);
 80035a2:	495a      	ldr	r1, [pc, #360]	; (800370c <HAL_RCC_ClockConfig+0x280>)
 80035a4:	690a      	ldr	r2, [r1, #16]
 80035a6:	f022 0207 	bic.w	r2, r2, #7
 80035aa:	4313      	orrs	r3, r2
 80035ac:	610b      	str	r3, [r1, #16]
    tickstart = HAL_GetTick();
 80035ae:	f7fe f889 	bl	80016c4 <HAL_GetTick>
 80035b2:	4606      	mov	r6, r0
    while (__HAL_RCC_GET_SYSCLK_SOURCE() != (RCC_ClkInitStruct->SYSCLKSource << RCC_CFGR_SWS_Pos))
 80035b4:	4b55      	ldr	r3, [pc, #340]	; (800370c <HAL_RCC_ClockConfig+0x280>)
 80035b6:	691b      	ldr	r3, [r3, #16]
 80035b8:	f003 0338 	and.w	r3, r3, #56	; 0x38
 80035bc:	6862      	ldr	r2, [r4, #4]
 80035be:	ebb3 0fc2 	cmp.w	r3, r2, lsl #3
 80035c2:	d016      	beq.n	80035f2 <HAL_RCC_ClockConfig+0x166>
      if ((HAL_GetTick() - tickstart) > CLOCKSWITCH_TIMEOUT_VALUE)
 80035c4:	f7fe f87e 	bl	80016c4 <HAL_GetTick>
 80035c8:	1b80      	subs	r0, r0, r6
 80035ca:	f241 3388 	movw	r3, #5000	; 0x1388
 80035ce:	4298      	cmp	r0, r3
 80035d0:	d9f0      	bls.n	80035b4 <HAL_RCC_ClockConfig+0x128>
        return HAL_TIMEOUT;
 80035d2:	2003      	movs	r0, #3
 80035d4:	e08e      	b.n	80036f4 <HAL_RCC_ClockConfig+0x268>
      if (__HAL_RCC_GET_FLAG(RCC_FLAG_PLLRDY) == 0U)
 80035d6:	4a4d      	ldr	r2, [pc, #308]	; (800370c <HAL_RCC_ClockConfig+0x280>)
 80035d8:	6812      	ldr	r2, [r2, #0]
 80035da:	f012 7f00 	tst.w	r2, #33554432	; 0x2000000
 80035de:	d1e0      	bne.n	80035a2 <HAL_RCC_ClockConfig+0x116>
        return HAL_ERROR;
 80035e0:	2001      	movs	r0, #1
 80035e2:	e087      	b.n	80036f4 <HAL_RCC_ClockConfig+0x268>
      if (__HAL_RCC_GET_FLAG(RCC_FLAG_CSIRDY) == 0U)
 80035e4:	4a49      	ldr	r2, [pc, #292]	; (800370c <HAL_RCC_ClockConfig+0x280>)
 80035e6:	6812      	ldr	r2, [r2, #0]
 80035e8:	f412 7f80 	tst.w	r2, #256	; 0x100
 80035ec:	d1d9      	bne.n	80035a2 <HAL_RCC_ClockConfig+0x116>
        return HAL_ERROR;
 80035ee:	2001      	movs	r0, #1
 80035f0:	e080      	b.n	80036f4 <HAL_RCC_ClockConfig+0x268>
  if (((RCC_ClkInitStruct->ClockType) & RCC_CLOCKTYPE_HCLK) == RCC_CLOCKTYPE_HCLK)
 80035f2:	6823      	ldr	r3, [r4, #0]
 80035f4:	f013 0f02 	tst.w	r3, #2
 80035f8:	d00c      	beq.n	8003614 <HAL_RCC_ClockConfig+0x188>
    if ((RCC_ClkInitStruct->AHBCLKDivider) < (RCC->D1CFGR & RCC_D1CFGR_HPRE))
 80035fa:	68e2      	ldr	r2, [r4, #12]
 80035fc:	4b43      	ldr	r3, [pc, #268]	; (800370c <HAL_RCC_ClockConfig+0x280>)
 80035fe:	699b      	ldr	r3, [r3, #24]
 8003600:	f003 030f 	and.w	r3, r3, #15
 8003604:	429a      	cmp	r2, r3
 8003606:	d205      	bcs.n	8003614 <HAL_RCC_ClockConfig+0x188>
      MODIFY_REG(RCC->D1CFGR, RCC_D1CFGR_HPRE, RCC_ClkInitStruct->AHBCLKDivider);
 8003608:	4940      	ldr	r1, [pc, #256]	; (800370c <HAL_RCC_ClockConfig+0x280>)
 800360a:	698b      	ldr	r3, [r1, #24]
 800360c:	f023 030f 	bic.w	r3, r3, #15
 8003610:	431a      	orrs	r2, r3
 8003612:	618a      	str	r2, [r1, #24]
  if (FLatency < __HAL_FLASH_GET_LATENCY())
 8003614:	4b3c      	ldr	r3, [pc, #240]	; (8003708 <HAL_RCC_ClockConfig+0x27c>)
 8003616:	681b      	ldr	r3, [r3, #0]
 8003618:	f003 030f 	and.w	r3, r3, #15
 800361c:	42ab      	cmp	r3, r5
 800361e:	d90a      	bls.n	8003636 <HAL_RCC_ClockConfig+0x1aa>
    __HAL_FLASH_SET_LATENCY(FLatency);
 8003620:	4a39      	ldr	r2, [pc, #228]	; (8003708 <HAL_RCC_ClockConfig+0x27c>)
 8003622:	6813      	ldr	r3, [r2, #0]
 8003624:	f023 030f 	bic.w	r3, r3, #15
 8003628:	432b      	orrs	r3, r5
 800362a:	6013      	str	r3, [r2, #0]
    if (__HAL_FLASH_GET_LATENCY() != FLatency)
 800362c:	6813      	ldr	r3, [r2, #0]
 800362e:	f003 030f 	and.w	r3, r3, #15
 8003632:	42ab      	cmp	r3, r5
 8003634:	d165      	bne.n	8003702 <HAL_RCC_ClockConfig+0x276>
  if (((RCC_ClkInitStruct->ClockType) & RCC_CLOCKTYPE_D1PCLK1) == RCC_CLOCKTYPE_D1PCLK1)
 8003636:	6823      	ldr	r3, [r4, #0]
 8003638:	f013 0f04 	tst.w	r3, #4
 800363c:	d00c      	beq.n	8003658 <HAL_RCC_ClockConfig+0x1cc>
    if ((RCC_ClkInitStruct->APB3CLKDivider) < (RCC->D1CFGR & RCC_D1CFGR_D1PPRE))
 800363e:	6922      	ldr	r2, [r4, #16]
 8003640:	4b32      	ldr	r3, [pc, #200]	; (800370c <HAL_RCC_ClockConfig+0x280>)
 8003642:	699b      	ldr	r3, [r3, #24]
 8003644:	f003 0370 	and.w	r3, r3, #112	; 0x70
 8003648:	429a      	cmp	r2, r3
 800364a:	d205      	bcs.n	8003658 <HAL_RCC_ClockConfig+0x1cc>
      MODIFY_REG(RCC->D1CFGR, RCC_D1CFGR_D1PPRE, RCC_ClkInitStruct->APB3CLKDivider);
 800364c:	492f      	ldr	r1, [pc, #188]	; (800370c <HAL_RCC_ClockConfig+0x280>)
 800364e:	698b      	ldr	r3, [r1, #24]
 8003650:	f023 0370 	bic.w	r3, r3, #112	; 0x70
 8003654:	431a      	orrs	r2, r3
 8003656:	618a      	str	r2, [r1, #24]
  if (((RCC_ClkInitStruct->ClockType) & RCC_CLOCKTYPE_PCLK1) == RCC_CLOCKTYPE_PCLK1)
 8003658:	6823      	ldr	r3, [r4, #0]
 800365a:	f013 0f08 	tst.w	r3, #8
 800365e:	d00c      	beq.n	800367a <HAL_RCC_ClockConfig+0x1ee>
    if ((RCC_ClkInitStruct->APB1CLKDivider) < (RCC->D2CFGR & RCC_D2CFGR_D2PPRE1))
 8003660:	6962      	ldr	r2, [r4, #20]
 8003662:	4b2a      	ldr	r3, [pc, #168]	; (800370c <HAL_RCC_ClockConfig+0x280>)
 8003664:	69db      	ldr	r3, [r3, #28]
 8003666:	f003 0370 	and.w	r3, r3, #112	; 0x70
 800366a:	429a      	cmp	r2, r3
 800366c:	d205      	bcs.n	800367a <HAL_RCC_ClockConfig+0x1ee>
      MODIFY_REG(RCC->D2CFGR, RCC_D2CFGR_D2PPRE1, (RCC_ClkInitStruct->APB1CLKDivider));
 800366e:	4927      	ldr	r1, [pc, #156]	; (800370c <HAL_RCC_ClockConfig+0x280>)
 8003670:	69cb      	ldr	r3, [r1, #28]
 8003672:	f023 0370 	bic.w	r3, r3, #112	; 0x70
 8003676:	431a      	orrs	r2, r3
 8003678:	61ca      	str	r2, [r1, #28]
  if (((RCC_ClkInitStruct->ClockType) & RCC_CLOCKTYPE_PCLK2) == RCC_CLOCKTYPE_PCLK2)
 800367a:	6823      	ldr	r3, [r4, #0]
 800367c:	f013 0f10 	tst.w	r3, #16
 8003680:	d00c      	beq.n	800369c <HAL_RCC_ClockConfig+0x210>
    if ((RCC_ClkInitStruct->APB2CLKDivider) < (RCC->D2CFGR & RCC_D2CFGR_D2PPRE2))
 8003682:	69a2      	ldr	r2, [r4, #24]
 8003684:	4b21      	ldr	r3, [pc, #132]	; (800370c <HAL_RCC_ClockConfig+0x280>)
 8003686:	69db      	ldr	r3, [r3, #28]
 8003688:	f403 63e0 	and.w	r3, r3, #1792	; 0x700
 800368c:	429a      	cmp	r2, r3
 800368e:	d205      	bcs.n	800369c <HAL_RCC_ClockConfig+0x210>
      MODIFY_REG(RCC->D2CFGR, RCC_D2CFGR_D2PPRE2, (RCC_ClkInitStruct->APB2CLKDivider));
 8003690:	491e      	ldr	r1, [pc, #120]	; (800370c <HAL_RCC_ClockConfig+0x280>)
 8003692:	69cb      	ldr	r3, [r1, #28]
 8003694:	f423 63e0 	bic.w	r3, r3, #1792	; 0x700
 8003698:	431a      	orrs	r2, r3
 800369a:	61ca      	str	r2, [r1, #28]
  if (((RCC_ClkInitStruct->ClockType) & RCC_CLOCKTYPE_D3PCLK1) == RCC_CLOCKTYPE_D3PCLK1)
 800369c:	6823      	ldr	r3, [r4, #0]
 800369e:	f013 0f20 	tst.w	r3, #32
 80036a2:	d00c      	beq.n	80036be <HAL_RCC_ClockConfig+0x232>
    if ((RCC_ClkInitStruct->APB4CLKDivider) < (RCC->D3CFGR & RCC_D3CFGR_D3PPRE))
 80036a4:	69e2      	ldr	r2, [r4, #28]
 80036a6:	4b19      	ldr	r3, [pc, #100]	; (800370c <HAL_RCC_ClockConfig+0x280>)
 80036a8:	6a1b      	ldr	r3, [r3, #32]
 80036aa:	f003 0370 	and.w	r3, r3, #112	; 0x70
 80036ae:	429a      	cmp	r2, r3
 80036b0:	d205      	bcs.n	80036be <HAL_RCC_ClockConfig+0x232>
      MODIFY_REG(RCC->D3CFGR, RCC_D3CFGR_D3PPRE, (RCC_ClkInitStruct->APB4CLKDivider));
 80036b2:	4916      	ldr	r1, [pc, #88]	; (800370c <HAL_RCC_ClockConfig+0x280>)
 80036b4:	6a0b      	ldr	r3, [r1, #32]
 80036b6:	f023 0370 	bic.w	r3, r3, #112	; 0x70
 80036ba:	431a      	orrs	r2, r3
 80036bc:	620a      	str	r2, [r1, #32]
  common_system_clock = HAL_RCC_GetSysClockFreq() >> ((D1CorePrescTable[(RCC->D1CFGR & RCC_D1CFGR_D1CPRE) >> RCC_D1CFGR_D1CPRE_Pos]) & 0x1FU);
 80036be:	f7ff fdeb 	bl	8003298 <HAL_RCC_GetSysClockFreq>
 80036c2:	4912      	ldr	r1, [pc, #72]	; (800370c <HAL_RCC_ClockConfig+0x280>)
 80036c4:	698b      	ldr	r3, [r1, #24]
 80036c6:	f3c3 2303 	ubfx	r3, r3, #8, #4
 80036ca:	4a11      	ldr	r2, [pc, #68]	; (8003710 <HAL_RCC_ClockConfig+0x284>)
 80036cc:	5cd3      	ldrb	r3, [r2, r3]
 80036ce:	f003 031f 	and.w	r3, r3, #31
 80036d2:	40d8      	lsrs	r0, r3
  SystemD2Clock = (common_system_clock >> ((D1CorePrescTable[(RCC->D1CFGR & RCC_D1CFGR_HPRE) >> RCC_D1CFGR_HPRE_Pos]) & 0x1FU));
 80036d4:	698b      	ldr	r3, [r1, #24]
 80036d6:	f003 030f 	and.w	r3, r3, #15
 80036da:	5cd3      	ldrb	r3, [r2, r3]
 80036dc:	f003 031f 	and.w	r3, r3, #31
 80036e0:	fa20 f303 	lsr.w	r3, r0, r3
 80036e4:	4a0b      	ldr	r2, [pc, #44]	; (8003714 <HAL_RCC_ClockConfig+0x288>)
 80036e6:	6013      	str	r3, [r2, #0]
  SystemCoreClock = common_system_clock;
 80036e8:	4b0b      	ldr	r3, [pc, #44]	; (8003718 <HAL_RCC_ClockConfig+0x28c>)
 80036ea:	6018      	str	r0, [r3, #0]
  halstatus = HAL_InitTick(uwTickPrio);
 80036ec:	4b0b      	ldr	r3, [pc, #44]	; (800371c <HAL_RCC_ClockConfig+0x290>)
 80036ee:	6818      	ldr	r0, [r3, #0]
 80036f0:	f7fd ff86 	bl	8001600 <HAL_InitTick>
}
 80036f4:	bd70      	pop	{r4, r5, r6, pc}
    return HAL_ERROR;
 80036f6:	2001      	movs	r0, #1
}
 80036f8:	4770      	bx	lr
      return HAL_ERROR;
 80036fa:	2001      	movs	r0, #1
 80036fc:	e7fa      	b.n	80036f4 <HAL_RCC_ClockConfig+0x268>
        return HAL_ERROR;
 80036fe:	2001      	movs	r0, #1
 8003700:	e7f8      	b.n	80036f4 <HAL_RCC_ClockConfig+0x268>
      return HAL_ERROR;
 8003702:	2001      	movs	r0, #1
 8003704:	e7f6      	b.n	80036f4 <HAL_RCC_ClockConfig+0x268>
 8003706:	bf00      	nop
 8003708:	52002000 	.word	0x52002000
 800370c:	58024400 	.word	0x58024400
 8003710:	08008aac 	.word	0x08008aac
 8003714:	20000008 	.word	0x20000008
 8003718:	20000004 	.word	0x20000004
 800371c:	20000010 	.word	0x20000010

08003720 <HAL_RCC_GetHCLKFreq>:
  * @note   The SystemD2Clock CMSIS variable is used to store System domain2 Clock Frequency
  *         and updated within this function
  * @retval HCLK frequency
  */
uint32_t HAL_RCC_GetHCLKFreq(void)
{
 8003720:	b508      	push	{r3, lr}
  uint32_t common_system_clock;

#if defined(RCC_D1CFGR_D1CPRE)
  common_system_clock = HAL_RCC_GetSysClockFreq() >> (D1CorePrescTable[(RCC->D1CFGR & RCC_D1CFGR_D1CPRE) >> RCC_D1CFGR_D1CPRE_Pos] & 0x1FU);
 8003722:	f7ff fdb9 	bl	8003298 <HAL_RCC_GetSysClockFreq>
 8003726:	4a0b      	ldr	r2, [pc, #44]	; (8003754 <HAL_RCC_GetHCLKFreq+0x34>)
 8003728:	6993      	ldr	r3, [r2, #24]
 800372a:	f3c3 2303 	ubfx	r3, r3, #8, #4
 800372e:	490a      	ldr	r1, [pc, #40]	; (8003758 <HAL_RCC_GetHCLKFreq+0x38>)
 8003730:	5ccb      	ldrb	r3, [r1, r3]
 8003732:	f003 031f 	and.w	r3, r3, #31
 8003736:	fa20 f303 	lsr.w	r3, r0, r3
#else
  common_system_clock = HAL_RCC_GetSysClockFreq() >> (D1CorePrescTable[(RCC->CDCFGR1 & RCC_CDCFGR1_CDCPRE) >> RCC_CDCFGR1_CDCPRE_Pos] & 0x1FU);
#endif

#if defined(RCC_D1CFGR_HPRE)
  SystemD2Clock = (common_system_clock >> ((D1CorePrescTable[(RCC->D1CFGR & RCC_D1CFGR_HPRE) >> RCC_D1CFGR_HPRE_Pos]) & 0x1FU));
 800373a:	6992      	ldr	r2, [r2, #24]
 800373c:	f002 020f 	and.w	r2, r2, #15
 8003740:	5c88      	ldrb	r0, [r1, r2]
 8003742:	f000 001f 	and.w	r0, r0, #31
 8003746:	fa23 f000 	lsr.w	r0, r3, r0
 800374a:	4a04      	ldr	r2, [pc, #16]	; (800375c <HAL_RCC_GetHCLKFreq+0x3c>)
 800374c:	6010      	str	r0, [r2, #0]
#endif

#if defined(DUAL_CORE) && defined(CORE_CM4)
  SystemCoreClock = SystemD2Clock;
#else
  SystemCoreClock = common_system_clock;
 800374e:	4a04      	ldr	r2, [pc, #16]	; (8003760 <HAL_RCC_GetHCLKFreq+0x40>)
 8003750:	6013      	str	r3, [r2, #0]
#endif /* DUAL_CORE && CORE_CM4 */

  return SystemD2Clock;
}
 8003752:	bd08      	pop	{r3, pc}
 8003754:	58024400 	.word	0x58024400
 8003758:	08008aac 	.word	0x08008aac
 800375c:	20000008 	.word	0x20000008
 8003760:	20000004 	.word	0x20000004

08003764 <HAL_RCC_GetPCLK1Freq>:
  * @note   Each time PCLK1 changes, this function must be called to update the
  *         right PCLK1 value. Otherwise, any configuration based on this function will be incorrect.
  * @retval PCLK1 frequency
  */
uint32_t HAL_RCC_GetPCLK1Freq(void)
{
 8003764:	b508      	push	{r3, lr}
#if defined (RCC_D2CFGR_D2PPRE1)
  /* Get HCLK source and Compute PCLK1 frequency ---------------------------*/
  return (HAL_RCC_GetHCLKFreq() >> ((D1CorePrescTable[(RCC->D2CFGR & RCC_D2CFGR_D2PPRE1) >> RCC_D2CFGR_D2PPRE1_Pos]) & 0x1FU));
 8003766:	f7ff ffdb 	bl	8003720 <HAL_RCC_GetHCLKFreq>
 800376a:	4b05      	ldr	r3, [pc, #20]	; (8003780 <HAL_RCC_GetPCLK1Freq+0x1c>)
 800376c:	69db      	ldr	r3, [r3, #28]
 800376e:	f3c3 1302 	ubfx	r3, r3, #4, #3
 8003772:	4a04      	ldr	r2, [pc, #16]	; (8003784 <HAL_RCC_GetPCLK1Freq+0x20>)
 8003774:	5cd3      	ldrb	r3, [r2, r3]
 8003776:	f003 031f 	and.w	r3, r3, #31
#else
  /* Get HCLK source and Compute PCLK1 frequency ---------------------------*/
  return (HAL_RCC_GetHCLKFreq() >> ((D1CorePrescTable[(RCC->CDCFGR2 & RCC_CDCFGR2_CDPPRE1) >> RCC_CDCFGR2_CDPPRE1_Pos]) & 0x1FU));
#endif
}
 800377a:	40d8      	lsrs	r0, r3
 800377c:	bd08      	pop	{r3, pc}
 800377e:	bf00      	nop
 8003780:	58024400 	.word	0x58024400
 8003784:	08008aac 	.word	0x08008aac

08003788 <RCCEx_PLL2_Config>:
  assert_param(IS_RCC_PLL2RGE_VALUE(pll2->PLL2RGE));
  assert_param(IS_RCC_PLL2VCO_VALUE(pll2->PLL2VCOSEL));
  assert_param(IS_RCC_PLLFRACN_VALUE(pll2->PLL2FRACN));

  /* Check that PLL2 OSC clock source is already set */
  if (__HAL_RCC_GET_PLL_OSCSOURCE() == RCC_PLLSOURCE_NONE)
 8003788:	4b40      	ldr	r3, [pc, #256]	; (800388c <RCCEx_PLL2_Config+0x104>)
 800378a:	6a9b      	ldr	r3, [r3, #40]	; 0x28
 800378c:	f003 0303 	and.w	r3, r3, #3
 8003790:	2b03      	cmp	r3, #3
 8003792:	d079      	beq.n	8003888 <RCCEx_PLL2_Config+0x100>
{
 8003794:	b570      	push	{r4, r5, r6, lr}
 8003796:	4605      	mov	r5, r0
 8003798:	460e      	mov	r6, r1


  else
  {
    /* Disable  PLL2. */
    __HAL_RCC_PLL2_DISABLE();
 800379a:	4a3c      	ldr	r2, [pc, #240]	; (800388c <RCCEx_PLL2_Config+0x104>)
 800379c:	6813      	ldr	r3, [r2, #0]
 800379e:	f023 6380 	bic.w	r3, r3, #67108864	; 0x4000000
 80037a2:	6013      	str	r3, [r2, #0]

    /* Get Start Tick*/
    tickstart = HAL_GetTick();
 80037a4:	f7fd ff8e 	bl	80016c4 <HAL_GetTick>
 80037a8:	4604      	mov	r4, r0

    /* Wait till PLL is disabled */
    while (__HAL_RCC_GET_FLAG(RCC_FLAG_PLL2RDY) != 0U)
 80037aa:	4b38      	ldr	r3, [pc, #224]	; (800388c <RCCEx_PLL2_Config+0x104>)
 80037ac:	681b      	ldr	r3, [r3, #0]
 80037ae:	f013 6f00 	tst.w	r3, #134217728	; 0x8000000
 80037b2:	d006      	beq.n	80037c2 <RCCEx_PLL2_Config+0x3a>
    {
      if ((HAL_GetTick() - tickstart) > PLL2_TIMEOUT_VALUE)
 80037b4:	f7fd ff86 	bl	80016c4 <HAL_GetTick>
 80037b8:	1b03      	subs	r3, r0, r4
 80037ba:	2b02      	cmp	r3, #2
 80037bc:	d9f5      	bls.n	80037aa <RCCEx_PLL2_Config+0x22>
      {
        return HAL_TIMEOUT;
 80037be:	2003      	movs	r0, #3

  }


  return status;
}
 80037c0:	bd70      	pop	{r4, r5, r6, pc}
    __HAL_RCC_PLL2_CONFIG(pll2->PLL2M,
 80037c2:	4b32      	ldr	r3, [pc, #200]	; (800388c <RCCEx_PLL2_Config+0x104>)
 80037c4:	6a9a      	ldr	r2, [r3, #40]	; 0x28
 80037c6:	f422 327c 	bic.w	r2, r2, #258048	; 0x3f000
 80037ca:	6829      	ldr	r1, [r5, #0]
 80037cc:	ea42 3201 	orr.w	r2, r2, r1, lsl #12
 80037d0:	629a      	str	r2, [r3, #40]	; 0x28
 80037d2:	686a      	ldr	r2, [r5, #4]
 80037d4:	3a01      	subs	r2, #1
 80037d6:	f3c2 0208 	ubfx	r2, r2, #0, #9
 80037da:	68a9      	ldr	r1, [r5, #8]
 80037dc:	3901      	subs	r1, #1
 80037de:	0249      	lsls	r1, r1, #9
 80037e0:	b289      	uxth	r1, r1
 80037e2:	430a      	orrs	r2, r1
 80037e4:	68e9      	ldr	r1, [r5, #12]
 80037e6:	3901      	subs	r1, #1
 80037e8:	0409      	lsls	r1, r1, #16
 80037ea:	f401 01fe 	and.w	r1, r1, #8323072	; 0x7f0000
 80037ee:	430a      	orrs	r2, r1
 80037f0:	6929      	ldr	r1, [r5, #16]
 80037f2:	3901      	subs	r1, #1
 80037f4:	0609      	lsls	r1, r1, #24
 80037f6:	f001 41fe 	and.w	r1, r1, #2130706432	; 0x7f000000
 80037fa:	430a      	orrs	r2, r1
 80037fc:	639a      	str	r2, [r3, #56]	; 0x38
    __HAL_RCC_PLL2_VCIRANGE(pll2->PLL2RGE) ;
 80037fe:	6ada      	ldr	r2, [r3, #44]	; 0x2c
 8003800:	f022 02c0 	bic.w	r2, r2, #192	; 0xc0
 8003804:	6969      	ldr	r1, [r5, #20]
 8003806:	430a      	orrs	r2, r1
 8003808:	62da      	str	r2, [r3, #44]	; 0x2c
    __HAL_RCC_PLL2_VCORANGE(pll2->PLL2VCOSEL) ;
 800380a:	6ada      	ldr	r2, [r3, #44]	; 0x2c
 800380c:	f022 0220 	bic.w	r2, r2, #32
 8003810:	69a9      	ldr	r1, [r5, #24]
 8003812:	430a      	orrs	r2, r1
 8003814:	62da      	str	r2, [r3, #44]	; 0x2c
    __HAL_RCC_PLL2FRACN_DISABLE();
 8003816:	6ada      	ldr	r2, [r3, #44]	; 0x2c
 8003818:	f022 0210 	bic.w	r2, r2, #16
 800381c:	62da      	str	r2, [r3, #44]	; 0x2c
    __HAL_RCC_PLL2FRACN_CONFIG(pll2->PLL2FRACN);
 800381e:	6bd9      	ldr	r1, [r3, #60]	; 0x3c
 8003820:	4a1b      	ldr	r2, [pc, #108]	; (8003890 <RCCEx_PLL2_Config+0x108>)
 8003822:	400a      	ands	r2, r1
 8003824:	69e9      	ldr	r1, [r5, #28]
 8003826:	ea42 02c1 	orr.w	r2, r2, r1, lsl #3
 800382a:	63da      	str	r2, [r3, #60]	; 0x3c
    __HAL_RCC_PLL2FRACN_ENABLE();
 800382c:	6ada      	ldr	r2, [r3, #44]	; 0x2c
 800382e:	f042 0210 	orr.w	r2, r2, #16
 8003832:	62da      	str	r2, [r3, #44]	; 0x2c
    if (Divider == DIVIDER_P_UPDATE)
 8003834:	b9c6      	cbnz	r6, 8003868 <RCCEx_PLL2_Config+0xe0>
      __HAL_RCC_PLL2CLKOUT_ENABLE(RCC_PLL2_DIVP);
 8003836:	461a      	mov	r2, r3
 8003838:	6adb      	ldr	r3, [r3, #44]	; 0x2c
 800383a:	f443 2300 	orr.w	r3, r3, #524288	; 0x80000
 800383e:	62d3      	str	r3, [r2, #44]	; 0x2c
    __HAL_RCC_PLL2_ENABLE();
 8003840:	4a12      	ldr	r2, [pc, #72]	; (800388c <RCCEx_PLL2_Config+0x104>)
 8003842:	6813      	ldr	r3, [r2, #0]
 8003844:	f043 6380 	orr.w	r3, r3, #67108864	; 0x4000000
 8003848:	6013      	str	r3, [r2, #0]
    tickstart = HAL_GetTick();
 800384a:	f7fd ff3b 	bl	80016c4 <HAL_GetTick>
 800384e:	4604      	mov	r4, r0
    while (__HAL_RCC_GET_FLAG(RCC_FLAG_PLL2RDY) == 0U)
 8003850:	4b0e      	ldr	r3, [pc, #56]	; (800388c <RCCEx_PLL2_Config+0x104>)
 8003852:	681b      	ldr	r3, [r3, #0]
 8003854:	f013 6f00 	tst.w	r3, #134217728	; 0x8000000
 8003858:	d114      	bne.n	8003884 <RCCEx_PLL2_Config+0xfc>
      if ((HAL_GetTick() - tickstart) > PLL2_TIMEOUT_VALUE)
 800385a:	f7fd ff33 	bl	80016c4 <HAL_GetTick>
 800385e:	1b00      	subs	r0, r0, r4
 8003860:	2802      	cmp	r0, #2
 8003862:	d9f5      	bls.n	8003850 <RCCEx_PLL2_Config+0xc8>
        return HAL_TIMEOUT;
 8003864:	2003      	movs	r0, #3
 8003866:	e7ab      	b.n	80037c0 <RCCEx_PLL2_Config+0x38>
    else if (Divider == DIVIDER_Q_UPDATE)
 8003868:	2e01      	cmp	r6, #1
 800386a:	d005      	beq.n	8003878 <RCCEx_PLL2_Config+0xf0>
      __HAL_RCC_PLL2CLKOUT_ENABLE(RCC_PLL2_DIVR);
 800386c:	4a07      	ldr	r2, [pc, #28]	; (800388c <RCCEx_PLL2_Config+0x104>)
 800386e:	6ad3      	ldr	r3, [r2, #44]	; 0x2c
 8003870:	f443 1300 	orr.w	r3, r3, #2097152	; 0x200000
 8003874:	62d3      	str	r3, [r2, #44]	; 0x2c
 8003876:	e7e3      	b.n	8003840 <RCCEx_PLL2_Config+0xb8>
      __HAL_RCC_PLL2CLKOUT_ENABLE(RCC_PLL2_DIVQ);
 8003878:	4a04      	ldr	r2, [pc, #16]	; (800388c <RCCEx_PLL2_Config+0x104>)
 800387a:	6ad3      	ldr	r3, [r2, #44]	; 0x2c
 800387c:	f443 1380 	orr.w	r3, r3, #1048576	; 0x100000
 8003880:	62d3      	str	r3, [r2, #44]	; 0x2c
 8003882:	e7dd      	b.n	8003840 <RCCEx_PLL2_Config+0xb8>
  return status;
 8003884:	2000      	movs	r0, #0
 8003886:	e79b      	b.n	80037c0 <RCCEx_PLL2_Config+0x38>
    return HAL_ERROR;
 8003888:	2001      	movs	r0, #1
}
 800388a:	4770      	bx	lr
 800388c:	58024400 	.word	0x58024400
 8003890:	ffff0007 	.word	0xffff0007

08003894 <RCCEx_PLL3_Config>:
  assert_param(IS_RCC_PLL3RGE_VALUE(pll3->PLL3RGE));
  assert_param(IS_RCC_PLL3VCO_VALUE(pll3->PLL3VCOSEL));
  assert_param(IS_RCC_PLLFRACN_VALUE(pll3->PLL3FRACN));

  /* Check that PLL3 OSC clock source is already set */
  if (__HAL_RCC_GET_PLL_OSCSOURCE() == RCC_PLLSOURCE_NONE)
 8003894:	4b40      	ldr	r3, [pc, #256]	; (8003998 <RCCEx_PLL3_Config+0x104>)
 8003896:	6a9b      	ldr	r3, [r3, #40]	; 0x28
 8003898:	f003 0303 	and.w	r3, r3, #3
 800389c:	2b03      	cmp	r3, #3
 800389e:	d079      	beq.n	8003994 <RCCEx_PLL3_Config+0x100>
{
 80038a0:	b570      	push	{r4, r5, r6, lr}
 80038a2:	4605      	mov	r5, r0
 80038a4:	460e      	mov	r6, r1


  else
  {
    /* Disable  PLL3. */
    __HAL_RCC_PLL3_DISABLE();
 80038a6:	4a3c      	ldr	r2, [pc, #240]	; (8003998 <RCCEx_PLL3_Config+0x104>)
 80038a8:	6813      	ldr	r3, [r2, #0]
 80038aa:	f023 5380 	bic.w	r3, r3, #268435456	; 0x10000000
 80038ae:	6013      	str	r3, [r2, #0]

    /* Get Start Tick*/
    tickstart = HAL_GetTick();
 80038b0:	f7fd ff08 	bl	80016c4 <HAL_GetTick>
 80038b4:	4604      	mov	r4, r0
    /* Wait till PLL3 is ready */
    while (__HAL_RCC_GET_FLAG(RCC_FLAG_PLL3RDY) != 0U)
 80038b6:	4b38      	ldr	r3, [pc, #224]	; (8003998 <RCCEx_PLL3_Config+0x104>)
 80038b8:	681b      	ldr	r3, [r3, #0]
 80038ba:	f013 5f00 	tst.w	r3, #536870912	; 0x20000000
 80038be:	d006      	beq.n	80038ce <RCCEx_PLL3_Config+0x3a>
    {
      if ((HAL_GetTick() - tickstart) > PLL3_TIMEOUT_VALUE)
 80038c0:	f7fd ff00 	bl	80016c4 <HAL_GetTick>
 80038c4:	1b03      	subs	r3, r0, r4
 80038c6:	2b02      	cmp	r3, #2
 80038c8:	d9f5      	bls.n	80038b6 <RCCEx_PLL3_Config+0x22>
      {
        return HAL_TIMEOUT;
 80038ca:	2003      	movs	r0, #3

  }


  return status;
}
 80038cc:	bd70      	pop	{r4, r5, r6, pc}
    __HAL_RCC_PLL3_CONFIG(pll3->PLL3M,
 80038ce:	4b32      	ldr	r3, [pc, #200]	; (8003998 <RCCEx_PLL3_Config+0x104>)
 80038d0:	6a9a      	ldr	r2, [r3, #40]	; 0x28
 80038d2:	f022 727c 	bic.w	r2, r2, #66060288	; 0x3f00000
 80038d6:	6829      	ldr	r1, [r5, #0]
 80038d8:	ea42 5201 	orr.w	r2, r2, r1, lsl #20
 80038dc:	629a      	str	r2, [r3, #40]	; 0x28
 80038de:	686a      	ldr	r2, [r5, #4]
 80038e0:	3a01      	subs	r2, #1
 80038e2:	f3c2 0208 	ubfx	r2, r2, #0, #9
 80038e6:	68a9      	ldr	r1, [r5, #8]
 80038e8:	3901      	subs	r1, #1
 80038ea:	0249      	lsls	r1, r1, #9
 80038ec:	b289      	uxth	r1, r1
 80038ee:	430a      	orrs	r2, r1
 80038f0:	68e9      	ldr	r1, [r5, #12]
 80038f2:	3901      	subs	r1, #1
 80038f4:	0409      	lsls	r1, r1, #16
 80038f6:	f401 01fe 	and.w	r1, r1, #8323072	; 0x7f0000
 80038fa:	430a      	orrs	r2, r1
 80038fc:	6929      	ldr	r1, [r5, #16]
 80038fe:	3901      	subs	r1, #1
 8003900:	0609      	lsls	r1, r1, #24
 8003902:	f001 41fe 	and.w	r1, r1, #2130706432	; 0x7f000000
 8003906:	430a      	orrs	r2, r1
 8003908:	641a      	str	r2, [r3, #64]	; 0x40
    __HAL_RCC_PLL3_VCIRANGE(pll3->PLL3RGE) ;
 800390a:	6ada      	ldr	r2, [r3, #44]	; 0x2c
 800390c:	f422 6240 	bic.w	r2, r2, #3072	; 0xc00
 8003910:	6969      	ldr	r1, [r5, #20]
 8003912:	430a      	orrs	r2, r1
 8003914:	62da      	str	r2, [r3, #44]	; 0x2c
    __HAL_RCC_PLL3_VCORANGE(pll3->PLL3VCOSEL) ;
 8003916:	6ada      	ldr	r2, [r3, #44]	; 0x2c
 8003918:	f422 7200 	bic.w	r2, r2, #512	; 0x200
 800391c:	69a9      	ldr	r1, [r5, #24]
 800391e:	430a      	orrs	r2, r1
 8003920:	62da      	str	r2, [r3, #44]	; 0x2c
    __HAL_RCC_PLL3FRACN_DISABLE();
 8003922:	6ada      	ldr	r2, [r3, #44]	; 0x2c
 8003924:	f422 7280 	bic.w	r2, r2, #256	; 0x100
 8003928:	62da      	str	r2, [r3, #44]	; 0x2c
    __HAL_RCC_PLL3FRACN_CONFIG(pll3->PLL3FRACN);
 800392a:	6c59      	ldr	r1, [r3, #68]	; 0x44
 800392c:	4a1b      	ldr	r2, [pc, #108]	; (800399c <RCCEx_PLL3_Config+0x108>)
 800392e:	400a      	ands	r2, r1
 8003930:	69e9      	ldr	r1, [r5, #28]
 8003932:	ea42 02c1 	orr.w	r2, r2, r1, lsl #3
 8003936:	645a      	str	r2, [r3, #68]	; 0x44
    __HAL_RCC_PLL3FRACN_ENABLE();
 8003938:	6ada      	ldr	r2, [r3, #44]	; 0x2c
 800393a:	f442 7280 	orr.w	r2, r2, #256	; 0x100
 800393e:	62da      	str	r2, [r3, #44]	; 0x2c
    if (Divider == DIVIDER_P_UPDATE)
 8003940:	b9c6      	cbnz	r6, 8003974 <RCCEx_PLL3_Config+0xe0>
      __HAL_RCC_PLL3CLKOUT_ENABLE(RCC_PLL3_DIVP);
 8003942:	461a      	mov	r2, r3
 8003944:	6adb      	ldr	r3, [r3, #44]	; 0x2c
 8003946:	f443 0380 	orr.w	r3, r3, #4194304	; 0x400000
 800394a:	62d3      	str	r3, [r2, #44]	; 0x2c
    __HAL_RCC_PLL3_ENABLE();
 800394c:	4a12      	ldr	r2, [pc, #72]	; (8003998 <RCCEx_PLL3_Config+0x104>)
 800394e:	6813      	ldr	r3, [r2, #0]
 8003950:	f043 5380 	orr.w	r3, r3, #268435456	; 0x10000000
 8003954:	6013      	str	r3, [r2, #0]
    tickstart = HAL_GetTick();
 8003956:	f7fd feb5 	bl	80016c4 <HAL_GetTick>
 800395a:	4604      	mov	r4, r0
    while (__HAL_RCC_GET_FLAG(RCC_FLAG_PLL3RDY) == 0U)
 800395c:	4b0e      	ldr	r3, [pc, #56]	; (8003998 <RCCEx_PLL3_Config+0x104>)
 800395e:	681b      	ldr	r3, [r3, #0]
 8003960:	f013 5f00 	tst.w	r3, #536870912	; 0x20000000
 8003964:	d114      	bne.n	8003990 <RCCEx_PLL3_Config+0xfc>
      if ((HAL_GetTick() - tickstart) > PLL3_TIMEOUT_VALUE)
 8003966:	f7fd fead 	bl	80016c4 <HAL_GetTick>
 800396a:	1b00      	subs	r0, r0, r4
 800396c:	2802      	cmp	r0, #2
 800396e:	d9f5      	bls.n	800395c <RCCEx_PLL3_Config+0xc8>
        return HAL_TIMEOUT;
 8003970:	2003      	movs	r0, #3
 8003972:	e7ab      	b.n	80038cc <RCCEx_PLL3_Config+0x38>
    else if (Divider == DIVIDER_Q_UPDATE)
 8003974:	2e01      	cmp	r6, #1
 8003976:	d005      	beq.n	8003984 <RCCEx_PLL3_Config+0xf0>
      __HAL_RCC_PLL3CLKOUT_ENABLE(RCC_PLL3_DIVR);
 8003978:	4a07      	ldr	r2, [pc, #28]	; (8003998 <RCCEx_PLL3_Config+0x104>)
 800397a:	6ad3      	ldr	r3, [r2, #44]	; 0x2c
 800397c:	f043 7380 	orr.w	r3, r3, #16777216	; 0x1000000
 8003980:	62d3      	str	r3, [r2, #44]	; 0x2c
 8003982:	e7e3      	b.n	800394c <RCCEx_PLL3_Config+0xb8>
      __HAL_RCC_PLL3CLKOUT_ENABLE(RCC_PLL3_DIVQ);
 8003984:	4a04      	ldr	r2, [pc, #16]	; (8003998 <RCCEx_PLL3_Config+0x104>)
 8003986:	6ad3      	ldr	r3, [r2, #44]	; 0x2c
 8003988:	f443 0300 	orr.w	r3, r3, #8388608	; 0x800000
 800398c:	62d3      	str	r3, [r2, #44]	; 0x2c
 800398e:	e7dd      	b.n	800394c <RCCEx_PLL3_Config+0xb8>
  return status;
 8003990:	2000      	movs	r0, #0
 8003992:	e79b      	b.n	80038cc <RCCEx_PLL3_Config+0x38>
    return HAL_ERROR;
 8003994:	2001      	movs	r0, #1
}
 8003996:	4770      	bx	lr
 8003998:	58024400 	.word	0x58024400
 800399c:	ffff0007 	.word	0xffff0007

080039a0 <HAL_RCCEx_PeriphCLKConfig>:
{
 80039a0:	b5f8      	push	{r3, r4, r5, r6, r7, lr}
 80039a2:	4604      	mov	r4, r0
  if (((PeriphClkInit->PeriphClockSelection) & RCC_PERIPHCLK_SPDIFRX) == RCC_PERIPHCLK_SPDIFRX)
 80039a4:	6803      	ldr	r3, [r0, #0]
 80039a6:	f013 6f00 	tst.w	r3, #134217728	; 0x8000000
 80039aa:	d030      	beq.n	8003a0e <HAL_RCCEx_PeriphCLKConfig+0x6e>
    switch (PeriphClkInit->SpdifrxClockSelection)
 80039ac:	6e83      	ldr	r3, [r0, #104]	; 0x68
 80039ae:	f5b3 1f00 	cmp.w	r3, #2097152	; 0x200000
 80039b2:	d026      	beq.n	8003a02 <HAL_RCCEx_PeriphCLKConfig+0x62>
 80039b4:	d80e      	bhi.n	80039d4 <HAL_RCCEx_PeriphCLKConfig+0x34>
 80039b6:	b1eb      	cbz	r3, 80039f4 <HAL_RCCEx_PeriphCLKConfig+0x54>
 80039b8:	f5b3 1f80 	cmp.w	r3, #1048576	; 0x100000
 80039bc:	d107      	bne.n	80039ce <HAL_RCCEx_PeriphCLKConfig+0x2e>
        ret = RCCEx_PLL2_Config(&(PeriphClkInit->PLL2), DIVIDER_R_UPDATE);
 80039be:	2102      	movs	r1, #2
 80039c0:	3008      	adds	r0, #8
 80039c2:	f7ff fee1 	bl	8003788 <RCCEx_PLL2_Config>
 80039c6:	4605      	mov	r5, r0
    if (ret == HAL_OK)
 80039c8:	b145      	cbz	r5, 80039dc <HAL_RCCEx_PeriphCLKConfig+0x3c>
 80039ca:	462e      	mov	r6, r5
 80039cc:	e021      	b.n	8003a12 <HAL_RCCEx_PeriphCLKConfig+0x72>
    switch (PeriphClkInit->SpdifrxClockSelection)
 80039ce:	2601      	movs	r6, #1
 80039d0:	4635      	mov	r5, r6
 80039d2:	e01e      	b.n	8003a12 <HAL_RCCEx_PeriphCLKConfig+0x72>
 80039d4:	f5b3 1f40 	cmp.w	r3, #3145728	; 0x300000
 80039d8:	d109      	bne.n	80039ee <HAL_RCCEx_PeriphCLKConfig+0x4e>
 80039da:	2500      	movs	r5, #0
      __HAL_RCC_SPDIFRX_CONFIG(PeriphClkInit->SpdifrxClockSelection);
 80039dc:	4a98      	ldr	r2, [pc, #608]	; (8003c40 <HAL_RCCEx_PeriphCLKConfig+0x2a0>)
 80039de:	6d13      	ldr	r3, [r2, #80]	; 0x50
 80039e0:	f423 1340 	bic.w	r3, r3, #3145728	; 0x300000
 80039e4:	6ea1      	ldr	r1, [r4, #104]	; 0x68
 80039e6:	430b      	orrs	r3, r1
 80039e8:	6513      	str	r3, [r2, #80]	; 0x50
  HAL_StatusTypeDef status = HAL_OK;   /* Final status */
 80039ea:	2600      	movs	r6, #0
 80039ec:	e011      	b.n	8003a12 <HAL_RCCEx_PeriphCLKConfig+0x72>
    switch (PeriphClkInit->SpdifrxClockSelection)
 80039ee:	2601      	movs	r6, #1
 80039f0:	4635      	mov	r5, r6
 80039f2:	e00e      	b.n	8003a12 <HAL_RCCEx_PeriphCLKConfig+0x72>
        __HAL_RCC_PLLCLKOUT_ENABLE(RCC_PLL1_DIVQ);
 80039f4:	4a92      	ldr	r2, [pc, #584]	; (8003c40 <HAL_RCCEx_PeriphCLKConfig+0x2a0>)
 80039f6:	6ad3      	ldr	r3, [r2, #44]	; 0x2c
 80039f8:	f443 3300 	orr.w	r3, r3, #131072	; 0x20000
 80039fc:	62d3      	str	r3, [r2, #44]	; 0x2c
  HAL_StatusTypeDef ret = HAL_OK;      /* Intermediate status */
 80039fe:	2500      	movs	r5, #0
 8003a00:	e7ec      	b.n	80039dc <HAL_RCCEx_PeriphCLKConfig+0x3c>
        ret = RCCEx_PLL3_Config(&(PeriphClkInit->PLL3), DIVIDER_R_UPDATE);
 8003a02:	2102      	movs	r1, #2
 8003a04:	3028      	adds	r0, #40	; 0x28
 8003a06:	f7ff ff45 	bl	8003894 <RCCEx_PLL3_Config>
 8003a0a:	4605      	mov	r5, r0
        break;
 8003a0c:	e7dc      	b.n	80039c8 <HAL_RCCEx_PeriphCLKConfig+0x28>
  HAL_StatusTypeDef status = HAL_OK;   /* Final status */
 8003a0e:	2600      	movs	r6, #0
  HAL_StatusTypeDef ret = HAL_OK;      /* Intermediate status */
 8003a10:	4635      	mov	r5, r6
  if (((PeriphClkInit->PeriphClockSelection) & RCC_PERIPHCLK_SAI1) == RCC_PERIPHCLK_SAI1)
 8003a12:	6823      	ldr	r3, [r4, #0]
 8003a14:	f413 7f80 	tst.w	r3, #256	; 0x100
 8003a18:	d014      	beq.n	8003a44 <HAL_RCCEx_PeriphCLKConfig+0xa4>
    switch (PeriphClkInit->Sai1ClockSelection)
 8003a1a:	6da3      	ldr	r3, [r4, #88]	; 0x58
 8003a1c:	2b04      	cmp	r3, #4
 8003a1e:	d832      	bhi.n	8003a86 <HAL_RCCEx_PeriphCLKConfig+0xe6>
 8003a20:	e8df f003 	tbb	[pc, r3]
 8003a24:	082a2303 	.word	0x082a2303
 8003a28:	08          	.byte	0x08
 8003a29:	00          	.byte	0x00
        __HAL_RCC_PLLCLKOUT_ENABLE(RCC_PLL1_DIVQ);
 8003a2a:	4a85      	ldr	r2, [pc, #532]	; (8003c40 <HAL_RCCEx_PeriphCLKConfig+0x2a0>)
 8003a2c:	6ad3      	ldr	r3, [r2, #44]	; 0x2c
 8003a2e:	f443 3300 	orr.w	r3, r3, #131072	; 0x20000
 8003a32:	62d3      	str	r3, [r2, #44]	; 0x2c
    if (ret == HAL_OK)
 8003a34:	bb55      	cbnz	r5, 8003a8c <HAL_RCCEx_PeriphCLKConfig+0xec>
      __HAL_RCC_SAI1_CONFIG(PeriphClkInit->Sai1ClockSelection);
 8003a36:	4a82      	ldr	r2, [pc, #520]	; (8003c40 <HAL_RCCEx_PeriphCLKConfig+0x2a0>)
 8003a38:	6d13      	ldr	r3, [r2, #80]	; 0x50
 8003a3a:	f023 0307 	bic.w	r3, r3, #7
 8003a3e:	6da1      	ldr	r1, [r4, #88]	; 0x58
 8003a40:	430b      	orrs	r3, r1
 8003a42:	6513      	str	r3, [r2, #80]	; 0x50
  if (((PeriphClkInit->PeriphClockSelection) & RCC_PERIPHCLK_SAI23) == RCC_PERIPHCLK_SAI23)
 8003a44:	6823      	ldr	r3, [r4, #0]
 8003a46:	f413 7f00 	tst.w	r3, #512	; 0x200
 8003a4a:	d031      	beq.n	8003ab0 <HAL_RCCEx_PeriphCLKConfig+0x110>
    switch (PeriphClkInit->Sai23ClockSelection)
 8003a4c:	6de3      	ldr	r3, [r4, #92]	; 0x5c
 8003a4e:	2b80      	cmp	r3, #128	; 0x80
 8003a50:	d04c      	beq.n	8003aec <HAL_RCCEx_PeriphCLKConfig+0x14c>
 8003a52:	d820      	bhi.n	8003a96 <HAL_RCCEx_PeriphCLKConfig+0xf6>
 8003a54:	2b00      	cmp	r3, #0
 8003a56:	d043      	beq.n	8003ae0 <HAL_RCCEx_PeriphCLKConfig+0x140>
 8003a58:	2b40      	cmp	r3, #64	; 0x40
 8003a5a:	d119      	bne.n	8003a90 <HAL_RCCEx_PeriphCLKConfig+0xf0>
        ret = RCCEx_PLL2_Config(&(PeriphClkInit->PLL2), DIVIDER_P_UPDATE);
 8003a5c:	2100      	movs	r1, #0
 8003a5e:	f104 0008 	add.w	r0, r4, #8
 8003a62:	f7ff fe91 	bl	8003788 <RCCEx_PLL2_Config>
 8003a66:	4605      	mov	r5, r0
        break;
 8003a68:	e01a      	b.n	8003aa0 <HAL_RCCEx_PeriphCLKConfig+0x100>
        ret = RCCEx_PLL2_Config(&(PeriphClkInit->PLL2), DIVIDER_P_UPDATE);
 8003a6a:	2100      	movs	r1, #0
 8003a6c:	f104 0008 	add.w	r0, r4, #8
 8003a70:	f7ff fe8a 	bl	8003788 <RCCEx_PLL2_Config>
 8003a74:	4605      	mov	r5, r0
        break;
 8003a76:	e7dd      	b.n	8003a34 <HAL_RCCEx_PeriphCLKConfig+0x94>
        ret = RCCEx_PLL3_Config(&(PeriphClkInit->PLL3), DIVIDER_P_UPDATE);
 8003a78:	2100      	movs	r1, #0
 8003a7a:	f104 0028 	add.w	r0, r4, #40	; 0x28
 8003a7e:	f7ff ff09 	bl	8003894 <RCCEx_PLL3_Config>
 8003a82:	4605      	mov	r5, r0
        break;
 8003a84:	e7d6      	b.n	8003a34 <HAL_RCCEx_PeriphCLKConfig+0x94>
    switch (PeriphClkInit->Sai1ClockSelection)
 8003a86:	2601      	movs	r6, #1
 8003a88:	4635      	mov	r5, r6
 8003a8a:	e7db      	b.n	8003a44 <HAL_RCCEx_PeriphCLKConfig+0xa4>
 8003a8c:	462e      	mov	r6, r5
 8003a8e:	e7d9      	b.n	8003a44 <HAL_RCCEx_PeriphCLKConfig+0xa4>
    switch (PeriphClkInit->Sai23ClockSelection)
 8003a90:	2601      	movs	r6, #1
 8003a92:	4635      	mov	r5, r6
 8003a94:	e00c      	b.n	8003ab0 <HAL_RCCEx_PeriphCLKConfig+0x110>
 8003a96:	2bc0      	cmp	r3, #192	; 0xc0
 8003a98:	d002      	beq.n	8003aa0 <HAL_RCCEx_PeriphCLKConfig+0x100>
 8003a9a:	f5b3 7f80 	cmp.w	r3, #256	; 0x100
 8003a9e:	d11c      	bne.n	8003ada <HAL_RCCEx_PeriphCLKConfig+0x13a>
    if (ret == HAL_OK)
 8003aa0:	bb5d      	cbnz	r5, 8003afa <HAL_RCCEx_PeriphCLKConfig+0x15a>
      __HAL_RCC_SAI23_CONFIG(PeriphClkInit->Sai23ClockSelection);
 8003aa2:	4a67      	ldr	r2, [pc, #412]	; (8003c40 <HAL_RCCEx_PeriphCLKConfig+0x2a0>)
 8003aa4:	6d13      	ldr	r3, [r2, #80]	; 0x50
 8003aa6:	f423 73e0 	bic.w	r3, r3, #448	; 0x1c0
 8003aaa:	6de1      	ldr	r1, [r4, #92]	; 0x5c
 8003aac:	430b      	orrs	r3, r1
 8003aae:	6513      	str	r3, [r2, #80]	; 0x50
  if (((PeriphClkInit->PeriphClockSelection) & RCC_PERIPHCLK_SAI4A) == RCC_PERIPHCLK_SAI4A)
 8003ab0:	6823      	ldr	r3, [r4, #0]
 8003ab2:	f413 6f80 	tst.w	r3, #1024	; 0x400
 8003ab6:	d046      	beq.n	8003b46 <HAL_RCCEx_PeriphCLKConfig+0x1a6>
    switch (PeriphClkInit->Sai4AClockSelection)
 8003ab8:	f8d4 30a8 	ldr.w	r3, [r4, #168]	; 0xa8
 8003abc:	f5b3 0f80 	cmp.w	r3, #4194304	; 0x400000
 8003ac0:	d039      	beq.n	8003b36 <HAL_RCCEx_PeriphCLKConfig+0x196>
 8003ac2:	d81f      	bhi.n	8003b04 <HAL_RCCEx_PeriphCLKConfig+0x164>
 8003ac4:	b38b      	cbz	r3, 8003b2a <HAL_RCCEx_PeriphCLKConfig+0x18a>
 8003ac6:	f5b3 1f00 	cmp.w	r3, #2097152	; 0x200000
 8003aca:	d118      	bne.n	8003afe <HAL_RCCEx_PeriphCLKConfig+0x15e>
        ret = RCCEx_PLL2_Config(&(PeriphClkInit->PLL2), DIVIDER_P_UPDATE);
 8003acc:	2100      	movs	r1, #0
 8003ace:	f104 0008 	add.w	r0, r4, #8
 8003ad2:	f7ff fe59 	bl	8003788 <RCCEx_PLL2_Config>
 8003ad6:	4605      	mov	r5, r0
        break;
 8003ad8:	e01a      	b.n	8003b10 <HAL_RCCEx_PeriphCLKConfig+0x170>
    switch (PeriphClkInit->Sai23ClockSelection)
 8003ada:	2601      	movs	r6, #1
 8003adc:	4635      	mov	r5, r6
 8003ade:	e7e7      	b.n	8003ab0 <HAL_RCCEx_PeriphCLKConfig+0x110>
        __HAL_RCC_PLLCLKOUT_ENABLE(RCC_PLL1_DIVQ);
 8003ae0:	4a57      	ldr	r2, [pc, #348]	; (8003c40 <HAL_RCCEx_PeriphCLKConfig+0x2a0>)
 8003ae2:	6ad3      	ldr	r3, [r2, #44]	; 0x2c
 8003ae4:	f443 3300 	orr.w	r3, r3, #131072	; 0x20000
 8003ae8:	62d3      	str	r3, [r2, #44]	; 0x2c
        break;
 8003aea:	e7d9      	b.n	8003aa0 <HAL_RCCEx_PeriphCLKConfig+0x100>
        ret = RCCEx_PLL3_Config(&(PeriphClkInit->PLL3), DIVIDER_P_UPDATE);
 8003aec:	2100      	movs	r1, #0
 8003aee:	f104 0028 	add.w	r0, r4, #40	; 0x28
 8003af2:	f7ff fecf 	bl	8003894 <RCCEx_PLL3_Config>
 8003af6:	4605      	mov	r5, r0
        break;
 8003af8:	e7d2      	b.n	8003aa0 <HAL_RCCEx_PeriphCLKConfig+0x100>
 8003afa:	462e      	mov	r6, r5
 8003afc:	e7d8      	b.n	8003ab0 <HAL_RCCEx_PeriphCLKConfig+0x110>
    switch (PeriphClkInit->Sai4AClockSelection)
 8003afe:	2601      	movs	r6, #1
 8003b00:	4635      	mov	r5, r6
 8003b02:	e020      	b.n	8003b46 <HAL_RCCEx_PeriphCLKConfig+0x1a6>
 8003b04:	f5b3 0fc0 	cmp.w	r3, #6291456	; 0x600000
 8003b08:	d002      	beq.n	8003b10 <HAL_RCCEx_PeriphCLKConfig+0x170>
 8003b0a:	f5b3 0f00 	cmp.w	r3, #8388608	; 0x800000
 8003b0e:	d109      	bne.n	8003b24 <HAL_RCCEx_PeriphCLKConfig+0x184>
    if (ret == HAL_OK)
 8003b10:	b9c5      	cbnz	r5, 8003b44 <HAL_RCCEx_PeriphCLKConfig+0x1a4>
      __HAL_RCC_SAI4A_CONFIG(PeriphClkInit->Sai4AClockSelection);
 8003b12:	4a4b      	ldr	r2, [pc, #300]	; (8003c40 <HAL_RCCEx_PeriphCLKConfig+0x2a0>)
 8003b14:	6d93      	ldr	r3, [r2, #88]	; 0x58
 8003b16:	f423 0360 	bic.w	r3, r3, #14680064	; 0xe00000
 8003b1a:	f8d4 10a8 	ldr.w	r1, [r4, #168]	; 0xa8
 8003b1e:	430b      	orrs	r3, r1
 8003b20:	6593      	str	r3, [r2, #88]	; 0x58
 8003b22:	e010      	b.n	8003b46 <HAL_RCCEx_PeriphCLKConfig+0x1a6>
    switch (PeriphClkInit->Sai4AClockSelection)
 8003b24:	2601      	movs	r6, #1
 8003b26:	4635      	mov	r5, r6
 8003b28:	e00d      	b.n	8003b46 <HAL_RCCEx_PeriphCLKConfig+0x1a6>
        __HAL_RCC_PLLCLKOUT_ENABLE(RCC_PLL1_DIVQ);
 8003b2a:	4a45      	ldr	r2, [pc, #276]	; (8003c40 <HAL_RCCEx_PeriphCLKConfig+0x2a0>)
 8003b2c:	6ad3      	ldr	r3, [r2, #44]	; 0x2c
 8003b2e:	f443 3300 	orr.w	r3, r3, #131072	; 0x20000
 8003b32:	62d3      	str	r3, [r2, #44]	; 0x2c
        break;
 8003b34:	e7ec      	b.n	8003b10 <HAL_RCCEx_PeriphCLKConfig+0x170>
        ret = RCCEx_PLL3_Config(&(PeriphClkInit->PLL3), DIVIDER_P_UPDATE);
 8003b36:	2100      	movs	r1, #0
 8003b38:	f104 0028 	add.w	r0, r4, #40	; 0x28
 8003b3c:	f7ff feaa 	bl	8003894 <RCCEx_PLL3_Config>
 8003b40:	4605      	mov	r5, r0
        break;
 8003b42:	e7e5      	b.n	8003b10 <HAL_RCCEx_PeriphCLKConfig+0x170>
 8003b44:	462e      	mov	r6, r5
  if (((PeriphClkInit->PeriphClockSelection) & RCC_PERIPHCLK_SAI4B) == RCC_PERIPHCLK_SAI4B)
 8003b46:	6823      	ldr	r3, [r4, #0]
 8003b48:	f413 6f00 	tst.w	r3, #2048	; 0x800
 8003b4c:	d024      	beq.n	8003b98 <HAL_RCCEx_PeriphCLKConfig+0x1f8>
    switch (PeriphClkInit->Sai4BClockSelection)
 8003b4e:	f8d4 30ac 	ldr.w	r3, [r4, #172]	; 0xac
 8003b52:	f1b3 7f00 	cmp.w	r3, #33554432	; 0x2000000
 8003b56:	d042      	beq.n	8003bde <HAL_RCCEx_PeriphCLKConfig+0x23e>
 8003b58:	d80e      	bhi.n	8003b78 <HAL_RCCEx_PeriphCLKConfig+0x1d8>
 8003b5a:	2b00      	cmp	r3, #0
 8003b5c:	d039      	beq.n	8003bd2 <HAL_RCCEx_PeriphCLKConfig+0x232>
 8003b5e:	f1b3 7f80 	cmp.w	r3, #16777216	; 0x1000000
 8003b62:	d106      	bne.n	8003b72 <HAL_RCCEx_PeriphCLKConfig+0x1d2>
        ret = RCCEx_PLL2_Config(&(PeriphClkInit->PLL2), DIVIDER_P_UPDATE);
 8003b64:	2100      	movs	r1, #0
 8003b66:	f104 0008 	add.w	r0, r4, #8
 8003b6a:	f7ff fe0d 	bl	8003788 <RCCEx_PLL2_Config>
 8003b6e:	4605      	mov	r5, r0
        break;
 8003b70:	e008      	b.n	8003b84 <HAL_RCCEx_PeriphCLKConfig+0x1e4>
    switch (PeriphClkInit->Sai4BClockSelection)
 8003b72:	2601      	movs	r6, #1
 8003b74:	4635      	mov	r5, r6
 8003b76:	e00f      	b.n	8003b98 <HAL_RCCEx_PeriphCLKConfig+0x1f8>
 8003b78:	f1b3 7f40 	cmp.w	r3, #50331648	; 0x3000000
 8003b7c:	d002      	beq.n	8003b84 <HAL_RCCEx_PeriphCLKConfig+0x1e4>
 8003b7e:	f1b3 6f80 	cmp.w	r3, #67108864	; 0x4000000
 8003b82:	d123      	bne.n	8003bcc <HAL_RCCEx_PeriphCLKConfig+0x22c>
    if (ret == HAL_OK)
 8003b84:	2d00      	cmp	r5, #0
 8003b86:	d131      	bne.n	8003bec <HAL_RCCEx_PeriphCLKConfig+0x24c>
      __HAL_RCC_SAI4B_CONFIG(PeriphClkInit->Sai4BClockSelection);
 8003b88:	4a2d      	ldr	r2, [pc, #180]	; (8003c40 <HAL_RCCEx_PeriphCLKConfig+0x2a0>)
 8003b8a:	6d93      	ldr	r3, [r2, #88]	; 0x58
 8003b8c:	f023 63e0 	bic.w	r3, r3, #117440512	; 0x7000000
 8003b90:	f8d4 10ac 	ldr.w	r1, [r4, #172]	; 0xac
 8003b94:	430b      	orrs	r3, r1
 8003b96:	6593      	str	r3, [r2, #88]	; 0x58
  if (((PeriphClkInit->PeriphClockSelection) & RCC_PERIPHCLK_QSPI) == RCC_PERIPHCLK_QSPI)
 8003b98:	6823      	ldr	r3, [r4, #0]
 8003b9a:	f013 7f00 	tst.w	r3, #33554432	; 0x2000000
 8003b9e:	d02e      	beq.n	8003bfe <HAL_RCCEx_PeriphCLKConfig+0x25e>
    switch (PeriphClkInit->QspiClockSelection)
 8003ba0:	6ce3      	ldr	r3, [r4, #76]	; 0x4c
 8003ba2:	2b20      	cmp	r3, #32
 8003ba4:	d040      	beq.n	8003c28 <HAL_RCCEx_PeriphCLKConfig+0x288>
 8003ba6:	d826      	bhi.n	8003bf6 <HAL_RCCEx_PeriphCLKConfig+0x256>
 8003ba8:	b133      	cbz	r3, 8003bb8 <HAL_RCCEx_PeriphCLKConfig+0x218>
 8003baa:	2b10      	cmp	r3, #16
 8003bac:	d120      	bne.n	8003bf0 <HAL_RCCEx_PeriphCLKConfig+0x250>
        __HAL_RCC_PLLCLKOUT_ENABLE(RCC_PLL1_DIVQ);
 8003bae:	4a24      	ldr	r2, [pc, #144]	; (8003c40 <HAL_RCCEx_PeriphCLKConfig+0x2a0>)
 8003bb0:	6ad3      	ldr	r3, [r2, #44]	; 0x2c
 8003bb2:	f443 3300 	orr.w	r3, r3, #131072	; 0x20000
 8003bb6:	62d3      	str	r3, [r2, #44]	; 0x2c
    if (ret == HAL_OK)
 8003bb8:	2d00      	cmp	r5, #0
 8003bba:	d13c      	bne.n	8003c36 <HAL_RCCEx_PeriphCLKConfig+0x296>
      __HAL_RCC_QSPI_CONFIG(PeriphClkInit->QspiClockSelection);
 8003bbc:	4a20      	ldr	r2, [pc, #128]	; (8003c40 <HAL_RCCEx_PeriphCLKConfig+0x2a0>)
 8003bbe:	6cd3      	ldr	r3, [r2, #76]	; 0x4c
 8003bc0:	f023 0330 	bic.w	r3, r3, #48	; 0x30
 8003bc4:	6ce1      	ldr	r1, [r4, #76]	; 0x4c
 8003bc6:	430b      	orrs	r3, r1
 8003bc8:	64d3      	str	r3, [r2, #76]	; 0x4c
 8003bca:	e018      	b.n	8003bfe <HAL_RCCEx_PeriphCLKConfig+0x25e>
    switch (PeriphClkInit->Sai4BClockSelection)
 8003bcc:	2601      	movs	r6, #1
 8003bce:	4635      	mov	r5, r6
 8003bd0:	e7e2      	b.n	8003b98 <HAL_RCCEx_PeriphCLKConfig+0x1f8>
        __HAL_RCC_PLLCLKOUT_ENABLE(RCC_PLL1_DIVQ);
 8003bd2:	4a1b      	ldr	r2, [pc, #108]	; (8003c40 <HAL_RCCEx_PeriphCLKConfig+0x2a0>)
 8003bd4:	6ad3      	ldr	r3, [r2, #44]	; 0x2c
 8003bd6:	f443 3300 	orr.w	r3, r3, #131072	; 0x20000
 8003bda:	62d3      	str	r3, [r2, #44]	; 0x2c
        break;
 8003bdc:	e7d2      	b.n	8003b84 <HAL_RCCEx_PeriphCLKConfig+0x1e4>
        ret = RCCEx_PLL3_Config(&(PeriphClkInit->PLL3), DIVIDER_P_UPDATE);
 8003bde:	2100      	movs	r1, #0
 8003be0:	f104 0028 	add.w	r0, r4, #40	; 0x28
 8003be4:	f7ff fe56 	bl	8003894 <RCCEx_PLL3_Config>
 8003be8:	4605      	mov	r5, r0
        break;
 8003bea:	e7cb      	b.n	8003b84 <HAL_RCCEx_PeriphCLKConfig+0x1e4>
 8003bec:	462e      	mov	r6, r5
 8003bee:	e7d3      	b.n	8003b98 <HAL_RCCEx_PeriphCLKConfig+0x1f8>
    switch (PeriphClkInit->QspiClockSelection)
 8003bf0:	2601      	movs	r6, #1
 8003bf2:	4635      	mov	r5, r6
 8003bf4:	e003      	b.n	8003bfe <HAL_RCCEx_PeriphCLKConfig+0x25e>
 8003bf6:	2b30      	cmp	r3, #48	; 0x30
 8003bf8:	d0de      	beq.n	8003bb8 <HAL_RCCEx_PeriphCLKConfig+0x218>
 8003bfa:	2601      	movs	r6, #1
 8003bfc:	4635      	mov	r5, r6
  if (((PeriphClkInit->PeriphClockSelection) & RCC_PERIPHCLK_SPI123) == RCC_PERIPHCLK_SPI123)
 8003bfe:	6823      	ldr	r3, [r4, #0]
 8003c00:	f413 5f80 	tst.w	r3, #4096	; 0x1000
 8003c04:	d02d      	beq.n	8003c62 <HAL_RCCEx_PeriphCLKConfig+0x2c2>
    switch (PeriphClkInit->Spi123ClockSelection)
 8003c06:	6e23      	ldr	r3, [r4, #96]	; 0x60
 8003c08:	f5b3 5f00 	cmp.w	r3, #8192	; 0x2000
 8003c0c:	d04f      	beq.n	8003cae <HAL_RCCEx_PeriphCLKConfig+0x30e>
 8003c0e:	d819      	bhi.n	8003c44 <HAL_RCCEx_PeriphCLKConfig+0x2a4>
 8003c10:	2b00      	cmp	r3, #0
 8003c12:	d046      	beq.n	8003ca2 <HAL_RCCEx_PeriphCLKConfig+0x302>
 8003c14:	f5b3 5f80 	cmp.w	r3, #4096	; 0x1000
 8003c18:	d10f      	bne.n	8003c3a <HAL_RCCEx_PeriphCLKConfig+0x29a>
        ret = RCCEx_PLL2_Config(&(PeriphClkInit->PLL2), DIVIDER_P_UPDATE);
 8003c1a:	2100      	movs	r1, #0
 8003c1c:	f104 0008 	add.w	r0, r4, #8
 8003c20:	f7ff fdb2 	bl	8003788 <RCCEx_PLL2_Config>
 8003c24:	4605      	mov	r5, r0
        break;
 8003c26:	e013      	b.n	8003c50 <HAL_RCCEx_PeriphCLKConfig+0x2b0>
        ret = RCCEx_PLL2_Config(&(PeriphClkInit->PLL2), DIVIDER_R_UPDATE);
 8003c28:	2102      	movs	r1, #2
 8003c2a:	f104 0008 	add.w	r0, r4, #8
 8003c2e:	f7ff fdab 	bl	8003788 <RCCEx_PLL2_Config>
 8003c32:	4605      	mov	r5, r0
        break;
 8003c34:	e7c0      	b.n	8003bb8 <HAL_RCCEx_PeriphCLKConfig+0x218>
 8003c36:	462e      	mov	r6, r5
 8003c38:	e7e1      	b.n	8003bfe <HAL_RCCEx_PeriphCLKConfig+0x25e>
    switch (PeriphClkInit->Spi123ClockSelection)
 8003c3a:	2601      	movs	r6, #1
 8003c3c:	4635      	mov	r5, r6
 8003c3e:	e010      	b.n	8003c62 <HAL_RCCEx_PeriphCLKConfig+0x2c2>
 8003c40:	58024400 	.word	0x58024400
 8003c44:	f5b3 5f40 	cmp.w	r3, #12288	; 0x3000
 8003c48:	d002      	beq.n	8003c50 <HAL_RCCEx_PeriphCLKConfig+0x2b0>
 8003c4a:	f5b3 4f80 	cmp.w	r3, #16384	; 0x4000
 8003c4e:	d125      	bne.n	8003c9c <HAL_RCCEx_PeriphCLKConfig+0x2fc>
    if (ret == HAL_OK)
 8003c50:	2d00      	cmp	r5, #0
 8003c52:	d133      	bne.n	8003cbc <HAL_RCCEx_PeriphCLKConfig+0x31c>
      __HAL_RCC_SPI123_CONFIG(PeriphClkInit->Spi123ClockSelection);
 8003c54:	4a77      	ldr	r2, [pc, #476]	; (8003e34 <HAL_RCCEx_PeriphCLKConfig+0x494>)
 8003c56:	6d13      	ldr	r3, [r2, #80]	; 0x50
 8003c58:	f423 43e0 	bic.w	r3, r3, #28672	; 0x7000
 8003c5c:	6e21      	ldr	r1, [r4, #96]	; 0x60
 8003c5e:	430b      	orrs	r3, r1
 8003c60:	6513      	str	r3, [r2, #80]	; 0x50
  if (((PeriphClkInit->PeriphClockSelection) & RCC_PERIPHCLK_SPI45) == RCC_PERIPHCLK_SPI45)
 8003c62:	6823      	ldr	r3, [r4, #0]
 8003c64:	f413 5f00 	tst.w	r3, #8192	; 0x2000
 8003c68:	d038      	beq.n	8003cdc <HAL_RCCEx_PeriphCLKConfig+0x33c>
    switch (PeriphClkInit->Spi45ClockSelection)
 8003c6a:	6e63      	ldr	r3, [r4, #100]	; 0x64
 8003c6c:	f5b3 3f00 	cmp.w	r3, #131072	; 0x20000
 8003c70:	d053      	beq.n	8003d1a <HAL_RCCEx_PeriphCLKConfig+0x37a>
 8003c72:	d828      	bhi.n	8003cc6 <HAL_RCCEx_PeriphCLKConfig+0x326>
 8003c74:	b143      	cbz	r3, 8003c88 <HAL_RCCEx_PeriphCLKConfig+0x2e8>
 8003c76:	f5b3 3f80 	cmp.w	r3, #65536	; 0x10000
 8003c7a:	d121      	bne.n	8003cc0 <HAL_RCCEx_PeriphCLKConfig+0x320>
        ret = RCCEx_PLL2_Config(&(PeriphClkInit->PLL2), DIVIDER_Q_UPDATE);
 8003c7c:	2101      	movs	r1, #1
 8003c7e:	f104 0008 	add.w	r0, r4, #8
 8003c82:	f7ff fd81 	bl	8003788 <RCCEx_PLL2_Config>
 8003c86:	4605      	mov	r5, r0
    if (ret == HAL_OK)
 8003c88:	2d00      	cmp	r5, #0
 8003c8a:	d14d      	bne.n	8003d28 <HAL_RCCEx_PeriphCLKConfig+0x388>
      __HAL_RCC_SPI45_CONFIG(PeriphClkInit->Spi45ClockSelection);
 8003c8c:	4a69      	ldr	r2, [pc, #420]	; (8003e34 <HAL_RCCEx_PeriphCLKConfig+0x494>)
 8003c8e:	6d13      	ldr	r3, [r2, #80]	; 0x50
 8003c90:	f423 23e0 	bic.w	r3, r3, #458752	; 0x70000
 8003c94:	6e61      	ldr	r1, [r4, #100]	; 0x64
 8003c96:	430b      	orrs	r3, r1
 8003c98:	6513      	str	r3, [r2, #80]	; 0x50
 8003c9a:	e01f      	b.n	8003cdc <HAL_RCCEx_PeriphCLKConfig+0x33c>
    switch (PeriphClkInit->Spi123ClockSelection)
 8003c9c:	2601      	movs	r6, #1
 8003c9e:	4635      	mov	r5, r6
 8003ca0:	e7df      	b.n	8003c62 <HAL_RCCEx_PeriphCLKConfig+0x2c2>
        __HAL_RCC_PLLCLKOUT_ENABLE(RCC_PLL1_DIVQ);
 8003ca2:	4a64      	ldr	r2, [pc, #400]	; (8003e34 <HAL_RCCEx_PeriphCLKConfig+0x494>)
 8003ca4:	6ad3      	ldr	r3, [r2, #44]	; 0x2c
 8003ca6:	f443 3300 	orr.w	r3, r3, #131072	; 0x20000
 8003caa:	62d3      	str	r3, [r2, #44]	; 0x2c
        break;
 8003cac:	e7d0      	b.n	8003c50 <HAL_RCCEx_PeriphCLKConfig+0x2b0>
        ret = RCCEx_PLL3_Config(&(PeriphClkInit->PLL3), DIVIDER_P_UPDATE);
 8003cae:	2100      	movs	r1, #0
 8003cb0:	f104 0028 	add.w	r0, r4, #40	; 0x28
 8003cb4:	f7ff fdee 	bl	8003894 <RCCEx_PLL3_Config>
 8003cb8:	4605      	mov	r5, r0
        break;
 8003cba:	e7c9      	b.n	8003c50 <HAL_RCCEx_PeriphCLKConfig+0x2b0>
 8003cbc:	462e      	mov	r6, r5
 8003cbe:	e7d0      	b.n	8003c62 <HAL_RCCEx_PeriphCLKConfig+0x2c2>
    switch (PeriphClkInit->Spi45ClockSelection)
 8003cc0:	2601      	movs	r6, #1
 8003cc2:	4635      	mov	r5, r6
 8003cc4:	e00a      	b.n	8003cdc <HAL_RCCEx_PeriphCLKConfig+0x33c>
 8003cc6:	f5b3 2f80 	cmp.w	r3, #262144	; 0x40000
 8003cca:	d0dd      	beq.n	8003c88 <HAL_RCCEx_PeriphCLKConfig+0x2e8>
 8003ccc:	f5b3 2fa0 	cmp.w	r3, #327680	; 0x50000
 8003cd0:	d0da      	beq.n	8003c88 <HAL_RCCEx_PeriphCLKConfig+0x2e8>
 8003cd2:	f5b3 3f40 	cmp.w	r3, #196608	; 0x30000
 8003cd6:	d0d7      	beq.n	8003c88 <HAL_RCCEx_PeriphCLKConfig+0x2e8>
 8003cd8:	2601      	movs	r6, #1
 8003cda:	4635      	mov	r5, r6
  if (((PeriphClkInit->PeriphClockSelection) & RCC_PERIPHCLK_SPI6) == RCC_PERIPHCLK_SPI6)
 8003cdc:	6823      	ldr	r3, [r4, #0]
 8003cde:	f413 4f80 	tst.w	r3, #16384	; 0x4000
 8003ce2:	d031      	beq.n	8003d48 <HAL_RCCEx_PeriphCLKConfig+0x3a8>
    switch (PeriphClkInit->Spi6ClockSelection)
 8003ce4:	f8d4 30b0 	ldr.w	r3, [r4, #176]	; 0xb0
 8003ce8:	f1b3 5f00 	cmp.w	r3, #536870912	; 0x20000000
 8003cec:	d045      	beq.n	8003d7a <HAL_RCCEx_PeriphCLKConfig+0x3da>
 8003cee:	d820      	bhi.n	8003d32 <HAL_RCCEx_PeriphCLKConfig+0x392>
 8003cf0:	b143      	cbz	r3, 8003d04 <HAL_RCCEx_PeriphCLKConfig+0x364>
 8003cf2:	f1b3 5f80 	cmp.w	r3, #268435456	; 0x10000000
 8003cf6:	d119      	bne.n	8003d2c <HAL_RCCEx_PeriphCLKConfig+0x38c>
        ret = RCCEx_PLL2_Config(&(PeriphClkInit->PLL2), DIVIDER_Q_UPDATE);
 8003cf8:	2101      	movs	r1, #1
 8003cfa:	f104 0008 	add.w	r0, r4, #8
 8003cfe:	f7ff fd43 	bl	8003788 <RCCEx_PLL2_Config>
 8003d02:	4605      	mov	r5, r0
    if (ret == HAL_OK)
 8003d04:	2d00      	cmp	r5, #0
 8003d06:	d13f      	bne.n	8003d88 <HAL_RCCEx_PeriphCLKConfig+0x3e8>
      __HAL_RCC_SPI6_CONFIG(PeriphClkInit->Spi6ClockSelection);
 8003d08:	4a4a      	ldr	r2, [pc, #296]	; (8003e34 <HAL_RCCEx_PeriphCLKConfig+0x494>)
 8003d0a:	6d93      	ldr	r3, [r2, #88]	; 0x58
 8003d0c:	f023 43e0 	bic.w	r3, r3, #1879048192	; 0x70000000
 8003d10:	f8d4 10b0 	ldr.w	r1, [r4, #176]	; 0xb0
 8003d14:	430b      	orrs	r3, r1
 8003d16:	6593      	str	r3, [r2, #88]	; 0x58
 8003d18:	e016      	b.n	8003d48 <HAL_RCCEx_PeriphCLKConfig+0x3a8>
        ret = RCCEx_PLL3_Config(&(PeriphClkInit->PLL3), DIVIDER_Q_UPDATE);
 8003d1a:	2101      	movs	r1, #1
 8003d1c:	f104 0028 	add.w	r0, r4, #40	; 0x28
 8003d20:	f7ff fdb8 	bl	8003894 <RCCEx_PLL3_Config>
 8003d24:	4605      	mov	r5, r0
        break;
 8003d26:	e7af      	b.n	8003c88 <HAL_RCCEx_PeriphCLKConfig+0x2e8>
 8003d28:	462e      	mov	r6, r5
 8003d2a:	e7d7      	b.n	8003cdc <HAL_RCCEx_PeriphCLKConfig+0x33c>
    switch (PeriphClkInit->Spi6ClockSelection)
 8003d2c:	2601      	movs	r6, #1
 8003d2e:	4635      	mov	r5, r6
 8003d30:	e00a      	b.n	8003d48 <HAL_RCCEx_PeriphCLKConfig+0x3a8>
 8003d32:	f1b3 4f80 	cmp.w	r3, #1073741824	; 0x40000000
 8003d36:	d0e5      	beq.n	8003d04 <HAL_RCCEx_PeriphCLKConfig+0x364>
 8003d38:	f1b3 4fa0 	cmp.w	r3, #1342177280	; 0x50000000
 8003d3c:	d0e2      	beq.n	8003d04 <HAL_RCCEx_PeriphCLKConfig+0x364>
 8003d3e:	f1b3 5f40 	cmp.w	r3, #805306368	; 0x30000000
 8003d42:	d0df      	beq.n	8003d04 <HAL_RCCEx_PeriphCLKConfig+0x364>
 8003d44:	2601      	movs	r6, #1
 8003d46:	4635      	mov	r5, r6
  if (((PeriphClkInit->PeriphClockSelection) & RCC_PERIPHCLK_FDCAN) == RCC_PERIPHCLK_FDCAN)
 8003d48:	6823      	ldr	r3, [r4, #0]
 8003d4a:	f413 4f00 	tst.w	r3, #32768	; 0x8000
 8003d4e:	d009      	beq.n	8003d64 <HAL_RCCEx_PeriphCLKConfig+0x3c4>
    switch (PeriphClkInit->FdcanClockSelection)
 8003d50:	6f23      	ldr	r3, [r4, #112]	; 0x70
 8003d52:	f1b3 5f80 	cmp.w	r3, #268435456	; 0x10000000
 8003d56:	d019      	beq.n	8003d8c <HAL_RCCEx_PeriphCLKConfig+0x3ec>
 8003d58:	f1b3 5f00 	cmp.w	r3, #536870912	; 0x20000000
 8003d5c:	d024      	beq.n	8003da8 <HAL_RCCEx_PeriphCLKConfig+0x408>
 8003d5e:	b1d3      	cbz	r3, 8003d96 <HAL_RCCEx_PeriphCLKConfig+0x3f6>
 8003d60:	2601      	movs	r6, #1
 8003d62:	4635      	mov	r5, r6
  if (((PeriphClkInit->PeriphClockSelection) & RCC_PERIPHCLK_FMC) == RCC_PERIPHCLK_FMC)
 8003d64:	6823      	ldr	r3, [r4, #0]
 8003d66:	f013 7f80 	tst.w	r3, #16777216	; 0x1000000
 8003d6a:	d033      	beq.n	8003dd4 <HAL_RCCEx_PeriphCLKConfig+0x434>
    switch (PeriphClkInit->FmcClockSelection)
 8003d6c:	6ca3      	ldr	r3, [r4, #72]	; 0x48
 8003d6e:	2b03      	cmp	r3, #3
 8003d70:	d85b      	bhi.n	8003e2a <HAL_RCCEx_PeriphCLKConfig+0x48a>
 8003d72:	e8df f003 	tbb	[pc, r3]
 8003d76:	2227      	.short	0x2227
 8003d78:	2753      	.short	0x2753
        ret = RCCEx_PLL3_Config(&(PeriphClkInit->PLL3), DIVIDER_Q_UPDATE);
 8003d7a:	2101      	movs	r1, #1
 8003d7c:	f104 0028 	add.w	r0, r4, #40	; 0x28
 8003d80:	f7ff fd88 	bl	8003894 <RCCEx_PLL3_Config>
 8003d84:	4605      	mov	r5, r0
        break;
 8003d86:	e7bd      	b.n	8003d04 <HAL_RCCEx_PeriphCLKConfig+0x364>
 8003d88:	462e      	mov	r6, r5
 8003d8a:	e7dd      	b.n	8003d48 <HAL_RCCEx_PeriphCLKConfig+0x3a8>
        __HAL_RCC_PLLCLKOUT_ENABLE(RCC_PLL1_DIVQ);
 8003d8c:	4a29      	ldr	r2, [pc, #164]	; (8003e34 <HAL_RCCEx_PeriphCLKConfig+0x494>)
 8003d8e:	6ad3      	ldr	r3, [r2, #44]	; 0x2c
 8003d90:	f443 3300 	orr.w	r3, r3, #131072	; 0x20000
 8003d94:	62d3      	str	r3, [r2, #44]	; 0x2c
    if (ret == HAL_OK)
 8003d96:	b975      	cbnz	r5, 8003db6 <HAL_RCCEx_PeriphCLKConfig+0x416>
      __HAL_RCC_FDCAN_CONFIG(PeriphClkInit->FdcanClockSelection);
 8003d98:	4a26      	ldr	r2, [pc, #152]	; (8003e34 <HAL_RCCEx_PeriphCLKConfig+0x494>)
 8003d9a:	6d13      	ldr	r3, [r2, #80]	; 0x50
 8003d9c:	f023 5340 	bic.w	r3, r3, #805306368	; 0x30000000
 8003da0:	6f21      	ldr	r1, [r4, #112]	; 0x70
 8003da2:	430b      	orrs	r3, r1
 8003da4:	6513      	str	r3, [r2, #80]	; 0x50
 8003da6:	e7dd      	b.n	8003d64 <HAL_RCCEx_PeriphCLKConfig+0x3c4>
        ret = RCCEx_PLL2_Config(&(PeriphClkInit->PLL2), DIVIDER_Q_UPDATE);
 8003da8:	2101      	movs	r1, #1
 8003daa:	f104 0008 	add.w	r0, r4, #8
 8003dae:	f7ff fceb 	bl	8003788 <RCCEx_PLL2_Config>
 8003db2:	4605      	mov	r5, r0
        break;
 8003db4:	e7ef      	b.n	8003d96 <HAL_RCCEx_PeriphCLKConfig+0x3f6>
 8003db6:	462e      	mov	r6, r5
 8003db8:	e7d4      	b.n	8003d64 <HAL_RCCEx_PeriphCLKConfig+0x3c4>
        __HAL_RCC_PLLCLKOUT_ENABLE(RCC_PLL1_DIVQ);
 8003dba:	4a1e      	ldr	r2, [pc, #120]	; (8003e34 <HAL_RCCEx_PeriphCLKConfig+0x494>)
 8003dbc:	6ad3      	ldr	r3, [r2, #44]	; 0x2c
 8003dbe:	f443 3300 	orr.w	r3, r3, #131072	; 0x20000
 8003dc2:	62d3      	str	r3, [r2, #44]	; 0x2c
    if (ret == HAL_OK)
 8003dc4:	bba5      	cbnz	r5, 8003e30 <HAL_RCCEx_PeriphCLKConfig+0x490>
      __HAL_RCC_FMC_CONFIG(PeriphClkInit->FmcClockSelection);
 8003dc6:	4a1b      	ldr	r2, [pc, #108]	; (8003e34 <HAL_RCCEx_PeriphCLKConfig+0x494>)
 8003dc8:	6cd3      	ldr	r3, [r2, #76]	; 0x4c
 8003dca:	f023 0303 	bic.w	r3, r3, #3
 8003dce:	6ca1      	ldr	r1, [r4, #72]	; 0x48
 8003dd0:	430b      	orrs	r3, r1
 8003dd2:	64d3      	str	r3, [r2, #76]	; 0x4c
  if (((PeriphClkInit->PeriphClockSelection) & RCC_PERIPHCLK_RTC) == RCC_PERIPHCLK_RTC)
 8003dd4:	6823      	ldr	r3, [r4, #0]
 8003dd6:	f413 0f80 	tst.w	r3, #4194304	; 0x400000
 8003dda:	d12d      	bne.n	8003e38 <HAL_RCCEx_PeriphCLKConfig+0x498>
  if (((PeriphClkInit->PeriphClockSelection) & RCC_PERIPHCLK_USART16) == RCC_PERIPHCLK_USART16)
 8003ddc:	6823      	ldr	r3, [r4, #0]
 8003dde:	f013 0f01 	tst.w	r3, #1
 8003de2:	f000 80a5 	beq.w	8003f30 <HAL_RCCEx_PeriphCLKConfig+0x590>
    switch (PeriphClkInit->Usart16ClockSelection)
 8003de6:	6fe3      	ldr	r3, [r4, #124]	; 0x7c
 8003de8:	2b28      	cmp	r3, #40	; 0x28
 8003dea:	f200 809f 	bhi.w	8003f2c <HAL_RCCEx_PeriphCLKConfig+0x58c>
 8003dee:	e8df f003 	tbb	[pc, r3]
 8003df2:	9d8d      	.short	0x9d8d
 8003df4:	9d9d9d9d 	.word	0x9d9d9d9d
 8003df8:	9d879d9d 	.word	0x9d879d9d
 8003dfc:	9d9d9d9d 	.word	0x9d9d9d9d
 8003e00:	9d969d9d 	.word	0x9d969d9d
 8003e04:	9d9d9d9d 	.word	0x9d9d9d9d
 8003e08:	9d8d9d9d 	.word	0x9d8d9d9d
 8003e0c:	9d9d9d9d 	.word	0x9d9d9d9d
 8003e10:	9d8d9d9d 	.word	0x9d8d9d9d
 8003e14:	9d9d9d9d 	.word	0x9d9d9d9d
 8003e18:	9d9d      	.short	0x9d9d
 8003e1a:	8d          	.byte	0x8d
 8003e1b:	00          	.byte	0x00
        ret = RCCEx_PLL2_Config(&(PeriphClkInit->PLL2), DIVIDER_R_UPDATE);
 8003e1c:	2102      	movs	r1, #2
 8003e1e:	f104 0008 	add.w	r0, r4, #8
 8003e22:	f7ff fcb1 	bl	8003788 <RCCEx_PLL2_Config>
 8003e26:	4605      	mov	r5, r0
        break;
 8003e28:	e7cc      	b.n	8003dc4 <HAL_RCCEx_PeriphCLKConfig+0x424>
    switch (PeriphClkInit->FmcClockSelection)
 8003e2a:	2601      	movs	r6, #1
 8003e2c:	4635      	mov	r5, r6
 8003e2e:	e7d1      	b.n	8003dd4 <HAL_RCCEx_PeriphCLKConfig+0x434>
 8003e30:	462e      	mov	r6, r5
 8003e32:	e7cf      	b.n	8003dd4 <HAL_RCCEx_PeriphCLKConfig+0x434>
 8003e34:	58024400 	.word	0x58024400
    SET_BIT(PWR->CR1, PWR_CR1_DBP);
 8003e38:	4a91      	ldr	r2, [pc, #580]	; (8004080 <HAL_RCCEx_PeriphCLKConfig+0x6e0>)
 8003e3a:	6813      	ldr	r3, [r2, #0]
 8003e3c:	f443 7380 	orr.w	r3, r3, #256	; 0x100
 8003e40:	6013      	str	r3, [r2, #0]
    tickstart = HAL_GetTick();
 8003e42:	f7fd fc3f 	bl	80016c4 <HAL_GetTick>
 8003e46:	4607      	mov	r7, r0
    while ((PWR->CR1 & PWR_CR1_DBP) == 0U)
 8003e48:	4b8d      	ldr	r3, [pc, #564]	; (8004080 <HAL_RCCEx_PeriphCLKConfig+0x6e0>)
 8003e4a:	681b      	ldr	r3, [r3, #0]
 8003e4c:	f413 7f80 	tst.w	r3, #256	; 0x100
 8003e50:	d105      	bne.n	8003e5e <HAL_RCCEx_PeriphCLKConfig+0x4be>
      if ((HAL_GetTick() - tickstart) > RCC_DBP_TIMEOUT_VALUE)
 8003e52:	f7fd fc37 	bl	80016c4 <HAL_GetTick>
 8003e56:	1bc0      	subs	r0, r0, r7
 8003e58:	2864      	cmp	r0, #100	; 0x64
 8003e5a:	d9f5      	bls.n	8003e48 <HAL_RCCEx_PeriphCLKConfig+0x4a8>
        ret = HAL_TIMEOUT;
 8003e5c:	2503      	movs	r5, #3
    if (ret == HAL_OK)
 8003e5e:	2d00      	cmp	r5, #0
 8003e60:	d14a      	bne.n	8003ef8 <HAL_RCCEx_PeriphCLKConfig+0x558>
      if ((RCC->BDCR & RCC_BDCR_RTCSEL) != (PeriphClkInit->RTCClockSelection & RCC_BDCR_RTCSEL))
 8003e62:	4b88      	ldr	r3, [pc, #544]	; (8004084 <HAL_RCCEx_PeriphCLKConfig+0x6e4>)
 8003e64:	6f1b      	ldr	r3, [r3, #112]	; 0x70
 8003e66:	f8d4 20b4 	ldr.w	r2, [r4, #180]	; 0xb4
 8003e6a:	4053      	eors	r3, r2
 8003e6c:	f413 7f40 	tst.w	r3, #768	; 0x300
 8003e70:	d00c      	beq.n	8003e8c <HAL_RCCEx_PeriphCLKConfig+0x4ec>
        tmpreg = (RCC->BDCR & ~(RCC_BDCR_RTCSEL));
 8003e72:	4b84      	ldr	r3, [pc, #528]	; (8004084 <HAL_RCCEx_PeriphCLKConfig+0x6e4>)
 8003e74:	6f1a      	ldr	r2, [r3, #112]	; 0x70
 8003e76:	f422 7240 	bic.w	r2, r2, #768	; 0x300
        __HAL_RCC_BACKUPRESET_FORCE();
 8003e7a:	6f19      	ldr	r1, [r3, #112]	; 0x70
 8003e7c:	f441 3180 	orr.w	r1, r1, #65536	; 0x10000
 8003e80:	6719      	str	r1, [r3, #112]	; 0x70
        __HAL_RCC_BACKUPRESET_RELEASE();
 8003e82:	6f19      	ldr	r1, [r3, #112]	; 0x70
 8003e84:	f421 3180 	bic.w	r1, r1, #65536	; 0x10000
 8003e88:	6719      	str	r1, [r3, #112]	; 0x70
        RCC->BDCR = tmpreg;
 8003e8a:	671a      	str	r2, [r3, #112]	; 0x70
      if (PeriphClkInit->RTCClockSelection == RCC_RTCCLKSOURCE_LSE)
 8003e8c:	f8d4 30b4 	ldr.w	r3, [r4, #180]	; 0xb4
 8003e90:	f5b3 7f80 	cmp.w	r3, #256	; 0x100
 8003e94:	d015      	beq.n	8003ec2 <HAL_RCCEx_PeriphCLKConfig+0x522>
      if (ret == HAL_OK)
 8003e96:	bb8d      	cbnz	r5, 8003efc <HAL_RCCEx_PeriphCLKConfig+0x55c>
        __HAL_RCC_RTC_CONFIG(PeriphClkInit->RTCClockSelection);
 8003e98:	f8d4 30b4 	ldr.w	r3, [r4, #180]	; 0xb4
 8003e9c:	f403 7240 	and.w	r2, r3, #768	; 0x300
 8003ea0:	f5b2 7f40 	cmp.w	r2, #768	; 0x300
 8003ea4:	d01e      	beq.n	8003ee4 <HAL_RCCEx_PeriphCLKConfig+0x544>
 8003ea6:	4a77      	ldr	r2, [pc, #476]	; (8004084 <HAL_RCCEx_PeriphCLKConfig+0x6e4>)
 8003ea8:	6913      	ldr	r3, [r2, #16]
 8003eaa:	f423 537c 	bic.w	r3, r3, #16128	; 0x3f00
 8003eae:	6113      	str	r3, [r2, #16]
 8003eb0:	4974      	ldr	r1, [pc, #464]	; (8004084 <HAL_RCCEx_PeriphCLKConfig+0x6e4>)
 8003eb2:	6f0b      	ldr	r3, [r1, #112]	; 0x70
 8003eb4:	f8d4 20b4 	ldr.w	r2, [r4, #180]	; 0xb4
 8003eb8:	f3c2 020b 	ubfx	r2, r2, #0, #12
 8003ebc:	4313      	orrs	r3, r2
 8003ebe:	670b      	str	r3, [r1, #112]	; 0x70
 8003ec0:	e78c      	b.n	8003ddc <HAL_RCCEx_PeriphCLKConfig+0x43c>
        tickstart = HAL_GetTick();
 8003ec2:	f7fd fbff 	bl	80016c4 <HAL_GetTick>
 8003ec6:	4607      	mov	r7, r0
        while (__HAL_RCC_GET_FLAG(RCC_FLAG_LSERDY) == 0U)
 8003ec8:	4b6e      	ldr	r3, [pc, #440]	; (8004084 <HAL_RCCEx_PeriphCLKConfig+0x6e4>)
 8003eca:	6f1b      	ldr	r3, [r3, #112]	; 0x70
 8003ecc:	f013 0f02 	tst.w	r3, #2
 8003ed0:	d1e1      	bne.n	8003e96 <HAL_RCCEx_PeriphCLKConfig+0x4f6>
          if ((HAL_GetTick() - tickstart) > RCC_LSE_TIMEOUT_VALUE)
 8003ed2:	f7fd fbf7 	bl	80016c4 <HAL_GetTick>
 8003ed6:	1bc0      	subs	r0, r0, r7
 8003ed8:	f241 3388 	movw	r3, #5000	; 0x1388
 8003edc:	4298      	cmp	r0, r3
 8003ede:	d9f3      	bls.n	8003ec8 <HAL_RCCEx_PeriphCLKConfig+0x528>
            ret = HAL_TIMEOUT;
 8003ee0:	2503      	movs	r5, #3
 8003ee2:	e7d8      	b.n	8003e96 <HAL_RCCEx_PeriphCLKConfig+0x4f6>
        __HAL_RCC_RTC_CONFIG(PeriphClkInit->RTCClockSelection);
 8003ee4:	4867      	ldr	r0, [pc, #412]	; (8004084 <HAL_RCCEx_PeriphCLKConfig+0x6e4>)
 8003ee6:	6902      	ldr	r2, [r0, #16]
 8003ee8:	f422 527c 	bic.w	r2, r2, #16128	; 0x3f00
 8003eec:	4966      	ldr	r1, [pc, #408]	; (8004088 <HAL_RCCEx_PeriphCLKConfig+0x6e8>)
 8003eee:	ea01 1313 	and.w	r3, r1, r3, lsr #4
 8003ef2:	4313      	orrs	r3, r2
 8003ef4:	6103      	str	r3, [r0, #16]
 8003ef6:	e7db      	b.n	8003eb0 <HAL_RCCEx_PeriphCLKConfig+0x510>
      status = ret;
 8003ef8:	462e      	mov	r6, r5
 8003efa:	e76f      	b.n	8003ddc <HAL_RCCEx_PeriphCLKConfig+0x43c>
        status = ret;
 8003efc:	462e      	mov	r6, r5
 8003efe:	e76d      	b.n	8003ddc <HAL_RCCEx_PeriphCLKConfig+0x43c>
        ret = RCCEx_PLL2_Config(&(PeriphClkInit->PLL2), DIVIDER_Q_UPDATE);
 8003f00:	2101      	movs	r1, #1
 8003f02:	f104 0008 	add.w	r0, r4, #8
 8003f06:	f7ff fc3f 	bl	8003788 <RCCEx_PLL2_Config>
 8003f0a:	4605      	mov	r5, r0
    if (ret == HAL_OK)
 8003f0c:	b9e5      	cbnz	r5, 8003f48 <HAL_RCCEx_PeriphCLKConfig+0x5a8>
      __HAL_RCC_USART16_CONFIG(PeriphClkInit->Usart16ClockSelection);
 8003f0e:	4a5d      	ldr	r2, [pc, #372]	; (8004084 <HAL_RCCEx_PeriphCLKConfig+0x6e4>)
 8003f10:	6d53      	ldr	r3, [r2, #84]	; 0x54
 8003f12:	f023 0338 	bic.w	r3, r3, #56	; 0x38
 8003f16:	6fe1      	ldr	r1, [r4, #124]	; 0x7c
 8003f18:	430b      	orrs	r3, r1
 8003f1a:	6553      	str	r3, [r2, #84]	; 0x54
 8003f1c:	e008      	b.n	8003f30 <HAL_RCCEx_PeriphCLKConfig+0x590>
        ret = RCCEx_PLL3_Config(&(PeriphClkInit->PLL3), DIVIDER_Q_UPDATE);
 8003f1e:	2101      	movs	r1, #1
 8003f20:	f104 0028 	add.w	r0, r4, #40	; 0x28
 8003f24:	f7ff fcb6 	bl	8003894 <RCCEx_PLL3_Config>
 8003f28:	4605      	mov	r5, r0
        break;
 8003f2a:	e7ef      	b.n	8003f0c <HAL_RCCEx_PeriphCLKConfig+0x56c>
    switch (PeriphClkInit->Usart16ClockSelection)
 8003f2c:	2601      	movs	r6, #1
 8003f2e:	4635      	mov	r5, r6
  if (((PeriphClkInit->PeriphClockSelection) & RCC_PERIPHCLK_USART234578) == RCC_PERIPHCLK_USART234578)
 8003f30:	6823      	ldr	r3, [r4, #0]
 8003f32:	f013 0f02 	tst.w	r3, #2
 8003f36:	d017      	beq.n	8003f68 <HAL_RCCEx_PeriphCLKConfig+0x5c8>
    switch (PeriphClkInit->Usart234578ClockSelection)
 8003f38:	6fa3      	ldr	r3, [r4, #120]	; 0x78
 8003f3a:	2b05      	cmp	r3, #5
 8003f3c:	d828      	bhi.n	8003f90 <HAL_RCCEx_PeriphCLKConfig+0x5f0>
 8003f3e:	e8df f003 	tbb	[pc, r3]
 8003f42:	050b      	.short	0x050b
 8003f44:	0b0b0b20 	.word	0x0b0b0b20
 8003f48:	462e      	mov	r6, r5
 8003f4a:	e7f1      	b.n	8003f30 <HAL_RCCEx_PeriphCLKConfig+0x590>
        ret = RCCEx_PLL2_Config(&(PeriphClkInit->PLL2), DIVIDER_Q_UPDATE);
 8003f4c:	2101      	movs	r1, #1
 8003f4e:	f104 0008 	add.w	r0, r4, #8
 8003f52:	f7ff fc19 	bl	8003788 <RCCEx_PLL2_Config>
 8003f56:	4605      	mov	r5, r0
    if (ret == HAL_OK)
 8003f58:	b9ed      	cbnz	r5, 8003f96 <HAL_RCCEx_PeriphCLKConfig+0x5f6>
      __HAL_RCC_USART234578_CONFIG(PeriphClkInit->Usart234578ClockSelection);
 8003f5a:	4a4a      	ldr	r2, [pc, #296]	; (8004084 <HAL_RCCEx_PeriphCLKConfig+0x6e4>)
 8003f5c:	6d53      	ldr	r3, [r2, #84]	; 0x54
 8003f5e:	f023 0307 	bic.w	r3, r3, #7
 8003f62:	6fa1      	ldr	r1, [r4, #120]	; 0x78
 8003f64:	430b      	orrs	r3, r1
 8003f66:	6553      	str	r3, [r2, #84]	; 0x54
  if (((PeriphClkInit->PeriphClockSelection) & RCC_PERIPHCLK_LPUART1) == RCC_PERIPHCLK_LPUART1)
 8003f68:	6823      	ldr	r3, [r4, #0]
 8003f6a:	f013 0f04 	tst.w	r3, #4
 8003f6e:	d023      	beq.n	8003fb8 <HAL_RCCEx_PeriphCLKConfig+0x618>
    switch (PeriphClkInit->Lpuart1ClockSelection)
 8003f70:	f8d4 3094 	ldr.w	r3, [r4, #148]	; 0x94
 8003f74:	2b05      	cmp	r3, #5
 8003f76:	d845      	bhi.n	8004004 <HAL_RCCEx_PeriphCLKConfig+0x664>
 8003f78:	e8df f003 	tbb	[pc, r3]
 8003f7c:	153d0f15 	.word	0x153d0f15
 8003f80:	1515      	.short	0x1515
        ret = RCCEx_PLL3_Config(&(PeriphClkInit->PLL3), DIVIDER_Q_UPDATE);
 8003f82:	2101      	movs	r1, #1
 8003f84:	f104 0028 	add.w	r0, r4, #40	; 0x28
 8003f88:	f7ff fc84 	bl	8003894 <RCCEx_PLL3_Config>
 8003f8c:	4605      	mov	r5, r0
        break;
 8003f8e:	e7e3      	b.n	8003f58 <HAL_RCCEx_PeriphCLKConfig+0x5b8>
    switch (PeriphClkInit->Usart234578ClockSelection)
 8003f90:	2601      	movs	r6, #1
 8003f92:	4635      	mov	r5, r6
 8003f94:	e7e8      	b.n	8003f68 <HAL_RCCEx_PeriphCLKConfig+0x5c8>
 8003f96:	462e      	mov	r6, r5
 8003f98:	e7e6      	b.n	8003f68 <HAL_RCCEx_PeriphCLKConfig+0x5c8>
        ret = RCCEx_PLL2_Config(&(PeriphClkInit->PLL2), DIVIDER_Q_UPDATE);
 8003f9a:	2101      	movs	r1, #1
 8003f9c:	f104 0008 	add.w	r0, r4, #8
 8003fa0:	f7ff fbf2 	bl	8003788 <RCCEx_PLL2_Config>
 8003fa4:	4605      	mov	r5, r0
    if (ret == HAL_OK)
 8003fa6:	bb85      	cbnz	r5, 800400a <HAL_RCCEx_PeriphCLKConfig+0x66a>
      __HAL_RCC_LPUART1_CONFIG(PeriphClkInit->Lpuart1ClockSelection);
 8003fa8:	4a36      	ldr	r2, [pc, #216]	; (8004084 <HAL_RCCEx_PeriphCLKConfig+0x6e4>)
 8003faa:	6d93      	ldr	r3, [r2, #88]	; 0x58
 8003fac:	f023 0307 	bic.w	r3, r3, #7
 8003fb0:	f8d4 1094 	ldr.w	r1, [r4, #148]	; 0x94
 8003fb4:	430b      	orrs	r3, r1
 8003fb6:	6593      	str	r3, [r2, #88]	; 0x58
  if (((PeriphClkInit->PeriphClockSelection) & RCC_PERIPHCLK_LPTIM1) == RCC_PERIPHCLK_LPTIM1)
 8003fb8:	6823      	ldr	r3, [r4, #0]
 8003fba:	f013 0f20 	tst.w	r3, #32
 8003fbe:	d034      	beq.n	800402a <HAL_RCCEx_PeriphCLKConfig+0x68a>
    switch (PeriphClkInit->Lptim1ClockSelection)
 8003fc0:	f8d4 3090 	ldr.w	r3, [r4, #144]	; 0x90
 8003fc4:	f1b3 5f00 	cmp.w	r3, #536870912	; 0x20000000
 8003fc8:	d04e      	beq.n	8004068 <HAL_RCCEx_PeriphCLKConfig+0x6c8>
 8003fca:	d823      	bhi.n	8004014 <HAL_RCCEx_PeriphCLKConfig+0x674>
 8003fcc:	b143      	cbz	r3, 8003fe0 <HAL_RCCEx_PeriphCLKConfig+0x640>
 8003fce:	f1b3 5f80 	cmp.w	r3, #268435456	; 0x10000000
 8003fd2:	d11c      	bne.n	800400e <HAL_RCCEx_PeriphCLKConfig+0x66e>
        ret = RCCEx_PLL2_Config(&(PeriphClkInit->PLL2), DIVIDER_P_UPDATE);
 8003fd4:	2100      	movs	r1, #0
 8003fd6:	f104 0008 	add.w	r0, r4, #8
 8003fda:	f7ff fbd5 	bl	8003788 <RCCEx_PLL2_Config>
 8003fde:	4605      	mov	r5, r0
    if (ret == HAL_OK)
 8003fe0:	2d00      	cmp	r5, #0
 8003fe2:	d148      	bne.n	8004076 <HAL_RCCEx_PeriphCLKConfig+0x6d6>
      __HAL_RCC_LPTIM1_CONFIG(PeriphClkInit->Lptim1ClockSelection);
 8003fe4:	4a27      	ldr	r2, [pc, #156]	; (8004084 <HAL_RCCEx_PeriphCLKConfig+0x6e4>)
 8003fe6:	6d53      	ldr	r3, [r2, #84]	; 0x54
 8003fe8:	f023 43e0 	bic.w	r3, r3, #1879048192	; 0x70000000
 8003fec:	f8d4 1090 	ldr.w	r1, [r4, #144]	; 0x90
 8003ff0:	430b      	orrs	r3, r1
 8003ff2:	6553      	str	r3, [r2, #84]	; 0x54
 8003ff4:	e019      	b.n	800402a <HAL_RCCEx_PeriphCLKConfig+0x68a>
        ret = RCCEx_PLL3_Config(&(PeriphClkInit->PLL3), DIVIDER_Q_UPDATE);
 8003ff6:	2101      	movs	r1, #1
 8003ff8:	f104 0028 	add.w	r0, r4, #40	; 0x28
 8003ffc:	f7ff fc4a 	bl	8003894 <RCCEx_PLL3_Config>
 8004000:	4605      	mov	r5, r0
        break;
 8004002:	e7d0      	b.n	8003fa6 <HAL_RCCEx_PeriphCLKConfig+0x606>
    switch (PeriphClkInit->Lpuart1ClockSelection)
 8004004:	2601      	movs	r6, #1
 8004006:	4635      	mov	r5, r6
 8004008:	e7d6      	b.n	8003fb8 <HAL_RCCEx_PeriphCLKConfig+0x618>
 800400a:	462e      	mov	r6, r5
 800400c:	e7d4      	b.n	8003fb8 <HAL_RCCEx_PeriphCLKConfig+0x618>
    switch (PeriphClkInit->Lptim1ClockSelection)
 800400e:	2601      	movs	r6, #1
 8004010:	4635      	mov	r5, r6
 8004012:	e00a      	b.n	800402a <HAL_RCCEx_PeriphCLKConfig+0x68a>
 8004014:	f1b3 4f80 	cmp.w	r3, #1073741824	; 0x40000000
 8004018:	d0e2      	beq.n	8003fe0 <HAL_RCCEx_PeriphCLKConfig+0x640>
 800401a:	f1b3 4fa0 	cmp.w	r3, #1342177280	; 0x50000000
 800401e:	d0df      	beq.n	8003fe0 <HAL_RCCEx_PeriphCLKConfig+0x640>
 8004020:	f1b3 5f40 	cmp.w	r3, #805306368	; 0x30000000
 8004024:	d0dc      	beq.n	8003fe0 <HAL_RCCEx_PeriphCLKConfig+0x640>
 8004026:	2601      	movs	r6, #1
 8004028:	4635      	mov	r5, r6
  if (((PeriphClkInit->PeriphClockSelection) & RCC_PERIPHCLK_LPTIM2) == RCC_PERIPHCLK_LPTIM2)
 800402a:	6823      	ldr	r3, [r4, #0]
 800402c:	f013 0f40 	tst.w	r3, #64	; 0x40
 8004030:	d037      	beq.n	80040a2 <HAL_RCCEx_PeriphCLKConfig+0x702>
    switch (PeriphClkInit->Lptim2ClockSelection)
 8004032:	f8d4 309c 	ldr.w	r3, [r4, #156]	; 0x9c
 8004036:	f5b3 6f00 	cmp.w	r3, #2048	; 0x800
 800403a:	d053      	beq.n	80040e4 <HAL_RCCEx_PeriphCLKConfig+0x744>
 800403c:	d826      	bhi.n	800408c <HAL_RCCEx_PeriphCLKConfig+0x6ec>
 800403e:	b143      	cbz	r3, 8004052 <HAL_RCCEx_PeriphCLKConfig+0x6b2>
 8004040:	f5b3 6f80 	cmp.w	r3, #1024	; 0x400
 8004044:	d119      	bne.n	800407a <HAL_RCCEx_PeriphCLKConfig+0x6da>
        ret = RCCEx_PLL2_Config(&(PeriphClkInit->PLL2), DIVIDER_P_UPDATE);
 8004046:	2100      	movs	r1, #0
 8004048:	f104 0008 	add.w	r0, r4, #8
 800404c:	f7ff fb9c 	bl	8003788 <RCCEx_PLL2_Config>
 8004050:	4605      	mov	r5, r0
    if (ret == HAL_OK)
 8004052:	2d00      	cmp	r5, #0
 8004054:	d14d      	bne.n	80040f2 <HAL_RCCEx_PeriphCLKConfig+0x752>
      __HAL_RCC_LPTIM2_CONFIG(PeriphClkInit->Lptim2ClockSelection);
 8004056:	4a0b      	ldr	r2, [pc, #44]	; (8004084 <HAL_RCCEx_PeriphCLKConfig+0x6e4>)
 8004058:	6d93      	ldr	r3, [r2, #88]	; 0x58
 800405a:	f423 53e0 	bic.w	r3, r3, #7168	; 0x1c00
 800405e:	f8d4 109c 	ldr.w	r1, [r4, #156]	; 0x9c
 8004062:	430b      	orrs	r3, r1
 8004064:	6593      	str	r3, [r2, #88]	; 0x58
 8004066:	e01c      	b.n	80040a2 <HAL_RCCEx_PeriphCLKConfig+0x702>
        ret = RCCEx_PLL3_Config(&(PeriphClkInit->PLL3), DIVIDER_R_UPDATE);
 8004068:	2102      	movs	r1, #2
 800406a:	f104 0028 	add.w	r0, r4, #40	; 0x28
 800406e:	f7ff fc11 	bl	8003894 <RCCEx_PLL3_Config>
 8004072:	4605      	mov	r5, r0
        break;
 8004074:	e7b4      	b.n	8003fe0 <HAL_RCCEx_PeriphCLKConfig+0x640>
 8004076:	462e      	mov	r6, r5
 8004078:	e7d7      	b.n	800402a <HAL_RCCEx_PeriphCLKConfig+0x68a>
    switch (PeriphClkInit->Lptim2ClockSelection)
 800407a:	2601      	movs	r6, #1
 800407c:	4635      	mov	r5, r6
 800407e:	e010      	b.n	80040a2 <HAL_RCCEx_PeriphCLKConfig+0x702>
 8004080:	58024800 	.word	0x58024800
 8004084:	58024400 	.word	0x58024400
 8004088:	00ffffcf 	.word	0x00ffffcf
 800408c:	f5b3 5f80 	cmp.w	r3, #4096	; 0x1000
 8004090:	d0df      	beq.n	8004052 <HAL_RCCEx_PeriphCLKConfig+0x6b2>
 8004092:	f5b3 5fa0 	cmp.w	r3, #5120	; 0x1400
 8004096:	d0dc      	beq.n	8004052 <HAL_RCCEx_PeriphCLKConfig+0x6b2>
 8004098:	f5b3 6f40 	cmp.w	r3, #3072	; 0xc00
 800409c:	d0d9      	beq.n	8004052 <HAL_RCCEx_PeriphCLKConfig+0x6b2>
 800409e:	2601      	movs	r6, #1
 80040a0:	4635      	mov	r5, r6
  if (((PeriphClkInit->PeriphClockSelection) & RCC_PERIPHCLK_LPTIM345) == RCC_PERIPHCLK_LPTIM345)
 80040a2:	6823      	ldr	r3, [r4, #0]
 80040a4:	f013 0f80 	tst.w	r3, #128	; 0x80
 80040a8:	d033      	beq.n	8004112 <HAL_RCCEx_PeriphCLKConfig+0x772>
    switch (PeriphClkInit->Lptim345ClockSelection)
 80040aa:	f8d4 30a0 	ldr.w	r3, [r4, #160]	; 0xa0
 80040ae:	f5b3 4f80 	cmp.w	r3, #16384	; 0x4000
 80040b2:	f000 80a3 	beq.w	80041fc <HAL_RCCEx_PeriphCLKConfig+0x85c>
 80040b6:	d821      	bhi.n	80040fc <HAL_RCCEx_PeriphCLKConfig+0x75c>
 80040b8:	b143      	cbz	r3, 80040cc <HAL_RCCEx_PeriphCLKConfig+0x72c>
 80040ba:	f5b3 5f00 	cmp.w	r3, #8192	; 0x2000
 80040be:	d11a      	bne.n	80040f6 <HAL_RCCEx_PeriphCLKConfig+0x756>
        ret = RCCEx_PLL2_Config(&(PeriphClkInit->PLL2), DIVIDER_P_UPDATE);
 80040c0:	2100      	movs	r1, #0
 80040c2:	f104 0008 	add.w	r0, r4, #8
 80040c6:	f7ff fb5f 	bl	8003788 <RCCEx_PLL2_Config>
 80040ca:	4605      	mov	r5, r0
    if (ret == HAL_OK)
 80040cc:	2d00      	cmp	r5, #0
 80040ce:	f040 809c 	bne.w	800420a <HAL_RCCEx_PeriphCLKConfig+0x86a>
      __HAL_RCC_LPTIM345_CONFIG(PeriphClkInit->Lptim345ClockSelection);
 80040d2:	4a81      	ldr	r2, [pc, #516]	; (80042d8 <HAL_RCCEx_PeriphCLKConfig+0x938>)
 80040d4:	6d93      	ldr	r3, [r2, #88]	; 0x58
 80040d6:	f423 4360 	bic.w	r3, r3, #57344	; 0xe000
 80040da:	f8d4 10a0 	ldr.w	r1, [r4, #160]	; 0xa0
 80040de:	430b      	orrs	r3, r1
 80040e0:	6593      	str	r3, [r2, #88]	; 0x58
 80040e2:	e016      	b.n	8004112 <HAL_RCCEx_PeriphCLKConfig+0x772>
        ret = RCCEx_PLL3_Config(&(PeriphClkInit->PLL3), DIVIDER_R_UPDATE);
 80040e4:	2102      	movs	r1, #2
 80040e6:	f104 0028 	add.w	r0, r4, #40	; 0x28
 80040ea:	f7ff fbd3 	bl	8003894 <RCCEx_PLL3_Config>
 80040ee:	4605      	mov	r5, r0
        break;
 80040f0:	e7af      	b.n	8004052 <HAL_RCCEx_PeriphCLKConfig+0x6b2>
 80040f2:	462e      	mov	r6, r5
 80040f4:	e7d5      	b.n	80040a2 <HAL_RCCEx_PeriphCLKConfig+0x702>
    switch (PeriphClkInit->Lptim345ClockSelection)
 80040f6:	2601      	movs	r6, #1
 80040f8:	4635      	mov	r5, r6
 80040fa:	e00a      	b.n	8004112 <HAL_RCCEx_PeriphCLKConfig+0x772>
 80040fc:	f5b3 4f00 	cmp.w	r3, #32768	; 0x8000
 8004100:	d0e4      	beq.n	80040cc <HAL_RCCEx_PeriphCLKConfig+0x72c>
 8004102:	f5b3 4f20 	cmp.w	r3, #40960	; 0xa000
 8004106:	d0e1      	beq.n	80040cc <HAL_RCCEx_PeriphCLKConfig+0x72c>
 8004108:	f5b3 4fc0 	cmp.w	r3, #24576	; 0x6000
 800410c:	d0de      	beq.n	80040cc <HAL_RCCEx_PeriphCLKConfig+0x72c>
 800410e:	2601      	movs	r6, #1
 8004110:	4635      	mov	r5, r6
  if (((PeriphClkInit->PeriphClockSelection) & RCC_PERIPHCLK_I2C123) == RCC_PERIPHCLK_I2C123)
 8004112:	6823      	ldr	r3, [r4, #0]
 8004114:	f013 0f08 	tst.w	r3, #8
 8004118:	d00c      	beq.n	8004134 <HAL_RCCEx_PeriphCLKConfig+0x794>
    if ((PeriphClkInit->I2c123ClockSelection) == RCC_I2C123CLKSOURCE_PLL3)
 800411a:	f8d4 3084 	ldr.w	r3, [r4, #132]	; 0x84
 800411e:	f5b3 5f80 	cmp.w	r3, #4096	; 0x1000
 8004122:	d074      	beq.n	800420e <HAL_RCCEx_PeriphCLKConfig+0x86e>
    __HAL_RCC_I2C123_CONFIG(PeriphClkInit->I2c123ClockSelection);
 8004124:	4a6c      	ldr	r2, [pc, #432]	; (80042d8 <HAL_RCCEx_PeriphCLKConfig+0x938>)
 8004126:	6d53      	ldr	r3, [r2, #84]	; 0x54
 8004128:	f423 5340 	bic.w	r3, r3, #12288	; 0x3000
 800412c:	f8d4 1084 	ldr.w	r1, [r4, #132]	; 0x84
 8004130:	430b      	orrs	r3, r1
 8004132:	6553      	str	r3, [r2, #84]	; 0x54
  if (((PeriphClkInit->PeriphClockSelection) & RCC_PERIPHCLK_I2C4) == RCC_PERIPHCLK_I2C4)
 8004134:	6823      	ldr	r3, [r4, #0]
 8004136:	f013 0f10 	tst.w	r3, #16
 800413a:	d00c      	beq.n	8004156 <HAL_RCCEx_PeriphCLKConfig+0x7b6>
    if ((PeriphClkInit->I2c4ClockSelection) == RCC_I2C4CLKSOURCE_PLL3)
 800413c:	f8d4 3098 	ldr.w	r3, [r4, #152]	; 0x98
 8004140:	f5b3 7f80 	cmp.w	r3, #256	; 0x100
 8004144:	d06c      	beq.n	8004220 <HAL_RCCEx_PeriphCLKConfig+0x880>
    __HAL_RCC_I2C4_CONFIG(PeriphClkInit->I2c4ClockSelection);
 8004146:	4a64      	ldr	r2, [pc, #400]	; (80042d8 <HAL_RCCEx_PeriphCLKConfig+0x938>)
 8004148:	6d93      	ldr	r3, [r2, #88]	; 0x58
 800414a:	f423 7340 	bic.w	r3, r3, #768	; 0x300
 800414e:	f8d4 1098 	ldr.w	r1, [r4, #152]	; 0x98
 8004152:	430b      	orrs	r3, r1
 8004154:	6593      	str	r3, [r2, #88]	; 0x58
  if (((PeriphClkInit->PeriphClockSelection) & RCC_PERIPHCLK_ADC) == RCC_PERIPHCLK_ADC)
 8004156:	6823      	ldr	r3, [r4, #0]
 8004158:	f413 2f00 	tst.w	r3, #524288	; 0x80000
 800415c:	d00b      	beq.n	8004176 <HAL_RCCEx_PeriphCLKConfig+0x7d6>
    switch (PeriphClkInit->AdcClockSelection)
 800415e:	f8d4 30a4 	ldr.w	r3, [r4, #164]	; 0xa4
 8004162:	f5b3 3f80 	cmp.w	r3, #65536	; 0x10000
 8004166:	d074      	beq.n	8004252 <HAL_RCCEx_PeriphCLKConfig+0x8b2>
 8004168:	f5b3 3f00 	cmp.w	r3, #131072	; 0x20000
 800416c:	d067      	beq.n	800423e <HAL_RCCEx_PeriphCLKConfig+0x89e>
 800416e:	2b00      	cmp	r3, #0
 8004170:	d05f      	beq.n	8004232 <HAL_RCCEx_PeriphCLKConfig+0x892>
 8004172:	2601      	movs	r6, #1
 8004174:	4635      	mov	r5, r6
  if (((PeriphClkInit->PeriphClockSelection) & RCC_PERIPHCLK_USB) == RCC_PERIPHCLK_USB)
 8004176:	6823      	ldr	r3, [r4, #0]
 8004178:	f413 2f80 	tst.w	r3, #262144	; 0x40000
 800417c:	d00c      	beq.n	8004198 <HAL_RCCEx_PeriphCLKConfig+0x7f8>
    switch (PeriphClkInit->UsbClockSelection)
 800417e:	f8d4 3088 	ldr.w	r3, [r4, #136]	; 0x88
 8004182:	f5b3 1f00 	cmp.w	r3, #2097152	; 0x200000
 8004186:	d07c      	beq.n	8004282 <HAL_RCCEx_PeriphCLKConfig+0x8e2>
 8004188:	f5b3 1f40 	cmp.w	r3, #3145728	; 0x300000
 800418c:	d06f      	beq.n	800426e <HAL_RCCEx_PeriphCLKConfig+0x8ce>
 800418e:	f5b3 1f80 	cmp.w	r3, #1048576	; 0x100000
 8004192:	d067      	beq.n	8004264 <HAL_RCCEx_PeriphCLKConfig+0x8c4>
 8004194:	2601      	movs	r6, #1
 8004196:	4635      	mov	r5, r6
  if (((PeriphClkInit->PeriphClockSelection) & RCC_PERIPHCLK_SDMMC) == RCC_PERIPHCLK_SDMMC)
 8004198:	6823      	ldr	r3, [r4, #0]
 800419a:	f413 3f80 	tst.w	r3, #65536	; 0x10000
 800419e:	d008      	beq.n	80041b2 <HAL_RCCEx_PeriphCLKConfig+0x812>
    switch (PeriphClkInit->SdmmcClockSelection)
 80041a0:	6d23      	ldr	r3, [r4, #80]	; 0x50
 80041a2:	2b00      	cmp	r3, #0
 80041a4:	d076      	beq.n	8004294 <HAL_RCCEx_PeriphCLKConfig+0x8f4>
 80041a6:	f5b3 3f80 	cmp.w	r3, #65536	; 0x10000
 80041aa:	f000 8081 	beq.w	80042b0 <HAL_RCCEx_PeriphCLKConfig+0x910>
 80041ae:	2601      	movs	r6, #1
 80041b0:	4635      	mov	r5, r6
  if (((PeriphClkInit->PeriphClockSelection) & RCC_PERIPHCLK_LTDC) == RCC_PERIPHCLK_LTDC)
 80041b2:	6823      	ldr	r3, [r4, #0]
 80041b4:	f013 5f00 	tst.w	r3, #536870912	; 0x20000000
 80041b8:	f040 8083 	bne.w	80042c2 <HAL_RCCEx_PeriphCLKConfig+0x922>
  if (((PeriphClkInit->PeriphClockSelection) & RCC_PERIPHCLK_RNG) == RCC_PERIPHCLK_RNG)
 80041bc:	6823      	ldr	r3, [r4, #0]
 80041be:	f413 3f00 	tst.w	r3, #131072	; 0x20000
 80041c2:	f000 808e 	beq.w	80042e2 <HAL_RCCEx_PeriphCLKConfig+0x942>
    switch (PeriphClkInit->RngClockSelection)
 80041c6:	f8d4 3080 	ldr.w	r3, [r4, #128]	; 0x80
 80041ca:	f5b3 7f80 	cmp.w	r3, #256	; 0x100
 80041ce:	f000 80ec 	beq.w	80043aa <HAL_RCCEx_PeriphCLKConfig+0xa0a>
 80041d2:	f240 8083 	bls.w	80042dc <HAL_RCCEx_PeriphCLKConfig+0x93c>
 80041d6:	f5b3 7f00 	cmp.w	r3, #512	; 0x200
 80041da:	d003      	beq.n	80041e4 <HAL_RCCEx_PeriphCLKConfig+0x844>
 80041dc:	f5b3 7f40 	cmp.w	r3, #768	; 0x300
 80041e0:	f040 80e1 	bne.w	80043a6 <HAL_RCCEx_PeriphCLKConfig+0xa06>
    if (ret == HAL_OK)
 80041e4:	2d00      	cmp	r5, #0
 80041e6:	f040 80e6 	bne.w	80043b6 <HAL_RCCEx_PeriphCLKConfig+0xa16>
      __HAL_RCC_RNG_CONFIG(PeriphClkInit->RngClockSelection);
 80041ea:	4a3b      	ldr	r2, [pc, #236]	; (80042d8 <HAL_RCCEx_PeriphCLKConfig+0x938>)
 80041ec:	6d53      	ldr	r3, [r2, #84]	; 0x54
 80041ee:	f423 7340 	bic.w	r3, r3, #768	; 0x300
 80041f2:	f8d4 1080 	ldr.w	r1, [r4, #128]	; 0x80
 80041f6:	430b      	orrs	r3, r1
 80041f8:	6553      	str	r3, [r2, #84]	; 0x54
 80041fa:	e072      	b.n	80042e2 <HAL_RCCEx_PeriphCLKConfig+0x942>
        ret = RCCEx_PLL3_Config(&(PeriphClkInit->PLL3), DIVIDER_R_UPDATE);
 80041fc:	2102      	movs	r1, #2
 80041fe:	f104 0028 	add.w	r0, r4, #40	; 0x28
 8004202:	f7ff fb47 	bl	8003894 <RCCEx_PLL3_Config>
 8004206:	4605      	mov	r5, r0
        break;
 8004208:	e760      	b.n	80040cc <HAL_RCCEx_PeriphCLKConfig+0x72c>
 800420a:	462e      	mov	r6, r5
 800420c:	e781      	b.n	8004112 <HAL_RCCEx_PeriphCLKConfig+0x772>
      if (RCCEx_PLL3_Config(&(PeriphClkInit->PLL3), DIVIDER_R_UPDATE) != HAL_OK)
 800420e:	2102      	movs	r1, #2
 8004210:	f104 0028 	add.w	r0, r4, #40	; 0x28
 8004214:	f7ff fb3e 	bl	8003894 <RCCEx_PLL3_Config>
 8004218:	2800      	cmp	r0, #0
 800421a:	d083      	beq.n	8004124 <HAL_RCCEx_PeriphCLKConfig+0x784>
        status = HAL_ERROR;
 800421c:	2601      	movs	r6, #1
 800421e:	e781      	b.n	8004124 <HAL_RCCEx_PeriphCLKConfig+0x784>
      if (RCCEx_PLL3_Config(&(PeriphClkInit->PLL3), DIVIDER_R_UPDATE) != HAL_OK)
 8004220:	2102      	movs	r1, #2
 8004222:	f104 0028 	add.w	r0, r4, #40	; 0x28
 8004226:	f7ff fb35 	bl	8003894 <RCCEx_PLL3_Config>
 800422a:	2800      	cmp	r0, #0
 800422c:	d08b      	beq.n	8004146 <HAL_RCCEx_PeriphCLKConfig+0x7a6>
        status = HAL_ERROR;
 800422e:	2601      	movs	r6, #1
 8004230:	e789      	b.n	8004146 <HAL_RCCEx_PeriphCLKConfig+0x7a6>
        ret = RCCEx_PLL2_Config(&(PeriphClkInit->PLL2), DIVIDER_P_UPDATE);
 8004232:	2100      	movs	r1, #0
 8004234:	f104 0008 	add.w	r0, r4, #8
 8004238:	f7ff faa6 	bl	8003788 <RCCEx_PLL2_Config>
 800423c:	4605      	mov	r5, r0
    if (ret == HAL_OK)
 800423e:	b97d      	cbnz	r5, 8004260 <HAL_RCCEx_PeriphCLKConfig+0x8c0>
      __HAL_RCC_ADC_CONFIG(PeriphClkInit->AdcClockSelection);
 8004240:	4a25      	ldr	r2, [pc, #148]	; (80042d8 <HAL_RCCEx_PeriphCLKConfig+0x938>)
 8004242:	6d93      	ldr	r3, [r2, #88]	; 0x58
 8004244:	f423 3340 	bic.w	r3, r3, #196608	; 0x30000
 8004248:	f8d4 10a4 	ldr.w	r1, [r4, #164]	; 0xa4
 800424c:	430b      	orrs	r3, r1
 800424e:	6593      	str	r3, [r2, #88]	; 0x58
 8004250:	e791      	b.n	8004176 <HAL_RCCEx_PeriphCLKConfig+0x7d6>
        ret = RCCEx_PLL3_Config(&(PeriphClkInit->PLL3), DIVIDER_R_UPDATE);
 8004252:	2102      	movs	r1, #2
 8004254:	f104 0028 	add.w	r0, r4, #40	; 0x28
 8004258:	f7ff fb1c 	bl	8003894 <RCCEx_PLL3_Config>
 800425c:	4605      	mov	r5, r0
        break;
 800425e:	e7ee      	b.n	800423e <HAL_RCCEx_PeriphCLKConfig+0x89e>
 8004260:	462e      	mov	r6, r5
 8004262:	e788      	b.n	8004176 <HAL_RCCEx_PeriphCLKConfig+0x7d6>
        __HAL_RCC_PLLCLKOUT_ENABLE(RCC_PLL1_DIVQ);
 8004264:	4a1c      	ldr	r2, [pc, #112]	; (80042d8 <HAL_RCCEx_PeriphCLKConfig+0x938>)
 8004266:	6ad3      	ldr	r3, [r2, #44]	; 0x2c
 8004268:	f443 3300 	orr.w	r3, r3, #131072	; 0x20000
 800426c:	62d3      	str	r3, [r2, #44]	; 0x2c
    if (ret == HAL_OK)
 800426e:	b97d      	cbnz	r5, 8004290 <HAL_RCCEx_PeriphCLKConfig+0x8f0>
      __HAL_RCC_USB_CONFIG(PeriphClkInit->UsbClockSelection);
 8004270:	4a19      	ldr	r2, [pc, #100]	; (80042d8 <HAL_RCCEx_PeriphCLKConfig+0x938>)
 8004272:	6d53      	ldr	r3, [r2, #84]	; 0x54
 8004274:	f423 1340 	bic.w	r3, r3, #3145728	; 0x300000
 8004278:	f8d4 1088 	ldr.w	r1, [r4, #136]	; 0x88
 800427c:	430b      	orrs	r3, r1
 800427e:	6553      	str	r3, [r2, #84]	; 0x54
 8004280:	e78a      	b.n	8004198 <HAL_RCCEx_PeriphCLKConfig+0x7f8>
        ret = RCCEx_PLL3_Config(&(PeriphClkInit->PLL3), DIVIDER_Q_UPDATE);
 8004282:	2101      	movs	r1, #1
 8004284:	f104 0028 	add.w	r0, r4, #40	; 0x28
 8004288:	f7ff fb04 	bl	8003894 <RCCEx_PLL3_Config>
 800428c:	4605      	mov	r5, r0
        break;
 800428e:	e7ee      	b.n	800426e <HAL_RCCEx_PeriphCLKConfig+0x8ce>
 8004290:	462e      	mov	r6, r5
 8004292:	e781      	b.n	8004198 <HAL_RCCEx_PeriphCLKConfig+0x7f8>
        __HAL_RCC_PLLCLKOUT_ENABLE(RCC_PLL1_DIVQ);
 8004294:	4a10      	ldr	r2, [pc, #64]	; (80042d8 <HAL_RCCEx_PeriphCLKConfig+0x938>)
 8004296:	6ad3      	ldr	r3, [r2, #44]	; 0x2c
 8004298:	f443 3300 	orr.w	r3, r3, #131072	; 0x20000
 800429c:	62d3      	str	r3, [r2, #44]	; 0x2c
    if (ret == HAL_OK)
 800429e:	b975      	cbnz	r5, 80042be <HAL_RCCEx_PeriphCLKConfig+0x91e>
      __HAL_RCC_SDMMC_CONFIG(PeriphClkInit->SdmmcClockSelection);
 80042a0:	4a0d      	ldr	r2, [pc, #52]	; (80042d8 <HAL_RCCEx_PeriphCLKConfig+0x938>)
 80042a2:	6cd3      	ldr	r3, [r2, #76]	; 0x4c
 80042a4:	f423 3380 	bic.w	r3, r3, #65536	; 0x10000
 80042a8:	6d21      	ldr	r1, [r4, #80]	; 0x50
 80042aa:	430b      	orrs	r3, r1
 80042ac:	64d3      	str	r3, [r2, #76]	; 0x4c
 80042ae:	e780      	b.n	80041b2 <HAL_RCCEx_PeriphCLKConfig+0x812>
        ret = RCCEx_PLL2_Config(&(PeriphClkInit->PLL2), DIVIDER_R_UPDATE);
 80042b0:	2102      	movs	r1, #2
 80042b2:	f104 0008 	add.w	r0, r4, #8
 80042b6:	f7ff fa67 	bl	8003788 <RCCEx_PLL2_Config>
 80042ba:	4605      	mov	r5, r0
        break;
 80042bc:	e7ef      	b.n	800429e <HAL_RCCEx_PeriphCLKConfig+0x8fe>
 80042be:	462e      	mov	r6, r5
 80042c0:	e777      	b.n	80041b2 <HAL_RCCEx_PeriphCLKConfig+0x812>
    if (RCCEx_PLL3_Config(&(PeriphClkInit->PLL3), DIVIDER_R_UPDATE) != HAL_OK)
 80042c2:	2102      	movs	r1, #2
 80042c4:	f104 0028 	add.w	r0, r4, #40	; 0x28
 80042c8:	f7ff fae4 	bl	8003894 <RCCEx_PLL3_Config>
 80042cc:	2800      	cmp	r0, #0
 80042ce:	f43f af75 	beq.w	80041bc <HAL_RCCEx_PeriphCLKConfig+0x81c>
      status = HAL_ERROR;
 80042d2:	2601      	movs	r6, #1
 80042d4:	e772      	b.n	80041bc <HAL_RCCEx_PeriphCLKConfig+0x81c>
 80042d6:	bf00      	nop
 80042d8:	58024400 	.word	0x58024400
    switch (PeriphClkInit->RngClockSelection)
 80042dc:	2b00      	cmp	r3, #0
 80042de:	d081      	beq.n	80041e4 <HAL_RCCEx_PeriphCLKConfig+0x844>
 80042e0:	2601      	movs	r6, #1
  if (((PeriphClkInit->PeriphClockSelection) & RCC_PERIPHCLK_SWPMI1) == RCC_PERIPHCLK_SWPMI1)
 80042e2:	6823      	ldr	r3, [r4, #0]
 80042e4:	f413 1f80 	tst.w	r3, #1048576	; 0x100000
 80042e8:	d006      	beq.n	80042f8 <HAL_RCCEx_PeriphCLKConfig+0x958>
    __HAL_RCC_SWPMI1_CONFIG(PeriphClkInit->Swpmi1ClockSelection);
 80042ea:	4a4f      	ldr	r2, [pc, #316]	; (8004428 <HAL_RCCEx_PeriphCLKConfig+0xa88>)
 80042ec:	6d13      	ldr	r3, [r2, #80]	; 0x50
 80042ee:	f023 4300 	bic.w	r3, r3, #2147483648	; 0x80000000
 80042f2:	6f61      	ldr	r1, [r4, #116]	; 0x74
 80042f4:	430b      	orrs	r3, r1
 80042f6:	6513      	str	r3, [r2, #80]	; 0x50
  if (((PeriphClkInit->PeriphClockSelection) & RCC_PERIPHCLK_HRTIM1) == RCC_PERIPHCLK_HRTIM1)
 80042f8:	6823      	ldr	r3, [r4, #0]
 80042fa:	f013 5f80 	tst.w	r3, #268435456	; 0x10000000
 80042fe:	d007      	beq.n	8004310 <HAL_RCCEx_PeriphCLKConfig+0x970>
    __HAL_RCC_HRTIM1_CONFIG(PeriphClkInit->Hrtim1ClockSelection);
 8004300:	4a49      	ldr	r2, [pc, #292]	; (8004428 <HAL_RCCEx_PeriphCLKConfig+0xa88>)
 8004302:	6913      	ldr	r3, [r2, #16]
 8004304:	f423 4380 	bic.w	r3, r3, #16384	; 0x4000
 8004308:	f8d4 10b8 	ldr.w	r1, [r4, #184]	; 0xb8
 800430c:	430b      	orrs	r3, r1
 800430e:	6113      	str	r3, [r2, #16]
  if (((PeriphClkInit->PeriphClockSelection) & RCC_PERIPHCLK_DFSDM1) == RCC_PERIPHCLK_DFSDM1)
 8004310:	6823      	ldr	r3, [r4, #0]
 8004312:	f413 1f00 	tst.w	r3, #2097152	; 0x200000
 8004316:	d006      	beq.n	8004326 <HAL_RCCEx_PeriphCLKConfig+0x986>
    __HAL_RCC_DFSDM1_CONFIG(PeriphClkInit->Dfsdm1ClockSelection);
 8004318:	4a43      	ldr	r2, [pc, #268]	; (8004428 <HAL_RCCEx_PeriphCLKConfig+0xa88>)
 800431a:	6d13      	ldr	r3, [r2, #80]	; 0x50
 800431c:	f023 7380 	bic.w	r3, r3, #16777216	; 0x1000000
 8004320:	6ee1      	ldr	r1, [r4, #108]	; 0x6c
 8004322:	430b      	orrs	r3, r1
 8004324:	6513      	str	r3, [r2, #80]	; 0x50
  if (((PeriphClkInit->PeriphClockSelection) & RCC_PERIPHCLK_TIM) == RCC_PERIPHCLK_TIM)
 8004326:	6823      	ldr	r3, [r4, #0]
 8004328:	f013 4f80 	tst.w	r3, #1073741824	; 0x40000000
 800432c:	d009      	beq.n	8004342 <HAL_RCCEx_PeriphCLKConfig+0x9a2>
    __HAL_RCC_TIMCLKPRESCALER(PeriphClkInit->TIMPresSelection);
 800432e:	4b3e      	ldr	r3, [pc, #248]	; (8004428 <HAL_RCCEx_PeriphCLKConfig+0xa88>)
 8004330:	691a      	ldr	r2, [r3, #16]
 8004332:	f422 4200 	bic.w	r2, r2, #32768	; 0x8000
 8004336:	611a      	str	r2, [r3, #16]
 8004338:	691a      	ldr	r2, [r3, #16]
 800433a:	f8d4 10bc 	ldr.w	r1, [r4, #188]	; 0xbc
 800433e:	430a      	orrs	r2, r1
 8004340:	611a      	str	r2, [r3, #16]
  if (((PeriphClkInit->PeriphClockSelection) & RCC_PERIPHCLK_CKPER) == RCC_PERIPHCLK_CKPER)
 8004342:	6823      	ldr	r3, [r4, #0]
 8004344:	2b00      	cmp	r3, #0
 8004346:	da06      	bge.n	8004356 <HAL_RCCEx_PeriphCLKConfig+0x9b6>
    __HAL_RCC_CLKP_CONFIG(PeriphClkInit->CkperClockSelection);
 8004348:	4a37      	ldr	r2, [pc, #220]	; (8004428 <HAL_RCCEx_PeriphCLKConfig+0xa88>)
 800434a:	6cd3      	ldr	r3, [r2, #76]	; 0x4c
 800434c:	f023 5340 	bic.w	r3, r3, #805306368	; 0x30000000
 8004350:	6d61      	ldr	r1, [r4, #84]	; 0x54
 8004352:	430b      	orrs	r3, r1
 8004354:	64d3      	str	r3, [r2, #76]	; 0x4c
  if (((PeriphClkInit->PeriphClockSelection) & RCC_PERIPHCLK_CEC) == RCC_PERIPHCLK_CEC)
 8004356:	6823      	ldr	r3, [r4, #0]
 8004358:	f413 0f00 	tst.w	r3, #8388608	; 0x800000
 800435c:	d007      	beq.n	800436e <HAL_RCCEx_PeriphCLKConfig+0x9ce>
    __HAL_RCC_CEC_CONFIG(PeriphClkInit->CecClockSelection);
 800435e:	4a32      	ldr	r2, [pc, #200]	; (8004428 <HAL_RCCEx_PeriphCLKConfig+0xa88>)
 8004360:	6d53      	ldr	r3, [r2, #84]	; 0x54
 8004362:	f423 0340 	bic.w	r3, r3, #12582912	; 0xc00000
 8004366:	f8d4 108c 	ldr.w	r1, [r4, #140]	; 0x8c
 800436a:	430b      	orrs	r3, r1
 800436c:	6553      	str	r3, [r2, #84]	; 0x54
  if (((PeriphClkInit->PeriphClockSelection) & RCC_PERIPHCLK_PLL2_DIVP) == RCC_PERIPHCLK_PLL2_DIVP)
 800436e:	6863      	ldr	r3, [r4, #4]
 8004370:	f013 0f01 	tst.w	r3, #1
 8004374:	d121      	bne.n	80043ba <HAL_RCCEx_PeriphCLKConfig+0xa1a>
  if (((PeriphClkInit->PeriphClockSelection) & RCC_PERIPHCLK_PLL2_DIVQ) == RCC_PERIPHCLK_PLL2_DIVQ)
 8004376:	6863      	ldr	r3, [r4, #4]
 8004378:	f013 0f02 	tst.w	r3, #2
 800437c:	d126      	bne.n	80043cc <HAL_RCCEx_PeriphCLKConfig+0xa2c>
  if (((PeriphClkInit->PeriphClockSelection) & RCC_PERIPHCLK_PLL2_DIVR) == RCC_PERIPHCLK_PLL2_DIVR)
 800437e:	6863      	ldr	r3, [r4, #4]
 8004380:	f013 0f04 	tst.w	r3, #4
 8004384:	d12b      	bne.n	80043de <HAL_RCCEx_PeriphCLKConfig+0xa3e>
  if (((PeriphClkInit->PeriphClockSelection) & RCC_PERIPHCLK_PLL3_DIVP) == RCC_PERIPHCLK_PLL3_DIVP)
 8004386:	6863      	ldr	r3, [r4, #4]
 8004388:	f013 0f08 	tst.w	r3, #8
 800438c:	d130      	bne.n	80043f0 <HAL_RCCEx_PeriphCLKConfig+0xa50>
  if (((PeriphClkInit->PeriphClockSelection) & RCC_PERIPHCLK_PLL3_DIVQ) == RCC_PERIPHCLK_PLL3_DIVQ)
 800438e:	6863      	ldr	r3, [r4, #4]
 8004390:	f013 0f10 	tst.w	r3, #16
 8004394:	d135      	bne.n	8004402 <HAL_RCCEx_PeriphCLKConfig+0xa62>
  if (((PeriphClkInit->PeriphClockSelection) & RCC_PERIPHCLK_PLL3_DIVR) == RCC_PERIPHCLK_PLL3_DIVR)
 8004396:	6863      	ldr	r3, [r4, #4]
 8004398:	f013 0f20 	tst.w	r3, #32
 800439c:	d13a      	bne.n	8004414 <HAL_RCCEx_PeriphCLKConfig+0xa74>
  if (status == HAL_OK)
 800439e:	b106      	cbz	r6, 80043a2 <HAL_RCCEx_PeriphCLKConfig+0xa02>
  return HAL_ERROR;
 80043a0:	2601      	movs	r6, #1
}
 80043a2:	4630      	mov	r0, r6
 80043a4:	bdf8      	pop	{r3, r4, r5, r6, r7, pc}
    switch (PeriphClkInit->RngClockSelection)
 80043a6:	2601      	movs	r6, #1
 80043a8:	e79b      	b.n	80042e2 <HAL_RCCEx_PeriphCLKConfig+0x942>
        __HAL_RCC_PLLCLKOUT_ENABLE(RCC_PLL1_DIVQ);
 80043aa:	4a1f      	ldr	r2, [pc, #124]	; (8004428 <HAL_RCCEx_PeriphCLKConfig+0xa88>)
 80043ac:	6ad3      	ldr	r3, [r2, #44]	; 0x2c
 80043ae:	f443 3300 	orr.w	r3, r3, #131072	; 0x20000
 80043b2:	62d3      	str	r3, [r2, #44]	; 0x2c
        break;
 80043b4:	e716      	b.n	80041e4 <HAL_RCCEx_PeriphCLKConfig+0x844>
 80043b6:	462e      	mov	r6, r5
 80043b8:	e793      	b.n	80042e2 <HAL_RCCEx_PeriphCLKConfig+0x942>
    ret = RCCEx_PLL2_Config(&(PeriphClkInit->PLL2), DIVIDER_P_UPDATE);
 80043ba:	2100      	movs	r1, #0
 80043bc:	f104 0008 	add.w	r0, r4, #8
 80043c0:	f7ff f9e2 	bl	8003788 <RCCEx_PLL2_Config>
    if (ret == HAL_OK)
 80043c4:	2800      	cmp	r0, #0
 80043c6:	d0d6      	beq.n	8004376 <HAL_RCCEx_PeriphCLKConfig+0x9d6>
      status = ret;
 80043c8:	4606      	mov	r6, r0
 80043ca:	e7d4      	b.n	8004376 <HAL_RCCEx_PeriphCLKConfig+0x9d6>
    ret = RCCEx_PLL2_Config(&(PeriphClkInit->PLL2), DIVIDER_Q_UPDATE);
 80043cc:	2101      	movs	r1, #1
 80043ce:	f104 0008 	add.w	r0, r4, #8
 80043d2:	f7ff f9d9 	bl	8003788 <RCCEx_PLL2_Config>
    if (ret == HAL_OK)
 80043d6:	2800      	cmp	r0, #0
 80043d8:	d0d1      	beq.n	800437e <HAL_RCCEx_PeriphCLKConfig+0x9de>
      status = ret;
 80043da:	4606      	mov	r6, r0
 80043dc:	e7cf      	b.n	800437e <HAL_RCCEx_PeriphCLKConfig+0x9de>
    ret = RCCEx_PLL2_Config(&(PeriphClkInit->PLL2), DIVIDER_R_UPDATE);
 80043de:	2102      	movs	r1, #2
 80043e0:	f104 0008 	add.w	r0, r4, #8
 80043e4:	f7ff f9d0 	bl	8003788 <RCCEx_PLL2_Config>
    if (ret == HAL_OK)
 80043e8:	2800      	cmp	r0, #0
 80043ea:	d0cc      	beq.n	8004386 <HAL_RCCEx_PeriphCLKConfig+0x9e6>
      status = ret;
 80043ec:	4606      	mov	r6, r0
 80043ee:	e7ca      	b.n	8004386 <HAL_RCCEx_PeriphCLKConfig+0x9e6>
    ret = RCCEx_PLL3_Config(&(PeriphClkInit->PLL3), DIVIDER_P_UPDATE);
 80043f0:	2100      	movs	r1, #0
 80043f2:	f104 0028 	add.w	r0, r4, #40	; 0x28
 80043f6:	f7ff fa4d 	bl	8003894 <RCCEx_PLL3_Config>
    if (ret == HAL_OK)
 80043fa:	2800      	cmp	r0, #0
 80043fc:	d0c7      	beq.n	800438e <HAL_RCCEx_PeriphCLKConfig+0x9ee>
      status = ret;
 80043fe:	4606      	mov	r6, r0
 8004400:	e7c5      	b.n	800438e <HAL_RCCEx_PeriphCLKConfig+0x9ee>
    ret = RCCEx_PLL3_Config(&(PeriphClkInit->PLL3), DIVIDER_Q_UPDATE);
 8004402:	2101      	movs	r1, #1
 8004404:	f104 0028 	add.w	r0, r4, #40	; 0x28
 8004408:	f7ff fa44 	bl	8003894 <RCCEx_PLL3_Config>
    if (ret == HAL_OK)
 800440c:	2800      	cmp	r0, #0
 800440e:	d0c2      	beq.n	8004396 <HAL_RCCEx_PeriphCLKConfig+0x9f6>
      status = ret;
 8004410:	4606      	mov	r6, r0
 8004412:	e7c0      	b.n	8004396 <HAL_RCCEx_PeriphCLKConfig+0x9f6>
    ret = RCCEx_PLL3_Config(&(PeriphClkInit->PLL3), DIVIDER_R_UPDATE);
 8004414:	2102      	movs	r1, #2
 8004416:	f104 0028 	add.w	r0, r4, #40	; 0x28
 800441a:	f7ff fa3b 	bl	8003894 <RCCEx_PLL3_Config>
    if (ret == HAL_OK)
 800441e:	2800      	cmp	r0, #0
 8004420:	d0bd      	beq.n	800439e <HAL_RCCEx_PeriphCLKConfig+0x9fe>
      status = ret;
 8004422:	4606      	mov	r6, r0
 8004424:	e7bb      	b.n	800439e <HAL_RCCEx_PeriphCLKConfig+0x9fe>
 8004426:	bf00      	nop
 8004428:	58024400 	.word	0x58024400

0800442c <HAL_RCCEx_GetD3PCLK1Freq>:
{
 800442c:	b508      	push	{r3, lr}
  return (HAL_RCC_GetHCLKFreq() >> (D1CorePrescTable[(RCC->D3CFGR & RCC_D3CFGR_D3PPRE) >> RCC_D3CFGR_D3PPRE_Pos] & 0x1FU));
 800442e:	f7ff f977 	bl	8003720 <HAL_RCC_GetHCLKFreq>
 8004432:	4b05      	ldr	r3, [pc, #20]	; (8004448 <HAL_RCCEx_GetD3PCLK1Freq+0x1c>)
 8004434:	6a1b      	ldr	r3, [r3, #32]
 8004436:	f3c3 1302 	ubfx	r3, r3, #4, #3
 800443a:	4a04      	ldr	r2, [pc, #16]	; (800444c <HAL_RCCEx_GetD3PCLK1Freq+0x20>)
 800443c:	5cd3      	ldrb	r3, [r2, r3]
 800443e:	f003 031f 	and.w	r3, r3, #31
}
 8004442:	40d8      	lsrs	r0, r3
 8004444:	bd08      	pop	{r3, pc}
 8004446:	bf00      	nop
 8004448:	58024400 	.word	0x58024400
 800444c:	08008aac 	.word	0x08008aac

08004450 <HAL_RCCEx_GetPLL2ClockFreq>:
{
 8004450:	b510      	push	{r4, lr}
  pllsource = (RCC->PLLCKSELR & RCC_PLLCKSELR_PLLSRC);
 8004452:	4a77      	ldr	r2, [pc, #476]	; (8004630 <HAL_RCCEx_GetPLL2ClockFreq+0x1e0>)
 8004454:	6a91      	ldr	r1, [r2, #40]	; 0x28
  pll2m = ((RCC->PLLCKSELR & RCC_PLLCKSELR_DIVM2) >> 12);
 8004456:	6a94      	ldr	r4, [r2, #40]	; 0x28
 8004458:	f3c4 3e05 	ubfx	lr, r4, #12, #6
  pll2fracen = (RCC->PLLCFGR & RCC_PLLCFGR_PLL2FRACEN) >> RCC_PLLCFGR_PLL2FRACEN_Pos;
 800445c:	6ad3      	ldr	r3, [r2, #44]	; 0x2c
 800445e:	f3c3 1c00 	ubfx	ip, r3, #4, #1
  fracn2 = (float_t)(uint32_t)(pll2fracen * ((RCC->PLL2FRACR & RCC_PLL2FRACR_FRACN2) >> 3));
 8004462:	6bd3      	ldr	r3, [r2, #60]	; 0x3c
 8004464:	f3c3 03cc 	ubfx	r3, r3, #3, #13
 8004468:	fb0c f303 	mul.w	r3, ip, r3
  if (pll2m != 0U)
 800446c:	f414 3f7c 	tst.w	r4, #258048	; 0x3f000
 8004470:	f000 80d8 	beq.w	8004624 <HAL_RCCEx_GetPLL2ClockFreq+0x1d4>
 8004474:	f001 0103 	and.w	r1, r1, #3
 8004478:	ee07 3a90 	vmov	s15, r3
 800447c:	eef8 7a67 	vcvt.f32.u32	s15, s15
    switch (pllsource)
 8004480:	2901      	cmp	r1, #1
 8004482:	d065      	beq.n	8004550 <HAL_RCCEx_GetPLL2ClockFreq+0x100>
 8004484:	2902      	cmp	r1, #2
 8004486:	f000 80b0 	beq.w	80045ea <HAL_RCCEx_GetPLL2ClockFreq+0x19a>
 800448a:	b1e1      	cbz	r1, 80044c6 <HAL_RCCEx_GetPLL2ClockFreq+0x76>
        pll2vco = ((float_t)CSI_VALUE / (float_t)pll2m) * ((float_t)(uint32_t)(RCC->PLL2DIVR & RCC_PLL2DIVR_N2) + (fracn2 / (float_t)0x2000) + (float_t)1);
 800448c:	ee07 ea10 	vmov	s14, lr
 8004490:	eeb8 7a47 	vcvt.f32.u32	s14, s14
 8004494:	ed9f 6a67 	vldr	s12, [pc, #412]	; 8004634 <HAL_RCCEx_GetPLL2ClockFreq+0x1e4>
 8004498:	eec6 6a07 	vdiv.f32	s13, s12, s14
 800449c:	4b64      	ldr	r3, [pc, #400]	; (8004630 <HAL_RCCEx_GetPLL2ClockFreq+0x1e0>)
 800449e:	6b9b      	ldr	r3, [r3, #56]	; 0x38
 80044a0:	f3c3 0308 	ubfx	r3, r3, #0, #9
 80044a4:	ee07 3a10 	vmov	s14, r3
 80044a8:	eeb8 7a47 	vcvt.f32.u32	s14, s14
 80044ac:	ed9f 6a62 	vldr	s12, [pc, #392]	; 8004638 <HAL_RCCEx_GetPLL2ClockFreq+0x1e8>
 80044b0:	ee67 7a86 	vmul.f32	s15, s15, s12
 80044b4:	ee77 7a27 	vadd.f32	s15, s14, s15
 80044b8:	eeb7 7a00 	vmov.f32	s14, #112	; 0x3f800000  1.0
 80044bc:	ee77 7a87 	vadd.f32	s15, s15, s14
 80044c0:	ee66 6aa7 	vmul.f32	s13, s13, s15
        break;
 80044c4:	e060      	b.n	8004588 <HAL_RCCEx_GetPLL2ClockFreq+0x138>
        if (__HAL_RCC_GET_FLAG(RCC_FLAG_HSIDIV) != 0U)
 80044c6:	6813      	ldr	r3, [r2, #0]
 80044c8:	f013 0f20 	tst.w	r3, #32
 80044cc:	d023      	beq.n	8004516 <HAL_RCCEx_GetPLL2ClockFreq+0xc6>
          hsivalue = (HSI_VALUE >> (__HAL_RCC_GET_HSI_DIVIDER() >> 3));
 80044ce:	4611      	mov	r1, r2
 80044d0:	6812      	ldr	r2, [r2, #0]
 80044d2:	f3c2 02c1 	ubfx	r2, r2, #3, #2
 80044d6:	4b59      	ldr	r3, [pc, #356]	; (800463c <HAL_RCCEx_GetPLL2ClockFreq+0x1ec>)
 80044d8:	40d3      	lsrs	r3, r2
          pll2vco = ((float_t)hsivalue / (float_t)pll2m) * ((float_t)(uint32_t)(RCC->PLL2DIVR & RCC_PLL2DIVR_N2) + (fracn2 / (float_t)0x2000) + (float_t)1);
 80044da:	ee07 3a10 	vmov	s14, r3
 80044de:	eeb8 7a47 	vcvt.f32.u32	s14, s14
 80044e2:	ee06 ea90 	vmov	s13, lr
 80044e6:	eeb8 6a66 	vcvt.f32.u32	s12, s13
 80044ea:	eec7 6a06 	vdiv.f32	s13, s14, s12
 80044ee:	6b8b      	ldr	r3, [r1, #56]	; 0x38
 80044f0:	f3c3 0308 	ubfx	r3, r3, #0, #9
 80044f4:	ee07 3a10 	vmov	s14, r3
 80044f8:	eeb8 7a47 	vcvt.f32.u32	s14, s14
 80044fc:	ed9f 6a4e 	vldr	s12, [pc, #312]	; 8004638 <HAL_RCCEx_GetPLL2ClockFreq+0x1e8>
 8004500:	ee67 7a86 	vmul.f32	s15, s15, s12
 8004504:	ee77 7a27 	vadd.f32	s15, s14, s15
 8004508:	eeb7 7a00 	vmov.f32	s14, #112	; 0x3f800000  1.0
 800450c:	ee77 7a87 	vadd.f32	s15, s15, s14
 8004510:	ee66 6aa7 	vmul.f32	s13, s13, s15
 8004514:	e038      	b.n	8004588 <HAL_RCCEx_GetPLL2ClockFreq+0x138>
          pll2vco = ((float_t)HSI_VALUE / (float_t)pll2m) * ((float_t)(uint32_t)(RCC->PLL2DIVR & RCC_PLL2DIVR_N2) + (fracn2 / (float_t)0x2000) + (float_t)1);
 8004516:	ee07 ea10 	vmov	s14, lr
 800451a:	eeb8 7a47 	vcvt.f32.u32	s14, s14
 800451e:	ed9f 6a48 	vldr	s12, [pc, #288]	; 8004640 <HAL_RCCEx_GetPLL2ClockFreq+0x1f0>
 8004522:	eec6 6a07 	vdiv.f32	s13, s12, s14
 8004526:	4b42      	ldr	r3, [pc, #264]	; (8004630 <HAL_RCCEx_GetPLL2ClockFreq+0x1e0>)
 8004528:	6b9b      	ldr	r3, [r3, #56]	; 0x38
 800452a:	f3c3 0308 	ubfx	r3, r3, #0, #9
 800452e:	ee07 3a10 	vmov	s14, r3
 8004532:	eeb8 7a47 	vcvt.f32.u32	s14, s14
 8004536:	ed9f 6a40 	vldr	s12, [pc, #256]	; 8004638 <HAL_RCCEx_GetPLL2ClockFreq+0x1e8>
 800453a:	ee67 7a86 	vmul.f32	s15, s15, s12
 800453e:	ee77 7a27 	vadd.f32	s15, s14, s15
 8004542:	eeb7 7a00 	vmov.f32	s14, #112	; 0x3f800000  1.0
 8004546:	ee77 7a87 	vadd.f32	s15, s15, s14
 800454a:	ee66 6aa7 	vmul.f32	s13, s13, s15
 800454e:	e01b      	b.n	8004588 <HAL_RCCEx_GetPLL2ClockFreq+0x138>
        pll2vco = ((float_t)CSI_VALUE / (float_t)pll2m) * ((float_t)(uint32_t)(RCC->PLL2DIVR & RCC_PLL2DIVR_N2) + (fracn2 / (float_t)0x2000) + (float_t)1);
 8004550:	ee07 ea10 	vmov	s14, lr
 8004554:	eeb8 7a47 	vcvt.f32.u32	s14, s14
 8004558:	ed9f 6a36 	vldr	s12, [pc, #216]	; 8004634 <HAL_RCCEx_GetPLL2ClockFreq+0x1e4>
 800455c:	eec6 6a07 	vdiv.f32	s13, s12, s14
 8004560:	4b33      	ldr	r3, [pc, #204]	; (8004630 <HAL_RCCEx_GetPLL2ClockFreq+0x1e0>)
 8004562:	6b9b      	ldr	r3, [r3, #56]	; 0x38
 8004564:	f3c3 0308 	ubfx	r3, r3, #0, #9
 8004568:	ee07 3a10 	vmov	s14, r3
 800456c:	eeb8 7a47 	vcvt.f32.u32	s14, s14
 8004570:	ed9f 6a31 	vldr	s12, [pc, #196]	; 8004638 <HAL_RCCEx_GetPLL2ClockFreq+0x1e8>
 8004574:	ee67 7a86 	vmul.f32	s15, s15, s12
 8004578:	ee77 7a27 	vadd.f32	s15, s14, s15
 800457c:	eeb7 7a00 	vmov.f32	s14, #112	; 0x3f800000  1.0
 8004580:	ee77 7a87 	vadd.f32	s15, s15, s14
 8004584:	ee66 6aa7 	vmul.f32	s13, s13, s15
    PLL2_Clocks->PLL2_P_Frequency = (uint32_t)(float_t)(pll2vco / ((float_t)(uint32_t)((RCC->PLL2DIVR & RCC_PLL2DIVR_P2) >> 9)  + (float_t)1)) ;
 8004588:	4a29      	ldr	r2, [pc, #164]	; (8004630 <HAL_RCCEx_GetPLL2ClockFreq+0x1e0>)
 800458a:	6b93      	ldr	r3, [r2, #56]	; 0x38
 800458c:	f3c3 2346 	ubfx	r3, r3, #9, #7
 8004590:	ee07 3a10 	vmov	s14, r3
 8004594:	eeb8 7a47 	vcvt.f32.u32	s14, s14
 8004598:	eeb7 6a00 	vmov.f32	s12, #112	; 0x3f800000  1.0
 800459c:	ee37 7a06 	vadd.f32	s14, s14, s12
 80045a0:	eec6 7a87 	vdiv.f32	s15, s13, s14
 80045a4:	eefc 7ae7 	vcvt.u32.f32	s15, s15
 80045a8:	edc0 7a00 	vstr	s15, [r0]
    PLL2_Clocks->PLL2_Q_Frequency = (uint32_t)(float_t)(pll2vco / ((float_t)(uint32_t)((RCC->PLL2DIVR & RCC_PLL2DIVR_Q2) >> 16) + (float_t)1)) ;
 80045ac:	6b93      	ldr	r3, [r2, #56]	; 0x38
 80045ae:	f3c3 4306 	ubfx	r3, r3, #16, #7
 80045b2:	ee07 3a10 	vmov	s14, r3
 80045b6:	eeb8 7a47 	vcvt.f32.u32	s14, s14
 80045ba:	ee37 7a06 	vadd.f32	s14, s14, s12
 80045be:	eec6 7a87 	vdiv.f32	s15, s13, s14
 80045c2:	eefc 7ae7 	vcvt.u32.f32	s15, s15
 80045c6:	edc0 7a01 	vstr	s15, [r0, #4]
    PLL2_Clocks->PLL2_R_Frequency = (uint32_t)(float_t)(pll2vco / ((float_t)(uint32_t)((RCC->PLL2DIVR & RCC_PLL2DIVR_R2) >> 24) + (float_t)1)) ;
 80045ca:	6b93      	ldr	r3, [r2, #56]	; 0x38
 80045cc:	f3c3 6306 	ubfx	r3, r3, #24, #7
 80045d0:	ee07 3a90 	vmov	s15, r3
 80045d4:	eef8 7a67 	vcvt.f32.u32	s15, s15
 80045d8:	ee77 7a86 	vadd.f32	s15, s15, s12
 80045dc:	ee86 7aa7 	vdiv.f32	s14, s13, s15
 80045e0:	eebc 7ac7 	vcvt.u32.f32	s14, s14
 80045e4:	ed80 7a02 	vstr	s14, [r0, #8]
}
 80045e8:	bd10      	pop	{r4, pc}
        pll2vco = ((float_t)HSE_VALUE / (float_t)pll2m) * ((float_t)(uint32_t)(RCC->PLL2DIVR & RCC_PLL2DIVR_N2) + (fracn2 / (float_t)0x2000) + (float_t)1);
 80045ea:	ee07 ea10 	vmov	s14, lr
 80045ee:	eeb8 7a47 	vcvt.f32.u32	s14, s14
 80045f2:	ed9f 6a14 	vldr	s12, [pc, #80]	; 8004644 <HAL_RCCEx_GetPLL2ClockFreq+0x1f4>
 80045f6:	eec6 6a07 	vdiv.f32	s13, s12, s14
 80045fa:	4b0d      	ldr	r3, [pc, #52]	; (8004630 <HAL_RCCEx_GetPLL2ClockFreq+0x1e0>)
 80045fc:	6b9b      	ldr	r3, [r3, #56]	; 0x38
 80045fe:	f3c3 0308 	ubfx	r3, r3, #0, #9
 8004602:	ee07 3a10 	vmov	s14, r3
 8004606:	eeb8 7a47 	vcvt.f32.u32	s14, s14
 800460a:	ed9f 6a0b 	vldr	s12, [pc, #44]	; 8004638 <HAL_RCCEx_GetPLL2ClockFreq+0x1e8>
 800460e:	ee67 7a86 	vmul.f32	s15, s15, s12
 8004612:	ee77 7a27 	vadd.f32	s15, s14, s15
 8004616:	eeb7 7a00 	vmov.f32	s14, #112	; 0x3f800000  1.0
 800461a:	ee77 7a87 	vadd.f32	s15, s15, s14
 800461e:	ee66 6aa7 	vmul.f32	s13, s13, s15
        break;
 8004622:	e7b1      	b.n	8004588 <HAL_RCCEx_GetPLL2ClockFreq+0x138>
    PLL2_Clocks->PLL2_P_Frequency = 0U;
 8004624:	2300      	movs	r3, #0
 8004626:	6003      	str	r3, [r0, #0]
    PLL2_Clocks->PLL2_Q_Frequency = 0U;
 8004628:	6043      	str	r3, [r0, #4]
    PLL2_Clocks->PLL2_R_Frequency = 0U;
 800462a:	6083      	str	r3, [r0, #8]
}
 800462c:	e7dc      	b.n	80045e8 <HAL_RCCEx_GetPLL2ClockFreq+0x198>
 800462e:	bf00      	nop
 8004630:	58024400 	.word	0x58024400
 8004634:	4a742400 	.word	0x4a742400
 8004638:	39000000 	.word	0x39000000
 800463c:	03d09000 	.word	0x03d09000
 8004640:	4c742400 	.word	0x4c742400
 8004644:	4b742400 	.word	0x4b742400

08004648 <HAL_RCCEx_GetPLL3ClockFreq>:
{
 8004648:	b510      	push	{r4, lr}
  pllsource = (RCC->PLLCKSELR & RCC_PLLCKSELR_PLLSRC);
 800464a:	4a77      	ldr	r2, [pc, #476]	; (8004828 <HAL_RCCEx_GetPLL3ClockFreq+0x1e0>)
 800464c:	6a91      	ldr	r1, [r2, #40]	; 0x28
  pll3m = ((RCC->PLLCKSELR & RCC_PLLCKSELR_DIVM3) >> 20)  ;
 800464e:	6a94      	ldr	r4, [r2, #40]	; 0x28
 8004650:	f3c4 5e05 	ubfx	lr, r4, #20, #6
  pll3fracen = (RCC->PLLCFGR & RCC_PLLCFGR_PLL3FRACEN) >> RCC_PLLCFGR_PLL3FRACEN_Pos;
 8004654:	6ad3      	ldr	r3, [r2, #44]	; 0x2c
 8004656:	f3c3 2c00 	ubfx	ip, r3, #8, #1
  fracn3 = (float_t)(uint32_t)(pll3fracen * ((RCC->PLL3FRACR & RCC_PLL3FRACR_FRACN3) >> 3));
 800465a:	6c53      	ldr	r3, [r2, #68]	; 0x44
 800465c:	f3c3 03cc 	ubfx	r3, r3, #3, #13
 8004660:	fb0c f303 	mul.w	r3, ip, r3
  if (pll3m != 0U)
 8004664:	f014 7f7c 	tst.w	r4, #66060288	; 0x3f00000
 8004668:	f000 80d8 	beq.w	800481c <HAL_RCCEx_GetPLL3ClockFreq+0x1d4>
 800466c:	f001 0103 	and.w	r1, r1, #3
 8004670:	ee07 3a90 	vmov	s15, r3
 8004674:	eef8 7a67 	vcvt.f32.u32	s15, s15
    switch (pllsource)
 8004678:	2901      	cmp	r1, #1
 800467a:	d065      	beq.n	8004748 <HAL_RCCEx_GetPLL3ClockFreq+0x100>
 800467c:	2902      	cmp	r1, #2
 800467e:	f000 80b0 	beq.w	80047e2 <HAL_RCCEx_GetPLL3ClockFreq+0x19a>
 8004682:	b1e1      	cbz	r1, 80046be <HAL_RCCEx_GetPLL3ClockFreq+0x76>
        pll3vco = ((float_t)CSI_VALUE / (float_t)pll3m) * ((float_t)(uint32_t)(RCC->PLL3DIVR & RCC_PLL3DIVR_N3) + (fracn3 / (float_t)0x2000) + (float_t)1);
 8004684:	ee07 ea10 	vmov	s14, lr
 8004688:	eeb8 7a47 	vcvt.f32.u32	s14, s14
 800468c:	ed9f 6a67 	vldr	s12, [pc, #412]	; 800482c <HAL_RCCEx_GetPLL3ClockFreq+0x1e4>
 8004690:	eec6 6a07 	vdiv.f32	s13, s12, s14
 8004694:	4b64      	ldr	r3, [pc, #400]	; (8004828 <HAL_RCCEx_GetPLL3ClockFreq+0x1e0>)
 8004696:	6c1b      	ldr	r3, [r3, #64]	; 0x40
 8004698:	f3c3 0308 	ubfx	r3, r3, #0, #9
 800469c:	ee07 3a10 	vmov	s14, r3
 80046a0:	eeb8 7a47 	vcvt.f32.u32	s14, s14
 80046a4:	ed9f 6a62 	vldr	s12, [pc, #392]	; 8004830 <HAL_RCCEx_GetPLL3ClockFreq+0x1e8>
 80046a8:	ee67 7a86 	vmul.f32	s15, s15, s12
 80046ac:	ee77 7a27 	vadd.f32	s15, s14, s15
 80046b0:	eeb7 7a00 	vmov.f32	s14, #112	; 0x3f800000  1.0
 80046b4:	ee77 7a87 	vadd.f32	s15, s15, s14
 80046b8:	ee66 6aa7 	vmul.f32	s13, s13, s15
        break;
 80046bc:	e060      	b.n	8004780 <HAL_RCCEx_GetPLL3ClockFreq+0x138>
        if (__HAL_RCC_GET_FLAG(RCC_FLAG_HSIDIV) != 0U)
 80046be:	6813      	ldr	r3, [r2, #0]
 80046c0:	f013 0f20 	tst.w	r3, #32
 80046c4:	d023      	beq.n	800470e <HAL_RCCEx_GetPLL3ClockFreq+0xc6>
          hsivalue = (HSI_VALUE >> (__HAL_RCC_GET_HSI_DIVIDER() >> 3));
 80046c6:	4611      	mov	r1, r2
 80046c8:	6812      	ldr	r2, [r2, #0]
 80046ca:	f3c2 02c1 	ubfx	r2, r2, #3, #2
 80046ce:	4b59      	ldr	r3, [pc, #356]	; (8004834 <HAL_RCCEx_GetPLL3ClockFreq+0x1ec>)
 80046d0:	40d3      	lsrs	r3, r2
          pll3vco = ((float_t)hsivalue / (float_t)pll3m) * ((float_t)(uint32_t)(RCC->PLL3DIVR & RCC_PLL3DIVR_N3) + (fracn3 / (float_t)0x2000) + (float_t)1);
 80046d2:	ee07 3a10 	vmov	s14, r3
 80046d6:	eeb8 7a47 	vcvt.f32.u32	s14, s14
 80046da:	ee06 ea90 	vmov	s13, lr
 80046de:	eeb8 6a66 	vcvt.f32.u32	s12, s13
 80046e2:	eec7 6a06 	vdiv.f32	s13, s14, s12
 80046e6:	6c0b      	ldr	r3, [r1, #64]	; 0x40
 80046e8:	f3c3 0308 	ubfx	r3, r3, #0, #9
 80046ec:	ee07 3a10 	vmov	s14, r3
 80046f0:	eeb8 7a47 	vcvt.f32.u32	s14, s14
 80046f4:	ed9f 6a4e 	vldr	s12, [pc, #312]	; 8004830 <HAL_RCCEx_GetPLL3ClockFreq+0x1e8>
 80046f8:	ee67 7a86 	vmul.f32	s15, s15, s12
 80046fc:	ee77 7a27 	vadd.f32	s15, s14, s15
 8004700:	eeb7 7a00 	vmov.f32	s14, #112	; 0x3f800000  1.0
 8004704:	ee77 7a87 	vadd.f32	s15, s15, s14
 8004708:	ee66 6aa7 	vmul.f32	s13, s13, s15
 800470c:	e038      	b.n	8004780 <HAL_RCCEx_GetPLL3ClockFreq+0x138>
          pll3vco = ((float_t)HSI_VALUE / (float_t)pll3m) * ((float_t)(uint32_t)(RCC->PLL3DIVR & RCC_PLL3DIVR_N3) + (fracn3 / (float_t)0x2000) + (float_t)1);
 800470e:	ee07 ea10 	vmov	s14, lr
 8004712:	eeb8 7a47 	vcvt.f32.u32	s14, s14
 8004716:	ed9f 6a48 	vldr	s12, [pc, #288]	; 8004838 <HAL_RCCEx_GetPLL3ClockFreq+0x1f0>
 800471a:	eec6 6a07 	vdiv.f32	s13, s12, s14
 800471e:	4b42      	ldr	r3, [pc, #264]	; (8004828 <HAL_RCCEx_GetPLL3ClockFreq+0x1e0>)
 8004720:	6c1b      	ldr	r3, [r3, #64]	; 0x40
 8004722:	f3c3 0308 	ubfx	r3, r3, #0, #9
 8004726:	ee07 3a10 	vmov	s14, r3
 800472a:	eeb8 7a47 	vcvt.f32.u32	s14, s14
 800472e:	ed9f 6a40 	vldr	s12, [pc, #256]	; 8004830 <HAL_RCCEx_GetPLL3ClockFreq+0x1e8>
 8004732:	ee67 7a86 	vmul.f32	s15, s15, s12
 8004736:	ee77 7a27 	vadd.f32	s15, s14, s15
 800473a:	eeb7 7a00 	vmov.f32	s14, #112	; 0x3f800000  1.0
 800473e:	ee77 7a87 	vadd.f32	s15, s15, s14
 8004742:	ee66 6aa7 	vmul.f32	s13, s13, s15
 8004746:	e01b      	b.n	8004780 <HAL_RCCEx_GetPLL3ClockFreq+0x138>
        pll3vco = ((float_t)CSI_VALUE / (float_t)pll3m) * ((float_t)(uint32_t)(RCC->PLL3DIVR & RCC_PLL3DIVR_N3) + (fracn3 / (float_t)0x2000) + (float_t)1);
 8004748:	ee07 ea10 	vmov	s14, lr
 800474c:	eeb8 7a47 	vcvt.f32.u32	s14, s14
 8004750:	ed9f 6a36 	vldr	s12, [pc, #216]	; 800482c <HAL_RCCEx_GetPLL3ClockFreq+0x1e4>
 8004754:	eec6 6a07 	vdiv.f32	s13, s12, s14
 8004758:	4b33      	ldr	r3, [pc, #204]	; (8004828 <HAL_RCCEx_GetPLL3ClockFreq+0x1e0>)
 800475a:	6c1b      	ldr	r3, [r3, #64]	; 0x40
 800475c:	f3c3 0308 	ubfx	r3, r3, #0, #9
 8004760:	ee07 3a10 	vmov	s14, r3
 8004764:	eeb8 7a47 	vcvt.f32.u32	s14, s14
 8004768:	ed9f 6a31 	vldr	s12, [pc, #196]	; 8004830 <HAL_RCCEx_GetPLL3ClockFreq+0x1e8>
 800476c:	ee67 7a86 	vmul.f32	s15, s15, s12
 8004770:	ee77 7a27 	vadd.f32	s15, s14, s15
 8004774:	eeb7 7a00 	vmov.f32	s14, #112	; 0x3f800000  1.0
 8004778:	ee77 7a87 	vadd.f32	s15, s15, s14
 800477c:	ee66 6aa7 	vmul.f32	s13, s13, s15
    PLL3_Clocks->PLL3_P_Frequency = (uint32_t)(float_t)(pll3vco / ((float_t)(uint32_t)((RCC->PLL3DIVR & RCC_PLL3DIVR_P3) >> 9)  + (float_t)1)) ;
 8004780:	4a29      	ldr	r2, [pc, #164]	; (8004828 <HAL_RCCEx_GetPLL3ClockFreq+0x1e0>)
 8004782:	6c13      	ldr	r3, [r2, #64]	; 0x40
 8004784:	f3c3 2346 	ubfx	r3, r3, #9, #7
 8004788:	ee07 3a10 	vmov	s14, r3
 800478c:	eeb8 7a47 	vcvt.f32.u32	s14, s14
 8004790:	eeb7 6a00 	vmov.f32	s12, #112	; 0x3f800000  1.0
 8004794:	ee37 7a06 	vadd.f32	s14, s14, s12
 8004798:	eec6 7a87 	vdiv.f32	s15, s13, s14
 800479c:	eefc 7ae7 	vcvt.u32.f32	s15, s15
 80047a0:	edc0 7a00 	vstr	s15, [r0]
    PLL3_Clocks->PLL3_Q_Frequency = (uint32_t)(float_t)(pll3vco / ((float_t)(uint32_t)((RCC->PLL3DIVR & RCC_PLL3DIVR_Q3) >> 16) + (float_t)1)) ;
 80047a4:	6c13      	ldr	r3, [r2, #64]	; 0x40
 80047a6:	f3c3 4306 	ubfx	r3, r3, #16, #7
 80047aa:	ee07 3a10 	vmov	s14, r3
 80047ae:	eeb8 7a47 	vcvt.f32.u32	s14, s14
 80047b2:	ee37 7a06 	vadd.f32	s14, s14, s12
 80047b6:	eec6 7a87 	vdiv.f32	s15, s13, s14
 80047ba:	eefc 7ae7 	vcvt.u32.f32	s15, s15
 80047be:	edc0 7a01 	vstr	s15, [r0, #4]
    PLL3_Clocks->PLL3_R_Frequency = (uint32_t)(float_t)(pll3vco / ((float_t)(uint32_t)((RCC->PLL3DIVR & RCC_PLL3DIVR_R3) >> 24) + (float_t)1)) ;
 80047c2:	6c13      	ldr	r3, [r2, #64]	; 0x40
 80047c4:	f3c3 6306 	ubfx	r3, r3, #24, #7
 80047c8:	ee07 3a90 	vmov	s15, r3
 80047cc:	eef8 7a67 	vcvt.f32.u32	s15, s15
 80047d0:	ee77 7a86 	vadd.f32	s15, s15, s12
 80047d4:	ee86 7aa7 	vdiv.f32	s14, s13, s15
 80047d8:	eebc 7ac7 	vcvt.u32.f32	s14, s14
 80047dc:	ed80 7a02 	vstr	s14, [r0, #8]
}
 80047e0:	bd10      	pop	{r4, pc}
        pll3vco = ((float_t)HSE_VALUE / (float_t)pll3m) * ((float_t)(uint32_t)(RCC->PLL3DIVR & RCC_PLL3DIVR_N3) + (fracn3 / (float_t)0x2000) + (float_t)1);
 80047e2:	ee07 ea10 	vmov	s14, lr
 80047e6:	eeb8 7a47 	vcvt.f32.u32	s14, s14
 80047ea:	ed9f 6a14 	vldr	s12, [pc, #80]	; 800483c <HAL_RCCEx_GetPLL3ClockFreq+0x1f4>
 80047ee:	eec6 6a07 	vdiv.f32	s13, s12, s14
 80047f2:	4b0d      	ldr	r3, [pc, #52]	; (8004828 <HAL_RCCEx_GetPLL3ClockFreq+0x1e0>)
 80047f4:	6c1b      	ldr	r3, [r3, #64]	; 0x40
 80047f6:	f3c3 0308 	ubfx	r3, r3, #0, #9
 80047fa:	ee07 3a10 	vmov	s14, r3
 80047fe:	eeb8 7a47 	vcvt.f32.u32	s14, s14
 8004802:	ed9f 6a0b 	vldr	s12, [pc, #44]	; 8004830 <HAL_RCCEx_GetPLL3ClockFreq+0x1e8>
 8004806:	ee67 7a86 	vmul.f32	s15, s15, s12
 800480a:	ee77 7a27 	vadd.f32	s15, s14, s15
 800480e:	eeb7 7a00 	vmov.f32	s14, #112	; 0x3f800000  1.0
 8004812:	ee77 7a87 	vadd.f32	s15, s15, s14
 8004816:	ee66 6aa7 	vmul.f32	s13, s13, s15
        break;
 800481a:	e7b1      	b.n	8004780 <HAL_RCCEx_GetPLL3ClockFreq+0x138>
    PLL3_Clocks->PLL3_P_Frequency = 0U;
 800481c:	2300      	movs	r3, #0
 800481e:	6003      	str	r3, [r0, #0]
    PLL3_Clocks->PLL3_Q_Frequency = 0U;
 8004820:	6043      	str	r3, [r0, #4]
    PLL3_Clocks->PLL3_R_Frequency = 0U;
 8004822:	6083      	str	r3, [r0, #8]
}
 8004824:	e7dc      	b.n	80047e0 <HAL_RCCEx_GetPLL3ClockFreq+0x198>
 8004826:	bf00      	nop
 8004828:	58024400 	.word	0x58024400
 800482c:	4a742400 	.word	0x4a742400
 8004830:	39000000 	.word	0x39000000
 8004834:	03d09000 	.word	0x03d09000
 8004838:	4c742400 	.word	0x4c742400
 800483c:	4b742400 	.word	0x4b742400

08004840 <HAL_RCCEx_GetPLL1ClockFreq>:
{
 8004840:	b510      	push	{r4, lr}
  pllsource = (RCC->PLLCKSELR & RCC_PLLCKSELR_PLLSRC);
 8004842:	4a77      	ldr	r2, [pc, #476]	; (8004a20 <HAL_RCCEx_GetPLL1ClockFreq+0x1e0>)
 8004844:	6a91      	ldr	r1, [r2, #40]	; 0x28
  pll1m = ((RCC->PLLCKSELR & RCC_PLLCKSELR_DIVM1) >> 4);
 8004846:	6a94      	ldr	r4, [r2, #40]	; 0x28
 8004848:	f3c4 1e05 	ubfx	lr, r4, #4, #6
  pll1fracen = RCC->PLLCFGR & RCC_PLLCFGR_PLL1FRACEN;
 800484c:	6ad3      	ldr	r3, [r2, #44]	; 0x2c
 800484e:	f003 0c01 	and.w	ip, r3, #1
  fracn1 = (float_t)(uint32_t)(pll1fracen * ((RCC->PLL1FRACR & RCC_PLL1FRACR_FRACN1) >> 3));
 8004852:	6b53      	ldr	r3, [r2, #52]	; 0x34
 8004854:	f3c3 03cc 	ubfx	r3, r3, #3, #13
 8004858:	fb0c f303 	mul.w	r3, ip, r3
  if (pll1m != 0U)
 800485c:	f414 7f7c 	tst.w	r4, #1008	; 0x3f0
 8004860:	f000 80d8 	beq.w	8004a14 <HAL_RCCEx_GetPLL1ClockFreq+0x1d4>
 8004864:	f001 0103 	and.w	r1, r1, #3
 8004868:	ee07 3a90 	vmov	s15, r3
 800486c:	eef8 7a67 	vcvt.f32.u32	s15, s15
    switch (pllsource)
 8004870:	2901      	cmp	r1, #1
 8004872:	d065      	beq.n	8004940 <HAL_RCCEx_GetPLL1ClockFreq+0x100>
 8004874:	2902      	cmp	r1, #2
 8004876:	f000 80b0 	beq.w	80049da <HAL_RCCEx_GetPLL1ClockFreq+0x19a>
 800487a:	b1e1      	cbz	r1, 80048b6 <HAL_RCCEx_GetPLL1ClockFreq+0x76>
        pll1vco = ((float_t)HSI_VALUE / (float_t)pll1m) * ((float_t)(uint32_t)(RCC->PLL1DIVR & RCC_PLL1DIVR_N1) + (fracn1 / (float_t)0x2000) + (float_t)1);
 800487c:	ee07 ea10 	vmov	s14, lr
 8004880:	eeb8 7a47 	vcvt.f32.u32	s14, s14
 8004884:	ed9f 6a67 	vldr	s12, [pc, #412]	; 8004a24 <HAL_RCCEx_GetPLL1ClockFreq+0x1e4>
 8004888:	eec6 6a07 	vdiv.f32	s13, s12, s14
 800488c:	4b64      	ldr	r3, [pc, #400]	; (8004a20 <HAL_RCCEx_GetPLL1ClockFreq+0x1e0>)
 800488e:	6b1b      	ldr	r3, [r3, #48]	; 0x30
 8004890:	f3c3 0308 	ubfx	r3, r3, #0, #9
 8004894:	ee07 3a10 	vmov	s14, r3
 8004898:	eeb8 7a47 	vcvt.f32.u32	s14, s14
 800489c:	ed9f 6a62 	vldr	s12, [pc, #392]	; 8004a28 <HAL_RCCEx_GetPLL1ClockFreq+0x1e8>
 80048a0:	ee67 7a86 	vmul.f32	s15, s15, s12
 80048a4:	ee77 7a27 	vadd.f32	s15, s14, s15
 80048a8:	eeb7 7a00 	vmov.f32	s14, #112	; 0x3f800000  1.0
 80048ac:	ee77 7a87 	vadd.f32	s15, s15, s14
 80048b0:	ee66 6aa7 	vmul.f32	s13, s13, s15
        break;
 80048b4:	e060      	b.n	8004978 <HAL_RCCEx_GetPLL1ClockFreq+0x138>
        if (__HAL_RCC_GET_FLAG(RCC_FLAG_HSIDIV) != 0U)
 80048b6:	6813      	ldr	r3, [r2, #0]
 80048b8:	f013 0f20 	tst.w	r3, #32
 80048bc:	d023      	beq.n	8004906 <HAL_RCCEx_GetPLL1ClockFreq+0xc6>
          hsivalue = (HSI_VALUE >> (__HAL_RCC_GET_HSI_DIVIDER() >> 3));
 80048be:	4611      	mov	r1, r2
 80048c0:	6812      	ldr	r2, [r2, #0]
 80048c2:	f3c2 02c1 	ubfx	r2, r2, #3, #2
 80048c6:	4b59      	ldr	r3, [pc, #356]	; (8004a2c <HAL_RCCEx_GetPLL1ClockFreq+0x1ec>)
 80048c8:	40d3      	lsrs	r3, r2
          pll1vco = ((float_t)hsivalue / (float_t)pll1m) * ((float_t)(uint32_t)(RCC->PLL1DIVR & RCC_PLL1DIVR_N1) + (fracn1 / (float_t)0x2000) + (float_t)1);
 80048ca:	ee07 3a10 	vmov	s14, r3
 80048ce:	eeb8 7a47 	vcvt.f32.u32	s14, s14
 80048d2:	ee06 ea90 	vmov	s13, lr
 80048d6:	eeb8 6a66 	vcvt.f32.u32	s12, s13
 80048da:	eec7 6a06 	vdiv.f32	s13, s14, s12
 80048de:	6b0b      	ldr	r3, [r1, #48]	; 0x30
 80048e0:	f3c3 0308 	ubfx	r3, r3, #0, #9
 80048e4:	ee07 3a10 	vmov	s14, r3
 80048e8:	eeb8 7a47 	vcvt.f32.u32	s14, s14
 80048ec:	ed9f 6a4e 	vldr	s12, [pc, #312]	; 8004a28 <HAL_RCCEx_GetPLL1ClockFreq+0x1e8>
 80048f0:	ee67 7a86 	vmul.f32	s15, s15, s12
 80048f4:	ee77 7a27 	vadd.f32	s15, s14, s15
 80048f8:	eeb7 7a00 	vmov.f32	s14, #112	; 0x3f800000  1.0
 80048fc:	ee77 7a87 	vadd.f32	s15, s15, s14
 8004900:	ee66 6aa7 	vmul.f32	s13, s13, s15
 8004904:	e038      	b.n	8004978 <HAL_RCCEx_GetPLL1ClockFreq+0x138>
          pll1vco = ((float_t)HSI_VALUE / (float_t)pll1m) * ((float_t)(uint32_t)(RCC->PLL1DIVR & RCC_PLL1DIVR_N1) + (fracn1 / (float_t)0x2000) + (float_t)1);
 8004906:	ee07 ea10 	vmov	s14, lr
 800490a:	eeb8 7a47 	vcvt.f32.u32	s14, s14
 800490e:	ed9f 6a45 	vldr	s12, [pc, #276]	; 8004a24 <HAL_RCCEx_GetPLL1ClockFreq+0x1e4>
 8004912:	eec6 6a07 	vdiv.f32	s13, s12, s14
 8004916:	4b42      	ldr	r3, [pc, #264]	; (8004a20 <HAL_RCCEx_GetPLL1ClockFreq+0x1e0>)
 8004918:	6b1b      	ldr	r3, [r3, #48]	; 0x30
 800491a:	f3c3 0308 	ubfx	r3, r3, #0, #9
 800491e:	ee07 3a10 	vmov	s14, r3
 8004922:	eeb8 7a47 	vcvt.f32.u32	s14, s14
 8004926:	ed9f 6a40 	vldr	s12, [pc, #256]	; 8004a28 <HAL_RCCEx_GetPLL1ClockFreq+0x1e8>
 800492a:	ee67 7a86 	vmul.f32	s15, s15, s12
 800492e:	ee77 7a27 	vadd.f32	s15, s14, s15
 8004932:	eeb7 7a00 	vmov.f32	s14, #112	; 0x3f800000  1.0
 8004936:	ee77 7a87 	vadd.f32	s15, s15, s14
 800493a:	ee66 6aa7 	vmul.f32	s13, s13, s15
 800493e:	e01b      	b.n	8004978 <HAL_RCCEx_GetPLL1ClockFreq+0x138>
        pll1vco = ((float_t)CSI_VALUE / (float_t)pll1m) * ((float_t)(uint32_t)(RCC->PLL1DIVR & RCC_PLL1DIVR_N1) + (fracn1 / (float_t)0x2000) + (float_t)1);
 8004940:	ee07 ea10 	vmov	s14, lr
 8004944:	eeb8 7a47 	vcvt.f32.u32	s14, s14
 8004948:	ed9f 6a39 	vldr	s12, [pc, #228]	; 8004a30 <HAL_RCCEx_GetPLL1ClockFreq+0x1f0>
 800494c:	eec6 6a07 	vdiv.f32	s13, s12, s14
 8004950:	4b33      	ldr	r3, [pc, #204]	; (8004a20 <HAL_RCCEx_GetPLL1ClockFreq+0x1e0>)
 8004952:	6b1b      	ldr	r3, [r3, #48]	; 0x30
 8004954:	f3c3 0308 	ubfx	r3, r3, #0, #9
 8004958:	ee07 3a10 	vmov	s14, r3
 800495c:	eeb8 7a47 	vcvt.f32.u32	s14, s14
 8004960:	ed9f 6a31 	vldr	s12, [pc, #196]	; 8004a28 <HAL_RCCEx_GetPLL1ClockFreq+0x1e8>
 8004964:	ee67 7a86 	vmul.f32	s15, s15, s12
 8004968:	ee77 7a27 	vadd.f32	s15, s14, s15
 800496c:	eeb7 7a00 	vmov.f32	s14, #112	; 0x3f800000  1.0
 8004970:	ee77 7a87 	vadd.f32	s15, s15, s14
 8004974:	ee66 6aa7 	vmul.f32	s13, s13, s15
    PLL1_Clocks->PLL1_P_Frequency = (uint32_t)(float_t)(pll1vco / ((float_t)(uint32_t)((RCC->PLL1DIVR & RCC_PLL1DIVR_P1) >> 9)  + (float_t)1)) ;
 8004978:	4a29      	ldr	r2, [pc, #164]	; (8004a20 <HAL_RCCEx_GetPLL1ClockFreq+0x1e0>)
 800497a:	6b13      	ldr	r3, [r2, #48]	; 0x30
 800497c:	f3c3 2346 	ubfx	r3, r3, #9, #7
 8004980:	ee07 3a10 	vmov	s14, r3
 8004984:	eeb8 7a47 	vcvt.f32.u32	s14, s14
 8004988:	eeb7 6a00 	vmov.f32	s12, #112	; 0x3f800000  1.0
 800498c:	ee37 7a06 	vadd.f32	s14, s14, s12
 8004990:	eec6 7a87 	vdiv.f32	s15, s13, s14
 8004994:	eefc 7ae7 	vcvt.u32.f32	s15, s15
 8004998:	edc0 7a00 	vstr	s15, [r0]
    PLL1_Clocks->PLL1_Q_Frequency = (uint32_t)(float_t)(pll1vco / ((float_t)(uint32_t)((RCC->PLL1DIVR & RCC_PLL1DIVR_Q1) >> 16) + (float_t)1)) ;
 800499c:	6b13      	ldr	r3, [r2, #48]	; 0x30
 800499e:	f3c3 4306 	ubfx	r3, r3, #16, #7
 80049a2:	ee07 3a10 	vmov	s14, r3
 80049a6:	eeb8 7a47 	vcvt.f32.u32	s14, s14
 80049aa:	ee37 7a06 	vadd.f32	s14, s14, s12
 80049ae:	eec6 7a87 	vdiv.f32	s15, s13, s14
 80049b2:	eefc 7ae7 	vcvt.u32.f32	s15, s15
 80049b6:	edc0 7a01 	vstr	s15, [r0, #4]
    PLL1_Clocks->PLL1_R_Frequency = (uint32_t)(float_t)(pll1vco / ((float_t)(uint32_t)((RCC->PLL1DIVR & RCC_PLL1DIVR_R1) >> 24) + (float_t)1)) ;
 80049ba:	6b13      	ldr	r3, [r2, #48]	; 0x30
 80049bc:	f3c3 6306 	ubfx	r3, r3, #24, #7
 80049c0:	ee07 3a90 	vmov	s15, r3
 80049c4:	eef8 7a67 	vcvt.f32.u32	s15, s15
 80049c8:	ee77 7a86 	vadd.f32	s15, s15, s12
 80049cc:	ee86 7aa7 	vdiv.f32	s14, s13, s15
 80049d0:	eebc 7ac7 	vcvt.u32.f32	s14, s14
 80049d4:	ed80 7a02 	vstr	s14, [r0, #8]
}
 80049d8:	bd10      	pop	{r4, pc}
        pll1vco = ((float_t)HSE_VALUE / (float_t)pll1m) * ((float_t)(uint32_t)(RCC->PLL1DIVR & RCC_PLL1DIVR_N1) + (fracn1 / (float_t)0x2000) + (float_t)1);
 80049da:	ee07 ea10 	vmov	s14, lr
 80049de:	eeb8 7a47 	vcvt.f32.u32	s14, s14
 80049e2:	ed9f 6a14 	vldr	s12, [pc, #80]	; 8004a34 <HAL_RCCEx_GetPLL1ClockFreq+0x1f4>
 80049e6:	eec6 6a07 	vdiv.f32	s13, s12, s14
 80049ea:	4b0d      	ldr	r3, [pc, #52]	; (8004a20 <HAL_RCCEx_GetPLL1ClockFreq+0x1e0>)
 80049ec:	6b1b      	ldr	r3, [r3, #48]	; 0x30
 80049ee:	f3c3 0308 	ubfx	r3, r3, #0, #9
 80049f2:	ee07 3a10 	vmov	s14, r3
 80049f6:	eeb8 7a47 	vcvt.f32.u32	s14, s14
 80049fa:	ed9f 6a0b 	vldr	s12, [pc, #44]	; 8004a28 <HAL_RCCEx_GetPLL1ClockFreq+0x1e8>
 80049fe:	ee67 7a86 	vmul.f32	s15, s15, s12
 8004a02:	ee77 7a27 	vadd.f32	s15, s14, s15
 8004a06:	eeb7 7a00 	vmov.f32	s14, #112	; 0x3f800000  1.0
 8004a0a:	ee77 7a87 	vadd.f32	s15, s15, s14
 8004a0e:	ee66 6aa7 	vmul.f32	s13, s13, s15
        break;
 8004a12:	e7b1      	b.n	8004978 <HAL_RCCEx_GetPLL1ClockFreq+0x138>
    PLL1_Clocks->PLL1_P_Frequency = 0U;
 8004a14:	2300      	movs	r3, #0
 8004a16:	6003      	str	r3, [r0, #0]
    PLL1_Clocks->PLL1_Q_Frequency = 0U;
 8004a18:	6043      	str	r3, [r0, #4]
    PLL1_Clocks->PLL1_R_Frequency = 0U;
 8004a1a:	6083      	str	r3, [r0, #8]
}
 8004a1c:	e7dc      	b.n	80049d8 <HAL_RCCEx_GetPLL1ClockFreq+0x198>
 8004a1e:	bf00      	nop
 8004a20:	58024400 	.word	0x58024400
 8004a24:	4c742400 	.word	0x4c742400
 8004a28:	39000000 	.word	0x39000000
 8004a2c:	03d09000 	.word	0x03d09000
 8004a30:	4a742400 	.word	0x4a742400
 8004a34:	4b742400 	.word	0x4b742400

08004a38 <HAL_RCCEx_GetPeriphCLKFreq>:
{
 8004a38:	b500      	push	{lr}
 8004a3a:	b08b      	sub	sp, #44	; 0x2c
  if (PeriphClk == RCC_PERIPHCLK_SAI1)
 8004a3c:	f5a0 7380 	sub.w	r3, r0, #256	; 0x100
 8004a40:	430b      	orrs	r3, r1
 8004a42:	d02e      	beq.n	8004aa2 <HAL_RCCEx_GetPeriphCLKFreq+0x6a>
  else if (PeriphClk == RCC_PERIPHCLK_SAI23)
 8004a44:	f5a0 7300 	sub.w	r3, r0, #512	; 0x200
 8004a48:	430b      	orrs	r3, r1
 8004a4a:	d07e      	beq.n	8004b4a <HAL_RCCEx_GetPeriphCLKFreq+0x112>
  else if (PeriphClk == RCC_PERIPHCLK_SAI4A)
 8004a4c:	f5a0 6380 	sub.w	r3, r0, #1024	; 0x400
 8004a50:	430b      	orrs	r3, r1
 8004a52:	f000 80d4 	beq.w	8004bfe <HAL_RCCEx_GetPeriphCLKFreq+0x1c6>
  else if (PeriphClk == RCC_PERIPHCLK_SAI4B)
 8004a56:	f5a0 6300 	sub.w	r3, r0, #2048	; 0x800
 8004a5a:	430b      	orrs	r3, r1
 8004a5c:	f000 812c 	beq.w	8004cb8 <HAL_RCCEx_GetPeriphCLKFreq+0x280>
  else if (PeriphClk == RCC_PERIPHCLK_SPI123)
 8004a60:	f5a0 5380 	sub.w	r3, r0, #4096	; 0x1000
 8004a64:	430b      	orrs	r3, r1
 8004a66:	f000 818b 	beq.w	8004d80 <HAL_RCCEx_GetPeriphCLKFreq+0x348>
  else if (PeriphClk == RCC_PERIPHCLK_SPI45)
 8004a6a:	f5a0 5300 	sub.w	r3, r0, #8192	; 0x2000
 8004a6e:	430b      	orrs	r3, r1
 8004a70:	f000 81e3 	beq.w	8004e3a <HAL_RCCEx_GetPeriphCLKFreq+0x402>
  else if (PeriphClk == RCC_PERIPHCLK_ADC)
 8004a74:	f5a0 2300 	sub.w	r3, r0, #524288	; 0x80000
 8004a78:	430b      	orrs	r3, r1
 8004a7a:	f000 822c 	beq.w	8004ed6 <HAL_RCCEx_GetPeriphCLKFreq+0x49e>
  else if (PeriphClk == RCC_PERIPHCLK_SDMMC)
 8004a7e:	f5a0 3380 	sub.w	r3, r0, #65536	; 0x10000
 8004a82:	430b      	orrs	r3, r1
 8004a84:	f000 826f 	beq.w	8004f66 <HAL_RCCEx_GetPeriphCLKFreq+0x52e>
  else if (PeriphClk == RCC_PERIPHCLK_SPI6)
 8004a88:	f5a0 4380 	sub.w	r3, r0, #16384	; 0x4000
 8004a8c:	430b      	orrs	r3, r1
 8004a8e:	f000 8290 	beq.w	8004fb2 <HAL_RCCEx_GetPeriphCLKFreq+0x57a>
  else if (PeriphClk == RCC_PERIPHCLK_FDCAN)
 8004a92:	f5a0 4000 	sub.w	r0, r0, #32768	; 0x8000
 8004a96:	ea50 0301 	orrs.w	r3, r0, r1
 8004a9a:	f000 82d3 	beq.w	8005044 <HAL_RCCEx_GetPeriphCLKFreq+0x60c>
    frequency = 0;
 8004a9e:	2000      	movs	r0, #0
 8004aa0:	e301      	b.n	80050a6 <HAL_RCCEx_GetPeriphCLKFreq+0x66e>
    saiclocksource = __HAL_RCC_GET_SAI1_SOURCE();
 8004aa2:	4b95      	ldr	r3, [pc, #596]	; (8004cf8 <HAL_RCCEx_GetPeriphCLKFreq+0x2c0>)
 8004aa4:	6d1b      	ldr	r3, [r3, #80]	; 0x50
 8004aa6:	f003 0307 	and.w	r3, r3, #7
    switch (saiclocksource)
 8004aaa:	2b04      	cmp	r3, #4
 8004aac:	f200 82f2 	bhi.w	8005094 <HAL_RCCEx_GetPeriphCLKFreq+0x65c>
 8004ab0:	e8df f003 	tbb	[pc, r3]
 8004ab4:	031b1005 	.word	0x031b1005
 8004ab8:	26          	.byte	0x26
 8004ab9:	00          	.byte	0x00
 8004aba:	4890      	ldr	r0, [pc, #576]	; (8004cfc <HAL_RCCEx_GetPeriphCLKFreq+0x2c4>)
 8004abc:	e2f3      	b.n	80050a6 <HAL_RCCEx_GetPeriphCLKFreq+0x66e>
        if (HAL_IS_BIT_SET(RCC->CR, RCC_CR_PLL1RDY))
 8004abe:	4b8e      	ldr	r3, [pc, #568]	; (8004cf8 <HAL_RCCEx_GetPeriphCLKFreq+0x2c0>)
 8004ac0:	6818      	ldr	r0, [r3, #0]
 8004ac2:	f010 7000 	ands.w	r0, r0, #33554432	; 0x2000000
 8004ac6:	f000 82ee 	beq.w	80050a6 <HAL_RCCEx_GetPeriphCLKFreq+0x66e>
          HAL_RCCEx_GetPLL1ClockFreq(&pll1_clocks);
 8004aca:	a807      	add	r0, sp, #28
 8004acc:	f7ff feb8 	bl	8004840 <HAL_RCCEx_GetPLL1ClockFreq>
          frequency = pll1_clocks.PLL1_Q_Frequency;
 8004ad0:	9808      	ldr	r0, [sp, #32]
 8004ad2:	e2e8      	b.n	80050a6 <HAL_RCCEx_GetPeriphCLKFreq+0x66e>
        if (HAL_IS_BIT_SET(RCC->CR, RCC_CR_PLL2RDY))
 8004ad4:	4b88      	ldr	r3, [pc, #544]	; (8004cf8 <HAL_RCCEx_GetPeriphCLKFreq+0x2c0>)
 8004ad6:	6818      	ldr	r0, [r3, #0]
 8004ad8:	f010 6000 	ands.w	r0, r0, #134217728	; 0x8000000
 8004adc:	f000 82e3 	beq.w	80050a6 <HAL_RCCEx_GetPeriphCLKFreq+0x66e>
          HAL_RCCEx_GetPLL2ClockFreq(&pll2_clocks);
 8004ae0:	a804      	add	r0, sp, #16
 8004ae2:	f7ff fcb5 	bl	8004450 <HAL_RCCEx_GetPLL2ClockFreq>
          frequency = pll2_clocks.PLL2_P_Frequency;
 8004ae6:	9804      	ldr	r0, [sp, #16]
 8004ae8:	e2dd      	b.n	80050a6 <HAL_RCCEx_GetPeriphCLKFreq+0x66e>
        if (HAL_IS_BIT_SET(RCC->CR, RCC_CR_PLL3RDY))
 8004aea:	4b83      	ldr	r3, [pc, #524]	; (8004cf8 <HAL_RCCEx_GetPeriphCLKFreq+0x2c0>)
 8004aec:	6818      	ldr	r0, [r3, #0]
 8004aee:	f010 5000 	ands.w	r0, r0, #536870912	; 0x20000000
 8004af2:	f000 82d8 	beq.w	80050a6 <HAL_RCCEx_GetPeriphCLKFreq+0x66e>
          HAL_RCCEx_GetPLL3ClockFreq(&pll3_clocks);
 8004af6:	a801      	add	r0, sp, #4
 8004af8:	f7ff fda6 	bl	8004648 <HAL_RCCEx_GetPLL3ClockFreq>
          frequency = pll3_clocks.PLL3_P_Frequency;
 8004afc:	9801      	ldr	r0, [sp, #4]
 8004afe:	e2d2      	b.n	80050a6 <HAL_RCCEx_GetPeriphCLKFreq+0x66e>
        ckpclocksource = __HAL_RCC_GET_CLKP_SOURCE();
 8004b00:	4a7d      	ldr	r2, [pc, #500]	; (8004cf8 <HAL_RCCEx_GetPeriphCLKFreq+0x2c0>)
 8004b02:	6cd3      	ldr	r3, [r2, #76]	; 0x4c
 8004b04:	f003 5340 	and.w	r3, r3, #805306368	; 0x30000000
        if ((HAL_IS_BIT_SET(RCC->CR, RCC_CR_HSIRDY)) && (ckpclocksource == RCC_CLKPSOURCE_HSI))
 8004b08:	6812      	ldr	r2, [r2, #0]
 8004b0a:	f012 0f04 	tst.w	r2, #4
 8004b0e:	d007      	beq.n	8004b20 <HAL_RCCEx_GetPeriphCLKFreq+0xe8>
 8004b10:	b933      	cbnz	r3, 8004b20 <HAL_RCCEx_GetPeriphCLKFreq+0xe8>
          frequency = (HSI_VALUE >> (__HAL_RCC_GET_HSI_DIVIDER() >> 3));
 8004b12:	4b79      	ldr	r3, [pc, #484]	; (8004cf8 <HAL_RCCEx_GetPeriphCLKFreq+0x2c0>)
 8004b14:	681b      	ldr	r3, [r3, #0]
 8004b16:	f3c3 03c1 	ubfx	r3, r3, #3, #2
 8004b1a:	4879      	ldr	r0, [pc, #484]	; (8004d00 <HAL_RCCEx_GetPeriphCLKFreq+0x2c8>)
 8004b1c:	40d8      	lsrs	r0, r3
 8004b1e:	e2c2      	b.n	80050a6 <HAL_RCCEx_GetPeriphCLKFreq+0x66e>
        else if ((HAL_IS_BIT_SET(RCC->CR, RCC_CR_CSIRDY)) && (ckpclocksource == RCC_CLKPSOURCE_CSI))
 8004b20:	4a75      	ldr	r2, [pc, #468]	; (8004cf8 <HAL_RCCEx_GetPeriphCLKFreq+0x2c0>)
 8004b22:	6812      	ldr	r2, [r2, #0]
 8004b24:	f412 7f80 	tst.w	r2, #256	; 0x100
 8004b28:	d003      	beq.n	8004b32 <HAL_RCCEx_GetPeriphCLKFreq+0xfa>
 8004b2a:	f1b3 5f80 	cmp.w	r3, #268435456	; 0x10000000
 8004b2e:	f000 82b3 	beq.w	8005098 <HAL_RCCEx_GetPeriphCLKFreq+0x660>
        else if ((HAL_IS_BIT_SET(RCC->CR, RCC_CR_HSERDY)) && (ckpclocksource == RCC_CLKPSOURCE_HSE))
 8004b32:	4a71      	ldr	r2, [pc, #452]	; (8004cf8 <HAL_RCCEx_GetPeriphCLKFreq+0x2c0>)
 8004b34:	6812      	ldr	r2, [r2, #0]
 8004b36:	f412 3f00 	tst.w	r2, #131072	; 0x20000
 8004b3a:	f000 82af 	beq.w	800509c <HAL_RCCEx_GetPeriphCLKFreq+0x664>
 8004b3e:	f1b3 5f00 	cmp.w	r3, #536870912	; 0x20000000
 8004b42:	f000 82ad 	beq.w	80050a0 <HAL_RCCEx_GetPeriphCLKFreq+0x668>
          frequency = 0;
 8004b46:	2000      	movs	r0, #0
 8004b48:	e2ad      	b.n	80050a6 <HAL_RCCEx_GetPeriphCLKFreq+0x66e>
    saiclocksource = __HAL_RCC_GET_SAI23_SOURCE();
 8004b4a:	4b6b      	ldr	r3, [pc, #428]	; (8004cf8 <HAL_RCCEx_GetPeriphCLKFreq+0x2c0>)
 8004b4c:	6d1b      	ldr	r3, [r3, #80]	; 0x50
 8004b4e:	f403 73e0 	and.w	r3, r3, #448	; 0x1c0
    switch (saiclocksource)
 8004b52:	2b80      	cmp	r3, #128	; 0x80
 8004b54:	d033      	beq.n	8004bbe <HAL_RCCEx_GetPeriphCLKFreq+0x186>
 8004b56:	d915      	bls.n	8004b84 <HAL_RCCEx_GetPeriphCLKFreq+0x14c>
 8004b58:	2bc0      	cmp	r3, #192	; 0xc0
 8004b5a:	f000 82a3 	beq.w	80050a4 <HAL_RCCEx_GetPeriphCLKFreq+0x66c>
 8004b5e:	f5b3 7f80 	cmp.w	r3, #256	; 0x100
 8004b62:	d11f      	bne.n	8004ba4 <HAL_RCCEx_GetPeriphCLKFreq+0x16c>
        ckpclocksource = __HAL_RCC_GET_CLKP_SOURCE();
 8004b64:	4a64      	ldr	r2, [pc, #400]	; (8004cf8 <HAL_RCCEx_GetPeriphCLKFreq+0x2c0>)
 8004b66:	6cd3      	ldr	r3, [r2, #76]	; 0x4c
 8004b68:	f003 5340 	and.w	r3, r3, #805306368	; 0x30000000
        if ((HAL_IS_BIT_SET(RCC->CR, RCC_CR_HSIRDY)) && (ckpclocksource == RCC_CLKPSOURCE_HSI))
 8004b6c:	6812      	ldr	r2, [r2, #0]
 8004b6e:	f012 0f04 	tst.w	r2, #4
 8004b72:	d02f      	beq.n	8004bd4 <HAL_RCCEx_GetPeriphCLKFreq+0x19c>
 8004b74:	bb73      	cbnz	r3, 8004bd4 <HAL_RCCEx_GetPeriphCLKFreq+0x19c>
          frequency = (HSI_VALUE >> (__HAL_RCC_GET_HSI_DIVIDER() >> 3));
 8004b76:	4b60      	ldr	r3, [pc, #384]	; (8004cf8 <HAL_RCCEx_GetPeriphCLKFreq+0x2c0>)
 8004b78:	681b      	ldr	r3, [r3, #0]
 8004b7a:	f3c3 03c1 	ubfx	r3, r3, #3, #2
 8004b7e:	4860      	ldr	r0, [pc, #384]	; (8004d00 <HAL_RCCEx_GetPeriphCLKFreq+0x2c8>)
 8004b80:	40d8      	lsrs	r0, r3
 8004b82:	e290      	b.n	80050a6 <HAL_RCCEx_GetPeriphCLKFreq+0x66e>
    switch (saiclocksource)
 8004b84:	b183      	cbz	r3, 8004ba8 <HAL_RCCEx_GetPeriphCLKFreq+0x170>
 8004b86:	2b40      	cmp	r3, #64	; 0x40
 8004b88:	d10a      	bne.n	8004ba0 <HAL_RCCEx_GetPeriphCLKFreq+0x168>
        if (HAL_IS_BIT_SET(RCC->CR, RCC_CR_PLL2RDY))
 8004b8a:	4b5b      	ldr	r3, [pc, #364]	; (8004cf8 <HAL_RCCEx_GetPeriphCLKFreq+0x2c0>)
 8004b8c:	6818      	ldr	r0, [r3, #0]
 8004b8e:	f010 6000 	ands.w	r0, r0, #134217728	; 0x8000000
 8004b92:	f000 8288 	beq.w	80050a6 <HAL_RCCEx_GetPeriphCLKFreq+0x66e>
          HAL_RCCEx_GetPLL2ClockFreq(&pll2_clocks);
 8004b96:	a804      	add	r0, sp, #16
 8004b98:	f7ff fc5a 	bl	8004450 <HAL_RCCEx_GetPLL2ClockFreq>
          frequency = pll2_clocks.PLL2_P_Frequency;
 8004b9c:	9804      	ldr	r0, [sp, #16]
 8004b9e:	e282      	b.n	80050a6 <HAL_RCCEx_GetPeriphCLKFreq+0x66e>
        frequency = 0;
 8004ba0:	2000      	movs	r0, #0
 8004ba2:	e280      	b.n	80050a6 <HAL_RCCEx_GetPeriphCLKFreq+0x66e>
 8004ba4:	2000      	movs	r0, #0
 8004ba6:	e27e      	b.n	80050a6 <HAL_RCCEx_GetPeriphCLKFreq+0x66e>
        if (HAL_IS_BIT_SET(RCC->CR, RCC_CR_PLL1RDY))
 8004ba8:	4b53      	ldr	r3, [pc, #332]	; (8004cf8 <HAL_RCCEx_GetPeriphCLKFreq+0x2c0>)
 8004baa:	6818      	ldr	r0, [r3, #0]
 8004bac:	f010 7000 	ands.w	r0, r0, #33554432	; 0x2000000
 8004bb0:	f000 8279 	beq.w	80050a6 <HAL_RCCEx_GetPeriphCLKFreq+0x66e>
          HAL_RCCEx_GetPLL1ClockFreq(&pll1_clocks);
 8004bb4:	a807      	add	r0, sp, #28
 8004bb6:	f7ff fe43 	bl	8004840 <HAL_RCCEx_GetPLL1ClockFreq>
          frequency = pll1_clocks.PLL1_Q_Frequency;
 8004bba:	9808      	ldr	r0, [sp, #32]
 8004bbc:	e273      	b.n	80050a6 <HAL_RCCEx_GetPeriphCLKFreq+0x66e>
        if (HAL_IS_BIT_SET(RCC->CR, RCC_CR_PLL3RDY))
 8004bbe:	4b4e      	ldr	r3, [pc, #312]	; (8004cf8 <HAL_RCCEx_GetPeriphCLKFreq+0x2c0>)
 8004bc0:	6818      	ldr	r0, [r3, #0]
 8004bc2:	f010 5000 	ands.w	r0, r0, #536870912	; 0x20000000
 8004bc6:	f000 826e 	beq.w	80050a6 <HAL_RCCEx_GetPeriphCLKFreq+0x66e>
          HAL_RCCEx_GetPLL3ClockFreq(&pll3_clocks);
 8004bca:	a801      	add	r0, sp, #4
 8004bcc:	f7ff fd3c 	bl	8004648 <HAL_RCCEx_GetPLL3ClockFreq>
          frequency = pll3_clocks.PLL3_P_Frequency;
 8004bd0:	9801      	ldr	r0, [sp, #4]
 8004bd2:	e268      	b.n	80050a6 <HAL_RCCEx_GetPeriphCLKFreq+0x66e>
        else if ((HAL_IS_BIT_SET(RCC->CR, RCC_CR_CSIRDY)) && (ckpclocksource == RCC_CLKPSOURCE_CSI))
 8004bd4:	4a48      	ldr	r2, [pc, #288]	; (8004cf8 <HAL_RCCEx_GetPeriphCLKFreq+0x2c0>)
 8004bd6:	6812      	ldr	r2, [r2, #0]
 8004bd8:	f412 7f80 	tst.w	r2, #256	; 0x100
 8004bdc:	d003      	beq.n	8004be6 <HAL_RCCEx_GetPeriphCLKFreq+0x1ae>
 8004bde:	f1b3 5f80 	cmp.w	r3, #268435456	; 0x10000000
 8004be2:	f000 8263 	beq.w	80050ac <HAL_RCCEx_GetPeriphCLKFreq+0x674>
        else if ((HAL_IS_BIT_SET(RCC->CR, RCC_CR_HSERDY)) && (ckpclocksource == RCC_CLKPSOURCE_HSE))
 8004be6:	4a44      	ldr	r2, [pc, #272]	; (8004cf8 <HAL_RCCEx_GetPeriphCLKFreq+0x2c0>)
 8004be8:	6812      	ldr	r2, [r2, #0]
 8004bea:	f412 3f00 	tst.w	r2, #131072	; 0x20000
 8004bee:	f000 825f 	beq.w	80050b0 <HAL_RCCEx_GetPeriphCLKFreq+0x678>
 8004bf2:	f1b3 5f00 	cmp.w	r3, #536870912	; 0x20000000
 8004bf6:	f000 825d 	beq.w	80050b4 <HAL_RCCEx_GetPeriphCLKFreq+0x67c>
          frequency = 0;
 8004bfa:	2000      	movs	r0, #0
 8004bfc:	e253      	b.n	80050a6 <HAL_RCCEx_GetPeriphCLKFreq+0x66e>
    saiclocksource = __HAL_RCC_GET_SAI4A_SOURCE();
 8004bfe:	4b3e      	ldr	r3, [pc, #248]	; (8004cf8 <HAL_RCCEx_GetPeriphCLKFreq+0x2c0>)
 8004c00:	6d9b      	ldr	r3, [r3, #88]	; 0x58
 8004c02:	f403 0360 	and.w	r3, r3, #14680064	; 0xe00000
    switch (saiclocksource)
 8004c06:	f5b3 0f80 	cmp.w	r3, #4194304	; 0x400000
 8004c0a:	d035      	beq.n	8004c78 <HAL_RCCEx_GetPeriphCLKFreq+0x240>
 8004c0c:	d916      	bls.n	8004c3c <HAL_RCCEx_GetPeriphCLKFreq+0x204>
 8004c0e:	f5b3 0fc0 	cmp.w	r3, #6291456	; 0x600000
 8004c12:	f000 8251 	beq.w	80050b8 <HAL_RCCEx_GetPeriphCLKFreq+0x680>
 8004c16:	f5b3 0f00 	cmp.w	r3, #8388608	; 0x800000
 8004c1a:	d120      	bne.n	8004c5e <HAL_RCCEx_GetPeriphCLKFreq+0x226>
        ckpclocksource = __HAL_RCC_GET_CLKP_SOURCE();
 8004c1c:	4a36      	ldr	r2, [pc, #216]	; (8004cf8 <HAL_RCCEx_GetPeriphCLKFreq+0x2c0>)
 8004c1e:	6cd3      	ldr	r3, [r2, #76]	; 0x4c
 8004c20:	f003 5340 	and.w	r3, r3, #805306368	; 0x30000000
        if ((HAL_IS_BIT_SET(RCC->CR, RCC_CR_HSIRDY)) && (ckpclocksource == RCC_CLKPSOURCE_HSI))
 8004c24:	6812      	ldr	r2, [r2, #0]
 8004c26:	f012 0f04 	tst.w	r2, #4
 8004c2a:	d030      	beq.n	8004c8e <HAL_RCCEx_GetPeriphCLKFreq+0x256>
 8004c2c:	bb7b      	cbnz	r3, 8004c8e <HAL_RCCEx_GetPeriphCLKFreq+0x256>
          frequency = (HSI_VALUE >> (__HAL_RCC_GET_HSI_DIVIDER() >> 3));
 8004c2e:	4b32      	ldr	r3, [pc, #200]	; (8004cf8 <HAL_RCCEx_GetPeriphCLKFreq+0x2c0>)
 8004c30:	681b      	ldr	r3, [r3, #0]
 8004c32:	f3c3 03c1 	ubfx	r3, r3, #3, #2
 8004c36:	4832      	ldr	r0, [pc, #200]	; (8004d00 <HAL_RCCEx_GetPeriphCLKFreq+0x2c8>)
 8004c38:	40d8      	lsrs	r0, r3
 8004c3a:	e234      	b.n	80050a6 <HAL_RCCEx_GetPeriphCLKFreq+0x66e>
    switch (saiclocksource)
 8004c3c:	b18b      	cbz	r3, 8004c62 <HAL_RCCEx_GetPeriphCLKFreq+0x22a>
 8004c3e:	f5b3 1f00 	cmp.w	r3, #2097152	; 0x200000
 8004c42:	d10a      	bne.n	8004c5a <HAL_RCCEx_GetPeriphCLKFreq+0x222>
        if (HAL_IS_BIT_SET(RCC->CR, RCC_CR_PLL2RDY))
 8004c44:	4b2c      	ldr	r3, [pc, #176]	; (8004cf8 <HAL_RCCEx_GetPeriphCLKFreq+0x2c0>)
 8004c46:	6818      	ldr	r0, [r3, #0]
 8004c48:	f010 6000 	ands.w	r0, r0, #134217728	; 0x8000000
 8004c4c:	f000 822b 	beq.w	80050a6 <HAL_RCCEx_GetPeriphCLKFreq+0x66e>
          HAL_RCCEx_GetPLL2ClockFreq(&pll2_clocks);
 8004c50:	a804      	add	r0, sp, #16
 8004c52:	f7ff fbfd 	bl	8004450 <HAL_RCCEx_GetPLL2ClockFreq>
          frequency = pll2_clocks.PLL2_P_Frequency;
 8004c56:	9804      	ldr	r0, [sp, #16]
 8004c58:	e225      	b.n	80050a6 <HAL_RCCEx_GetPeriphCLKFreq+0x66e>
        frequency = 0;
 8004c5a:	2000      	movs	r0, #0
 8004c5c:	e223      	b.n	80050a6 <HAL_RCCEx_GetPeriphCLKFreq+0x66e>
 8004c5e:	2000      	movs	r0, #0
 8004c60:	e221      	b.n	80050a6 <HAL_RCCEx_GetPeriphCLKFreq+0x66e>
        if (HAL_IS_BIT_SET(RCC->CR, RCC_CR_PLL1RDY))
 8004c62:	4b25      	ldr	r3, [pc, #148]	; (8004cf8 <HAL_RCCEx_GetPeriphCLKFreq+0x2c0>)
 8004c64:	6818      	ldr	r0, [r3, #0]
 8004c66:	f010 7000 	ands.w	r0, r0, #33554432	; 0x2000000
 8004c6a:	f000 821c 	beq.w	80050a6 <HAL_RCCEx_GetPeriphCLKFreq+0x66e>
          HAL_RCCEx_GetPLL1ClockFreq(&pll1_clocks);
 8004c6e:	a807      	add	r0, sp, #28
 8004c70:	f7ff fde6 	bl	8004840 <HAL_RCCEx_GetPLL1ClockFreq>
          frequency = pll1_clocks.PLL1_Q_Frequency;
 8004c74:	9808      	ldr	r0, [sp, #32]
 8004c76:	e216      	b.n	80050a6 <HAL_RCCEx_GetPeriphCLKFreq+0x66e>
        if (HAL_IS_BIT_SET(RCC->CR, RCC_CR_PLL3RDY))
 8004c78:	4b1f      	ldr	r3, [pc, #124]	; (8004cf8 <HAL_RCCEx_GetPeriphCLKFreq+0x2c0>)
 8004c7a:	6818      	ldr	r0, [r3, #0]
 8004c7c:	f010 5000 	ands.w	r0, r0, #536870912	; 0x20000000
 8004c80:	f000 8211 	beq.w	80050a6 <HAL_RCCEx_GetPeriphCLKFreq+0x66e>
          HAL_RCCEx_GetPLL3ClockFreq(&pll3_clocks);
 8004c84:	a801      	add	r0, sp, #4
 8004c86:	f7ff fcdf 	bl	8004648 <HAL_RCCEx_GetPLL3ClockFreq>
          frequency = pll3_clocks.PLL3_P_Frequency;
 8004c8a:	9801      	ldr	r0, [sp, #4]
 8004c8c:	e20b      	b.n	80050a6 <HAL_RCCEx_GetPeriphCLKFreq+0x66e>
        else if ((HAL_IS_BIT_SET(RCC->CR, RCC_CR_CSIRDY)) && (ckpclocksource == RCC_CLKPSOURCE_CSI))
 8004c8e:	4a1a      	ldr	r2, [pc, #104]	; (8004cf8 <HAL_RCCEx_GetPeriphCLKFreq+0x2c0>)
 8004c90:	6812      	ldr	r2, [r2, #0]
 8004c92:	f412 7f80 	tst.w	r2, #256	; 0x100
 8004c96:	d003      	beq.n	8004ca0 <HAL_RCCEx_GetPeriphCLKFreq+0x268>
 8004c98:	f1b3 5f80 	cmp.w	r3, #268435456	; 0x10000000
 8004c9c:	f000 820e 	beq.w	80050bc <HAL_RCCEx_GetPeriphCLKFreq+0x684>
        else if ((HAL_IS_BIT_SET(RCC->CR, RCC_CR_HSERDY)) && (ckpclocksource == RCC_CLKPSOURCE_HSE))
 8004ca0:	4a15      	ldr	r2, [pc, #84]	; (8004cf8 <HAL_RCCEx_GetPeriphCLKFreq+0x2c0>)
 8004ca2:	6812      	ldr	r2, [r2, #0]
 8004ca4:	f412 3f00 	tst.w	r2, #131072	; 0x20000
 8004ca8:	f000 820a 	beq.w	80050c0 <HAL_RCCEx_GetPeriphCLKFreq+0x688>
 8004cac:	f1b3 5f00 	cmp.w	r3, #536870912	; 0x20000000
 8004cb0:	f000 8208 	beq.w	80050c4 <HAL_RCCEx_GetPeriphCLKFreq+0x68c>
          frequency = 0;
 8004cb4:	2000      	movs	r0, #0
 8004cb6:	e1f6      	b.n	80050a6 <HAL_RCCEx_GetPeriphCLKFreq+0x66e>
    saiclocksource = __HAL_RCC_GET_SAI4B_SOURCE();
 8004cb8:	4b0f      	ldr	r3, [pc, #60]	; (8004cf8 <HAL_RCCEx_GetPeriphCLKFreq+0x2c0>)
 8004cba:	6d9b      	ldr	r3, [r3, #88]	; 0x58
 8004cbc:	f003 63e0 	and.w	r3, r3, #117440512	; 0x7000000
    switch (saiclocksource)
 8004cc0:	f1b3 7f00 	cmp.w	r3, #33554432	; 0x2000000
 8004cc4:	d03c      	beq.n	8004d40 <HAL_RCCEx_GetPeriphCLKFreq+0x308>
 8004cc6:	d91d      	bls.n	8004d04 <HAL_RCCEx_GetPeriphCLKFreq+0x2cc>
 8004cc8:	f1b3 7f40 	cmp.w	r3, #50331648	; 0x3000000
 8004ccc:	f000 81fc 	beq.w	80050c8 <HAL_RCCEx_GetPeriphCLKFreq+0x690>
 8004cd0:	f1b3 6f80 	cmp.w	r3, #67108864	; 0x4000000
 8004cd4:	d127      	bne.n	8004d26 <HAL_RCCEx_GetPeriphCLKFreq+0x2ee>
        ckpclocksource = __HAL_RCC_GET_CLKP_SOURCE();
 8004cd6:	4a08      	ldr	r2, [pc, #32]	; (8004cf8 <HAL_RCCEx_GetPeriphCLKFreq+0x2c0>)
 8004cd8:	6cd3      	ldr	r3, [r2, #76]	; 0x4c
 8004cda:	f003 5340 	and.w	r3, r3, #805306368	; 0x30000000
        if ((HAL_IS_BIT_SET(RCC->CR, RCC_CR_HSIRDY)) && (ckpclocksource == RCC_CLKPSOURCE_HSI))
 8004cde:	6812      	ldr	r2, [r2, #0]
 8004ce0:	f012 0f04 	tst.w	r2, #4
 8004ce4:	d037      	beq.n	8004d56 <HAL_RCCEx_GetPeriphCLKFreq+0x31e>
 8004ce6:	2b00      	cmp	r3, #0
 8004ce8:	d135      	bne.n	8004d56 <HAL_RCCEx_GetPeriphCLKFreq+0x31e>
          frequency = (HSI_VALUE >> (__HAL_RCC_GET_HSI_DIVIDER() >> 3));
 8004cea:	4b03      	ldr	r3, [pc, #12]	; (8004cf8 <HAL_RCCEx_GetPeriphCLKFreq+0x2c0>)
 8004cec:	681b      	ldr	r3, [r3, #0]
 8004cee:	f3c3 03c1 	ubfx	r3, r3, #3, #2
 8004cf2:	4803      	ldr	r0, [pc, #12]	; (8004d00 <HAL_RCCEx_GetPeriphCLKFreq+0x2c8>)
 8004cf4:	40d8      	lsrs	r0, r3
 8004cf6:	e1d6      	b.n	80050a6 <HAL_RCCEx_GetPeriphCLKFreq+0x66e>
 8004cf8:	58024400 	.word	0x58024400
 8004cfc:	00bb8000 	.word	0x00bb8000
 8004d00:	03d09000 	.word	0x03d09000
    switch (saiclocksource)
 8004d04:	b18b      	cbz	r3, 8004d2a <HAL_RCCEx_GetPeriphCLKFreq+0x2f2>
 8004d06:	f1b3 7f80 	cmp.w	r3, #16777216	; 0x1000000
 8004d0a:	d10a      	bne.n	8004d22 <HAL_RCCEx_GetPeriphCLKFreq+0x2ea>
        if (HAL_IS_BIT_SET(RCC->CR, RCC_CR_PLL2RDY))
 8004d0c:	4b9a      	ldr	r3, [pc, #616]	; (8004f78 <HAL_RCCEx_GetPeriphCLKFreq+0x540>)
 8004d0e:	6818      	ldr	r0, [r3, #0]
 8004d10:	f010 6000 	ands.w	r0, r0, #134217728	; 0x8000000
 8004d14:	f000 81c7 	beq.w	80050a6 <HAL_RCCEx_GetPeriphCLKFreq+0x66e>
          HAL_RCCEx_GetPLL2ClockFreq(&pll2_clocks);
 8004d18:	a804      	add	r0, sp, #16
 8004d1a:	f7ff fb99 	bl	8004450 <HAL_RCCEx_GetPLL2ClockFreq>
          frequency = pll2_clocks.PLL2_P_Frequency;
 8004d1e:	9804      	ldr	r0, [sp, #16]
 8004d20:	e1c1      	b.n	80050a6 <HAL_RCCEx_GetPeriphCLKFreq+0x66e>
        frequency = 0;
 8004d22:	2000      	movs	r0, #0
 8004d24:	e1bf      	b.n	80050a6 <HAL_RCCEx_GetPeriphCLKFreq+0x66e>
 8004d26:	2000      	movs	r0, #0
 8004d28:	e1bd      	b.n	80050a6 <HAL_RCCEx_GetPeriphCLKFreq+0x66e>
        if (HAL_IS_BIT_SET(RCC->CR, RCC_CR_PLL1RDY))
 8004d2a:	4b93      	ldr	r3, [pc, #588]	; (8004f78 <HAL_RCCEx_GetPeriphCLKFreq+0x540>)
 8004d2c:	6818      	ldr	r0, [r3, #0]
 8004d2e:	f010 7000 	ands.w	r0, r0, #33554432	; 0x2000000
 8004d32:	f000 81b8 	beq.w	80050a6 <HAL_RCCEx_GetPeriphCLKFreq+0x66e>
          HAL_RCCEx_GetPLL1ClockFreq(&pll1_clocks);
 8004d36:	a807      	add	r0, sp, #28
 8004d38:	f7ff fd82 	bl	8004840 <HAL_RCCEx_GetPLL1ClockFreq>
          frequency = pll1_clocks.PLL1_Q_Frequency;
 8004d3c:	9808      	ldr	r0, [sp, #32]
 8004d3e:	e1b2      	b.n	80050a6 <HAL_RCCEx_GetPeriphCLKFreq+0x66e>
        if (HAL_IS_BIT_SET(RCC->CR, RCC_CR_PLL3RDY))
 8004d40:	4b8d      	ldr	r3, [pc, #564]	; (8004f78 <HAL_RCCEx_GetPeriphCLKFreq+0x540>)
 8004d42:	6818      	ldr	r0, [r3, #0]
 8004d44:	f010 5000 	ands.w	r0, r0, #536870912	; 0x20000000
 8004d48:	f000 81ad 	beq.w	80050a6 <HAL_RCCEx_GetPeriphCLKFreq+0x66e>
          HAL_RCCEx_GetPLL3ClockFreq(&pll3_clocks);
 8004d4c:	a801      	add	r0, sp, #4
 8004d4e:	f7ff fc7b 	bl	8004648 <HAL_RCCEx_GetPLL3ClockFreq>
          frequency = pll3_clocks.PLL3_P_Frequency;
 8004d52:	9801      	ldr	r0, [sp, #4]
 8004d54:	e1a7      	b.n	80050a6 <HAL_RCCEx_GetPeriphCLKFreq+0x66e>
        else if ((HAL_IS_BIT_SET(RCC->CR, RCC_CR_CSIRDY)) && (ckpclocksource == RCC_CLKPSOURCE_CSI))
 8004d56:	4a88      	ldr	r2, [pc, #544]	; (8004f78 <HAL_RCCEx_GetPeriphCLKFreq+0x540>)
 8004d58:	6812      	ldr	r2, [r2, #0]
 8004d5a:	f412 7f80 	tst.w	r2, #256	; 0x100
 8004d5e:	d003      	beq.n	8004d68 <HAL_RCCEx_GetPeriphCLKFreq+0x330>
 8004d60:	f1b3 5f80 	cmp.w	r3, #268435456	; 0x10000000
 8004d64:	f000 81b2 	beq.w	80050cc <HAL_RCCEx_GetPeriphCLKFreq+0x694>
        else if ((HAL_IS_BIT_SET(RCC->CR, RCC_CR_HSERDY)) && (ckpclocksource == RCC_CLKPSOURCE_HSE))
 8004d68:	4a83      	ldr	r2, [pc, #524]	; (8004f78 <HAL_RCCEx_GetPeriphCLKFreq+0x540>)
 8004d6a:	6812      	ldr	r2, [r2, #0]
 8004d6c:	f412 3f00 	tst.w	r2, #131072	; 0x20000
 8004d70:	f000 81ae 	beq.w	80050d0 <HAL_RCCEx_GetPeriphCLKFreq+0x698>
 8004d74:	f1b3 5f00 	cmp.w	r3, #536870912	; 0x20000000
 8004d78:	f000 81ac 	beq.w	80050d4 <HAL_RCCEx_GetPeriphCLKFreq+0x69c>
          frequency = 0;
 8004d7c:	2000      	movs	r0, #0
 8004d7e:	e192      	b.n	80050a6 <HAL_RCCEx_GetPeriphCLKFreq+0x66e>
    srcclk = __HAL_RCC_GET_SPI123_SOURCE();
 8004d80:	4b7d      	ldr	r3, [pc, #500]	; (8004f78 <HAL_RCCEx_GetPeriphCLKFreq+0x540>)
 8004d82:	6d1b      	ldr	r3, [r3, #80]	; 0x50
 8004d84:	f403 43e0 	and.w	r3, r3, #28672	; 0x7000
    switch (srcclk)
 8004d88:	f5b3 5f00 	cmp.w	r3, #8192	; 0x2000
 8004d8c:	d035      	beq.n	8004dfa <HAL_RCCEx_GetPeriphCLKFreq+0x3c2>
 8004d8e:	d916      	bls.n	8004dbe <HAL_RCCEx_GetPeriphCLKFreq+0x386>
 8004d90:	f5b3 5f40 	cmp.w	r3, #12288	; 0x3000
 8004d94:	f000 81a0 	beq.w	80050d8 <HAL_RCCEx_GetPeriphCLKFreq+0x6a0>
 8004d98:	f5b3 4f80 	cmp.w	r3, #16384	; 0x4000
 8004d9c:	d120      	bne.n	8004de0 <HAL_RCCEx_GetPeriphCLKFreq+0x3a8>
        ckpclocksource = __HAL_RCC_GET_CLKP_SOURCE();
 8004d9e:	4a76      	ldr	r2, [pc, #472]	; (8004f78 <HAL_RCCEx_GetPeriphCLKFreq+0x540>)
 8004da0:	6cd3      	ldr	r3, [r2, #76]	; 0x4c
 8004da2:	f003 5340 	and.w	r3, r3, #805306368	; 0x30000000
        if ((HAL_IS_BIT_SET(RCC->CR, RCC_CR_HSIRDY)) && (ckpclocksource == RCC_CLKPSOURCE_HSI))
 8004da6:	6812      	ldr	r2, [r2, #0]
 8004da8:	f012 0f04 	tst.w	r2, #4
 8004dac:	d030      	beq.n	8004e10 <HAL_RCCEx_GetPeriphCLKFreq+0x3d8>
 8004dae:	bb7b      	cbnz	r3, 8004e10 <HAL_RCCEx_GetPeriphCLKFreq+0x3d8>
          frequency = (HSI_VALUE >> (__HAL_RCC_GET_HSI_DIVIDER() >> 3));
 8004db0:	4b71      	ldr	r3, [pc, #452]	; (8004f78 <HAL_RCCEx_GetPeriphCLKFreq+0x540>)
 8004db2:	681b      	ldr	r3, [r3, #0]
 8004db4:	f3c3 03c1 	ubfx	r3, r3, #3, #2
 8004db8:	4870      	ldr	r0, [pc, #448]	; (8004f7c <HAL_RCCEx_GetPeriphCLKFreq+0x544>)
 8004dba:	40d8      	lsrs	r0, r3
 8004dbc:	e173      	b.n	80050a6 <HAL_RCCEx_GetPeriphCLKFreq+0x66e>
    switch (srcclk)
 8004dbe:	b18b      	cbz	r3, 8004de4 <HAL_RCCEx_GetPeriphCLKFreq+0x3ac>
 8004dc0:	f5b3 5f80 	cmp.w	r3, #4096	; 0x1000
 8004dc4:	d10a      	bne.n	8004ddc <HAL_RCCEx_GetPeriphCLKFreq+0x3a4>
        if (HAL_IS_BIT_SET(RCC->CR, RCC_CR_PLL2RDY))
 8004dc6:	4b6c      	ldr	r3, [pc, #432]	; (8004f78 <HAL_RCCEx_GetPeriphCLKFreq+0x540>)
 8004dc8:	6818      	ldr	r0, [r3, #0]
 8004dca:	f010 6000 	ands.w	r0, r0, #134217728	; 0x8000000
 8004dce:	f000 816a 	beq.w	80050a6 <HAL_RCCEx_GetPeriphCLKFreq+0x66e>
          HAL_RCCEx_GetPLL2ClockFreq(&pll2_clocks);
 8004dd2:	a804      	add	r0, sp, #16
 8004dd4:	f7ff fb3c 	bl	8004450 <HAL_RCCEx_GetPLL2ClockFreq>
          frequency = pll2_clocks.PLL2_P_Frequency;
 8004dd8:	9804      	ldr	r0, [sp, #16]
 8004dda:	e164      	b.n	80050a6 <HAL_RCCEx_GetPeriphCLKFreq+0x66e>
        frequency = 0;
 8004ddc:	2000      	movs	r0, #0
 8004dde:	e162      	b.n	80050a6 <HAL_RCCEx_GetPeriphCLKFreq+0x66e>
 8004de0:	2000      	movs	r0, #0
 8004de2:	e160      	b.n	80050a6 <HAL_RCCEx_GetPeriphCLKFreq+0x66e>
        if (HAL_IS_BIT_SET(RCC->CR, RCC_CR_PLL1RDY))
 8004de4:	4b64      	ldr	r3, [pc, #400]	; (8004f78 <HAL_RCCEx_GetPeriphCLKFreq+0x540>)
 8004de6:	6818      	ldr	r0, [r3, #0]
 8004de8:	f010 7000 	ands.w	r0, r0, #33554432	; 0x2000000
 8004dec:	f000 815b 	beq.w	80050a6 <HAL_RCCEx_GetPeriphCLKFreq+0x66e>
          HAL_RCCEx_GetPLL1ClockFreq(&pll1_clocks);
 8004df0:	a807      	add	r0, sp, #28
 8004df2:	f7ff fd25 	bl	8004840 <HAL_RCCEx_GetPLL1ClockFreq>
          frequency = pll1_clocks.PLL1_Q_Frequency;
 8004df6:	9808      	ldr	r0, [sp, #32]
 8004df8:	e155      	b.n	80050a6 <HAL_RCCEx_GetPeriphCLKFreq+0x66e>
        if (HAL_IS_BIT_SET(RCC->CR, RCC_CR_PLL3RDY))
 8004dfa:	4b5f      	ldr	r3, [pc, #380]	; (8004f78 <HAL_RCCEx_GetPeriphCLKFreq+0x540>)
 8004dfc:	6818      	ldr	r0, [r3, #0]
 8004dfe:	f010 5000 	ands.w	r0, r0, #536870912	; 0x20000000
 8004e02:	f000 8150 	beq.w	80050a6 <HAL_RCCEx_GetPeriphCLKFreq+0x66e>
          HAL_RCCEx_GetPLL3ClockFreq(&pll3_clocks);
 8004e06:	a801      	add	r0, sp, #4
 8004e08:	f7ff fc1e 	bl	8004648 <HAL_RCCEx_GetPLL3ClockFreq>
          frequency = pll3_clocks.PLL3_P_Frequency;
 8004e0c:	9801      	ldr	r0, [sp, #4]
 8004e0e:	e14a      	b.n	80050a6 <HAL_RCCEx_GetPeriphCLKFreq+0x66e>
        else if ((HAL_IS_BIT_SET(RCC->CR, RCC_CR_CSIRDY)) && (ckpclocksource == RCC_CLKPSOURCE_CSI))
 8004e10:	4a59      	ldr	r2, [pc, #356]	; (8004f78 <HAL_RCCEx_GetPeriphCLKFreq+0x540>)
 8004e12:	6812      	ldr	r2, [r2, #0]
 8004e14:	f412 7f80 	tst.w	r2, #256	; 0x100
 8004e18:	d003      	beq.n	8004e22 <HAL_RCCEx_GetPeriphCLKFreq+0x3ea>
 8004e1a:	f1b3 5f80 	cmp.w	r3, #268435456	; 0x10000000
 8004e1e:	f000 815d 	beq.w	80050dc <HAL_RCCEx_GetPeriphCLKFreq+0x6a4>
        else if ((HAL_IS_BIT_SET(RCC->CR, RCC_CR_HSERDY)) && (ckpclocksource == RCC_CLKPSOURCE_HSE))
 8004e22:	4a55      	ldr	r2, [pc, #340]	; (8004f78 <HAL_RCCEx_GetPeriphCLKFreq+0x540>)
 8004e24:	6812      	ldr	r2, [r2, #0]
 8004e26:	f412 3f00 	tst.w	r2, #131072	; 0x20000
 8004e2a:	f000 8159 	beq.w	80050e0 <HAL_RCCEx_GetPeriphCLKFreq+0x6a8>
 8004e2e:	f1b3 5f00 	cmp.w	r3, #536870912	; 0x20000000
 8004e32:	f000 8157 	beq.w	80050e4 <HAL_RCCEx_GetPeriphCLKFreq+0x6ac>
          frequency = 0;
 8004e36:	2000      	movs	r0, #0
 8004e38:	e135      	b.n	80050a6 <HAL_RCCEx_GetPeriphCLKFreq+0x66e>
    srcclk = __HAL_RCC_GET_SPI45_SOURCE();
 8004e3a:	4b4f      	ldr	r3, [pc, #316]	; (8004f78 <HAL_RCCEx_GetPeriphCLKFreq+0x540>)
 8004e3c:	6d1b      	ldr	r3, [r3, #80]	; 0x50
 8004e3e:	f403 23e0 	and.w	r3, r3, #458752	; 0x70000
    switch (srcclk)
 8004e42:	f5b3 3f40 	cmp.w	r3, #196608	; 0x30000
 8004e46:	d032      	beq.n	8004eae <HAL_RCCEx_GetPeriphCLKFreq+0x476>
 8004e48:	d816      	bhi.n	8004e78 <HAL_RCCEx_GetPeriphCLKFreq+0x440>
 8004e4a:	f5b3 3f80 	cmp.w	r3, #65536	; 0x10000
 8004e4e:	d023      	beq.n	8004e98 <HAL_RCCEx_GetPeriphCLKFreq+0x460>
 8004e50:	f5b3 3f00 	cmp.w	r3, #131072	; 0x20000
 8004e54:	d10a      	bne.n	8004e6c <HAL_RCCEx_GetPeriphCLKFreq+0x434>
        if (HAL_IS_BIT_SET(RCC->CR, RCC_CR_PLL3RDY))
 8004e56:	4b48      	ldr	r3, [pc, #288]	; (8004f78 <HAL_RCCEx_GetPeriphCLKFreq+0x540>)
 8004e58:	6818      	ldr	r0, [r3, #0]
 8004e5a:	f010 5000 	ands.w	r0, r0, #536870912	; 0x20000000
 8004e5e:	f000 8122 	beq.w	80050a6 <HAL_RCCEx_GetPeriphCLKFreq+0x66e>
          HAL_RCCEx_GetPLL3ClockFreq(&pll3_clocks);
 8004e62:	a801      	add	r0, sp, #4
 8004e64:	f7ff fbf0 	bl	8004648 <HAL_RCCEx_GetPLL3ClockFreq>
          frequency = pll3_clocks.PLL3_Q_Frequency;
 8004e68:	9802      	ldr	r0, [sp, #8]
 8004e6a:	e11c      	b.n	80050a6 <HAL_RCCEx_GetPeriphCLKFreq+0x66e>
    switch (srcclk)
 8004e6c:	b913      	cbnz	r3, 8004e74 <HAL_RCCEx_GetPeriphCLKFreq+0x43c>
        frequency = HAL_RCC_GetPCLK1Freq();
 8004e6e:	f7fe fc79 	bl	8003764 <HAL_RCC_GetPCLK1Freq>
        break;
 8004e72:	e118      	b.n	80050a6 <HAL_RCCEx_GetPeriphCLKFreq+0x66e>
    switch (srcclk)
 8004e74:	2000      	movs	r0, #0
 8004e76:	e116      	b.n	80050a6 <HAL_RCCEx_GetPeriphCLKFreq+0x66e>
 8004e78:	f5b3 2f80 	cmp.w	r3, #262144	; 0x40000
 8004e7c:	d023      	beq.n	8004ec6 <HAL_RCCEx_GetPeriphCLKFreq+0x48e>
 8004e7e:	f5b3 2fa0 	cmp.w	r3, #327680	; 0x50000
 8004e82:	d107      	bne.n	8004e94 <HAL_RCCEx_GetPeriphCLKFreq+0x45c>
        if (HAL_IS_BIT_SET(RCC->CR, RCC_CR_HSERDY))
 8004e84:	4b3c      	ldr	r3, [pc, #240]	; (8004f78 <HAL_RCCEx_GetPeriphCLKFreq+0x540>)
 8004e86:	6818      	ldr	r0, [r3, #0]
 8004e88:	f410 3000 	ands.w	r0, r0, #131072	; 0x20000
 8004e8c:	f000 810b 	beq.w	80050a6 <HAL_RCCEx_GetPeriphCLKFreq+0x66e>
          frequency = HSE_VALUE;
 8004e90:	483b      	ldr	r0, [pc, #236]	; (8004f80 <HAL_RCCEx_GetPeriphCLKFreq+0x548>)
 8004e92:	e108      	b.n	80050a6 <HAL_RCCEx_GetPeriphCLKFreq+0x66e>
    switch (srcclk)
 8004e94:	2000      	movs	r0, #0
 8004e96:	e106      	b.n	80050a6 <HAL_RCCEx_GetPeriphCLKFreq+0x66e>
        if (HAL_IS_BIT_SET(RCC->CR, RCC_CR_PLL2RDY))
 8004e98:	4b37      	ldr	r3, [pc, #220]	; (8004f78 <HAL_RCCEx_GetPeriphCLKFreq+0x540>)
 8004e9a:	6818      	ldr	r0, [r3, #0]
 8004e9c:	f010 6000 	ands.w	r0, r0, #134217728	; 0x8000000
 8004ea0:	f000 8101 	beq.w	80050a6 <HAL_RCCEx_GetPeriphCLKFreq+0x66e>
          HAL_RCCEx_GetPLL2ClockFreq(&pll2_clocks);
 8004ea4:	a804      	add	r0, sp, #16
 8004ea6:	f7ff fad3 	bl	8004450 <HAL_RCCEx_GetPLL2ClockFreq>
          frequency = pll2_clocks.PLL2_Q_Frequency;
 8004eaa:	9805      	ldr	r0, [sp, #20]
 8004eac:	e0fb      	b.n	80050a6 <HAL_RCCEx_GetPeriphCLKFreq+0x66e>
        if (HAL_IS_BIT_SET(RCC->CR, RCC_CR_HSIRDY))
 8004eae:	4b32      	ldr	r3, [pc, #200]	; (8004f78 <HAL_RCCEx_GetPeriphCLKFreq+0x540>)
 8004eb0:	6818      	ldr	r0, [r3, #0]
 8004eb2:	f010 0004 	ands.w	r0, r0, #4
 8004eb6:	f000 80f6 	beq.w	80050a6 <HAL_RCCEx_GetPeriphCLKFreq+0x66e>
          frequency = (HSI_VALUE >> (__HAL_RCC_GET_HSI_DIVIDER() >> 3));
 8004eba:	681b      	ldr	r3, [r3, #0]
 8004ebc:	f3c3 03c1 	ubfx	r3, r3, #3, #2
 8004ec0:	482e      	ldr	r0, [pc, #184]	; (8004f7c <HAL_RCCEx_GetPeriphCLKFreq+0x544>)
 8004ec2:	40d8      	lsrs	r0, r3
 8004ec4:	e0ef      	b.n	80050a6 <HAL_RCCEx_GetPeriphCLKFreq+0x66e>
        if (HAL_IS_BIT_SET(RCC->CR, RCC_CR_CSIRDY))
 8004ec6:	4b2c      	ldr	r3, [pc, #176]	; (8004f78 <HAL_RCCEx_GetPeriphCLKFreq+0x540>)
 8004ec8:	6818      	ldr	r0, [r3, #0]
 8004eca:	f410 7080 	ands.w	r0, r0, #256	; 0x100
 8004ece:	f000 80ea 	beq.w	80050a6 <HAL_RCCEx_GetPeriphCLKFreq+0x66e>
          frequency = CSI_VALUE;
 8004ed2:	482c      	ldr	r0, [pc, #176]	; (8004f84 <HAL_RCCEx_GetPeriphCLKFreq+0x54c>)
 8004ed4:	e0e7      	b.n	80050a6 <HAL_RCCEx_GetPeriphCLKFreq+0x66e>
    srcclk = __HAL_RCC_GET_ADC_SOURCE();
 8004ed6:	4b28      	ldr	r3, [pc, #160]	; (8004f78 <HAL_RCCEx_GetPeriphCLKFreq+0x540>)
 8004ed8:	6d9b      	ldr	r3, [r3, #88]	; 0x58
 8004eda:	f403 3340 	and.w	r3, r3, #196608	; 0x30000
    switch (srcclk)
 8004ede:	f5b3 3f80 	cmp.w	r3, #65536	; 0x10000
 8004ee2:	d010      	beq.n	8004f06 <HAL_RCCEx_GetPeriphCLKFreq+0x4ce>
 8004ee4:	f5b3 3f00 	cmp.w	r3, #131072	; 0x20000
 8004ee8:	d018      	beq.n	8004f1c <HAL_RCCEx_GetPeriphCLKFreq+0x4e4>
 8004eea:	b10b      	cbz	r3, 8004ef0 <HAL_RCCEx_GetPeriphCLKFreq+0x4b8>
 8004eec:	2000      	movs	r0, #0
 8004eee:	e0da      	b.n	80050a6 <HAL_RCCEx_GetPeriphCLKFreq+0x66e>
        if (HAL_IS_BIT_SET(RCC->CR, RCC_CR_PLL2RDY))
 8004ef0:	4b21      	ldr	r3, [pc, #132]	; (8004f78 <HAL_RCCEx_GetPeriphCLKFreq+0x540>)
 8004ef2:	6818      	ldr	r0, [r3, #0]
 8004ef4:	f010 6000 	ands.w	r0, r0, #134217728	; 0x8000000
 8004ef8:	f000 80d5 	beq.w	80050a6 <HAL_RCCEx_GetPeriphCLKFreq+0x66e>
          HAL_RCCEx_GetPLL2ClockFreq(&pll2_clocks);
 8004efc:	a804      	add	r0, sp, #16
 8004efe:	f7ff faa7 	bl	8004450 <HAL_RCCEx_GetPLL2ClockFreq>
          frequency = pll2_clocks.PLL2_P_Frequency;
 8004f02:	9804      	ldr	r0, [sp, #16]
 8004f04:	e0cf      	b.n	80050a6 <HAL_RCCEx_GetPeriphCLKFreq+0x66e>
        if (HAL_IS_BIT_SET(RCC->CR, RCC_CR_PLL3RDY))
 8004f06:	4b1c      	ldr	r3, [pc, #112]	; (8004f78 <HAL_RCCEx_GetPeriphCLKFreq+0x540>)
 8004f08:	6818      	ldr	r0, [r3, #0]
 8004f0a:	f010 5000 	ands.w	r0, r0, #536870912	; 0x20000000
 8004f0e:	f000 80ca 	beq.w	80050a6 <HAL_RCCEx_GetPeriphCLKFreq+0x66e>
          HAL_RCCEx_GetPLL3ClockFreq(&pll3_clocks);
 8004f12:	a801      	add	r0, sp, #4
 8004f14:	f7ff fb98 	bl	8004648 <HAL_RCCEx_GetPLL3ClockFreq>
          frequency = pll3_clocks.PLL3_R_Frequency;
 8004f18:	9803      	ldr	r0, [sp, #12]
 8004f1a:	e0c4      	b.n	80050a6 <HAL_RCCEx_GetPeriphCLKFreq+0x66e>
        ckpclocksource = __HAL_RCC_GET_CLKP_SOURCE();
 8004f1c:	4a16      	ldr	r2, [pc, #88]	; (8004f78 <HAL_RCCEx_GetPeriphCLKFreq+0x540>)
 8004f1e:	6cd3      	ldr	r3, [r2, #76]	; 0x4c
 8004f20:	f003 5340 	and.w	r3, r3, #805306368	; 0x30000000
        if ((HAL_IS_BIT_SET(RCC->CR, RCC_CR_HSIRDY)) && (ckpclocksource == RCC_CLKPSOURCE_HSI))
 8004f24:	6812      	ldr	r2, [r2, #0]
 8004f26:	f012 0f04 	tst.w	r2, #4
 8004f2a:	d007      	beq.n	8004f3c <HAL_RCCEx_GetPeriphCLKFreq+0x504>
 8004f2c:	b933      	cbnz	r3, 8004f3c <HAL_RCCEx_GetPeriphCLKFreq+0x504>
          frequency = (HSI_VALUE >> (__HAL_RCC_GET_HSI_DIVIDER() >> 3));
 8004f2e:	4b12      	ldr	r3, [pc, #72]	; (8004f78 <HAL_RCCEx_GetPeriphCLKFreq+0x540>)
 8004f30:	681b      	ldr	r3, [r3, #0]
 8004f32:	f3c3 03c1 	ubfx	r3, r3, #3, #2
 8004f36:	4811      	ldr	r0, [pc, #68]	; (8004f7c <HAL_RCCEx_GetPeriphCLKFreq+0x544>)
 8004f38:	40d8      	lsrs	r0, r3
 8004f3a:	e0b4      	b.n	80050a6 <HAL_RCCEx_GetPeriphCLKFreq+0x66e>
        else if ((HAL_IS_BIT_SET(RCC->CR, RCC_CR_CSIRDY)) && (ckpclocksource == RCC_CLKPSOURCE_CSI))
 8004f3c:	4a0e      	ldr	r2, [pc, #56]	; (8004f78 <HAL_RCCEx_GetPeriphCLKFreq+0x540>)
 8004f3e:	6812      	ldr	r2, [r2, #0]
 8004f40:	f412 7f80 	tst.w	r2, #256	; 0x100
 8004f44:	d003      	beq.n	8004f4e <HAL_RCCEx_GetPeriphCLKFreq+0x516>
 8004f46:	f1b3 5f80 	cmp.w	r3, #268435456	; 0x10000000
 8004f4a:	f000 80cd 	beq.w	80050e8 <HAL_RCCEx_GetPeriphCLKFreq+0x6b0>
        else if ((HAL_IS_BIT_SET(RCC->CR, RCC_CR_HSERDY)) && (ckpclocksource == RCC_CLKPSOURCE_HSE))
 8004f4e:	4a0a      	ldr	r2, [pc, #40]	; (8004f78 <HAL_RCCEx_GetPeriphCLKFreq+0x540>)
 8004f50:	6812      	ldr	r2, [r2, #0]
 8004f52:	f412 3f00 	tst.w	r2, #131072	; 0x20000
 8004f56:	f000 80c9 	beq.w	80050ec <HAL_RCCEx_GetPeriphCLKFreq+0x6b4>
 8004f5a:	f1b3 5f00 	cmp.w	r3, #536870912	; 0x20000000
 8004f5e:	f000 80c7 	beq.w	80050f0 <HAL_RCCEx_GetPeriphCLKFreq+0x6b8>
          frequency = 0;
 8004f62:	2000      	movs	r0, #0
 8004f64:	e09f      	b.n	80050a6 <HAL_RCCEx_GetPeriphCLKFreq+0x66e>
    srcclk = __HAL_RCC_GET_SDMMC_SOURCE();
 8004f66:	4b04      	ldr	r3, [pc, #16]	; (8004f78 <HAL_RCCEx_GetPeriphCLKFreq+0x540>)
 8004f68:	6cdb      	ldr	r3, [r3, #76]	; 0x4c
    switch (srcclk)
 8004f6a:	f413 3380 	ands.w	r3, r3, #65536	; 0x10000
 8004f6e:	d00b      	beq.n	8004f88 <HAL_RCCEx_GetPeriphCLKFreq+0x550>
 8004f70:	b9ab      	cbnz	r3, 8004f9e <HAL_RCCEx_GetPeriphCLKFreq+0x566>
 8004f72:	2000      	movs	r0, #0
 8004f74:	e097      	b.n	80050a6 <HAL_RCCEx_GetPeriphCLKFreq+0x66e>
 8004f76:	bf00      	nop
 8004f78:	58024400 	.word	0x58024400
 8004f7c:	03d09000 	.word	0x03d09000
 8004f80:	00f42400 	.word	0x00f42400
 8004f84:	003d0900 	.word	0x003d0900
        if (HAL_IS_BIT_SET(RCC->CR, RCC_CR_PLL1RDY))
 8004f88:	4b5a      	ldr	r3, [pc, #360]	; (80050f4 <HAL_RCCEx_GetPeriphCLKFreq+0x6bc>)
 8004f8a:	6818      	ldr	r0, [r3, #0]
 8004f8c:	f010 7000 	ands.w	r0, r0, #33554432	; 0x2000000
 8004f90:	f000 8089 	beq.w	80050a6 <HAL_RCCEx_GetPeriphCLKFreq+0x66e>
          HAL_RCCEx_GetPLL1ClockFreq(&pll1_clocks);
 8004f94:	a807      	add	r0, sp, #28
 8004f96:	f7ff fc53 	bl	8004840 <HAL_RCCEx_GetPLL1ClockFreq>
          frequency = pll1_clocks.PLL1_Q_Frequency;
 8004f9a:	9808      	ldr	r0, [sp, #32]
 8004f9c:	e083      	b.n	80050a6 <HAL_RCCEx_GetPeriphCLKFreq+0x66e>
        if (HAL_IS_BIT_SET(RCC->CR, RCC_CR_PLL2RDY))
 8004f9e:	4b55      	ldr	r3, [pc, #340]	; (80050f4 <HAL_RCCEx_GetPeriphCLKFreq+0x6bc>)
 8004fa0:	6818      	ldr	r0, [r3, #0]
 8004fa2:	f010 6000 	ands.w	r0, r0, #134217728	; 0x8000000
 8004fa6:	d07e      	beq.n	80050a6 <HAL_RCCEx_GetPeriphCLKFreq+0x66e>
          HAL_RCCEx_GetPLL2ClockFreq(&pll2_clocks);
 8004fa8:	a804      	add	r0, sp, #16
 8004faa:	f7ff fa51 	bl	8004450 <HAL_RCCEx_GetPLL2ClockFreq>
          frequency = pll2_clocks.PLL2_R_Frequency;
 8004fae:	9806      	ldr	r0, [sp, #24]
 8004fb0:	e079      	b.n	80050a6 <HAL_RCCEx_GetPeriphCLKFreq+0x66e>
    srcclk = __HAL_RCC_GET_SPI6_SOURCE();
 8004fb2:	4b50      	ldr	r3, [pc, #320]	; (80050f4 <HAL_RCCEx_GetPeriphCLKFreq+0x6bc>)
 8004fb4:	6d9b      	ldr	r3, [r3, #88]	; 0x58
 8004fb6:	f003 43e0 	and.w	r3, r3, #1879048192	; 0x70000000
    switch (srcclk)
 8004fba:	f1b3 5f40 	cmp.w	r3, #805306368	; 0x30000000
 8004fbe:	d02f      	beq.n	8005020 <HAL_RCCEx_GetPeriphCLKFreq+0x5e8>
 8004fc0:	d815      	bhi.n	8004fee <HAL_RCCEx_GetPeriphCLKFreq+0x5b6>
 8004fc2:	f1b3 5f80 	cmp.w	r3, #268435456	; 0x10000000
 8004fc6:	d021      	beq.n	800500c <HAL_RCCEx_GetPeriphCLKFreq+0x5d4>
 8004fc8:	f1b3 5f00 	cmp.w	r3, #536870912	; 0x20000000
 8004fcc:	d109      	bne.n	8004fe2 <HAL_RCCEx_GetPeriphCLKFreq+0x5aa>
        if (HAL_IS_BIT_SET(RCC->CR, RCC_CR_PLL3RDY))
 8004fce:	4b49      	ldr	r3, [pc, #292]	; (80050f4 <HAL_RCCEx_GetPeriphCLKFreq+0x6bc>)
 8004fd0:	6818      	ldr	r0, [r3, #0]
 8004fd2:	f010 5000 	ands.w	r0, r0, #536870912	; 0x20000000
 8004fd6:	d066      	beq.n	80050a6 <HAL_RCCEx_GetPeriphCLKFreq+0x66e>
          HAL_RCCEx_GetPLL3ClockFreq(&pll3_clocks);
 8004fd8:	a801      	add	r0, sp, #4
 8004fda:	f7ff fb35 	bl	8004648 <HAL_RCCEx_GetPLL3ClockFreq>
          frequency = pll3_clocks.PLL3_Q_Frequency;
 8004fde:	9802      	ldr	r0, [sp, #8]
 8004fe0:	e061      	b.n	80050a6 <HAL_RCCEx_GetPeriphCLKFreq+0x66e>
    switch (srcclk)
 8004fe2:	b913      	cbnz	r3, 8004fea <HAL_RCCEx_GetPeriphCLKFreq+0x5b2>
        frequency = HAL_RCCEx_GetD3PCLK1Freq();
 8004fe4:	f7ff fa22 	bl	800442c <HAL_RCCEx_GetD3PCLK1Freq>
        break;
 8004fe8:	e05d      	b.n	80050a6 <HAL_RCCEx_GetPeriphCLKFreq+0x66e>
    switch (srcclk)
 8004fea:	2000      	movs	r0, #0
 8004fec:	e05b      	b.n	80050a6 <HAL_RCCEx_GetPeriphCLKFreq+0x66e>
 8004fee:	f1b3 4f80 	cmp.w	r3, #1073741824	; 0x40000000
 8004ff2:	d020      	beq.n	8005036 <HAL_RCCEx_GetPeriphCLKFreq+0x5fe>
 8004ff4:	f1b3 4fa0 	cmp.w	r3, #1342177280	; 0x50000000
 8004ff8:	d106      	bne.n	8005008 <HAL_RCCEx_GetPeriphCLKFreq+0x5d0>
        if (HAL_IS_BIT_SET(RCC->CR, RCC_CR_HSERDY))
 8004ffa:	4b3e      	ldr	r3, [pc, #248]	; (80050f4 <HAL_RCCEx_GetPeriphCLKFreq+0x6bc>)
 8004ffc:	6818      	ldr	r0, [r3, #0]
 8004ffe:	f410 3000 	ands.w	r0, r0, #131072	; 0x20000
 8005002:	d050      	beq.n	80050a6 <HAL_RCCEx_GetPeriphCLKFreq+0x66e>
          frequency = HSE_VALUE;
 8005004:	483c      	ldr	r0, [pc, #240]	; (80050f8 <HAL_RCCEx_GetPeriphCLKFreq+0x6c0>)
 8005006:	e04e      	b.n	80050a6 <HAL_RCCEx_GetPeriphCLKFreq+0x66e>
    switch (srcclk)
 8005008:	2000      	movs	r0, #0
 800500a:	e04c      	b.n	80050a6 <HAL_RCCEx_GetPeriphCLKFreq+0x66e>
        if (HAL_IS_BIT_SET(RCC->CR, RCC_CR_PLL2RDY))
 800500c:	4b39      	ldr	r3, [pc, #228]	; (80050f4 <HAL_RCCEx_GetPeriphCLKFreq+0x6bc>)
 800500e:	6818      	ldr	r0, [r3, #0]
 8005010:	f010 6000 	ands.w	r0, r0, #134217728	; 0x8000000
 8005014:	d047      	beq.n	80050a6 <HAL_RCCEx_GetPeriphCLKFreq+0x66e>
          HAL_RCCEx_GetPLL2ClockFreq(&pll2_clocks);
 8005016:	a804      	add	r0, sp, #16
 8005018:	f7ff fa1a 	bl	8004450 <HAL_RCCEx_GetPLL2ClockFreq>
          frequency = pll2_clocks.PLL2_Q_Frequency;
 800501c:	9805      	ldr	r0, [sp, #20]
 800501e:	e042      	b.n	80050a6 <HAL_RCCEx_GetPeriphCLKFreq+0x66e>
        if (HAL_IS_BIT_SET(RCC->CR, RCC_CR_HSIRDY))
 8005020:	4b34      	ldr	r3, [pc, #208]	; (80050f4 <HAL_RCCEx_GetPeriphCLKFreq+0x6bc>)
 8005022:	6818      	ldr	r0, [r3, #0]
 8005024:	f010 0004 	ands.w	r0, r0, #4
 8005028:	d03d      	beq.n	80050a6 <HAL_RCCEx_GetPeriphCLKFreq+0x66e>
          frequency = (HSI_VALUE >> (__HAL_RCC_GET_HSI_DIVIDER() >> 3));
 800502a:	681b      	ldr	r3, [r3, #0]
 800502c:	f3c3 03c1 	ubfx	r3, r3, #3, #2
 8005030:	4832      	ldr	r0, [pc, #200]	; (80050fc <HAL_RCCEx_GetPeriphCLKFreq+0x6c4>)
 8005032:	40d8      	lsrs	r0, r3
 8005034:	e037      	b.n	80050a6 <HAL_RCCEx_GetPeriphCLKFreq+0x66e>
        if (HAL_IS_BIT_SET(RCC->CR, RCC_CR_CSIRDY))
 8005036:	4b2f      	ldr	r3, [pc, #188]	; (80050f4 <HAL_RCCEx_GetPeriphCLKFreq+0x6bc>)
 8005038:	6818      	ldr	r0, [r3, #0]
 800503a:	f410 7080 	ands.w	r0, r0, #256	; 0x100
 800503e:	d032      	beq.n	80050a6 <HAL_RCCEx_GetPeriphCLKFreq+0x66e>
          frequency = CSI_VALUE;
 8005040:	482f      	ldr	r0, [pc, #188]	; (8005100 <HAL_RCCEx_GetPeriphCLKFreq+0x6c8>)
 8005042:	e030      	b.n	80050a6 <HAL_RCCEx_GetPeriphCLKFreq+0x66e>
    srcclk = __HAL_RCC_GET_FDCAN_SOURCE();
 8005044:	4b2b      	ldr	r3, [pc, #172]	; (80050f4 <HAL_RCCEx_GetPeriphCLKFreq+0x6bc>)
 8005046:	6d1b      	ldr	r3, [r3, #80]	; 0x50
 8005048:	f003 5340 	and.w	r3, r3, #805306368	; 0x30000000
    switch (srcclk)
 800504c:	f1b3 5f80 	cmp.w	r3, #268435456	; 0x10000000
 8005050:	d00c      	beq.n	800506c <HAL_RCCEx_GetPeriphCLKFreq+0x634>
 8005052:	f1b3 5f00 	cmp.w	r3, #536870912	; 0x20000000
 8005056:	d013      	beq.n	8005080 <HAL_RCCEx_GetPeriphCLKFreq+0x648>
 8005058:	b10b      	cbz	r3, 800505e <HAL_RCCEx_GetPeriphCLKFreq+0x626>
 800505a:	2000      	movs	r0, #0
  return frequency;
 800505c:	e023      	b.n	80050a6 <HAL_RCCEx_GetPeriphCLKFreq+0x66e>
        if (HAL_IS_BIT_SET(RCC->CR, RCC_CR_HSERDY))
 800505e:	4b25      	ldr	r3, [pc, #148]	; (80050f4 <HAL_RCCEx_GetPeriphCLKFreq+0x6bc>)
 8005060:	6818      	ldr	r0, [r3, #0]
 8005062:	f410 3000 	ands.w	r0, r0, #131072	; 0x20000
 8005066:	d01e      	beq.n	80050a6 <HAL_RCCEx_GetPeriphCLKFreq+0x66e>
          frequency = HSE_VALUE;
 8005068:	4823      	ldr	r0, [pc, #140]	; (80050f8 <HAL_RCCEx_GetPeriphCLKFreq+0x6c0>)
 800506a:	e01c      	b.n	80050a6 <HAL_RCCEx_GetPeriphCLKFreq+0x66e>
        if (HAL_IS_BIT_SET(RCC->CR, RCC_CR_PLL1RDY))
 800506c:	4b21      	ldr	r3, [pc, #132]	; (80050f4 <HAL_RCCEx_GetPeriphCLKFreq+0x6bc>)
 800506e:	6818      	ldr	r0, [r3, #0]
 8005070:	f010 7000 	ands.w	r0, r0, #33554432	; 0x2000000
 8005074:	d017      	beq.n	80050a6 <HAL_RCCEx_GetPeriphCLKFreq+0x66e>
          HAL_RCCEx_GetPLL1ClockFreq(&pll1_clocks);
 8005076:	a807      	add	r0, sp, #28
 8005078:	f7ff fbe2 	bl	8004840 <HAL_RCCEx_GetPLL1ClockFreq>
          frequency = pll1_clocks.PLL1_Q_Frequency;
 800507c:	9808      	ldr	r0, [sp, #32]
 800507e:	e012      	b.n	80050a6 <HAL_RCCEx_GetPeriphCLKFreq+0x66e>
        if (HAL_IS_BIT_SET(RCC->CR, RCC_CR_PLL2RDY))
 8005080:	4b1c      	ldr	r3, [pc, #112]	; (80050f4 <HAL_RCCEx_GetPeriphCLKFreq+0x6bc>)
 8005082:	6818      	ldr	r0, [r3, #0]
 8005084:	f010 6000 	ands.w	r0, r0, #134217728	; 0x8000000
 8005088:	d00d      	beq.n	80050a6 <HAL_RCCEx_GetPeriphCLKFreq+0x66e>
          HAL_RCCEx_GetPLL2ClockFreq(&pll2_clocks);
 800508a:	a804      	add	r0, sp, #16
 800508c:	f7ff f9e0 	bl	8004450 <HAL_RCCEx_GetPLL2ClockFreq>
          frequency = pll2_clocks.PLL2_Q_Frequency;
 8005090:	9805      	ldr	r0, [sp, #20]
 8005092:	e008      	b.n	80050a6 <HAL_RCCEx_GetPeriphCLKFreq+0x66e>
        frequency = 0;
 8005094:	2000      	movs	r0, #0
 8005096:	e006      	b.n	80050a6 <HAL_RCCEx_GetPeriphCLKFreq+0x66e>
          frequency = CSI_VALUE;
 8005098:	4819      	ldr	r0, [pc, #100]	; (8005100 <HAL_RCCEx_GetPeriphCLKFreq+0x6c8>)
 800509a:	e004      	b.n	80050a6 <HAL_RCCEx_GetPeriphCLKFreq+0x66e>
          frequency = 0;
 800509c:	2000      	movs	r0, #0
 800509e:	e002      	b.n	80050a6 <HAL_RCCEx_GetPeriphCLKFreq+0x66e>
          frequency = HSE_VALUE;
 80050a0:	4815      	ldr	r0, [pc, #84]	; (80050f8 <HAL_RCCEx_GetPeriphCLKFreq+0x6c0>)
 80050a2:	e000      	b.n	80050a6 <HAL_RCCEx_GetPeriphCLKFreq+0x66e>
    switch (saiclocksource)
 80050a4:	4817      	ldr	r0, [pc, #92]	; (8005104 <HAL_RCCEx_GetPeriphCLKFreq+0x6cc>)
}
 80050a6:	b00b      	add	sp, #44	; 0x2c
 80050a8:	f85d fb04 	ldr.w	pc, [sp], #4
          frequency = CSI_VALUE;
 80050ac:	4814      	ldr	r0, [pc, #80]	; (8005100 <HAL_RCCEx_GetPeriphCLKFreq+0x6c8>)
 80050ae:	e7fa      	b.n	80050a6 <HAL_RCCEx_GetPeriphCLKFreq+0x66e>
          frequency = 0;
 80050b0:	2000      	movs	r0, #0
 80050b2:	e7f8      	b.n	80050a6 <HAL_RCCEx_GetPeriphCLKFreq+0x66e>
          frequency = HSE_VALUE;
 80050b4:	4810      	ldr	r0, [pc, #64]	; (80050f8 <HAL_RCCEx_GetPeriphCLKFreq+0x6c0>)
 80050b6:	e7f6      	b.n	80050a6 <HAL_RCCEx_GetPeriphCLKFreq+0x66e>
    switch (saiclocksource)
 80050b8:	4812      	ldr	r0, [pc, #72]	; (8005104 <HAL_RCCEx_GetPeriphCLKFreq+0x6cc>)
 80050ba:	e7f4      	b.n	80050a6 <HAL_RCCEx_GetPeriphCLKFreq+0x66e>
          frequency = CSI_VALUE;
 80050bc:	4810      	ldr	r0, [pc, #64]	; (8005100 <HAL_RCCEx_GetPeriphCLKFreq+0x6c8>)
 80050be:	e7f2      	b.n	80050a6 <HAL_RCCEx_GetPeriphCLKFreq+0x66e>
          frequency = 0;
 80050c0:	2000      	movs	r0, #0
 80050c2:	e7f0      	b.n	80050a6 <HAL_RCCEx_GetPeriphCLKFreq+0x66e>
          frequency = HSE_VALUE;
 80050c4:	480c      	ldr	r0, [pc, #48]	; (80050f8 <HAL_RCCEx_GetPeriphCLKFreq+0x6c0>)
 80050c6:	e7ee      	b.n	80050a6 <HAL_RCCEx_GetPeriphCLKFreq+0x66e>
    switch (saiclocksource)
 80050c8:	480e      	ldr	r0, [pc, #56]	; (8005104 <HAL_RCCEx_GetPeriphCLKFreq+0x6cc>)
 80050ca:	e7ec      	b.n	80050a6 <HAL_RCCEx_GetPeriphCLKFreq+0x66e>
          frequency = CSI_VALUE;
 80050cc:	480c      	ldr	r0, [pc, #48]	; (8005100 <HAL_RCCEx_GetPeriphCLKFreq+0x6c8>)
 80050ce:	e7ea      	b.n	80050a6 <HAL_RCCEx_GetPeriphCLKFreq+0x66e>
          frequency = 0;
 80050d0:	2000      	movs	r0, #0
 80050d2:	e7e8      	b.n	80050a6 <HAL_RCCEx_GetPeriphCLKFreq+0x66e>
          frequency = HSE_VALUE;
 80050d4:	4808      	ldr	r0, [pc, #32]	; (80050f8 <HAL_RCCEx_GetPeriphCLKFreq+0x6c0>)
 80050d6:	e7e6      	b.n	80050a6 <HAL_RCCEx_GetPeriphCLKFreq+0x66e>
    switch (srcclk)
 80050d8:	480a      	ldr	r0, [pc, #40]	; (8005104 <HAL_RCCEx_GetPeriphCLKFreq+0x6cc>)
 80050da:	e7e4      	b.n	80050a6 <HAL_RCCEx_GetPeriphCLKFreq+0x66e>
          frequency = CSI_VALUE;
 80050dc:	4808      	ldr	r0, [pc, #32]	; (8005100 <HAL_RCCEx_GetPeriphCLKFreq+0x6c8>)
 80050de:	e7e2      	b.n	80050a6 <HAL_RCCEx_GetPeriphCLKFreq+0x66e>
          frequency = 0;
 80050e0:	2000      	movs	r0, #0
 80050e2:	e7e0      	b.n	80050a6 <HAL_RCCEx_GetPeriphCLKFreq+0x66e>
          frequency = HSE_VALUE;
 80050e4:	4804      	ldr	r0, [pc, #16]	; (80050f8 <HAL_RCCEx_GetPeriphCLKFreq+0x6c0>)
 80050e6:	e7de      	b.n	80050a6 <HAL_RCCEx_GetPeriphCLKFreq+0x66e>
          frequency = CSI_VALUE;
 80050e8:	4805      	ldr	r0, [pc, #20]	; (8005100 <HAL_RCCEx_GetPeriphCLKFreq+0x6c8>)
 80050ea:	e7dc      	b.n	80050a6 <HAL_RCCEx_GetPeriphCLKFreq+0x66e>
          frequency = 0;
 80050ec:	2000      	movs	r0, #0
 80050ee:	e7da      	b.n	80050a6 <HAL_RCCEx_GetPeriphCLKFreq+0x66e>
          frequency = HSE_VALUE;
 80050f0:	4801      	ldr	r0, [pc, #4]	; (80050f8 <HAL_RCCEx_GetPeriphCLKFreq+0x6c0>)
 80050f2:	e7d8      	b.n	80050a6 <HAL_RCCEx_GetPeriphCLKFreq+0x66e>
 80050f4:	58024400 	.word	0x58024400
 80050f8:	00f42400 	.word	0x00f42400
 80050fc:	03d09000 	.word	0x03d09000
 8005100:	003d0900 	.word	0x003d0900
 8005104:	00bb8000 	.word	0x00bb8000

08005108 <SD_PowerON>:
  *         in the SD handle.
  * @param  hsd: Pointer to SD handle
  * @retval error state
  */
static uint32_t SD_PowerON(SD_HandleTypeDef *hsd)
{
 8005108:	b570      	push	{r4, r5, r6, lr}
 800510a:	b082      	sub	sp, #8
 800510c:	4604      	mov	r4, r0
  __IO uint32_t count = 0U;
 800510e:	2300      	movs	r3, #0
 8005110:	9301      	str	r3, [sp, #4]
#if (USE_SD_TRANSCEIVER != 0U)
  uint32_t tickstart = HAL_GetTick();
#endif /* USE_SD_TRANSCEIVER  */

  /* CMD0: GO_IDLE_STATE */
  errorstate = SDMMC_CmdGoIdleState(hsd->Instance);
 8005112:	6800      	ldr	r0, [r0, #0]
 8005114:	f001 f8f8 	bl	8006308 <SDMMC_CmdGoIdleState>
  if (errorstate != HAL_SD_ERROR_NONE)
 8005118:	4605      	mov	r5, r0
 800511a:	b110      	cbz	r0, 8005122 <SD_PowerON+0x1a>
    }
#endif /* USE_SD_TRANSCEIVER  */
  }

  return HAL_SD_ERROR_NONE;
}
 800511c:	4628      	mov	r0, r5
 800511e:	b002      	add	sp, #8
 8005120:	bd70      	pop	{r4, r5, r6, pc}
  errorstate = SDMMC_CmdOperCond(hsd->Instance);
 8005122:	6820      	ldr	r0, [r4, #0]
 8005124:	f001 fc2c 	bl	8006980 <SDMMC_CmdOperCond>
  if (errorstate == SDMMC_ERROR_TIMEOUT) /* No response to CMD8 */
 8005128:	f1b0 4f00 	cmp.w	r0, #2147483648	; 0x80000000
 800512c:	d007      	beq.n	800513e <SD_PowerON+0x36>
    hsd->SdCard.CardVersion = CARD_V2_X;
 800512e:	2301      	movs	r3, #1
 8005130:	63e3      	str	r3, [r4, #60]	; 0x3c
  if (hsd->SdCard.CardVersion == CARD_V2_X)
 8005132:	6be3      	ldr	r3, [r4, #60]	; 0x3c
 8005134:	2b01      	cmp	r3, #1
 8005136:	d00b      	beq.n	8005150 <SD_PowerON+0x48>
    validvoltage = (((response >> 31U) == 1U) ? 1U : 0U);
 8005138:	462e      	mov	r6, r5
 800513a:	4628      	mov	r0, r5
 800513c:	e014      	b.n	8005168 <SD_PowerON+0x60>
    hsd->SdCard.CardVersion = CARD_V1_X;
 800513e:	2300      	movs	r3, #0
 8005140:	63e3      	str	r3, [r4, #60]	; 0x3c
    errorstate = SDMMC_CmdGoIdleState(hsd->Instance);
 8005142:	6820      	ldr	r0, [r4, #0]
 8005144:	f001 f8e0 	bl	8006308 <SDMMC_CmdGoIdleState>
    if (errorstate != HAL_SD_ERROR_NONE)
 8005148:	2800      	cmp	r0, #0
 800514a:	d0f2      	beq.n	8005132 <SD_PowerON+0x2a>
      return errorstate;
 800514c:	4605      	mov	r5, r0
 800514e:	e7e5      	b.n	800511c <SD_PowerON+0x14>
    errorstate = SDMMC_CmdAppCommand(hsd->Instance, 0);
 8005150:	2100      	movs	r1, #0
 8005152:	6820      	ldr	r0, [r4, #0]
 8005154:	f001 fa5f 	bl	8006616 <SDMMC_CmdAppCommand>
    if (errorstate != HAL_SD_ERROR_NONE)
 8005158:	2800      	cmp	r0, #0
 800515a:	d0ed      	beq.n	8005138 <SD_PowerON+0x30>
      return HAL_SD_ERROR_UNSUPPORTED_FEATURE;
 800515c:	f04f 5580 	mov.w	r5, #268435456	; 0x10000000
 8005160:	e7dc      	b.n	800511c <SD_PowerON+0x14>
    count++;
 8005162:	9b01      	ldr	r3, [sp, #4]
 8005164:	3301      	adds	r3, #1
 8005166:	9301      	str	r3, [sp, #4]
  while ((count < SDMMC_MAX_VOLT_TRIAL) && (validvoltage == 0U))
 8005168:	9a01      	ldr	r2, [sp, #4]
 800516a:	f64f 73fe 	movw	r3, #65534	; 0xfffe
 800516e:	429a      	cmp	r2, r3
 8005170:	d813      	bhi.n	800519a <SD_PowerON+0x92>
 8005172:	b996      	cbnz	r6, 800519a <SD_PowerON+0x92>
    errorstate = SDMMC_CmdAppCommand(hsd->Instance, 0);
 8005174:	2100      	movs	r1, #0
 8005176:	6820      	ldr	r0, [r4, #0]
 8005178:	f001 fa4d 	bl	8006616 <SDMMC_CmdAppCommand>
    if (errorstate != HAL_SD_ERROR_NONE)
 800517c:	b9d0      	cbnz	r0, 80051b4 <SD_PowerON+0xac>
    errorstate = SDMMC_CmdAppOperCommand(hsd->Instance, SDMMC_VOLTAGE_WINDOW_SD | SDMMC_HIGH_CAPACITY |
 800517e:	4912      	ldr	r1, [pc, #72]	; (80051c8 <SD_PowerON+0xc0>)
 8005180:	6820      	ldr	r0, [r4, #0]
 8005182:	f001 fb49 	bl	8006818 <SDMMC_CmdAppOperCommand>
    if (errorstate != HAL_SD_ERROR_NONE)
 8005186:	4606      	mov	r6, r0
 8005188:	b9b0      	cbnz	r0, 80051b8 <SD_PowerON+0xb0>
    response = SDMMC_GetResponse(hsd->Instance, SDMMC_RESP1);
 800518a:	2100      	movs	r1, #0
 800518c:	6820      	ldr	r0, [r4, #0]
 800518e:	f001 f8a6 	bl	80062de <SDMMC_GetResponse>
    validvoltage = (((response >> 31U) == 1U) ? 1U : 0U);
 8005192:	0fc3      	lsrs	r3, r0, #31
 8005194:	d0e5      	beq.n	8005162 <SD_PowerON+0x5a>
 8005196:	461e      	mov	r6, r3
 8005198:	e7e3      	b.n	8005162 <SD_PowerON+0x5a>
  if (count >= SDMMC_MAX_VOLT_TRIAL)
 800519a:	9a01      	ldr	r2, [sp, #4]
 800519c:	f64f 73fe 	movw	r3, #65534	; 0xfffe
 80051a0:	429a      	cmp	r2, r3
 80051a2:	d80c      	bhi.n	80051be <SD_PowerON+0xb6>
  hsd->SdCard.CardType = CARD_SDSC;
 80051a4:	2300      	movs	r3, #0
 80051a6:	63a3      	str	r3, [r4, #56]	; 0x38
  if ((response & SDMMC_HIGH_CAPACITY) == SDMMC_HIGH_CAPACITY)
 80051a8:	f010 4380 	ands.w	r3, r0, #1073741824	; 0x40000000
 80051ac:	d00a      	beq.n	80051c4 <SD_PowerON+0xbc>
    hsd->SdCard.CardType = CARD_SDHC_SDXC;
 80051ae:	2301      	movs	r3, #1
 80051b0:	63a3      	str	r3, [r4, #56]	; 0x38
 80051b2:	e7b3      	b.n	800511c <SD_PowerON+0x14>
      return errorstate;
 80051b4:	4605      	mov	r5, r0
 80051b6:	e7b1      	b.n	800511c <SD_PowerON+0x14>
      return HAL_SD_ERROR_UNSUPPORTED_FEATURE;
 80051b8:	f04f 5580 	mov.w	r5, #268435456	; 0x10000000
 80051bc:	e7ae      	b.n	800511c <SD_PowerON+0x14>
    return HAL_SD_ERROR_INVALID_VOLTRANGE;
 80051be:	f04f 7580 	mov.w	r5, #16777216	; 0x1000000
 80051c2:	e7ab      	b.n	800511c <SD_PowerON+0x14>
  return HAL_SD_ERROR_NONE;
 80051c4:	461d      	mov	r5, r3
 80051c6:	e7a9      	b.n	800511c <SD_PowerON+0x14>
 80051c8:	c1100000 	.word	0xc1100000

080051cc <SD_Read_IT>:
  * @param  hsd: pointer to a SD_HandleTypeDef structure that contains
  *              the configuration information.
  * @retval None
  */
static void SD_Read_IT(SD_HandleTypeDef *hsd)
{
 80051cc:	b570      	push	{r4, r5, r6, lr}
  uint32_t count;
  uint32_t data;
  uint8_t *tmp;

  tmp = hsd->pRxBuffPtr;
 80051ce:	6a44      	ldr	r4, [r0, #36]	; 0x24

  if (hsd->RxXferSize >= 32U)
 80051d0:	6a83      	ldr	r3, [r0, #40]	; 0x28
 80051d2:	2b1f      	cmp	r3, #31
 80051d4:	d815      	bhi.n	8005202 <SD_Read_IT+0x36>
    }

    hsd->pRxBuffPtr = tmp;
    hsd->RxXferSize -= 32U;
  }
}
 80051d6:	bd70      	pop	{r4, r5, r6, pc}
      data = SDMMC_ReadFIFO(hsd->Instance);
 80051d8:	6830      	ldr	r0, [r6, #0]
 80051da:	f001 f859 	bl	8006290 <SDMMC_ReadFIFO>
      *tmp = (uint8_t)(data & 0xFFU);
 80051de:	7020      	strb	r0, [r4, #0]
      *tmp = (uint8_t)((data >> 8U) & 0xFFU);
 80051e0:	f3c0 2307 	ubfx	r3, r0, #8, #8
 80051e4:	7063      	strb	r3, [r4, #1]
      *tmp = (uint8_t)((data >> 16U) & 0xFFU);
 80051e6:	f3c0 4307 	ubfx	r3, r0, #16, #8
 80051ea:	70a3      	strb	r3, [r4, #2]
      *tmp = (uint8_t)((data >> 24U) & 0xFFU);
 80051ec:	0e00      	lsrs	r0, r0, #24
 80051ee:	70e0      	strb	r0, [r4, #3]
      tmp++;
 80051f0:	3404      	adds	r4, #4
    for (count = 0U; count < 8U; count++)
 80051f2:	3501      	adds	r5, #1
 80051f4:	2d07      	cmp	r5, #7
 80051f6:	d9ef      	bls.n	80051d8 <SD_Read_IT+0xc>
    hsd->pRxBuffPtr = tmp;
 80051f8:	6274      	str	r4, [r6, #36]	; 0x24
    hsd->RxXferSize -= 32U;
 80051fa:	6ab3      	ldr	r3, [r6, #40]	; 0x28
 80051fc:	3b20      	subs	r3, #32
 80051fe:	62b3      	str	r3, [r6, #40]	; 0x28
}
 8005200:	e7e9      	b.n	80051d6 <SD_Read_IT+0xa>
 8005202:	4606      	mov	r6, r0
    for (count = 0U; count < 8U; count++)
 8005204:	2500      	movs	r5, #0
 8005206:	e7f5      	b.n	80051f4 <SD_Read_IT+0x28>

08005208 <SD_Write_IT>:
  * @param  hsd: pointer to a SD_HandleTypeDef structure that contains
  *              the configuration information.
  * @retval None
  */
static void SD_Write_IT(SD_HandleTypeDef *hsd)
{
 8005208:	b570      	push	{r4, r5, r6, lr}
 800520a:	b082      	sub	sp, #8
  uint32_t count;
  uint32_t data;
  const uint8_t *tmp;

  tmp = hsd->pTxBuffPtr;
 800520c:	69c4      	ldr	r4, [r0, #28]

  if (hsd->TxXferSize >= 32U)
 800520e:	6a03      	ldr	r3, [r0, #32]
 8005210:	2b1f      	cmp	r3, #31
 8005212:	d81c      	bhi.n	800524e <SD_Write_IT+0x46>
    }

    hsd->pTxBuffPtr = tmp;
    hsd->TxXferSize -= 32U;
  }
}
 8005214:	b002      	add	sp, #8
 8005216:	bd70      	pop	{r4, r5, r6, pc}
      data = (uint32_t)(*tmp);
 8005218:	7823      	ldrb	r3, [r4, #0]
 800521a:	9301      	str	r3, [sp, #4]
      data |= ((uint32_t)(*tmp) << 8U);
 800521c:	7862      	ldrb	r2, [r4, #1]
 800521e:	ea43 2302 	orr.w	r3, r3, r2, lsl #8
 8005222:	9301      	str	r3, [sp, #4]
      data |= ((uint32_t)(*tmp) << 16U);
 8005224:	78a2      	ldrb	r2, [r4, #2]
 8005226:	ea43 4302 	orr.w	r3, r3, r2, lsl #16
 800522a:	9301      	str	r3, [sp, #4]
      data |= ((uint32_t)(*tmp) << 24U);
 800522c:	78e2      	ldrb	r2, [r4, #3]
 800522e:	ea43 6302 	orr.w	r3, r3, r2, lsl #24
 8005232:	9301      	str	r3, [sp, #4]
      tmp++;
 8005234:	3404      	adds	r4, #4
      (void)SDMMC_WriteFIFO(hsd->Instance, &data);
 8005236:	a901      	add	r1, sp, #4
 8005238:	6830      	ldr	r0, [r6, #0]
 800523a:	f001 f82c 	bl	8006296 <SDMMC_WriteFIFO>
    for (count = 0U; count < 8U; count++)
 800523e:	3501      	adds	r5, #1
 8005240:	2d07      	cmp	r5, #7
 8005242:	d9e9      	bls.n	8005218 <SD_Write_IT+0x10>
    hsd->pTxBuffPtr = tmp;
 8005244:	61f4      	str	r4, [r6, #28]
    hsd->TxXferSize -= 32U;
 8005246:	6a33      	ldr	r3, [r6, #32]
 8005248:	3b20      	subs	r3, #32
 800524a:	6233      	str	r3, [r6, #32]
}
 800524c:	e7e2      	b.n	8005214 <SD_Write_IT+0xc>
 800524e:	4606      	mov	r6, r0
    for (count = 0U; count < 8U; count++)
 8005250:	2500      	movs	r5, #0
 8005252:	e7f5      	b.n	8005240 <SD_Write_IT+0x38>

08005254 <SD_SendSDStatus>:
{
 8005254:	b5f0      	push	{r4, r5, r6, r7, lr}
 8005256:	b087      	sub	sp, #28
 8005258:	4605      	mov	r5, r0
 800525a:	460e      	mov	r6, r1
  uint32_t tickstart = HAL_GetTick();
 800525c:	f7fc fa32 	bl	80016c4 <HAL_GetTick>
 8005260:	4607      	mov	r7, r0
  if ((SDMMC_GetResponse(hsd->Instance, SDMMC_RESP1) & SDMMC_CARD_LOCKED) == SDMMC_CARD_LOCKED)
 8005262:	2100      	movs	r1, #0
 8005264:	6828      	ldr	r0, [r5, #0]
 8005266:	f001 f83a 	bl	80062de <SDMMC_GetResponse>
 800526a:	f010 7f00 	tst.w	r0, #33554432	; 0x2000000
 800526e:	d164      	bne.n	800533a <SD_SendSDStatus+0xe6>
  errorstate = SDMMC_CmdBlockLength(hsd->Instance, 64U);
 8005270:	2140      	movs	r1, #64	; 0x40
 8005272:	6828      	ldr	r0, [r5, #0]
 8005274:	f001 f90c 	bl	8006490 <SDMMC_CmdBlockLength>
  if (errorstate != HAL_SD_ERROR_NONE)
 8005278:	4603      	mov	r3, r0
 800527a:	b110      	cbz	r0, 8005282 <SD_SendSDStatus+0x2e>
    hsd->ErrorCode |= HAL_SD_ERROR_NONE;
 800527c:	6b6a      	ldr	r2, [r5, #52]	; 0x34
 800527e:	636a      	str	r2, [r5, #52]	; 0x34
    return errorstate;
 8005280:	e05d      	b.n	800533e <SD_SendSDStatus+0xea>
  errorstate = SDMMC_CmdAppCommand(hsd->Instance, (uint32_t)(hsd->SdCard.RelCardAdd << 16U));
 8005282:	6c69      	ldr	r1, [r5, #68]	; 0x44
 8005284:	0409      	lsls	r1, r1, #16
 8005286:	6828      	ldr	r0, [r5, #0]
 8005288:	f001 f9c5 	bl	8006616 <SDMMC_CmdAppCommand>
  if (errorstate != HAL_SD_ERROR_NONE)
 800528c:	4603      	mov	r3, r0
 800528e:	b110      	cbz	r0, 8005296 <SD_SendSDStatus+0x42>
    hsd->ErrorCode |= HAL_SD_ERROR_NONE;
 8005290:	6b6a      	ldr	r2, [r5, #52]	; 0x34
 8005292:	636a      	str	r2, [r5, #52]	; 0x34
    return errorstate;
 8005294:	e053      	b.n	800533e <SD_SendSDStatus+0xea>
  config.DataTimeOut   = SDMMC_DATATIMEOUT;
 8005296:	f04f 33ff 	mov.w	r3, #4294967295	; 0xffffffff
 800529a:	9300      	str	r3, [sp, #0]
  config.DataLength    = 64U;
 800529c:	2340      	movs	r3, #64	; 0x40
 800529e:	9301      	str	r3, [sp, #4]
  config.DataBlockSize = SDMMC_DATABLOCK_SIZE_64B;
 80052a0:	2360      	movs	r3, #96	; 0x60
 80052a2:	9302      	str	r3, [sp, #8]
  config.TransferDir   = SDMMC_TRANSFER_DIR_TO_SDMMC;
 80052a4:	2302      	movs	r3, #2
 80052a6:	9303      	str	r3, [sp, #12]
  config.TransferMode  = SDMMC_TRANSFER_MODE_BLOCK;
 80052a8:	2300      	movs	r3, #0
 80052aa:	9304      	str	r3, [sp, #16]
  config.DPSM          = SDMMC_DPSM_ENABLE;
 80052ac:	2301      	movs	r3, #1
 80052ae:	9305      	str	r3, [sp, #20]
  (void)SDMMC_ConfigData(hsd->Instance, &config);
 80052b0:	4669      	mov	r1, sp
 80052b2:	6828      	ldr	r0, [r5, #0]
 80052b4:	f001 f816 	bl	80062e4 <SDMMC_ConfigData>
  errorstate = SDMMC_CmdStatusRegister(hsd->Instance);
 80052b8:	6828      	ldr	r0, [r5, #0]
 80052ba:	f001 fa10 	bl	80066de <SDMMC_CmdStatusRegister>
  if (errorstate != HAL_SD_ERROR_NONE)
 80052be:	4603      	mov	r3, r0
 80052c0:	b180      	cbz	r0, 80052e4 <SD_SendSDStatus+0x90>
    hsd->ErrorCode |= HAL_SD_ERROR_NONE;
 80052c2:	6b6a      	ldr	r2, [r5, #52]	; 0x34
 80052c4:	636a      	str	r2, [r5, #52]	; 0x34
    return errorstate;
 80052c6:	e03a      	b.n	800533e <SD_SendSDStatus+0xea>
        *pData = SDMMC_ReadFIFO(hsd->Instance);
 80052c8:	6828      	ldr	r0, [r5, #0]
 80052ca:	f000 ffe1 	bl	8006290 <SDMMC_ReadFIFO>
 80052ce:	f846 0b04 	str.w	r0, [r6], #4
      for (count = 0U; count < 8U; count++)
 80052d2:	3401      	adds	r4, #1
 80052d4:	2c07      	cmp	r4, #7
 80052d6:	d9f7      	bls.n	80052c8 <SD_SendSDStatus+0x74>
    if ((HAL_GetTick() - tickstart) >=  SDMMC_DATATIMEOUT)
 80052d8:	f7fc f9f4 	bl	80016c4 <HAL_GetTick>
 80052dc:	1bc0      	subs	r0, r0, r7
 80052de:	f1b0 3fff 	cmp.w	r0, #4294967295	; 0xffffffff
 80052e2:	d02f      	beq.n	8005344 <SD_SendSDStatus+0xf0>
  while (!__HAL_SD_GET_FLAG(hsd, SDMMC_FLAG_RXOVERR | SDMMC_FLAG_DCRCFAIL | SDMMC_FLAG_DTIMEOUT | SDMMC_FLAG_DATAEND))
 80052e4:	682b      	ldr	r3, [r5, #0]
 80052e6:	6b5c      	ldr	r4, [r3, #52]	; 0x34
 80052e8:	f414 7495 	ands.w	r4, r4, #298	; 0x12a
 80052ec:	d104      	bne.n	80052f8 <SD_SendSDStatus+0xa4>
    if (__HAL_SD_GET_FLAG(hsd, SDMMC_FLAG_RXFIFOHF))
 80052ee:	6b5b      	ldr	r3, [r3, #52]	; 0x34
 80052f0:	f413 4f00 	tst.w	r3, #32768	; 0x8000
 80052f4:	d0f0      	beq.n	80052d8 <SD_SendSDStatus+0x84>
 80052f6:	e7ed      	b.n	80052d4 <SD_SendSDStatus+0x80>
  if (__HAL_SD_GET_FLAG(hsd, SDMMC_FLAG_DTIMEOUT))
 80052f8:	6b5a      	ldr	r2, [r3, #52]	; 0x34
 80052fa:	f012 0f08 	tst.w	r2, #8
 80052fe:	d124      	bne.n	800534a <SD_SendSDStatus+0xf6>
  else if (__HAL_SD_GET_FLAG(hsd, SDMMC_FLAG_DCRCFAIL))
 8005300:	6b5a      	ldr	r2, [r3, #52]	; 0x34
 8005302:	f012 0f02 	tst.w	r2, #2
 8005306:	d122      	bne.n	800534e <SD_SendSDStatus+0xfa>
  else if (__HAL_SD_GET_FLAG(hsd, SDMMC_FLAG_RXOVERR))
 8005308:	6b5b      	ldr	r3, [r3, #52]	; 0x34
 800530a:	f013 0f20 	tst.w	r3, #32
 800530e:	d120      	bne.n	8005352 <SD_SendSDStatus+0xfe>
  while ((__HAL_SD_GET_FLAG(hsd, SDMMC_FLAG_DPSMACT)))
 8005310:	6828      	ldr	r0, [r5, #0]
 8005312:	6b43      	ldr	r3, [r0, #52]	; 0x34
 8005314:	f413 5380 	ands.w	r3, r3, #4096	; 0x1000
 8005318:	d00c      	beq.n	8005334 <SD_SendSDStatus+0xe0>
    *pData = SDMMC_ReadFIFO(hsd->Instance);
 800531a:	f000 ffb9 	bl	8006290 <SDMMC_ReadFIFO>
 800531e:	f846 0b04 	str.w	r0, [r6], #4
    if ((HAL_GetTick() - tickstart) >=  SDMMC_DATATIMEOUT)
 8005322:	f7fc f9cf 	bl	80016c4 <HAL_GetTick>
 8005326:	1bc0      	subs	r0, r0, r7
 8005328:	f1b0 3fff 	cmp.w	r0, #4294967295	; 0xffffffff
 800532c:	d1f0      	bne.n	8005310 <SD_SendSDStatus+0xbc>
      return HAL_SD_ERROR_TIMEOUT;
 800532e:	f04f 4300 	mov.w	r3, #2147483648	; 0x80000000
 8005332:	e004      	b.n	800533e <SD_SendSDStatus+0xea>
  __HAL_SD_CLEAR_FLAG(hsd, SDMMC_STATIC_DATA_FLAGS);
 8005334:	4a08      	ldr	r2, [pc, #32]	; (8005358 <SD_SendSDStatus+0x104>)
 8005336:	6382      	str	r2, [r0, #56]	; 0x38
  return HAL_SD_ERROR_NONE;
 8005338:	e001      	b.n	800533e <SD_SendSDStatus+0xea>
    return HAL_SD_ERROR_LOCK_UNLOCK_FAILED;
 800533a:	f44f 6300 	mov.w	r3, #2048	; 0x800
}
 800533e:	4618      	mov	r0, r3
 8005340:	b007      	add	sp, #28
 8005342:	bdf0      	pop	{r4, r5, r6, r7, pc}
      return HAL_SD_ERROR_TIMEOUT;
 8005344:	f04f 4300 	mov.w	r3, #2147483648	; 0x80000000
 8005348:	e7f9      	b.n	800533e <SD_SendSDStatus+0xea>
    return HAL_SD_ERROR_DATA_TIMEOUT;
 800534a:	2308      	movs	r3, #8
 800534c:	e7f7      	b.n	800533e <SD_SendSDStatus+0xea>
    return HAL_SD_ERROR_DATA_CRC_FAIL;
 800534e:	2302      	movs	r3, #2
 8005350:	e7f5      	b.n	800533e <SD_SendSDStatus+0xea>
    return HAL_SD_ERROR_RX_OVERRUN;
 8005352:	2320      	movs	r3, #32
 8005354:	e7f3      	b.n	800533e <SD_SendSDStatus+0xea>
 8005356:	bf00      	nop
 8005358:	18000f3a 	.word	0x18000f3a

0800535c <SD_FindSCR>:
{
 800535c:	b5f0      	push	{r4, r5, r6, r7, lr}
 800535e:	b089      	sub	sp, #36	; 0x24
 8005360:	4604      	mov	r4, r0
 8005362:	460f      	mov	r7, r1
  uint32_t tickstart = HAL_GetTick();
 8005364:	f7fc f9ae 	bl	80016c4 <HAL_GetTick>
 8005368:	4605      	mov	r5, r0
  uint32_t tempscr[2U] = {0UL, 0UL};
 800536a:	2300      	movs	r3, #0
 800536c:	9300      	str	r3, [sp, #0]
 800536e:	9301      	str	r3, [sp, #4]
  errorstate = SDMMC_CmdBlockLength(hsd->Instance, 8U);
 8005370:	2108      	movs	r1, #8
 8005372:	6820      	ldr	r0, [r4, #0]
 8005374:	f001 f88c 	bl	8006490 <SDMMC_CmdBlockLength>
  if (errorstate != HAL_SD_ERROR_NONE)
 8005378:	4606      	mov	r6, r0
 800537a:	b110      	cbz	r0, 8005382 <SD_FindSCR+0x26>
}
 800537c:	4630      	mov	r0, r6
 800537e:	b009      	add	sp, #36	; 0x24
 8005380:	bdf0      	pop	{r4, r5, r6, r7, pc}
  errorstate = SDMMC_CmdAppCommand(hsd->Instance, (uint32_t)((hsd->SdCard.RelCardAdd) << 16U));
 8005382:	6c61      	ldr	r1, [r4, #68]	; 0x44
 8005384:	0409      	lsls	r1, r1, #16
 8005386:	6820      	ldr	r0, [r4, #0]
 8005388:	f001 f945 	bl	8006616 <SDMMC_CmdAppCommand>
  if (errorstate != HAL_SD_ERROR_NONE)
 800538c:	4606      	mov	r6, r0
 800538e:	2800      	cmp	r0, #0
 8005390:	d1f4      	bne.n	800537c <SD_FindSCR+0x20>
  config.DataTimeOut   = SDMMC_DATATIMEOUT;
 8005392:	f04f 33ff 	mov.w	r3, #4294967295	; 0xffffffff
 8005396:	9302      	str	r3, [sp, #8]
  config.DataLength    = 8U;
 8005398:	2308      	movs	r3, #8
 800539a:	9303      	str	r3, [sp, #12]
  config.DataBlockSize = SDMMC_DATABLOCK_SIZE_8B;
 800539c:	2330      	movs	r3, #48	; 0x30
 800539e:	9304      	str	r3, [sp, #16]
  config.TransferDir   = SDMMC_TRANSFER_DIR_TO_SDMMC;
 80053a0:	2302      	movs	r3, #2
 80053a2:	9305      	str	r3, [sp, #20]
  config.TransferMode  = SDMMC_TRANSFER_MODE_BLOCK;
 80053a4:	2300      	movs	r3, #0
 80053a6:	9306      	str	r3, [sp, #24]
  config.DPSM          = SDMMC_DPSM_ENABLE;
 80053a8:	2301      	movs	r3, #1
 80053aa:	9307      	str	r3, [sp, #28]
  (void)SDMMC_ConfigData(hsd->Instance, &config);
 80053ac:	a902      	add	r1, sp, #8
 80053ae:	6820      	ldr	r0, [r4, #0]
 80053b0:	f000 ff98 	bl	80062e4 <SDMMC_ConfigData>
  errorstate = SDMMC_CmdSendSCR(hsd->Instance);
 80053b4:	6820      	ldr	r0, [r4, #0]
 80053b6:	f001 f960 	bl	800667a <SDMMC_CmdSendSCR>
  if (errorstate != HAL_SD_ERROR_NONE)
 80053ba:	4606      	mov	r6, r0
 80053bc:	b130      	cbz	r0, 80053cc <SD_FindSCR+0x70>
 80053be:	e7dd      	b.n	800537c <SD_FindSCR+0x20>
    if ((HAL_GetTick() - tickstart) >=  SDMMC_DATATIMEOUT)
 80053c0:	f7fc f980 	bl	80016c4 <HAL_GetTick>
 80053c4:	1b43      	subs	r3, r0, r5
 80053c6:	f1b3 3fff 	cmp.w	r3, #4294967295	; 0xffffffff
 80053ca:	d046      	beq.n	800545a <SD_FindSCR+0xfe>
  while (!__HAL_SD_GET_FLAG(hsd, SDMMC_FLAG_RXOVERR | SDMMC_FLAG_DCRCFAIL | SDMMC_FLAG_DTIMEOUT | SDMMC_FLAG_DBCKEND |
 80053cc:	6820      	ldr	r0, [r4, #0]
 80053ce:	6b42      	ldr	r2, [r0, #52]	; 0x34
 80053d0:	f240 532a 	movw	r3, #1322	; 0x52a
 80053d4:	421a      	tst	r2, r3
 80053d6:	d10e      	bne.n	80053f6 <SD_FindSCR+0x9a>
    if ((!__HAL_SD_GET_FLAG(hsd, SDMMC_FLAG_RXFIFOE)) && (index == 0U))
 80053d8:	6b43      	ldr	r3, [r0, #52]	; 0x34
 80053da:	f413 2f00 	tst.w	r3, #524288	; 0x80000
 80053de:	d1ef      	bne.n	80053c0 <SD_FindSCR+0x64>
 80053e0:	2e00      	cmp	r6, #0
 80053e2:	d1ed      	bne.n	80053c0 <SD_FindSCR+0x64>
      tempscr[0] = SDMMC_ReadFIFO(hsd->Instance);
 80053e4:	f000 ff54 	bl	8006290 <SDMMC_ReadFIFO>
 80053e8:	9000      	str	r0, [sp, #0]
      tempscr[1] = SDMMC_ReadFIFO(hsd->Instance);
 80053ea:	6820      	ldr	r0, [r4, #0]
 80053ec:	f000 ff50 	bl	8006290 <SDMMC_ReadFIFO>
 80053f0:	9001      	str	r0, [sp, #4]
      index++;
 80053f2:	3601      	adds	r6, #1
 80053f4:	e7e4      	b.n	80053c0 <SD_FindSCR+0x64>
  if (__HAL_SD_GET_FLAG(hsd, SDMMC_FLAG_DTIMEOUT))
 80053f6:	6b43      	ldr	r3, [r0, #52]	; 0x34
 80053f8:	f013 0f08 	tst.w	r3, #8
 80053fc:	d124      	bne.n	8005448 <SD_FindSCR+0xec>
  else if (__HAL_SD_GET_FLAG(hsd, SDMMC_FLAG_DCRCFAIL))
 80053fe:	6b43      	ldr	r3, [r0, #52]	; 0x34
 8005400:	f013 0f02 	tst.w	r3, #2
 8005404:	d123      	bne.n	800544e <SD_FindSCR+0xf2>
  else if (__HAL_SD_GET_FLAG(hsd, SDMMC_FLAG_RXOVERR))
 8005406:	6b46      	ldr	r6, [r0, #52]	; 0x34
 8005408:	f016 0620 	ands.w	r6, r6, #32
 800540c:	d122      	bne.n	8005454 <SD_FindSCR+0xf8>
    __HAL_SD_CLEAR_FLAG(hsd, SDMMC_STATIC_DATA_FLAGS);
 800540e:	4b14      	ldr	r3, [pc, #80]	; (8005460 <SD_FindSCR+0x104>)
 8005410:	6383      	str	r3, [r0, #56]	; 0x38
    *scr = (((tempscr[1] & SDMMC_0TO7BITS) << 24)  | ((tempscr[1] & SDMMC_8TO15BITS) << 8) | \
 8005412:	9a01      	ldr	r2, [sp, #4]
 8005414:	0213      	lsls	r3, r2, #8
 8005416:	f403 037f 	and.w	r3, r3, #16711680	; 0xff0000
 800541a:	ea43 6302 	orr.w	r3, r3, r2, lsl #24
            ((tempscr[1] & SDMMC_16TO23BITS) >> 8) | ((tempscr[1] & SDMMC_24TO31BITS) >> 24));
 800541e:	0a11      	lsrs	r1, r2, #8
 8005420:	f401 417f 	and.w	r1, r1, #65280	; 0xff00
    *scr = (((tempscr[1] & SDMMC_0TO7BITS) << 24)  | ((tempscr[1] & SDMMC_8TO15BITS) << 8) | \
 8005424:	430b      	orrs	r3, r1
            ((tempscr[1] & SDMMC_16TO23BITS) >> 8) | ((tempscr[1] & SDMMC_24TO31BITS) >> 24));
 8005426:	ea43 6312 	orr.w	r3, r3, r2, lsr #24
    *scr = (((tempscr[1] & SDMMC_0TO7BITS) << 24)  | ((tempscr[1] & SDMMC_8TO15BITS) << 8) | \
 800542a:	603b      	str	r3, [r7, #0]
    *scr = (((tempscr[0] & SDMMC_0TO7BITS) << 24)  | ((tempscr[0] & SDMMC_8TO15BITS) << 8) | \
 800542c:	9a00      	ldr	r2, [sp, #0]
 800542e:	0213      	lsls	r3, r2, #8
 8005430:	f403 037f 	and.w	r3, r3, #16711680	; 0xff0000
 8005434:	ea43 6302 	orr.w	r3, r3, r2, lsl #24
            ((tempscr[0] & SDMMC_16TO23BITS) >> 8) | ((tempscr[0] & SDMMC_24TO31BITS) >> 24));
 8005438:	0a11      	lsrs	r1, r2, #8
 800543a:	f401 417f 	and.w	r1, r1, #65280	; 0xff00
    *scr = (((tempscr[0] & SDMMC_0TO7BITS) << 24)  | ((tempscr[0] & SDMMC_8TO15BITS) << 8) | \
 800543e:	430b      	orrs	r3, r1
            ((tempscr[0] & SDMMC_16TO23BITS) >> 8) | ((tempscr[0] & SDMMC_24TO31BITS) >> 24));
 8005440:	ea43 6312 	orr.w	r3, r3, r2, lsr #24
    *scr = (((tempscr[0] & SDMMC_0TO7BITS) << 24)  | ((tempscr[0] & SDMMC_8TO15BITS) << 8) | \
 8005444:	607b      	str	r3, [r7, #4]
  return HAL_SD_ERROR_NONE;
 8005446:	e799      	b.n	800537c <SD_FindSCR+0x20>
    __HAL_SD_CLEAR_FLAG(hsd, SDMMC_FLAG_DTIMEOUT);
 8005448:	2608      	movs	r6, #8
 800544a:	6386      	str	r6, [r0, #56]	; 0x38
    return HAL_SD_ERROR_DATA_TIMEOUT;
 800544c:	e796      	b.n	800537c <SD_FindSCR+0x20>
    __HAL_SD_CLEAR_FLAG(hsd, SDMMC_FLAG_DCRCFAIL);
 800544e:	2602      	movs	r6, #2
 8005450:	6386      	str	r6, [r0, #56]	; 0x38
    return HAL_SD_ERROR_DATA_CRC_FAIL;
 8005452:	e793      	b.n	800537c <SD_FindSCR+0x20>
    __HAL_SD_CLEAR_FLAG(hsd, SDMMC_FLAG_RXOVERR);
 8005454:	2620      	movs	r6, #32
 8005456:	6386      	str	r6, [r0, #56]	; 0x38
    return HAL_SD_ERROR_RX_OVERRUN;
 8005458:	e790      	b.n	800537c <SD_FindSCR+0x20>
      return HAL_SD_ERROR_TIMEOUT;
 800545a:	f04f 4600 	mov.w	r6, #2147483648	; 0x80000000
 800545e:	e78d      	b.n	800537c <SD_FindSCR+0x20>
 8005460:	18000f3a 	.word	0x18000f3a

08005464 <SD_WideBus_Enable>:
{
 8005464:	b510      	push	{r4, lr}
 8005466:	b082      	sub	sp, #8
 8005468:	4604      	mov	r4, r0
  uint32_t scr[2U] = {0UL, 0UL};
 800546a:	2100      	movs	r1, #0
 800546c:	9100      	str	r1, [sp, #0]
 800546e:	9101      	str	r1, [sp, #4]
  if ((SDMMC_GetResponse(hsd->Instance, SDMMC_RESP1) & SDMMC_CARD_LOCKED) == SDMMC_CARD_LOCKED)
 8005470:	6800      	ldr	r0, [r0, #0]
 8005472:	f000 ff34 	bl	80062de <SDMMC_GetResponse>
 8005476:	f010 7f00 	tst.w	r0, #33554432	; 0x2000000
 800547a:	d113      	bne.n	80054a4 <SD_WideBus_Enable+0x40>
  errorstate = SD_FindSCR(hsd, scr);
 800547c:	4669      	mov	r1, sp
 800547e:	4620      	mov	r0, r4
 8005480:	f7ff ff6c 	bl	800535c <SD_FindSCR>
  if (errorstate != HAL_SD_ERROR_NONE)
 8005484:	b980      	cbnz	r0, 80054a8 <SD_WideBus_Enable+0x44>
  if ((scr[1U] & SDMMC_WIDE_BUS_SUPPORT) != SDMMC_ALLZERO)
 8005486:	9b01      	ldr	r3, [sp, #4]
 8005488:	f413 2f80 	tst.w	r3, #262144	; 0x40000
 800548c:	d00e      	beq.n	80054ac <SD_WideBus_Enable+0x48>
    errorstate = SDMMC_CmdAppCommand(hsd->Instance, (uint32_t)(hsd->SdCard.RelCardAdd << 16U));
 800548e:	6c61      	ldr	r1, [r4, #68]	; 0x44
 8005490:	0409      	lsls	r1, r1, #16
 8005492:	6820      	ldr	r0, [r4, #0]
 8005494:	f001 f8bf 	bl	8006616 <SDMMC_CmdAppCommand>
    if (errorstate != HAL_SD_ERROR_NONE)
 8005498:	b930      	cbnz	r0, 80054a8 <SD_WideBus_Enable+0x44>
    errorstate = SDMMC_CmdBusWidth(hsd->Instance, 2U);
 800549a:	2102      	movs	r1, #2
 800549c:	6820      	ldr	r0, [r4, #0]
 800549e:	f001 f8d3 	bl	8006648 <SDMMC_CmdBusWidth>
    if (errorstate != HAL_SD_ERROR_NONE)
 80054a2:	e001      	b.n	80054a8 <SD_WideBus_Enable+0x44>
    return HAL_SD_ERROR_LOCK_UNLOCK_FAILED;
 80054a4:	f44f 6000 	mov.w	r0, #2048	; 0x800
}
 80054a8:	b002      	add	sp, #8
 80054aa:	bd10      	pop	{r4, pc}
    return HAL_SD_ERROR_REQUEST_NOT_APPLICABLE;
 80054ac:	f04f 6080 	mov.w	r0, #67108864	; 0x4000000
 80054b0:	e7fa      	b.n	80054a8 <SD_WideBus_Enable+0x44>

080054b2 <SD_WideBus_Disable>:
{
 80054b2:	b510      	push	{r4, lr}
 80054b4:	b082      	sub	sp, #8
 80054b6:	4604      	mov	r4, r0
  uint32_t scr[2U] = {0UL, 0UL};
 80054b8:	2100      	movs	r1, #0
 80054ba:	9100      	str	r1, [sp, #0]
 80054bc:	9101      	str	r1, [sp, #4]
  if ((SDMMC_GetResponse(hsd->Instance, SDMMC_RESP1) & SDMMC_CARD_LOCKED) == SDMMC_CARD_LOCKED)
 80054be:	6800      	ldr	r0, [r0, #0]
 80054c0:	f000 ff0d 	bl	80062de <SDMMC_GetResponse>
 80054c4:	f010 7f00 	tst.w	r0, #33554432	; 0x2000000
 80054c8:	d113      	bne.n	80054f2 <SD_WideBus_Disable+0x40>
  errorstate = SD_FindSCR(hsd, scr);
 80054ca:	4669      	mov	r1, sp
 80054cc:	4620      	mov	r0, r4
 80054ce:	f7ff ff45 	bl	800535c <SD_FindSCR>
  if (errorstate != HAL_SD_ERROR_NONE)
 80054d2:	b980      	cbnz	r0, 80054f6 <SD_WideBus_Disable+0x44>
  if ((scr[1U] & SDMMC_SINGLE_BUS_SUPPORT) != SDMMC_ALLZERO)
 80054d4:	9b01      	ldr	r3, [sp, #4]
 80054d6:	f413 3f80 	tst.w	r3, #65536	; 0x10000
 80054da:	d00e      	beq.n	80054fa <SD_WideBus_Disable+0x48>
    errorstate = SDMMC_CmdAppCommand(hsd->Instance, (uint32_t)(hsd->SdCard.RelCardAdd << 16U));
 80054dc:	6c61      	ldr	r1, [r4, #68]	; 0x44
 80054de:	0409      	lsls	r1, r1, #16
 80054e0:	6820      	ldr	r0, [r4, #0]
 80054e2:	f001 f898 	bl	8006616 <SDMMC_CmdAppCommand>
    if (errorstate != HAL_SD_ERROR_NONE)
 80054e6:	b930      	cbnz	r0, 80054f6 <SD_WideBus_Disable+0x44>
    errorstate = SDMMC_CmdBusWidth(hsd->Instance, 0U);
 80054e8:	2100      	movs	r1, #0
 80054ea:	6820      	ldr	r0, [r4, #0]
 80054ec:	f001 f8ac 	bl	8006648 <SDMMC_CmdBusWidth>
    if (errorstate != HAL_SD_ERROR_NONE)
 80054f0:	e001      	b.n	80054f6 <SD_WideBus_Disable+0x44>
    return HAL_SD_ERROR_LOCK_UNLOCK_FAILED;
 80054f2:	f44f 6000 	mov.w	r0, #2048	; 0x800
}
 80054f6:	b002      	add	sp, #8
 80054f8:	bd10      	pop	{r4, pc}
    return HAL_SD_ERROR_REQUEST_NOT_APPLICABLE;
 80054fa:	f04f 6080 	mov.w	r0, #67108864	; 0x4000000
 80054fe:	e7fa      	b.n	80054f6 <SD_WideBus_Disable+0x44>

08005500 <SD_SendStatus>:
{
 8005500:	b570      	push	{r4, r5, r6, lr}
  if (pCardStatus == NULL)
 8005502:	b181      	cbz	r1, 8005526 <SD_SendStatus+0x26>
 8005504:	4604      	mov	r4, r0
 8005506:	460e      	mov	r6, r1
  errorstate = SDMMC_CmdSendStatus(hsd->Instance, (uint32_t)(hsd->SdCard.RelCardAdd << 16U));
 8005508:	6c41      	ldr	r1, [r0, #68]	; 0x44
 800550a:	0409      	lsls	r1, r1, #16
 800550c:	6800      	ldr	r0, [r0, #0]
 800550e:	f001 f8cd 	bl	80066ac <SDMMC_CmdSendStatus>
  if (errorstate != HAL_SD_ERROR_NONE)
 8005512:	4605      	mov	r5, r0
 8005514:	b108      	cbz	r0, 800551a <SD_SendStatus+0x1a>
}
 8005516:	4628      	mov	r0, r5
 8005518:	bd70      	pop	{r4, r5, r6, pc}
  *pCardStatus = SDMMC_GetResponse(hsd->Instance, SDMMC_RESP1);
 800551a:	2100      	movs	r1, #0
 800551c:	6820      	ldr	r0, [r4, #0]
 800551e:	f000 fede 	bl	80062de <SDMMC_GetResponse>
 8005522:	6030      	str	r0, [r6, #0]
  return HAL_SD_ERROR_NONE;
 8005524:	e7f7      	b.n	8005516 <SD_SendStatus+0x16>
    return HAL_SD_ERROR_PARAM;
 8005526:	f04f 6500 	mov.w	r5, #134217728	; 0x8000000
 800552a:	e7f4      	b.n	8005516 <SD_SendStatus+0x16>

0800552c <HAL_SD_ReadBlocks>:
{
 800552c:	e92d 4ff0 	stmdb	sp!, {r4, r5, r6, r7, r8, r9, sl, fp, lr}
 8005530:	b087      	sub	sp, #28
 8005532:	4605      	mov	r5, r0
 8005534:	460c      	mov	r4, r1
 8005536:	4616      	mov	r6, r2
 8005538:	469a      	mov	sl, r3
 800553a:	f8dd 9040 	ldr.w	r9, [sp, #64]	; 0x40
  uint32_t tickstart = HAL_GetTick();
 800553e:	f7fc f8c1 	bl	80016c4 <HAL_GetTick>
  if (NULL == pData)
 8005542:	2c00      	cmp	r4, #0
 8005544:	d03a      	beq.n	80055bc <HAL_SD_ReadBlocks+0x90>
 8005546:	4680      	mov	r8, r0
  if (hsd->State == HAL_SD_STATE_READY)
 8005548:	f895 7030 	ldrb.w	r7, [r5, #48]	; 0x30
 800554c:	b2ff      	uxtb	r7, r7
 800554e:	2f01      	cmp	r7, #1
 8005550:	f040 80e0 	bne.w	8005714 <HAL_SD_ReadBlocks+0x1e8>
    hsd->ErrorCode = HAL_SD_ERROR_NONE;
 8005554:	2300      	movs	r3, #0
 8005556:	636b      	str	r3, [r5, #52]	; 0x34
    if ((add + NumberOfBlocks) > (hsd->SdCard.LogBlockNbr))
 8005558:	eb06 030a 	add.w	r3, r6, sl
 800555c:	6d2a      	ldr	r2, [r5, #80]	; 0x50
 800555e:	4293      	cmp	r3, r2
 8005560:	d832      	bhi.n	80055c8 <HAL_SD_ReadBlocks+0x9c>
    hsd->State = HAL_SD_STATE_BUSY;
 8005562:	2303      	movs	r3, #3
 8005564:	f885 3030 	strb.w	r3, [r5, #48]	; 0x30
    hsd->Instance->DCTRL = 0U;
 8005568:	682b      	ldr	r3, [r5, #0]
 800556a:	2200      	movs	r2, #0
 800556c:	62da      	str	r2, [r3, #44]	; 0x2c
    if (hsd->SdCard.CardType != CARD_SDHC_SDXC)
 800556e:	6bab      	ldr	r3, [r5, #56]	; 0x38
 8005570:	2b01      	cmp	r3, #1
 8005572:	d000      	beq.n	8005576 <HAL_SD_ReadBlocks+0x4a>
      add *= 512U;
 8005574:	0276      	lsls	r6, r6, #9
    config.DataTimeOut   = SDMMC_DATATIMEOUT;
 8005576:	f04f 33ff 	mov.w	r3, #4294967295	; 0xffffffff
 800557a:	9300      	str	r3, [sp, #0]
    config.DataLength    = NumberOfBlocks * BLOCKSIZE;
 800557c:	ea4f 234a 	mov.w	r3, sl, lsl #9
 8005580:	9301      	str	r3, [sp, #4]
    config.DataBlockSize = SDMMC_DATABLOCK_SIZE_512B;
 8005582:	2390      	movs	r3, #144	; 0x90
 8005584:	9302      	str	r3, [sp, #8]
    config.TransferDir   = SDMMC_TRANSFER_DIR_TO_SDMMC;
 8005586:	2302      	movs	r3, #2
 8005588:	9303      	str	r3, [sp, #12]
    config.TransferMode  = SDMMC_TRANSFER_MODE_BLOCK;
 800558a:	2300      	movs	r3, #0
 800558c:	9304      	str	r3, [sp, #16]
    config.DPSM          = SDMMC_DPSM_DISABLE;
 800558e:	9305      	str	r3, [sp, #20]
    (void)SDMMC_ConfigData(hsd->Instance, &config);
 8005590:	4669      	mov	r1, sp
 8005592:	6828      	ldr	r0, [r5, #0]
 8005594:	f000 fea6 	bl	80062e4 <SDMMC_ConfigData>
    __SDMMC_CMDTRANS_ENABLE(hsd->Instance);
 8005598:	682a      	ldr	r2, [r5, #0]
 800559a:	68d3      	ldr	r3, [r2, #12]
 800559c:	f043 0340 	orr.w	r3, r3, #64	; 0x40
 80055a0:	60d3      	str	r3, [r2, #12]
    if (NumberOfBlocks > 1U)
 80055a2:	f1ba 0f01 	cmp.w	sl, #1
 80055a6:	d914      	bls.n	80055d2 <HAL_SD_ReadBlocks+0xa6>
      hsd->Context = SD_CONTEXT_READ_MULTIPLE_BLOCK;
 80055a8:	2302      	movs	r3, #2
 80055aa:	62eb      	str	r3, [r5, #44]	; 0x2c
      errorstate = SDMMC_CmdReadMultiBlock(hsd->Instance, add);
 80055ac:	4631      	mov	r1, r6
 80055ae:	6828      	ldr	r0, [r5, #0]
 80055b0:	f000 ffa0 	bl	80064f4 <SDMMC_CmdReadMultiBlock>
    if (errorstate != HAL_SD_ERROR_NONE)
 80055b4:	b9a0      	cbnz	r0, 80055e0 <HAL_SD_ReadBlocks+0xb4>
    dataremaining = config.DataLength;
 80055b6:	f8dd b004 	ldr.w	fp, [sp, #4]
    while (!__HAL_SD_GET_FLAG(hsd, SDMMC_FLAG_RXOVERR | SDMMC_FLAG_DCRCFAIL | SDMMC_FLAG_DTIMEOUT | SDMMC_FLAG_DATAEND))
 80055ba:	e038      	b.n	800562e <HAL_SD_ReadBlocks+0x102>
    hsd->ErrorCode |= HAL_SD_ERROR_PARAM;
 80055bc:	6b6b      	ldr	r3, [r5, #52]	; 0x34
 80055be:	f043 6300 	orr.w	r3, r3, #134217728	; 0x8000000
 80055c2:	636b      	str	r3, [r5, #52]	; 0x34
    return HAL_ERROR;
 80055c4:	2701      	movs	r7, #1
 80055c6:	e0aa      	b.n	800571e <HAL_SD_ReadBlocks+0x1f2>
      hsd->ErrorCode |= HAL_SD_ERROR_ADDR_OUT_OF_RANGE;
 80055c8:	6b6b      	ldr	r3, [r5, #52]	; 0x34
 80055ca:	f043 7300 	orr.w	r3, r3, #33554432	; 0x2000000
 80055ce:	636b      	str	r3, [r5, #52]	; 0x34
      return HAL_ERROR;
 80055d0:	e0a5      	b.n	800571e <HAL_SD_ReadBlocks+0x1f2>
      hsd->Context = SD_CONTEXT_READ_SINGLE_BLOCK;
 80055d2:	2301      	movs	r3, #1
 80055d4:	62eb      	str	r3, [r5, #44]	; 0x2c
      errorstate = SDMMC_CmdReadSingleBlock(hsd->Instance, add);
 80055d6:	4631      	mov	r1, r6
 80055d8:	6828      	ldr	r0, [r5, #0]
 80055da:	f000 ff72 	bl	80064c2 <SDMMC_CmdReadSingleBlock>
 80055de:	e7e9      	b.n	80055b4 <HAL_SD_ReadBlocks+0x88>
      __HAL_SD_CLEAR_FLAG(hsd, SDMMC_STATIC_FLAGS);
 80055e0:	682b      	ldr	r3, [r5, #0]
 80055e2:	4a51      	ldr	r2, [pc, #324]	; (8005728 <HAL_SD_ReadBlocks+0x1fc>)
 80055e4:	639a      	str	r2, [r3, #56]	; 0x38
      hsd->ErrorCode |= errorstate;
 80055e6:	6b6b      	ldr	r3, [r5, #52]	; 0x34
 80055e8:	4318      	orrs	r0, r3
 80055ea:	6368      	str	r0, [r5, #52]	; 0x34
      hsd->State = HAL_SD_STATE_READY;
 80055ec:	2301      	movs	r3, #1
 80055ee:	f885 3030 	strb.w	r3, [r5, #48]	; 0x30
      hsd->Context = SD_CONTEXT_NONE;
 80055f2:	2300      	movs	r3, #0
 80055f4:	62eb      	str	r3, [r5, #44]	; 0x2c
      return HAL_ERROR;
 80055f6:	e092      	b.n	800571e <HAL_SD_ReadBlocks+0x1f2>
          data = SDMMC_ReadFIFO(hsd->Instance);
 80055f8:	6828      	ldr	r0, [r5, #0]
 80055fa:	f000 fe49 	bl	8006290 <SDMMC_ReadFIFO>
          *tempbuff = (uint8_t)(data & 0xFFU);
 80055fe:	7020      	strb	r0, [r4, #0]
          *tempbuff = (uint8_t)((data >> 8U) & 0xFFU);
 8005600:	f3c0 2307 	ubfx	r3, r0, #8, #8
 8005604:	7063      	strb	r3, [r4, #1]
          *tempbuff = (uint8_t)((data >> 16U) & 0xFFU);
 8005606:	f3c0 4307 	ubfx	r3, r0, #16, #8
 800560a:	70a3      	strb	r3, [r4, #2]
          *tempbuff = (uint8_t)((data >> 24U) & 0xFFU);
 800560c:	0e00      	lsrs	r0, r0, #24
 800560e:	70e0      	strb	r0, [r4, #3]
          tempbuff++;
 8005610:	3404      	adds	r4, #4
        for (count = 0U; count < 8U; count++)
 8005612:	3601      	adds	r6, #1
 8005614:	2e07      	cmp	r6, #7
 8005616:	d9ef      	bls.n	80055f8 <HAL_SD_ReadBlocks+0xcc>
        dataremaining -= 32U;
 8005618:	f1ab 0b20 	sub.w	fp, fp, #32
      if (((HAL_GetTick() - tickstart) >=  Timeout) || (Timeout == 0U))
 800561c:	f7fc f852 	bl	80016c4 <HAL_GetTick>
 8005620:	eba0 0008 	sub.w	r0, r0, r8
 8005624:	4548      	cmp	r0, r9
 8005626:	d20f      	bcs.n	8005648 <HAL_SD_ReadBlocks+0x11c>
 8005628:	f1b9 0f00 	cmp.w	r9, #0
 800562c:	d00c      	beq.n	8005648 <HAL_SD_ReadBlocks+0x11c>
    while (!__HAL_SD_GET_FLAG(hsd, SDMMC_FLAG_RXOVERR | SDMMC_FLAG_DCRCFAIL | SDMMC_FLAG_DTIMEOUT | SDMMC_FLAG_DATAEND))
 800562e:	682b      	ldr	r3, [r5, #0]
 8005630:	6b5e      	ldr	r6, [r3, #52]	; 0x34
 8005632:	f416 7695 	ands.w	r6, r6, #298	; 0x12a
 8005636:	d115      	bne.n	8005664 <HAL_SD_ReadBlocks+0x138>
      if (__HAL_SD_GET_FLAG(hsd, SDMMC_FLAG_RXFIFOHF) && (dataremaining >= 32U))
 8005638:	6b5b      	ldr	r3, [r3, #52]	; 0x34
 800563a:	f413 4f00 	tst.w	r3, #32768	; 0x8000
 800563e:	d0ed      	beq.n	800561c <HAL_SD_ReadBlocks+0xf0>
 8005640:	f1bb 0f1f 	cmp.w	fp, #31
 8005644:	d9ea      	bls.n	800561c <HAL_SD_ReadBlocks+0xf0>
 8005646:	e7e5      	b.n	8005614 <HAL_SD_ReadBlocks+0xe8>
        __HAL_SD_CLEAR_FLAG(hsd, SDMMC_STATIC_FLAGS);
 8005648:	682b      	ldr	r3, [r5, #0]
 800564a:	4a37      	ldr	r2, [pc, #220]	; (8005728 <HAL_SD_ReadBlocks+0x1fc>)
 800564c:	639a      	str	r2, [r3, #56]	; 0x38
        hsd->ErrorCode |= HAL_SD_ERROR_TIMEOUT;
 800564e:	6b6b      	ldr	r3, [r5, #52]	; 0x34
 8005650:	f043 4300 	orr.w	r3, r3, #2147483648	; 0x80000000
 8005654:	636b      	str	r3, [r5, #52]	; 0x34
        hsd->State = HAL_SD_STATE_READY;
 8005656:	2301      	movs	r3, #1
 8005658:	f885 3030 	strb.w	r3, [r5, #48]	; 0x30
        hsd->Context = SD_CONTEXT_NONE;
 800565c:	2300      	movs	r3, #0
 800565e:	62eb      	str	r3, [r5, #44]	; 0x2c
        return HAL_TIMEOUT;
 8005660:	2703      	movs	r7, #3
 8005662:	e05c      	b.n	800571e <HAL_SD_ReadBlocks+0x1f2>
    __SDMMC_CMDTRANS_DISABLE(hsd->Instance);
 8005664:	68da      	ldr	r2, [r3, #12]
 8005666:	f022 0240 	bic.w	r2, r2, #64	; 0x40
 800566a:	60da      	str	r2, [r3, #12]
    if (__HAL_SD_GET_FLAG(hsd, SDMMC_FLAG_DATAEND) && (NumberOfBlocks > 1U))
 800566c:	6828      	ldr	r0, [r5, #0]
 800566e:	6b43      	ldr	r3, [r0, #52]	; 0x34
 8005670:	f413 7f80 	tst.w	r3, #256	; 0x100
 8005674:	d005      	beq.n	8005682 <HAL_SD_ReadBlocks+0x156>
 8005676:	f1ba 0f01 	cmp.w	sl, #1
 800567a:	d902      	bls.n	8005682 <HAL_SD_ReadBlocks+0x156>
      if (hsd->SdCard.CardType != CARD_SECURED)
 800567c:	6bab      	ldr	r3, [r5, #56]	; 0x38
 800567e:	2b03      	cmp	r3, #3
 8005680:	d118      	bne.n	80056b4 <HAL_SD_ReadBlocks+0x188>
    if (__HAL_SD_GET_FLAG(hsd, SDMMC_FLAG_DTIMEOUT))
 8005682:	682b      	ldr	r3, [r5, #0]
 8005684:	6b5a      	ldr	r2, [r3, #52]	; 0x34
 8005686:	f012 0f08 	tst.w	r2, #8
 800568a:	d124      	bne.n	80056d6 <HAL_SD_ReadBlocks+0x1aa>
    else if (__HAL_SD_GET_FLAG(hsd, SDMMC_FLAG_DCRCFAIL))
 800568c:	6b5a      	ldr	r2, [r3, #52]	; 0x34
 800568e:	f012 0f02 	tst.w	r2, #2
 8005692:	d12c      	bne.n	80056ee <HAL_SD_ReadBlocks+0x1c2>
    else if (__HAL_SD_GET_FLAG(hsd, SDMMC_FLAG_RXOVERR))
 8005694:	6b5a      	ldr	r2, [r3, #52]	; 0x34
 8005696:	f012 0f20 	tst.w	r2, #32
 800569a:	d034      	beq.n	8005706 <HAL_SD_ReadBlocks+0x1da>
      __HAL_SD_CLEAR_FLAG(hsd, SDMMC_STATIC_FLAGS);
 800569c:	4a22      	ldr	r2, [pc, #136]	; (8005728 <HAL_SD_ReadBlocks+0x1fc>)
 800569e:	639a      	str	r2, [r3, #56]	; 0x38
      hsd->ErrorCode |= HAL_SD_ERROR_RX_OVERRUN;
 80056a0:	6b6b      	ldr	r3, [r5, #52]	; 0x34
 80056a2:	f043 0320 	orr.w	r3, r3, #32
 80056a6:	636b      	str	r3, [r5, #52]	; 0x34
      hsd->State = HAL_SD_STATE_READY;
 80056a8:	2301      	movs	r3, #1
 80056aa:	f885 3030 	strb.w	r3, [r5, #48]	; 0x30
      hsd->Context = SD_CONTEXT_NONE;
 80056ae:	2300      	movs	r3, #0
 80056b0:	62eb      	str	r3, [r5, #44]	; 0x2c
      return HAL_ERROR;
 80056b2:	e034      	b.n	800571e <HAL_SD_ReadBlocks+0x1f2>
        errorstate = SDMMC_CmdStopTransfer(hsd->Instance);
 80056b4:	f000 ff6a 	bl	800658c <SDMMC_CmdStopTransfer>
        if (errorstate != HAL_SD_ERROR_NONE)
 80056b8:	4603      	mov	r3, r0
 80056ba:	2800      	cmp	r0, #0
 80056bc:	d0e1      	beq.n	8005682 <HAL_SD_ReadBlocks+0x156>
          __HAL_SD_CLEAR_FLAG(hsd, SDMMC_STATIC_FLAGS);
 80056be:	682a      	ldr	r2, [r5, #0]
 80056c0:	4919      	ldr	r1, [pc, #100]	; (8005728 <HAL_SD_ReadBlocks+0x1fc>)
 80056c2:	6391      	str	r1, [r2, #56]	; 0x38
          hsd->ErrorCode |= errorstate;
 80056c4:	6b6a      	ldr	r2, [r5, #52]	; 0x34
 80056c6:	4313      	orrs	r3, r2
 80056c8:	636b      	str	r3, [r5, #52]	; 0x34
          hsd->State = HAL_SD_STATE_READY;
 80056ca:	2301      	movs	r3, #1
 80056cc:	f885 3030 	strb.w	r3, [r5, #48]	; 0x30
          hsd->Context = SD_CONTEXT_NONE;
 80056d0:	2300      	movs	r3, #0
 80056d2:	62eb      	str	r3, [r5, #44]	; 0x2c
          return HAL_ERROR;
 80056d4:	e023      	b.n	800571e <HAL_SD_ReadBlocks+0x1f2>
      __HAL_SD_CLEAR_FLAG(hsd, SDMMC_STATIC_FLAGS);
 80056d6:	4a14      	ldr	r2, [pc, #80]	; (8005728 <HAL_SD_ReadBlocks+0x1fc>)
 80056d8:	639a      	str	r2, [r3, #56]	; 0x38
      hsd->ErrorCode |= HAL_SD_ERROR_DATA_TIMEOUT;
 80056da:	6b6b      	ldr	r3, [r5, #52]	; 0x34
 80056dc:	f043 0308 	orr.w	r3, r3, #8
 80056e0:	636b      	str	r3, [r5, #52]	; 0x34
      hsd->State = HAL_SD_STATE_READY;
 80056e2:	2301      	movs	r3, #1
 80056e4:	f885 3030 	strb.w	r3, [r5, #48]	; 0x30
      hsd->Context = SD_CONTEXT_NONE;
 80056e8:	2300      	movs	r3, #0
 80056ea:	62eb      	str	r3, [r5, #44]	; 0x2c
      return HAL_ERROR;
 80056ec:	e017      	b.n	800571e <HAL_SD_ReadBlocks+0x1f2>
      __HAL_SD_CLEAR_FLAG(hsd, SDMMC_STATIC_FLAGS);
 80056ee:	4a0e      	ldr	r2, [pc, #56]	; (8005728 <HAL_SD_ReadBlocks+0x1fc>)
 80056f0:	639a      	str	r2, [r3, #56]	; 0x38
      hsd->ErrorCode |= HAL_SD_ERROR_DATA_CRC_FAIL;
 80056f2:	6b6b      	ldr	r3, [r5, #52]	; 0x34
 80056f4:	f043 0302 	orr.w	r3, r3, #2
 80056f8:	636b      	str	r3, [r5, #52]	; 0x34
      hsd->State = HAL_SD_STATE_READY;
 80056fa:	2301      	movs	r3, #1
 80056fc:	f885 3030 	strb.w	r3, [r5, #48]	; 0x30
      hsd->Context = SD_CONTEXT_NONE;
 8005700:	2300      	movs	r3, #0
 8005702:	62eb      	str	r3, [r5, #44]	; 0x2c
      return HAL_ERROR;
 8005704:	e00b      	b.n	800571e <HAL_SD_ReadBlocks+0x1f2>
    __HAL_SD_CLEAR_FLAG(hsd, SDMMC_STATIC_DATA_FLAGS);
 8005706:	4a09      	ldr	r2, [pc, #36]	; (800572c <HAL_SD_ReadBlocks+0x200>)
 8005708:	639a      	str	r2, [r3, #56]	; 0x38
    hsd->State = HAL_SD_STATE_READY;
 800570a:	2301      	movs	r3, #1
 800570c:	f885 3030 	strb.w	r3, [r5, #48]	; 0x30
    return HAL_OK;
 8005710:	2700      	movs	r7, #0
 8005712:	e004      	b.n	800571e <HAL_SD_ReadBlocks+0x1f2>
    hsd->ErrorCode |= HAL_SD_ERROR_BUSY;
 8005714:	6b6b      	ldr	r3, [r5, #52]	; 0x34
 8005716:	f043 5300 	orr.w	r3, r3, #536870912	; 0x20000000
 800571a:	636b      	str	r3, [r5, #52]	; 0x34
    return HAL_ERROR;
 800571c:	2701      	movs	r7, #1
}
 800571e:	4638      	mov	r0, r7
 8005720:	b007      	add	sp, #28
 8005722:	e8bd 8ff0 	ldmia.w	sp!, {r4, r5, r6, r7, r8, r9, sl, fp, pc}
 8005726:	bf00      	nop
 8005728:	1fe00fff 	.word	0x1fe00fff
 800572c:	18000f3a 	.word	0x18000f3a

08005730 <HAL_SD_WriteBlocks>:
{
 8005730:	e92d 4ff0 	stmdb	sp!, {r4, r5, r6, r7, r8, r9, sl, fp, lr}
 8005734:	b08b      	sub	sp, #44	; 0x2c
 8005736:	4605      	mov	r5, r0
 8005738:	460c      	mov	r4, r1
 800573a:	4616      	mov	r6, r2
 800573c:	469a      	mov	sl, r3
 800573e:	f8dd 9050 	ldr.w	r9, [sp, #80]	; 0x50
  uint32_t tickstart = HAL_GetTick();
 8005742:	f7fb ffbf 	bl	80016c4 <HAL_GetTick>
  if (NULL == pData)
 8005746:	2c00      	cmp	r4, #0
 8005748:	d03b      	beq.n	80057c2 <HAL_SD_WriteBlocks+0x92>
 800574a:	4680      	mov	r8, r0
  if (hsd->State == HAL_SD_STATE_READY)
 800574c:	f895 7030 	ldrb.w	r7, [r5, #48]	; 0x30
 8005750:	b2ff      	uxtb	r7, r7
 8005752:	2f01      	cmp	r7, #1
 8005754:	f040 80e9 	bne.w	800592a <HAL_SD_WriteBlocks+0x1fa>
    hsd->ErrorCode = HAL_SD_ERROR_NONE;
 8005758:	2300      	movs	r3, #0
 800575a:	636b      	str	r3, [r5, #52]	; 0x34
    if ((add + NumberOfBlocks) > (hsd->SdCard.LogBlockNbr))
 800575c:	eb06 030a 	add.w	r3, r6, sl
 8005760:	6d2a      	ldr	r2, [r5, #80]	; 0x50
 8005762:	4293      	cmp	r3, r2
 8005764:	d833      	bhi.n	80057ce <HAL_SD_WriteBlocks+0x9e>
    hsd->State = HAL_SD_STATE_BUSY;
 8005766:	2303      	movs	r3, #3
 8005768:	f885 3030 	strb.w	r3, [r5, #48]	; 0x30
    hsd->Instance->DCTRL = 0U;
 800576c:	682b      	ldr	r3, [r5, #0]
 800576e:	2200      	movs	r2, #0
 8005770:	62da      	str	r2, [r3, #44]	; 0x2c
    if (hsd->SdCard.CardType != CARD_SDHC_SDXC)
 8005772:	6bab      	ldr	r3, [r5, #56]	; 0x38
 8005774:	2b01      	cmp	r3, #1
 8005776:	d000      	beq.n	800577a <HAL_SD_WriteBlocks+0x4a>
      add *= 512U;
 8005778:	0276      	lsls	r6, r6, #9
    config.DataTimeOut   = SDMMC_DATATIMEOUT;
 800577a:	f04f 33ff 	mov.w	r3, #4294967295	; 0xffffffff
 800577e:	9304      	str	r3, [sp, #16]
    config.DataLength    = NumberOfBlocks * BLOCKSIZE;
 8005780:	ea4f 234a 	mov.w	r3, sl, lsl #9
 8005784:	9305      	str	r3, [sp, #20]
    config.DataBlockSize = SDMMC_DATABLOCK_SIZE_512B;
 8005786:	2390      	movs	r3, #144	; 0x90
 8005788:	9306      	str	r3, [sp, #24]
    config.TransferDir   = SDMMC_TRANSFER_DIR_TO_CARD;
 800578a:	2300      	movs	r3, #0
 800578c:	9307      	str	r3, [sp, #28]
    config.TransferMode  = SDMMC_TRANSFER_MODE_BLOCK;
 800578e:	9308      	str	r3, [sp, #32]
    config.DPSM          = SDMMC_DPSM_DISABLE;
 8005790:	9309      	str	r3, [sp, #36]	; 0x24
    (void)SDMMC_ConfigData(hsd->Instance, &config);
 8005792:	a904      	add	r1, sp, #16
 8005794:	6828      	ldr	r0, [r5, #0]
 8005796:	f000 fda5 	bl	80062e4 <SDMMC_ConfigData>
    __SDMMC_CMDTRANS_ENABLE(hsd->Instance);
 800579a:	682a      	ldr	r2, [r5, #0]
 800579c:	68d3      	ldr	r3, [r2, #12]
 800579e:	f043 0340 	orr.w	r3, r3, #64	; 0x40
 80057a2:	60d3      	str	r3, [r2, #12]
    if (NumberOfBlocks > 1U)
 80057a4:	f1ba 0f01 	cmp.w	sl, #1
 80057a8:	d916      	bls.n	80057d8 <HAL_SD_WriteBlocks+0xa8>
      hsd->Context = SD_CONTEXT_WRITE_MULTIPLE_BLOCK;
 80057aa:	2320      	movs	r3, #32
 80057ac:	62eb      	str	r3, [r5, #44]	; 0x2c
      errorstate = SDMMC_CmdWriteMultiBlock(hsd->Instance, add);
 80057ae:	4631      	mov	r1, r6
 80057b0:	6828      	ldr	r0, [r5, #0]
 80057b2:	f000 fed1 	bl	8006558 <SDMMC_CmdWriteMultiBlock>
 80057b6:	9001      	str	r0, [sp, #4]
    if (errorstate != HAL_SD_ERROR_NONE)
 80057b8:	9b01      	ldr	r3, [sp, #4]
 80057ba:	b9ab      	cbnz	r3, 80057e8 <HAL_SD_WriteBlocks+0xb8>
    dataremaining = config.DataLength;
 80057bc:	f8dd b014 	ldr.w	fp, [sp, #20]
    while (!__HAL_SD_GET_FLAG(hsd, SDMMC_FLAG_TXUNDERR | SDMMC_FLAG_DCRCFAIL | SDMMC_FLAG_DTIMEOUT |
 80057c0:	e040      	b.n	8005844 <HAL_SD_WriteBlocks+0x114>
    hsd->ErrorCode |= HAL_SD_ERROR_PARAM;
 80057c2:	6b6b      	ldr	r3, [r5, #52]	; 0x34
 80057c4:	f043 6300 	orr.w	r3, r3, #134217728	; 0x8000000
 80057c8:	636b      	str	r3, [r5, #52]	; 0x34
    return HAL_ERROR;
 80057ca:	2701      	movs	r7, #1
 80057cc:	e0b2      	b.n	8005934 <HAL_SD_WriteBlocks+0x204>
      hsd->ErrorCode |= HAL_SD_ERROR_ADDR_OUT_OF_RANGE;
 80057ce:	6b6b      	ldr	r3, [r5, #52]	; 0x34
 80057d0:	f043 7300 	orr.w	r3, r3, #33554432	; 0x2000000
 80057d4:	636b      	str	r3, [r5, #52]	; 0x34
      return HAL_ERROR;
 80057d6:	e0ad      	b.n	8005934 <HAL_SD_WriteBlocks+0x204>
      hsd->Context = SD_CONTEXT_WRITE_SINGLE_BLOCK;
 80057d8:	2310      	movs	r3, #16
 80057da:	62eb      	str	r3, [r5, #44]	; 0x2c
      errorstate = SDMMC_CmdWriteSingleBlock(hsd->Instance, add);
 80057dc:	4631      	mov	r1, r6
 80057de:	6828      	ldr	r0, [r5, #0]
 80057e0:	f000 fea1 	bl	8006526 <SDMMC_CmdWriteSingleBlock>
 80057e4:	9001      	str	r0, [sp, #4]
 80057e6:	e7e7      	b.n	80057b8 <HAL_SD_WriteBlocks+0x88>
      __HAL_SD_CLEAR_FLAG(hsd, SDMMC_STATIC_FLAGS);
 80057e8:	682b      	ldr	r3, [r5, #0]
 80057ea:	4a54      	ldr	r2, [pc, #336]	; (800593c <HAL_SD_WriteBlocks+0x20c>)
 80057ec:	639a      	str	r2, [r3, #56]	; 0x38
      hsd->ErrorCode |= errorstate;
 80057ee:	6b68      	ldr	r0, [r5, #52]	; 0x34
 80057f0:	9b01      	ldr	r3, [sp, #4]
 80057f2:	4318      	orrs	r0, r3
 80057f4:	6368      	str	r0, [r5, #52]	; 0x34
      hsd->State = HAL_SD_STATE_READY;
 80057f6:	2301      	movs	r3, #1
 80057f8:	f885 3030 	strb.w	r3, [r5, #48]	; 0x30
      hsd->Context = SD_CONTEXT_NONE;
 80057fc:	2300      	movs	r3, #0
 80057fe:	62eb      	str	r3, [r5, #44]	; 0x2c
      return HAL_ERROR;
 8005800:	e098      	b.n	8005934 <HAL_SD_WriteBlocks+0x204>
          data = (uint32_t)(*tempbuff);
 8005802:	7823      	ldrb	r3, [r4, #0]
 8005804:	9303      	str	r3, [sp, #12]
          data |= ((uint32_t)(*tempbuff) << 8U);
 8005806:	7862      	ldrb	r2, [r4, #1]
 8005808:	ea43 2302 	orr.w	r3, r3, r2, lsl #8
 800580c:	9303      	str	r3, [sp, #12]
          data |= ((uint32_t)(*tempbuff) << 16U);
 800580e:	78a2      	ldrb	r2, [r4, #2]
 8005810:	ea43 4302 	orr.w	r3, r3, r2, lsl #16
 8005814:	9303      	str	r3, [sp, #12]
          data |= ((uint32_t)(*tempbuff) << 24U);
 8005816:	78e2      	ldrb	r2, [r4, #3]
 8005818:	ea43 6302 	orr.w	r3, r3, r2, lsl #24
 800581c:	9303      	str	r3, [sp, #12]
          tempbuff++;
 800581e:	3404      	adds	r4, #4
          (void)SDMMC_WriteFIFO(hsd->Instance, &data);
 8005820:	a903      	add	r1, sp, #12
 8005822:	6828      	ldr	r0, [r5, #0]
 8005824:	f000 fd37 	bl	8006296 <SDMMC_WriteFIFO>
        for (count = 0U; count < 8U; count++)
 8005828:	3601      	adds	r6, #1
 800582a:	2e07      	cmp	r6, #7
 800582c:	d9e9      	bls.n	8005802 <HAL_SD_WriteBlocks+0xd2>
        dataremaining -= 32U;
 800582e:	f1ab 0b20 	sub.w	fp, fp, #32
      if (((HAL_GetTick() - tickstart) >=  Timeout) || (Timeout == 0U))
 8005832:	f7fb ff47 	bl	80016c4 <HAL_GetTick>
 8005836:	eba0 0008 	sub.w	r0, r0, r8
 800583a:	4548      	cmp	r0, r9
 800583c:	d20f      	bcs.n	800585e <HAL_SD_WriteBlocks+0x12e>
 800583e:	f1b9 0f00 	cmp.w	r9, #0
 8005842:	d00c      	beq.n	800585e <HAL_SD_WriteBlocks+0x12e>
    while (!__HAL_SD_GET_FLAG(hsd, SDMMC_FLAG_TXUNDERR | SDMMC_FLAG_DCRCFAIL | SDMMC_FLAG_DTIMEOUT |
 8005844:	682b      	ldr	r3, [r5, #0]
 8005846:	6b5e      	ldr	r6, [r3, #52]	; 0x34
 8005848:	f416 768d 	ands.w	r6, r6, #282	; 0x11a
 800584c:	d115      	bne.n	800587a <HAL_SD_WriteBlocks+0x14a>
      if (__HAL_SD_GET_FLAG(hsd, SDMMC_FLAG_TXFIFOHE) && (dataremaining >= 32U))
 800584e:	6b5b      	ldr	r3, [r3, #52]	; 0x34
 8005850:	f413 4f80 	tst.w	r3, #16384	; 0x4000
 8005854:	d0ed      	beq.n	8005832 <HAL_SD_WriteBlocks+0x102>
 8005856:	f1bb 0f1f 	cmp.w	fp, #31
 800585a:	d9ea      	bls.n	8005832 <HAL_SD_WriteBlocks+0x102>
 800585c:	e7e5      	b.n	800582a <HAL_SD_WriteBlocks+0xfa>
        __HAL_SD_CLEAR_FLAG(hsd, SDMMC_STATIC_FLAGS);
 800585e:	682b      	ldr	r3, [r5, #0]
 8005860:	4a36      	ldr	r2, [pc, #216]	; (800593c <HAL_SD_WriteBlocks+0x20c>)
 8005862:	639a      	str	r2, [r3, #56]	; 0x38
        hsd->ErrorCode |= errorstate;
 8005864:	6b68      	ldr	r0, [r5, #52]	; 0x34
 8005866:	9b01      	ldr	r3, [sp, #4]
 8005868:	4318      	orrs	r0, r3
 800586a:	6368      	str	r0, [r5, #52]	; 0x34
        hsd->State = HAL_SD_STATE_READY;
 800586c:	2301      	movs	r3, #1
 800586e:	f885 3030 	strb.w	r3, [r5, #48]	; 0x30
        hsd->Context = SD_CONTEXT_NONE;
 8005872:	2300      	movs	r3, #0
 8005874:	62eb      	str	r3, [r5, #44]	; 0x2c
        return HAL_TIMEOUT;
 8005876:	2703      	movs	r7, #3
 8005878:	e05c      	b.n	8005934 <HAL_SD_WriteBlocks+0x204>
    __SDMMC_CMDTRANS_DISABLE(hsd->Instance);
 800587a:	68da      	ldr	r2, [r3, #12]
 800587c:	f022 0240 	bic.w	r2, r2, #64	; 0x40
 8005880:	60da      	str	r2, [r3, #12]
    if (__HAL_SD_GET_FLAG(hsd, SDMMC_FLAG_DATAEND) && (NumberOfBlocks > 1U))
 8005882:	6828      	ldr	r0, [r5, #0]
 8005884:	6b43      	ldr	r3, [r0, #52]	; 0x34
 8005886:	f413 7f80 	tst.w	r3, #256	; 0x100
 800588a:	d005      	beq.n	8005898 <HAL_SD_WriteBlocks+0x168>
 800588c:	f1ba 0f01 	cmp.w	sl, #1
 8005890:	d902      	bls.n	8005898 <HAL_SD_WriteBlocks+0x168>
      if (hsd->SdCard.CardType != CARD_SECURED)
 8005892:	6bab      	ldr	r3, [r5, #56]	; 0x38
 8005894:	2b03      	cmp	r3, #3
 8005896:	d118      	bne.n	80058ca <HAL_SD_WriteBlocks+0x19a>
    if (__HAL_SD_GET_FLAG(hsd, SDMMC_FLAG_DTIMEOUT))
 8005898:	682b      	ldr	r3, [r5, #0]
 800589a:	6b5a      	ldr	r2, [r3, #52]	; 0x34
 800589c:	f012 0f08 	tst.w	r2, #8
 80058a0:	d124      	bne.n	80058ec <HAL_SD_WriteBlocks+0x1bc>
    else if (__HAL_SD_GET_FLAG(hsd, SDMMC_FLAG_DCRCFAIL))
 80058a2:	6b5a      	ldr	r2, [r3, #52]	; 0x34
 80058a4:	f012 0f02 	tst.w	r2, #2
 80058a8:	d12c      	bne.n	8005904 <HAL_SD_WriteBlocks+0x1d4>
    else if (__HAL_SD_GET_FLAG(hsd, SDMMC_FLAG_TXUNDERR))
 80058aa:	6b5a      	ldr	r2, [r3, #52]	; 0x34
 80058ac:	f012 0f10 	tst.w	r2, #16
 80058b0:	d034      	beq.n	800591c <HAL_SD_WriteBlocks+0x1ec>
      __HAL_SD_CLEAR_FLAG(hsd, SDMMC_STATIC_FLAGS);
 80058b2:	4a22      	ldr	r2, [pc, #136]	; (800593c <HAL_SD_WriteBlocks+0x20c>)
 80058b4:	639a      	str	r2, [r3, #56]	; 0x38
      hsd->ErrorCode |= HAL_SD_ERROR_TX_UNDERRUN;
 80058b6:	6b6b      	ldr	r3, [r5, #52]	; 0x34
 80058b8:	f043 0310 	orr.w	r3, r3, #16
 80058bc:	636b      	str	r3, [r5, #52]	; 0x34
      hsd->State = HAL_SD_STATE_READY;
 80058be:	2301      	movs	r3, #1
 80058c0:	f885 3030 	strb.w	r3, [r5, #48]	; 0x30
      hsd->Context = SD_CONTEXT_NONE;
 80058c4:	2300      	movs	r3, #0
 80058c6:	62eb      	str	r3, [r5, #44]	; 0x2c
      return HAL_ERROR;
 80058c8:	e034      	b.n	8005934 <HAL_SD_WriteBlocks+0x204>
        errorstate = SDMMC_CmdStopTransfer(hsd->Instance);
 80058ca:	f000 fe5f 	bl	800658c <SDMMC_CmdStopTransfer>
        if (errorstate != HAL_SD_ERROR_NONE)
 80058ce:	4603      	mov	r3, r0
 80058d0:	2800      	cmp	r0, #0
 80058d2:	d0e1      	beq.n	8005898 <HAL_SD_WriteBlocks+0x168>
          __HAL_SD_CLEAR_FLAG(hsd, SDMMC_STATIC_FLAGS);
 80058d4:	682a      	ldr	r2, [r5, #0]
 80058d6:	4919      	ldr	r1, [pc, #100]	; (800593c <HAL_SD_WriteBlocks+0x20c>)
 80058d8:	6391      	str	r1, [r2, #56]	; 0x38
          hsd->ErrorCode |= errorstate;
 80058da:	6b6a      	ldr	r2, [r5, #52]	; 0x34
 80058dc:	4313      	orrs	r3, r2
 80058de:	636b      	str	r3, [r5, #52]	; 0x34
          hsd->State = HAL_SD_STATE_READY;
 80058e0:	2301      	movs	r3, #1
 80058e2:	f885 3030 	strb.w	r3, [r5, #48]	; 0x30
          hsd->Context = SD_CONTEXT_NONE;
 80058e6:	2300      	movs	r3, #0
 80058e8:	62eb      	str	r3, [r5, #44]	; 0x2c
          return HAL_ERROR;
 80058ea:	e023      	b.n	8005934 <HAL_SD_WriteBlocks+0x204>
      __HAL_SD_CLEAR_FLAG(hsd, SDMMC_STATIC_FLAGS);
 80058ec:	4a13      	ldr	r2, [pc, #76]	; (800593c <HAL_SD_WriteBlocks+0x20c>)
 80058ee:	639a      	str	r2, [r3, #56]	; 0x38
      hsd->ErrorCode |= HAL_SD_ERROR_DATA_TIMEOUT;
 80058f0:	6b6b      	ldr	r3, [r5, #52]	; 0x34
 80058f2:	f043 0308 	orr.w	r3, r3, #8
 80058f6:	636b      	str	r3, [r5, #52]	; 0x34
      hsd->State = HAL_SD_STATE_READY;
 80058f8:	2301      	movs	r3, #1
 80058fa:	f885 3030 	strb.w	r3, [r5, #48]	; 0x30
      hsd->Context = SD_CONTEXT_NONE;
 80058fe:	2300      	movs	r3, #0
 8005900:	62eb      	str	r3, [r5, #44]	; 0x2c
      return HAL_ERROR;
 8005902:	e017      	b.n	8005934 <HAL_SD_WriteBlocks+0x204>
      __HAL_SD_CLEAR_FLAG(hsd, SDMMC_STATIC_FLAGS);
 8005904:	4a0d      	ldr	r2, [pc, #52]	; (800593c <HAL_SD_WriteBlocks+0x20c>)
 8005906:	639a      	str	r2, [r3, #56]	; 0x38
      hsd->ErrorCode |= HAL_SD_ERROR_DATA_CRC_FAIL;
 8005908:	6b6b      	ldr	r3, [r5, #52]	; 0x34
 800590a:	f043 0302 	orr.w	r3, r3, #2
 800590e:	636b      	str	r3, [r5, #52]	; 0x34
      hsd->State = HAL_SD_STATE_READY;
 8005910:	2301      	movs	r3, #1
 8005912:	f885 3030 	strb.w	r3, [r5, #48]	; 0x30
      hsd->Context = SD_CONTEXT_NONE;
 8005916:	2300      	movs	r3, #0
 8005918:	62eb      	str	r3, [r5, #44]	; 0x2c
      return HAL_ERROR;
 800591a:	e00b      	b.n	8005934 <HAL_SD_WriteBlocks+0x204>
    __HAL_SD_CLEAR_FLAG(hsd, SDMMC_STATIC_DATA_FLAGS);
 800591c:	4a08      	ldr	r2, [pc, #32]	; (8005940 <HAL_SD_WriteBlocks+0x210>)
 800591e:	639a      	str	r2, [r3, #56]	; 0x38
    hsd->State = HAL_SD_STATE_READY;
 8005920:	2301      	movs	r3, #1
 8005922:	f885 3030 	strb.w	r3, [r5, #48]	; 0x30
    return HAL_OK;
 8005926:	2700      	movs	r7, #0
 8005928:	e004      	b.n	8005934 <HAL_SD_WriteBlocks+0x204>
    hsd->ErrorCode |= HAL_SD_ERROR_BUSY;
 800592a:	6b6b      	ldr	r3, [r5, #52]	; 0x34
 800592c:	f043 5300 	orr.w	r3, r3, #536870912	; 0x20000000
 8005930:	636b      	str	r3, [r5, #52]	; 0x34
    return HAL_ERROR;
 8005932:	2701      	movs	r7, #1
}
 8005934:	4638      	mov	r0, r7
 8005936:	b00b      	add	sp, #44	; 0x2c
 8005938:	e8bd 8ff0 	ldmia.w	sp!, {r4, r5, r6, r7, r8, r9, sl, fp, pc}
 800593c:	1fe00fff 	.word	0x1fe00fff
 8005940:	18000f3a 	.word	0x18000f3a

08005944 <HAL_SD_ErrorCallback>:
}
 8005944:	4770      	bx	lr
	...

08005948 <HAL_SD_GetCardCSD>:
  pCSD->CSDStruct = (uint8_t)((hsd->CSD[0] & 0xC0000000U) >> 30U);
 8005948:	6dc3      	ldr	r3, [r0, #92]	; 0x5c
 800594a:	0f9b      	lsrs	r3, r3, #30
 800594c:	700b      	strb	r3, [r1, #0]
  pCSD->SysSpecVersion = (uint8_t)((hsd->CSD[0] & 0x3C000000U) >> 26U);
 800594e:	6dc3      	ldr	r3, [r0, #92]	; 0x5c
 8005950:	f3c3 6383 	ubfx	r3, r3, #26, #4
 8005954:	704b      	strb	r3, [r1, #1]
  pCSD->Reserved1 = (uint8_t)((hsd->CSD[0] & 0x03000000U) >> 24U);
 8005956:	f890 305f 	ldrb.w	r3, [r0, #95]	; 0x5f
 800595a:	f003 0303 	and.w	r3, r3, #3
 800595e:	708b      	strb	r3, [r1, #2]
  pCSD->TAAC = (uint8_t)((hsd->CSD[0] & 0x00FF0000U) >> 16U);
 8005960:	f890 305e 	ldrb.w	r3, [r0, #94]	; 0x5e
 8005964:	70cb      	strb	r3, [r1, #3]
  pCSD->NSAC = (uint8_t)((hsd->CSD[0] & 0x0000FF00U) >> 8U);
 8005966:	f890 305d 	ldrb.w	r3, [r0, #93]	; 0x5d
 800596a:	710b      	strb	r3, [r1, #4]
  pCSD->MaxBusClkFrec = (uint8_t)(hsd->CSD[0] & 0x000000FFU);
 800596c:	f890 305c 	ldrb.w	r3, [r0, #92]	; 0x5c
 8005970:	714b      	strb	r3, [r1, #5]
  pCSD->CardComdClasses = (uint16_t)((hsd->CSD[1] & 0xFFF00000U) >> 20U);
 8005972:	6e03      	ldr	r3, [r0, #96]	; 0x60
 8005974:	0d1b      	lsrs	r3, r3, #20
 8005976:	80cb      	strh	r3, [r1, #6]
  pCSD->RdBlockLen = (uint8_t)((hsd->CSD[1] & 0x000F0000U) >> 16U);
 8005978:	f8b0 3062 	ldrh.w	r3, [r0, #98]	; 0x62
 800597c:	f003 030f 	and.w	r3, r3, #15
 8005980:	720b      	strb	r3, [r1, #8]
  pCSD->PartBlockRead   = (uint8_t)((hsd->CSD[1] & 0x00008000U) >> 15U);
 8005982:	6e03      	ldr	r3, [r0, #96]	; 0x60
 8005984:	f3c3 33c0 	ubfx	r3, r3, #15, #1
 8005988:	724b      	strb	r3, [r1, #9]
  pCSD->WrBlockMisalign = (uint8_t)((hsd->CSD[1] & 0x00004000U) >> 14U);
 800598a:	6e03      	ldr	r3, [r0, #96]	; 0x60
 800598c:	f3c3 3380 	ubfx	r3, r3, #14, #1
 8005990:	728b      	strb	r3, [r1, #10]
  pCSD->RdBlockMisalign = (uint8_t)((hsd->CSD[1] & 0x00002000U) >> 13U);
 8005992:	6e03      	ldr	r3, [r0, #96]	; 0x60
 8005994:	f3c3 3340 	ubfx	r3, r3, #13, #1
 8005998:	72cb      	strb	r3, [r1, #11]
  pCSD->DSRImpl = (uint8_t)((hsd->CSD[1] & 0x00001000U) >> 12U);
 800599a:	6e03      	ldr	r3, [r0, #96]	; 0x60
 800599c:	f3c3 3300 	ubfx	r3, r3, #12, #1
 80059a0:	730b      	strb	r3, [r1, #12]
  pCSD->Reserved2 = 0U; /*!< Reserved */
 80059a2:	2300      	movs	r3, #0
 80059a4:	734b      	strb	r3, [r1, #13]
  if (hsd->SdCard.CardType == CARD_SDSC)
 80059a6:	6b83      	ldr	r3, [r0, #56]	; 0x38
 80059a8:	2b00      	cmp	r3, #0
 80059aa:	f040 8086 	bne.w	8005aba <HAL_SD_GetCardCSD+0x172>
    pCSD->DeviceSize = (((hsd->CSD[1] & 0x000003FFU) << 2U) | ((hsd->CSD[2] & 0xC0000000U) >> 30U));
 80059ae:	6e02      	ldr	r2, [r0, #96]	; 0x60
 80059b0:	f640 73fc 	movw	r3, #4092	; 0xffc
 80059b4:	ea03 0382 	and.w	r3, r3, r2, lsl #2
 80059b8:	6e42      	ldr	r2, [r0, #100]	; 0x64
 80059ba:	ea43 7392 	orr.w	r3, r3, r2, lsr #30
 80059be:	610b      	str	r3, [r1, #16]
    pCSD->MaxRdCurrentVDDMin = (uint8_t)((hsd->CSD[2] & 0x38000000U) >> 27U);
 80059c0:	6e43      	ldr	r3, [r0, #100]	; 0x64
 80059c2:	f3c3 63c2 	ubfx	r3, r3, #27, #3
 80059c6:	750b      	strb	r3, [r1, #20]
    pCSD->MaxRdCurrentVDDMax = (uint8_t)((hsd->CSD[2] & 0x07000000U) >> 24U);
 80059c8:	f890 3067 	ldrb.w	r3, [r0, #103]	; 0x67
 80059cc:	f003 0307 	and.w	r3, r3, #7
 80059d0:	754b      	strb	r3, [r1, #21]
    pCSD->MaxWrCurrentVDDMin = (uint8_t)((hsd->CSD[2] & 0x00E00000U) >> 21U);
 80059d2:	6e43      	ldr	r3, [r0, #100]	; 0x64
 80059d4:	f3c3 5342 	ubfx	r3, r3, #21, #3
 80059d8:	758b      	strb	r3, [r1, #22]
    pCSD->MaxWrCurrentVDDMax = (uint8_t)((hsd->CSD[2] & 0x001C0000U) >> 18U);
 80059da:	6e43      	ldr	r3, [r0, #100]	; 0x64
 80059dc:	f3c3 4382 	ubfx	r3, r3, #18, #3
 80059e0:	75cb      	strb	r3, [r1, #23]
    pCSD->DeviceSizeMul = (uint8_t)((hsd->CSD[2] & 0x00038000U) >> 15U);
 80059e2:	6e43      	ldr	r3, [r0, #100]	; 0x64
 80059e4:	f3c3 33c2 	ubfx	r3, r3, #15, #3
 80059e8:	760b      	strb	r3, [r1, #24]
    hsd->SdCard.BlockNbr  = (pCSD->DeviceSize + 1U) ;
 80059ea:	690b      	ldr	r3, [r1, #16]
 80059ec:	3301      	adds	r3, #1
 80059ee:	6483      	str	r3, [r0, #72]	; 0x48
    hsd->SdCard.BlockNbr *= (1UL << ((pCSD->DeviceSizeMul & 0x07U) + 2U));
 80059f0:	7e0a      	ldrb	r2, [r1, #24]
 80059f2:	f002 0207 	and.w	r2, r2, #7
 80059f6:	3202      	adds	r2, #2
 80059f8:	4093      	lsls	r3, r2
 80059fa:	6483      	str	r3, [r0, #72]	; 0x48
    hsd->SdCard.BlockSize = (1UL << (pCSD->RdBlockLen & 0x0FU));
 80059fc:	7a0a      	ldrb	r2, [r1, #8]
 80059fe:	f002 0c0f 	and.w	ip, r2, #15
 8005a02:	2201      	movs	r2, #1
 8005a04:	fa02 f20c 	lsl.w	r2, r2, ip
 8005a08:	64c2      	str	r2, [r0, #76]	; 0x4c
    hsd->SdCard.LogBlockNbr = (hsd->SdCard.BlockNbr) * ((hsd->SdCard.BlockSize) / 512U);
 8005a0a:	0a52      	lsrs	r2, r2, #9
 8005a0c:	fb02 f303 	mul.w	r3, r2, r3
 8005a10:	6503      	str	r3, [r0, #80]	; 0x50
    hsd->SdCard.LogBlockSize = 512U;
 8005a12:	f44f 7300 	mov.w	r3, #512	; 0x200
 8005a16:	6543      	str	r3, [r0, #84]	; 0x54
  pCSD->EraseGrSize = (uint8_t)((hsd->CSD[2] & 0x00004000U) >> 14U);
 8005a18:	6e43      	ldr	r3, [r0, #100]	; 0x64
 8005a1a:	f3c3 3380 	ubfx	r3, r3, #14, #1
 8005a1e:	764b      	strb	r3, [r1, #25]
  pCSD->EraseGrMul = (uint8_t)((hsd->CSD[2] & 0x00003F80U) >> 7U);
 8005a20:	6e43      	ldr	r3, [r0, #100]	; 0x64
 8005a22:	f3c3 13c6 	ubfx	r3, r3, #7, #7
 8005a26:	768b      	strb	r3, [r1, #26]
  pCSD->WrProtectGrSize = (uint8_t)(hsd->CSD[2] & 0x0000007FU);
 8005a28:	6e43      	ldr	r3, [r0, #100]	; 0x64
 8005a2a:	f003 037f 	and.w	r3, r3, #127	; 0x7f
 8005a2e:	76cb      	strb	r3, [r1, #27]
  pCSD->WrProtectGrEnable = (uint8_t)((hsd->CSD[3] & 0x80000000U) >> 31U);
 8005a30:	6e83      	ldr	r3, [r0, #104]	; 0x68
 8005a32:	0fdb      	lsrs	r3, r3, #31
 8005a34:	770b      	strb	r3, [r1, #28]
  pCSD->ManDeflECC = (uint8_t)((hsd->CSD[3] & 0x60000000U) >> 29U);
 8005a36:	6e83      	ldr	r3, [r0, #104]	; 0x68
 8005a38:	f3c3 7341 	ubfx	r3, r3, #29, #2
 8005a3c:	774b      	strb	r3, [r1, #29]
  pCSD->WrSpeedFact = (uint8_t)((hsd->CSD[3] & 0x1C000000U) >> 26U);
 8005a3e:	6e83      	ldr	r3, [r0, #104]	; 0x68
 8005a40:	f3c3 6382 	ubfx	r3, r3, #26, #3
 8005a44:	778b      	strb	r3, [r1, #30]
  pCSD->MaxWrBlockLen = (uint8_t)((hsd->CSD[3] & 0x03C00000U) >> 22U);
 8005a46:	6e83      	ldr	r3, [r0, #104]	; 0x68
 8005a48:	f3c3 5383 	ubfx	r3, r3, #22, #4
 8005a4c:	77cb      	strb	r3, [r1, #31]
  pCSD->WriteBlockPaPartial = (uint8_t)((hsd->CSD[3] & 0x00200000U) >> 21U);
 8005a4e:	6e83      	ldr	r3, [r0, #104]	; 0x68
 8005a50:	f3c3 5340 	ubfx	r3, r3, #21, #1
 8005a54:	f881 3020 	strb.w	r3, [r1, #32]
  pCSD->Reserved3 = 0;
 8005a58:	2300      	movs	r3, #0
 8005a5a:	f881 3021 	strb.w	r3, [r1, #33]	; 0x21
  pCSD->ContentProtectAppli = (uint8_t)((hsd->CSD[3] & 0x00010000U) >> 16U);
 8005a5e:	f8b0 206a 	ldrh.w	r2, [r0, #106]	; 0x6a
 8005a62:	f002 0201 	and.w	r2, r2, #1
 8005a66:	f881 2022 	strb.w	r2, [r1, #34]	; 0x22
  pCSD->FileFormatGroup = (uint8_t)((hsd->CSD[3] & 0x00008000U) >> 15U);
 8005a6a:	6e82      	ldr	r2, [r0, #104]	; 0x68
 8005a6c:	f3c2 32c0 	ubfx	r2, r2, #15, #1
 8005a70:	f881 2023 	strb.w	r2, [r1, #35]	; 0x23
  pCSD->CopyFlag = (uint8_t)((hsd->CSD[3] & 0x00004000U) >> 14U);
 8005a74:	6e82      	ldr	r2, [r0, #104]	; 0x68
 8005a76:	f3c2 3280 	ubfx	r2, r2, #14, #1
 8005a7a:	f881 2024 	strb.w	r2, [r1, #36]	; 0x24
  pCSD->PermWrProtect = (uint8_t)((hsd->CSD[3] & 0x00002000U) >> 13U);
 8005a7e:	6e82      	ldr	r2, [r0, #104]	; 0x68
 8005a80:	f3c2 3240 	ubfx	r2, r2, #13, #1
 8005a84:	f881 2025 	strb.w	r2, [r1, #37]	; 0x25
  pCSD->TempWrProtect = (uint8_t)((hsd->CSD[3] & 0x00001000U) >> 12U);
 8005a88:	6e82      	ldr	r2, [r0, #104]	; 0x68
 8005a8a:	f3c2 3200 	ubfx	r2, r2, #12, #1
 8005a8e:	f881 2026 	strb.w	r2, [r1, #38]	; 0x26
  pCSD->FileFormat = (uint8_t)((hsd->CSD[3] & 0x00000C00U) >> 10U);
 8005a92:	6e82      	ldr	r2, [r0, #104]	; 0x68
 8005a94:	f3c2 2281 	ubfx	r2, r2, #10, #2
 8005a98:	f881 2027 	strb.w	r2, [r1, #39]	; 0x27
  pCSD->ECC = (uint8_t)((hsd->CSD[3] & 0x00000300U) >> 8U);
 8005a9c:	6e82      	ldr	r2, [r0, #104]	; 0x68
 8005a9e:	f3c2 2201 	ubfx	r2, r2, #8, #2
 8005aa2:	f881 2028 	strb.w	r2, [r1, #40]	; 0x28
  pCSD->CSD_CRC = (uint8_t)((hsd->CSD[3] & 0x000000FEU) >> 1U);
 8005aa6:	6e82      	ldr	r2, [r0, #104]	; 0x68
 8005aa8:	f3c2 0246 	ubfx	r2, r2, #1, #7
 8005aac:	f881 2029 	strb.w	r2, [r1, #41]	; 0x29
  pCSD->Reserved4 = 1;
 8005ab0:	2201      	movs	r2, #1
 8005ab2:	f881 202a 	strb.w	r2, [r1, #42]	; 0x2a
  return HAL_OK;
 8005ab6:	4618      	mov	r0, r3
}
 8005ab8:	4770      	bx	lr
  else if (hsd->SdCard.CardType == CARD_SDHC_SDXC)
 8005aba:	2b01      	cmp	r3, #1
 8005abc:	d111      	bne.n	8005ae2 <HAL_SD_GetCardCSD+0x19a>
    pCSD->DeviceSize = (((hsd->CSD[1] & 0x0000003FU) << 16U) | ((hsd->CSD[2] & 0xFFFF0000U) >> 16U));
 8005abe:	6e03      	ldr	r3, [r0, #96]	; 0x60
 8005ac0:	041b      	lsls	r3, r3, #16
 8005ac2:	f403 137c 	and.w	r3, r3, #4128768	; 0x3f0000
 8005ac6:	f8b0 2066 	ldrh.w	r2, [r0, #102]	; 0x66
 8005aca:	4313      	orrs	r3, r2
 8005acc:	610b      	str	r3, [r1, #16]
    hsd->SdCard.BlockNbr = ((pCSD->DeviceSize + 1U) * 1024U);
 8005ace:	690b      	ldr	r3, [r1, #16]
 8005ad0:	3301      	adds	r3, #1
 8005ad2:	029b      	lsls	r3, r3, #10
 8005ad4:	6483      	str	r3, [r0, #72]	; 0x48
    hsd->SdCard.LogBlockNbr = hsd->SdCard.BlockNbr;
 8005ad6:	6503      	str	r3, [r0, #80]	; 0x50
    hsd->SdCard.BlockSize = 512U;
 8005ad8:	f44f 7300 	mov.w	r3, #512	; 0x200
 8005adc:	64c3      	str	r3, [r0, #76]	; 0x4c
    hsd->SdCard.LogBlockSize = hsd->SdCard.BlockSize;
 8005ade:	6543      	str	r3, [r0, #84]	; 0x54
 8005ae0:	e79a      	b.n	8005a18 <HAL_SD_GetCardCSD+0xd0>
    __HAL_SD_CLEAR_FLAG(hsd, SDMMC_STATIC_FLAGS);
 8005ae2:	6803      	ldr	r3, [r0, #0]
 8005ae4:	4a05      	ldr	r2, [pc, #20]	; (8005afc <HAL_SD_GetCardCSD+0x1b4>)
 8005ae6:	639a      	str	r2, [r3, #56]	; 0x38
    hsd->ErrorCode |= HAL_SD_ERROR_UNSUPPORTED_FEATURE;
 8005ae8:	6b43      	ldr	r3, [r0, #52]	; 0x34
 8005aea:	f043 5380 	orr.w	r3, r3, #268435456	; 0x10000000
 8005aee:	6343      	str	r3, [r0, #52]	; 0x34
    hsd->State = HAL_SD_STATE_READY;
 8005af0:	2301      	movs	r3, #1
 8005af2:	f880 3030 	strb.w	r3, [r0, #48]	; 0x30
    return HAL_ERROR;
 8005af6:	4618      	mov	r0, r3
 8005af8:	4770      	bx	lr
 8005afa:	bf00      	nop
 8005afc:	1fe00fff 	.word	0x1fe00fff

08005b00 <SD_InitCard>:
{
 8005b00:	b530      	push	{r4, r5, lr}
 8005b02:	b08d      	sub	sp, #52	; 0x34
 8005b04:	4604      	mov	r4, r0
  uint16_t sd_rca = 0U;
 8005b06:	2300      	movs	r3, #0
 8005b08:	f8ad 3002 	strh.w	r3, [sp, #2]
  uint32_t tickstart = HAL_GetTick();
 8005b0c:	f7fb fdda 	bl	80016c4 <HAL_GetTick>
 8005b10:	4605      	mov	r5, r0
  if (SDMMC_GetPowerState(hsd->Instance) == 0U)
 8005b12:	6820      	ldr	r0, [r4, #0]
 8005b14:	f000 fbca 	bl	80062ac <SDMMC_GetPowerState>
 8005b18:	2800      	cmp	r0, #0
 8005b1a:	d067      	beq.n	8005bec <SD_InitCard+0xec>
  if (hsd->SdCard.CardType != CARD_SECURED)
 8005b1c:	6ba3      	ldr	r3, [r4, #56]	; 0x38
 8005b1e:	2b03      	cmp	r3, #3
 8005b20:	d117      	bne.n	8005b52 <SD_InitCard+0x52>
  if (hsd->SdCard.CardType != CARD_SECURED)
 8005b22:	6ba3      	ldr	r3, [r4, #56]	; 0x38
 8005b24:	2b03      	cmp	r3, #3
 8005b26:	d02f      	beq.n	8005b88 <SD_InitCard+0x88>
    while (sd_rca == 0U)
 8005b28:	f8bd 3002 	ldrh.w	r3, [sp, #2]
 8005b2c:	bb63      	cbnz	r3, 8005b88 <SD_InitCard+0x88>
      errorstate = SDMMC_CmdSetRelAdd(hsd->Instance, &sd_rca);
 8005b2e:	f10d 0102 	add.w	r1, sp, #2
 8005b32:	6820      	ldr	r0, [r4, #0]
 8005b34:	f000 fed8 	bl	80068e8 <SDMMC_CmdSetRelAdd>
      if (errorstate != HAL_SD_ERROR_NONE)
 8005b38:	4603      	mov	r3, r0
 8005b3a:	2800      	cmp	r0, #0
 8005b3c:	d158      	bne.n	8005bf0 <SD_InitCard+0xf0>
      if ((HAL_GetTick() - tickstart) >=  SDMMC_CMDTIMEOUT)
 8005b3e:	f7fb fdc1 	bl	80016c4 <HAL_GetTick>
 8005b42:	1b43      	subs	r3, r0, r5
 8005b44:	f241 3287 	movw	r2, #4999	; 0x1387
 8005b48:	4293      	cmp	r3, r2
 8005b4a:	d9ed      	bls.n	8005b28 <SD_InitCard+0x28>
        return HAL_SD_ERROR_TIMEOUT;
 8005b4c:	f04f 4300 	mov.w	r3, #2147483648	; 0x80000000
 8005b50:	e04e      	b.n	8005bf0 <SD_InitCard+0xf0>
    errorstate = SDMMC_CmdSendCID(hsd->Instance);
 8005b52:	6820      	ldr	r0, [r4, #0]
 8005b54:	f000 fe0c 	bl	8006770 <SDMMC_CmdSendCID>
    if (errorstate != HAL_SD_ERROR_NONE)
 8005b58:	4603      	mov	r3, r0
 8005b5a:	2800      	cmp	r0, #0
 8005b5c:	d148      	bne.n	8005bf0 <SD_InitCard+0xf0>
      hsd->CID[0U] = SDMMC_GetResponse(hsd->Instance, SDMMC_RESP1);
 8005b5e:	2100      	movs	r1, #0
 8005b60:	6820      	ldr	r0, [r4, #0]
 8005b62:	f000 fbbc 	bl	80062de <SDMMC_GetResponse>
 8005b66:	66e0      	str	r0, [r4, #108]	; 0x6c
      hsd->CID[1U] = SDMMC_GetResponse(hsd->Instance, SDMMC_RESP2);
 8005b68:	2104      	movs	r1, #4
 8005b6a:	6820      	ldr	r0, [r4, #0]
 8005b6c:	f000 fbb7 	bl	80062de <SDMMC_GetResponse>
 8005b70:	6720      	str	r0, [r4, #112]	; 0x70
      hsd->CID[2U] = SDMMC_GetResponse(hsd->Instance, SDMMC_RESP3);
 8005b72:	2108      	movs	r1, #8
 8005b74:	6820      	ldr	r0, [r4, #0]
 8005b76:	f000 fbb2 	bl	80062de <SDMMC_GetResponse>
 8005b7a:	6760      	str	r0, [r4, #116]	; 0x74
      hsd->CID[3U] = SDMMC_GetResponse(hsd->Instance, SDMMC_RESP4);
 8005b7c:	210c      	movs	r1, #12
 8005b7e:	6820      	ldr	r0, [r4, #0]
 8005b80:	f000 fbad 	bl	80062de <SDMMC_GetResponse>
 8005b84:	67a0      	str	r0, [r4, #120]	; 0x78
 8005b86:	e7cc      	b.n	8005b22 <SD_InitCard+0x22>
  if (hsd->SdCard.CardType != CARD_SECURED)
 8005b88:	6ba3      	ldr	r3, [r4, #56]	; 0x38
 8005b8a:	2b03      	cmp	r3, #3
 8005b8c:	d01c      	beq.n	8005bc8 <SD_InitCard+0xc8>
    hsd->SdCard.RelCardAdd = sd_rca;
 8005b8e:	f8bd 1002 	ldrh.w	r1, [sp, #2]
 8005b92:	6461      	str	r1, [r4, #68]	; 0x44
    errorstate = SDMMC_CmdSendCSD(hsd->Instance, (uint32_t)(hsd->SdCard.RelCardAdd << 16U));
 8005b94:	0409      	lsls	r1, r1, #16
 8005b96:	6820      	ldr	r0, [r4, #0]
 8005b98:	f000 fe00 	bl	800679c <SDMMC_CmdSendCSD>
    if (errorstate != HAL_SD_ERROR_NONE)
 8005b9c:	4603      	mov	r3, r0
 8005b9e:	bb38      	cbnz	r0, 8005bf0 <SD_InitCard+0xf0>
      hsd->CSD[0U] = SDMMC_GetResponse(hsd->Instance, SDMMC_RESP1);
 8005ba0:	2100      	movs	r1, #0
 8005ba2:	6820      	ldr	r0, [r4, #0]
 8005ba4:	f000 fb9b 	bl	80062de <SDMMC_GetResponse>
 8005ba8:	65e0      	str	r0, [r4, #92]	; 0x5c
      hsd->CSD[1U] = SDMMC_GetResponse(hsd->Instance, SDMMC_RESP2);
 8005baa:	2104      	movs	r1, #4
 8005bac:	6820      	ldr	r0, [r4, #0]
 8005bae:	f000 fb96 	bl	80062de <SDMMC_GetResponse>
 8005bb2:	6620      	str	r0, [r4, #96]	; 0x60
      hsd->CSD[2U] = SDMMC_GetResponse(hsd->Instance, SDMMC_RESP3);
 8005bb4:	2108      	movs	r1, #8
 8005bb6:	6820      	ldr	r0, [r4, #0]
 8005bb8:	f000 fb91 	bl	80062de <SDMMC_GetResponse>
 8005bbc:	6660      	str	r0, [r4, #100]	; 0x64
      hsd->CSD[3U] = SDMMC_GetResponse(hsd->Instance, SDMMC_RESP4);
 8005bbe:	210c      	movs	r1, #12
 8005bc0:	6820      	ldr	r0, [r4, #0]
 8005bc2:	f000 fb8c 	bl	80062de <SDMMC_GetResponse>
 8005bc6:	66a0      	str	r0, [r4, #104]	; 0x68
  hsd->SdCard.Class = (SDMMC_GetResponse(hsd->Instance, SDMMC_RESP2) >> 20U);
 8005bc8:	2104      	movs	r1, #4
 8005bca:	6820      	ldr	r0, [r4, #0]
 8005bcc:	f000 fb87 	bl	80062de <SDMMC_GetResponse>
 8005bd0:	0d00      	lsrs	r0, r0, #20
 8005bd2:	6420      	str	r0, [r4, #64]	; 0x40
  if (HAL_SD_GetCardCSD(hsd, &CSD) != HAL_OK)
 8005bd4:	a901      	add	r1, sp, #4
 8005bd6:	4620      	mov	r0, r4
 8005bd8:	f7ff feb6 	bl	8005948 <HAL_SD_GetCardCSD>
 8005bdc:	b958      	cbnz	r0, 8005bf6 <SD_InitCard+0xf6>
  errorstate = SDMMC_CmdSelDesel(hsd->Instance, (uint32_t)(((uint32_t)hsd->SdCard.RelCardAdd) << 16U));
 8005bde:	6c61      	ldr	r1, [r4, #68]	; 0x44
 8005be0:	0409      	lsls	r1, r1, #16
 8005be2:	6820      	ldr	r0, [r4, #0]
 8005be4:	f000 fcfe 	bl	80065e4 <SDMMC_CmdSelDesel>
 8005be8:	4603      	mov	r3, r0
  if (errorstate != HAL_SD_ERROR_NONE)
 8005bea:	e001      	b.n	8005bf0 <SD_InitCard+0xf0>
    return HAL_SD_ERROR_REQUEST_NOT_APPLICABLE;
 8005bec:	f04f 6380 	mov.w	r3, #67108864	; 0x4000000
}
 8005bf0:	4618      	mov	r0, r3
 8005bf2:	b00d      	add	sp, #52	; 0x34
 8005bf4:	bd30      	pop	{r4, r5, pc}
    return HAL_SD_ERROR_UNSUPPORTED_FEATURE;
 8005bf6:	f04f 5380 	mov.w	r3, #268435456	; 0x10000000
 8005bfa:	e7f9      	b.n	8005bf0 <SD_InitCard+0xf0>

08005bfc <HAL_SD_InitCard>:
{
 8005bfc:	b570      	push	{r4, r5, r6, lr}
 8005bfe:	b088      	sub	sp, #32
 8005c00:	4604      	mov	r4, r0
  Init.ClockEdge           = SDMMC_CLOCK_EDGE_RISING;
 8005c02:	2300      	movs	r3, #0
 8005c04:	9303      	str	r3, [sp, #12]
  Init.ClockPowerSave      = SDMMC_CLOCK_POWER_SAVE_DISABLE;
 8005c06:	9304      	str	r3, [sp, #16]
  Init.BusWide             = SDMMC_BUS_WIDE_1B;
 8005c08:	9305      	str	r3, [sp, #20]
  Init.HardwareFlowControl = SDMMC_HARDWARE_FLOW_CONTROL_DISABLE;
 8005c0a:	9306      	str	r3, [sp, #24]
  sdmmc_clk     = HAL_RCCEx_GetPeriphCLKFreq(RCC_PERIPHCLK_SDMMC);
 8005c0c:	f44f 3080 	mov.w	r0, #65536	; 0x10000
 8005c10:	2100      	movs	r1, #0
 8005c12:	f7fe ff11 	bl	8004a38 <HAL_RCCEx_GetPeriphCLKFreq>
  if (sdmmc_clk == 0U)
 8005c16:	b938      	cbnz	r0, 8005c28 <HAL_SD_InitCard+0x2c>
    hsd->State = HAL_SD_STATE_READY;
 8005c18:	2001      	movs	r0, #1
 8005c1a:	f884 0030 	strb.w	r0, [r4, #48]	; 0x30
    hsd->ErrorCode = SDMMC_ERROR_INVALID_PARAMETER;
 8005c1e:	f04f 6300 	mov.w	r3, #134217728	; 0x8000000
 8005c22:	6363      	str	r3, [r4, #52]	; 0x34
}
 8005c24:	b008      	add	sp, #32
 8005c26:	bd70      	pop	{r4, r5, r6, pc}
 8005c28:	4606      	mov	r6, r0
  Init.ClockDiv = sdmmc_clk / (2U * SD_INIT_FREQ);
 8005c2a:	0a05      	lsrs	r5, r0, #8
 8005c2c:	4b23      	ldr	r3, [pc, #140]	; (8005cbc <HAL_SD_InitCard+0xc0>)
 8005c2e:	fba3 3505 	umull	r3, r5, r3, r5
 8005c32:	092d      	lsrs	r5, r5, #4
 8005c34:	9507      	str	r5, [sp, #28]
  (void)SDMMC_Init(hsd->Instance, Init);
 8005c36:	ab08      	add	r3, sp, #32
 8005c38:	e913 0003 	ldmdb	r3, {r0, r1}
 8005c3c:	e88d 0003 	stmia.w	sp, {r0, r1}
 8005c40:	ab03      	add	r3, sp, #12
 8005c42:	cb0e      	ldmia	r3, {r1, r2, r3}
 8005c44:	6820      	ldr	r0, [r4, #0]
 8005c46:	f000 fb0b 	bl	8006260 <SDMMC_Init>
  (void)SDMMC_PowerState_ON(hsd->Instance);
 8005c4a:	6820      	ldr	r0, [r4, #0]
 8005c4c:	f000 fb28 	bl	80062a0 <SDMMC_PowerState_ON>
  if (Init.ClockDiv != 0U)
 8005c50:	b115      	cbz	r5, 8005c58 <HAL_SD_InitCard+0x5c>
    sdmmc_clk = sdmmc_clk / (2U * Init.ClockDiv);
 8005c52:	006d      	lsls	r5, r5, #1
 8005c54:	fbb6 f6f5 	udiv	r6, r6, r5
  if (sdmmc_clk != 0U)
 8005c58:	b95e      	cbnz	r6, 8005c72 <HAL_SD_InitCard+0x76>
  errorstate = SD_PowerON(hsd);
 8005c5a:	4620      	mov	r0, r4
 8005c5c:	f7ff fa54 	bl	8005108 <SD_PowerON>
  if (errorstate != HAL_SD_ERROR_NONE)
 8005c60:	4602      	mov	r2, r0
 8005c62:	b168      	cbz	r0, 8005c80 <HAL_SD_InitCard+0x84>
    hsd->State = HAL_SD_STATE_READY;
 8005c64:	2001      	movs	r0, #1
 8005c66:	f884 0030 	strb.w	r0, [r4, #48]	; 0x30
    hsd->ErrorCode |= errorstate;
 8005c6a:	6b63      	ldr	r3, [r4, #52]	; 0x34
 8005c6c:	4313      	orrs	r3, r2
 8005c6e:	6363      	str	r3, [r4, #52]	; 0x34
    return HAL_ERROR;
 8005c70:	e7d8      	b.n	8005c24 <HAL_SD_InitCard+0x28>
    HAL_Delay(1U + (74U * 1000U / (sdmmc_clk)));
 8005c72:	4813      	ldr	r0, [pc, #76]	; (8005cc0 <HAL_SD_InitCard+0xc4>)
 8005c74:	fbb0 f0f6 	udiv	r0, r0, r6
 8005c78:	3001      	adds	r0, #1
 8005c7a:	f7fb fd29 	bl	80016d0 <HAL_Delay>
 8005c7e:	e7ec      	b.n	8005c5a <HAL_SD_InitCard+0x5e>
  errorstate = SD_InitCard(hsd);
 8005c80:	4620      	mov	r0, r4
 8005c82:	f7ff ff3d 	bl	8005b00 <SD_InitCard>
  if (errorstate != HAL_SD_ERROR_NONE)
 8005c86:	4602      	mov	r2, r0
 8005c88:	b130      	cbz	r0, 8005c98 <HAL_SD_InitCard+0x9c>
    hsd->State = HAL_SD_STATE_READY;
 8005c8a:	2001      	movs	r0, #1
 8005c8c:	f884 0030 	strb.w	r0, [r4, #48]	; 0x30
    hsd->ErrorCode |= errorstate;
 8005c90:	6b63      	ldr	r3, [r4, #52]	; 0x34
 8005c92:	4313      	orrs	r3, r2
 8005c94:	6363      	str	r3, [r4, #52]	; 0x34
    return HAL_ERROR;
 8005c96:	e7c5      	b.n	8005c24 <HAL_SD_InitCard+0x28>
  errorstate = SDMMC_CmdBlockLength(hsd->Instance, BLOCKSIZE);
 8005c98:	f44f 7100 	mov.w	r1, #512	; 0x200
 8005c9c:	6820      	ldr	r0, [r4, #0]
 8005c9e:	f000 fbf7 	bl	8006490 <SDMMC_CmdBlockLength>
  if (errorstate != HAL_SD_ERROR_NONE)
 8005ca2:	b908      	cbnz	r0, 8005ca8 <HAL_SD_InitCard+0xac>
  return HAL_OK;
 8005ca4:	2000      	movs	r0, #0
 8005ca6:	e7bd      	b.n	8005c24 <HAL_SD_InitCard+0x28>
    __HAL_SD_CLEAR_FLAG(hsd, SDMMC_STATIC_FLAGS);
 8005ca8:	6823      	ldr	r3, [r4, #0]
 8005caa:	4906      	ldr	r1, [pc, #24]	; (8005cc4 <HAL_SD_InitCard+0xc8>)
 8005cac:	6399      	str	r1, [r3, #56]	; 0x38
    hsd->ErrorCode |= errorstate;
 8005cae:	6b63      	ldr	r3, [r4, #52]	; 0x34
 8005cb0:	4303      	orrs	r3, r0
 8005cb2:	6363      	str	r3, [r4, #52]	; 0x34
    hsd->State = HAL_SD_STATE_READY;
 8005cb4:	2001      	movs	r0, #1
 8005cb6:	f884 0030 	strb.w	r0, [r4, #48]	; 0x30
    return HAL_ERROR;
 8005cba:	e7b3      	b.n	8005c24 <HAL_SD_InitCard+0x28>
 8005cbc:	014f8b59 	.word	0x014f8b59
 8005cc0:	00012110 	.word	0x00012110
 8005cc4:	1fe00fff 	.word	0x1fe00fff

08005cc8 <HAL_SD_GetCardStatus>:
{
 8005cc8:	b530      	push	{r4, r5, lr}
 8005cca:	b091      	sub	sp, #68	; 0x44
  if (hsd->State == HAL_SD_STATE_BUSY)
 8005ccc:	f890 3030 	ldrb.w	r3, [r0, #48]	; 0x30
 8005cd0:	b2db      	uxtb	r3, r3
 8005cd2:	2b03      	cmp	r3, #3
 8005cd4:	d059      	beq.n	8005d8a <HAL_SD_GetCardStatus+0xc2>
 8005cd6:	4604      	mov	r4, r0
 8005cd8:	460d      	mov	r5, r1
  errorstate = SD_SendSDStatus(hsd, sd_status);
 8005cda:	4669      	mov	r1, sp
 8005cdc:	f7ff faba 	bl	8005254 <SD_SendSDStatus>
  if (errorstate != HAL_SD_ERROR_NONE)
 8005ce0:	b1b8      	cbz	r0, 8005d12 <HAL_SD_GetCardStatus+0x4a>
    __HAL_SD_CLEAR_FLAG(hsd, SDMMC_STATIC_FLAGS);
 8005ce2:	6823      	ldr	r3, [r4, #0]
 8005ce4:	492b      	ldr	r1, [pc, #172]	; (8005d94 <HAL_SD_GetCardStatus+0xcc>)
 8005ce6:	6399      	str	r1, [r3, #56]	; 0x38
    hsd->ErrorCode |= errorstate;
 8005ce8:	6b63      	ldr	r3, [r4, #52]	; 0x34
 8005cea:	4303      	orrs	r3, r0
 8005cec:	6363      	str	r3, [r4, #52]	; 0x34
    hsd->State = HAL_SD_STATE_READY;
 8005cee:	2501      	movs	r5, #1
 8005cf0:	f884 5030 	strb.w	r5, [r4, #48]	; 0x30
  errorstate = SDMMC_CmdBlockLength(hsd->Instance, BLOCKSIZE);
 8005cf4:	f44f 7100 	mov.w	r1, #512	; 0x200
 8005cf8:	6820      	ldr	r0, [r4, #0]
 8005cfa:	f000 fbc9 	bl	8006490 <SDMMC_CmdBlockLength>
  if (errorstate != HAL_SD_ERROR_NONE)
 8005cfe:	2800      	cmp	r0, #0
 8005d00:	d044      	beq.n	8005d8c <HAL_SD_GetCardStatus+0xc4>
    __HAL_SD_CLEAR_FLAG(hsd, SDMMC_STATIC_FLAGS);
 8005d02:	6822      	ldr	r2, [r4, #0]
 8005d04:	4923      	ldr	r1, [pc, #140]	; (8005d94 <HAL_SD_GetCardStatus+0xcc>)
 8005d06:	6391      	str	r1, [r2, #56]	; 0x38
    hsd->ErrorCode = errorstate;
 8005d08:	6360      	str	r0, [r4, #52]	; 0x34
    hsd->State = HAL_SD_STATE_READY;
 8005d0a:	2501      	movs	r5, #1
 8005d0c:	f884 5030 	strb.w	r5, [r4, #48]	; 0x30
    status = HAL_ERROR;
 8005d10:	e03c      	b.n	8005d8c <HAL_SD_GetCardStatus+0xc4>
    pStatus->DataBusWidth = (uint8_t)((sd_status[0] & 0xC0U) >> 6U);
 8005d12:	9a00      	ldr	r2, [sp, #0]
 8005d14:	f3c2 1381 	ubfx	r3, r2, #6, #2
 8005d18:	702b      	strb	r3, [r5, #0]
    pStatus->SecuredMode = (uint8_t)((sd_status[0] & 0x20U) >> 5U);
 8005d1a:	f3c2 1340 	ubfx	r3, r2, #5, #1
 8005d1e:	706b      	strb	r3, [r5, #1]
    pStatus->CardType = (uint16_t)(((sd_status[0] & 0x00FF0000U) >> 8U) | ((sd_status[0] & 0xFF000000U) >> 24U));
 8005d20:	0a13      	lsrs	r3, r2, #8
 8005d22:	f023 03ff 	bic.w	r3, r3, #255	; 0xff
 8005d26:	ea43 6312 	orr.w	r3, r3, r2, lsr #24
 8005d2a:	b29b      	uxth	r3, r3
 8005d2c:	806b      	strh	r3, [r5, #2]
    pStatus->ProtectedAreaSize = (((sd_status[1] & 0xFFU) << 24U)    | ((sd_status[1] & 0xFF00U) << 8U) |
 8005d2e:	9a01      	ldr	r2, [sp, #4]
 8005d30:	0213      	lsls	r3, r2, #8
 8005d32:	f403 037f 	and.w	r3, r3, #16711680	; 0xff0000
 8005d36:	ea43 6302 	orr.w	r3, r3, r2, lsl #24
                                  ((sd_status[1] & 0xFF0000U) >> 8U) | ((sd_status[1] & 0xFF000000U) >> 24U));
 8005d3a:	0a11      	lsrs	r1, r2, #8
 8005d3c:	f401 417f 	and.w	r1, r1, #65280	; 0xff00
    pStatus->ProtectedAreaSize = (((sd_status[1] & 0xFFU) << 24U)    | ((sd_status[1] & 0xFF00U) << 8U) |
 8005d40:	430b      	orrs	r3, r1
                                  ((sd_status[1] & 0xFF0000U) >> 8U) | ((sd_status[1] & 0xFF000000U) >> 24U));
 8005d42:	ea43 6312 	orr.w	r3, r3, r2, lsr #24
    pStatus->ProtectedAreaSize = (((sd_status[1] & 0xFFU) << 24U)    | ((sd_status[1] & 0xFF00U) << 8U) |
 8005d46:	606b      	str	r3, [r5, #4]
    pStatus->SpeedClass = (uint8_t)(sd_status[2] & 0xFFU);
 8005d48:	9b02      	ldr	r3, [sp, #8]
 8005d4a:	b2da      	uxtb	r2, r3
 8005d4c:	722a      	strb	r2, [r5, #8]
    pStatus->PerformanceMove = (uint8_t)((sd_status[2] & 0xFF00U) >> 8U);
 8005d4e:	f3c3 2207 	ubfx	r2, r3, #8, #8
 8005d52:	726a      	strb	r2, [r5, #9]
    pStatus->AllocationUnitSize = (uint8_t)((sd_status[2] & 0xF00000U) >> 20U);
 8005d54:	f3c3 5203 	ubfx	r2, r3, #20, #4
 8005d58:	72aa      	strb	r2, [r5, #10]
    pStatus->EraseSize = (uint16_t)(((sd_status[2] & 0xFF000000U) >> 16U) | (sd_status[3] & 0xFFU));
 8005d5a:	0c1b      	lsrs	r3, r3, #16
 8005d5c:	9a03      	ldr	r2, [sp, #12]
 8005d5e:	b2d1      	uxtb	r1, r2
 8005d60:	f023 03ff 	bic.w	r3, r3, #255	; 0xff
 8005d64:	430b      	orrs	r3, r1
 8005d66:	81ab      	strh	r3, [r5, #12]
    pStatus->EraseTimeout = (uint8_t)((sd_status[3] & 0xFC00U) >> 10U);
 8005d68:	f3c2 2385 	ubfx	r3, r2, #10, #6
 8005d6c:	73ab      	strb	r3, [r5, #14]
    pStatus->EraseOffset = (uint8_t)((sd_status[3] & 0x0300U) >> 8U);
 8005d6e:	f3c2 2301 	ubfx	r3, r2, #8, #2
 8005d72:	73eb      	strb	r3, [r5, #15]
    pStatus->UhsSpeedGrade = (uint8_t)((sd_status[3] & 0x00F0U) >> 4U);
 8005d74:	f3c2 1303 	ubfx	r3, r2, #4, #4
 8005d78:	742b      	strb	r3, [r5, #16]
    pStatus->UhsAllocationUnitSize = (uint8_t)(sd_status[3] & 0x000FU) ;
 8005d7a:	f002 020f 	and.w	r2, r2, #15
 8005d7e:	746a      	strb	r2, [r5, #17]
    pStatus->VideoSpeedClass = (uint8_t)((sd_status[4] & 0xFF000000U) >> 24U);
 8005d80:	f89d 3013 	ldrb.w	r3, [sp, #19]
 8005d84:	74ab      	strb	r3, [r5, #18]
  HAL_StatusTypeDef status = HAL_OK;
 8005d86:	2500      	movs	r5, #0
 8005d88:	e7b4      	b.n	8005cf4 <HAL_SD_GetCardStatus+0x2c>
    return HAL_ERROR;
 8005d8a:	2501      	movs	r5, #1
}
 8005d8c:	4628      	mov	r0, r5
 8005d8e:	b011      	add	sp, #68	; 0x44
 8005d90:	bd30      	pop	{r4, r5, pc}
 8005d92:	bf00      	nop
 8005d94:	1fe00fff 	.word	0x1fe00fff

08005d98 <HAL_SD_GetCardInfo>:
  pCardInfo->CardType     = (uint32_t)(hsd->SdCard.CardType);
 8005d98:	6b83      	ldr	r3, [r0, #56]	; 0x38
 8005d9a:	600b      	str	r3, [r1, #0]
  pCardInfo->CardVersion  = (uint32_t)(hsd->SdCard.CardVersion);
 8005d9c:	6bc3      	ldr	r3, [r0, #60]	; 0x3c
 8005d9e:	604b      	str	r3, [r1, #4]
  pCardInfo->Class        = (uint32_t)(hsd->SdCard.Class);
 8005da0:	6c03      	ldr	r3, [r0, #64]	; 0x40
 8005da2:	608b      	str	r3, [r1, #8]
  pCardInfo->RelCardAdd   = (uint32_t)(hsd->SdCard.RelCardAdd);
 8005da4:	6c43      	ldr	r3, [r0, #68]	; 0x44
 8005da6:	60cb      	str	r3, [r1, #12]
  pCardInfo->BlockNbr     = (uint32_t)(hsd->SdCard.BlockNbr);
 8005da8:	6c83      	ldr	r3, [r0, #72]	; 0x48
 8005daa:	610b      	str	r3, [r1, #16]
  pCardInfo->BlockSize    = (uint32_t)(hsd->SdCard.BlockSize);
 8005dac:	6cc3      	ldr	r3, [r0, #76]	; 0x4c
 8005dae:	614b      	str	r3, [r1, #20]
  pCardInfo->LogBlockNbr  = (uint32_t)(hsd->SdCard.LogBlockNbr);
 8005db0:	6d03      	ldr	r3, [r0, #80]	; 0x50
 8005db2:	618b      	str	r3, [r1, #24]
  pCardInfo->LogBlockSize = (uint32_t)(hsd->SdCard.LogBlockSize);
 8005db4:	6d43      	ldr	r3, [r0, #84]	; 0x54
 8005db6:	61cb      	str	r3, [r1, #28]
}
 8005db8:	2000      	movs	r0, #0
 8005dba:	4770      	bx	lr

08005dbc <HAL_SD_ConfigWideBusOperation>:
{
 8005dbc:	b530      	push	{r4, r5, lr}
 8005dbe:	b089      	sub	sp, #36	; 0x24
 8005dc0:	4604      	mov	r4, r0
 8005dc2:	460d      	mov	r5, r1
  hsd->State = HAL_SD_STATE_BUSY;
 8005dc4:	2303      	movs	r3, #3
 8005dc6:	f880 3030 	strb.w	r3, [r0, #48]	; 0x30
  if (hsd->SdCard.CardType != CARD_SECURED)
 8005dca:	6b83      	ldr	r3, [r0, #56]	; 0x38
 8005dcc:	2b03      	cmp	r3, #3
 8005dce:	d01c      	beq.n	8005e0a <HAL_SD_ConfigWideBusOperation+0x4e>
    if (WideMode == SDMMC_BUS_WIDE_8B)
 8005dd0:	f5b1 4f00 	cmp.w	r1, #32768	; 0x8000
 8005dd4:	d008      	beq.n	8005de8 <HAL_SD_ConfigWideBusOperation+0x2c>
    else if (WideMode == SDMMC_BUS_WIDE_4B)
 8005dd6:	f5b1 4f80 	cmp.w	r1, #16384	; 0x4000
 8005dda:	d00a      	beq.n	8005df2 <HAL_SD_ConfigWideBusOperation+0x36>
    else if (WideMode == SDMMC_BUS_WIDE_1B)
 8005ddc:	b179      	cbz	r1, 8005dfe <HAL_SD_ConfigWideBusOperation+0x42>
      hsd->ErrorCode |= HAL_SD_ERROR_PARAM;
 8005dde:	6b43      	ldr	r3, [r0, #52]	; 0x34
 8005de0:	f043 6300 	orr.w	r3, r3, #134217728	; 0x8000000
 8005de4:	6343      	str	r3, [r0, #52]	; 0x34
 8005de6:	e014      	b.n	8005e12 <HAL_SD_ConfigWideBusOperation+0x56>
      hsd->ErrorCode |= HAL_SD_ERROR_UNSUPPORTED_FEATURE;
 8005de8:	6b43      	ldr	r3, [r0, #52]	; 0x34
 8005dea:	f043 5380 	orr.w	r3, r3, #268435456	; 0x10000000
 8005dee:	6343      	str	r3, [r0, #52]	; 0x34
 8005df0:	e00f      	b.n	8005e12 <HAL_SD_ConfigWideBusOperation+0x56>
      errorstate = SD_WideBus_Enable(hsd);
 8005df2:	f7ff fb37 	bl	8005464 <SD_WideBus_Enable>
      hsd->ErrorCode |= errorstate;
 8005df6:	6b63      	ldr	r3, [r4, #52]	; 0x34
 8005df8:	4303      	orrs	r3, r0
 8005dfa:	6363      	str	r3, [r4, #52]	; 0x34
 8005dfc:	e009      	b.n	8005e12 <HAL_SD_ConfigWideBusOperation+0x56>
      errorstate = SD_WideBus_Disable(hsd);
 8005dfe:	f7ff fb58 	bl	80054b2 <SD_WideBus_Disable>
      hsd->ErrorCode |= errorstate;
 8005e02:	6b63      	ldr	r3, [r4, #52]	; 0x34
 8005e04:	4303      	orrs	r3, r0
 8005e06:	6363      	str	r3, [r4, #52]	; 0x34
 8005e08:	e003      	b.n	8005e12 <HAL_SD_ConfigWideBusOperation+0x56>
    hsd->ErrorCode |= HAL_SD_ERROR_UNSUPPORTED_FEATURE;
 8005e0a:	6b43      	ldr	r3, [r0, #52]	; 0x34
 8005e0c:	f043 5380 	orr.w	r3, r3, #268435456	; 0x10000000
 8005e10:	6343      	str	r3, [r0, #52]	; 0x34
  if (hsd->ErrorCode != HAL_SD_ERROR_NONE)
 8005e12:	6b63      	ldr	r3, [r4, #52]	; 0x34
 8005e14:	b1b3      	cbz	r3, 8005e44 <HAL_SD_ConfigWideBusOperation+0x88>
    __HAL_SD_CLEAR_FLAG(hsd, SDMMC_STATIC_FLAGS);
 8005e16:	6823      	ldr	r3, [r4, #0]
 8005e18:	4a3a      	ldr	r2, [pc, #232]	; (8005f04 <HAL_SD_ConfigWideBusOperation+0x148>)
 8005e1a:	639a      	str	r2, [r3, #56]	; 0x38
    status = HAL_ERROR;
 8005e1c:	2501      	movs	r5, #1
  errorstate = SDMMC_CmdBlockLength(hsd->Instance, BLOCKSIZE);
 8005e1e:	f44f 7100 	mov.w	r1, #512	; 0x200
 8005e22:	6820      	ldr	r0, [r4, #0]
 8005e24:	f000 fb34 	bl	8006490 <SDMMC_CmdBlockLength>
  if (errorstate != HAL_SD_ERROR_NONE)
 8005e28:	b130      	cbz	r0, 8005e38 <HAL_SD_ConfigWideBusOperation+0x7c>
    __HAL_SD_CLEAR_FLAG(hsd, SDMMC_STATIC_FLAGS);
 8005e2a:	6823      	ldr	r3, [r4, #0]
 8005e2c:	4935      	ldr	r1, [pc, #212]	; (8005f04 <HAL_SD_ConfigWideBusOperation+0x148>)
 8005e2e:	6399      	str	r1, [r3, #56]	; 0x38
    hsd->ErrorCode |= errorstate;
 8005e30:	6b63      	ldr	r3, [r4, #52]	; 0x34
 8005e32:	4303      	orrs	r3, r0
 8005e34:	6363      	str	r3, [r4, #52]	; 0x34
    status = HAL_ERROR;
 8005e36:	2501      	movs	r5, #1
  hsd->State = HAL_SD_STATE_READY;
 8005e38:	2301      	movs	r3, #1
 8005e3a:	f884 3030 	strb.w	r3, [r4, #48]	; 0x30
}
 8005e3e:	4628      	mov	r0, r5
 8005e40:	b009      	add	sp, #36	; 0x24
 8005e42:	bd30      	pop	{r4, r5, pc}
    sdmmc_clk     = HAL_RCCEx_GetPeriphCLKFreq(RCC_PERIPHCLK_SDMMC);
 8005e44:	f44f 3080 	mov.w	r0, #65536	; 0x10000
 8005e48:	2100      	movs	r1, #0
 8005e4a:	f7fe fdf5 	bl	8004a38 <HAL_RCCEx_GetPeriphCLKFreq>
    if (sdmmc_clk != 0U)
 8005e4e:	4602      	mov	r2, r0
 8005e50:	2800      	cmp	r0, #0
 8005e52:	d050      	beq.n	8005ef6 <HAL_SD_ConfigWideBusOperation+0x13a>
      Init.ClockEdge           = hsd->Init.ClockEdge;
 8005e54:	6863      	ldr	r3, [r4, #4]
 8005e56:	9303      	str	r3, [sp, #12]
      Init.ClockPowerSave      = hsd->Init.ClockPowerSave;
 8005e58:	68a3      	ldr	r3, [r4, #8]
 8005e5a:	9304      	str	r3, [sp, #16]
      Init.BusWide             = WideMode;
 8005e5c:	9505      	str	r5, [sp, #20]
      Init.HardwareFlowControl = hsd->Init.HardwareFlowControl;
 8005e5e:	6923      	ldr	r3, [r4, #16]
 8005e60:	9306      	str	r3, [sp, #24]
      if (hsd->Init.ClockDiv >= (sdmmc_clk / (2U * SD_NORMAL_SPEED_FREQ)))
 8005e62:	6961      	ldr	r1, [r4, #20]
 8005e64:	4b28      	ldr	r3, [pc, #160]	; (8005f08 <HAL_SD_ConfigWideBusOperation+0x14c>)
 8005e66:	fba3 0302 	umull	r0, r3, r3, r2
 8005e6a:	0e18      	lsrs	r0, r3, #24
 8005e6c:	ebb1 6f13 	cmp.w	r1, r3, lsr #24
 8005e70:	d30c      	bcc.n	8005e8c <HAL_SD_ConfigWideBusOperation+0xd0>
        Init.ClockDiv = hsd->Init.ClockDiv;
 8005e72:	9107      	str	r1, [sp, #28]
      (void)SDMMC_Init(hsd->Instance, Init);
 8005e74:	ab08      	add	r3, sp, #32
 8005e76:	e913 0003 	ldmdb	r3, {r0, r1}
 8005e7a:	e88d 0003 	stmia.w	sp, {r0, r1}
 8005e7e:	ab03      	add	r3, sp, #12
 8005e80:	cb0e      	ldmia	r3, {r1, r2, r3}
 8005e82:	6820      	ldr	r0, [r4, #0]
 8005e84:	f000 f9ec 	bl	8006260 <SDMMC_Init>
  HAL_StatusTypeDef status = HAL_OK;
 8005e88:	2500      	movs	r5, #0
 8005e8a:	e7c8      	b.n	8005e1e <HAL_SD_ConfigWideBusOperation+0x62>
      else if (hsd->SdCard.CardSpeed == CARD_ULTRA_HIGH_SPEED)
 8005e8c:	6da3      	ldr	r3, [r4, #88]	; 0x58
 8005e8e:	f5b3 7f00 	cmp.w	r3, #512	; 0x200
 8005e92:	d008      	beq.n	8005ea6 <HAL_SD_ConfigWideBusOperation+0xea>
      else if (hsd->SdCard.CardSpeed == CARD_HIGH_SPEED)
 8005e94:	f5b3 7f80 	cmp.w	r3, #256	; 0x100
 8005e98:	d007      	beq.n	8005eaa <HAL_SD_ConfigWideBusOperation+0xee>
        if (hsd->Init.ClockDiv == 0U)
 8005e9a:	bb11      	cbnz	r1, 8005ee2 <HAL_SD_ConfigWideBusOperation+0x126>
          if (sdmmc_clk > SD_NORMAL_SPEED_FREQ)
 8005e9c:	4b1b      	ldr	r3, [pc, #108]	; (8005f0c <HAL_SD_ConfigWideBusOperation+0x150>)
 8005e9e:	429a      	cmp	r2, r3
 8005ea0:	d91d      	bls.n	8005ede <HAL_SD_ConfigWideBusOperation+0x122>
            Init.ClockDiv = sdmmc_clk / (2U * SD_NORMAL_SPEED_FREQ);
 8005ea2:	9007      	str	r0, [sp, #28]
 8005ea4:	e7e6      	b.n	8005e74 <HAL_SD_ConfigWideBusOperation+0xb8>
        Init.ClockDiv = hsd->Init.ClockDiv;
 8005ea6:	9107      	str	r1, [sp, #28]
 8005ea8:	e7e4      	b.n	8005e74 <HAL_SD_ConfigWideBusOperation+0xb8>
        if (hsd->Init.ClockDiv == 0U)
 8005eaa:	b951      	cbnz	r1, 8005ec2 <HAL_SD_ConfigWideBusOperation+0x106>
          if (sdmmc_clk > SD_HIGH_SPEED_FREQ)
 8005eac:	4b18      	ldr	r3, [pc, #96]	; (8005f10 <HAL_SD_ConfigWideBusOperation+0x154>)
 8005eae:	429a      	cmp	r2, r3
 8005eb0:	d905      	bls.n	8005ebe <HAL_SD_ConfigWideBusOperation+0x102>
            Init.ClockDiv = sdmmc_clk / (2U * SD_HIGH_SPEED_FREQ);
 8005eb2:	4b15      	ldr	r3, [pc, #84]	; (8005f08 <HAL_SD_ConfigWideBusOperation+0x14c>)
 8005eb4:	fba3 2302 	umull	r2, r3, r3, r2
 8005eb8:	0e5b      	lsrs	r3, r3, #25
 8005eba:	9307      	str	r3, [sp, #28]
 8005ebc:	e7da      	b.n	8005e74 <HAL_SD_ConfigWideBusOperation+0xb8>
            Init.ClockDiv = hsd->Init.ClockDiv;
 8005ebe:	9107      	str	r1, [sp, #28]
 8005ec0:	e7d8      	b.n	8005e74 <HAL_SD_ConfigWideBusOperation+0xb8>
          if ((sdmmc_clk / (2U * hsd->Init.ClockDiv)) > SD_HIGH_SPEED_FREQ)
 8005ec2:	004b      	lsls	r3, r1, #1
 8005ec4:	fbb2 f3f3 	udiv	r3, r2, r3
 8005ec8:	4811      	ldr	r0, [pc, #68]	; (8005f10 <HAL_SD_ConfigWideBusOperation+0x154>)
 8005eca:	4283      	cmp	r3, r0
 8005ecc:	d905      	bls.n	8005eda <HAL_SD_ConfigWideBusOperation+0x11e>
            Init.ClockDiv = sdmmc_clk / (2U * SD_HIGH_SPEED_FREQ);
 8005ece:	4b0e      	ldr	r3, [pc, #56]	; (8005f08 <HAL_SD_ConfigWideBusOperation+0x14c>)
 8005ed0:	fba3 2302 	umull	r2, r3, r3, r2
 8005ed4:	0e5b      	lsrs	r3, r3, #25
 8005ed6:	9307      	str	r3, [sp, #28]
 8005ed8:	e7cc      	b.n	8005e74 <HAL_SD_ConfigWideBusOperation+0xb8>
            Init.ClockDiv = hsd->Init.ClockDiv;
 8005eda:	9107      	str	r1, [sp, #28]
 8005edc:	e7ca      	b.n	8005e74 <HAL_SD_ConfigWideBusOperation+0xb8>
            Init.ClockDiv = hsd->Init.ClockDiv;
 8005ede:	9107      	str	r1, [sp, #28]
 8005ee0:	e7c8      	b.n	8005e74 <HAL_SD_ConfigWideBusOperation+0xb8>
          if ((sdmmc_clk / (2U * hsd->Init.ClockDiv)) > SD_NORMAL_SPEED_FREQ)
 8005ee2:	004b      	lsls	r3, r1, #1
 8005ee4:	fbb2 f2f3 	udiv	r2, r2, r3
 8005ee8:	4b08      	ldr	r3, [pc, #32]	; (8005f0c <HAL_SD_ConfigWideBusOperation+0x150>)
 8005eea:	429a      	cmp	r2, r3
 8005eec:	d901      	bls.n	8005ef2 <HAL_SD_ConfigWideBusOperation+0x136>
            Init.ClockDiv = sdmmc_clk / (2U * SD_NORMAL_SPEED_FREQ);
 8005eee:	9007      	str	r0, [sp, #28]
 8005ef0:	e7c0      	b.n	8005e74 <HAL_SD_ConfigWideBusOperation+0xb8>
            Init.ClockDiv = hsd->Init.ClockDiv;
 8005ef2:	9107      	str	r1, [sp, #28]
 8005ef4:	e7be      	b.n	8005e74 <HAL_SD_ConfigWideBusOperation+0xb8>
      hsd->ErrorCode |= SDMMC_ERROR_INVALID_PARAMETER;
 8005ef6:	6b63      	ldr	r3, [r4, #52]	; 0x34
 8005ef8:	f043 6300 	orr.w	r3, r3, #134217728	; 0x8000000
 8005efc:	6363      	str	r3, [r4, #52]	; 0x34
      status = HAL_ERROR;
 8005efe:	2501      	movs	r5, #1
 8005f00:	e78d      	b.n	8005e1e <HAL_SD_ConfigWideBusOperation+0x62>
 8005f02:	bf00      	nop
 8005f04:	1fe00fff 	.word	0x1fe00fff
 8005f08:	55e63b89 	.word	0x55e63b89
 8005f0c:	017d7840 	.word	0x017d7840
 8005f10:	02faf080 	.word	0x02faf080

08005f14 <HAL_SD_GetCardState>:
{
 8005f14:	b510      	push	{r4, lr}
 8005f16:	b082      	sub	sp, #8
 8005f18:	4604      	mov	r4, r0
  uint32_t resp1 = 0;
 8005f1a:	2300      	movs	r3, #0
 8005f1c:	9301      	str	r3, [sp, #4]
  errorstate = SD_SendStatus(hsd, &resp1);
 8005f1e:	a901      	add	r1, sp, #4
 8005f20:	f7ff faee 	bl	8005500 <SD_SendStatus>
  if (errorstate != HAL_SD_ERROR_NONE)
 8005f24:	b110      	cbz	r0, 8005f2c <HAL_SD_GetCardState+0x18>
    hsd->ErrorCode |= errorstate;
 8005f26:	6b63      	ldr	r3, [r4, #52]	; 0x34
 8005f28:	4303      	orrs	r3, r0
 8005f2a:	6363      	str	r3, [r4, #52]	; 0x34
}
 8005f2c:	9801      	ldr	r0, [sp, #4]
 8005f2e:	f3c0 2043 	ubfx	r0, r0, #9, #4
 8005f32:	b002      	add	sp, #8
 8005f34:	bd10      	pop	{r4, pc}

08005f36 <HAL_SD_Init>:
{
 8005f36:	b570      	push	{r4, r5, r6, lr}
 8005f38:	b086      	sub	sp, #24
  if (hsd == NULL)
 8005f3a:	2800      	cmp	r0, #0
 8005f3c:	d054      	beq.n	8005fe8 <HAL_SD_Init+0xb2>
 8005f3e:	4604      	mov	r4, r0
  if (hsd->State == HAL_SD_STATE_RESET)
 8005f40:	f890 3030 	ldrb.w	r3, [r0, #48]	; 0x30
 8005f44:	b153      	cbz	r3, 8005f5c <HAL_SD_Init+0x26>
  hsd->State = HAL_SD_STATE_PROGRAMMING;
 8005f46:	2304      	movs	r3, #4
 8005f48:	f884 3030 	strb.w	r3, [r4, #48]	; 0x30
  if (HAL_SD_InitCard(hsd) != HAL_OK)
 8005f4c:	4620      	mov	r0, r4
 8005f4e:	f7ff fe55 	bl	8005bfc <HAL_SD_InitCard>
 8005f52:	b138      	cbz	r0, 8005f64 <HAL_SD_Init+0x2e>
    return HAL_ERROR;
 8005f54:	2501      	movs	r5, #1
}
 8005f56:	4628      	mov	r0, r5
 8005f58:	b006      	add	sp, #24
 8005f5a:	bd70      	pop	{r4, r5, r6, pc}
    hsd->Lock = HAL_UNLOCKED;
 8005f5c:	7603      	strb	r3, [r0, #24]
    HAL_SD_MspInit(hsd);
 8005f5e:	f7fb f9b1 	bl	80012c4 <HAL_SD_MspInit>
 8005f62:	e7f0      	b.n	8005f46 <HAL_SD_Init+0x10>
  if (HAL_SD_GetCardStatus(hsd, &CardStatus) != HAL_OK)
 8005f64:	a901      	add	r1, sp, #4
 8005f66:	4620      	mov	r0, r4
 8005f68:	f7ff feae 	bl	8005cc8 <HAL_SD_GetCardStatus>
 8005f6c:	2800      	cmp	r0, #0
 8005f6e:	d13d      	bne.n	8005fec <HAL_SD_Init+0xb6>
  speedgrade = CardStatus.UhsSpeedGrade;
 8005f70:	f89d 3014 	ldrb.w	r3, [sp, #20]
 8005f74:	b2da      	uxtb	r2, r3
  unitsize = CardStatus.UhsAllocationUnitSize;
 8005f76:	f89d 3015 	ldrb.w	r3, [sp, #21]
 8005f7a:	b2db      	uxtb	r3, r3
  if ((hsd->SdCard.CardType == CARD_SDHC_SDXC) && ((speedgrade != 0U) || (unitsize != 0U)))
 8005f7c:	6ba1      	ldr	r1, [r4, #56]	; 0x38
 8005f7e:	2901      	cmp	r1, #1
 8005f80:	d00b      	beq.n	8005f9a <HAL_SD_Init+0x64>
    if (hsd->SdCard.CardType == CARD_SDHC_SDXC)
 8005f82:	2901      	cmp	r1, #1
 8005f84:	d00f      	beq.n	8005fa6 <HAL_SD_Init+0x70>
      hsd->SdCard.CardSpeed  = CARD_NORMAL_SPEED;
 8005f86:	2300      	movs	r3, #0
 8005f88:	65a3      	str	r3, [r4, #88]	; 0x58
  if (HAL_SD_ConfigWideBusOperation(hsd, hsd->Init.BusWide) != HAL_OK)
 8005f8a:	68e1      	ldr	r1, [r4, #12]
 8005f8c:	4620      	mov	r0, r4
 8005f8e:	f7ff ff15 	bl	8005dbc <HAL_SD_ConfigWideBusOperation>
 8005f92:	4605      	mov	r5, r0
 8005f94:	b158      	cbz	r0, 8005fae <HAL_SD_Init+0x78>
    return HAL_ERROR;
 8005f96:	2501      	movs	r5, #1
 8005f98:	e7dd      	b.n	8005f56 <HAL_SD_Init+0x20>
  if ((hsd->SdCard.CardType == CARD_SDHC_SDXC) && ((speedgrade != 0U) || (unitsize != 0U)))
 8005f9a:	4313      	orrs	r3, r2
 8005f9c:	d0f1      	beq.n	8005f82 <HAL_SD_Init+0x4c>
    hsd->SdCard.CardSpeed = CARD_ULTRA_HIGH_SPEED;
 8005f9e:	f44f 7300 	mov.w	r3, #512	; 0x200
 8005fa2:	65a3      	str	r3, [r4, #88]	; 0x58
 8005fa4:	e7f1      	b.n	8005f8a <HAL_SD_Init+0x54>
      hsd->SdCard.CardSpeed  = CARD_HIGH_SPEED;
 8005fa6:	f44f 7380 	mov.w	r3, #256	; 0x100
 8005faa:	65a3      	str	r3, [r4, #88]	; 0x58
 8005fac:	e7ed      	b.n	8005f8a <HAL_SD_Init+0x54>
  tickstart = HAL_GetTick();
 8005fae:	f7fb fb89 	bl	80016c4 <HAL_GetTick>
 8005fb2:	4606      	mov	r6, r0
  while ((HAL_SD_GetCardState(hsd) != HAL_SD_CARD_TRANSFER))
 8005fb4:	4620      	mov	r0, r4
 8005fb6:	f7ff ffad 	bl	8005f14 <HAL_SD_GetCardState>
 8005fba:	2804      	cmp	r0, #4
 8005fbc:	d00d      	beq.n	8005fda <HAL_SD_Init+0xa4>
    if ((HAL_GetTick() - tickstart) >=  SDMMC_DATATIMEOUT)
 8005fbe:	f7fb fb81 	bl	80016c4 <HAL_GetTick>
 8005fc2:	1b80      	subs	r0, r0, r6
 8005fc4:	f1b0 3fff 	cmp.w	r0, #4294967295	; 0xffffffff
 8005fc8:	d1f4      	bne.n	8005fb4 <HAL_SD_Init+0x7e>
      hsd->ErrorCode = HAL_SD_ERROR_TIMEOUT;
 8005fca:	f04f 4300 	mov.w	r3, #2147483648	; 0x80000000
 8005fce:	6363      	str	r3, [r4, #52]	; 0x34
      hsd->State = HAL_SD_STATE_READY;
 8005fd0:	2301      	movs	r3, #1
 8005fd2:	f884 3030 	strb.w	r3, [r4, #48]	; 0x30
      return HAL_TIMEOUT;
 8005fd6:	2503      	movs	r5, #3
 8005fd8:	e7bd      	b.n	8005f56 <HAL_SD_Init+0x20>
  hsd->ErrorCode = HAL_SD_ERROR_NONE;
 8005fda:	2300      	movs	r3, #0
 8005fdc:	6363      	str	r3, [r4, #52]	; 0x34
  hsd->Context = SD_CONTEXT_NONE;
 8005fde:	62e3      	str	r3, [r4, #44]	; 0x2c
  hsd->State = HAL_SD_STATE_READY;
 8005fe0:	2301      	movs	r3, #1
 8005fe2:	f884 3030 	strb.w	r3, [r4, #48]	; 0x30
  return HAL_OK;
 8005fe6:	e7b6      	b.n	8005f56 <HAL_SD_Init+0x20>
    return HAL_ERROR;
 8005fe8:	2501      	movs	r5, #1
 8005fea:	e7b4      	b.n	8005f56 <HAL_SD_Init+0x20>
    return HAL_ERROR;
 8005fec:	2501      	movs	r5, #1
 8005fee:	e7b2      	b.n	8005f56 <HAL_SD_Init+0x20>

08005ff0 <HAL_SDEx_Read_DMADoubleBuf0CpltCallback>:
  UNUSED(hsd);

  /* NOTE : This function should not be modified, when the callback is needed,
            the HAL_SDEx_Read_DMADoubleBuf0CpltCallback can be implemented in the user file
   */
}
 8005ff0:	4770      	bx	lr

08005ff2 <HAL_SDEx_Read_DMADoubleBuf1CpltCallback>:
  UNUSED(hsd);

  /* NOTE : This function should not be modified, when the callback is needed,
            the HAL_SDEx_Read_DMADoubleBuf1CpltCallback can be implemented in the user file
   */
}
 8005ff2:	4770      	bx	lr

08005ff4 <HAL_SDEx_Write_DMADoubleBuf0CpltCallback>:
  UNUSED(hsd);

  /* NOTE : This function should not be modified, when the callback is needed,
            the HAL_SDEx_Write_DMADoubleBuf0CpltCallback can be implemented in the user file
   */
}
 8005ff4:	4770      	bx	lr

08005ff6 <HAL_SDEx_Write_DMADoubleBuf1CpltCallback>:
  UNUSED(hsd);

  /* NOTE : This function should not be modified, when the callback is needed,
            the HAL_SDEx_Write_DMADoubleBuf1CpltCallback can be implemented in the user file
   */
}
 8005ff6:	4770      	bx	lr

08005ff8 <HAL_SD_IRQHandler>:
{
 8005ff8:	b538      	push	{r3, r4, r5, lr}
 8005ffa:	4604      	mov	r4, r0
  uint32_t context = hsd->Context;
 8005ffc:	6ac5      	ldr	r5, [r0, #44]	; 0x2c
  if ((__HAL_SD_GET_FLAG(hsd, SDMMC_FLAG_RXFIFOHF) != RESET) && ((context & SD_CONTEXT_IT) != 0U))
 8005ffe:	6803      	ldr	r3, [r0, #0]
 8006000:	6b5a      	ldr	r2, [r3, #52]	; 0x34
 8006002:	f412 4f00 	tst.w	r2, #32768	; 0x8000
 8006006:	d002      	beq.n	800600e <HAL_SD_IRQHandler+0x16>
 8006008:	f015 0f08 	tst.w	r5, #8
 800600c:	d12a      	bne.n	8006064 <HAL_SD_IRQHandler+0x6c>
  else if (__HAL_SD_GET_FLAG(hsd, SDMMC_FLAG_DATAEND) != RESET)
 800600e:	6b5a      	ldr	r2, [r3, #52]	; 0x34
 8006010:	f412 7f80 	tst.w	r2, #256	; 0x100
 8006014:	d067      	beq.n	80060e6 <HAL_SD_IRQHandler+0xee>
    __HAL_SD_CLEAR_FLAG(hsd, SDMMC_FLAG_DATAEND);
 8006016:	f44f 7280 	mov.w	r2, #256	; 0x100
 800601a:	639a      	str	r2, [r3, #56]	; 0x38
    __HAL_SD_DISABLE_IT(hsd, SDMMC_IT_DATAEND  | SDMMC_IT_DCRCFAIL | SDMMC_IT_DTIMEOUT | \
 800601c:	6822      	ldr	r2, [r4, #0]
 800601e:	6bd1      	ldr	r1, [r2, #60]	; 0x3c
 8006020:	4b7e      	ldr	r3, [pc, #504]	; (800621c <HAL_SD_IRQHandler+0x224>)
 8006022:	400b      	ands	r3, r1
 8006024:	63d3      	str	r3, [r2, #60]	; 0x3c
    __HAL_SD_DISABLE_IT(hsd, SDMMC_IT_IDMABTC);
 8006026:	6822      	ldr	r2, [r4, #0]
 8006028:	6bd3      	ldr	r3, [r2, #60]	; 0x3c
 800602a:	f023 5380 	bic.w	r3, r3, #268435456	; 0x10000000
 800602e:	63d3      	str	r3, [r2, #60]	; 0x3c
    __SDMMC_CMDTRANS_DISABLE(hsd->Instance);
 8006030:	6822      	ldr	r2, [r4, #0]
 8006032:	68d3      	ldr	r3, [r2, #12]
 8006034:	f023 0340 	bic.w	r3, r3, #64	; 0x40
 8006038:	60d3      	str	r3, [r2, #12]
    if ((context & SD_CONTEXT_IT) != 0U)
 800603a:	f015 0f08 	tst.w	r5, #8
 800603e:	d025      	beq.n	800608c <HAL_SD_IRQHandler+0x94>
      if (((context & SD_CONTEXT_READ_MULTIPLE_BLOCK) != 0U) || ((context & SD_CONTEXT_WRITE_MULTIPLE_BLOCK) != 0U))
 8006040:	f015 0f22 	tst.w	r5, #34	; 0x22
 8006044:	d111      	bne.n	800606a <HAL_SD_IRQHandler+0x72>
      __HAL_SD_CLEAR_FLAG(hsd, SDMMC_STATIC_DATA_FLAGS);
 8006046:	6823      	ldr	r3, [r4, #0]
 8006048:	4a75      	ldr	r2, [pc, #468]	; (8006220 <HAL_SD_IRQHandler+0x228>)
 800604a:	639a      	str	r2, [r3, #56]	; 0x38
      hsd->State = HAL_SD_STATE_READY;
 800604c:	2301      	movs	r3, #1
 800604e:	f884 3030 	strb.w	r3, [r4, #48]	; 0x30
      hsd->Context = SD_CONTEXT_NONE;
 8006052:	2300      	movs	r3, #0
 8006054:	62e3      	str	r3, [r4, #44]	; 0x2c
      if (((context & SD_CONTEXT_READ_SINGLE_BLOCK) != 0U) || ((context & SD_CONTEXT_READ_MULTIPLE_BLOCK) != 0U))
 8006056:	f015 0f03 	tst.w	r5, #3
 800605a:	d013      	beq.n	8006084 <HAL_SD_IRQHandler+0x8c>
        HAL_SD_RxCpltCallback(hsd);
 800605c:	4620      	mov	r0, r4
 800605e:	f000 fcef 	bl	8006a40 <HAL_SD_RxCpltCallback>
 8006062:	e001      	b.n	8006068 <HAL_SD_IRQHandler+0x70>
    SD_Read_IT(hsd);
 8006064:	f7ff f8b2 	bl	80051cc <SD_Read_IT>
}
 8006068:	bd38      	pop	{r3, r4, r5, pc}
        errorstate = SDMMC_CmdStopTransfer(hsd->Instance);
 800606a:	6820      	ldr	r0, [r4, #0]
 800606c:	f000 fa8e 	bl	800658c <SDMMC_CmdStopTransfer>
        if (errorstate != HAL_SD_ERROR_NONE)
 8006070:	4603      	mov	r3, r0
 8006072:	2800      	cmp	r0, #0
 8006074:	d0e7      	beq.n	8006046 <HAL_SD_IRQHandler+0x4e>
          hsd->ErrorCode |= errorstate;
 8006076:	6b62      	ldr	r2, [r4, #52]	; 0x34
 8006078:	4313      	orrs	r3, r2
 800607a:	6363      	str	r3, [r4, #52]	; 0x34
          HAL_SD_ErrorCallback(hsd);
 800607c:	4620      	mov	r0, r4
 800607e:	f7ff fc61 	bl	8005944 <HAL_SD_ErrorCallback>
 8006082:	e7e0      	b.n	8006046 <HAL_SD_IRQHandler+0x4e>
        HAL_SD_TxCpltCallback(hsd);
 8006084:	4620      	mov	r0, r4
 8006086:	f000 fcd6 	bl	8006a36 <HAL_SD_TxCpltCallback>
 800608a:	e7ed      	b.n	8006068 <HAL_SD_IRQHandler+0x70>
    else if ((context & SD_CONTEXT_DMA) != 0U)
 800608c:	f015 0f80 	tst.w	r5, #128	; 0x80
 8006090:	d0ea      	beq.n	8006068 <HAL_SD_IRQHandler+0x70>
      hsd->Instance->DLEN = 0;
 8006092:	6822      	ldr	r2, [r4, #0]
 8006094:	2300      	movs	r3, #0
 8006096:	6293      	str	r3, [r2, #40]	; 0x28
      hsd->Instance->DCTRL = 0;
 8006098:	6822      	ldr	r2, [r4, #0]
 800609a:	62d3      	str	r3, [r2, #44]	; 0x2c
      hsd->Instance->IDMACTRL = SDMMC_DISABLE_IDMA;
 800609c:	6822      	ldr	r2, [r4, #0]
 800609e:	6513      	str	r3, [r2, #80]	; 0x50
      if (((context & SD_CONTEXT_READ_MULTIPLE_BLOCK) != 0U) || ((context & SD_CONTEXT_WRITE_MULTIPLE_BLOCK) != 0U))
 80060a0:	f015 0f22 	tst.w	r5, #34	; 0x22
 80060a4:	d10e      	bne.n	80060c4 <HAL_SD_IRQHandler+0xcc>
      hsd->State = HAL_SD_STATE_READY;
 80060a6:	2301      	movs	r3, #1
 80060a8:	f884 3030 	strb.w	r3, [r4, #48]	; 0x30
      hsd->Context = SD_CONTEXT_NONE;
 80060ac:	2300      	movs	r3, #0
 80060ae:	62e3      	str	r3, [r4, #44]	; 0x2c
      if (((context & SD_CONTEXT_WRITE_SINGLE_BLOCK) != 0U) || ((context & SD_CONTEXT_WRITE_MULTIPLE_BLOCK) != 0U))
 80060b0:	f015 0f30 	tst.w	r5, #48	; 0x30
 80060b4:	d113      	bne.n	80060de <HAL_SD_IRQHandler+0xe6>
      if (((context & SD_CONTEXT_READ_SINGLE_BLOCK) != 0U) || ((context & SD_CONTEXT_READ_MULTIPLE_BLOCK) != 0U))
 80060b6:	f015 0f03 	tst.w	r5, #3
 80060ba:	d0d5      	beq.n	8006068 <HAL_SD_IRQHandler+0x70>
        HAL_SD_RxCpltCallback(hsd);
 80060bc:	4620      	mov	r0, r4
 80060be:	f000 fcbf 	bl	8006a40 <HAL_SD_RxCpltCallback>
 80060c2:	e7d1      	b.n	8006068 <HAL_SD_IRQHandler+0x70>
        errorstate = SDMMC_CmdStopTransfer(hsd->Instance);
 80060c4:	6820      	ldr	r0, [r4, #0]
 80060c6:	f000 fa61 	bl	800658c <SDMMC_CmdStopTransfer>
        if (errorstate != HAL_SD_ERROR_NONE)
 80060ca:	4603      	mov	r3, r0
 80060cc:	2800      	cmp	r0, #0
 80060ce:	d0ea      	beq.n	80060a6 <HAL_SD_IRQHandler+0xae>
          hsd->ErrorCode |= errorstate;
 80060d0:	6b62      	ldr	r2, [r4, #52]	; 0x34
 80060d2:	4313      	orrs	r3, r2
 80060d4:	6363      	str	r3, [r4, #52]	; 0x34
          HAL_SD_ErrorCallback(hsd);
 80060d6:	4620      	mov	r0, r4
 80060d8:	f7ff fc34 	bl	8005944 <HAL_SD_ErrorCallback>
 80060dc:	e7e3      	b.n	80060a6 <HAL_SD_IRQHandler+0xae>
        HAL_SD_TxCpltCallback(hsd);
 80060de:	4620      	mov	r0, r4
 80060e0:	f000 fca9 	bl	8006a36 <HAL_SD_TxCpltCallback>
 80060e4:	e7e7      	b.n	80060b6 <HAL_SD_IRQHandler+0xbe>
  else if ((__HAL_SD_GET_FLAG(hsd, SDMMC_FLAG_TXFIFOHE) != RESET) && ((context & SD_CONTEXT_IT) != 0U))
 80060e6:	6b5a      	ldr	r2, [r3, #52]	; 0x34
 80060e8:	f412 4f80 	tst.w	r2, #16384	; 0x4000
 80060ec:	d002      	beq.n	80060f4 <HAL_SD_IRQHandler+0xfc>
 80060ee:	f015 0f08 	tst.w	r5, #8
 80060f2:	d162      	bne.n	80061ba <HAL_SD_IRQHandler+0x1c2>
  else if (__HAL_SD_GET_FLAG(hsd, SDMMC_FLAG_DCRCFAIL | SDMMC_FLAG_DTIMEOUT | SDMMC_FLAG_RXOVERR |
 80060f4:	6b5a      	ldr	r2, [r3, #52]	; 0x34
 80060f6:	f012 0f3a 	tst.w	r2, #58	; 0x3a
 80060fa:	d06b      	beq.n	80061d4 <HAL_SD_IRQHandler+0x1dc>
    if (__HAL_SD_GET_FLAG(hsd, SDMMC_IT_DCRCFAIL) != RESET)
 80060fc:	6b5a      	ldr	r2, [r3, #52]	; 0x34
 80060fe:	f012 0f02 	tst.w	r2, #2
 8006102:	d003      	beq.n	800610c <HAL_SD_IRQHandler+0x114>
      hsd->ErrorCode |= HAL_SD_ERROR_DATA_CRC_FAIL;
 8006104:	6b62      	ldr	r2, [r4, #52]	; 0x34
 8006106:	f042 0202 	orr.w	r2, r2, #2
 800610a:	6362      	str	r2, [r4, #52]	; 0x34
    if (__HAL_SD_GET_FLAG(hsd, SDMMC_IT_DTIMEOUT) != RESET)
 800610c:	6b5a      	ldr	r2, [r3, #52]	; 0x34
 800610e:	f012 0f08 	tst.w	r2, #8
 8006112:	d003      	beq.n	800611c <HAL_SD_IRQHandler+0x124>
      hsd->ErrorCode |= HAL_SD_ERROR_DATA_TIMEOUT;
 8006114:	6b62      	ldr	r2, [r4, #52]	; 0x34
 8006116:	f042 0208 	orr.w	r2, r2, #8
 800611a:	6362      	str	r2, [r4, #52]	; 0x34
    if (__HAL_SD_GET_FLAG(hsd, SDMMC_IT_RXOVERR) != RESET)
 800611c:	6b5a      	ldr	r2, [r3, #52]	; 0x34
 800611e:	f012 0f20 	tst.w	r2, #32
 8006122:	d003      	beq.n	800612c <HAL_SD_IRQHandler+0x134>
      hsd->ErrorCode |= HAL_SD_ERROR_RX_OVERRUN;
 8006124:	6b62      	ldr	r2, [r4, #52]	; 0x34
 8006126:	f042 0220 	orr.w	r2, r2, #32
 800612a:	6362      	str	r2, [r4, #52]	; 0x34
    if (__HAL_SD_GET_FLAG(hsd, SDMMC_IT_TXUNDERR) != RESET)
 800612c:	6b5a      	ldr	r2, [r3, #52]	; 0x34
 800612e:	f012 0f10 	tst.w	r2, #16
 8006132:	d003      	beq.n	800613c <HAL_SD_IRQHandler+0x144>
      hsd->ErrorCode |= HAL_SD_ERROR_TX_UNDERRUN;
 8006134:	6b62      	ldr	r2, [r4, #52]	; 0x34
 8006136:	f042 0210 	orr.w	r2, r2, #16
 800613a:	6362      	str	r2, [r4, #52]	; 0x34
    __HAL_SD_CLEAR_FLAG(hsd, SDMMC_STATIC_DATA_FLAGS);
 800613c:	4a38      	ldr	r2, [pc, #224]	; (8006220 <HAL_SD_IRQHandler+0x228>)
 800613e:	639a      	str	r2, [r3, #56]	; 0x38
    __HAL_SD_DISABLE_IT(hsd, SDMMC_IT_DATAEND | SDMMC_IT_DCRCFAIL | SDMMC_IT_DTIMEOUT | \
 8006140:	6822      	ldr	r2, [r4, #0]
 8006142:	6bd3      	ldr	r3, [r2, #60]	; 0x3c
 8006144:	f423 739d 	bic.w	r3, r3, #314	; 0x13a
 8006148:	63d3      	str	r3, [r2, #60]	; 0x3c
    __SDMMC_CMDTRANS_DISABLE(hsd->Instance);
 800614a:	6822      	ldr	r2, [r4, #0]
 800614c:	68d3      	ldr	r3, [r2, #12]
 800614e:	f023 0340 	bic.w	r3, r3, #64	; 0x40
 8006152:	60d3      	str	r3, [r2, #12]
    hsd->Instance->DCTRL |= SDMMC_DCTRL_FIFORST;
 8006154:	6822      	ldr	r2, [r4, #0]
 8006156:	6ad3      	ldr	r3, [r2, #44]	; 0x2c
 8006158:	f443 5300 	orr.w	r3, r3, #8192	; 0x2000
 800615c:	62d3      	str	r3, [r2, #44]	; 0x2c
    hsd->Instance->CMD |= SDMMC_CMD_CMDSTOP;
 800615e:	6822      	ldr	r2, [r4, #0]
 8006160:	68d3      	ldr	r3, [r2, #12]
 8006162:	f043 0380 	orr.w	r3, r3, #128	; 0x80
 8006166:	60d3      	str	r3, [r2, #12]
    hsd->ErrorCode |= SDMMC_CmdStopTransfer(hsd->Instance);
 8006168:	6820      	ldr	r0, [r4, #0]
 800616a:	f000 fa0f 	bl	800658c <SDMMC_CmdStopTransfer>
 800616e:	6b63      	ldr	r3, [r4, #52]	; 0x34
 8006170:	4303      	orrs	r3, r0
 8006172:	6363      	str	r3, [r4, #52]	; 0x34
    hsd->Instance->CMD &= ~(SDMMC_CMD_CMDSTOP);
 8006174:	6822      	ldr	r2, [r4, #0]
 8006176:	68d3      	ldr	r3, [r2, #12]
 8006178:	f023 0380 	bic.w	r3, r3, #128	; 0x80
 800617c:	60d3      	str	r3, [r2, #12]
    __HAL_SD_CLEAR_FLAG(hsd, SDMMC_FLAG_DABORT);
 800617e:	6823      	ldr	r3, [r4, #0]
 8006180:	f44f 6200 	mov.w	r2, #2048	; 0x800
 8006184:	639a      	str	r2, [r3, #56]	; 0x38
    if ((context & SD_CONTEXT_IT) != 0U)
 8006186:	f015 0f08 	tst.w	r5, #8
 800618a:	d11a      	bne.n	80061c2 <HAL_SD_IRQHandler+0x1ca>
    else if ((context & SD_CONTEXT_DMA) != 0U)
 800618c:	f015 0f80 	tst.w	r5, #128	; 0x80
 8006190:	f43f af6a 	beq.w	8006068 <HAL_SD_IRQHandler+0x70>
      if (hsd->ErrorCode != HAL_SD_ERROR_NONE)
 8006194:	6b63      	ldr	r3, [r4, #52]	; 0x34
 8006196:	2b00      	cmp	r3, #0
 8006198:	f43f af66 	beq.w	8006068 <HAL_SD_IRQHandler+0x70>
        __HAL_SD_DISABLE_IT(hsd, SDMMC_IT_IDMABTC);
 800619c:	6822      	ldr	r2, [r4, #0]
 800619e:	6bd3      	ldr	r3, [r2, #60]	; 0x3c
 80061a0:	f023 5380 	bic.w	r3, r3, #268435456	; 0x10000000
 80061a4:	63d3      	str	r3, [r2, #60]	; 0x3c
        hsd->Instance->IDMACTRL = SDMMC_DISABLE_IDMA;
 80061a6:	6823      	ldr	r3, [r4, #0]
 80061a8:	2200      	movs	r2, #0
 80061aa:	651a      	str	r2, [r3, #80]	; 0x50
        hsd->State = HAL_SD_STATE_READY;
 80061ac:	2301      	movs	r3, #1
 80061ae:	f884 3030 	strb.w	r3, [r4, #48]	; 0x30
        HAL_SD_ErrorCallback(hsd);
 80061b2:	4620      	mov	r0, r4
 80061b4:	f7ff fbc6 	bl	8005944 <HAL_SD_ErrorCallback>
 80061b8:	e756      	b.n	8006068 <HAL_SD_IRQHandler+0x70>
    SD_Write_IT(hsd);
 80061ba:	4620      	mov	r0, r4
 80061bc:	f7ff f824 	bl	8005208 <SD_Write_IT>
 80061c0:	e752      	b.n	8006068 <HAL_SD_IRQHandler+0x70>
      hsd->State = HAL_SD_STATE_READY;
 80061c2:	2301      	movs	r3, #1
 80061c4:	f884 3030 	strb.w	r3, [r4, #48]	; 0x30
      hsd->Context = SD_CONTEXT_NONE;
 80061c8:	2300      	movs	r3, #0
 80061ca:	62e3      	str	r3, [r4, #44]	; 0x2c
      HAL_SD_ErrorCallback(hsd);
 80061cc:	4620      	mov	r0, r4
 80061ce:	f7ff fbb9 	bl	8005944 <HAL_SD_ErrorCallback>
 80061d2:	e749      	b.n	8006068 <HAL_SD_IRQHandler+0x70>
  else if (__HAL_SD_GET_FLAG(hsd, SDMMC_FLAG_IDMABTC) != RESET)
 80061d4:	6b5a      	ldr	r2, [r3, #52]	; 0x34
 80061d6:	f012 5f80 	tst.w	r2, #268435456	; 0x10000000
 80061da:	f43f af45 	beq.w	8006068 <HAL_SD_IRQHandler+0x70>
    __HAL_SD_CLEAR_FLAG(hsd, SDMMC_FLAG_IDMABTC);
 80061de:	f04f 5280 	mov.w	r2, #268435456	; 0x10000000
 80061e2:	639a      	str	r2, [r3, #56]	; 0x38
    if (READ_BIT(hsd->Instance->IDMACTRL, SDMMC_IDMA_IDMABACT) == 0U)
 80061e4:	6823      	ldr	r3, [r4, #0]
 80061e6:	6d1b      	ldr	r3, [r3, #80]	; 0x50
 80061e8:	f013 0f04 	tst.w	r3, #4
 80061ec:	d10a      	bne.n	8006204 <HAL_SD_IRQHandler+0x20c>
      if ((context & SD_CONTEXT_WRITE_MULTIPLE_BLOCK) != 0U)
 80061ee:	f015 0f20 	tst.w	r5, #32
 80061f2:	d003      	beq.n	80061fc <HAL_SD_IRQHandler+0x204>
        HAL_SDEx_Write_DMADoubleBuf1CpltCallback(hsd);
 80061f4:	4620      	mov	r0, r4
 80061f6:	f7ff fefe 	bl	8005ff6 <HAL_SDEx_Write_DMADoubleBuf1CpltCallback>
 80061fa:	e735      	b.n	8006068 <HAL_SD_IRQHandler+0x70>
        HAL_SDEx_Read_DMADoubleBuf1CpltCallback(hsd);
 80061fc:	4620      	mov	r0, r4
 80061fe:	f7ff fef8 	bl	8005ff2 <HAL_SDEx_Read_DMADoubleBuf1CpltCallback>
 8006202:	e731      	b.n	8006068 <HAL_SD_IRQHandler+0x70>
      if ((context & SD_CONTEXT_WRITE_MULTIPLE_BLOCK) != 0U)
 8006204:	f015 0f20 	tst.w	r5, #32
 8006208:	d003      	beq.n	8006212 <HAL_SD_IRQHandler+0x21a>
        HAL_SDEx_Write_DMADoubleBuf0CpltCallback(hsd);
 800620a:	4620      	mov	r0, r4
 800620c:	f7ff fef2 	bl	8005ff4 <HAL_SDEx_Write_DMADoubleBuf0CpltCallback>
 8006210:	e72a      	b.n	8006068 <HAL_SD_IRQHandler+0x70>
        HAL_SDEx_Read_DMADoubleBuf0CpltCallback(hsd);
 8006212:	4620      	mov	r0, r4
 8006214:	f7ff feec 	bl	8005ff0 <HAL_SDEx_Read_DMADoubleBuf0CpltCallback>
}
 8006218:	e726      	b.n	8006068 <HAL_SD_IRQHandler+0x70>
 800621a:	bf00      	nop
 800621c:	ffff3ec5 	.word	0xffff3ec5
 8006220:	18000f3a 	.word	0x18000f3a

08006224 <SDMMC_GetCmdError>:
  */
static uint32_t SDMMC_GetCmdError(SDMMC_TypeDef *SDMMCx)
{
  /* 8 is the number of required instructions cycles for the below loop statement.
  The SDMMC_CMDTIMEOUT is expressed in ms */
  uint32_t count = SDMMC_CMDTIMEOUT * (SystemCoreClock / 8U / 1000U);
 8006224:	4b0b      	ldr	r3, [pc, #44]	; (8006254 <SDMMC_GetCmdError+0x30>)
 8006226:	681b      	ldr	r3, [r3, #0]
 8006228:	4a0b      	ldr	r2, [pc, #44]	; (8006258 <SDMMC_GetCmdError+0x34>)
 800622a:	fba2 2303 	umull	r2, r3, r2, r3
 800622e:	0a5b      	lsrs	r3, r3, #9
 8006230:	f241 3288 	movw	r2, #5000	; 0x1388
 8006234:	fb02 f303 	mul.w	r3, r2, r3

  do
  {
    if (count-- == 0U)
 8006238:	461a      	mov	r2, r3
 800623a:	3b01      	subs	r3, #1
 800623c:	b13a      	cbz	r2, 800624e <SDMMC_GetCmdError+0x2a>
    {
      return SDMMC_ERROR_TIMEOUT;
    }

  } while (!__SDMMC_GET_FLAG(SDMMCx, SDMMC_FLAG_CMDSENT));
 800623e:	6b42      	ldr	r2, [r0, #52]	; 0x34
 8006240:	f012 0f80 	tst.w	r2, #128	; 0x80
 8006244:	d0f8      	beq.n	8006238 <SDMMC_GetCmdError+0x14>

  /* Clear all the static flags */
  __SDMMC_CLEAR_FLAG(SDMMCx, SDMMC_STATIC_CMD_FLAGS);
 8006246:	4b05      	ldr	r3, [pc, #20]	; (800625c <SDMMC_GetCmdError+0x38>)
 8006248:	6383      	str	r3, [r0, #56]	; 0x38

  return SDMMC_ERROR_NONE;
 800624a:	2000      	movs	r0, #0
 800624c:	4770      	bx	lr
      return SDMMC_ERROR_TIMEOUT;
 800624e:	f04f 4000 	mov.w	r0, #2147483648	; 0x80000000
}
 8006252:	4770      	bx	lr
 8006254:	20000004 	.word	0x20000004
 8006258:	10624dd3 	.word	0x10624dd3
 800625c:	002000c5 	.word	0x002000c5

08006260 <SDMMC_Init>:
{
 8006260:	b084      	sub	sp, #16
 8006262:	f10d 0c04 	add.w	ip, sp, #4
 8006266:	e88c 000e 	stmia.w	ip, {r1, r2, r3}
  tmpreg |= (Init.ClockEdge           | \
 800626a:	460b      	mov	r3, r1
 800626c:	4313      	orrs	r3, r2
             Init.BusWide             | \
 800626e:	9a03      	ldr	r2, [sp, #12]
             Init.ClockPowerSave      | \
 8006270:	4313      	orrs	r3, r2
             Init.HardwareFlowControl | \
 8006272:	9a04      	ldr	r2, [sp, #16]
             Init.BusWide             | \
 8006274:	4313      	orrs	r3, r2
             Init.ClockDiv
 8006276:	9a05      	ldr	r2, [sp, #20]
             Init.HardwareFlowControl | \
 8006278:	4313      	orrs	r3, r2
  MODIFY_REG(SDMMCx->CLKCR, CLKCR_CLEAR_MASK, tmpreg);
 800627a:	6841      	ldr	r1, [r0, #4]
 800627c:	4a03      	ldr	r2, [pc, #12]	; (800628c <SDMMC_Init+0x2c>)
 800627e:	400a      	ands	r2, r1
 8006280:	4313      	orrs	r3, r2
 8006282:	6043      	str	r3, [r0, #4]
}
 8006284:	2000      	movs	r0, #0
 8006286:	b004      	add	sp, #16
 8006288:	4770      	bx	lr
 800628a:	bf00      	nop
 800628c:	ffc02c00 	.word	0xffc02c00

08006290 <SDMMC_ReadFIFO>:
  return (SDMMCx->FIFO);
 8006290:	f8d0 0080 	ldr.w	r0, [r0, #128]	; 0x80
}
 8006294:	4770      	bx	lr

08006296 <SDMMC_WriteFIFO>:
  SDMMCx->FIFO = *pWriteData;
 8006296:	680b      	ldr	r3, [r1, #0]
 8006298:	f8c0 3080 	str.w	r3, [r0, #128]	; 0x80
}
 800629c:	2000      	movs	r0, #0
 800629e:	4770      	bx	lr

080062a0 <SDMMC_PowerState_ON>:
  SDMMCx->POWER |= SDMMC_POWER_PWRCTRL;
 80062a0:	6803      	ldr	r3, [r0, #0]
 80062a2:	f043 0303 	orr.w	r3, r3, #3
 80062a6:	6003      	str	r3, [r0, #0]
}
 80062a8:	2000      	movs	r0, #0
 80062aa:	4770      	bx	lr

080062ac <SDMMC_GetPowerState>:
  return (SDMMCx->POWER & SDMMC_POWER_PWRCTRL);
 80062ac:	6800      	ldr	r0, [r0, #0]
}
 80062ae:	f000 0003 	and.w	r0, r0, #3
 80062b2:	4770      	bx	lr

080062b4 <SDMMC_SendCommand>:
  SDMMCx->ARG = Command->Argument;
 80062b4:	680b      	ldr	r3, [r1, #0]
 80062b6:	6083      	str	r3, [r0, #8]
  tmpreg |= (uint32_t)(Command->CmdIndex         | \
 80062b8:	684b      	ldr	r3, [r1, #4]
                       Command->Response         | \
 80062ba:	688a      	ldr	r2, [r1, #8]
  tmpreg |= (uint32_t)(Command->CmdIndex         | \
 80062bc:	4313      	orrs	r3, r2
                       Command->WaitForInterrupt | \
 80062be:	68ca      	ldr	r2, [r1, #12]
                       Command->Response         | \
 80062c0:	4313      	orrs	r3, r2
                       Command->CPSM);
 80062c2:	690a      	ldr	r2, [r1, #16]
                       Command->WaitForInterrupt | \
 80062c4:	4313      	orrs	r3, r2
  MODIFY_REG(SDMMCx->CMD, CMD_CLEAR_MASK, tmpreg);
 80062c6:	68c1      	ldr	r1, [r0, #12]
 80062c8:	4a02      	ldr	r2, [pc, #8]	; (80062d4 <SDMMC_SendCommand+0x20>)
 80062ca:	400a      	ands	r2, r1
 80062cc:	4313      	orrs	r3, r2
 80062ce:	60c3      	str	r3, [r0, #12]
}
 80062d0:	2000      	movs	r0, #0
 80062d2:	4770      	bx	lr
 80062d4:	fffee0c0 	.word	0xfffee0c0

080062d8 <SDMMC_GetCommandResponse>:
  return (uint8_t)(SDMMCx->RESPCMD);
 80062d8:	6900      	ldr	r0, [r0, #16]
}
 80062da:	b2c0      	uxtb	r0, r0
 80062dc:	4770      	bx	lr

080062de <SDMMC_GetResponse>:
  tmp = (uint32_t)(&(SDMMCx->RESP1)) + Response;
 80062de:	3014      	adds	r0, #20
  return (*(__IO uint32_t *) tmp);
 80062e0:	5840      	ldr	r0, [r0, r1]
}
 80062e2:	4770      	bx	lr

080062e4 <SDMMC_ConfigData>:
  SDMMCx->DTIMER = Data->DataTimeOut;
 80062e4:	680b      	ldr	r3, [r1, #0]
 80062e6:	6243      	str	r3, [r0, #36]	; 0x24
  SDMMCx->DLEN = Data->DataLength;
 80062e8:	684b      	ldr	r3, [r1, #4]
 80062ea:	6283      	str	r3, [r0, #40]	; 0x28
  tmpreg |= (uint32_t)(Data->DataBlockSize | \
 80062ec:	688b      	ldr	r3, [r1, #8]
                       Data->TransferDir   | \
 80062ee:	68ca      	ldr	r2, [r1, #12]
  tmpreg |= (uint32_t)(Data->DataBlockSize | \
 80062f0:	4313      	orrs	r3, r2
                       Data->TransferMode  | \
 80062f2:	690a      	ldr	r2, [r1, #16]
                       Data->TransferDir   | \
 80062f4:	4313      	orrs	r3, r2
                       Data->DPSM);
 80062f6:	694a      	ldr	r2, [r1, #20]
                       Data->TransferMode  | \
 80062f8:	4313      	orrs	r3, r2
  MODIFY_REG(SDMMCx->DCTRL, DCTRL_CLEAR_MASK, tmpreg);
 80062fa:	6ac2      	ldr	r2, [r0, #44]	; 0x2c
 80062fc:	f022 02ff 	bic.w	r2, r2, #255	; 0xff
 8006300:	4313      	orrs	r3, r2
 8006302:	62c3      	str	r3, [r0, #44]	; 0x2c
}
 8006304:	2000      	movs	r0, #0
 8006306:	4770      	bx	lr

08006308 <SDMMC_CmdGoIdleState>:
{
 8006308:	b510      	push	{r4, lr}
 800630a:	b086      	sub	sp, #24
 800630c:	4604      	mov	r4, r0
  sdmmc_cmdinit.Argument         = 0U;
 800630e:	2300      	movs	r3, #0
 8006310:	9301      	str	r3, [sp, #4]
  sdmmc_cmdinit.CmdIndex         = SDMMC_CMD_GO_IDLE_STATE;
 8006312:	9302      	str	r3, [sp, #8]
  sdmmc_cmdinit.Response         = SDMMC_RESPONSE_NO;
 8006314:	9303      	str	r3, [sp, #12]
  sdmmc_cmdinit.WaitForInterrupt = SDMMC_WAIT_NO;
 8006316:	9304      	str	r3, [sp, #16]
  sdmmc_cmdinit.CPSM             = SDMMC_CPSM_ENABLE;
 8006318:	f44f 5380 	mov.w	r3, #4096	; 0x1000
 800631c:	9305      	str	r3, [sp, #20]
  (void)SDMMC_SendCommand(SDMMCx, &sdmmc_cmdinit);
 800631e:	a901      	add	r1, sp, #4
 8006320:	f7ff ffc8 	bl	80062b4 <SDMMC_SendCommand>
  errorstate = SDMMC_GetCmdError(SDMMCx);
 8006324:	4620      	mov	r0, r4
 8006326:	f7ff ff7d 	bl	8006224 <SDMMC_GetCmdError>
}
 800632a:	b006      	add	sp, #24
 800632c:	bd10      	pop	{r4, pc}
	...

08006330 <SDMMC_GetCmdResp1>:
{
 8006330:	b570      	push	{r4, r5, r6, lr}
 8006332:	4605      	mov	r5, r0
 8006334:	460e      	mov	r6, r1
  uint32_t count = Timeout * (SystemCoreClock / 8U / 1000U);
 8006336:	4b51      	ldr	r3, [pc, #324]	; (800647c <SDMMC_GetCmdResp1+0x14c>)
 8006338:	681b      	ldr	r3, [r3, #0]
 800633a:	4951      	ldr	r1, [pc, #324]	; (8006480 <SDMMC_GetCmdResp1+0x150>)
 800633c:	fba1 1303 	umull	r1, r3, r1, r3
 8006340:	0a5b      	lsrs	r3, r3, #9
 8006342:	fb03 f202 	mul.w	r2, r3, r2
    if (count-- == 0U)
 8006346:	4613      	mov	r3, r2
 8006348:	3a01      	subs	r2, #1
 800634a:	2b00      	cmp	r3, #0
 800634c:	d05e      	beq.n	800640c <SDMMC_GetCmdResp1+0xdc>
    sta_reg = SDMMCx->STA;
 800634e:	6b6c      	ldr	r4, [r5, #52]	; 0x34
  } while (((sta_reg & (SDMMC_FLAG_CCRCFAIL | SDMMC_FLAG_CMDREND | SDMMC_FLAG_CTIMEOUT |
 8006350:	4b4c      	ldr	r3, [pc, #304]	; (8006484 <SDMMC_GetCmdResp1+0x154>)
 8006352:	4023      	ands	r3, r4
                        SDMMC_FLAG_BUSYD0END)) == 0U) || ((sta_reg & SDMMC_FLAG_CMDACT) != 0U));
 8006354:	2b00      	cmp	r3, #0
 8006356:	d0f6      	beq.n	8006346 <SDMMC_GetCmdResp1+0x16>
 8006358:	f414 5f00 	tst.w	r4, #8192	; 0x2000
 800635c:	d1f3      	bne.n	8006346 <SDMMC_GetCmdResp1+0x16>
  if (__SDMMC_GET_FLAG(SDMMCx, SDMMC_FLAG_CTIMEOUT))
 800635e:	6b6b      	ldr	r3, [r5, #52]	; 0x34
 8006360:	f013 0f04 	tst.w	r3, #4
 8006364:	d106      	bne.n	8006374 <SDMMC_GetCmdResp1+0x44>
  else if (__SDMMC_GET_FLAG(SDMMCx, SDMMC_FLAG_CCRCFAIL))
 8006366:	6b6b      	ldr	r3, [r5, #52]	; 0x34
 8006368:	f013 0f01 	tst.w	r3, #1
 800636c:	d005      	beq.n	800637a <SDMMC_GetCmdResp1+0x4a>
    __SDMMC_CLEAR_FLAG(SDMMCx, SDMMC_FLAG_CCRCFAIL);
 800636e:	2001      	movs	r0, #1
 8006370:	63a8      	str	r0, [r5, #56]	; 0x38
    return SDMMC_ERROR_CMD_CRC_FAIL;
 8006372:	e04d      	b.n	8006410 <SDMMC_GetCmdResp1+0xe0>
    __SDMMC_CLEAR_FLAG(SDMMCx, SDMMC_FLAG_CTIMEOUT);
 8006374:	2004      	movs	r0, #4
 8006376:	63a8      	str	r0, [r5, #56]	; 0x38
    return SDMMC_ERROR_CMD_RSP_TIMEOUT;
 8006378:	e04a      	b.n	8006410 <SDMMC_GetCmdResp1+0xe0>
  __SDMMC_CLEAR_FLAG(SDMMCx, SDMMC_STATIC_CMD_FLAGS);
 800637a:	4b43      	ldr	r3, [pc, #268]	; (8006488 <SDMMC_GetCmdResp1+0x158>)
 800637c:	63ab      	str	r3, [r5, #56]	; 0x38
  if (SDMMC_GetCommandResponse(SDMMCx) != SD_CMD)
 800637e:	4628      	mov	r0, r5
 8006380:	f7ff ffaa 	bl	80062d8 <SDMMC_GetCommandResponse>
 8006384:	42b0      	cmp	r0, r6
 8006386:	d001      	beq.n	800638c <SDMMC_GetCmdResp1+0x5c>
    return SDMMC_ERROR_CMD_CRC_FAIL;
 8006388:	2001      	movs	r0, #1
 800638a:	e041      	b.n	8006410 <SDMMC_GetCmdResp1+0xe0>
  response_r1 = SDMMC_GetResponse(SDMMCx, SDMMC_RESP1);
 800638c:	2100      	movs	r1, #0
 800638e:	4628      	mov	r0, r5
 8006390:	f7ff ffa5 	bl	80062de <SDMMC_GetResponse>
 8006394:	4603      	mov	r3, r0
  if ((response_r1 & SDMMC_OCR_ERRORBITS) == SDMMC_ALLZERO)
 8006396:	483d      	ldr	r0, [pc, #244]	; (800648c <SDMMC_GetCmdResp1+0x15c>)
 8006398:	4018      	ands	r0, r3
 800639a:	b3c8      	cbz	r0, 8006410 <SDMMC_GetCmdResp1+0xe0>
  else if ((response_r1 & SDMMC_OCR_ADDR_OUT_OF_RANGE) == SDMMC_OCR_ADDR_OUT_OF_RANGE)
 800639c:	2b00      	cmp	r3, #0
 800639e:	db38      	blt.n	8006412 <SDMMC_GetCmdResp1+0xe2>
  else if ((response_r1 & SDMMC_OCR_ADDR_MISALIGNED) == SDMMC_OCR_ADDR_MISALIGNED)
 80063a0:	f013 4f80 	tst.w	r3, #1073741824	; 0x40000000
 80063a4:	d138      	bne.n	8006418 <SDMMC_GetCmdResp1+0xe8>
  else if ((response_r1 & SDMMC_OCR_BLOCK_LEN_ERR) == SDMMC_OCR_BLOCK_LEN_ERR)
 80063a6:	f013 5f00 	tst.w	r3, #536870912	; 0x20000000
 80063aa:	d137      	bne.n	800641c <SDMMC_GetCmdResp1+0xec>
  else if ((response_r1 & SDMMC_OCR_ERASE_SEQ_ERR) == SDMMC_OCR_ERASE_SEQ_ERR)
 80063ac:	f013 5f80 	tst.w	r3, #268435456	; 0x10000000
 80063b0:	d136      	bne.n	8006420 <SDMMC_GetCmdResp1+0xf0>
  else if ((response_r1 & SDMMC_OCR_BAD_ERASE_PARAM) == SDMMC_OCR_BAD_ERASE_PARAM)
 80063b2:	f013 6f00 	tst.w	r3, #134217728	; 0x8000000
 80063b6:	d136      	bne.n	8006426 <SDMMC_GetCmdResp1+0xf6>
  else if ((response_r1 & SDMMC_OCR_WRITE_PROT_VIOLATION) == SDMMC_OCR_WRITE_PROT_VIOLATION)
 80063b8:	f013 6f80 	tst.w	r3, #67108864	; 0x4000000
 80063bc:	d136      	bne.n	800642c <SDMMC_GetCmdResp1+0xfc>
  else if ((response_r1 & SDMMC_OCR_LOCK_UNLOCK_FAILED) == SDMMC_OCR_LOCK_UNLOCK_FAILED)
 80063be:	f013 7f80 	tst.w	r3, #16777216	; 0x1000000
 80063c2:	d136      	bne.n	8006432 <SDMMC_GetCmdResp1+0x102>
  else if ((response_r1 & SDMMC_OCR_COM_CRC_FAILED) == SDMMC_OCR_COM_CRC_FAILED)
 80063c4:	f413 0f00 	tst.w	r3, #8388608	; 0x800000
 80063c8:	d136      	bne.n	8006438 <SDMMC_GetCmdResp1+0x108>
  else if ((response_r1 & SDMMC_OCR_ILLEGAL_CMD) == SDMMC_OCR_ILLEGAL_CMD)
 80063ca:	f413 0f80 	tst.w	r3, #4194304	; 0x400000
 80063ce:	d136      	bne.n	800643e <SDMMC_GetCmdResp1+0x10e>
  else if ((response_r1 & SDMMC_OCR_CARD_ECC_FAILED) == SDMMC_OCR_CARD_ECC_FAILED)
 80063d0:	f413 1f00 	tst.w	r3, #2097152	; 0x200000
 80063d4:	d136      	bne.n	8006444 <SDMMC_GetCmdResp1+0x114>
  else if ((response_r1 & SDMMC_OCR_CC_ERROR) == SDMMC_OCR_CC_ERROR)
 80063d6:	f413 1f80 	tst.w	r3, #1048576	; 0x100000
 80063da:	d136      	bne.n	800644a <SDMMC_GetCmdResp1+0x11a>
  else if ((response_r1 & SDMMC_OCR_STREAM_READ_UNDERRUN) == SDMMC_OCR_STREAM_READ_UNDERRUN)
 80063dc:	f413 2f80 	tst.w	r3, #262144	; 0x40000
 80063e0:	d136      	bne.n	8006450 <SDMMC_GetCmdResp1+0x120>
  else if ((response_r1 & SDMMC_OCR_STREAM_WRITE_OVERRUN) == SDMMC_OCR_STREAM_WRITE_OVERRUN)
 80063e2:	f413 3f00 	tst.w	r3, #131072	; 0x20000
 80063e6:	d136      	bne.n	8006456 <SDMMC_GetCmdResp1+0x126>
  else if ((response_r1 & SDMMC_OCR_CID_CSD_OVERWRITE) == SDMMC_OCR_CID_CSD_OVERWRITE)
 80063e8:	f413 3f80 	tst.w	r3, #65536	; 0x10000
 80063ec:	d136      	bne.n	800645c <SDMMC_GetCmdResp1+0x12c>
  else if ((response_r1 & SDMMC_OCR_WP_ERASE_SKIP) == SDMMC_OCR_WP_ERASE_SKIP)
 80063ee:	f413 4f00 	tst.w	r3, #32768	; 0x8000
 80063f2:	d136      	bne.n	8006462 <SDMMC_GetCmdResp1+0x132>
  else if ((response_r1 & SDMMC_OCR_CARD_ECC_DISABLED) == SDMMC_OCR_CARD_ECC_DISABLED)
 80063f4:	f413 4f80 	tst.w	r3, #16384	; 0x4000
 80063f8:	d136      	bne.n	8006468 <SDMMC_GetCmdResp1+0x138>
  else if ((response_r1 & SDMMC_OCR_ERASE_RESET) == SDMMC_OCR_ERASE_RESET)
 80063fa:	f413 5f00 	tst.w	r3, #8192	; 0x2000
 80063fe:	d136      	bne.n	800646e <SDMMC_GetCmdResp1+0x13e>
  else if ((response_r1 & SDMMC_OCR_AKE_SEQ_ERROR) == SDMMC_OCR_AKE_SEQ_ERROR)
 8006400:	f013 0f08 	tst.w	r3, #8
 8006404:	d036      	beq.n	8006474 <SDMMC_GetCmdResp1+0x144>
    return SDMMC_ERROR_AKE_SEQ_ERR;
 8006406:	f44f 0000 	mov.w	r0, #8388608	; 0x800000
 800640a:	e001      	b.n	8006410 <SDMMC_GetCmdResp1+0xe0>
      return SDMMC_ERROR_TIMEOUT;
 800640c:	f04f 4000 	mov.w	r0, #2147483648	; 0x80000000
}
 8006410:	bd70      	pop	{r4, r5, r6, pc}
    return SDMMC_ERROR_ADDR_OUT_OF_RANGE;
 8006412:	f04f 7000 	mov.w	r0, #33554432	; 0x2000000
 8006416:	e7fb      	b.n	8006410 <SDMMC_GetCmdResp1+0xe0>
    return SDMMC_ERROR_ADDR_MISALIGNED;
 8006418:	2040      	movs	r0, #64	; 0x40
 800641a:	e7f9      	b.n	8006410 <SDMMC_GetCmdResp1+0xe0>
    return SDMMC_ERROR_BLOCK_LEN_ERR;
 800641c:	2080      	movs	r0, #128	; 0x80
 800641e:	e7f7      	b.n	8006410 <SDMMC_GetCmdResp1+0xe0>
    return SDMMC_ERROR_ERASE_SEQ_ERR;
 8006420:	f44f 7080 	mov.w	r0, #256	; 0x100
 8006424:	e7f4      	b.n	8006410 <SDMMC_GetCmdResp1+0xe0>
    return SDMMC_ERROR_BAD_ERASE_PARAM;
 8006426:	f44f 7000 	mov.w	r0, #512	; 0x200
 800642a:	e7f1      	b.n	8006410 <SDMMC_GetCmdResp1+0xe0>
    return SDMMC_ERROR_WRITE_PROT_VIOLATION;
 800642c:	f44f 6080 	mov.w	r0, #1024	; 0x400
 8006430:	e7ee      	b.n	8006410 <SDMMC_GetCmdResp1+0xe0>
    return SDMMC_ERROR_LOCK_UNLOCK_FAILED;
 8006432:	f44f 6000 	mov.w	r0, #2048	; 0x800
 8006436:	e7eb      	b.n	8006410 <SDMMC_GetCmdResp1+0xe0>
    return SDMMC_ERROR_COM_CRC_FAILED;
 8006438:	f44f 5080 	mov.w	r0, #4096	; 0x1000
 800643c:	e7e8      	b.n	8006410 <SDMMC_GetCmdResp1+0xe0>
    return SDMMC_ERROR_ILLEGAL_CMD;
 800643e:	f44f 5000 	mov.w	r0, #8192	; 0x2000
 8006442:	e7e5      	b.n	8006410 <SDMMC_GetCmdResp1+0xe0>
    return SDMMC_ERROR_CARD_ECC_FAILED;
 8006444:	f44f 4080 	mov.w	r0, #16384	; 0x4000
 8006448:	e7e2      	b.n	8006410 <SDMMC_GetCmdResp1+0xe0>
    return SDMMC_ERROR_CC_ERR;
 800644a:	f44f 4000 	mov.w	r0, #32768	; 0x8000
 800644e:	e7df      	b.n	8006410 <SDMMC_GetCmdResp1+0xe0>
    return SDMMC_ERROR_STREAM_READ_UNDERRUN;
 8006450:	f44f 3000 	mov.w	r0, #131072	; 0x20000
 8006454:	e7dc      	b.n	8006410 <SDMMC_GetCmdResp1+0xe0>
    return SDMMC_ERROR_STREAM_WRITE_OVERRUN;
 8006456:	f44f 2080 	mov.w	r0, #262144	; 0x40000
 800645a:	e7d9      	b.n	8006410 <SDMMC_GetCmdResp1+0xe0>
    return SDMMC_ERROR_CID_CSD_OVERWRITE;
 800645c:	f44f 2000 	mov.w	r0, #524288	; 0x80000
 8006460:	e7d6      	b.n	8006410 <SDMMC_GetCmdResp1+0xe0>
    return SDMMC_ERROR_WP_ERASE_SKIP;
 8006462:	f44f 1080 	mov.w	r0, #1048576	; 0x100000
 8006466:	e7d3      	b.n	8006410 <SDMMC_GetCmdResp1+0xe0>
    return SDMMC_ERROR_CARD_ECC_DISABLED;
 8006468:	f44f 1000 	mov.w	r0, #2097152	; 0x200000
 800646c:	e7d0      	b.n	8006410 <SDMMC_GetCmdResp1+0xe0>
    return SDMMC_ERROR_ERASE_RESET;
 800646e:	f44f 0080 	mov.w	r0, #4194304	; 0x400000
 8006472:	e7cd      	b.n	8006410 <SDMMC_GetCmdResp1+0xe0>
    return SDMMC_ERROR_GENERAL_UNKNOWN_ERR;
 8006474:	f44f 3080 	mov.w	r0, #65536	; 0x10000
 8006478:	e7ca      	b.n	8006410 <SDMMC_GetCmdResp1+0xe0>
 800647a:	bf00      	nop
 800647c:	20000004 	.word	0x20000004
 8006480:	10624dd3 	.word	0x10624dd3
 8006484:	00200045 	.word	0x00200045
 8006488:	002000c5 	.word	0x002000c5
 800648c:	fdffe008 	.word	0xfdffe008

08006490 <SDMMC_CmdBlockLength>:
{
 8006490:	b530      	push	{r4, r5, lr}
 8006492:	b087      	sub	sp, #28
 8006494:	4604      	mov	r4, r0
  sdmmc_cmdinit.Argument         = (uint32_t)BlockSize;
 8006496:	9101      	str	r1, [sp, #4]
  sdmmc_cmdinit.CmdIndex         = SDMMC_CMD_SET_BLOCKLEN;
 8006498:	2510      	movs	r5, #16
 800649a:	9502      	str	r5, [sp, #8]
  sdmmc_cmdinit.Response         = SDMMC_RESPONSE_SHORT;
 800649c:	f44f 7380 	mov.w	r3, #256	; 0x100
 80064a0:	9303      	str	r3, [sp, #12]
  sdmmc_cmdinit.WaitForInterrupt = SDMMC_WAIT_NO;
 80064a2:	2300      	movs	r3, #0
 80064a4:	9304      	str	r3, [sp, #16]
  sdmmc_cmdinit.CPSM             = SDMMC_CPSM_ENABLE;
 80064a6:	f44f 5380 	mov.w	r3, #4096	; 0x1000
 80064aa:	9305      	str	r3, [sp, #20]
  (void)SDMMC_SendCommand(SDMMCx, &sdmmc_cmdinit);
 80064ac:	a901      	add	r1, sp, #4
 80064ae:	f7ff ff01 	bl	80062b4 <SDMMC_SendCommand>
  errorstate = SDMMC_GetCmdResp1(SDMMCx, SDMMC_CMD_SET_BLOCKLEN, SDMMC_CMDTIMEOUT);
 80064b2:	f241 3288 	movw	r2, #5000	; 0x1388
 80064b6:	4629      	mov	r1, r5
 80064b8:	4620      	mov	r0, r4
 80064ba:	f7ff ff39 	bl	8006330 <SDMMC_GetCmdResp1>
}
 80064be:	b007      	add	sp, #28
 80064c0:	bd30      	pop	{r4, r5, pc}

080064c2 <SDMMC_CmdReadSingleBlock>:
{
 80064c2:	b530      	push	{r4, r5, lr}
 80064c4:	b087      	sub	sp, #28
 80064c6:	4604      	mov	r4, r0
  sdmmc_cmdinit.Argument         = (uint32_t)ReadAdd;
 80064c8:	9101      	str	r1, [sp, #4]
  sdmmc_cmdinit.CmdIndex         = SDMMC_CMD_READ_SINGLE_BLOCK;
 80064ca:	2511      	movs	r5, #17
 80064cc:	9502      	str	r5, [sp, #8]
  sdmmc_cmdinit.Response         = SDMMC_RESPONSE_SHORT;
 80064ce:	f44f 7380 	mov.w	r3, #256	; 0x100
 80064d2:	9303      	str	r3, [sp, #12]
  sdmmc_cmdinit.WaitForInterrupt = SDMMC_WAIT_NO;
 80064d4:	2300      	movs	r3, #0
 80064d6:	9304      	str	r3, [sp, #16]
  sdmmc_cmdinit.CPSM             = SDMMC_CPSM_ENABLE;
 80064d8:	f44f 5380 	mov.w	r3, #4096	; 0x1000
 80064dc:	9305      	str	r3, [sp, #20]
  (void)SDMMC_SendCommand(SDMMCx, &sdmmc_cmdinit);
 80064de:	a901      	add	r1, sp, #4
 80064e0:	f7ff fee8 	bl	80062b4 <SDMMC_SendCommand>
  errorstate = SDMMC_GetCmdResp1(SDMMCx, SDMMC_CMD_READ_SINGLE_BLOCK, SDMMC_CMDTIMEOUT);
 80064e4:	f241 3288 	movw	r2, #5000	; 0x1388
 80064e8:	4629      	mov	r1, r5
 80064ea:	4620      	mov	r0, r4
 80064ec:	f7ff ff20 	bl	8006330 <SDMMC_GetCmdResp1>
}
 80064f0:	b007      	add	sp, #28
 80064f2:	bd30      	pop	{r4, r5, pc}

080064f4 <SDMMC_CmdReadMultiBlock>:
{
 80064f4:	b530      	push	{r4, r5, lr}
 80064f6:	b087      	sub	sp, #28
 80064f8:	4604      	mov	r4, r0
  sdmmc_cmdinit.Argument         = (uint32_t)ReadAdd;
 80064fa:	9101      	str	r1, [sp, #4]
  sdmmc_cmdinit.CmdIndex         = SDMMC_CMD_READ_MULT_BLOCK;
 80064fc:	2512      	movs	r5, #18
 80064fe:	9502      	str	r5, [sp, #8]
  sdmmc_cmdinit.Response         = SDMMC_RESPONSE_SHORT;
 8006500:	f44f 7380 	mov.w	r3, #256	; 0x100
 8006504:	9303      	str	r3, [sp, #12]
  sdmmc_cmdinit.WaitForInterrupt = SDMMC_WAIT_NO;
 8006506:	2300      	movs	r3, #0
 8006508:	9304      	str	r3, [sp, #16]
  sdmmc_cmdinit.CPSM             = SDMMC_CPSM_ENABLE;
 800650a:	f44f 5380 	mov.w	r3, #4096	; 0x1000
 800650e:	9305      	str	r3, [sp, #20]
  (void)SDMMC_SendCommand(SDMMCx, &sdmmc_cmdinit);
 8006510:	a901      	add	r1, sp, #4
 8006512:	f7ff fecf 	bl	80062b4 <SDMMC_SendCommand>
  errorstate = SDMMC_GetCmdResp1(SDMMCx, SDMMC_CMD_READ_MULT_BLOCK, SDMMC_CMDTIMEOUT);
 8006516:	f241 3288 	movw	r2, #5000	; 0x1388
 800651a:	4629      	mov	r1, r5
 800651c:	4620      	mov	r0, r4
 800651e:	f7ff ff07 	bl	8006330 <SDMMC_GetCmdResp1>
}
 8006522:	b007      	add	sp, #28
 8006524:	bd30      	pop	{r4, r5, pc}

08006526 <SDMMC_CmdWriteSingleBlock>:
{
 8006526:	b530      	push	{r4, r5, lr}
 8006528:	b087      	sub	sp, #28
 800652a:	4604      	mov	r4, r0
  sdmmc_cmdinit.Argument         = (uint32_t)WriteAdd;
 800652c:	9101      	str	r1, [sp, #4]
  sdmmc_cmdinit.CmdIndex         = SDMMC_CMD_WRITE_SINGLE_BLOCK;
 800652e:	2518      	movs	r5, #24
 8006530:	9502      	str	r5, [sp, #8]
  sdmmc_cmdinit.Response         = SDMMC_RESPONSE_SHORT;
 8006532:	f44f 7380 	mov.w	r3, #256	; 0x100
 8006536:	9303      	str	r3, [sp, #12]
  sdmmc_cmdinit.WaitForInterrupt = SDMMC_WAIT_NO;
 8006538:	2300      	movs	r3, #0
 800653a:	9304      	str	r3, [sp, #16]
  sdmmc_cmdinit.CPSM             = SDMMC_CPSM_ENABLE;
 800653c:	f44f 5380 	mov.w	r3, #4096	; 0x1000
 8006540:	9305      	str	r3, [sp, #20]
  (void)SDMMC_SendCommand(SDMMCx, &sdmmc_cmdinit);
 8006542:	a901      	add	r1, sp, #4
 8006544:	f7ff feb6 	bl	80062b4 <SDMMC_SendCommand>
  errorstate = SDMMC_GetCmdResp1(SDMMCx, SDMMC_CMD_WRITE_SINGLE_BLOCK, SDMMC_CMDTIMEOUT);
 8006548:	f241 3288 	movw	r2, #5000	; 0x1388
 800654c:	4629      	mov	r1, r5
 800654e:	4620      	mov	r0, r4
 8006550:	f7ff feee 	bl	8006330 <SDMMC_GetCmdResp1>
}
 8006554:	b007      	add	sp, #28
 8006556:	bd30      	pop	{r4, r5, pc}

08006558 <SDMMC_CmdWriteMultiBlock>:
{
 8006558:	b530      	push	{r4, r5, lr}
 800655a:	b087      	sub	sp, #28
 800655c:	4604      	mov	r4, r0
  sdmmc_cmdinit.Argument         = (uint32_t)WriteAdd;
 800655e:	9101      	str	r1, [sp, #4]
  sdmmc_cmdinit.CmdIndex         = SDMMC_CMD_WRITE_MULT_BLOCK;
 8006560:	2519      	movs	r5, #25
 8006562:	9502      	str	r5, [sp, #8]
  sdmmc_cmdinit.Response         = SDMMC_RESPONSE_SHORT;
 8006564:	f44f 7380 	mov.w	r3, #256	; 0x100
 8006568:	9303      	str	r3, [sp, #12]
  sdmmc_cmdinit.WaitForInterrupt = SDMMC_WAIT_NO;
 800656a:	2300      	movs	r3, #0
 800656c:	9304      	str	r3, [sp, #16]
  sdmmc_cmdinit.CPSM             = SDMMC_CPSM_ENABLE;
 800656e:	f44f 5380 	mov.w	r3, #4096	; 0x1000
 8006572:	9305      	str	r3, [sp, #20]
  (void)SDMMC_SendCommand(SDMMCx, &sdmmc_cmdinit);
 8006574:	a901      	add	r1, sp, #4
 8006576:	f7ff fe9d 	bl	80062b4 <SDMMC_SendCommand>
  errorstate = SDMMC_GetCmdResp1(SDMMCx, SDMMC_CMD_WRITE_MULT_BLOCK, SDMMC_CMDTIMEOUT);
 800657a:	f241 3288 	movw	r2, #5000	; 0x1388
 800657e:	4629      	mov	r1, r5
 8006580:	4620      	mov	r0, r4
 8006582:	f7ff fed5 	bl	8006330 <SDMMC_GetCmdResp1>
}
 8006586:	b007      	add	sp, #28
 8006588:	bd30      	pop	{r4, r5, pc}
	...

0800658c <SDMMC_CmdStopTransfer>:
{
 800658c:	b530      	push	{r4, r5, lr}
 800658e:	b087      	sub	sp, #28
 8006590:	4604      	mov	r4, r0
  sdmmc_cmdinit.Argument         = 0U;
 8006592:	2300      	movs	r3, #0
 8006594:	9301      	str	r3, [sp, #4]
  sdmmc_cmdinit.CmdIndex         = SDMMC_CMD_STOP_TRANSMISSION;
 8006596:	250c      	movs	r5, #12
 8006598:	9502      	str	r5, [sp, #8]
  sdmmc_cmdinit.Response         = SDMMC_RESPONSE_SHORT;
 800659a:	f44f 7280 	mov.w	r2, #256	; 0x100
 800659e:	9203      	str	r2, [sp, #12]
  sdmmc_cmdinit.WaitForInterrupt = SDMMC_WAIT_NO;
 80065a0:	9304      	str	r3, [sp, #16]
  sdmmc_cmdinit.CPSM             = SDMMC_CPSM_ENABLE;
 80065a2:	f44f 5380 	mov.w	r3, #4096	; 0x1000
 80065a6:	9305      	str	r3, [sp, #20]
  __SDMMC_CMDSTOP_ENABLE(SDMMCx);
 80065a8:	68c3      	ldr	r3, [r0, #12]
 80065aa:	f043 0380 	orr.w	r3, r3, #128	; 0x80
 80065ae:	60c3      	str	r3, [r0, #12]
  __SDMMC_CMDTRANS_DISABLE(SDMMCx);
 80065b0:	68c3      	ldr	r3, [r0, #12]
 80065b2:	f023 0340 	bic.w	r3, r3, #64	; 0x40
 80065b6:	60c3      	str	r3, [r0, #12]
  (void)SDMMC_SendCommand(SDMMCx, &sdmmc_cmdinit);
 80065b8:	a901      	add	r1, sp, #4
 80065ba:	f7ff fe7b 	bl	80062b4 <SDMMC_SendCommand>
  errorstate = SDMMC_GetCmdResp1(SDMMCx, SDMMC_CMD_STOP_TRANSMISSION, SDMMC_STOPTRANSFERTIMEOUT);
 80065be:	4a08      	ldr	r2, [pc, #32]	; (80065e0 <SDMMC_CmdStopTransfer+0x54>)
 80065c0:	4629      	mov	r1, r5
 80065c2:	4620      	mov	r0, r4
 80065c4:	f7ff feb4 	bl	8006330 <SDMMC_GetCmdResp1>
  __SDMMC_CMDSTOP_DISABLE(SDMMCx);
 80065c8:	68e3      	ldr	r3, [r4, #12]
 80065ca:	f023 0380 	bic.w	r3, r3, #128	; 0x80
 80065ce:	60e3      	str	r3, [r4, #12]
  if (errorstate == SDMMC_ERROR_ADDR_OUT_OF_RANGE)
 80065d0:	f1b0 7f00 	cmp.w	r0, #33554432	; 0x2000000
 80065d4:	d001      	beq.n	80065da <SDMMC_CmdStopTransfer+0x4e>
}
 80065d6:	b007      	add	sp, #28
 80065d8:	bd30      	pop	{r4, r5, pc}
    errorstate = SDMMC_ERROR_NONE;
 80065da:	2000      	movs	r0, #0
  return errorstate;
 80065dc:	e7fb      	b.n	80065d6 <SDMMC_CmdStopTransfer+0x4a>
 80065de:	bf00      	nop
 80065e0:	05f5e100 	.word	0x05f5e100

080065e4 <SDMMC_CmdSelDesel>:
{
 80065e4:	b530      	push	{r4, r5, lr}
 80065e6:	b087      	sub	sp, #28
 80065e8:	4604      	mov	r4, r0
  sdmmc_cmdinit.Argument         = (uint32_t)Addr;
 80065ea:	9101      	str	r1, [sp, #4]
  sdmmc_cmdinit.CmdIndex         = SDMMC_CMD_SEL_DESEL_CARD;
 80065ec:	2507      	movs	r5, #7
 80065ee:	9502      	str	r5, [sp, #8]
  sdmmc_cmdinit.Response         = SDMMC_RESPONSE_SHORT;
 80065f0:	f44f 7380 	mov.w	r3, #256	; 0x100
 80065f4:	9303      	str	r3, [sp, #12]
  sdmmc_cmdinit.WaitForInterrupt = SDMMC_WAIT_NO;
 80065f6:	2300      	movs	r3, #0
 80065f8:	9304      	str	r3, [sp, #16]
  sdmmc_cmdinit.CPSM             = SDMMC_CPSM_ENABLE;
 80065fa:	f44f 5380 	mov.w	r3, #4096	; 0x1000
 80065fe:	9305      	str	r3, [sp, #20]
  (void)SDMMC_SendCommand(SDMMCx, &sdmmc_cmdinit);
 8006600:	a901      	add	r1, sp, #4
 8006602:	f7ff fe57 	bl	80062b4 <SDMMC_SendCommand>
  errorstate = SDMMC_GetCmdResp1(SDMMCx, SDMMC_CMD_SEL_DESEL_CARD, SDMMC_CMDTIMEOUT);
 8006606:	f241 3288 	movw	r2, #5000	; 0x1388
 800660a:	4629      	mov	r1, r5
 800660c:	4620      	mov	r0, r4
 800660e:	f7ff fe8f 	bl	8006330 <SDMMC_GetCmdResp1>
}
 8006612:	b007      	add	sp, #28
 8006614:	bd30      	pop	{r4, r5, pc}

08006616 <SDMMC_CmdAppCommand>:
{
 8006616:	b530      	push	{r4, r5, lr}
 8006618:	b087      	sub	sp, #28
 800661a:	4604      	mov	r4, r0
  sdmmc_cmdinit.Argument         = (uint32_t)Argument;
 800661c:	9101      	str	r1, [sp, #4]
  sdmmc_cmdinit.CmdIndex         = SDMMC_CMD_APP_CMD;
 800661e:	2537      	movs	r5, #55	; 0x37
 8006620:	9502      	str	r5, [sp, #8]
  sdmmc_cmdinit.Response         = SDMMC_RESPONSE_SHORT;
 8006622:	f44f 7380 	mov.w	r3, #256	; 0x100
 8006626:	9303      	str	r3, [sp, #12]
  sdmmc_cmdinit.WaitForInterrupt = SDMMC_WAIT_NO;
 8006628:	2300      	movs	r3, #0
 800662a:	9304      	str	r3, [sp, #16]
  sdmmc_cmdinit.CPSM             = SDMMC_CPSM_ENABLE;
 800662c:	f44f 5380 	mov.w	r3, #4096	; 0x1000
 8006630:	9305      	str	r3, [sp, #20]
  (void)SDMMC_SendCommand(SDMMCx, &sdmmc_cmdinit);
 8006632:	a901      	add	r1, sp, #4
 8006634:	f7ff fe3e 	bl	80062b4 <SDMMC_SendCommand>
  errorstate = SDMMC_GetCmdResp1(SDMMCx, SDMMC_CMD_APP_CMD, SDMMC_CMDTIMEOUT);
 8006638:	f241 3288 	movw	r2, #5000	; 0x1388
 800663c:	4629      	mov	r1, r5
 800663e:	4620      	mov	r0, r4
 8006640:	f7ff fe76 	bl	8006330 <SDMMC_GetCmdResp1>
}
 8006644:	b007      	add	sp, #28
 8006646:	bd30      	pop	{r4, r5, pc}

08006648 <SDMMC_CmdBusWidth>:
{
 8006648:	b530      	push	{r4, r5, lr}
 800664a:	b087      	sub	sp, #28
 800664c:	4604      	mov	r4, r0
  sdmmc_cmdinit.Argument         = (uint32_t)BusWidth;
 800664e:	9101      	str	r1, [sp, #4]
  sdmmc_cmdinit.CmdIndex         = SDMMC_CMD_APP_SD_SET_BUSWIDTH;
 8006650:	2506      	movs	r5, #6
 8006652:	9502      	str	r5, [sp, #8]
  sdmmc_cmdinit.Response         = SDMMC_RESPONSE_SHORT;
 8006654:	f44f 7380 	mov.w	r3, #256	; 0x100
 8006658:	9303      	str	r3, [sp, #12]
  sdmmc_cmdinit.WaitForInterrupt = SDMMC_WAIT_NO;
 800665a:	2300      	movs	r3, #0
 800665c:	9304      	str	r3, [sp, #16]
  sdmmc_cmdinit.CPSM             = SDMMC_CPSM_ENABLE;
 800665e:	f44f 5380 	mov.w	r3, #4096	; 0x1000
 8006662:	9305      	str	r3, [sp, #20]
  (void)SDMMC_SendCommand(SDMMCx, &sdmmc_cmdinit);
 8006664:	a901      	add	r1, sp, #4
 8006666:	f7ff fe25 	bl	80062b4 <SDMMC_SendCommand>
  errorstate = SDMMC_GetCmdResp1(SDMMCx, SDMMC_CMD_APP_SD_SET_BUSWIDTH, SDMMC_CMDTIMEOUT);
 800666a:	f241 3288 	movw	r2, #5000	; 0x1388
 800666e:	4629      	mov	r1, r5
 8006670:	4620      	mov	r0, r4
 8006672:	f7ff fe5d 	bl	8006330 <SDMMC_GetCmdResp1>
}
 8006676:	b007      	add	sp, #28
 8006678:	bd30      	pop	{r4, r5, pc}

0800667a <SDMMC_CmdSendSCR>:
{
 800667a:	b530      	push	{r4, r5, lr}
 800667c:	b087      	sub	sp, #28
 800667e:	4604      	mov	r4, r0
  sdmmc_cmdinit.Argument         = 0U;
 8006680:	2300      	movs	r3, #0
 8006682:	9301      	str	r3, [sp, #4]
  sdmmc_cmdinit.CmdIndex         = SDMMC_CMD_SD_APP_SEND_SCR;
 8006684:	2533      	movs	r5, #51	; 0x33
 8006686:	9502      	str	r5, [sp, #8]
  sdmmc_cmdinit.Response         = SDMMC_RESPONSE_SHORT;
 8006688:	f44f 7280 	mov.w	r2, #256	; 0x100
 800668c:	9203      	str	r2, [sp, #12]
  sdmmc_cmdinit.WaitForInterrupt = SDMMC_WAIT_NO;
 800668e:	9304      	str	r3, [sp, #16]
  sdmmc_cmdinit.CPSM             = SDMMC_CPSM_ENABLE;
 8006690:	f44f 5380 	mov.w	r3, #4096	; 0x1000
 8006694:	9305      	str	r3, [sp, #20]
  (void)SDMMC_SendCommand(SDMMCx, &sdmmc_cmdinit);
 8006696:	a901      	add	r1, sp, #4
 8006698:	f7ff fe0c 	bl	80062b4 <SDMMC_SendCommand>
  errorstate = SDMMC_GetCmdResp1(SDMMCx, SDMMC_CMD_SD_APP_SEND_SCR, SDMMC_CMDTIMEOUT);
 800669c:	f241 3288 	movw	r2, #5000	; 0x1388
 80066a0:	4629      	mov	r1, r5
 80066a2:	4620      	mov	r0, r4
 80066a4:	f7ff fe44 	bl	8006330 <SDMMC_GetCmdResp1>
}
 80066a8:	b007      	add	sp, #28
 80066aa:	bd30      	pop	{r4, r5, pc}

080066ac <SDMMC_CmdSendStatus>:
{
 80066ac:	b530      	push	{r4, r5, lr}
 80066ae:	b087      	sub	sp, #28
 80066b0:	4604      	mov	r4, r0
  sdmmc_cmdinit.Argument         = Argument;
 80066b2:	9101      	str	r1, [sp, #4]
  sdmmc_cmdinit.CmdIndex         = SDMMC_CMD_SEND_STATUS;
 80066b4:	250d      	movs	r5, #13
 80066b6:	9502      	str	r5, [sp, #8]
  sdmmc_cmdinit.Response         = SDMMC_RESPONSE_SHORT;
 80066b8:	f44f 7380 	mov.w	r3, #256	; 0x100
 80066bc:	9303      	str	r3, [sp, #12]
  sdmmc_cmdinit.WaitForInterrupt = SDMMC_WAIT_NO;
 80066be:	2300      	movs	r3, #0
 80066c0:	9304      	str	r3, [sp, #16]
  sdmmc_cmdinit.CPSM             = SDMMC_CPSM_ENABLE;
 80066c2:	f44f 5380 	mov.w	r3, #4096	; 0x1000
 80066c6:	9305      	str	r3, [sp, #20]
  (void)SDMMC_SendCommand(SDMMCx, &sdmmc_cmdinit);
 80066c8:	a901      	add	r1, sp, #4
 80066ca:	f7ff fdf3 	bl	80062b4 <SDMMC_SendCommand>
  errorstate = SDMMC_GetCmdResp1(SDMMCx, SDMMC_CMD_SEND_STATUS, SDMMC_CMDTIMEOUT);
 80066ce:	f241 3288 	movw	r2, #5000	; 0x1388
 80066d2:	4629      	mov	r1, r5
 80066d4:	4620      	mov	r0, r4
 80066d6:	f7ff fe2b 	bl	8006330 <SDMMC_GetCmdResp1>
}
 80066da:	b007      	add	sp, #28
 80066dc:	bd30      	pop	{r4, r5, pc}

080066de <SDMMC_CmdStatusRegister>:
{
 80066de:	b530      	push	{r4, r5, lr}
 80066e0:	b087      	sub	sp, #28
 80066e2:	4604      	mov	r4, r0
  sdmmc_cmdinit.Argument         = 0U;
 80066e4:	2300      	movs	r3, #0
 80066e6:	9301      	str	r3, [sp, #4]
  sdmmc_cmdinit.CmdIndex         = SDMMC_CMD_SD_APP_STATUS;
 80066e8:	250d      	movs	r5, #13
 80066ea:	9502      	str	r5, [sp, #8]
  sdmmc_cmdinit.Response         = SDMMC_RESPONSE_SHORT;
 80066ec:	f44f 7280 	mov.w	r2, #256	; 0x100
 80066f0:	9203      	str	r2, [sp, #12]
  sdmmc_cmdinit.WaitForInterrupt = SDMMC_WAIT_NO;
 80066f2:	9304      	str	r3, [sp, #16]
  sdmmc_cmdinit.CPSM             = SDMMC_CPSM_ENABLE;
 80066f4:	f44f 5380 	mov.w	r3, #4096	; 0x1000
 80066f8:	9305      	str	r3, [sp, #20]
  (void)SDMMC_SendCommand(SDMMCx, &sdmmc_cmdinit);
 80066fa:	a901      	add	r1, sp, #4
 80066fc:	f7ff fdda 	bl	80062b4 <SDMMC_SendCommand>
  errorstate = SDMMC_GetCmdResp1(SDMMCx, SDMMC_CMD_SD_APP_STATUS, SDMMC_CMDTIMEOUT);
 8006700:	f241 3288 	movw	r2, #5000	; 0x1388
 8006704:	4629      	mov	r1, r5
 8006706:	4620      	mov	r0, r4
 8006708:	f7ff fe12 	bl	8006330 <SDMMC_GetCmdResp1>
}
 800670c:	b007      	add	sp, #28
 800670e:	bd30      	pop	{r4, r5, pc}

08006710 <SDMMC_GetCmdResp2>:
{
 8006710:	4601      	mov	r1, r0
  uint32_t count = SDMMC_CMDTIMEOUT * (SystemCoreClock / 8U / 1000U);
 8006712:	4b14      	ldr	r3, [pc, #80]	; (8006764 <SDMMC_GetCmdResp2+0x54>)
 8006714:	681b      	ldr	r3, [r3, #0]
 8006716:	4a14      	ldr	r2, [pc, #80]	; (8006768 <SDMMC_GetCmdResp2+0x58>)
 8006718:	fba2 2303 	umull	r2, r3, r2, r3
 800671c:	0a5b      	lsrs	r3, r3, #9
 800671e:	f241 3288 	movw	r2, #5000	; 0x1388
 8006722:	fb02 f303 	mul.w	r3, r2, r3
    if (count-- == 0U)
 8006726:	461a      	mov	r2, r3
 8006728:	3b01      	subs	r3, #1
 800672a:	b1ba      	cbz	r2, 800675c <SDMMC_GetCmdResp2+0x4c>
    sta_reg = SDMMCx->STA;
 800672c:	6b4a      	ldr	r2, [r1, #52]	; 0x34
           ((sta_reg & SDMMC_FLAG_CMDACT) != 0U));
 800672e:	f012 0f45 	tst.w	r2, #69	; 0x45
 8006732:	d0f8      	beq.n	8006726 <SDMMC_GetCmdResp2+0x16>
  } while (((sta_reg & (SDMMC_FLAG_CCRCFAIL | SDMMC_FLAG_CMDREND | SDMMC_FLAG_CTIMEOUT)) == 0U) ||
 8006734:	f412 5f00 	tst.w	r2, #8192	; 0x2000
 8006738:	d1f5      	bne.n	8006726 <SDMMC_GetCmdResp2+0x16>
  if (__SDMMC_GET_FLAG(SDMMCx, SDMMC_FLAG_CTIMEOUT))
 800673a:	6b4b      	ldr	r3, [r1, #52]	; 0x34
 800673c:	f013 0f04 	tst.w	r3, #4
 8006740:	d106      	bne.n	8006750 <SDMMC_GetCmdResp2+0x40>
  else if (__SDMMC_GET_FLAG(SDMMCx, SDMMC_FLAG_CCRCFAIL))
 8006742:	6b48      	ldr	r0, [r1, #52]	; 0x34
 8006744:	f010 0001 	ands.w	r0, r0, #1
 8006748:	d105      	bne.n	8006756 <SDMMC_GetCmdResp2+0x46>
    __SDMMC_CLEAR_FLAG(SDMMCx, SDMMC_STATIC_CMD_FLAGS);
 800674a:	4b08      	ldr	r3, [pc, #32]	; (800676c <SDMMC_GetCmdResp2+0x5c>)
 800674c:	638b      	str	r3, [r1, #56]	; 0x38
  return SDMMC_ERROR_NONE;
 800674e:	4770      	bx	lr
    __SDMMC_CLEAR_FLAG(SDMMCx, SDMMC_FLAG_CTIMEOUT);
 8006750:	2004      	movs	r0, #4
 8006752:	6388      	str	r0, [r1, #56]	; 0x38
    return SDMMC_ERROR_CMD_RSP_TIMEOUT;
 8006754:	4770      	bx	lr
    __SDMMC_CLEAR_FLAG(SDMMCx, SDMMC_FLAG_CCRCFAIL);
 8006756:	2001      	movs	r0, #1
 8006758:	6388      	str	r0, [r1, #56]	; 0x38
    return SDMMC_ERROR_CMD_CRC_FAIL;
 800675a:	4770      	bx	lr
      return SDMMC_ERROR_TIMEOUT;
 800675c:	f04f 4000 	mov.w	r0, #2147483648	; 0x80000000
}
 8006760:	4770      	bx	lr
 8006762:	bf00      	nop
 8006764:	20000004 	.word	0x20000004
 8006768:	10624dd3 	.word	0x10624dd3
 800676c:	002000c5 	.word	0x002000c5

08006770 <SDMMC_CmdSendCID>:
{
 8006770:	b510      	push	{r4, lr}
 8006772:	b086      	sub	sp, #24
 8006774:	4604      	mov	r4, r0
  sdmmc_cmdinit.Argument         = 0U;
 8006776:	2300      	movs	r3, #0
 8006778:	9301      	str	r3, [sp, #4]
  sdmmc_cmdinit.CmdIndex         = SDMMC_CMD_ALL_SEND_CID;
 800677a:	2202      	movs	r2, #2
 800677c:	9202      	str	r2, [sp, #8]
  sdmmc_cmdinit.Response         = SDMMC_RESPONSE_LONG;
 800677e:	f44f 7240 	mov.w	r2, #768	; 0x300
 8006782:	9203      	str	r2, [sp, #12]
  sdmmc_cmdinit.WaitForInterrupt = SDMMC_WAIT_NO;
 8006784:	9304      	str	r3, [sp, #16]
  sdmmc_cmdinit.CPSM             = SDMMC_CPSM_ENABLE;
 8006786:	f44f 5380 	mov.w	r3, #4096	; 0x1000
 800678a:	9305      	str	r3, [sp, #20]
  (void)SDMMC_SendCommand(SDMMCx, &sdmmc_cmdinit);
 800678c:	a901      	add	r1, sp, #4
 800678e:	f7ff fd91 	bl	80062b4 <SDMMC_SendCommand>
  errorstate = SDMMC_GetCmdResp2(SDMMCx);
 8006792:	4620      	mov	r0, r4
 8006794:	f7ff ffbc 	bl	8006710 <SDMMC_GetCmdResp2>
}
 8006798:	b006      	add	sp, #24
 800679a:	bd10      	pop	{r4, pc}

0800679c <SDMMC_CmdSendCSD>:
{
 800679c:	b510      	push	{r4, lr}
 800679e:	b086      	sub	sp, #24
 80067a0:	4604      	mov	r4, r0
  sdmmc_cmdinit.Argument         = Argument;
 80067a2:	9101      	str	r1, [sp, #4]
  sdmmc_cmdinit.CmdIndex         = SDMMC_CMD_SEND_CSD;
 80067a4:	2309      	movs	r3, #9
 80067a6:	9302      	str	r3, [sp, #8]
  sdmmc_cmdinit.Response         = SDMMC_RESPONSE_LONG;
 80067a8:	f44f 7340 	mov.w	r3, #768	; 0x300
 80067ac:	9303      	str	r3, [sp, #12]
  sdmmc_cmdinit.WaitForInterrupt = SDMMC_WAIT_NO;
 80067ae:	2300      	movs	r3, #0
 80067b0:	9304      	str	r3, [sp, #16]
  sdmmc_cmdinit.CPSM             = SDMMC_CPSM_ENABLE;
 80067b2:	f44f 5380 	mov.w	r3, #4096	; 0x1000
 80067b6:	9305      	str	r3, [sp, #20]
  (void)SDMMC_SendCommand(SDMMCx, &sdmmc_cmdinit);
 80067b8:	a901      	add	r1, sp, #4
 80067ba:	f7ff fd7b 	bl	80062b4 <SDMMC_SendCommand>
  errorstate = SDMMC_GetCmdResp2(SDMMCx);
 80067be:	4620      	mov	r0, r4
 80067c0:	f7ff ffa6 	bl	8006710 <SDMMC_GetCmdResp2>
}
 80067c4:	b006      	add	sp, #24
 80067c6:	bd10      	pop	{r4, pc}

080067c8 <SDMMC_GetCmdResp3>:
{
 80067c8:	4601      	mov	r1, r0
  uint32_t count = SDMMC_CMDTIMEOUT * (SystemCoreClock / 8U / 1000U);
 80067ca:	4b10      	ldr	r3, [pc, #64]	; (800680c <SDMMC_GetCmdResp3+0x44>)
 80067cc:	681b      	ldr	r3, [r3, #0]
 80067ce:	4a10      	ldr	r2, [pc, #64]	; (8006810 <SDMMC_GetCmdResp3+0x48>)
 80067d0:	fba2 2303 	umull	r2, r3, r2, r3
 80067d4:	0a5b      	lsrs	r3, r3, #9
 80067d6:	f241 3288 	movw	r2, #5000	; 0x1388
 80067da:	fb02 f303 	mul.w	r3, r2, r3
    if (count-- == 0U)
 80067de:	461a      	mov	r2, r3
 80067e0:	3b01      	subs	r3, #1
 80067e2:	b182      	cbz	r2, 8006806 <SDMMC_GetCmdResp3+0x3e>
    sta_reg = SDMMCx->STA;
 80067e4:	6b4a      	ldr	r2, [r1, #52]	; 0x34
           ((sta_reg & SDMMC_FLAG_CMDACT) != 0U));
 80067e6:	f012 0f45 	tst.w	r2, #69	; 0x45
 80067ea:	d0f8      	beq.n	80067de <SDMMC_GetCmdResp3+0x16>
  } while (((sta_reg & (SDMMC_FLAG_CCRCFAIL | SDMMC_FLAG_CMDREND | SDMMC_FLAG_CTIMEOUT)) == 0U) ||
 80067ec:	f412 5f00 	tst.w	r2, #8192	; 0x2000
 80067f0:	d1f5      	bne.n	80067de <SDMMC_GetCmdResp3+0x16>
  if (__SDMMC_GET_FLAG(SDMMCx, SDMMC_FLAG_CTIMEOUT))
 80067f2:	6b48      	ldr	r0, [r1, #52]	; 0x34
 80067f4:	f010 0004 	ands.w	r0, r0, #4
 80067f8:	d102      	bne.n	8006800 <SDMMC_GetCmdResp3+0x38>
    __SDMMC_CLEAR_FLAG(SDMMCx, SDMMC_STATIC_CMD_FLAGS);
 80067fa:	4b06      	ldr	r3, [pc, #24]	; (8006814 <SDMMC_GetCmdResp3+0x4c>)
 80067fc:	638b      	str	r3, [r1, #56]	; 0x38
  return SDMMC_ERROR_NONE;
 80067fe:	4770      	bx	lr
    __SDMMC_CLEAR_FLAG(SDMMCx, SDMMC_FLAG_CTIMEOUT);
 8006800:	2004      	movs	r0, #4
 8006802:	6388      	str	r0, [r1, #56]	; 0x38
    return SDMMC_ERROR_CMD_RSP_TIMEOUT;
 8006804:	4770      	bx	lr
      return SDMMC_ERROR_TIMEOUT;
 8006806:	f04f 4000 	mov.w	r0, #2147483648	; 0x80000000
}
 800680a:	4770      	bx	lr
 800680c:	20000004 	.word	0x20000004
 8006810:	10624dd3 	.word	0x10624dd3
 8006814:	002000c5 	.word	0x002000c5

08006818 <SDMMC_CmdAppOperCommand>:
{
 8006818:	b510      	push	{r4, lr}
 800681a:	b086      	sub	sp, #24
 800681c:	4604      	mov	r4, r0
  sdmmc_cmdinit.Argument         = Argument;
 800681e:	9101      	str	r1, [sp, #4]
  sdmmc_cmdinit.CmdIndex         = SDMMC_CMD_SD_APP_OP_COND;
 8006820:	2329      	movs	r3, #41	; 0x29
 8006822:	9302      	str	r3, [sp, #8]
  sdmmc_cmdinit.Response         = SDMMC_RESPONSE_SHORT;
 8006824:	f44f 7380 	mov.w	r3, #256	; 0x100
 8006828:	9303      	str	r3, [sp, #12]
  sdmmc_cmdinit.WaitForInterrupt = SDMMC_WAIT_NO;
 800682a:	2300      	movs	r3, #0
 800682c:	9304      	str	r3, [sp, #16]
  sdmmc_cmdinit.CPSM             = SDMMC_CPSM_ENABLE;
 800682e:	f44f 5380 	mov.w	r3, #4096	; 0x1000
 8006832:	9305      	str	r3, [sp, #20]
  (void)SDMMC_SendCommand(SDMMCx, &sdmmc_cmdinit);
 8006834:	a901      	add	r1, sp, #4
 8006836:	f7ff fd3d 	bl	80062b4 <SDMMC_SendCommand>
  errorstate = SDMMC_GetCmdResp3(SDMMCx);
 800683a:	4620      	mov	r0, r4
 800683c:	f7ff ffc4 	bl	80067c8 <SDMMC_GetCmdResp3>
}
 8006840:	b006      	add	sp, #24
 8006842:	bd10      	pop	{r4, pc}

08006844 <SDMMC_GetCmdResp6>:
{
 8006844:	b5f8      	push	{r3, r4, r5, r6, r7, lr}
 8006846:	4605      	mov	r5, r0
 8006848:	460e      	mov	r6, r1
 800684a:	4617      	mov	r7, r2
  uint32_t count = SDMMC_CMDTIMEOUT * (SystemCoreClock / 8U / 1000U);
 800684c:	4b23      	ldr	r3, [pc, #140]	; (80068dc <SDMMC_GetCmdResp6+0x98>)
 800684e:	681b      	ldr	r3, [r3, #0]
 8006850:	4a23      	ldr	r2, [pc, #140]	; (80068e0 <SDMMC_GetCmdResp6+0x9c>)
 8006852:	fba2 2303 	umull	r2, r3, r2, r3
 8006856:	0a5b      	lsrs	r3, r3, #9
 8006858:	f241 3288 	movw	r2, #5000	; 0x1388
 800685c:	fb02 f303 	mul.w	r3, r2, r3
    if (count-- == 0U)
 8006860:	461a      	mov	r2, r3
 8006862:	3b01      	subs	r3, #1
 8006864:	b38a      	cbz	r2, 80068ca <SDMMC_GetCmdResp6+0x86>
    sta_reg = SDMMCx->STA;
 8006866:	6b6c      	ldr	r4, [r5, #52]	; 0x34
           ((sta_reg & SDMMC_FLAG_CMDACT) != 0U));
 8006868:	f014 0f45 	tst.w	r4, #69	; 0x45
 800686c:	d0f8      	beq.n	8006860 <SDMMC_GetCmdResp6+0x1c>
  } while (((sta_reg & (SDMMC_FLAG_CCRCFAIL | SDMMC_FLAG_CMDREND | SDMMC_FLAG_CTIMEOUT)) == 0U) ||
 800686e:	f414 5f00 	tst.w	r4, #8192	; 0x2000
 8006872:	d1f5      	bne.n	8006860 <SDMMC_GetCmdResp6+0x1c>
  if (__SDMMC_GET_FLAG(SDMMCx, SDMMC_FLAG_CTIMEOUT))
 8006874:	6b6b      	ldr	r3, [r5, #52]	; 0x34
 8006876:	f013 0f04 	tst.w	r3, #4
 800687a:	d106      	bne.n	800688a <SDMMC_GetCmdResp6+0x46>
  else if (__SDMMC_GET_FLAG(SDMMCx, SDMMC_FLAG_CCRCFAIL))
 800687c:	6b6b      	ldr	r3, [r5, #52]	; 0x34
 800687e:	f013 0f01 	tst.w	r3, #1
 8006882:	d005      	beq.n	8006890 <SDMMC_GetCmdResp6+0x4c>
    __SDMMC_CLEAR_FLAG(SDMMCx, SDMMC_FLAG_CCRCFAIL);
 8006884:	2001      	movs	r0, #1
 8006886:	63a8      	str	r0, [r5, #56]	; 0x38
    return SDMMC_ERROR_CMD_CRC_FAIL;
 8006888:	e021      	b.n	80068ce <SDMMC_GetCmdResp6+0x8a>
    __SDMMC_CLEAR_FLAG(SDMMCx, SDMMC_FLAG_CTIMEOUT);
 800688a:	2004      	movs	r0, #4
 800688c:	63a8      	str	r0, [r5, #56]	; 0x38
    return SDMMC_ERROR_CMD_RSP_TIMEOUT;
 800688e:	e01e      	b.n	80068ce <SDMMC_GetCmdResp6+0x8a>
  if (SDMMC_GetCommandResponse(SDMMCx) != SD_CMD)
 8006890:	4628      	mov	r0, r5
 8006892:	f7ff fd21 	bl	80062d8 <SDMMC_GetCommandResponse>
 8006896:	42b0      	cmp	r0, r6
 8006898:	d001      	beq.n	800689e <SDMMC_GetCmdResp6+0x5a>
    return SDMMC_ERROR_CMD_CRC_FAIL;
 800689a:	2001      	movs	r0, #1
 800689c:	e017      	b.n	80068ce <SDMMC_GetCmdResp6+0x8a>
  __SDMMC_CLEAR_FLAG(SDMMCx, SDMMC_STATIC_CMD_FLAGS);
 800689e:	4b11      	ldr	r3, [pc, #68]	; (80068e4 <SDMMC_GetCmdResp6+0xa0>)
 80068a0:	63ab      	str	r3, [r5, #56]	; 0x38
  response_r1 = SDMMC_GetResponse(SDMMCx, SDMMC_RESP1);
 80068a2:	2100      	movs	r1, #0
 80068a4:	4628      	mov	r0, r5
 80068a6:	f7ff fd1a 	bl	80062de <SDMMC_GetResponse>
 80068aa:	4603      	mov	r3, r0
  if ((response_r1 & (SDMMC_R6_GENERAL_UNKNOWN_ERROR | SDMMC_R6_ILLEGAL_CMD |
 80068ac:	f410 4060 	ands.w	r0, r0, #57344	; 0xe000
 80068b0:	d008      	beq.n	80068c4 <SDMMC_GetCmdResp6+0x80>
  else if ((response_r1 & SDMMC_R6_ILLEGAL_CMD) == SDMMC_R6_ILLEGAL_CMD)
 80068b2:	f413 4f80 	tst.w	r3, #16384	; 0x4000
 80068b6:	d10b      	bne.n	80068d0 <SDMMC_GetCmdResp6+0x8c>
  else if ((response_r1 & SDMMC_R6_COM_CRC_FAILED) == SDMMC_R6_COM_CRC_FAILED)
 80068b8:	f413 4f00 	tst.w	r3, #32768	; 0x8000
 80068bc:	d00b      	beq.n	80068d6 <SDMMC_GetCmdResp6+0x92>
    return SDMMC_ERROR_COM_CRC_FAILED;
 80068be:	f44f 5080 	mov.w	r0, #4096	; 0x1000
 80068c2:	e004      	b.n	80068ce <SDMMC_GetCmdResp6+0x8a>
    *pRCA = (uint16_t)(response_r1 >> 16);
 80068c4:	0c1b      	lsrs	r3, r3, #16
 80068c6:	803b      	strh	r3, [r7, #0]
    return SDMMC_ERROR_NONE;
 80068c8:	e001      	b.n	80068ce <SDMMC_GetCmdResp6+0x8a>
      return SDMMC_ERROR_TIMEOUT;
 80068ca:	f04f 4000 	mov.w	r0, #2147483648	; 0x80000000
}
 80068ce:	bdf8      	pop	{r3, r4, r5, r6, r7, pc}
    return SDMMC_ERROR_ILLEGAL_CMD;
 80068d0:	f44f 5000 	mov.w	r0, #8192	; 0x2000
 80068d4:	e7fb      	b.n	80068ce <SDMMC_GetCmdResp6+0x8a>
    return SDMMC_ERROR_GENERAL_UNKNOWN_ERR;
 80068d6:	f44f 3080 	mov.w	r0, #65536	; 0x10000
 80068da:	e7f8      	b.n	80068ce <SDMMC_GetCmdResp6+0x8a>
 80068dc:	20000004 	.word	0x20000004
 80068e0:	10624dd3 	.word	0x10624dd3
 80068e4:	002000c5 	.word	0x002000c5

080068e8 <SDMMC_CmdSetRelAdd>:
{
 80068e8:	b570      	push	{r4, r5, r6, lr}
 80068ea:	b086      	sub	sp, #24
 80068ec:	4604      	mov	r4, r0
 80068ee:	460d      	mov	r5, r1
  sdmmc_cmdinit.Argument         = 0U;
 80068f0:	2300      	movs	r3, #0
 80068f2:	9301      	str	r3, [sp, #4]
  sdmmc_cmdinit.CmdIndex         = SDMMC_CMD_SET_REL_ADDR;
 80068f4:	2603      	movs	r6, #3
 80068f6:	9602      	str	r6, [sp, #8]
  sdmmc_cmdinit.Response         = SDMMC_RESPONSE_SHORT;
 80068f8:	f44f 7280 	mov.w	r2, #256	; 0x100
 80068fc:	9203      	str	r2, [sp, #12]
  sdmmc_cmdinit.WaitForInterrupt = SDMMC_WAIT_NO;
 80068fe:	9304      	str	r3, [sp, #16]
  sdmmc_cmdinit.CPSM             = SDMMC_CPSM_ENABLE;
 8006900:	f44f 5380 	mov.w	r3, #4096	; 0x1000
 8006904:	9305      	str	r3, [sp, #20]
  (void)SDMMC_SendCommand(SDMMCx, &sdmmc_cmdinit);
 8006906:	a901      	add	r1, sp, #4
 8006908:	f7ff fcd4 	bl	80062b4 <SDMMC_SendCommand>
  errorstate = SDMMC_GetCmdResp6(SDMMCx, SDMMC_CMD_SET_REL_ADDR, pRCA);
 800690c:	462a      	mov	r2, r5
 800690e:	4631      	mov	r1, r6
 8006910:	4620      	mov	r0, r4
 8006912:	f7ff ff97 	bl	8006844 <SDMMC_GetCmdResp6>
}
 8006916:	b006      	add	sp, #24
 8006918:	bd70      	pop	{r4, r5, r6, pc}
	...

0800691c <SDMMC_GetCmdResp7>:
{
 800691c:	4601      	mov	r1, r0
  uint32_t count = SDMMC_CMDTIMEOUT * (SystemCoreClock / 8U / 1000U);
 800691e:	4b16      	ldr	r3, [pc, #88]	; (8006978 <SDMMC_GetCmdResp7+0x5c>)
 8006920:	681b      	ldr	r3, [r3, #0]
 8006922:	4a16      	ldr	r2, [pc, #88]	; (800697c <SDMMC_GetCmdResp7+0x60>)
 8006924:	fba2 2303 	umull	r2, r3, r2, r3
 8006928:	0a5b      	lsrs	r3, r3, #9
 800692a:	f241 3288 	movw	r2, #5000	; 0x1388
 800692e:	fb02 f303 	mul.w	r3, r2, r3
    if (count-- == 0U)
 8006932:	461a      	mov	r2, r3
 8006934:	3b01      	subs	r3, #1
 8006936:	b1e2      	cbz	r2, 8006972 <SDMMC_GetCmdResp7+0x56>
    sta_reg = SDMMCx->STA;
 8006938:	6b4a      	ldr	r2, [r1, #52]	; 0x34
           ((sta_reg & SDMMC_FLAG_CMDACT) != 0U));
 800693a:	f012 0f45 	tst.w	r2, #69	; 0x45
 800693e:	d0f8      	beq.n	8006932 <SDMMC_GetCmdResp7+0x16>
  } while (((sta_reg & (SDMMC_FLAG_CCRCFAIL | SDMMC_FLAG_CMDREND | SDMMC_FLAG_CTIMEOUT)) == 0U) ||
 8006940:	f412 5f00 	tst.w	r2, #8192	; 0x2000
 8006944:	d1f5      	bne.n	8006932 <SDMMC_GetCmdResp7+0x16>
  if (__SDMMC_GET_FLAG(SDMMCx, SDMMC_FLAG_CTIMEOUT))
 8006946:	6b4b      	ldr	r3, [r1, #52]	; 0x34
 8006948:	f013 0f04 	tst.w	r3, #4
 800694c:	d10b      	bne.n	8006966 <SDMMC_GetCmdResp7+0x4a>
  else if (__SDMMC_GET_FLAG(SDMMCx, SDMMC_FLAG_CCRCFAIL))
 800694e:	6b4b      	ldr	r3, [r1, #52]	; 0x34
 8006950:	f013 0301 	ands.w	r3, r3, #1
 8006954:	d10a      	bne.n	800696c <SDMMC_GetCmdResp7+0x50>
  if (__SDMMC_GET_FLAG(SDMMCx, SDMMC_FLAG_CMDREND))
 8006956:	6b48      	ldr	r0, [r1, #52]	; 0x34
 8006958:	f010 0040 	ands.w	r0, r0, #64	; 0x40
 800695c:	d00b      	beq.n	8006976 <SDMMC_GetCmdResp7+0x5a>
    __SDMMC_CLEAR_FLAG(SDMMCx, SDMMC_FLAG_CMDREND);
 800695e:	2240      	movs	r2, #64	; 0x40
 8006960:	638a      	str	r2, [r1, #56]	; 0x38
  return SDMMC_ERROR_NONE;
 8006962:	4618      	mov	r0, r3
 8006964:	4770      	bx	lr
    __SDMMC_CLEAR_FLAG(SDMMCx, SDMMC_FLAG_CTIMEOUT);
 8006966:	2004      	movs	r0, #4
 8006968:	6388      	str	r0, [r1, #56]	; 0x38
    return SDMMC_ERROR_CMD_RSP_TIMEOUT;
 800696a:	4770      	bx	lr
    __SDMMC_CLEAR_FLAG(SDMMCx, SDMMC_FLAG_CCRCFAIL);
 800696c:	2001      	movs	r0, #1
 800696e:	6388      	str	r0, [r1, #56]	; 0x38
    return SDMMC_ERROR_CMD_CRC_FAIL;
 8006970:	4770      	bx	lr
      return SDMMC_ERROR_TIMEOUT;
 8006972:	f04f 4000 	mov.w	r0, #2147483648	; 0x80000000
}
 8006976:	4770      	bx	lr
 8006978:	20000004 	.word	0x20000004
 800697c:	10624dd3 	.word	0x10624dd3

08006980 <SDMMC_CmdOperCond>:
{
 8006980:	b510      	push	{r4, lr}
 8006982:	b086      	sub	sp, #24
 8006984:	4604      	mov	r4, r0
  sdmmc_cmdinit.Argument         = SDMMC_CHECK_PATTERN;
 8006986:	f44f 73d5 	mov.w	r3, #426	; 0x1aa
 800698a:	9301      	str	r3, [sp, #4]
  sdmmc_cmdinit.CmdIndex         = SDMMC_CMD_HS_SEND_EXT_CSD;
 800698c:	2308      	movs	r3, #8
 800698e:	9302      	str	r3, [sp, #8]
  sdmmc_cmdinit.Response         = SDMMC_RESPONSE_SHORT;
 8006990:	f44f 7380 	mov.w	r3, #256	; 0x100
 8006994:	9303      	str	r3, [sp, #12]
  sdmmc_cmdinit.WaitForInterrupt = SDMMC_WAIT_NO;
 8006996:	2300      	movs	r3, #0
 8006998:	9304      	str	r3, [sp, #16]
  sdmmc_cmdinit.CPSM             = SDMMC_CPSM_ENABLE;
 800699a:	f44f 5380 	mov.w	r3, #4096	; 0x1000
 800699e:	9305      	str	r3, [sp, #20]
  (void)SDMMC_SendCommand(SDMMCx, &sdmmc_cmdinit);
 80069a0:	a901      	add	r1, sp, #4
 80069a2:	f7ff fc87 	bl	80062b4 <SDMMC_SendCommand>
  errorstate = SDMMC_GetCmdResp7(SDMMCx);
 80069a6:	4620      	mov	r0, r4
 80069a8:	f7ff ffb8 	bl	800691c <SDMMC_GetCmdResp7>
}
 80069ac:	b006      	add	sp, #24
 80069ae:	bd10      	pop	{r4, pc}

080069b0 <MX_FATFS_Init>:
/* USER CODE BEGIN Variables */

/* USER CODE END Variables */

void MX_FATFS_Init(void)
{
 80069b0:	b508      	push	{r3, lr}
  /*## FatFS: Link the SD driver ###########################*/
  retSD = FATFS_LinkDriver(&SD_Driver, SDPath);
 80069b2:	4903      	ldr	r1, [pc, #12]	; (80069c0 <MX_FATFS_Init+0x10>)
 80069b4:	4803      	ldr	r0, [pc, #12]	; (80069c4 <MX_FATFS_Init+0x14>)
 80069b6:	f001 ffd7 	bl	8008968 <FATFS_LinkDriver>
 80069ba:	4b03      	ldr	r3, [pc, #12]	; (80069c8 <MX_FATFS_Init+0x18>)
 80069bc:	7018      	strb	r0, [r3, #0]

  /* USER CODE BEGIN Init */
  /* additional user code for init */
  /* USER CODE END Init */
}
 80069be:	bd08      	pop	{r3, pc}
 80069c0:	20000714 	.word	0x20000714
 80069c4:	08008abc 	.word	0x08008abc
 80069c8:	20000718 	.word	0x20000718

080069cc <get_fattime>:
DWORD get_fattime(void)
{
  /* USER CODE BEGIN get_fattime */
  return 0;
  /* USER CODE END get_fattime */
}
 80069cc:	2000      	movs	r0, #0
 80069ce:	4770      	bx	lr

080069d0 <BSP_SD_ReadBlocks>:
  * @param  NumOfBlocks: Number of SD blocks to read
  * @param  Timeout: Timeout for read operation
  * @retval SD status
  */
__weak uint8_t BSP_SD_ReadBlocks(uint32_t *pData, uint32_t ReadAddr, uint32_t NumOfBlocks, uint32_t Timeout)
{
 80069d0:	b500      	push	{lr}
 80069d2:	b083      	sub	sp, #12
  uint8_t sd_state = MSD_OK;

  if (HAL_SD_ReadBlocks(&hsd1, (uint8_t *)pData, ReadAddr, NumOfBlocks, Timeout) != HAL_OK)
 80069d4:	9300      	str	r3, [sp, #0]
 80069d6:	4613      	mov	r3, r2
 80069d8:	460a      	mov	r2, r1
 80069da:	4601      	mov	r1, r0
 80069dc:	4803      	ldr	r0, [pc, #12]	; (80069ec <BSP_SD_ReadBlocks+0x1c>)
 80069de:	f7fe fda5 	bl	800552c <HAL_SD_ReadBlocks>
 80069e2:	b100      	cbz	r0, 80069e6 <BSP_SD_ReadBlocks+0x16>
  {
    sd_state = MSD_ERROR;
 80069e4:	2001      	movs	r0, #1
  }

  return sd_state;
}
 80069e6:	b003      	add	sp, #12
 80069e8:	f85d fb04 	ldr.w	pc, [sp], #4
 80069ec:	20000234 	.word	0x20000234

080069f0 <BSP_SD_WriteBlocks>:
  * @param  NumOfBlocks: Number of SD blocks to write
  * @param  Timeout: Timeout for write operation
  * @retval SD status
  */
__weak uint8_t BSP_SD_WriteBlocks(uint32_t *pData, uint32_t WriteAddr, uint32_t NumOfBlocks, uint32_t Timeout)
{
 80069f0:	b500      	push	{lr}
 80069f2:	b083      	sub	sp, #12
  uint8_t sd_state = MSD_OK;

  if (HAL_SD_WriteBlocks(&hsd1, (uint8_t *)pData, WriteAddr, NumOfBlocks, Timeout) != HAL_OK)
 80069f4:	9300      	str	r3, [sp, #0]
 80069f6:	4613      	mov	r3, r2
 80069f8:	460a      	mov	r2, r1
 80069fa:	4601      	mov	r1, r0
 80069fc:	4803      	ldr	r0, [pc, #12]	; (8006a0c <BSP_SD_WriteBlocks+0x1c>)
 80069fe:	f7fe fe97 	bl	8005730 <HAL_SD_WriteBlocks>
 8006a02:	b100      	cbz	r0, 8006a06 <BSP_SD_WriteBlocks+0x16>
  {
    sd_state = MSD_ERROR;
 8006a04:	2001      	movs	r0, #1
  }

  return sd_state;
}
 8006a06:	b003      	add	sp, #12
 8006a08:	f85d fb04 	ldr.w	pc, [sp], #4
 8006a0c:	20000234 	.word	0x20000234

08006a10 <BSP_SD_GetCardState>:
  *          This value can be one of the following values:
  *            @arg  SD_TRANSFER_OK: No data transfer is acting
  *            @arg  SD_TRANSFER_BUSY: Data transfer is acting
  */
__weak uint8_t BSP_SD_GetCardState(void)
{
 8006a10:	b508      	push	{r3, lr}
  return ((HAL_SD_GetCardState(&hsd1) == HAL_SD_CARD_TRANSFER ) ? SD_TRANSFER_OK : SD_TRANSFER_BUSY);
 8006a12:	4803      	ldr	r0, [pc, #12]	; (8006a20 <BSP_SD_GetCardState+0x10>)
 8006a14:	f7ff fa7e 	bl	8005f14 <HAL_SD_GetCardState>
}
 8006a18:	3804      	subs	r0, #4
 8006a1a:	bf18      	it	ne
 8006a1c:	2001      	movne	r0, #1
 8006a1e:	bd08      	pop	{r3, pc}
 8006a20:	20000234 	.word	0x20000234

08006a24 <BSP_SD_GetCardInfo>:
  * @brief  Get SD information about specific SD card.
  * @param  CardInfo: Pointer to HAL_SD_CardInfoTypedef structure
  * @retval None
  */
__weak void BSP_SD_GetCardInfo(HAL_SD_CardInfoTypeDef *CardInfo)
{
 8006a24:	b508      	push	{r3, lr}
 8006a26:	4601      	mov	r1, r0
  /* Get SD card Information */
  HAL_SD_GetCardInfo(&hsd1, CardInfo);
 8006a28:	4801      	ldr	r0, [pc, #4]	; (8006a30 <BSP_SD_GetCardInfo+0xc>)
 8006a2a:	f7ff f9b5 	bl	8005d98 <HAL_SD_GetCardInfo>
}
 8006a2e:	bd08      	pop	{r3, pc}
 8006a30:	20000234 	.word	0x20000234

08006a34 <BSP_SD_WriteCpltCallback>:
  * @note empty (up to the user to fill it in or to remove it if useless)
  */
__weak void BSP_SD_WriteCpltCallback(void)
{

}
 8006a34:	4770      	bx	lr

08006a36 <HAL_SD_TxCpltCallback>:
{
 8006a36:	b508      	push	{r3, lr}
  BSP_SD_WriteCpltCallback();
 8006a38:	f7ff fffc 	bl	8006a34 <BSP_SD_WriteCpltCallback>
}
 8006a3c:	bd08      	pop	{r3, pc}

08006a3e <BSP_SD_ReadCpltCallback>:
  * @note empty (up to the user to fill it in or to remove it if useless)
  */
__weak void BSP_SD_ReadCpltCallback(void)
{

}
 8006a3e:	4770      	bx	lr

08006a40 <HAL_SD_RxCpltCallback>:
{
 8006a40:	b508      	push	{r3, lr}
  BSP_SD_ReadCpltCallback();
 8006a42:	f7ff fffc 	bl	8006a3e <BSP_SD_ReadCpltCallback>
}
 8006a46:	bd08      	pop	{r3, pc}

08006a48 <BSP_SD_Init>:
{
 8006a48:	b538      	push	{r3, r4, r5, lr}
  if (BSP_SD_IsDetected() != SD_PRESENT)
 8006a4a:	f7f9 fe0d 	bl	8000668 <BSP_SD_IsDetected>
 8006a4e:	2801      	cmp	r0, #1
 8006a50:	d002      	beq.n	8006a58 <BSP_SD_Init+0x10>
    return MSD_ERROR_SD_NOT_PRESENT;
 8006a52:	2502      	movs	r5, #2
}
 8006a54:	4628      	mov	r0, r5
 8006a56:	bd38      	pop	{r3, r4, r5, pc}
 8006a58:	4604      	mov	r4, r0
  sd_state = HAL_SD_Init(&hsd1);
 8006a5a:	4807      	ldr	r0, [pc, #28]	; (8006a78 <BSP_SD_Init+0x30>)
 8006a5c:	f7ff fa6b 	bl	8005f36 <HAL_SD_Init>
  if (sd_state == MSD_OK)
 8006a60:	4605      	mov	r5, r0
 8006a62:	2800      	cmp	r0, #0
 8006a64:	d1f6      	bne.n	8006a54 <BSP_SD_Init+0xc>
    if (HAL_SD_ConfigWideBusOperation(&hsd1, SDMMC_BUS_WIDE_4B) != HAL_OK)
 8006a66:	f44f 4180 	mov.w	r1, #16384	; 0x4000
 8006a6a:	4803      	ldr	r0, [pc, #12]	; (8006a78 <BSP_SD_Init+0x30>)
 8006a6c:	f7ff f9a6 	bl	8005dbc <HAL_SD_ConfigWideBusOperation>
 8006a70:	2800      	cmp	r0, #0
 8006a72:	d0ef      	beq.n	8006a54 <BSP_SD_Init+0xc>
      sd_state = MSD_ERROR;
 8006a74:	4625      	mov	r5, r4
 8006a76:	e7ed      	b.n	8006a54 <BSP_SD_Init+0xc>
 8006a78:	20000234 	.word	0x20000234

08006a7c <SD_CheckStatus>:
/* USER CODE END beforeFunctionSection */

/* Private functions ---------------------------------------------------------*/

static DSTATUS SD_CheckStatus(BYTE lun)
{
 8006a7c:	b508      	push	{r3, lr}
  Stat = STA_NOINIT;
 8006a7e:	4b07      	ldr	r3, [pc, #28]	; (8006a9c <SD_CheckStatus+0x20>)
 8006a80:	2201      	movs	r2, #1
 8006a82:	701a      	strb	r2, [r3, #0]

  if(BSP_SD_GetCardState() == MSD_OK)
 8006a84:	f7ff ffc4 	bl	8006a10 <BSP_SD_GetCardState>
 8006a88:	b920      	cbnz	r0, 8006a94 <SD_CheckStatus+0x18>
  {
    Stat &= ~STA_NOINIT;
 8006a8a:	4a04      	ldr	r2, [pc, #16]	; (8006a9c <SD_CheckStatus+0x20>)
 8006a8c:	7813      	ldrb	r3, [r2, #0]
 8006a8e:	f003 03fe 	and.w	r3, r3, #254	; 0xfe
 8006a92:	7013      	strb	r3, [r2, #0]
  }

  return Stat;
 8006a94:	4b01      	ldr	r3, [pc, #4]	; (8006a9c <SD_CheckStatus+0x20>)
 8006a96:	7818      	ldrb	r0, [r3, #0]
}
 8006a98:	bd08      	pop	{r3, pc}
 8006a9a:	bf00      	nop
 8006a9c:	20000014 	.word	0x20000014

08006aa0 <SD_initialize>:
  * @brief  Initializes a Drive
  * @param  lun : not used
  * @retval DSTATUS: Operation status
  */
DSTATUS SD_initialize(BYTE lun)
{
 8006aa0:	b510      	push	{r4, lr}
 8006aa2:	4604      	mov	r4, r0
Stat = STA_NOINIT;
 8006aa4:	4b07      	ldr	r3, [pc, #28]	; (8006ac4 <SD_initialize+0x24>)
 8006aa6:	2201      	movs	r2, #1
 8006aa8:	701a      	strb	r2, [r3, #0]

#if !defined(DISABLE_SD_INIT)

  if(BSP_SD_Init() == MSD_OK)
 8006aaa:	f7ff ffcd 	bl	8006a48 <BSP_SD_Init>
 8006aae:	b110      	cbz	r0, 8006ab6 <SD_initialize+0x16>

#else
  Stat = SD_CheckStatus(lun);
#endif

  return Stat;
 8006ab0:	4b04      	ldr	r3, [pc, #16]	; (8006ac4 <SD_initialize+0x24>)
 8006ab2:	7818      	ldrb	r0, [r3, #0]
}
 8006ab4:	bd10      	pop	{r4, pc}
    Stat = SD_CheckStatus(lun);
 8006ab6:	4620      	mov	r0, r4
 8006ab8:	f7ff ffe0 	bl	8006a7c <SD_CheckStatus>
 8006abc:	4b01      	ldr	r3, [pc, #4]	; (8006ac4 <SD_initialize+0x24>)
 8006abe:	7018      	strb	r0, [r3, #0]
 8006ac0:	e7f6      	b.n	8006ab0 <SD_initialize+0x10>
 8006ac2:	bf00      	nop
 8006ac4:	20000014 	.word	0x20000014

08006ac8 <SD_status>:
  * @brief  Gets Disk Status
  * @param  lun : not used
  * @retval DSTATUS: Operation status
  */
DSTATUS SD_status(BYTE lun)
{
 8006ac8:	b508      	push	{r3, lr}
  return SD_CheckStatus(lun);
 8006aca:	f7ff ffd7 	bl	8006a7c <SD_CheckStatus>
}
 8006ace:	bd08      	pop	{r3, pc}

08006ad0 <SD_read>:
  * @param  count: Number of sectors to read (1..128)
  * @retval DRESULT: Operation result
  */

DRESULT SD_read(BYTE lun, BYTE *buff, DWORD sector, UINT count)
{
 8006ad0:	b508      	push	{r3, lr}
 8006ad2:	4608      	mov	r0, r1
 8006ad4:	4611      	mov	r1, r2
 8006ad6:	461a      	mov	r2, r3
  DRESULT res = RES_ERROR;

  if(BSP_SD_ReadBlocks((uint32_t*)buff,
 8006ad8:	f04f 33ff 	mov.w	r3, #4294967295	; 0xffffffff
 8006adc:	f7ff ff78 	bl	80069d0 <BSP_SD_ReadBlocks>
 8006ae0:	b930      	cbnz	r0, 8006af0 <SD_read+0x20>
                       (uint32_t) (sector),
                       count, SD_TIMEOUT) == MSD_OK)
  {
    /* wait until the read operation is finished */
    while(BSP_SD_GetCardState()!= MSD_OK)
 8006ae2:	f7ff ff95 	bl	8006a10 <BSP_SD_GetCardState>
 8006ae6:	4603      	mov	r3, r0
 8006ae8:	2800      	cmp	r0, #0
 8006aea:	d1fa      	bne.n	8006ae2 <SD_read+0x12>
    }
    res = RES_OK;
  }

  return res;
}
 8006aec:	4618      	mov	r0, r3
 8006aee:	bd08      	pop	{r3, pc}
  DRESULT res = RES_ERROR;
 8006af0:	2301      	movs	r3, #1
 8006af2:	e7fb      	b.n	8006aec <SD_read+0x1c>

08006af4 <SD_write>:
  * @retval DRESULT: Operation result
  */
#if _USE_WRITE == 1

DRESULT SD_write(BYTE lun, const BYTE *buff, DWORD sector, UINT count)
{
 8006af4:	b508      	push	{r3, lr}
 8006af6:	4608      	mov	r0, r1
 8006af8:	4611      	mov	r1, r2
 8006afa:	461a      	mov	r2, r3
  DRESULT res = RES_ERROR;

  if(BSP_SD_WriteBlocks((uint32_t*)buff,
 8006afc:	f04f 33ff 	mov.w	r3, #4294967295	; 0xffffffff
 8006b00:	f7ff ff76 	bl	80069f0 <BSP_SD_WriteBlocks>
 8006b04:	b930      	cbnz	r0, 8006b14 <SD_write+0x20>
                        (uint32_t)(sector),
                        count, SD_TIMEOUT) == MSD_OK)
  {
	/* wait until the Write operation is finished */
    while(BSP_SD_GetCardState() != MSD_OK)
 8006b06:	f7ff ff83 	bl	8006a10 <BSP_SD_GetCardState>
 8006b0a:	4603      	mov	r3, r0
 8006b0c:	2800      	cmp	r0, #0
 8006b0e:	d1fa      	bne.n	8006b06 <SD_write+0x12>
    }
    res = RES_OK;
  }

  return res;
}
 8006b10:	4618      	mov	r0, r3
 8006b12:	bd08      	pop	{r3, pc}
  DRESULT res = RES_ERROR;
 8006b14:	2301      	movs	r3, #1
 8006b16:	e7fb      	b.n	8006b10 <SD_write+0x1c>

08006b18 <SD_ioctl>:
  * @param  *buff: Buffer to send/receive control data
  * @retval DRESULT: Operation result
  */
#if _USE_IOCTL == 1
DRESULT SD_ioctl(BYTE lun, BYTE cmd, void *buff)
{
 8006b18:	b530      	push	{r4, r5, lr}
 8006b1a:	b08b      	sub	sp, #44	; 0x2c
  DRESULT res = RES_ERROR;
  BSP_SD_CardInfo CardInfo;

  if (Stat & STA_NOINIT) return RES_NOTRDY;
 8006b1c:	4b13      	ldr	r3, [pc, #76]	; (8006b6c <SD_ioctl+0x54>)
 8006b1e:	7818      	ldrb	r0, [r3, #0]
 8006b20:	f010 0401 	ands.w	r4, r0, #1
 8006b24:	d11b      	bne.n	8006b5e <SD_ioctl+0x46>
 8006b26:	4615      	mov	r5, r2

  switch (cmd)
 8006b28:	2903      	cmp	r1, #3
 8006b2a:	d81c      	bhi.n	8006b66 <SD_ioctl+0x4e>
 8006b2c:	e8df f001 	tbb	[pc, r1]
 8006b30:	100a0402 	.word	0x100a0402
 8006b34:	460c      	mov	r4, r1
 8006b36:	e013      	b.n	8006b60 <SD_ioctl+0x48>
    res = RES_OK;
    break;

  /* Get number of sectors on the disk (DWORD) */
  case GET_SECTOR_COUNT :
    BSP_SD_GetCardInfo(&CardInfo);
 8006b38:	a801      	add	r0, sp, #4
 8006b3a:	f7ff ff73 	bl	8006a24 <BSP_SD_GetCardInfo>
    *(DWORD*)buff = CardInfo.LogBlockNbr;
 8006b3e:	9b07      	ldr	r3, [sp, #28]
 8006b40:	602b      	str	r3, [r5, #0]
    res = RES_OK;
    break;
 8006b42:	e00d      	b.n	8006b60 <SD_ioctl+0x48>

  /* Get R/W sector size (WORD) */
  case GET_SECTOR_SIZE :
    BSP_SD_GetCardInfo(&CardInfo);
 8006b44:	a801      	add	r0, sp, #4
 8006b46:	f7ff ff6d 	bl	8006a24 <BSP_SD_GetCardInfo>
    *(WORD*)buff = CardInfo.LogBlockSize;
 8006b4a:	9b08      	ldr	r3, [sp, #32]
 8006b4c:	802b      	strh	r3, [r5, #0]
    res = RES_OK;
    break;
 8006b4e:	e007      	b.n	8006b60 <SD_ioctl+0x48>

  /* Get erase block size in unit of sector (DWORD) */
  case GET_BLOCK_SIZE :
    BSP_SD_GetCardInfo(&CardInfo);
 8006b50:	a801      	add	r0, sp, #4
 8006b52:	f7ff ff67 	bl	8006a24 <BSP_SD_GetCardInfo>
    *(DWORD*)buff = CardInfo.LogBlockSize / SD_DEFAULT_BLOCK_SIZE;
 8006b56:	9b08      	ldr	r3, [sp, #32]
 8006b58:	0a5b      	lsrs	r3, r3, #9
 8006b5a:	602b      	str	r3, [r5, #0]
    res = RES_OK;
    break;
 8006b5c:	e000      	b.n	8006b60 <SD_ioctl+0x48>
  if (Stat & STA_NOINIT) return RES_NOTRDY;
 8006b5e:	2403      	movs	r4, #3
  default:
    res = RES_PARERR;
  }

  return res;
}
 8006b60:	4620      	mov	r0, r4
 8006b62:	b00b      	add	sp, #44	; 0x2c
 8006b64:	bd30      	pop	{r4, r5, pc}
    res = RES_PARERR;
 8006b66:	2404      	movs	r4, #4
 8006b68:	e7fa      	b.n	8006b60 <SD_ioctl+0x48>
 8006b6a:	bf00      	nop
 8006b6c:	20000014 	.word	0x20000014

08006b70 <disk_status>:
  * @retval DSTATUS: Operation status
  */
DSTATUS disk_status (
	BYTE pdrv		/* Physical drive number to identify the drive */
)
{
 8006b70:	b508      	push	{r3, lr}
  DSTATUS stat;

  stat = disk.drv[pdrv]->disk_status(disk.lun[pdrv]);
 8006b72:	4b04      	ldr	r3, [pc, #16]	; (8006b84 <disk_status+0x14>)
 8006b74:	eb03 0280 	add.w	r2, r3, r0, lsl #2
 8006b78:	6852      	ldr	r2, [r2, #4]
 8006b7a:	6852      	ldr	r2, [r2, #4]
 8006b7c:	4403      	add	r3, r0
 8006b7e:	7a18      	ldrb	r0, [r3, #8]
 8006b80:	4790      	blx	r2
  return stat;
}
 8006b82:	bd08      	pop	{r3, pc}
 8006b84:	20000944 	.word	0x20000944

08006b88 <disk_initialize>:
  * @retval DSTATUS: Operation status
  */
DSTATUS disk_initialize (
	BYTE pdrv				/* Physical drive nmuber to identify the drive */
)
{
 8006b88:	b508      	push	{r3, lr}
  DSTATUS stat = RES_OK;

  if(disk.is_initialized[pdrv] == 0)
 8006b8a:	4b08      	ldr	r3, [pc, #32]	; (8006bac <disk_initialize+0x24>)
 8006b8c:	5c1b      	ldrb	r3, [r3, r0]
 8006b8e:	b953      	cbnz	r3, 8006ba6 <disk_initialize+0x1e>
  {
    disk.is_initialized[pdrv] = 1;
 8006b90:	4b06      	ldr	r3, [pc, #24]	; (8006bac <disk_initialize+0x24>)
 8006b92:	2201      	movs	r2, #1
 8006b94:	541a      	strb	r2, [r3, r0]
    stat = disk.drv[pdrv]->disk_initialize(disk.lun[pdrv]);
 8006b96:	eb03 0280 	add.w	r2, r3, r0, lsl #2
 8006b9a:	6852      	ldr	r2, [r2, #4]
 8006b9c:	6812      	ldr	r2, [r2, #0]
 8006b9e:	4418      	add	r0, r3
 8006ba0:	7a00      	ldrb	r0, [r0, #8]
 8006ba2:	4790      	blx	r2
  }
  return stat;
}
 8006ba4:	bd08      	pop	{r3, pc}
  DSTATUS stat = RES_OK;
 8006ba6:	2000      	movs	r0, #0
 8006ba8:	e7fc      	b.n	8006ba4 <disk_initialize+0x1c>
 8006baa:	bf00      	nop
 8006bac:	20000944 	.word	0x20000944

08006bb0 <disk_read>:
	BYTE pdrv,		/* Physical drive nmuber to identify the drive */
	BYTE *buff,		/* Data buffer to store read data */
	DWORD sector,	        /* Sector address in LBA */
	UINT count		/* Number of sectors to read */
)
{
 8006bb0:	b538      	push	{r3, r4, r5, lr}
  DRESULT res;

  res = disk.drv[pdrv]->disk_read(disk.lun[pdrv], buff, sector, count);
 8006bb2:	4c04      	ldr	r4, [pc, #16]	; (8006bc4 <disk_read+0x14>)
 8006bb4:	eb04 0580 	add.w	r5, r4, r0, lsl #2
 8006bb8:	686d      	ldr	r5, [r5, #4]
 8006bba:	68ad      	ldr	r5, [r5, #8]
 8006bbc:	4404      	add	r4, r0
 8006bbe:	7a20      	ldrb	r0, [r4, #8]
 8006bc0:	47a8      	blx	r5
  return res;
}
 8006bc2:	bd38      	pop	{r3, r4, r5, pc}
 8006bc4:	20000944 	.word	0x20000944

08006bc8 <disk_write>:
	BYTE pdrv,		/* Physical drive nmuber to identify the drive */
	const BYTE *buff,	/* Data to be written */
	DWORD sector,		/* Sector address in LBA */
	UINT count        	/* Number of sectors to write */
)
{
 8006bc8:	b538      	push	{r3, r4, r5, lr}
  DRESULT res;

  res = disk.drv[pdrv]->disk_write(disk.lun[pdrv], buff, sector, count);
 8006bca:	4c04      	ldr	r4, [pc, #16]	; (8006bdc <disk_write+0x14>)
 8006bcc:	eb04 0580 	add.w	r5, r4, r0, lsl #2
 8006bd0:	686d      	ldr	r5, [r5, #4]
 8006bd2:	68ed      	ldr	r5, [r5, #12]
 8006bd4:	4404      	add	r4, r0
 8006bd6:	7a20      	ldrb	r0, [r4, #8]
 8006bd8:	47a8      	blx	r5
  return res;
}
 8006bda:	bd38      	pop	{r3, r4, r5, pc}
 8006bdc:	20000944 	.word	0x20000944

08006be0 <disk_ioctl>:
DRESULT disk_ioctl (
	BYTE pdrv,		/* Physical drive nmuber (0..) */
	BYTE cmd,		/* Control code */
	void *buff		/* Buffer to send/receive control data */
)
{
 8006be0:	b510      	push	{r4, lr}
  DRESULT res;

  res = disk.drv[pdrv]->disk_ioctl(disk.lun[pdrv], cmd, buff);
 8006be2:	4b04      	ldr	r3, [pc, #16]	; (8006bf4 <disk_ioctl+0x14>)
 8006be4:	eb03 0480 	add.w	r4, r3, r0, lsl #2
 8006be8:	6864      	ldr	r4, [r4, #4]
 8006bea:	6924      	ldr	r4, [r4, #16]
 8006bec:	4403      	add	r3, r0
 8006bee:	7a18      	ldrb	r0, [r3, #8]
 8006bf0:	47a0      	blx	r4
  return res;
}
 8006bf2:	bd10      	pop	{r4, pc}
 8006bf4:	20000944 	.word	0x20000944

08006bf8 <ld_word>:
static
WORD ld_word (const BYTE* ptr)	/*	 Load a 2-byte little-endian word */
{
	WORD rv;

	rv = ptr[1];
 8006bf8:	7842      	ldrb	r2, [r0, #1]
	rv = rv << 8 | ptr[0];
 8006bfa:	7800      	ldrb	r0, [r0, #0]
	return rv;
}
 8006bfc:	ea40 2002 	orr.w	r0, r0, r2, lsl #8
 8006c00:	4770      	bx	lr

08006c02 <ld_dword>:
static
DWORD ld_dword (const BYTE* ptr)	/* Load a 4-byte little-endian word */
{
	DWORD rv;

	rv = ptr[3];
 8006c02:	78c2      	ldrb	r2, [r0, #3]
	rv = rv << 8 | ptr[2];
 8006c04:	7883      	ldrb	r3, [r0, #2]
 8006c06:	ea43 2202 	orr.w	r2, r3, r2, lsl #8
	rv = rv << 8 | ptr[1];
 8006c0a:	7843      	ldrb	r3, [r0, #1]
 8006c0c:	ea43 2302 	orr.w	r3, r3, r2, lsl #8
	rv = rv << 8 | ptr[0];
 8006c10:	7800      	ldrb	r0, [r0, #0]
	return rv;
}
 8006c12:	ea40 2003 	orr.w	r0, r0, r3, lsl #8
 8006c16:	4770      	bx	lr

08006c18 <st_word>:

#if !_FS_READONLY
static
void st_word (BYTE* ptr, WORD val)	/* Store a 2-byte word in little-endian */
{
	*ptr++ = (BYTE)val; val >>= 8;
 8006c18:	7001      	strb	r1, [r0, #0]
	*ptr++ = (BYTE)val;
 8006c1a:	0a09      	lsrs	r1, r1, #8
 8006c1c:	7041      	strb	r1, [r0, #1]
}
 8006c1e:	4770      	bx	lr

08006c20 <st_dword>:

static
void st_dword (BYTE* ptr, DWORD val)	/* Store a 4-byte word in little-endian */
{
	*ptr++ = (BYTE)val; val >>= 8;
 8006c20:	7001      	strb	r1, [r0, #0]
	*ptr++ = (BYTE)val; val >>= 8;
 8006c22:	f3c1 2307 	ubfx	r3, r1, #8, #8
 8006c26:	7043      	strb	r3, [r0, #1]
	*ptr++ = (BYTE)val; val >>= 8;
 8006c28:	f3c1 4307 	ubfx	r3, r1, #16, #8
 8006c2c:	7083      	strb	r3, [r0, #2]
	*ptr++ = (BYTE)val;
 8006c2e:	0e09      	lsrs	r1, r1, #24
 8006c30:	70c1      	strb	r1, [r0, #3]
}
 8006c32:	4770      	bx	lr

08006c34 <mem_cpy>:
static
void mem_cpy (void* dst, const void* src, UINT cnt) {
	BYTE *d = (BYTE*)dst;
	const BYTE *s = (const BYTE*)src;

	if (cnt) {
 8006c34:	4694      	mov	ip, r2
 8006c36:	b132      	cbz	r2, 8006c46 <mem_cpy+0x12>
		do {
			*d++ = *s++;
 8006c38:	780a      	ldrb	r2, [r1, #0]
 8006c3a:	3101      	adds	r1, #1
 8006c3c:	7002      	strb	r2, [r0, #0]
 8006c3e:	3001      	adds	r0, #1
		} while (--cnt);
 8006c40:	f1bc 0c01 	subs.w	ip, ip, #1
 8006c44:	d1f8      	bne.n	8006c38 <mem_cpy+0x4>
	}
}
 8006c46:	4770      	bx	lr

08006c48 <mem_set>:
static
void mem_set (void* dst, int val, UINT cnt) {
	BYTE *d = (BYTE*)dst;

	do {
		*d++ = (BYTE)val;
 8006c48:	7001      	strb	r1, [r0, #0]
 8006c4a:	3001      	adds	r0, #1
	} while (--cnt);
 8006c4c:	3a01      	subs	r2, #1
 8006c4e:	d1fb      	bne.n	8006c48 <mem_set>
}
 8006c50:	4770      	bx	lr

08006c52 <mem_cmp>:

/* Compare memory block */
static
int mem_cmp (const void* dst, const void* src, UINT cnt) {	/* ZR:same, NZ:different */
 8006c52:	4684      	mov	ip, r0
	const BYTE *d = (const BYTE *)dst, *s = (const BYTE *)src;
	int r = 0;

	do {
		r = *d++ - *s++;
 8006c54:	f89c 0000 	ldrb.w	r0, [ip]
 8006c58:	f10c 0c01 	add.w	ip, ip, #1
 8006c5c:	780b      	ldrb	r3, [r1, #0]
 8006c5e:	3101      	adds	r1, #1
 8006c60:	1ac0      	subs	r0, r0, r3
	} while (--cnt && r == 0);
 8006c62:	3a01      	subs	r2, #1
 8006c64:	d001      	beq.n	8006c6a <mem_cmp+0x18>
 8006c66:	2800      	cmp	r0, #0
 8006c68:	d0f4      	beq.n	8006c54 <mem_cmp+0x2>

	return r;
}
 8006c6a:	4770      	bx	lr

08006c6c <chk_chr>:

/* Check if chr is contained in the string */
static
int chk_chr (const char* str, int chr) {	/* NZ:contained, ZR:not contained */
 8006c6c:	4603      	mov	r3, r0
	while (*str && *str != chr) str++;
 8006c6e:	e000      	b.n	8006c72 <chk_chr+0x6>
 8006c70:	3301      	adds	r3, #1
 8006c72:	7818      	ldrb	r0, [r3, #0]
 8006c74:	b108      	cbz	r0, 8006c7a <chk_chr+0xe>
 8006c76:	4288      	cmp	r0, r1
 8006c78:	d1fa      	bne.n	8006c70 <chk_chr+0x4>
	return *str;
}
 8006c7a:	4770      	bx	lr

08006c7c <chk_lock>:
static
FRESULT chk_lock (	/* Check if the file can be accessed */
	DIR* dp,		/* Directory object pointing the file to be checked */
	int acc			/* Desired access type (0:Read, 1:Write, 2:Delete/Rename) */
)
{
 8006c7c:	b410      	push	{r4}
	UINT i, be;

	/* Search file semaphore table */
	for (i = be = 0; i < _FS_LOCK; i++) {
 8006c7e:	f04f 0c00 	mov.w	ip, #0
 8006c82:	4663      	mov	r3, ip
 8006c84:	e002      	b.n	8006c8c <chk_lock+0x10>
		if (Files[i].fs) {	/* Existing entry */
			if (Files[i].fs == dp->obj.fs &&	 	/* Check if the object matched with an open object */
				Files[i].clu == dp->obj.sclust &&
				Files[i].ofs == dp->dptr) break;
		} else {			/* Blank entry */
			be = 1;
 8006c86:	f04f 0c01 	mov.w	ip, #1
	for (i = be = 0; i < _FS_LOCK; i++) {
 8006c8a:	3301      	adds	r3, #1
 8006c8c:	2b01      	cmp	r3, #1
 8006c8e:	d815      	bhi.n	8006cbc <chk_lock+0x40>
		if (Files[i].fs) {	/* Existing entry */
 8006c90:	011a      	lsls	r2, r3, #4
 8006c92:	4c18      	ldr	r4, [pc, #96]	; (8006cf4 <chk_lock+0x78>)
 8006c94:	58a2      	ldr	r2, [r4, r2]
 8006c96:	2a00      	cmp	r2, #0
 8006c98:	d0f5      	beq.n	8006c86 <chk_lock+0xa>
			if (Files[i].fs == dp->obj.fs &&	 	/* Check if the object matched with an open object */
 8006c9a:	6804      	ldr	r4, [r0, #0]
 8006c9c:	42a2      	cmp	r2, r4
 8006c9e:	d1f4      	bne.n	8006c8a <chk_lock+0xe>
				Files[i].clu == dp->obj.sclust &&
 8006ca0:	4a14      	ldr	r2, [pc, #80]	; (8006cf4 <chk_lock+0x78>)
 8006ca2:	eb02 1203 	add.w	r2, r2, r3, lsl #4
 8006ca6:	6854      	ldr	r4, [r2, #4]
 8006ca8:	6882      	ldr	r2, [r0, #8]
			if (Files[i].fs == dp->obj.fs &&	 	/* Check if the object matched with an open object */
 8006caa:	4294      	cmp	r4, r2
 8006cac:	d1ed      	bne.n	8006c8a <chk_lock+0xe>
				Files[i].ofs == dp->dptr) break;
 8006cae:	4a11      	ldr	r2, [pc, #68]	; (8006cf4 <chk_lock+0x78>)
 8006cb0:	eb02 1203 	add.w	r2, r2, r3, lsl #4
 8006cb4:	6894      	ldr	r4, [r2, #8]
 8006cb6:	6942      	ldr	r2, [r0, #20]
				Files[i].clu == dp->obj.sclust &&
 8006cb8:	4294      	cmp	r4, r2
 8006cba:	d1e6      	bne.n	8006c8a <chk_lock+0xe>
		}
	}
	if (i == _FS_LOCK) {	/* The object is not opened */
 8006cbc:	2b02      	cmp	r3, #2
 8006cbe:	d00b      	beq.n	8006cd8 <chk_lock+0x5c>
		return (be || acc == 2) ? FR_OK : FR_TOO_MANY_OPEN_FILES;	/* Is there a blank entry for new object? */
	}

	/* The object has been opened. Reject any open against writing file and all write mode open */
	return (acc || Files[i].ctr == 0x100) ? FR_LOCKED : FR_OK;
 8006cc0:	b9b1      	cbnz	r1, 8006cf0 <chk_lock+0x74>
 8006cc2:	4a0c      	ldr	r2, [pc, #48]	; (8006cf4 <chk_lock+0x78>)
 8006cc4:	eb02 1303 	add.w	r3, r2, r3, lsl #4
 8006cc8:	899b      	ldrh	r3, [r3, #12]
 8006cca:	f5b3 7f80 	cmp.w	r3, #256	; 0x100
 8006cce:	d00d      	beq.n	8006cec <chk_lock+0x70>
 8006cd0:	2000      	movs	r0, #0
}
 8006cd2:	f85d 4b04 	ldr.w	r4, [sp], #4
 8006cd6:	4770      	bx	lr
		return (be || acc == 2) ? FR_OK : FR_TOO_MANY_OPEN_FILES;	/* Is there a blank entry for new object? */
 8006cd8:	2902      	cmp	r1, #2
 8006cda:	bf14      	ite	ne
 8006cdc:	4663      	movne	r3, ip
 8006cde:	f04c 0301 	orreq.w	r3, ip, #1
 8006ce2:	b10b      	cbz	r3, 8006ce8 <chk_lock+0x6c>
 8006ce4:	2000      	movs	r0, #0
 8006ce6:	e7f4      	b.n	8006cd2 <chk_lock+0x56>
 8006ce8:	2012      	movs	r0, #18
 8006cea:	e7f2      	b.n	8006cd2 <chk_lock+0x56>
	return (acc || Files[i].ctr == 0x100) ? FR_LOCKED : FR_OK;
 8006cec:	2010      	movs	r0, #16
 8006cee:	e7f0      	b.n	8006cd2 <chk_lock+0x56>
 8006cf0:	2010      	movs	r0, #16
 8006cf2:	e7ee      	b.n	8006cd2 <chk_lock+0x56>
 8006cf4:	20000720 	.word	0x20000720

08006cf8 <enq_lock>:
static
int enq_lock (void)	/* Check if an entry is available for a new object */
{
	UINT i;

	for (i = 0; i < _FS_LOCK && Files[i].fs; i++) ;
 8006cf8:	2000      	movs	r0, #0
 8006cfa:	e000      	b.n	8006cfe <enq_lock+0x6>
 8006cfc:	3001      	adds	r0, #1
 8006cfe:	2801      	cmp	r0, #1
 8006d00:	d804      	bhi.n	8006d0c <enq_lock+0x14>
 8006d02:	0103      	lsls	r3, r0, #4
 8006d04:	4a03      	ldr	r2, [pc, #12]	; (8006d14 <enq_lock+0x1c>)
 8006d06:	58d3      	ldr	r3, [r2, r3]
 8006d08:	2b00      	cmp	r3, #0
 8006d0a:	d1f7      	bne.n	8006cfc <enq_lock+0x4>
	return (i == _FS_LOCK) ? 0 : 1;
}
 8006d0c:	3802      	subs	r0, #2
 8006d0e:	bf18      	it	ne
 8006d10:	2001      	movne	r0, #1
 8006d12:	4770      	bx	lr
 8006d14:	20000720 	.word	0x20000720

08006d18 <inc_lock>:
static
UINT inc_lock (	/* Increment object open counter and returns its index (0:Internal error) */
	DIR* dp,	/* Directory object pointing the file to register or increment */
	int acc		/* Desired access (0:Read, 1:Write, 2:Delete/Rename) */
)
{
 8006d18:	b470      	push	{r4, r5, r6}
	UINT i;


	for (i = 0; i < _FS_LOCK; i++) {	/* Find the object */
 8006d1a:	2300      	movs	r3, #0
 8006d1c:	e000      	b.n	8006d20 <inc_lock+0x8>
 8006d1e:	3301      	adds	r3, #1
 8006d20:	2b01      	cmp	r3, #1
 8006d22:	d813      	bhi.n	8006d4c <inc_lock+0x34>
		if (Files[i].fs == dp->obj.fs &&
 8006d24:	011a      	lsls	r2, r3, #4
 8006d26:	4c24      	ldr	r4, [pc, #144]	; (8006db8 <inc_lock+0xa0>)
 8006d28:	58a4      	ldr	r4, [r4, r2]
 8006d2a:	6802      	ldr	r2, [r0, #0]
 8006d2c:	4294      	cmp	r4, r2
 8006d2e:	d1f6      	bne.n	8006d1e <inc_lock+0x6>
			Files[i].clu == dp->obj.sclust &&
 8006d30:	4a21      	ldr	r2, [pc, #132]	; (8006db8 <inc_lock+0xa0>)
 8006d32:	eb02 1203 	add.w	r2, r2, r3, lsl #4
 8006d36:	6854      	ldr	r4, [r2, #4]
 8006d38:	6882      	ldr	r2, [r0, #8]
		if (Files[i].fs == dp->obj.fs &&
 8006d3a:	4294      	cmp	r4, r2
 8006d3c:	d1ef      	bne.n	8006d1e <inc_lock+0x6>
			Files[i].ofs == dp->dptr) break;
 8006d3e:	4a1e      	ldr	r2, [pc, #120]	; (8006db8 <inc_lock+0xa0>)
 8006d40:	eb02 1203 	add.w	r2, r2, r3, lsl #4
 8006d44:	6894      	ldr	r4, [r2, #8]
 8006d46:	6942      	ldr	r2, [r0, #20]
			Files[i].clu == dp->obj.sclust &&
 8006d48:	4294      	cmp	r4, r2
 8006d4a:	d1e8      	bne.n	8006d1e <inc_lock+0x6>
	}

	if (i == _FS_LOCK) {				/* Not opened. Register it as new. */
 8006d4c:	2b02      	cmp	r3, #2
 8006d4e:	d00d      	beq.n	8006d6c <inc_lock+0x54>
		Files[i].clu = dp->obj.sclust;
		Files[i].ofs = dp->dptr;
		Files[i].ctr = 0;
	}

	if (acc && Files[i].ctr) return 0;	/* Access violation (int err) */
 8006d50:	b121      	cbz	r1, 8006d5c <inc_lock+0x44>
 8006d52:	4a19      	ldr	r2, [pc, #100]	; (8006db8 <inc_lock+0xa0>)
 8006d54:	eb02 1203 	add.w	r2, r2, r3, lsl #4
 8006d58:	8992      	ldrh	r2, [r2, #12]
 8006d5a:	bb52      	cbnz	r2, 8006db2 <inc_lock+0x9a>

	Files[i].ctr = acc ? 0x100 : Files[i].ctr + 1;	/* Set semaphore value */
 8006d5c:	b9f1      	cbnz	r1, 8006d9c <inc_lock+0x84>
 8006d5e:	4a16      	ldr	r2, [pc, #88]	; (8006db8 <inc_lock+0xa0>)
 8006d60:	eb02 1203 	add.w	r2, r2, r3, lsl #4
 8006d64:	8991      	ldrh	r1, [r2, #12]
 8006d66:	3101      	adds	r1, #1
 8006d68:	b289      	uxth	r1, r1
 8006d6a:	e019      	b.n	8006da0 <inc_lock+0x88>
		for (i = 0; i < _FS_LOCK && Files[i].fs; i++) ;
 8006d6c:	2300      	movs	r3, #0
 8006d6e:	2b01      	cmp	r3, #1
 8006d70:	d805      	bhi.n	8006d7e <inc_lock+0x66>
 8006d72:	011a      	lsls	r2, r3, #4
 8006d74:	4c10      	ldr	r4, [pc, #64]	; (8006db8 <inc_lock+0xa0>)
 8006d76:	58a2      	ldr	r2, [r4, r2]
 8006d78:	b10a      	cbz	r2, 8006d7e <inc_lock+0x66>
 8006d7a:	3301      	adds	r3, #1
 8006d7c:	e7f7      	b.n	8006d6e <inc_lock+0x56>
		if (i == _FS_LOCK) return 0;	/* No free entry to register (int err) */
 8006d7e:	2b02      	cmp	r3, #2
 8006d80:	d015      	beq.n	8006dae <inc_lock+0x96>
		Files[i].fs = dp->obj.fs;
 8006d82:	4d0d      	ldr	r5, [pc, #52]	; (8006db8 <inc_lock+0xa0>)
 8006d84:	011c      	lsls	r4, r3, #4
 8006d86:	eb05 1203 	add.w	r2, r5, r3, lsl #4
 8006d8a:	6806      	ldr	r6, [r0, #0]
 8006d8c:	512e      	str	r6, [r5, r4]
		Files[i].clu = dp->obj.sclust;
 8006d8e:	6884      	ldr	r4, [r0, #8]
 8006d90:	6054      	str	r4, [r2, #4]
		Files[i].ofs = dp->dptr;
 8006d92:	6940      	ldr	r0, [r0, #20]
 8006d94:	6090      	str	r0, [r2, #8]
		Files[i].ctr = 0;
 8006d96:	2000      	movs	r0, #0
 8006d98:	8190      	strh	r0, [r2, #12]
 8006d9a:	e7d9      	b.n	8006d50 <inc_lock+0x38>
	Files[i].ctr = acc ? 0x100 : Files[i].ctr + 1;	/* Set semaphore value */
 8006d9c:	f44f 7180 	mov.w	r1, #256	; 0x100
 8006da0:	4a05      	ldr	r2, [pc, #20]	; (8006db8 <inc_lock+0xa0>)
 8006da2:	eb02 1203 	add.w	r2, r2, r3, lsl #4
 8006da6:	8191      	strh	r1, [r2, #12]

	return i + 1;
 8006da8:	1c58      	adds	r0, r3, #1
}
 8006daa:	bc70      	pop	{r4, r5, r6}
 8006dac:	4770      	bx	lr
		if (i == _FS_LOCK) return 0;	/* No free entry to register (int err) */
 8006dae:	2000      	movs	r0, #0
 8006db0:	e7fb      	b.n	8006daa <inc_lock+0x92>
	if (acc && Files[i].ctr) return 0;	/* Access violation (int err) */
 8006db2:	2000      	movs	r0, #0
 8006db4:	e7f9      	b.n	8006daa <inc_lock+0x92>
 8006db6:	bf00      	nop
 8006db8:	20000720 	.word	0x20000720

08006dbc <dec_lock>:
{
	WORD n;
	FRESULT res;


	if (--i < _FS_LOCK) {	/* Shift index number origin from 0 */
 8006dbc:	3801      	subs	r0, #1
 8006dbe:	2801      	cmp	r0, #1
 8006dc0:	d815      	bhi.n	8006dee <dec_lock+0x32>
		n = Files[i].ctr;
 8006dc2:	4b0d      	ldr	r3, [pc, #52]	; (8006df8 <dec_lock+0x3c>)
 8006dc4:	eb03 1300 	add.w	r3, r3, r0, lsl #4
 8006dc8:	899b      	ldrh	r3, [r3, #12]
		if (n == 0x100) n = 0;		/* If write mode open, delete the entry */
 8006dca:	f5b3 7f80 	cmp.w	r3, #256	; 0x100
 8006dce:	d003      	beq.n	8006dd8 <dec_lock+0x1c>
		if (n > 0) n--;				/* Decrement read mode open count */
 8006dd0:	b11b      	cbz	r3, 8006dda <dec_lock+0x1e>
 8006dd2:	3b01      	subs	r3, #1
 8006dd4:	b29b      	uxth	r3, r3
 8006dd6:	e000      	b.n	8006dda <dec_lock+0x1e>
		if (n == 0x100) n = 0;		/* If write mode open, delete the entry */
 8006dd8:	2300      	movs	r3, #0
		Files[i].ctr = n;
 8006dda:	4a07      	ldr	r2, [pc, #28]	; (8006df8 <dec_lock+0x3c>)
 8006ddc:	eb02 1200 	add.w	r2, r2, r0, lsl #4
 8006de0:	8193      	strh	r3, [r2, #12]
		if (n == 0) Files[i].fs = 0;	/* Delete the entry if open count gets zero */
 8006de2:	b933      	cbnz	r3, 8006df2 <dec_lock+0x36>
 8006de4:	0103      	lsls	r3, r0, #4
 8006de6:	2000      	movs	r0, #0
 8006de8:	4a03      	ldr	r2, [pc, #12]	; (8006df8 <dec_lock+0x3c>)
 8006dea:	50d0      	str	r0, [r2, r3]
 8006dec:	4770      	bx	lr
		res = FR_OK;
	} else {
		res = FR_INT_ERR;			/* Invalid index nunber */
 8006dee:	2002      	movs	r0, #2
 8006df0:	4770      	bx	lr
		res = FR_OK;
 8006df2:	2000      	movs	r0, #0
	}
	return res;
}
 8006df4:	4770      	bx	lr
 8006df6:	bf00      	nop
 8006df8:	20000720 	.word	0x20000720

08006dfc <clear_lock>:
	FATFS *fs
)
{
	UINT i;

	for (i = 0; i < _FS_LOCK; i++) {
 8006dfc:	2300      	movs	r3, #0
 8006dfe:	e003      	b.n	8006e08 <clear_lock+0xc>
		if (Files[i].fs == fs) Files[i].fs = 0;
	}
}
 8006e00:	f85d 4b04 	ldr.w	r4, [sp], #4
 8006e04:	4770      	bx	lr
	for (i = 0; i < _FS_LOCK; i++) {
 8006e06:	3301      	adds	r3, #1
 8006e08:	2b01      	cmp	r3, #1
 8006e0a:	d811      	bhi.n	8006e30 <clear_lock+0x34>
		if (Files[i].fs == fs) Files[i].fs = 0;
 8006e0c:	011a      	lsls	r2, r3, #4
 8006e0e:	4909      	ldr	r1, [pc, #36]	; (8006e34 <clear_lock+0x38>)
 8006e10:	588a      	ldr	r2, [r1, r2]
 8006e12:	4282      	cmp	r2, r0
 8006e14:	d1f7      	bne.n	8006e06 <clear_lock+0xa>
{
 8006e16:	b410      	push	{r4}
		if (Files[i].fs == fs) Files[i].fs = 0;
 8006e18:	011a      	lsls	r2, r3, #4
 8006e1a:	2400      	movs	r4, #0
 8006e1c:	508c      	str	r4, [r1, r2]
	for (i = 0; i < _FS_LOCK; i++) {
 8006e1e:	3301      	adds	r3, #1
 8006e20:	2b01      	cmp	r3, #1
 8006e22:	d8ed      	bhi.n	8006e00 <clear_lock+0x4>
		if (Files[i].fs == fs) Files[i].fs = 0;
 8006e24:	011a      	lsls	r2, r3, #4
 8006e26:	4903      	ldr	r1, [pc, #12]	; (8006e34 <clear_lock+0x38>)
 8006e28:	588a      	ldr	r2, [r1, r2]
 8006e2a:	4282      	cmp	r2, r0
 8006e2c:	d1f7      	bne.n	8006e1e <clear_lock+0x22>
 8006e2e:	e7f3      	b.n	8006e18 <clear_lock+0x1c>
 8006e30:	4770      	bx	lr
 8006e32:	bf00      	nop
 8006e34:	20000720 	.word	0x20000720

08006e38 <clust2sect>:
DWORD clust2sect (	/* !=0:Sector number, 0:Failed (invalid cluster#) */
	FATFS* fs,		/* File system object */
	DWORD clst		/* Cluster# to be converted */
)
{
	clst -= 2;
 8006e38:	3902      	subs	r1, #2
	if (clst >= fs->n_fatent - 2) return 0;		/* Invalid cluster# */
 8006e3a:	6983      	ldr	r3, [r0, #24]
 8006e3c:	3b02      	subs	r3, #2
 8006e3e:	428b      	cmp	r3, r1
 8006e40:	d904      	bls.n	8006e4c <clust2sect+0x14>
	return clst * fs->csize + fs->database;
 8006e42:	8943      	ldrh	r3, [r0, #10]
 8006e44:	6ac0      	ldr	r0, [r0, #44]	; 0x2c
 8006e46:	fb01 0003 	mla	r0, r1, r3, r0
 8006e4a:	4770      	bx	lr
	if (clst >= fs->n_fatent - 2) return 0;		/* Invalid cluster# */
 8006e4c:	2000      	movs	r0, #0
}
 8006e4e:	4770      	bx	lr

08006e50 <ld_clust>:
static
DWORD ld_clust (	/* Returns the top cluster value of the SFN entry */
	FATFS* fs,		/* Pointer to the fs object */
	const BYTE* dir	/* Pointer to the key entry */
)
{
 8006e50:	b570      	push	{r4, r5, r6, lr}
 8006e52:	4606      	mov	r6, r0
 8006e54:	460d      	mov	r5, r1
	DWORD cl;

	cl = ld_word(dir + DIR_FstClusLO);
 8006e56:	f101 001a 	add.w	r0, r1, #26
 8006e5a:	f7ff fecd 	bl	8006bf8 <ld_word>
	if (fs->fs_type == FS_FAT32) {
 8006e5e:	7833      	ldrb	r3, [r6, #0]
 8006e60:	2b03      	cmp	r3, #3
 8006e62:	d000      	beq.n	8006e66 <ld_clust+0x16>
		cl |= (DWORD)ld_word(dir + DIR_FstClusHI) << 16;
	}

	return cl;
}
 8006e64:	bd70      	pop	{r4, r5, r6, pc}
 8006e66:	4604      	mov	r4, r0
		cl |= (DWORD)ld_word(dir + DIR_FstClusHI) << 16;
 8006e68:	f105 0014 	add.w	r0, r5, #20
 8006e6c:	f7ff fec4 	bl	8006bf8 <ld_word>
 8006e70:	ea44 4000 	orr.w	r0, r4, r0, lsl #16
	return cl;
 8006e74:	e7f6      	b.n	8006e64 <ld_clust+0x14>

08006e76 <st_clust>:
void st_clust (
	FATFS* fs,	/* Pointer to the fs object */
	BYTE* dir,	/* Pointer to the key entry */
	DWORD cl	/* Value to be set */
)
{
 8006e76:	b570      	push	{r4, r5, r6, lr}
 8006e78:	4606      	mov	r6, r0
 8006e7a:	460c      	mov	r4, r1
 8006e7c:	4615      	mov	r5, r2
	st_word(dir + DIR_FstClusLO, (WORD)cl);
 8006e7e:	b291      	uxth	r1, r2
 8006e80:	f104 001a 	add.w	r0, r4, #26
 8006e84:	f7ff fec8 	bl	8006c18 <st_word>
	if (fs->fs_type == FS_FAT32) {
 8006e88:	7833      	ldrb	r3, [r6, #0]
 8006e8a:	2b03      	cmp	r3, #3
 8006e8c:	d000      	beq.n	8006e90 <st_clust+0x1a>
		st_word(dir + DIR_FstClusHI, (WORD)(cl >> 16));
	}
}
 8006e8e:	bd70      	pop	{r4, r5, r6, pc}
		st_word(dir + DIR_FstClusHI, (WORD)(cl >> 16));
 8006e90:	0c29      	lsrs	r1, r5, #16
 8006e92:	f104 0014 	add.w	r0, r4, #20
 8006e96:	f7ff febf 	bl	8006c18 <st_word>
}
 8006e9a:	e7f8      	b.n	8006e8e <st_clust+0x18>

08006e9c <pick_lfn>:
static
int pick_lfn (			/* 1:succeeded, 0:buffer overflow or invalid LFN entry */
	WCHAR* lfnbuf,		/* Pointer to the LFN working buffer */
	BYTE* dir			/* Pointer to the LFN entry */
)
{
 8006e9c:	e92d 41f0 	stmdb	sp!, {r4, r5, r6, r7, r8, lr}
 8006ea0:	4680      	mov	r8, r0
 8006ea2:	460e      	mov	r6, r1
	UINT i, s;
	WCHAR wc, uc;


	if (ld_word(dir + LDIR_FstClusLO) != 0) return 0;	/* Check LDIR_FstClusLO is 0 */
 8006ea4:	f101 001a 	add.w	r0, r1, #26
 8006ea8:	f7ff fea6 	bl	8006bf8 <ld_word>
 8006eac:	bb50      	cbnz	r0, 8006f04 <pick_lfn+0x68>

	i = ((dir[LDIR_Ord] & ~LLEF) - 1) * 13;	/* Offset in the LFN buffer */
 8006eae:	7835      	ldrb	r5, [r6, #0]
 8006eb0:	f025 0540 	bic.w	r5, r5, #64	; 0x40
 8006eb4:	3d01      	subs	r5, #1
 8006eb6:	eb05 0345 	add.w	r3, r5, r5, lsl #1
 8006eba:	eb05 0583 	add.w	r5, r5, r3, lsl #2

	for (wc = 1, s = 0; s < 13; s++) {		/* Process all characters in the entry */
 8006ebe:	2701      	movs	r7, #1
 8006ec0:	2400      	movs	r4, #0
 8006ec2:	e004      	b.n	8006ece <pick_lfn+0x32>
		uc = ld_word(dir + LfnOfs[s]);		/* Pick an LFN character */
		if (wc) {
			if (i >= _MAX_LFN) return 0;	/* Buffer overflow? */
			lfnbuf[i++] = wc = uc;			/* Store it */
		} else {
			if (uc != 0xFFFF) return 0;		/* Check filler */
 8006ec4:	f64f 73ff 	movw	r3, #65535	; 0xffff
 8006ec8:	4298      	cmp	r0, r3
 8006eca:	d120      	bne.n	8006f0e <pick_lfn+0x72>
	for (wc = 1, s = 0; s < 13; s++) {		/* Process all characters in the entry */
 8006ecc:	3401      	adds	r4, #1
 8006ece:	2c0c      	cmp	r4, #12
 8006ed0:	d80d      	bhi.n	8006eee <pick_lfn+0x52>
		uc = ld_word(dir + LfnOfs[s]);		/* Pick an LFN character */
 8006ed2:	4b12      	ldr	r3, [pc, #72]	; (8006f1c <pick_lfn+0x80>)
 8006ed4:	5d18      	ldrb	r0, [r3, r4]
 8006ed6:	4430      	add	r0, r6
 8006ed8:	f7ff fe8e 	bl	8006bf8 <ld_word>
		if (wc) {
 8006edc:	2f00      	cmp	r7, #0
 8006ede:	d0f1      	beq.n	8006ec4 <pick_lfn+0x28>
			if (i >= _MAX_LFN) return 0;	/* Buffer overflow? */
 8006ee0:	2dfe      	cmp	r5, #254	; 0xfe
 8006ee2:	d812      	bhi.n	8006f0a <pick_lfn+0x6e>
			lfnbuf[i++] = wc = uc;			/* Store it */
 8006ee4:	f828 0015 	strh.w	r0, [r8, r5, lsl #1]
 8006ee8:	4607      	mov	r7, r0
 8006eea:	3501      	adds	r5, #1
 8006eec:	e7ee      	b.n	8006ecc <pick_lfn+0x30>
		}
	}

	if (dir[LDIR_Ord] & LLEF) {				/* Put terminator if it is the last LFN part */
 8006eee:	7833      	ldrb	r3, [r6, #0]
 8006ef0:	f013 0f40 	tst.w	r3, #64	; 0x40
 8006ef4:	d00d      	beq.n	8006f12 <pick_lfn+0x76>
		if (i >= _MAX_LFN) return 0;		/* Buffer overflow? */
 8006ef6:	2dfe      	cmp	r5, #254	; 0xfe
 8006ef8:	d80d      	bhi.n	8006f16 <pick_lfn+0x7a>
		lfnbuf[i] = 0;
 8006efa:	2300      	movs	r3, #0
 8006efc:	f828 3015 	strh.w	r3, [r8, r5, lsl #1]
	}

	return 1;		/* The part of LFN is valid */
 8006f00:	2001      	movs	r0, #1
 8006f02:	e000      	b.n	8006f06 <pick_lfn+0x6a>
	if (ld_word(dir + LDIR_FstClusLO) != 0) return 0;	/* Check LDIR_FstClusLO is 0 */
 8006f04:	2000      	movs	r0, #0
}
 8006f06:	e8bd 81f0 	ldmia.w	sp!, {r4, r5, r6, r7, r8, pc}
			if (i >= _MAX_LFN) return 0;	/* Buffer overflow? */
 8006f0a:	2000      	movs	r0, #0
 8006f0c:	e7fb      	b.n	8006f06 <pick_lfn+0x6a>
			if (uc != 0xFFFF) return 0;		/* Check filler */
 8006f0e:	2000      	movs	r0, #0
 8006f10:	e7f9      	b.n	8006f06 <pick_lfn+0x6a>
	return 1;		/* The part of LFN is valid */
 8006f12:	2001      	movs	r0, #1
 8006f14:	e7f7      	b.n	8006f06 <pick_lfn+0x6a>
		if (i >= _MAX_LFN) return 0;		/* Buffer overflow? */
 8006f16:	2000      	movs	r0, #0
 8006f18:	e7f5      	b.n	8006f06 <pick_lfn+0x6a>
 8006f1a:	bf00      	nop
 8006f1c:	08008b64 	.word	0x08008b64

08006f20 <put_lfn>:
	const WCHAR* lfn,	/* Pointer to the LFN */
	BYTE* dir,			/* Pointer to the LFN entry to be created */
	BYTE ord,			/* LFN order (1-20) */
	BYTE sum			/* Checksum of the corresponding SFN */
)
{
 8006f20:	e92d 43f8 	stmdb	sp!, {r3, r4, r5, r6, r7, r8, r9, lr}
 8006f24:	4680      	mov	r8, r0
 8006f26:	460f      	mov	r7, r1
 8006f28:	4691      	mov	r9, r2
	UINT i, s;
	WCHAR wc;


	dir[LDIR_Chksum] = sum;			/* Set checksum */
 8006f2a:	734b      	strb	r3, [r1, #13]
	dir[LDIR_Attr] = AM_LFN;		/* Set attribute. LFN entry */
 8006f2c:	230f      	movs	r3, #15
 8006f2e:	72cb      	strb	r3, [r1, #11]
	dir[LDIR_Type] = 0;
 8006f30:	2400      	movs	r4, #0
 8006f32:	730c      	strb	r4, [r1, #12]
	st_word(dir + LDIR_FstClusLO, 0);
 8006f34:	4621      	mov	r1, r4
 8006f36:	f107 001a 	add.w	r0, r7, #26
 8006f3a:	f7ff fe6d 	bl	8006c18 <st_word>

	i = (ord - 1) * 13;				/* Get offset in the LFN working buffer */
 8006f3e:	f109 36ff 	add.w	r6, r9, #4294967295	; 0xffffffff
 8006f42:	eb06 0346 	add.w	r3, r6, r6, lsl #1
 8006f46:	eb06 0683 	add.w	r6, r6, r3, lsl #2
	s = wc = 0;
 8006f4a:	4625      	mov	r5, r4
 8006f4c:	e002      	b.n	8006f54 <put_lfn+0x34>
	do {
		if (wc != 0xFFFF) wc = lfn[i++];	/* Get an effective character */
		st_word(dir + LfnOfs[s], wc);		/* Put it */
		if (wc == 0) wc = 0xFFFF;		/* Padding characters for left locations */
	} while (++s < 13);
 8006f4e:	3401      	adds	r4, #1
 8006f50:	2c0c      	cmp	r4, #12
 8006f52:	d811      	bhi.n	8006f78 <put_lfn+0x58>
		if (wc != 0xFFFF) wc = lfn[i++];	/* Get an effective character */
 8006f54:	f64f 73ff 	movw	r3, #65535	; 0xffff
 8006f58:	429d      	cmp	r5, r3
 8006f5a:	d002      	beq.n	8006f62 <put_lfn+0x42>
 8006f5c:	f838 5016 	ldrh.w	r5, [r8, r6, lsl #1]
 8006f60:	3601      	adds	r6, #1
		st_word(dir + LfnOfs[s], wc);		/* Put it */
 8006f62:	4b0c      	ldr	r3, [pc, #48]	; (8006f94 <put_lfn+0x74>)
 8006f64:	5d18      	ldrb	r0, [r3, r4]
 8006f66:	4629      	mov	r1, r5
 8006f68:	4438      	add	r0, r7
 8006f6a:	f7ff fe55 	bl	8006c18 <st_word>
		if (wc == 0) wc = 0xFFFF;		/* Padding characters for left locations */
 8006f6e:	2d00      	cmp	r5, #0
 8006f70:	d1ed      	bne.n	8006f4e <put_lfn+0x2e>
 8006f72:	f64f 75ff 	movw	r5, #65535	; 0xffff
 8006f76:	e7ea      	b.n	8006f4e <put_lfn+0x2e>
	if (wc == 0xFFFF || !lfn[i]) ord |= LLEF;	/* Last LFN part is the start of LFN sequence */
 8006f78:	f64f 73ff 	movw	r3, #65535	; 0xffff
 8006f7c:	429d      	cmp	r5, r3
 8006f7e:	d002      	beq.n	8006f86 <put_lfn+0x66>
 8006f80:	f838 3016 	ldrh.w	r3, [r8, r6, lsl #1]
 8006f84:	b90b      	cbnz	r3, 8006f8a <put_lfn+0x6a>
 8006f86:	f049 0940 	orr.w	r9, r9, #64	; 0x40
	dir[LDIR_Ord] = ord;			/* Set the LFN order */
 8006f8a:	f887 9000 	strb.w	r9, [r7]
}
 8006f8e:	e8bd 83f8 	ldmia.w	sp!, {r3, r4, r5, r6, r7, r8, r9, pc}
 8006f92:	bf00      	nop
 8006f94:	08008b64 	.word	0x08008b64

08006f98 <gen_numname>:
	BYTE* dst,			/* Pointer to the buffer to store numbered SFN */
	const BYTE* src,	/* Pointer to SFN */
	const WCHAR* lfn,	/* Pointer to LFN */
	UINT seq			/* Sequence number */
)
{
 8006f98:	b570      	push	{r4, r5, r6, lr}
 8006f9a:	b082      	sub	sp, #8
 8006f9c:	4605      	mov	r5, r0
 8006f9e:	4616      	mov	r6, r2
 8006fa0:	461c      	mov	r4, r3
	UINT i, j;
	WCHAR wc;
	DWORD sr;


	mem_cpy(dst, src, 11);
 8006fa2:	220b      	movs	r2, #11
 8006fa4:	f7ff fe46 	bl	8006c34 <mem_cpy>

	if (seq > 5) {	/* In case of many collisions, generate a hash number instead of sequential number */
 8006fa8:	2c05      	cmp	r4, #5
 8006faa:	d811      	bhi.n	8006fd0 <gen_numname+0x38>
		sr = seq;
		while (*lfn) {	/* Create a CRC */
			wc = *lfn++;
			for (i = 0; i < 16; i++) {
 8006fac:	2307      	movs	r3, #7
 8006fae:	e01f      	b.n	8006ff0 <gen_numname+0x58>
 8006fb0:	3101      	adds	r1, #1
 8006fb2:	290f      	cmp	r1, #15
 8006fb4:	d80c      	bhi.n	8006fd0 <gen_numname+0x38>
				sr = (sr << 1) + (wc & 1);
 8006fb6:	f003 0c01 	and.w	ip, r3, #1
 8006fba:	eb0c 0444 	add.w	r4, ip, r4, lsl #1
				wc >>= 1;
 8006fbe:	085b      	lsrs	r3, r3, #1
				if (sr & 0x10000) sr ^= 0x11021;
 8006fc0:	f414 3f80 	tst.w	r4, #65536	; 0x10000
 8006fc4:	d0f4      	beq.n	8006fb0 <gen_numname+0x18>
 8006fc6:	f484 3488 	eor.w	r4, r4, #69632	; 0x11000
 8006fca:	f084 0421 	eor.w	r4, r4, #33	; 0x21
 8006fce:	e7ef      	b.n	8006fb0 <gen_numname+0x18>
		while (*lfn) {	/* Create a CRC */
 8006fd0:	8833      	ldrh	r3, [r6, #0]
 8006fd2:	2b00      	cmp	r3, #0
 8006fd4:	d0ea      	beq.n	8006fac <gen_numname+0x14>
			wc = *lfn++;
 8006fd6:	3602      	adds	r6, #2
			for (i = 0; i < 16; i++) {
 8006fd8:	2100      	movs	r1, #0
 8006fda:	e7ea      	b.n	8006fb2 <gen_numname+0x1a>
	/* itoa (hexdecimal) */
	i = 7;
	do {
		c = (BYTE)((seq % 16) + '0');
		if (c > '9') c += 7;
		ns[i--] = c;
 8006fdc:	1e5a      	subs	r2, r3, #1
 8006fde:	3308      	adds	r3, #8
 8006fe0:	446b      	add	r3, sp
 8006fe2:	f803 1c08 	strb.w	r1, [r3, #-8]
		seq /= 16;
 8006fe6:	0921      	lsrs	r1, r4, #4
	} while (seq);
 8006fe8:	2c0f      	cmp	r4, #15
 8006fea:	d90a      	bls.n	8007002 <gen_numname+0x6a>
		ns[i--] = c;
 8006fec:	4613      	mov	r3, r2
		seq /= 16;
 8006fee:	460c      	mov	r4, r1
		c = (BYTE)((seq % 16) + '0');
 8006ff0:	f004 020f 	and.w	r2, r4, #15
 8006ff4:	f102 0130 	add.w	r1, r2, #48	; 0x30
		if (c > '9') c += 7;
 8006ff8:	2939      	cmp	r1, #57	; 0x39
 8006ffa:	d9ef      	bls.n	8006fdc <gen_numname+0x44>
 8006ffc:	f102 0137 	add.w	r1, r2, #55	; 0x37
 8007000:	e7ec      	b.n	8006fdc <gen_numname+0x44>
	ns[i] = '~';
 8007002:	217e      	movs	r1, #126	; 0x7e
 8007004:	f102 0308 	add.w	r3, r2, #8
 8007008:	446b      	add	r3, sp
 800700a:	f803 1c08 	strb.w	r1, [r3, #-8]

	/* Append the number */
	for (j = 0; j < i && dst[j] != ' '; j++) {
 800700e:	2300      	movs	r3, #0
 8007010:	e000      	b.n	8007014 <gen_numname+0x7c>
 8007012:	3301      	adds	r3, #1
 8007014:	4293      	cmp	r3, r2
 8007016:	d209      	bcs.n	800702c <gen_numname+0x94>
 8007018:	5ce9      	ldrb	r1, [r5, r3]
 800701a:	2920      	cmp	r1, #32
 800701c:	d1f9      	bne.n	8007012 <gen_numname+0x7a>
 800701e:	e005      	b.n	800702c <gen_numname+0x94>
			if (j == i - 1) break;
			j++;
		}
	}
	do {
		dst[j++] = (i < 8) ? ns[i++] : ' ';
 8007020:	2020      	movs	r0, #32
 8007022:	1c59      	adds	r1, r3, #1
 8007024:	54e8      	strb	r0, [r5, r3]
	} while (j < 8);
 8007026:	2907      	cmp	r1, #7
 8007028:	d809      	bhi.n	800703e <gen_numname+0xa6>
		dst[j++] = (i < 8) ? ns[i++] : ' ';
 800702a:	460b      	mov	r3, r1
 800702c:	2a07      	cmp	r2, #7
 800702e:	d8f7      	bhi.n	8007020 <gen_numname+0x88>
 8007030:	f102 0108 	add.w	r1, r2, #8
 8007034:	4469      	add	r1, sp
 8007036:	f811 0c08 	ldrb.w	r0, [r1, #-8]
 800703a:	3201      	adds	r2, #1
 800703c:	e7f1      	b.n	8007022 <gen_numname+0x8a>
}
 800703e:	b002      	add	sp, #8
 8007040:	bd70      	pop	{r4, r5, r6, pc}

08007042 <sum_sfn>:

static
BYTE sum_sfn (
	const BYTE* dir		/* Pointer to the SFN entry */
)
{
 8007042:	4601      	mov	r1, r0
	BYTE sum = 0;
	UINT n = 11;
 8007044:	f04f 0c0b 	mov.w	ip, #11
	BYTE sum = 0;
 8007048:	2000      	movs	r0, #0

	do {
		sum = (sum >> 1) + (sum << 7) + *dir++;
 800704a:	01c3      	lsls	r3, r0, #7
 800704c:	ea43 0350 	orr.w	r3, r3, r0, lsr #1
 8007050:	7808      	ldrb	r0, [r1, #0]
 8007052:	3101      	adds	r1, #1
 8007054:	fa50 f383 	uxtab	r3, r0, r3
 8007058:	b2d8      	uxtb	r0, r3
	} while (--n);
 800705a:	f1bc 0c01 	subs.w	ip, ip, #1
 800705e:	d1f4      	bne.n	800704a <sum_sfn+0x8>
	return sum;
}
 8007060:	4770      	bx	lr
	...

08007064 <get_achar>:
)
{
#if !_LFN_UNICODE
	WCHAR chr;

	chr = (BYTE)*(*ptr)++;					/* Get a byte */
 8007064:	6803      	ldr	r3, [r0, #0]
 8007066:	1c5a      	adds	r2, r3, #1
 8007068:	6002      	str	r2, [r0, #0]
 800706a:	7818      	ldrb	r0, [r3, #0]
	if (IsLower(chr)) chr -= 0x20;			/* To upper ASCII char */
 800706c:	f1a0 0361 	sub.w	r3, r0, #97	; 0x61
 8007070:	b29b      	uxth	r3, r3
 8007072:	2b19      	cmp	r3, #25
 8007074:	d801      	bhi.n	800707a <get_achar+0x16>
 8007076:	3820      	subs	r0, #32
 8007078:	b280      	uxth	r0, r0
#ifdef _EXCVT
	if (chr >= 0x80) chr = ExCvt[chr - 0x80];	/* To upper SBCS extended char */
 800707a:	287f      	cmp	r0, #127	; 0x7f
 800707c:	d902      	bls.n	8007084 <get_achar+0x20>
 800707e:	3880      	subs	r0, #128	; 0x80
 8007080:	4b01      	ldr	r3, [pc, #4]	; (8007088 <get_achar+0x24>)
 8007082:	5c18      	ldrb	r0, [r3, r0]
#endif
	return chr;
#else
	return ff_wtoupper(*(*ptr)++);			/* Get a word and to upper */
#endif
}
 8007084:	4770      	bx	lr
 8007086:	bf00      	nop
 8007088:	08008ae4 	.word	0x08008ae4

0800708c <pattern_matching>:
	const TCHAR* pat,	/* Matching pattern */
	const TCHAR* nam,	/* String to be tested */
	int skip,			/* Number of pre-skip chars (number of ?s) */
	int inf				/* Infinite search (* specified) */
)
{
 800708c:	e92d 41f0 	stmdb	sp!, {r4, r5, r6, r7, r8, lr}
 8007090:	b084      	sub	sp, #16
 8007092:	4607      	mov	r7, r0
 8007094:	9101      	str	r1, [sp, #4]
 8007096:	4614      	mov	r4, r2
 8007098:	4698      	mov	r8, r3
	const TCHAR *pp, *np;
	WCHAR pc, nc;
	int nm, nx;


	while (skip--) {				/* Pre-skip name chars */
 800709a:	4626      	mov	r6, r4
 800709c:	3c01      	subs	r4, #1
 800709e:	b14e      	cbz	r6, 80070b4 <pattern_matching+0x28>
		if (!get_achar(&nam)) return 0;	/* Branch mismatched if less name chars */
 80070a0:	a801      	add	r0, sp, #4
 80070a2:	f7ff ffdf 	bl	8007064 <get_achar>
 80070a6:	2800      	cmp	r0, #0
 80070a8:	d1f7      	bne.n	800709a <pattern_matching+0xe>
 80070aa:	2600      	movs	r6, #0
		}
		get_achar(&nam);			/* nam++ */
	} while (inf && nc);			/* Retry until end of name if infinite search is specified */

	return 0;
}
 80070ac:	4630      	mov	r0, r6
 80070ae:	b004      	add	sp, #16
 80070b0:	e8bd 81f0 	ldmia.w	sp!, {r4, r5, r6, r7, r8, pc}
	if (!*pat && inf) return 1;		/* (short circuit) */
 80070b4:	783b      	ldrb	r3, [r7, #0]
 80070b6:	bb1b      	cbnz	r3, 8007100 <pattern_matching+0x74>
 80070b8:	f1b8 0f00 	cmp.w	r8, #0
 80070bc:	d020      	beq.n	8007100 <pattern_matching+0x74>
 80070be:	2601      	movs	r6, #1
 80070c0:	e7f4      	b.n	80070ac <pattern_matching+0x20>
				nm = nx = 0;
 80070c2:	4633      	mov	r3, r6
 80070c4:	4632      	mov	r2, r6
 80070c6:	e005      	b.n	80070d4 <pattern_matching+0x48>
					if (*pp++ == '?') nm++; else nx = 1;
 80070c8:	3201      	adds	r2, #1
				} while (*pp == '?' || *pp == '*');
 80070ca:	7849      	ldrb	r1, [r1, #1]
 80070cc:	292a      	cmp	r1, #42	; 0x2a
 80070ce:	bf18      	it	ne
 80070d0:	293f      	cmpne	r1, #63	; 0x3f
 80070d2:	d107      	bne.n	80070e4 <pattern_matching+0x58>
					if (*pp++ == '?') nm++; else nx = 1;
 80070d4:	9903      	ldr	r1, [sp, #12]
 80070d6:	1c48      	adds	r0, r1, #1
 80070d8:	9003      	str	r0, [sp, #12]
 80070da:	780c      	ldrb	r4, [r1, #0]
 80070dc:	2c3f      	cmp	r4, #63	; 0x3f
 80070de:	d0f3      	beq.n	80070c8 <pattern_matching+0x3c>
 80070e0:	2301      	movs	r3, #1
 80070e2:	e7f2      	b.n	80070ca <pattern_matching+0x3e>
				if (pattern_matching(pp, np, nm, nx)) return 1;	/* Test new branch (recurs upto number of wildcard blocks in the pattern) */
 80070e4:	9902      	ldr	r1, [sp, #8]
 80070e6:	f7ff ffd1 	bl	800708c <pattern_matching>
 80070ea:	bb00      	cbnz	r0, 800712e <pattern_matching+0xa2>
				nc = *np; break;	/* Branch mismatched */
 80070ec:	9b02      	ldr	r3, [sp, #8]
 80070ee:	781d      	ldrb	r5, [r3, #0]
		get_achar(&nam);			/* nam++ */
 80070f0:	a801      	add	r0, sp, #4
 80070f2:	f7ff ffb7 	bl	8007064 <get_achar>
	} while (inf && nc);			/* Retry until end of name if infinite search is specified */
 80070f6:	f1b8 0f00 	cmp.w	r8, #0
 80070fa:	bf18      	it	ne
 80070fc:	2d00      	cmpne	r5, #0
 80070fe:	d0d5      	beq.n	80070ac <pattern_matching+0x20>
		pp = pat; np = nam;			/* Top of pattern and name to match */
 8007100:	9703      	str	r7, [sp, #12]
 8007102:	9b01      	ldr	r3, [sp, #4]
 8007104:	9302      	str	r3, [sp, #8]
			if (*pp == '?' || *pp == '*') {	/* Wildcard? */
 8007106:	9b03      	ldr	r3, [sp, #12]
 8007108:	781b      	ldrb	r3, [r3, #0]
 800710a:	2b2a      	cmp	r3, #42	; 0x2a
 800710c:	bf18      	it	ne
 800710e:	2b3f      	cmpne	r3, #63	; 0x3f
 8007110:	d0d7      	beq.n	80070c2 <pattern_matching+0x36>
			pc = get_achar(&pp);	/* Get a pattern char */
 8007112:	a803      	add	r0, sp, #12
 8007114:	f7ff ffa6 	bl	8007064 <get_achar>
 8007118:	4604      	mov	r4, r0
			nc = get_achar(&np);	/* Get a name char */
 800711a:	a802      	add	r0, sp, #8
 800711c:	f7ff ffa2 	bl	8007064 <get_achar>
 8007120:	4605      	mov	r5, r0
			if (pc != nc) break;	/* Branch mismatched? */
 8007122:	4284      	cmp	r4, r0
 8007124:	d1e4      	bne.n	80070f0 <pattern_matching+0x64>
			if (pc == 0) return 1;	/* Branch matched? (matched at end of both strings) */
 8007126:	2c00      	cmp	r4, #0
 8007128:	d1ed      	bne.n	8007106 <pattern_matching+0x7a>
 800712a:	2601      	movs	r6, #1
 800712c:	e7be      	b.n	80070ac <pattern_matching+0x20>
				if (pattern_matching(pp, np, nm, nx)) return 1;	/* Test new branch (recurs upto number of wildcard blocks in the pattern) */
 800712e:	2601      	movs	r6, #1
 8007130:	e7bc      	b.n	80070ac <pattern_matching+0x20>

08007132 <get_ldnumber>:

static
int get_ldnumber (		/* Returns logical drive number (-1:invalid drive) */
	const TCHAR** path	/* Pointer to pointer to the path name */
)
{
 8007132:	4601      	mov	r1, r0
	char c;
	TCHAR tc;
#endif


	if (*path) {	/* If the pointer is not a null */
 8007134:	6800      	ldr	r0, [r0, #0]
 8007136:	b108      	cbz	r0, 800713c <get_ldnumber+0xa>
		for (tt = *path; (UINT)*tt >= (_USE_LFN ? ' ' : '!') && *tt != ':'; tt++) ;	/* Find ':' in the path */
 8007138:	4602      	mov	r2, r0
 800713a:	e003      	b.n	8007144 <get_ldnumber+0x12>
	int vol = -1;
 800713c:	f04f 30ff 	mov.w	r0, #4294967295	; 0xffffffff
 8007140:	4770      	bx	lr
		for (tt = *path; (UINT)*tt >= (_USE_LFN ? ' ' : '!') && *tt != ':'; tt++) ;	/* Find ':' in the path */
 8007142:	3201      	adds	r2, #1
 8007144:	7813      	ldrb	r3, [r2, #0]
 8007146:	2b3a      	cmp	r3, #58	; 0x3a
 8007148:	bf18      	it	ne
 800714a:	2b1f      	cmpne	r3, #31
 800714c:	d8f9      	bhi.n	8007142 <get_ldnumber+0x10>
		if (*tt == ':') {	/* If a ':' is exist in the path name */
 800714e:	2b3a      	cmp	r3, #58	; 0x3a
 8007150:	d001      	beq.n	8007156 <get_ldnumber+0x24>
			return vol;
		}
#if _FS_RPATH != 0 && _VOLUMES >= 2
		vol = CurrVol;	/* Current drive */
#else
		vol = 0;		/* Drive 0 */
 8007152:	2000      	movs	r0, #0
#endif
	}
	return vol;
}
 8007154:	4770      	bx	lr
			i = *tp++ - '0';
 8007156:	4603      	mov	r3, r0
 8007158:	f813 0b01 	ldrb.w	r0, [r3], #1
 800715c:	3830      	subs	r0, #48	; 0x30
			if (i < 10 && tp == tt) {	/* Is there a numeric drive id? */
 800715e:	2809      	cmp	r0, #9
 8007160:	bf98      	it	ls
 8007162:	429a      	cmpls	r2, r3
 8007164:	d103      	bne.n	800716e <get_ldnumber+0x3c>
				if (i < _VOLUMES) {	/* If a drive id is found, get the value and strip it */
 8007166:	b928      	cbnz	r0, 8007174 <get_ldnumber+0x42>
					*path = ++tt;
 8007168:	3201      	adds	r2, #1
 800716a:	600a      	str	r2, [r1, #0]
 800716c:	4770      	bx	lr
	int vol = -1;
 800716e:	f04f 30ff 	mov.w	r0, #4294967295	; 0xffffffff
 8007172:	4770      	bx	lr
 8007174:	f04f 30ff 	mov.w	r0, #4294967295	; 0xffffffff
			return vol;
 8007178:	4770      	bx	lr

0800717a <validate>:
static
FRESULT validate (	/* Returns FR_OK or FR_INVALID_OBJECT */
	_FDID* obj,		/* Pointer to the _OBJ, the 1st member in the FIL/DIR object, to check validity */
	FATFS** fs		/* Pointer to pointer to the owner file system object to return */
)
{
 800717a:	b538      	push	{r3, r4, r5, lr}
 800717c:	460d      	mov	r5, r1
	FRESULT res = FR_INVALID_OBJECT;


	if (obj && obj->fs && obj->fs->fs_type && obj->id == obj->fs->id) {	/* Test if the object is valid */
 800717e:	4604      	mov	r4, r0
 8007180:	b198      	cbz	r0, 80071aa <validate+0x30>
 8007182:	6803      	ldr	r3, [r0, #0]
 8007184:	b19b      	cbz	r3, 80071ae <validate+0x34>
 8007186:	781a      	ldrb	r2, [r3, #0]
 8007188:	b1a2      	cbz	r2, 80071b4 <validate+0x3a>
 800718a:	8881      	ldrh	r1, [r0, #4]
 800718c:	88da      	ldrh	r2, [r3, #6]
 800718e:	4291      	cmp	r1, r2
 8007190:	d003      	beq.n	800719a <validate+0x20>
	FRESULT res = FR_INVALID_OBJECT;
 8007192:	2009      	movs	r0, #9
		if (!(disk_status(obj->fs->drv) & STA_NOINIT)) { /* Test if the phsical drive is kept initialized */
			res = FR_OK;
		}
#endif
	}
	*fs = (res == FR_OK) ? obj->fs : 0;	/* Corresponding filesystem object */
 8007194:	2400      	movs	r4, #0
 8007196:	602c      	str	r4, [r5, #0]
	return res;
}
 8007198:	bd38      	pop	{r3, r4, r5, pc}
		if (!(disk_status(obj->fs->drv) & STA_NOINIT)) { /* Test if the phsical drive is kept initialized */
 800719a:	7858      	ldrb	r0, [r3, #1]
 800719c:	f7ff fce8 	bl	8006b70 <disk_status>
 80071a0:	f010 0001 	ands.w	r0, r0, #1
 80071a4:	d109      	bne.n	80071ba <validate+0x40>
	*fs = (res == FR_OK) ? obj->fs : 0;	/* Corresponding filesystem object */
 80071a6:	6824      	ldr	r4, [r4, #0]
 80071a8:	e7f5      	b.n	8007196 <validate+0x1c>
	FRESULT res = FR_INVALID_OBJECT;
 80071aa:	2009      	movs	r0, #9
 80071ac:	e7f3      	b.n	8007196 <validate+0x1c>
	*fs = (res == FR_OK) ? obj->fs : 0;	/* Corresponding filesystem object */
 80071ae:	461c      	mov	r4, r3
	FRESULT res = FR_INVALID_OBJECT;
 80071b0:	2009      	movs	r0, #9
 80071b2:	e7f0      	b.n	8007196 <validate+0x1c>
 80071b4:	2009      	movs	r0, #9
	*fs = (res == FR_OK) ? obj->fs : 0;	/* Corresponding filesystem object */
 80071b6:	2400      	movs	r4, #0
 80071b8:	e7ed      	b.n	8007196 <validate+0x1c>
	FRESULT res = FR_INVALID_OBJECT;
 80071ba:	2009      	movs	r0, #9
	*fs = (res == FR_OK) ? obj->fs : 0;	/* Corresponding filesystem object */
 80071bc:	2400      	movs	r4, #0
 80071be:	e7ea      	b.n	8007196 <validate+0x1c>

080071c0 <sync_window>:
{
 80071c0:	e92d 41f0 	stmdb	sp!, {r4, r5, r6, r7, r8, lr}
	if (fs->wflag) {	/* Write back the sector if it is dirty */
 80071c4:	78c5      	ldrb	r5, [r0, #3]
 80071c6:	b915      	cbnz	r5, 80071ce <sync_window+0xe>
}
 80071c8:	4628      	mov	r0, r5
 80071ca:	e8bd 81f0 	ldmia.w	sp!, {r4, r5, r6, r7, r8, pc}
 80071ce:	4604      	mov	r4, r0
		wsect = fs->winsect;	/* Current sector number */
 80071d0:	6b07      	ldr	r7, [r0, #48]	; 0x30
		if (disk_write(fs->drv, fs->win, wsect, 1) != RES_OK) {
 80071d2:	f100 0834 	add.w	r8, r0, #52	; 0x34
 80071d6:	2301      	movs	r3, #1
 80071d8:	463a      	mov	r2, r7
 80071da:	4641      	mov	r1, r8
 80071dc:	7840      	ldrb	r0, [r0, #1]
 80071de:	f7ff fcf3 	bl	8006bc8 <disk_write>
 80071e2:	4605      	mov	r5, r0
 80071e4:	b9a0      	cbnz	r0, 8007210 <sync_window+0x50>
			fs->wflag = 0;
 80071e6:	2300      	movs	r3, #0
 80071e8:	70e3      	strb	r3, [r4, #3]
			if (wsect - fs->fatbase < fs->fsize) {		/* Is it in the FAT area? */
 80071ea:	6a63      	ldr	r3, [r4, #36]	; 0x24
 80071ec:	1afb      	subs	r3, r7, r3
 80071ee:	69e2      	ldr	r2, [r4, #28]
 80071f0:	4293      	cmp	r3, r2
 80071f2:	d2e9      	bcs.n	80071c8 <sync_window+0x8>
				for (nf = fs->n_fats; nf >= 2; nf--) {	/* Reflect the change to all FAT copies */
 80071f4:	78a6      	ldrb	r6, [r4, #2]
 80071f6:	e008      	b.n	800720a <sync_window+0x4a>
					wsect += fs->fsize;
 80071f8:	69e3      	ldr	r3, [r4, #28]
 80071fa:	441f      	add	r7, r3
					disk_write(fs->drv, fs->win, wsect, 1);
 80071fc:	2301      	movs	r3, #1
 80071fe:	463a      	mov	r2, r7
 8007200:	4641      	mov	r1, r8
 8007202:	7860      	ldrb	r0, [r4, #1]
 8007204:	f7ff fce0 	bl	8006bc8 <disk_write>
				for (nf = fs->n_fats; nf >= 2; nf--) {	/* Reflect the change to all FAT copies */
 8007208:	3e01      	subs	r6, #1
 800720a:	2e01      	cmp	r6, #1
 800720c:	d8f4      	bhi.n	80071f8 <sync_window+0x38>
 800720e:	e7db      	b.n	80071c8 <sync_window+0x8>
			res = FR_DISK_ERR;
 8007210:	2501      	movs	r5, #1
 8007212:	e7d9      	b.n	80071c8 <sync_window+0x8>

08007214 <move_window>:
{
 8007214:	b570      	push	{r4, r5, r6, lr}
	if (sector != fs->winsect) {	/* Window offset changed? */
 8007216:	6b03      	ldr	r3, [r0, #48]	; 0x30
 8007218:	428b      	cmp	r3, r1
 800721a:	d102      	bne.n	8007222 <move_window+0xe>
	FRESULT res = FR_OK;
 800721c:	2600      	movs	r6, #0
}
 800721e:	4630      	mov	r0, r6
 8007220:	bd70      	pop	{r4, r5, r6, pc}
 8007222:	4604      	mov	r4, r0
 8007224:	460d      	mov	r5, r1
		res = sync_window(fs);		/* Write-back changes */
 8007226:	f7ff ffcb 	bl	80071c0 <sync_window>
		if (res == FR_OK) {			/* Fill sector window with new data */
 800722a:	4606      	mov	r6, r0
 800722c:	2800      	cmp	r0, #0
 800722e:	d1f6      	bne.n	800721e <move_window+0xa>
			if (disk_read(fs->drv, fs->win, sector, 1) != RES_OK) {
 8007230:	2301      	movs	r3, #1
 8007232:	462a      	mov	r2, r5
 8007234:	f104 0134 	add.w	r1, r4, #52	; 0x34
 8007238:	7860      	ldrb	r0, [r4, #1]
 800723a:	f7ff fcb9 	bl	8006bb0 <disk_read>
 800723e:	b110      	cbz	r0, 8007246 <move_window+0x32>
				res = FR_DISK_ERR;
 8007240:	2601      	movs	r6, #1
				sector = 0xFFFFFFFF;	/* Invalidate window if data is not reliable */
 8007242:	f04f 35ff 	mov.w	r5, #4294967295	; 0xffffffff
			fs->winsect = sector;
 8007246:	6325      	str	r5, [r4, #48]	; 0x30
 8007248:	e7e9      	b.n	800721e <move_window+0xa>
	...

0800724c <check_fs>:
{
 800724c:	b538      	push	{r3, r4, r5, lr}
 800724e:	4604      	mov	r4, r0
	fs->wflag = 0; fs->winsect = 0xFFFFFFFF;		/* Invaidate window */
 8007250:	2300      	movs	r3, #0
 8007252:	70c3      	strb	r3, [r0, #3]
 8007254:	f04f 33ff 	mov.w	r3, #4294967295	; 0xffffffff
 8007258:	6303      	str	r3, [r0, #48]	; 0x30
	if (move_window(fs, sect) != FR_OK) return 4;	/* Load boot record */
 800725a:	f7ff ffdb 	bl	8007214 <move_window>
 800725e:	bb30      	cbnz	r0, 80072ae <check_fs+0x62>
 8007260:	4605      	mov	r5, r0
	if (ld_word(fs->win + BS_55AA) != 0xAA55) return 3;	/* Check boot record signature (always placed here even if the sector size is >512) */
 8007262:	f204 2032 	addw	r0, r4, #562	; 0x232
 8007266:	f7ff fcc7 	bl	8006bf8 <ld_word>
 800726a:	f64a 2355 	movw	r3, #43605	; 0xaa55
 800726e:	4298      	cmp	r0, r3
 8007270:	d11f      	bne.n	80072b2 <check_fs+0x66>
	if (fs->win[BS_JmpBoot] == 0xE9 || (fs->win[BS_JmpBoot] == 0xEB && fs->win[BS_JmpBoot + 2] == 0x90)) {
 8007272:	f894 3034 	ldrb.w	r3, [r4, #52]	; 0x34
 8007276:	2be9      	cmp	r3, #233	; 0xe9
 8007278:	d007      	beq.n	800728a <check_fs+0x3e>
 800727a:	6b63      	ldr	r3, [r4, #52]	; 0x34
 800727c:	f003 13ff 	and.w	r3, r3, #16711935	; 0xff00ff
 8007280:	4a0d      	ldr	r2, [pc, #52]	; (80072b8 <check_fs+0x6c>)
 8007282:	4293      	cmp	r3, r2
 8007284:	d001      	beq.n	800728a <check_fs+0x3e>
	return 2;
 8007286:	2502      	movs	r5, #2
 8007288:	e014      	b.n	80072b4 <check_fs+0x68>
		if ((ld_dword(fs->win + BS_FilSysType) & 0xFFFFFF) == 0x544146) return 0;	/* Check "FAT" string */
 800728a:	f104 006a 	add.w	r0, r4, #106	; 0x6a
 800728e:	f7ff fcb8 	bl	8006c02 <ld_dword>
 8007292:	f020 407f 	bic.w	r0, r0, #4278190080	; 0xff000000
 8007296:	4b09      	ldr	r3, [pc, #36]	; (80072bc <check_fs+0x70>)
 8007298:	4298      	cmp	r0, r3
 800729a:	d00b      	beq.n	80072b4 <check_fs+0x68>
		if (ld_dword(fs->win + BS_FilSysType32) == 0x33544146) return 0;			/* Check "FAT3" string */
 800729c:	f104 0086 	add.w	r0, r4, #134	; 0x86
 80072a0:	f7ff fcaf 	bl	8006c02 <ld_dword>
 80072a4:	4b06      	ldr	r3, [pc, #24]	; (80072c0 <check_fs+0x74>)
 80072a6:	4298      	cmp	r0, r3
 80072a8:	d004      	beq.n	80072b4 <check_fs+0x68>
	return 2;
 80072aa:	2502      	movs	r5, #2
 80072ac:	e002      	b.n	80072b4 <check_fs+0x68>
	if (move_window(fs, sect) != FR_OK) return 4;	/* Load boot record */
 80072ae:	2504      	movs	r5, #4
 80072b0:	e000      	b.n	80072b4 <check_fs+0x68>
	if (ld_word(fs->win + BS_55AA) != 0xAA55) return 3;	/* Check boot record signature (always placed here even if the sector size is >512) */
 80072b2:	2503      	movs	r5, #3
}
 80072b4:	4628      	mov	r0, r5
 80072b6:	bd38      	pop	{r3, r4, r5, pc}
 80072b8:	009000eb 	.word	0x009000eb
 80072bc:	00544146 	.word	0x00544146
 80072c0:	33544146 	.word	0x33544146

080072c4 <find_volume>:
{
 80072c4:	e92d 4ff0 	stmdb	sp!, {r4, r5, r6, r7, r8, r9, sl, fp, lr}
 80072c8:	b085      	sub	sp, #20
 80072ca:	460d      	mov	r5, r1
 80072cc:	4616      	mov	r6, r2
	*rfs = 0;
 80072ce:	2300      	movs	r3, #0
 80072d0:	600b      	str	r3, [r1, #0]
	vol = get_ldnumber(path);
 80072d2:	f7ff ff2e 	bl	8007132 <get_ldnumber>
	if (vol < 0) return FR_INVALID_DRIVE;
 80072d6:	1e07      	subs	r7, r0, #0
 80072d8:	f2c0 8146 	blt.w	8007568 <find_volume+0x2a4>
	fs = FatFs[vol];					/* Get pointer to the file system object */
 80072dc:	4bb6      	ldr	r3, [pc, #728]	; (80075b8 <find_volume+0x2f4>)
 80072de:	f853 4027 	ldr.w	r4, [r3, r7, lsl #2]
	if (!fs) return FR_NOT_ENABLED;		/* Is the file system object available? */
 80072e2:	2c00      	cmp	r4, #0
 80072e4:	f000 8145 	beq.w	8007572 <find_volume+0x2ae>
	*rfs = fs;							/* Return pointer to the file system object */
 80072e8:	602c      	str	r4, [r5, #0]
	mode &= (BYTE)~FA_READ;				/* Desired access mode, write access or not */
 80072ea:	f006 06fe 	and.w	r6, r6, #254	; 0xfe
	if (fs->fs_type) {					/* If the volume has been mounted */
 80072ee:	7823      	ldrb	r3, [r4, #0]
 80072f0:	b173      	cbz	r3, 8007310 <find_volume+0x4c>
		stat = disk_status(fs->drv);
 80072f2:	7860      	ldrb	r0, [r4, #1]
 80072f4:	f7ff fc3c 	bl	8006b70 <disk_status>
		if (!(stat & STA_NOINIT)) {		/* and the physical drive is kept initialized */
 80072f8:	f010 0501 	ands.w	r5, r0, #1
 80072fc:	d108      	bne.n	8007310 <find_volume+0x4c>
			if (!_FS_READONLY && mode && (stat & STA_PROTECT)) {	/* Check write protection if needed */
 80072fe:	2e00      	cmp	r6, #0
 8007300:	f000 8133 	beq.w	800756a <find_volume+0x2a6>
 8007304:	f010 0f04 	tst.w	r0, #4
 8007308:	f000 812f 	beq.w	800756a <find_volume+0x2a6>
				return FR_WRITE_PROTECTED;
 800730c:	250a      	movs	r5, #10
 800730e:	e12c      	b.n	800756a <find_volume+0x2a6>
	fs->fs_type = 0;					/* Clear the file system object */
 8007310:	2300      	movs	r3, #0
 8007312:	7023      	strb	r3, [r4, #0]
	fs->drv = LD2PD(vol);				/* Bind the logical drive and a physical drive */
 8007314:	b2f8      	uxtb	r0, r7
 8007316:	7060      	strb	r0, [r4, #1]
	stat = disk_initialize(fs->drv);	/* Initialize the physical drive */
 8007318:	f7ff fc36 	bl	8006b88 <disk_initialize>
	if (stat & STA_NOINIT) { 			/* Check if the initialization succeeded */
 800731c:	f010 0501 	ands.w	r5, r0, #1
 8007320:	f040 8129 	bne.w	8007576 <find_volume+0x2b2>
	if (!_FS_READONLY && mode && (stat & STA_PROTECT)) { /* Check disk write protection if needed */
 8007324:	b11e      	cbz	r6, 800732e <find_volume+0x6a>
 8007326:	f010 0f04 	tst.w	r0, #4
 800732a:	f040 8126 	bne.w	800757a <find_volume+0x2b6>
	fmt = check_fs(fs, bsect);			/* Load sector 0 and check if it is an FAT-VBR as SFD */
 800732e:	2100      	movs	r1, #0
 8007330:	4620      	mov	r0, r4
 8007332:	f7ff ff8b 	bl	800724c <check_fs>
	if (fmt == 2 || (fmt < 2 && LD2PT(vol) != 0)) {	/* Not an FAT-VBR or forced partition number */
 8007336:	2802      	cmp	r0, #2
 8007338:	f000 80b8 	beq.w	80074ac <find_volume+0x1e8>
	bsect = 0;
 800733c:	2700      	movs	r7, #0
	if (fmt == 4) return FR_DISK_ERR;		/* An error occured in the disk I/O layer */
 800733e:	2804      	cmp	r0, #4
 8007340:	f000 811d 	beq.w	800757e <find_volume+0x2ba>
	if (fmt >= 2) return FR_NO_FILESYSTEM;	/* No FAT volume is found */
 8007344:	2801      	cmp	r0, #1
 8007346:	f200 811c 	bhi.w	8007582 <find_volume+0x2be>
		if (ld_word(fs->win + BPB_BytsPerSec) != SS(fs)) return FR_NO_FILESYSTEM;	/* (BPB_BytsPerSec must be equal to the physical sector size) */
 800734a:	f104 003f 	add.w	r0, r4, #63	; 0x3f
 800734e:	f7ff fc53 	bl	8006bf8 <ld_word>
 8007352:	f5b0 7f00 	cmp.w	r0, #512	; 0x200
 8007356:	f040 8116 	bne.w	8007586 <find_volume+0x2c2>
		fasize = ld_word(fs->win + BPB_FATSz16);		/* Number of sectors per FAT */
 800735a:	f104 004a 	add.w	r0, r4, #74	; 0x4a
 800735e:	f7ff fc4b 	bl	8006bf8 <ld_word>
 8007362:	4606      	mov	r6, r0
		if (fasize == 0) fasize = ld_dword(fs->win + BPB_FATSz32);
 8007364:	b920      	cbnz	r0, 8007370 <find_volume+0xac>
 8007366:	f104 0058 	add.w	r0, r4, #88	; 0x58
 800736a:	f7ff fc4a 	bl	8006c02 <ld_dword>
 800736e:	4606      	mov	r6, r0
		fs->fsize = fasize;
 8007370:	61e6      	str	r6, [r4, #28]
		fs->n_fats = fs->win[BPB_NumFATs];				/* Number of FATs */
 8007372:	f894 2044 	ldrb.w	r2, [r4, #68]	; 0x44
 8007376:	70a2      	strb	r2, [r4, #2]
		if (fs->n_fats != 1 && fs->n_fats != 2) return FR_NO_FILESYSTEM;	/* (Must be 1 or 2) */
 8007378:	1e53      	subs	r3, r2, #1
 800737a:	b2db      	uxtb	r3, r3
 800737c:	2b01      	cmp	r3, #1
 800737e:	f200 8104 	bhi.w	800758a <find_volume+0x2c6>
		fasize *= fs->n_fats;							/* Number of sectors for FAT area */
 8007382:	fb06 f802 	mul.w	r8, r6, r2
		fs->csize = fs->win[BPB_SecPerClus];			/* Cluster size */
 8007386:	f894 9041 	ldrb.w	r9, [r4, #65]	; 0x41
 800738a:	f8a4 900a 	strh.w	r9, [r4, #10]
		if (fs->csize == 0 || (fs->csize & (fs->csize - 1))) return FR_NO_FILESYSTEM;	/* (Must be power of 2) */
 800738e:	f1b9 0f00 	cmp.w	r9, #0
 8007392:	f000 80fc 	beq.w	800758e <find_volume+0x2ca>
 8007396:	f109 33ff 	add.w	r3, r9, #4294967295	; 0xffffffff
 800739a:	ea19 0f03 	tst.w	r9, r3
 800739e:	f040 80f8 	bne.w	8007592 <find_volume+0x2ce>
		fs->n_rootdir = ld_word(fs->win + BPB_RootEntCnt);	/* Number of root directory entries */
 80073a2:	f104 0045 	add.w	r0, r4, #69	; 0x45
 80073a6:	f7ff fc27 	bl	8006bf8 <ld_word>
 80073aa:	4682      	mov	sl, r0
 80073ac:	8120      	strh	r0, [r4, #8]
		if (fs->n_rootdir % (SS(fs) / SZDIRE)) return FR_NO_FILESYSTEM;	/* (Must be sector aligned) */
 80073ae:	f010 0f0f 	tst.w	r0, #15
 80073b2:	f040 80f0 	bne.w	8007596 <find_volume+0x2d2>
		tsect = ld_word(fs->win + BPB_TotSec16);		/* Number of sectors on the volume */
 80073b6:	f104 0047 	add.w	r0, r4, #71	; 0x47
 80073ba:	f7ff fc1d 	bl	8006bf8 <ld_word>
 80073be:	4683      	mov	fp, r0
		if (tsect == 0) tsect = ld_dword(fs->win + BPB_TotSec32);
 80073c0:	b920      	cbnz	r0, 80073cc <find_volume+0x108>
 80073c2:	f104 0054 	add.w	r0, r4, #84	; 0x54
 80073c6:	f7ff fc1c 	bl	8006c02 <ld_dword>
 80073ca:	4683      	mov	fp, r0
		nrsv = ld_word(fs->win + BPB_RsvdSecCnt);		/* Number of reserved sectors */
 80073cc:	f104 0042 	add.w	r0, r4, #66	; 0x42
 80073d0:	f7ff fc12 	bl	8006bf8 <ld_word>
		if (nrsv == 0) return FR_NO_FILESYSTEM;			/* (Must not be 0) */
 80073d4:	4602      	mov	r2, r0
 80073d6:	2800      	cmp	r0, #0
 80073d8:	f000 80df 	beq.w	800759a <find_volume+0x2d6>
		sysect = nrsv + fasize + fs->n_rootdir / (SS(fs) / SZDIRE);	/* RSV + FAT + DIR */
 80073dc:	eb00 0308 	add.w	r3, r0, r8
 80073e0:	eb03 131a 	add.w	r3, r3, sl, lsr #4
		if (tsect < sysect) return FR_NO_FILESYSTEM;	/* (Invalid volume size) */
 80073e4:	459b      	cmp	fp, r3
 80073e6:	f0c0 80da 	bcc.w	800759e <find_volume+0x2da>
		nclst = (tsect - sysect) / fs->csize;			/* Number of clusters */
 80073ea:	ebab 0b03 	sub.w	fp, fp, r3
 80073ee:	fbbb f1f9 	udiv	r1, fp, r9
		if (nclst == 0) return FR_NO_FILESYSTEM;		/* (Invalid volume size) */
 80073f2:	45cb      	cmp	fp, r9
 80073f4:	f0c0 80d5 	bcc.w	80075a2 <find_volume+0x2de>
		if (nclst <= MAX_FAT16) fmt = FS_FAT16;
 80073f8:	f64f 70f5 	movw	r0, #65525	; 0xfff5
 80073fc:	4281      	cmp	r1, r0
 80073fe:	d96d      	bls.n	80074dc <find_volume+0x218>
		fmt = FS_FAT32;
 8007400:	f04f 0b03 	mov.w	fp, #3
		if (nclst <= MAX_FAT12) fmt = FS_FAT12;
 8007404:	f640 70f5 	movw	r0, #4085	; 0xff5
 8007408:	4281      	cmp	r1, r0
 800740a:	d801      	bhi.n	8007410 <find_volume+0x14c>
 800740c:	f04f 0b01 	mov.w	fp, #1
		fs->n_fatent = nclst + 2;						/* Number of FAT entries */
 8007410:	f101 0902 	add.w	r9, r1, #2
 8007414:	f8c4 9018 	str.w	r9, [r4, #24]
		fs->volbase = bsect;							/* Volume start sector */
 8007418:	6227      	str	r7, [r4, #32]
		fs->fatbase = bsect + nrsv; 					/* FAT start sector */
 800741a:	443a      	add	r2, r7
 800741c:	6262      	str	r2, [r4, #36]	; 0x24
		fs->database = bsect + sysect;					/* Data start sector */
 800741e:	443b      	add	r3, r7
 8007420:	62e3      	str	r3, [r4, #44]	; 0x2c
		if (fmt == FS_FAT32) {
 8007422:	f1bb 0f03 	cmp.w	fp, #3
 8007426:	d05c      	beq.n	80074e2 <find_volume+0x21e>
			if (fs->n_rootdir == 0)	return FR_NO_FILESYSTEM;/* (BPB_RootEntCnt must not be 0) */
 8007428:	f1ba 0f00 	cmp.w	sl, #0
 800742c:	f000 80bf 	beq.w	80075ae <find_volume+0x2ea>
			fs->dirbase = fs->fatbase + fasize;			/* Root directory start sector */
 8007430:	4442      	add	r2, r8
 8007432:	62a2      	str	r2, [r4, #40]	; 0x28
				fs->n_fatent * 2 : fs->n_fatent * 3 / 2 + (fs->n_fatent & 1);
 8007434:	f1bb 0f02 	cmp.w	fp, #2
 8007438:	d064      	beq.n	8007504 <find_volume+0x240>
 800743a:	eb09 0349 	add.w	r3, r9, r9, lsl #1
 800743e:	f009 0901 	and.w	r9, r9, #1
 8007442:	eb09 0953 	add.w	r9, r9, r3, lsr #1
		if (fs->fsize < (szbfat + (SS(fs) - 1)) / SS(fs)) return FR_NO_FILESYSTEM;	/* (BPB_FATSz must not be less than the size needed) */
 8007446:	f209 19ff 	addw	r9, r9, #511	; 0x1ff
 800744a:	ebb6 2f59 	cmp.w	r6, r9, lsr #9
 800744e:	f0c0 80b0 	bcc.w	80075b2 <find_volume+0x2ee>
		fs->last_clst = fs->free_clst = 0xFFFFFFFF;		/* Initialize cluster allocation information */
 8007452:	f04f 33ff 	mov.w	r3, #4294967295	; 0xffffffff
 8007456:	6163      	str	r3, [r4, #20]
 8007458:	6123      	str	r3, [r4, #16]
		fs->fsi_flag = 0x80;
 800745a:	2380      	movs	r3, #128	; 0x80
 800745c:	7123      	strb	r3, [r4, #4]
		if (fmt == FS_FAT32				/* Enable FSINFO only if FAT32 and BPB_FSInfo32 == 1 */
 800745e:	f1bb 0f03 	cmp.w	fp, #3
 8007462:	d052      	beq.n	800750a <find_volume+0x246>
	fs->fs_type = fmt;		/* FAT sub-type */
 8007464:	f884 b000 	strb.w	fp, [r4]
	fs->id = ++Fsid;		/* File system mount ID */
 8007468:	4a54      	ldr	r2, [pc, #336]	; (80075bc <find_volume+0x2f8>)
 800746a:	8813      	ldrh	r3, [r2, #0]
 800746c:	3301      	adds	r3, #1
 800746e:	b29b      	uxth	r3, r3
 8007470:	8013      	strh	r3, [r2, #0]
 8007472:	80e3      	strh	r3, [r4, #6]
	fs->lfnbuf = LfnBuf;	/* Static LFN working buffer */
 8007474:	4b52      	ldr	r3, [pc, #328]	; (80075c0 <find_volume+0x2fc>)
 8007476:	60e3      	str	r3, [r4, #12]
	clear_lock(fs);
 8007478:	4620      	mov	r0, r4
 800747a:	f7ff fcbf 	bl	8006dfc <clear_lock>
	return FR_OK;
 800747e:	e074      	b.n	800756a <find_volume+0x2a6>
			br[i] = pt[PTE_System] ? ld_dword(pt + PTE_StLba) : 0;
 8007480:	2000      	movs	r0, #0
 8007482:	ab04      	add	r3, sp, #16
 8007484:	eb03 0386 	add.w	r3, r3, r6, lsl #2
 8007488:	f843 0c10 	str.w	r0, [r3, #-16]
		for (i = 0; i < 4; i++) {		/* Get partition offset */
 800748c:	3601      	adds	r6, #1
 800748e:	2e03      	cmp	r6, #3
 8007490:	d80e      	bhi.n	80074b0 <find_volume+0x1ec>
			pt = fs->win + (MBR_Table + i * SZ_PTE);
 8007492:	f104 0034 	add.w	r0, r4, #52	; 0x34
 8007496:	0133      	lsls	r3, r6, #4
 8007498:	f503 73df 	add.w	r3, r3, #446	; 0x1be
 800749c:	4418      	add	r0, r3
			br[i] = pt[PTE_System] ? ld_dword(pt + PTE_StLba) : 0;
 800749e:	7903      	ldrb	r3, [r0, #4]
 80074a0:	2b00      	cmp	r3, #0
 80074a2:	d0ed      	beq.n	8007480 <find_volume+0x1bc>
 80074a4:	3008      	adds	r0, #8
 80074a6:	f7ff fbac 	bl	8006c02 <ld_dword>
 80074aa:	e7ea      	b.n	8007482 <find_volume+0x1be>
		for (i = 0; i < 4; i++) {		/* Get partition offset */
 80074ac:	2600      	movs	r6, #0
 80074ae:	e7ee      	b.n	800748e <find_volume+0x1ca>
 80074b0:	2600      	movs	r6, #0
 80074b2:	e00a      	b.n	80074ca <find_volume+0x206>
			fmt = bsect ? check_fs(fs, bsect) : 3;	/* Check the partition */
 80074b4:	4639      	mov	r1, r7
 80074b6:	4620      	mov	r0, r4
 80074b8:	f7ff fec8 	bl	800724c <check_fs>
		} while (LD2PT(vol) == 0 && fmt >= 2 && ++i < 4);
 80074bc:	2801      	cmp	r0, #1
 80074be:	f67f af3e 	bls.w	800733e <find_volume+0x7a>
 80074c2:	3601      	adds	r6, #1
 80074c4:	2e03      	cmp	r6, #3
 80074c6:	f63f af3a 	bhi.w	800733e <find_volume+0x7a>
			bsect = br[i];
 80074ca:	ab04      	add	r3, sp, #16
 80074cc:	eb03 0386 	add.w	r3, r3, r6, lsl #2
 80074d0:	f853 7c10 	ldr.w	r7, [r3, #-16]
			fmt = bsect ? check_fs(fs, bsect) : 3;	/* Check the partition */
 80074d4:	2f00      	cmp	r7, #0
 80074d6:	d1ed      	bne.n	80074b4 <find_volume+0x1f0>
 80074d8:	2003      	movs	r0, #3
 80074da:	e7f2      	b.n	80074c2 <find_volume+0x1fe>
		if (nclst <= MAX_FAT16) fmt = FS_FAT16;
 80074dc:	f04f 0b02 	mov.w	fp, #2
 80074e0:	e790      	b.n	8007404 <find_volume+0x140>
			if (ld_word(fs->win + BPB_FSVer32) != 0) return FR_NO_FILESYSTEM;	/* (Must be FAT32 revision 0.0) */
 80074e2:	f104 005e 	add.w	r0, r4, #94	; 0x5e
 80074e6:	f7ff fb87 	bl	8006bf8 <ld_word>
 80074ea:	2800      	cmp	r0, #0
 80074ec:	d15b      	bne.n	80075a6 <find_volume+0x2e2>
			if (fs->n_rootdir) return FR_NO_FILESYSTEM;	/* (BPB_RootEntCnt must be 0) */
 80074ee:	f1ba 0f00 	cmp.w	sl, #0
 80074f2:	d15a      	bne.n	80075aa <find_volume+0x2e6>
			fs->dirbase = ld_dword(fs->win + BPB_RootClus32);	/* Root directory start cluster */
 80074f4:	f104 0060 	add.w	r0, r4, #96	; 0x60
 80074f8:	f7ff fb83 	bl	8006c02 <ld_dword>
 80074fc:	62a0      	str	r0, [r4, #40]	; 0x28
			szbfat = fs->n_fatent * 4;					/* (Needed FAT size) */
 80074fe:	ea4f 0989 	mov.w	r9, r9, lsl #2
 8007502:	e7a0      	b.n	8007446 <find_volume+0x182>
				fs->n_fatent * 2 : fs->n_fatent * 3 / 2 + (fs->n_fatent & 1);
 8007504:	ea4f 0949 	mov.w	r9, r9, lsl #1
 8007508:	e79d      	b.n	8007446 <find_volume+0x182>
			&& ld_word(fs->win + BPB_FSInfo32) == 1
 800750a:	f104 0064 	add.w	r0, r4, #100	; 0x64
 800750e:	f7ff fb73 	bl	8006bf8 <ld_word>
 8007512:	2801      	cmp	r0, #1
 8007514:	d1a6      	bne.n	8007464 <find_volume+0x1a0>
			&& move_window(fs, bsect + 1) == FR_OK)
 8007516:	1c79      	adds	r1, r7, #1
 8007518:	4620      	mov	r0, r4
 800751a:	f7ff fe7b 	bl	8007214 <move_window>
 800751e:	2800      	cmp	r0, #0
 8007520:	d1a0      	bne.n	8007464 <find_volume+0x1a0>
			fs->fsi_flag = 0;
 8007522:	2300      	movs	r3, #0
 8007524:	7123      	strb	r3, [r4, #4]
			if (ld_word(fs->win + BS_55AA) == 0xAA55	/* Load FSINFO data if available */
 8007526:	f204 2032 	addw	r0, r4, #562	; 0x232
 800752a:	f7ff fb65 	bl	8006bf8 <ld_word>
 800752e:	f64a 2355 	movw	r3, #43605	; 0xaa55
 8007532:	4298      	cmp	r0, r3
 8007534:	d196      	bne.n	8007464 <find_volume+0x1a0>
				&& ld_dword(fs->win + FSI_LeadSig) == 0x41615252
 8007536:	f104 0034 	add.w	r0, r4, #52	; 0x34
 800753a:	f7ff fb62 	bl	8006c02 <ld_dword>
 800753e:	4b21      	ldr	r3, [pc, #132]	; (80075c4 <find_volume+0x300>)
 8007540:	4298      	cmp	r0, r3
 8007542:	d18f      	bne.n	8007464 <find_volume+0x1a0>
				&& ld_dword(fs->win + FSI_StrucSig) == 0x61417272)
 8007544:	f504 7006 	add.w	r0, r4, #536	; 0x218
 8007548:	f7ff fb5b 	bl	8006c02 <ld_dword>
 800754c:	4b1e      	ldr	r3, [pc, #120]	; (80075c8 <find_volume+0x304>)
 800754e:	4298      	cmp	r0, r3
 8007550:	d188      	bne.n	8007464 <find_volume+0x1a0>
				fs->free_clst = ld_dword(fs->win + FSI_Free_Count);
 8007552:	f504 7007 	add.w	r0, r4, #540	; 0x21c
 8007556:	f7ff fb54 	bl	8006c02 <ld_dword>
 800755a:	6160      	str	r0, [r4, #20]
				fs->last_clst = ld_dword(fs->win + FSI_Nxt_Free);
 800755c:	f504 7008 	add.w	r0, r4, #544	; 0x220
 8007560:	f7ff fb4f 	bl	8006c02 <ld_dword>
 8007564:	6120      	str	r0, [r4, #16]
 8007566:	e77d      	b.n	8007464 <find_volume+0x1a0>
	if (vol < 0) return FR_INVALID_DRIVE;
 8007568:	250b      	movs	r5, #11
}
 800756a:	4628      	mov	r0, r5
 800756c:	b005      	add	sp, #20
 800756e:	e8bd 8ff0 	ldmia.w	sp!, {r4, r5, r6, r7, r8, r9, sl, fp, pc}
	if (!fs) return FR_NOT_ENABLED;		/* Is the file system object available? */
 8007572:	250c      	movs	r5, #12
 8007574:	e7f9      	b.n	800756a <find_volume+0x2a6>
		return FR_NOT_READY;			/* Failed to initialize due to no medium or hard error */
 8007576:	2503      	movs	r5, #3
 8007578:	e7f7      	b.n	800756a <find_volume+0x2a6>
		return FR_WRITE_PROTECTED;
 800757a:	250a      	movs	r5, #10
 800757c:	e7f5      	b.n	800756a <find_volume+0x2a6>
	if (fmt == 4) return FR_DISK_ERR;		/* An error occured in the disk I/O layer */
 800757e:	2501      	movs	r5, #1
 8007580:	e7f3      	b.n	800756a <find_volume+0x2a6>
	if (fmt >= 2) return FR_NO_FILESYSTEM;	/* No FAT volume is found */
 8007582:	250d      	movs	r5, #13
 8007584:	e7f1      	b.n	800756a <find_volume+0x2a6>
		if (ld_word(fs->win + BPB_BytsPerSec) != SS(fs)) return FR_NO_FILESYSTEM;	/* (BPB_BytsPerSec must be equal to the physical sector size) */
 8007586:	250d      	movs	r5, #13
 8007588:	e7ef      	b.n	800756a <find_volume+0x2a6>
		if (fs->n_fats != 1 && fs->n_fats != 2) return FR_NO_FILESYSTEM;	/* (Must be 1 or 2) */
 800758a:	250d      	movs	r5, #13
 800758c:	e7ed      	b.n	800756a <find_volume+0x2a6>
		if (fs->csize == 0 || (fs->csize & (fs->csize - 1))) return FR_NO_FILESYSTEM;	/* (Must be power of 2) */
 800758e:	250d      	movs	r5, #13
 8007590:	e7eb      	b.n	800756a <find_volume+0x2a6>
 8007592:	250d      	movs	r5, #13
 8007594:	e7e9      	b.n	800756a <find_volume+0x2a6>
		if (fs->n_rootdir % (SS(fs) / SZDIRE)) return FR_NO_FILESYSTEM;	/* (Must be sector aligned) */
 8007596:	250d      	movs	r5, #13
 8007598:	e7e7      	b.n	800756a <find_volume+0x2a6>
		if (nrsv == 0) return FR_NO_FILESYSTEM;			/* (Must not be 0) */
 800759a:	250d      	movs	r5, #13
 800759c:	e7e5      	b.n	800756a <find_volume+0x2a6>
		if (tsect < sysect) return FR_NO_FILESYSTEM;	/* (Invalid volume size) */
 800759e:	250d      	movs	r5, #13
 80075a0:	e7e3      	b.n	800756a <find_volume+0x2a6>
		if (nclst == 0) return FR_NO_FILESYSTEM;		/* (Invalid volume size) */
 80075a2:	250d      	movs	r5, #13
 80075a4:	e7e1      	b.n	800756a <find_volume+0x2a6>
			if (ld_word(fs->win + BPB_FSVer32) != 0) return FR_NO_FILESYSTEM;	/* (Must be FAT32 revision 0.0) */
 80075a6:	250d      	movs	r5, #13
 80075a8:	e7df      	b.n	800756a <find_volume+0x2a6>
			if (fs->n_rootdir) return FR_NO_FILESYSTEM;	/* (BPB_RootEntCnt must be 0) */
 80075aa:	250d      	movs	r5, #13
 80075ac:	e7dd      	b.n	800756a <find_volume+0x2a6>
			if (fs->n_rootdir == 0)	return FR_NO_FILESYSTEM;/* (BPB_RootEntCnt must not be 0) */
 80075ae:	250d      	movs	r5, #13
 80075b0:	e7db      	b.n	800756a <find_volume+0x2a6>
		if (fs->fsize < (szbfat + (SS(fs) - 1)) / SS(fs)) return FR_NO_FILESYSTEM;	/* (BPB_FATSz must not be less than the size needed) */
 80075b2:	250d      	movs	r5, #13
 80075b4:	e7d9      	b.n	800756a <find_volume+0x2a6>
 80075b6:	bf00      	nop
 80075b8:	2000071c 	.word	0x2000071c
 80075bc:	20000740 	.word	0x20000740
 80075c0:	20000744 	.word	0x20000744
 80075c4:	41615252 	.word	0x41615252
 80075c8:	61417272 	.word	0x61417272

080075cc <put_fat>:
{
 80075cc:	e92d 47f0 	stmdb	sp!, {r4, r5, r6, r7, r8, r9, sl, lr}
	if (clst >= 2 && clst < fs->n_fatent) {	/* Check if in valid range */
 80075d0:	2901      	cmp	r1, #1
 80075d2:	d97e      	bls.n	80076d2 <put_fat+0x106>
 80075d4:	4607      	mov	r7, r0
 80075d6:	460c      	mov	r4, r1
 80075d8:	4616      	mov	r6, r2
 80075da:	6983      	ldr	r3, [r0, #24]
 80075dc:	428b      	cmp	r3, r1
 80075de:	d97a      	bls.n	80076d6 <put_fat+0x10a>
		switch (fs->fs_type) {
 80075e0:	7803      	ldrb	r3, [r0, #0]
 80075e2:	2b02      	cmp	r3, #2
 80075e4:	d045      	beq.n	8007672 <put_fat+0xa6>
 80075e6:	2b03      	cmp	r3, #3
 80075e8:	d057      	beq.n	800769a <put_fat+0xce>
 80075ea:	2b01      	cmp	r3, #1
 80075ec:	d003      	beq.n	80075f6 <put_fat+0x2a>
 80075ee:	2502      	movs	r5, #2
}
 80075f0:	4628      	mov	r0, r5
 80075f2:	e8bd 87f0 	ldmia.w	sp!, {r4, r5, r6, r7, r8, r9, sl, pc}
			bc = (UINT)clst; bc += bc / 2;
 80075f6:	eb01 0851 	add.w	r8, r1, r1, lsr #1
			res = move_window(fs, fs->fatbase + (bc / SS(fs)));
 80075fa:	6a41      	ldr	r1, [r0, #36]	; 0x24
 80075fc:	eb01 2158 	add.w	r1, r1, r8, lsr #9
 8007600:	f7ff fe08 	bl	8007214 <move_window>
			if (res != FR_OK) break;
 8007604:	4605      	mov	r5, r0
 8007606:	2800      	cmp	r0, #0
 8007608:	d1f2      	bne.n	80075f0 <put_fat+0x24>
			p = fs->win + bc++ % SS(fs);
 800760a:	f107 0a34 	add.w	sl, r7, #52	; 0x34
 800760e:	f108 0901 	add.w	r9, r8, #1
 8007612:	f3c8 0808 	ubfx	r8, r8, #0, #9
			*p = (clst & 1) ? ((*p & 0x0F) | ((BYTE)val << 4)) : (BYTE)val;
 8007616:	f014 0401 	ands.w	r4, r4, #1
 800761a:	d01f      	beq.n	800765c <put_fat+0x90>
 800761c:	f91a 3008 	ldrsb.w	r3, [sl, r8]
 8007620:	f003 030f 	and.w	r3, r3, #15
 8007624:	0132      	lsls	r2, r6, #4
 8007626:	f402 627f 	and.w	r2, r2, #4080	; 0xff0
 800762a:	4313      	orrs	r3, r2
 800762c:	b2db      	uxtb	r3, r3
 800762e:	f80a 3008 	strb.w	r3, [sl, r8]
			fs->wflag = 1;
 8007632:	2301      	movs	r3, #1
 8007634:	70fb      	strb	r3, [r7, #3]
			res = move_window(fs, fs->fatbase + (bc / SS(fs)));
 8007636:	6a79      	ldr	r1, [r7, #36]	; 0x24
 8007638:	eb01 2159 	add.w	r1, r1, r9, lsr #9
 800763c:	4638      	mov	r0, r7
 800763e:	f7ff fde9 	bl	8007214 <move_window>
			if (res != FR_OK) break;
 8007642:	4605      	mov	r5, r0
 8007644:	2800      	cmp	r0, #0
 8007646:	d1d3      	bne.n	80075f0 <put_fat+0x24>
			p = fs->win + bc % SS(fs);
 8007648:	f3c9 0908 	ubfx	r9, r9, #0, #9
			*p = (clst & 1) ? (BYTE)(val >> 4) : ((*p & 0xF0) | ((BYTE)(val >> 8) & 0x0F));
 800764c:	b144      	cbz	r4, 8007660 <put_fat+0x94>
 800764e:	f3c6 1207 	ubfx	r2, r6, #4, #8
 8007652:	f80a 2009 	strb.w	r2, [sl, r9]
			fs->wflag = 1;
 8007656:	2301      	movs	r3, #1
 8007658:	70fb      	strb	r3, [r7, #3]
			break;
 800765a:	e7c9      	b.n	80075f0 <put_fat+0x24>
			*p = (clst & 1) ? ((*p & 0x0F) | ((BYTE)val << 4)) : (BYTE)val;
 800765c:	b2f3      	uxtb	r3, r6
 800765e:	e7e6      	b.n	800762e <put_fat+0x62>
			*p = (clst & 1) ? (BYTE)(val >> 4) : ((*p & 0xF0) | ((BYTE)(val >> 8) & 0x0F));
 8007660:	f91a 2009 	ldrsb.w	r2, [sl, r9]
 8007664:	f022 020f 	bic.w	r2, r2, #15
 8007668:	f3c6 2603 	ubfx	r6, r6, #8, #4
 800766c:	4332      	orrs	r2, r6
 800766e:	b2d2      	uxtb	r2, r2
 8007670:	e7ef      	b.n	8007652 <put_fat+0x86>
			res = move_window(fs, fs->fatbase + (clst / (SS(fs) / 2)));
 8007672:	6a41      	ldr	r1, [r0, #36]	; 0x24
 8007674:	eb01 2114 	add.w	r1, r1, r4, lsr #8
 8007678:	f7ff fdcc 	bl	8007214 <move_window>
			if (res != FR_OK) break;
 800767c:	4605      	mov	r5, r0
 800767e:	2800      	cmp	r0, #0
 8007680:	d1b6      	bne.n	80075f0 <put_fat+0x24>
			st_word(fs->win + clst * 2 % SS(fs), (WORD)val);
 8007682:	f107 0034 	add.w	r0, r7, #52	; 0x34
 8007686:	0064      	lsls	r4, r4, #1
 8007688:	f404 74ff 	and.w	r4, r4, #510	; 0x1fe
 800768c:	b2b1      	uxth	r1, r6
 800768e:	4420      	add	r0, r4
 8007690:	f7ff fac2 	bl	8006c18 <st_word>
			fs->wflag = 1;
 8007694:	2301      	movs	r3, #1
 8007696:	70fb      	strb	r3, [r7, #3]
			break;
 8007698:	e7aa      	b.n	80075f0 <put_fat+0x24>
			res = move_window(fs, fs->fatbase + (clst / (SS(fs) / 4)));
 800769a:	6a41      	ldr	r1, [r0, #36]	; 0x24
 800769c:	eb01 11d4 	add.w	r1, r1, r4, lsr #7
 80076a0:	f7ff fdb8 	bl	8007214 <move_window>
			if (res != FR_OK) break;
 80076a4:	4605      	mov	r5, r0
 80076a6:	2800      	cmp	r0, #0
 80076a8:	d1a2      	bne.n	80075f0 <put_fat+0x24>
				val = (val & 0x0FFFFFFF) | (ld_dword(fs->win + clst * 4 % SS(fs)) & 0xF0000000);
 80076aa:	f026 4670 	bic.w	r6, r6, #4026531840	; 0xf0000000
 80076ae:	f107 0334 	add.w	r3, r7, #52	; 0x34
 80076b2:	00a4      	lsls	r4, r4, #2
 80076b4:	f404 74fe 	and.w	r4, r4, #508	; 0x1fc
 80076b8:	441c      	add	r4, r3
 80076ba:	4620      	mov	r0, r4
 80076bc:	f7ff faa1 	bl	8006c02 <ld_dword>
 80076c0:	f000 4170 	and.w	r1, r0, #4026531840	; 0xf0000000
			st_dword(fs->win + clst * 4 % SS(fs), val);
 80076c4:	4331      	orrs	r1, r6
 80076c6:	4620      	mov	r0, r4
 80076c8:	f7ff faaa 	bl	8006c20 <st_dword>
			fs->wflag = 1;
 80076cc:	2301      	movs	r3, #1
 80076ce:	70fb      	strb	r3, [r7, #3]
			break;
 80076d0:	e78e      	b.n	80075f0 <put_fat+0x24>
	FRESULT res = FR_INT_ERR;
 80076d2:	2502      	movs	r5, #2
 80076d4:	e78c      	b.n	80075f0 <put_fat+0x24>
 80076d6:	2502      	movs	r5, #2
 80076d8:	e78a      	b.n	80075f0 <put_fat+0x24>

080076da <get_fat>:
{
 80076da:	b5f8      	push	{r3, r4, r5, r6, r7, lr}
	FATFS *fs = obj->fs;
 80076dc:	6805      	ldr	r5, [r0, #0]
	if (clst < 2 || clst >= fs->n_fatent) {	/* Check if in valid range */
 80076de:	2901      	cmp	r1, #1
 80076e0:	d956      	bls.n	8007790 <get_fat+0xb6>
 80076e2:	460c      	mov	r4, r1
 80076e4:	69ab      	ldr	r3, [r5, #24]
 80076e6:	428b      	cmp	r3, r1
 80076e8:	d954      	bls.n	8007794 <get_fat+0xba>
		switch (fs->fs_type) {
 80076ea:	782b      	ldrb	r3, [r5, #0]
 80076ec:	2b02      	cmp	r3, #2
 80076ee:	d02d      	beq.n	800774c <get_fat+0x72>
 80076f0:	2b03      	cmp	r3, #3
 80076f2:	d03b      	beq.n	800776c <get_fat+0x92>
 80076f4:	2b01      	cmp	r3, #1
 80076f6:	d001      	beq.n	80076fc <get_fat+0x22>
 80076f8:	2001      	movs	r0, #1
 80076fa:	e04a      	b.n	8007792 <get_fat+0xb8>
			bc = (UINT)clst; bc += bc / 2;
 80076fc:	eb01 0651 	add.w	r6, r1, r1, lsr #1
			if (move_window(fs, fs->fatbase + (bc / SS(fs))) != FR_OK) break;
 8007700:	6a69      	ldr	r1, [r5, #36]	; 0x24
 8007702:	eb01 2156 	add.w	r1, r1, r6, lsr #9
 8007706:	4628      	mov	r0, r5
 8007708:	f7ff fd84 	bl	8007214 <move_window>
 800770c:	b110      	cbz	r0, 8007714 <get_fat+0x3a>
		val = 0xFFFFFFFF;	/* Default value falls on disk error */
 800770e:	f04f 30ff 	mov.w	r0, #4294967295	; 0xffffffff
 8007712:	e03e      	b.n	8007792 <get_fat+0xb8>
			wc = fs->win[bc++ % SS(fs)];
 8007714:	1c77      	adds	r7, r6, #1
 8007716:	f3c6 0608 	ubfx	r6, r6, #0, #9
 800771a:	442e      	add	r6, r5
 800771c:	f896 6034 	ldrb.w	r6, [r6, #52]	; 0x34
			if (move_window(fs, fs->fatbase + (bc / SS(fs))) != FR_OK) break;
 8007720:	6a69      	ldr	r1, [r5, #36]	; 0x24
 8007722:	eb01 2157 	add.w	r1, r1, r7, lsr #9
 8007726:	4628      	mov	r0, r5
 8007728:	f7ff fd74 	bl	8007214 <move_window>
 800772c:	bba0      	cbnz	r0, 8007798 <get_fat+0xbe>
			wc |= fs->win[bc % SS(fs)] << 8;
 800772e:	f3c7 0708 	ubfx	r7, r7, #0, #9
 8007732:	443d      	add	r5, r7
 8007734:	f895 0034 	ldrb.w	r0, [r5, #52]	; 0x34
 8007738:	ea46 2000 	orr.w	r0, r6, r0, lsl #8
			val = (clst & 1) ? (wc >> 4) : (wc & 0xFFF);
 800773c:	f014 0f01 	tst.w	r4, #1
 8007740:	d001      	beq.n	8007746 <get_fat+0x6c>
 8007742:	0900      	lsrs	r0, r0, #4
 8007744:	e025      	b.n	8007792 <get_fat+0xb8>
 8007746:	f3c0 000b 	ubfx	r0, r0, #0, #12
 800774a:	e022      	b.n	8007792 <get_fat+0xb8>
			if (move_window(fs, fs->fatbase + (clst / (SS(fs) / 2))) != FR_OK) break;
 800774c:	6a69      	ldr	r1, [r5, #36]	; 0x24
 800774e:	eb01 2114 	add.w	r1, r1, r4, lsr #8
 8007752:	4628      	mov	r0, r5
 8007754:	f7ff fd5e 	bl	8007214 <move_window>
 8007758:	bb08      	cbnz	r0, 800779e <get_fat+0xc4>
			val = ld_word(fs->win + clst * 2 % SS(fs));
 800775a:	f105 0034 	add.w	r0, r5, #52	; 0x34
 800775e:	0064      	lsls	r4, r4, #1
 8007760:	f404 74ff 	and.w	r4, r4, #510	; 0x1fe
 8007764:	4420      	add	r0, r4
 8007766:	f7ff fa47 	bl	8006bf8 <ld_word>
			break;
 800776a:	e012      	b.n	8007792 <get_fat+0xb8>
			if (move_window(fs, fs->fatbase + (clst / (SS(fs) / 4))) != FR_OK) break;
 800776c:	6a69      	ldr	r1, [r5, #36]	; 0x24
 800776e:	eb01 11d4 	add.w	r1, r1, r4, lsr #7
 8007772:	4628      	mov	r0, r5
 8007774:	f7ff fd4e 	bl	8007214 <move_window>
 8007778:	b9a0      	cbnz	r0, 80077a4 <get_fat+0xca>
			val = ld_dword(fs->win + clst * 4 % SS(fs)) & 0x0FFFFFFF;
 800777a:	f105 0034 	add.w	r0, r5, #52	; 0x34
 800777e:	00a4      	lsls	r4, r4, #2
 8007780:	f404 74fe 	and.w	r4, r4, #508	; 0x1fc
 8007784:	4420      	add	r0, r4
 8007786:	f7ff fa3c 	bl	8006c02 <ld_dword>
 800778a:	f020 4070 	bic.w	r0, r0, #4026531840	; 0xf0000000
			break;
 800778e:	e000      	b.n	8007792 <get_fat+0xb8>
		val = 1;	/* Internal error */
 8007790:	2001      	movs	r0, #1
}
 8007792:	bdf8      	pop	{r3, r4, r5, r6, r7, pc}
		val = 1;	/* Internal error */
 8007794:	2001      	movs	r0, #1
 8007796:	e7fc      	b.n	8007792 <get_fat+0xb8>
		val = 0xFFFFFFFF;	/* Default value falls on disk error */
 8007798:	f04f 30ff 	mov.w	r0, #4294967295	; 0xffffffff
 800779c:	e7f9      	b.n	8007792 <get_fat+0xb8>
 800779e:	f04f 30ff 	mov.w	r0, #4294967295	; 0xffffffff
 80077a2:	e7f6      	b.n	8007792 <get_fat+0xb8>
 80077a4:	f04f 30ff 	mov.w	r0, #4294967295	; 0xffffffff
	return val;
 80077a8:	e7f3      	b.n	8007792 <get_fat+0xb8>

080077aa <dir_sdi>:
{
 80077aa:	e92d 41f0 	stmdb	sp!, {r4, r5, r6, r7, r8, lr}
	FATFS *fs = dp->obj.fs;
 80077ae:	f8d0 8000 	ldr.w	r8, [r0]
	if (ofs >= (DWORD)((_FS_EXFAT && fs->fs_type == FS_EXFAT) ? MAX_DIR_EX : MAX_DIR) || ofs % SZDIRE) {	/* Check range of offset and alignment */
 80077b2:	f5b1 1f00 	cmp.w	r1, #2097152	; 0x200000
 80077b6:	d240      	bcs.n	800783a <dir_sdi+0x90>
 80077b8:	4606      	mov	r6, r0
 80077ba:	460f      	mov	r7, r1
 80077bc:	f011 0f1f 	tst.w	r1, #31
 80077c0:	d13d      	bne.n	800783e <dir_sdi+0x94>
	dp->dptr = ofs;				/* Set current offset */
 80077c2:	6141      	str	r1, [r0, #20]
	clst = dp->obj.sclust;		/* Table start cluster (0:root) */
 80077c4:	6884      	ldr	r4, [r0, #8]
	if (clst == 0 && fs->fs_type >= FS_FAT32) {	/* Replace cluster# 0 with root cluster# */
 80077c6:	b92c      	cbnz	r4, 80077d4 <dir_sdi+0x2a>
 80077c8:	f898 3000 	ldrb.w	r3, [r8]
 80077cc:	2b02      	cmp	r3, #2
 80077ce:	d901      	bls.n	80077d4 <dir_sdi+0x2a>
		clst = fs->dirbase;
 80077d0:	f8d8 4028 	ldr.w	r4, [r8, #40]	; 0x28
	if (clst == 0) {	/* Static table (root-directory in FAT12/16) */
 80077d4:	b9b4      	cbnz	r4, 8007804 <dir_sdi+0x5a>
		if (ofs / SZDIRE >= fs->n_rootdir)	return FR_INT_ERR;	/* Is index out of range? */
 80077d6:	f8b8 3008 	ldrh.w	r3, [r8, #8]
 80077da:	ebb3 1f57 	cmp.w	r3, r7, lsr #5
 80077de:	d930      	bls.n	8007842 <dir_sdi+0x98>
		dp->sect = fs->dirbase;
 80077e0:	f8d8 3028 	ldr.w	r3, [r8, #40]	; 0x28
 80077e4:	61f3      	str	r3, [r6, #28]
	dp->clust = clst;					/* Current cluster# */
 80077e6:	61b4      	str	r4, [r6, #24]
	if (!dp->sect) return FR_INT_ERR;
 80077e8:	69f3      	ldr	r3, [r6, #28]
 80077ea:	b393      	cbz	r3, 8007852 <dir_sdi+0xa8>
	dp->sect += ofs / SS(fs);			/* Sector# of the directory entry */
 80077ec:	eb03 2357 	add.w	r3, r3, r7, lsr #9
 80077f0:	61f3      	str	r3, [r6, #28]
	dp->dir = fs->win + (ofs % SS(fs));	/* Pointer to the entry in the win[] */
 80077f2:	f108 0334 	add.w	r3, r8, #52	; 0x34
 80077f6:	f3c7 0108 	ubfx	r1, r7, #0, #9
 80077fa:	4419      	add	r1, r3
 80077fc:	6231      	str	r1, [r6, #32]
	return FR_OK;
 80077fe:	2000      	movs	r0, #0
}
 8007800:	e8bd 81f0 	ldmia.w	sp!, {r4, r5, r6, r7, r8, pc}
		csz = (DWORD)fs->csize * SS(fs);	/* Bytes per cluster */
 8007804:	f8b8 500a 	ldrh.w	r5, [r8, #10]
 8007808:	026d      	lsls	r5, r5, #9
		while (ofs >= csz) {				/* Follow cluster chain */
 800780a:	42af      	cmp	r7, r5
 800780c:	d30f      	bcc.n	800782e <dir_sdi+0x84>
			clst = get_fat(&dp->obj, clst);				/* Get next cluster */
 800780e:	4621      	mov	r1, r4
 8007810:	4630      	mov	r0, r6
 8007812:	f7ff ff62 	bl	80076da <get_fat>
 8007816:	4604      	mov	r4, r0
			if (clst == 0xFFFFFFFF) return FR_DISK_ERR;	/* Disk error */
 8007818:	f1b0 3fff 	cmp.w	r0, #4294967295	; 0xffffffff
 800781c:	d013      	beq.n	8007846 <dir_sdi+0x9c>
			if (clst < 2 || clst >= fs->n_fatent) return FR_INT_ERR;	/* Reached to end of table or internal error */
 800781e:	2801      	cmp	r0, #1
 8007820:	d913      	bls.n	800784a <dir_sdi+0xa0>
 8007822:	f8d8 3018 	ldr.w	r3, [r8, #24]
 8007826:	4283      	cmp	r3, r0
 8007828:	d911      	bls.n	800784e <dir_sdi+0xa4>
			ofs -= csz;
 800782a:	1b7f      	subs	r7, r7, r5
 800782c:	e7ed      	b.n	800780a <dir_sdi+0x60>
		dp->sect = clust2sect(fs, clst);
 800782e:	4621      	mov	r1, r4
 8007830:	4640      	mov	r0, r8
 8007832:	f7ff fb01 	bl	8006e38 <clust2sect>
 8007836:	61f0      	str	r0, [r6, #28]
 8007838:	e7d5      	b.n	80077e6 <dir_sdi+0x3c>
		return FR_INT_ERR;
 800783a:	2002      	movs	r0, #2
 800783c:	e7e0      	b.n	8007800 <dir_sdi+0x56>
 800783e:	2002      	movs	r0, #2
 8007840:	e7de      	b.n	8007800 <dir_sdi+0x56>
		if (ofs / SZDIRE >= fs->n_rootdir)	return FR_INT_ERR;	/* Is index out of range? */
 8007842:	2002      	movs	r0, #2
 8007844:	e7dc      	b.n	8007800 <dir_sdi+0x56>
			if (clst == 0xFFFFFFFF) return FR_DISK_ERR;	/* Disk error */
 8007846:	2001      	movs	r0, #1
 8007848:	e7da      	b.n	8007800 <dir_sdi+0x56>
			if (clst < 2 || clst >= fs->n_fatent) return FR_INT_ERR;	/* Reached to end of table or internal error */
 800784a:	2002      	movs	r0, #2
 800784c:	e7d8      	b.n	8007800 <dir_sdi+0x56>
 800784e:	2002      	movs	r0, #2
 8007850:	e7d6      	b.n	8007800 <dir_sdi+0x56>
	if (!dp->sect) return FR_INT_ERR;
 8007852:	2002      	movs	r0, #2
 8007854:	e7d4      	b.n	8007800 <dir_sdi+0x56>

08007856 <create_chain>:
{
 8007856:	e92d 41f0 	stmdb	sp!, {r4, r5, r6, r7, r8, lr}
 800785a:	4605      	mov	r5, r0
	FATFS *fs = obj->fs;
 800785c:	6806      	ldr	r6, [r0, #0]
	if (clst == 0) {	/* Create a new chain */
 800785e:	460f      	mov	r7, r1
 8007860:	b951      	cbnz	r1, 8007878 <create_chain+0x22>
		scl = fs->last_clst;				/* Get suggested cluster to start from */
 8007862:	f8d6 8010 	ldr.w	r8, [r6, #16]
		if (scl == 0 || scl >= fs->n_fatent) scl = 1;
 8007866:	f1b8 0f00 	cmp.w	r8, #0
 800786a:	d012      	beq.n	8007892 <create_chain+0x3c>
 800786c:	69b3      	ldr	r3, [r6, #24]
 800786e:	4543      	cmp	r3, r8
 8007870:	d811      	bhi.n	8007896 <create_chain+0x40>
 8007872:	f04f 0801 	mov.w	r8, #1
 8007876:	e00e      	b.n	8007896 <create_chain+0x40>
		cs = get_fat(obj, clst);			/* Check the cluster status */
 8007878:	f7ff ff2f 	bl	80076da <get_fat>
 800787c:	4603      	mov	r3, r0
		if (cs < 2) return 1;				/* Invalid FAT value */
 800787e:	2801      	cmp	r0, #1
 8007880:	d94c      	bls.n	800791c <create_chain+0xc6>
		if (cs == 0xFFFFFFFF) return cs;	/* A disk error occurred */
 8007882:	f1b0 3fff 	cmp.w	r0, #4294967295	; 0xffffffff
 8007886:	d04e      	beq.n	8007926 <create_chain+0xd0>
		if (cs < fs->n_fatent) return cs;	/* It is already followed by next cluster */
 8007888:	69b2      	ldr	r2, [r6, #24]
 800788a:	4282      	cmp	r2, r0
 800788c:	d84b      	bhi.n	8007926 <create_chain+0xd0>
		scl = clst;
 800788e:	46b8      	mov	r8, r7
 8007890:	e001      	b.n	8007896 <create_chain+0x40>
		if (scl == 0 || scl >= fs->n_fatent) scl = 1;
 8007892:	f04f 0801 	mov.w	r8, #1
		ncl = scl;	/* Start cluster */
 8007896:	4644      	mov	r4, r8
 8007898:	e00c      	b.n	80078b4 <create_chain+0x5e>
			cs = get_fat(obj, ncl);			/* Get the cluster status */
 800789a:	4621      	mov	r1, r4
 800789c:	4628      	mov	r0, r5
 800789e:	f7ff ff1c 	bl	80076da <get_fat>
			if (cs == 0) break;				/* Found a free cluster */
 80078a2:	4603      	mov	r3, r0
 80078a4:	b178      	cbz	r0, 80078c6 <create_chain+0x70>
			if (cs == 1 || cs == 0xFFFFFFFF) return cs;	/* An error occurred */
 80078a6:	f1b0 3fff 	cmp.w	r0, #4294967295	; 0xffffffff
 80078aa:	bf18      	it	ne
 80078ac:	2801      	cmpne	r0, #1
 80078ae:	d03a      	beq.n	8007926 <create_chain+0xd0>
			if (ncl == scl) return 0;		/* No free cluster */
 80078b0:	4544      	cmp	r4, r8
 80078b2:	d037      	beq.n	8007924 <create_chain+0xce>
			ncl++;							/* Next cluster */
 80078b4:	3401      	adds	r4, #1
			if (ncl >= fs->n_fatent) {		/* Check wrap-around */
 80078b6:	69b3      	ldr	r3, [r6, #24]
 80078b8:	42a3      	cmp	r3, r4
 80078ba:	d8ee      	bhi.n	800789a <create_chain+0x44>
				if (ncl > scl) return 0;	/* No free cluster */
 80078bc:	f1b8 0f01 	cmp.w	r8, #1
 80078c0:	d92e      	bls.n	8007920 <create_chain+0xca>
				ncl = 2;
 80078c2:	2402      	movs	r4, #2
 80078c4:	e7e9      	b.n	800789a <create_chain+0x44>
		res = put_fat(fs, ncl, 0xFFFFFFFF);	/* Mark the new cluster 'EOC' */
 80078c6:	f04f 32ff 	mov.w	r2, #4294967295	; 0xffffffff
 80078ca:	4621      	mov	r1, r4
 80078cc:	4630      	mov	r0, r6
 80078ce:	f7ff fe7d 	bl	80075cc <put_fat>
		if (res == FR_OK && clst != 0) {
 80078d2:	4603      	mov	r3, r0
 80078d4:	fab0 f080 	clz	r0, r0
 80078d8:	0940      	lsrs	r0, r0, #5
 80078da:	2f00      	cmp	r7, #0
 80078dc:	bf08      	it	eq
 80078de:	2000      	moveq	r0, #0
 80078e0:	b970      	cbnz	r0, 8007900 <create_chain+0xaa>
	if (res == FR_OK) {			/* Update FSINFO if function succeeded. */
 80078e2:	b9a3      	cbnz	r3, 800790e <create_chain+0xb8>
		fs->last_clst = ncl;
 80078e4:	6134      	str	r4, [r6, #16]
		if (fs->free_clst <= fs->n_fatent - 2) fs->free_clst--;
 80078e6:	6972      	ldr	r2, [r6, #20]
 80078e8:	69b3      	ldr	r3, [r6, #24]
 80078ea:	3b02      	subs	r3, #2
 80078ec:	429a      	cmp	r2, r3
 80078ee:	d801      	bhi.n	80078f4 <create_chain+0x9e>
 80078f0:	3a01      	subs	r2, #1
 80078f2:	6172      	str	r2, [r6, #20]
		fs->fsi_flag |= 1;
 80078f4:	7933      	ldrb	r3, [r6, #4]
 80078f6:	f043 0301 	orr.w	r3, r3, #1
 80078fa:	7133      	strb	r3, [r6, #4]
 80078fc:	4623      	mov	r3, r4
 80078fe:	e012      	b.n	8007926 <create_chain+0xd0>
			res = put_fat(fs, clst, ncl);	/* Link it from the previous one if needed */
 8007900:	4622      	mov	r2, r4
 8007902:	4639      	mov	r1, r7
 8007904:	4630      	mov	r0, r6
 8007906:	f7ff fe61 	bl	80075cc <put_fat>
 800790a:	4603      	mov	r3, r0
 800790c:	e7e9      	b.n	80078e2 <create_chain+0x8c>
		ncl = (res == FR_DISK_ERR) ? 0xFFFFFFFF : 1;	/* Failed. Generate error status */
 800790e:	2b01      	cmp	r3, #1
 8007910:	d001      	beq.n	8007916 <create_chain+0xc0>
 8007912:	2301      	movs	r3, #1
 8007914:	e007      	b.n	8007926 <create_chain+0xd0>
 8007916:	f04f 33ff 	mov.w	r3, #4294967295	; 0xffffffff
 800791a:	e004      	b.n	8007926 <create_chain+0xd0>
		if (cs < 2) return 1;				/* Invalid FAT value */
 800791c:	2301      	movs	r3, #1
 800791e:	e002      	b.n	8007926 <create_chain+0xd0>
				if (ncl > scl) return 0;	/* No free cluster */
 8007920:	2300      	movs	r3, #0
 8007922:	e000      	b.n	8007926 <create_chain+0xd0>
			if (ncl == scl) return 0;		/* No free cluster */
 8007924:	2300      	movs	r3, #0
}
 8007926:	4618      	mov	r0, r3
 8007928:	e8bd 81f0 	ldmia.w	sp!, {r4, r5, r6, r7, r8, pc}

0800792c <remove_chain>:
{
 800792c:	b5f8      	push	{r3, r4, r5, r6, r7, lr}
 800792e:	460c      	mov	r4, r1
	FATFS *fs = obj->fs;
 8007930:	6805      	ldr	r5, [r0, #0]
	if (clst < 2 || clst >= fs->n_fatent) return FR_INT_ERR;	/* Check if in valid range */
 8007932:	2901      	cmp	r1, #1
 8007934:	d92e      	bls.n	8007994 <remove_chain+0x68>
 8007936:	4606      	mov	r6, r0
 8007938:	4611      	mov	r1, r2
 800793a:	69ab      	ldr	r3, [r5, #24]
 800793c:	42a3      	cmp	r3, r4
 800793e:	d92b      	bls.n	8007998 <remove_chain+0x6c>
	if (pclst && (!_FS_EXFAT || fs->fs_type != FS_EXFAT || obj->stat != 2)) {
 8007940:	b14a      	cbz	r2, 8007956 <remove_chain+0x2a>
		res = put_fat(fs, pclst, 0xFFFFFFFF);
 8007942:	f04f 32ff 	mov.w	r2, #4294967295	; 0xffffffff
 8007946:	4628      	mov	r0, r5
 8007948:	f7ff fe40 	bl	80075cc <put_fat>
		if (res != FR_OK) return res;
 800794c:	4607      	mov	r7, r0
 800794e:	b110      	cbz	r0, 8007956 <remove_chain+0x2a>
 8007950:	e023      	b.n	800799a <remove_chain+0x6e>
	} while (clst < fs->n_fatent);	/* Repeat while not the last link */
 8007952:	42a2      	cmp	r2, r4
 8007954:	d921      	bls.n	800799a <remove_chain+0x6e>
		nxt = get_fat(obj, clst);			/* Get cluster status */
 8007956:	4627      	mov	r7, r4
 8007958:	4621      	mov	r1, r4
 800795a:	4630      	mov	r0, r6
 800795c:	f7ff febd 	bl	80076da <get_fat>
		if (nxt == 0) break;				/* Empty cluster? */
 8007960:	4604      	mov	r4, r0
 8007962:	b1e0      	cbz	r0, 800799e <remove_chain+0x72>
		if (nxt == 1) return FR_INT_ERR;	/* Internal error? */
 8007964:	2801      	cmp	r0, #1
 8007966:	d01c      	beq.n	80079a2 <remove_chain+0x76>
		if (nxt == 0xFFFFFFFF) return FR_DISK_ERR;	/* Disk error? */
 8007968:	f1b0 3fff 	cmp.w	r0, #4294967295	; 0xffffffff
 800796c:	d01b      	beq.n	80079a6 <remove_chain+0x7a>
			res = put_fat(fs, clst, 0);		/* Mark the cluster 'free' on the FAT */
 800796e:	2200      	movs	r2, #0
 8007970:	4639      	mov	r1, r7
 8007972:	4628      	mov	r0, r5
 8007974:	f7ff fe2a 	bl	80075cc <put_fat>
			if (res != FR_OK) return res;
 8007978:	4607      	mov	r7, r0
 800797a:	b970      	cbnz	r0, 800799a <remove_chain+0x6e>
		if (fs->free_clst < fs->n_fatent - 2) {	/* Update FSINFO */
 800797c:	696b      	ldr	r3, [r5, #20]
 800797e:	69aa      	ldr	r2, [r5, #24]
 8007980:	1e91      	subs	r1, r2, #2
 8007982:	428b      	cmp	r3, r1
 8007984:	d2e5      	bcs.n	8007952 <remove_chain+0x26>
			fs->free_clst++;
 8007986:	3301      	adds	r3, #1
 8007988:	616b      	str	r3, [r5, #20]
			fs->fsi_flag |= 1;
 800798a:	792b      	ldrb	r3, [r5, #4]
 800798c:	f043 0301 	orr.w	r3, r3, #1
 8007990:	712b      	strb	r3, [r5, #4]
 8007992:	e7de      	b.n	8007952 <remove_chain+0x26>
	if (clst < 2 || clst >= fs->n_fatent) return FR_INT_ERR;	/* Check if in valid range */
 8007994:	2702      	movs	r7, #2
 8007996:	e000      	b.n	800799a <remove_chain+0x6e>
 8007998:	2702      	movs	r7, #2
}
 800799a:	4638      	mov	r0, r7
 800799c:	bdf8      	pop	{r3, r4, r5, r6, r7, pc}
	return FR_OK;
 800799e:	2700      	movs	r7, #0
 80079a0:	e7fb      	b.n	800799a <remove_chain+0x6e>
		if (nxt == 1) return FR_INT_ERR;	/* Internal error? */
 80079a2:	2702      	movs	r7, #2
 80079a4:	e7f9      	b.n	800799a <remove_chain+0x6e>
		if (nxt == 0xFFFFFFFF) return FR_DISK_ERR;	/* Disk error? */
 80079a6:	2701      	movs	r7, #1
 80079a8:	e7f7      	b.n	800799a <remove_chain+0x6e>

080079aa <dir_next>:
{
 80079aa:	e92d 47f0 	stmdb	sp!, {r4, r5, r6, r7, r8, r9, sl, lr}
	FATFS *fs = dp->obj.fs;
 80079ae:	6806      	ldr	r6, [r0, #0]
	ofs = dp->dptr + SZDIRE;	/* Next entry */
 80079b0:	6945      	ldr	r5, [r0, #20]
	if (!dp->sect || ofs >= (DWORD)((_FS_EXFAT && fs->fs_type == FS_EXFAT) ? MAX_DIR_EX : MAX_DIR)) return FR_NO_FILE;	/* Report EOT when offset has reached max value */
 80079b2:	69c3      	ldr	r3, [r0, #28]
 80079b4:	2b00      	cmp	r3, #0
 80079b6:	d06c      	beq.n	8007a92 <dir_next+0xe8>
 80079b8:	4604      	mov	r4, r0
 80079ba:	4688      	mov	r8, r1
 80079bc:	3520      	adds	r5, #32
 80079be:	f5b5 1f00 	cmp.w	r5, #2097152	; 0x200000
 80079c2:	d268      	bcs.n	8007a96 <dir_next+0xec>
	if (ofs % SS(fs) == 0) {	/* Sector changed? */
 80079c4:	f3c5 0708 	ubfx	r7, r5, #0, #9
 80079c8:	b93f      	cbnz	r7, 80079da <dir_next+0x30>
		dp->sect++;				/* Next sector */
 80079ca:	3301      	adds	r3, #1
 80079cc:	61c3      	str	r3, [r0, #28]
		if (!dp->clust) {		/* Static table */
 80079ce:	6981      	ldr	r1, [r0, #24]
 80079d0:	b979      	cbnz	r1, 80079f2 <dir_next+0x48>
			if (ofs / SZDIRE >= fs->n_rootdir) {	/* Report EOT if it reached end of static table */
 80079d2:	8933      	ldrh	r3, [r6, #8]
 80079d4:	ebb3 1f55 	cmp.w	r3, r5, lsr #5
 80079d8:	d907      	bls.n	80079ea <dir_next+0x40>
	dp->dptr = ofs;						/* Current entry */
 80079da:	6165      	str	r5, [r4, #20]
	dp->dir = fs->win + ofs % SS(fs);	/* Pointer to the entry in the win[] */
 80079dc:	f106 0334 	add.w	r3, r6, #52	; 0x34
 80079e0:	443b      	add	r3, r7
 80079e2:	6223      	str	r3, [r4, #32]
	return FR_OK;
 80079e4:	2000      	movs	r0, #0
}
 80079e6:	e8bd 87f0 	ldmia.w	sp!, {r4, r5, r6, r7, r8, r9, sl, pc}
				dp->sect = 0; return FR_NO_FILE;
 80079ea:	2300      	movs	r3, #0
 80079ec:	61c3      	str	r3, [r0, #28]
 80079ee:	2004      	movs	r0, #4
 80079f0:	e7f9      	b.n	80079e6 <dir_next+0x3c>
			if ((ofs / SS(fs) & (fs->csize - 1)) == 0) {		/* Cluster changed? */
 80079f2:	8973      	ldrh	r3, [r6, #10]
 80079f4:	3b01      	subs	r3, #1
 80079f6:	ea13 2955 	ands.w	r9, r3, r5, lsr #9
 80079fa:	d1ee      	bne.n	80079da <dir_next+0x30>
				clst = get_fat(&dp->obj, dp->clust);			/* Get next cluster */
 80079fc:	f7ff fe6d 	bl	80076da <get_fat>
 8007a00:	4682      	mov	sl, r0
				if (clst <= 1) return FR_INT_ERR;				/* Internal error */
 8007a02:	2801      	cmp	r0, #1
 8007a04:	d949      	bls.n	8007a9a <dir_next+0xf0>
				if (clst == 0xFFFFFFFF) return FR_DISK_ERR;		/* Disk error */
 8007a06:	f1b0 3fff 	cmp.w	r0, #4294967295	; 0xffffffff
 8007a0a:	d048      	beq.n	8007a9e <dir_next+0xf4>
				if (clst >= fs->n_fatent) {						/* Reached end of dynamic table */
 8007a0c:	69b3      	ldr	r3, [r6, #24]
 8007a0e:	4283      	cmp	r3, r0
 8007a10:	d837      	bhi.n	8007a82 <dir_next+0xd8>
					if (!stretch) {								/* If no stretch, report EOT */
 8007a12:	f1b8 0f00 	cmp.w	r8, #0
 8007a16:	d011      	beq.n	8007a3c <dir_next+0x92>
					clst = create_chain(&dp->obj, dp->clust);	/* Allocate a cluster */
 8007a18:	69a1      	ldr	r1, [r4, #24]
 8007a1a:	4620      	mov	r0, r4
 8007a1c:	f7ff ff1b 	bl	8007856 <create_chain>
					if (clst == 0) return FR_DENIED;			/* No free cluster */
 8007a20:	4682      	mov	sl, r0
 8007a22:	2800      	cmp	r0, #0
 8007a24:	d03d      	beq.n	8007aa2 <dir_next+0xf8>
					if (clst == 1) return FR_INT_ERR;			/* Internal error */
 8007a26:	2801      	cmp	r0, #1
 8007a28:	d03d      	beq.n	8007aa6 <dir_next+0xfc>
					if (clst == 0xFFFFFFFF) return FR_DISK_ERR;	/* Disk error */
 8007a2a:	f1b0 3fff 	cmp.w	r0, #4294967295	; 0xffffffff
 8007a2e:	d03c      	beq.n	8007aaa <dir_next+0x100>
					if (sync_window(fs) != FR_OK) return FR_DISK_ERR;	/* Flush disk access window */
 8007a30:	4630      	mov	r0, r6
 8007a32:	f7ff fbc5 	bl	80071c0 <sync_window>
 8007a36:	b128      	cbz	r0, 8007a44 <dir_next+0x9a>
 8007a38:	2001      	movs	r0, #1
 8007a3a:	e7d4      	b.n	80079e6 <dir_next+0x3c>
						dp->sect = 0; return FR_NO_FILE;
 8007a3c:	2300      	movs	r3, #0
 8007a3e:	61e3      	str	r3, [r4, #28]
 8007a40:	2004      	movs	r0, #4
 8007a42:	e7d0      	b.n	80079e6 <dir_next+0x3c>
					mem_set(fs->win, 0, SS(fs));				/* Clear window buffer */
 8007a44:	f44f 7200 	mov.w	r2, #512	; 0x200
 8007a48:	2100      	movs	r1, #0
 8007a4a:	f106 0034 	add.w	r0, r6, #52	; 0x34
 8007a4e:	f7ff f8fb 	bl	8006c48 <mem_set>
					for (n = 0, fs->winsect = clust2sect(fs, clst); n < fs->csize; n++, fs->winsect++) {	/* Fill the new cluster with 0 */
 8007a52:	4651      	mov	r1, sl
 8007a54:	4630      	mov	r0, r6
 8007a56:	f7ff f9ef 	bl	8006e38 <clust2sect>
 8007a5a:	6330      	str	r0, [r6, #48]	; 0x30
 8007a5c:	8973      	ldrh	r3, [r6, #10]
 8007a5e:	4599      	cmp	r9, r3
 8007a60:	d20b      	bcs.n	8007a7a <dir_next+0xd0>
						fs->wflag = 1;
 8007a62:	2301      	movs	r3, #1
 8007a64:	70f3      	strb	r3, [r6, #3]
						if (sync_window(fs) != FR_OK) return FR_DISK_ERR;
 8007a66:	4630      	mov	r0, r6
 8007a68:	f7ff fbaa 	bl	80071c0 <sync_window>
 8007a6c:	b9f8      	cbnz	r0, 8007aae <dir_next+0x104>
					for (n = 0, fs->winsect = clust2sect(fs, clst); n < fs->csize; n++, fs->winsect++) {	/* Fill the new cluster with 0 */
 8007a6e:	f109 0901 	add.w	r9, r9, #1
 8007a72:	6b33      	ldr	r3, [r6, #48]	; 0x30
 8007a74:	3301      	adds	r3, #1
 8007a76:	6333      	str	r3, [r6, #48]	; 0x30
 8007a78:	e7f0      	b.n	8007a5c <dir_next+0xb2>
					fs->winsect -= n;							/* Restore window offset */
 8007a7a:	6b33      	ldr	r3, [r6, #48]	; 0x30
 8007a7c:	eba3 0309 	sub.w	r3, r3, r9
 8007a80:	6333      	str	r3, [r6, #48]	; 0x30
				dp->clust = clst;		/* Initialize data for new cluster */
 8007a82:	f8c4 a018 	str.w	sl, [r4, #24]
				dp->sect = clust2sect(fs, clst);
 8007a86:	4651      	mov	r1, sl
 8007a88:	4630      	mov	r0, r6
 8007a8a:	f7ff f9d5 	bl	8006e38 <clust2sect>
 8007a8e:	61e0      	str	r0, [r4, #28]
 8007a90:	e7a3      	b.n	80079da <dir_next+0x30>
	if (!dp->sect || ofs >= (DWORD)((_FS_EXFAT && fs->fs_type == FS_EXFAT) ? MAX_DIR_EX : MAX_DIR)) return FR_NO_FILE;	/* Report EOT when offset has reached max value */
 8007a92:	2004      	movs	r0, #4
 8007a94:	e7a7      	b.n	80079e6 <dir_next+0x3c>
 8007a96:	2004      	movs	r0, #4
 8007a98:	e7a5      	b.n	80079e6 <dir_next+0x3c>
				if (clst <= 1) return FR_INT_ERR;				/* Internal error */
 8007a9a:	2002      	movs	r0, #2
 8007a9c:	e7a3      	b.n	80079e6 <dir_next+0x3c>
				if (clst == 0xFFFFFFFF) return FR_DISK_ERR;		/* Disk error */
 8007a9e:	2001      	movs	r0, #1
 8007aa0:	e7a1      	b.n	80079e6 <dir_next+0x3c>
					if (clst == 0) return FR_DENIED;			/* No free cluster */
 8007aa2:	2007      	movs	r0, #7
 8007aa4:	e79f      	b.n	80079e6 <dir_next+0x3c>
					if (clst == 1) return FR_INT_ERR;			/* Internal error */
 8007aa6:	2002      	movs	r0, #2
 8007aa8:	e79d      	b.n	80079e6 <dir_next+0x3c>
					if (clst == 0xFFFFFFFF) return FR_DISK_ERR;	/* Disk error */
 8007aaa:	2001      	movs	r0, #1
 8007aac:	e79b      	b.n	80079e6 <dir_next+0x3c>
						if (sync_window(fs) != FR_OK) return FR_DISK_ERR;
 8007aae:	2001      	movs	r0, #1
 8007ab0:	e799      	b.n	80079e6 <dir_next+0x3c>

08007ab2 <dir_alloc>:
{
 8007ab2:	b5f8      	push	{r3, r4, r5, r6, r7, lr}
 8007ab4:	4604      	mov	r4, r0
 8007ab6:	460e      	mov	r6, r1
	FATFS *fs = dp->obj.fs;
 8007ab8:	6807      	ldr	r7, [r0, #0]
	res = dir_sdi(dp, 0);
 8007aba:	2100      	movs	r1, #0
 8007abc:	f7ff fe75 	bl	80077aa <dir_sdi>
	if (res == FR_OK) {
 8007ac0:	4602      	mov	r2, r0
 8007ac2:	b9b8      	cbnz	r0, 8007af4 <dir_alloc+0x42>
		n = 0;
 8007ac4:	2500      	movs	r5, #0
 8007ac6:	e006      	b.n	8007ad6 <dir_alloc+0x24>
				n = 0;					/* Not a blank entry. Restart to search */
 8007ac8:	2500      	movs	r5, #0
			res = dir_next(dp, 1);
 8007aca:	2101      	movs	r1, #1
 8007acc:	4620      	mov	r0, r4
 8007ace:	f7ff ff6c 	bl	80079aa <dir_next>
		} while (res == FR_OK);	/* Next entry with table stretch enabled */
 8007ad2:	4602      	mov	r2, r0
 8007ad4:	b970      	cbnz	r0, 8007af4 <dir_alloc+0x42>
			res = move_window(fs, dp->sect);
 8007ad6:	69e1      	ldr	r1, [r4, #28]
 8007ad8:	4638      	mov	r0, r7
 8007ada:	f7ff fb9b 	bl	8007214 <move_window>
			if (res != FR_OK) break;
 8007ade:	4602      	mov	r2, r0
 8007ae0:	b940      	cbnz	r0, 8007af4 <dir_alloc+0x42>
			if (dp->dir[DIR_Name] == DDEM || dp->dir[DIR_Name] == 0) {
 8007ae2:	6a23      	ldr	r3, [r4, #32]
 8007ae4:	781b      	ldrb	r3, [r3, #0]
 8007ae6:	2b00      	cmp	r3, #0
 8007ae8:	bf18      	it	ne
 8007aea:	2be5      	cmpne	r3, #229	; 0xe5
 8007aec:	d1ec      	bne.n	8007ac8 <dir_alloc+0x16>
				if (++n == nent) break;	/* A block of contiguous free entries is found */
 8007aee:	3501      	adds	r5, #1
 8007af0:	42b5      	cmp	r5, r6
 8007af2:	d1ea      	bne.n	8007aca <dir_alloc+0x18>
	if (res == FR_NO_FILE) res = FR_DENIED;	/* No directory entry to allocate */
 8007af4:	2a04      	cmp	r2, #4
 8007af6:	d001      	beq.n	8007afc <dir_alloc+0x4a>
}
 8007af8:	4610      	mov	r0, r2
 8007afa:	bdf8      	pop	{r3, r4, r5, r6, r7, pc}
	if (res == FR_NO_FILE) res = FR_DENIED;	/* No directory entry to allocate */
 8007afc:	2207      	movs	r2, #7
 8007afe:	e7fb      	b.n	8007af8 <dir_alloc+0x46>

08007b00 <dir_read>:
{
 8007b00:	e92d 43f8 	stmdb	sp!, {r3, r4, r5, r6, r7, r8, r9, lr}
 8007b04:	4604      	mov	r4, r0
 8007b06:	4688      	mov	r8, r1
	FATFS *fs = dp->obj.fs;
 8007b08:	6807      	ldr	r7, [r0, #0]
	BYTE ord = 0xFF, sum = 0xFF;
 8007b0a:	f04f 09ff 	mov.w	r9, #255	; 0xff
 8007b0e:	464e      	mov	r6, r9
	FRESULT res = FR_NO_FILE;
 8007b10:	2504      	movs	r5, #4
	while (dp->sect) {
 8007b12:	e02c      	b.n	8007b6e <dir_read+0x6e>
				if (a == AM_LFN) {			/* An LFN entry is found */
 8007b14:	2b0f      	cmp	r3, #15
 8007b16:	d119      	bne.n	8007b4c <dir_read+0x4c>
					if (c & LLEF) {			/* Is it start of an LFN sequence? */
 8007b18:	f012 0f40 	tst.w	r2, #64	; 0x40
 8007b1c:	d006      	beq.n	8007b2c <dir_read+0x2c>
						sum = dp->dir[LDIR_Chksum];
 8007b1e:	f891 900d 	ldrb.w	r9, [r1, #13]
						c &= (BYTE)~LLEF; ord = c;
 8007b22:	f002 02bf 	and.w	r2, r2, #191	; 0xbf
						dp->blk_ofs = dp->dptr;
 8007b26:	6963      	ldr	r3, [r4, #20]
 8007b28:	6323      	str	r3, [r4, #48]	; 0x30
						c &= (BYTE)~LLEF; ord = c;
 8007b2a:	4616      	mov	r6, r2
					ord = (c == ord && sum == dp->dir[LDIR_Chksum] && pick_lfn(fs->lfnbuf, dp->dir)) ? ord - 1 : 0xFF;
 8007b2c:	42b2      	cmp	r2, r6
 8007b2e:	d001      	beq.n	8007b34 <dir_read+0x34>
 8007b30:	26ff      	movs	r6, #255	; 0xff
 8007b32:	e016      	b.n	8007b62 <dir_read+0x62>
 8007b34:	7b4b      	ldrb	r3, [r1, #13]
 8007b36:	454b      	cmp	r3, r9
 8007b38:	d001      	beq.n	8007b3e <dir_read+0x3e>
 8007b3a:	26ff      	movs	r6, #255	; 0xff
 8007b3c:	e011      	b.n	8007b62 <dir_read+0x62>
 8007b3e:	68f8      	ldr	r0, [r7, #12]
 8007b40:	f7ff f9ac 	bl	8006e9c <pick_lfn>
 8007b44:	b378      	cbz	r0, 8007ba6 <dir_read+0xa6>
 8007b46:	3e01      	subs	r6, #1
 8007b48:	b2f6      	uxtb	r6, r6
 8007b4a:	e00a      	b.n	8007b62 <dir_read+0x62>
					if (ord || sum != sum_sfn(dp->dir)) {	/* Is there a valid LFN? */
 8007b4c:	b926      	cbnz	r6, 8007b58 <dir_read+0x58>
 8007b4e:	4608      	mov	r0, r1
 8007b50:	f7ff fa77 	bl	8007042 <sum_sfn>
 8007b54:	4548      	cmp	r0, r9
 8007b56:	d029      	beq.n	8007bac <dir_read+0xac>
						dp->blk_ofs = 0xFFFFFFFF;			/* It has no LFN. */
 8007b58:	f04f 33ff 	mov.w	r3, #4294967295	; 0xffffffff
 8007b5c:	6323      	str	r3, [r4, #48]	; 0x30
 8007b5e:	e025      	b.n	8007bac <dir_read+0xac>
				ord = 0xFF;
 8007b60:	26ff      	movs	r6, #255	; 0xff
		res = dir_next(dp, 0);		/* Next entry */
 8007b62:	2100      	movs	r1, #0
 8007b64:	4620      	mov	r0, r4
 8007b66:	f7ff ff20 	bl	80079aa <dir_next>
		if (res != FR_OK) break;
 8007b6a:	4605      	mov	r5, r0
 8007b6c:	b9f0      	cbnz	r0, 8007bac <dir_read+0xac>
	while (dp->sect) {
 8007b6e:	69e1      	ldr	r1, [r4, #28]
 8007b70:	b1e1      	cbz	r1, 8007bac <dir_read+0xac>
		res = move_window(fs, dp->sect);
 8007b72:	4638      	mov	r0, r7
 8007b74:	f7ff fb4e 	bl	8007214 <move_window>
		if (res != FR_OK) break;
 8007b78:	4605      	mov	r5, r0
 8007b7a:	b9b8      	cbnz	r0, 8007bac <dir_read+0xac>
		c = dp->dir[DIR_Name];	/* Test for the entry type */
 8007b7c:	6a21      	ldr	r1, [r4, #32]
 8007b7e:	780a      	ldrb	r2, [r1, #0]
		if (c == 0) {
 8007b80:	b19a      	cbz	r2, 8007baa <dir_read+0xaa>
			dp->obj.attr = a = dp->dir[DIR_Attr] & AM_MASK;	/* Get attribute */
 8007b82:	7acb      	ldrb	r3, [r1, #11]
 8007b84:	f003 033f 	and.w	r3, r3, #63	; 0x3f
 8007b88:	71a3      	strb	r3, [r4, #6]
			if (c == DDEM || c == '.' || (int)((a & ~AM_ARC) == AM_VOL) != vol) {	/* An entry without valid data */
 8007b8a:	2a2e      	cmp	r2, #46	; 0x2e
 8007b8c:	bf18      	it	ne
 8007b8e:	2ae5      	cmpne	r2, #229	; 0xe5
 8007b90:	d0e6      	beq.n	8007b60 <dir_read+0x60>
 8007b92:	f023 0020 	bic.w	r0, r3, #32
 8007b96:	2808      	cmp	r0, #8
 8007b98:	bf14      	ite	ne
 8007b9a:	2000      	movne	r0, #0
 8007b9c:	2001      	moveq	r0, #1
 8007b9e:	4540      	cmp	r0, r8
 8007ba0:	d0b8      	beq.n	8007b14 <dir_read+0x14>
				ord = 0xFF;
 8007ba2:	26ff      	movs	r6, #255	; 0xff
 8007ba4:	e7dd      	b.n	8007b62 <dir_read+0x62>
					ord = (c == ord && sum == dp->dir[LDIR_Chksum] && pick_lfn(fs->lfnbuf, dp->dir)) ? ord - 1 : 0xFF;
 8007ba6:	26ff      	movs	r6, #255	; 0xff
 8007ba8:	e7db      	b.n	8007b62 <dir_read+0x62>
			res = FR_NO_FILE; break; /* Reached to end of the directory */
 8007baa:	2504      	movs	r5, #4
	if (res != FR_OK) dp->sect = 0;		/* Terminate the read operation on error or EOT */
 8007bac:	b10d      	cbz	r5, 8007bb2 <dir_read+0xb2>
 8007bae:	2300      	movs	r3, #0
 8007bb0:	61e3      	str	r3, [r4, #28]
}
 8007bb2:	4628      	mov	r0, r5
 8007bb4:	e8bd 83f8 	ldmia.w	sp!, {r3, r4, r5, r6, r7, r8, r9, pc}

08007bb8 <create_name>:
{
 8007bb8:	e92d 4ff0 	stmdb	sp!, {r4, r5, r6, r7, r8, r9, sl, fp, lr}
 8007bbc:	b083      	sub	sp, #12
 8007bbe:	4680      	mov	r8, r0
 8007bc0:	468a      	mov	sl, r1
	p = *path; lfn = dp->obj.fs->lfnbuf; si = di = 0;
 8007bc2:	f8d1 9000 	ldr.w	r9, [r1]
 8007bc6:	6803      	ldr	r3, [r0, #0]
 8007bc8:	68dd      	ldr	r5, [r3, #12]
 8007bca:	2400      	movs	r4, #0
 8007bcc:	4623      	mov	r3, r4
 8007bce:	e01d      	b.n	8007c0c <create_name+0x54>
			while (p[si] == '/' || p[si] == '\\') si++;	/* Skip duplicated separator if exist */
 8007bd0:	3701      	adds	r7, #1
 8007bd2:	f819 3007 	ldrb.w	r3, [r9, r7]
 8007bd6:	2b5c      	cmp	r3, #92	; 0x5c
 8007bd8:	bf18      	it	ne
 8007bda:	2b2f      	cmpne	r3, #47	; 0x2f
 8007bdc:	d0f8      	beq.n	8007bd0 <create_name+0x18>
	*path = &p[si];						/* Return pointer to the next segment */
 8007bde:	444f      	add	r7, r9
 8007be0:	f8ca 7000 	str.w	r7, [sl]
	cf = (w < ' ') ? NS_LAST : 0;		/* Set last segment flag if end of the path */
 8007be4:	281f      	cmp	r0, #31
 8007be6:	d82e      	bhi.n	8007c46 <create_name+0x8e>
 8007be8:	f04f 0904 	mov.w	r9, #4
	while (di) {						/* Snip off trailing spaces and dots if exist */
 8007bec:	b374      	cbz	r4, 8007c4c <create_name+0x94>
		w = lfn[di - 1];
 8007bee:	f06f 4300 	mvn.w	r3, #2147483648	; 0x80000000
 8007bf2:	4423      	add	r3, r4
 8007bf4:	f835 3013 	ldrh.w	r3, [r5, r3, lsl #1]
		if (w != ' ' && w != '.') break;
 8007bf8:	2b20      	cmp	r3, #32
 8007bfa:	bf18      	it	ne
 8007bfc:	2b2e      	cmpne	r3, #46	; 0x2e
 8007bfe:	d125      	bne.n	8007c4c <create_name+0x94>
		di--;
 8007c00:	3c01      	subs	r4, #1
 8007c02:	e7f3      	b.n	8007bec <create_name+0x34>
		lfn[di++] = w;					/* Store the Unicode character */
 8007c04:	f825 6014 	strh.w	r6, [r5, r4, lsl #1]
 8007c08:	3401      	adds	r4, #1
		w = p[si++];					/* Get a character */
 8007c0a:	463b      	mov	r3, r7
 8007c0c:	1c5f      	adds	r7, r3, #1
 8007c0e:	f819 0003 	ldrb.w	r0, [r9, r3]
		if (w < ' ') break;				/* Break if end of the path name */
 8007c12:	281f      	cmp	r0, #31
 8007c14:	d9e3      	bls.n	8007bde <create_name+0x26>
		if (w == '/' || w == '\\') {	/* Break if a separator is found */
 8007c16:	285c      	cmp	r0, #92	; 0x5c
 8007c18:	bf18      	it	ne
 8007c1a:	282f      	cmpne	r0, #47	; 0x2f
 8007c1c:	d0d9      	beq.n	8007bd2 <create_name+0x1a>
		if (di >= _MAX_LFN) return FR_INVALID_NAME;	/* Reject too long name */
 8007c1e:	2cfe      	cmp	r4, #254	; 0xfe
 8007c20:	f200 80d7 	bhi.w	8007dd2 <create_name+0x21a>
		w = ff_convert(w, 1);			/* Convert ANSI/OEM to Unicode */
 8007c24:	2101      	movs	r1, #1
 8007c26:	f000 fea5 	bl	8008974 <ff_convert>
		if (!w) return FR_INVALID_NAME;	/* Reject invalid code */
 8007c2a:	4606      	mov	r6, r0
 8007c2c:	2800      	cmp	r0, #0
 8007c2e:	f000 80d2 	beq.w	8007dd6 <create_name+0x21e>
		if (w < 0x80 && chk_chr("\"*:<>\?|\x7F", w)) return FR_INVALID_NAME;	/* Reject illegal characters for LFN */
 8007c32:	287f      	cmp	r0, #127	; 0x7f
 8007c34:	d8e6      	bhi.n	8007c04 <create_name+0x4c>
 8007c36:	4601      	mov	r1, r0
 8007c38:	4869      	ldr	r0, [pc, #420]	; (8007de0 <create_name+0x228>)
 8007c3a:	f7ff f817 	bl	8006c6c <chk_chr>
 8007c3e:	2800      	cmp	r0, #0
 8007c40:	d0e0      	beq.n	8007c04 <create_name+0x4c>
 8007c42:	2006      	movs	r0, #6
 8007c44:	e06f      	b.n	8007d26 <create_name+0x16e>
	cf = (w < ' ') ? NS_LAST : 0;		/* Set last segment flag if end of the path */
 8007c46:	f04f 0900 	mov.w	r9, #0
	while (di) {						/* Snip off trailing spaces and dots if exist */
 8007c4a:	e7cf      	b.n	8007bec <create_name+0x34>
	lfn[di] = 0;						/* LFN is created */
 8007c4c:	2300      	movs	r3, #0
 8007c4e:	f825 3014 	strh.w	r3, [r5, r4, lsl #1]
	if (di == 0) return FR_INVALID_NAME;	/* Reject nul name */
 8007c52:	2c00      	cmp	r4, #0
 8007c54:	f000 80c1 	beq.w	8007dda <create_name+0x222>
	mem_set(dp->fn, ' ', 11);
 8007c58:	220b      	movs	r2, #11
 8007c5a:	2120      	movs	r1, #32
 8007c5c:	f108 0024 	add.w	r0, r8, #36	; 0x24
 8007c60:	f7fe fff2 	bl	8006c48 <mem_set>
	for (si = 0; lfn[si] == ' ' || lfn[si] == '.'; si++) ;	/* Strip leading spaces and dots */
 8007c64:	2300      	movs	r3, #0
 8007c66:	f835 2013 	ldrh.w	r2, [r5, r3, lsl #1]
 8007c6a:	2a2e      	cmp	r2, #46	; 0x2e
 8007c6c:	bf18      	it	ne
 8007c6e:	2a20      	cmpne	r2, #32
 8007c70:	d101      	bne.n	8007c76 <create_name+0xbe>
 8007c72:	3301      	adds	r3, #1
 8007c74:	e7f7      	b.n	8007c66 <create_name+0xae>
	if (si) cf |= NS_LOSS | NS_LFN;
 8007c76:	b11b      	cbz	r3, 8007c80 <create_name+0xc8>
 8007c78:	f049 0903 	orr.w	r9, r9, #3
 8007c7c:	e000      	b.n	8007c80 <create_name+0xc8>
	while (di && lfn[di - 1] != '.') di--;	/* Find extension (di<=si: no extension) */
 8007c7e:	3c01      	subs	r4, #1
 8007c80:	b16c      	cbz	r4, 8007c9e <create_name+0xe6>
 8007c82:	f06f 4200 	mvn.w	r2, #2147483648	; 0x80000000
 8007c86:	4422      	add	r2, r4
 8007c88:	f835 2012 	ldrh.w	r2, [r5, r2, lsl #1]
 8007c8c:	2a2e      	cmp	r2, #46	; 0x2e
 8007c8e:	d1f6      	bne.n	8007c7e <create_name+0xc6>
 8007c90:	f04f 0b08 	mov.w	fp, #8
 8007c94:	f04f 0a00 	mov.w	sl, #0
 8007c98:	f8cd a004 	str.w	sl, [sp, #4]
 8007c9c:	e008      	b.n	8007cb0 <create_name+0xf8>
 8007c9e:	46a2      	mov	sl, r4
 8007ca0:	f04f 0b08 	mov.w	fp, #8
 8007ca4:	2200      	movs	r2, #0
 8007ca6:	9201      	str	r2, [sp, #4]
 8007ca8:	e002      	b.n	8007cb0 <create_name+0xf8>
			cf |= NS_LOSS | NS_LFN; continue;
 8007caa:	f049 0903 	orr.w	r9, r9, #3
		w = lfn[si++];					/* Get an LFN character */
 8007cae:	463b      	mov	r3, r7
 8007cb0:	1c5f      	adds	r7, r3, #1
 8007cb2:	f835 6013 	ldrh.w	r6, [r5, r3, lsl #1]
		if (!w) break;					/* Break on end of the LFN */
 8007cb6:	b1be      	cbz	r6, 8007ce8 <create_name+0x130>
		if (w == ' ' || (w == '.' && si != di)) {	/* Remove spaces and dots */
 8007cb8:	2e20      	cmp	r6, #32
 8007cba:	d0f6      	beq.n	8007caa <create_name+0xf2>
 8007cbc:	2e2e      	cmp	r6, #46	; 0x2e
 8007cbe:	bf14      	ite	ne
 8007cc0:	2300      	movne	r3, #0
 8007cc2:	2301      	moveq	r3, #1
 8007cc4:	42bc      	cmp	r4, r7
 8007cc6:	bf08      	it	eq
 8007cc8:	2300      	moveq	r3, #0
 8007cca:	2b00      	cmp	r3, #0
 8007ccc:	d1ed      	bne.n	8007caa <create_name+0xf2>
		if (i >= ni || si == di) {		/* Extension or end of SFN */
 8007cce:	42bc      	cmp	r4, r7
 8007cd0:	bf18      	it	ne
 8007cd2:	45da      	cmpne	sl, fp
 8007cd4:	d337      	bcc.n	8007d46 <create_name+0x18e>
			if (ni == 11) {				/* Long extension */
 8007cd6:	f1bb 0f0b 	cmp.w	fp, #11
 8007cda:	d027      	beq.n	8007d2c <create_name+0x174>
			if (si != di) cf |= NS_LOSS | NS_LFN;	/* Out of 8.3 format */
 8007cdc:	42bc      	cmp	r4, r7
 8007cde:	d001      	beq.n	8007ce4 <create_name+0x12c>
 8007ce0:	f049 0903 	orr.w	r9, r9, #3
			if (si > di) break;			/* No extension */
 8007ce4:	42bc      	cmp	r4, r7
 8007ce6:	d224      	bcs.n	8007d32 <create_name+0x17a>
	if (dp->fn[0] == DDEM) dp->fn[0] = RDDEM;	/* If the first character collides with DDEM, replace it with RDDEM */
 8007ce8:	f898 3024 	ldrb.w	r3, [r8, #36]	; 0x24
 8007cec:	2be5      	cmp	r3, #229	; 0xe5
 8007cee:	d061      	beq.n	8007db4 <create_name+0x1fc>
	if (ni == 8) b <<= 2;
 8007cf0:	f1bb 0f08 	cmp.w	fp, #8
 8007cf4:	d062      	beq.n	8007dbc <create_name+0x204>
	if ((b & 0x0C) == 0x0C || (b & 0x03) == 0x03) cf |= NS_LFN;	/* Create LFN entry when there are composite capitals */
 8007cf6:	9b01      	ldr	r3, [sp, #4]
 8007cf8:	f003 020c 	and.w	r2, r3, #12
 8007cfc:	2a0c      	cmp	r2, #12
 8007cfe:	d003      	beq.n	8007d08 <create_name+0x150>
 8007d00:	f003 0303 	and.w	r3, r3, #3
 8007d04:	2b03      	cmp	r3, #3
 8007d06:	d101      	bne.n	8007d0c <create_name+0x154>
 8007d08:	f049 0902 	orr.w	r9, r9, #2
	if (!(cf & NS_LFN)) {						/* When LFN is in 8.3 format without extended character, NT flags are created */
 8007d0c:	f019 0f02 	tst.w	r9, #2
 8007d10:	d106      	bne.n	8007d20 <create_name+0x168>
		if ((b & 0x03) == 0x01) cf |= NS_EXT;	/* NT flag (Extension has only small capital) */
 8007d12:	9b01      	ldr	r3, [sp, #4]
 8007d14:	f003 0303 	and.w	r3, r3, #3
 8007d18:	2b01      	cmp	r3, #1
 8007d1a:	d054      	beq.n	8007dc6 <create_name+0x20e>
		if ((b & 0x0C) == 0x04) cf |= NS_BODY;	/* NT flag (Filename has only small capital) */
 8007d1c:	2a04      	cmp	r2, #4
 8007d1e:	d055      	beq.n	8007dcc <create_name+0x214>
	dp->fn[NSFLAG] = cf;	/* SFN is created */
 8007d20:	f888 902f 	strb.w	r9, [r8, #47]	; 0x2f
	return FR_OK;
 8007d24:	2000      	movs	r0, #0
}
 8007d26:	b003      	add	sp, #12
 8007d28:	e8bd 8ff0 	ldmia.w	sp!, {r4, r5, r6, r7, r8, r9, sl, fp, pc}
				cf |= NS_LOSS | NS_LFN; break;
 8007d2c:	f049 0903 	orr.w	r9, r9, #3
 8007d30:	e7da      	b.n	8007ce8 <create_name+0x130>
			b <<= 2; continue;
 8007d32:	9b01      	ldr	r3, [sp, #4]
 8007d34:	009b      	lsls	r3, r3, #2
 8007d36:	b2db      	uxtb	r3, r3
 8007d38:	9301      	str	r3, [sp, #4]
			si = di; i = 8; ni = 11;	/* Enter extension section */
 8007d3a:	4623      	mov	r3, r4
 8007d3c:	f04f 0b0b 	mov.w	fp, #11
 8007d40:	f04f 0a08 	mov.w	sl, #8
			b <<= 2; continue;
 8007d44:	e7b4      	b.n	8007cb0 <create_name+0xf8>
		if (w >= 0x80) {				/* Non ASCII character */
 8007d46:	2e7f      	cmp	r6, #127	; 0x7f
 8007d48:	d80b      	bhi.n	8007d62 <create_name+0x1aa>
			if (!w || chk_chr("+,;=[]", w)) {	/* Replace illegal characters for SFN */
 8007d4a:	b9be      	cbnz	r6, 8007d7c <create_name+0x1c4>
				w = '_'; cf |= NS_LOSS | NS_LFN;/* Lossy conversion */
 8007d4c:	f049 0903 	orr.w	r9, r9, #3
 8007d50:	265f      	movs	r6, #95	; 0x5f
		dp->fn[i++] = (BYTE)w;
 8007d52:	eb08 030a 	add.w	r3, r8, sl
 8007d56:	f883 6024 	strb.w	r6, [r3, #36]	; 0x24
		w = lfn[si++];					/* Get an LFN character */
 8007d5a:	463b      	mov	r3, r7
		dp->fn[i++] = (BYTE)w;
 8007d5c:	f10a 0a01 	add.w	sl, sl, #1
 8007d60:	e7a6      	b.n	8007cb0 <create_name+0xf8>
			w = ff_convert(w, 0);		/* Unicode -> OEM code */
 8007d62:	2100      	movs	r1, #0
 8007d64:	4630      	mov	r0, r6
 8007d66:	f000 fe05 	bl	8008974 <ff_convert>
			if (w) w = ExCvt[w - 0x80];	/* Convert extended character to upper (SBCS) */
 8007d6a:	4606      	mov	r6, r0
 8007d6c:	b118      	cbz	r0, 8007d76 <create_name+0x1be>
 8007d6e:	f1a0 0680 	sub.w	r6, r0, #128	; 0x80
 8007d72:	4b1c      	ldr	r3, [pc, #112]	; (8007de4 <create_name+0x22c>)
 8007d74:	5d9e      	ldrb	r6, [r3, r6]
			cf |= NS_LFN;				/* Force create LFN entry */
 8007d76:	f049 0902 	orr.w	r9, r9, #2
 8007d7a:	e7e6      	b.n	8007d4a <create_name+0x192>
			if (!w || chk_chr("+,;=[]", w)) {	/* Replace illegal characters for SFN */
 8007d7c:	4631      	mov	r1, r6
 8007d7e:	481a      	ldr	r0, [pc, #104]	; (8007de8 <create_name+0x230>)
 8007d80:	f7fe ff74 	bl	8006c6c <chk_chr>
 8007d84:	2800      	cmp	r0, #0
 8007d86:	d1e1      	bne.n	8007d4c <create_name+0x194>
				if (IsUpper(w)) {		/* ASCII large capital */
 8007d88:	f1a6 0341 	sub.w	r3, r6, #65	; 0x41
 8007d8c:	b29b      	uxth	r3, r3
 8007d8e:	2b19      	cmp	r3, #25
 8007d90:	d804      	bhi.n	8007d9c <create_name+0x1e4>
					b |= 2;
 8007d92:	9b01      	ldr	r3, [sp, #4]
 8007d94:	f043 0302 	orr.w	r3, r3, #2
 8007d98:	9301      	str	r3, [sp, #4]
 8007d9a:	e7da      	b.n	8007d52 <create_name+0x19a>
					if (IsLower(w)) {	/* ASCII small capital */
 8007d9c:	f1a6 0361 	sub.w	r3, r6, #97	; 0x61
 8007da0:	b29b      	uxth	r3, r3
 8007da2:	2b19      	cmp	r3, #25
 8007da4:	d8d5      	bhi.n	8007d52 <create_name+0x19a>
						b |= 1; w -= 0x20;
 8007da6:	9b01      	ldr	r3, [sp, #4]
 8007da8:	f043 0301 	orr.w	r3, r3, #1
 8007dac:	9301      	str	r3, [sp, #4]
 8007dae:	3e20      	subs	r6, #32
 8007db0:	b2b6      	uxth	r6, r6
 8007db2:	e7ce      	b.n	8007d52 <create_name+0x19a>
	if (dp->fn[0] == DDEM) dp->fn[0] = RDDEM;	/* If the first character collides with DDEM, replace it with RDDEM */
 8007db4:	2305      	movs	r3, #5
 8007db6:	f888 3024 	strb.w	r3, [r8, #36]	; 0x24
 8007dba:	e799      	b.n	8007cf0 <create_name+0x138>
	if (ni == 8) b <<= 2;
 8007dbc:	9b01      	ldr	r3, [sp, #4]
 8007dbe:	009b      	lsls	r3, r3, #2
 8007dc0:	b2db      	uxtb	r3, r3
 8007dc2:	9301      	str	r3, [sp, #4]
 8007dc4:	e797      	b.n	8007cf6 <create_name+0x13e>
		if ((b & 0x03) == 0x01) cf |= NS_EXT;	/* NT flag (Extension has only small capital) */
 8007dc6:	f049 0910 	orr.w	r9, r9, #16
 8007dca:	e7a7      	b.n	8007d1c <create_name+0x164>
		if ((b & 0x0C) == 0x04) cf |= NS_BODY;	/* NT flag (Filename has only small capital) */
 8007dcc:	f049 0908 	orr.w	r9, r9, #8
 8007dd0:	e7a6      	b.n	8007d20 <create_name+0x168>
		if (di >= _MAX_LFN) return FR_INVALID_NAME;	/* Reject too long name */
 8007dd2:	2006      	movs	r0, #6
 8007dd4:	e7a7      	b.n	8007d26 <create_name+0x16e>
		if (!w) return FR_INVALID_NAME;	/* Reject invalid code */
 8007dd6:	2006      	movs	r0, #6
 8007dd8:	e7a5      	b.n	8007d26 <create_name+0x16e>
	if (di == 0) return FR_INVALID_NAME;	/* Reject nul name */
 8007dda:	2006      	movs	r0, #6
 8007ddc:	e7a3      	b.n	8007d26 <create_name+0x16e>
 8007dde:	bf00      	nop
 8007de0:	08008ad0 	.word	0x08008ad0
 8007de4:	08008ae4 	.word	0x08008ae4
 8007de8:	08008adc 	.word	0x08008adc

08007dec <get_fileinfo>:
{
 8007dec:	e92d 41f0 	stmdb	sp!, {r4, r5, r6, r7, r8, lr}
	FATFS *fs = dp->obj.fs;
 8007df0:	f8d0 8000 	ldr.w	r8, [r0]
	fno->fname[0] = 0;		/* Invaidate file info */
 8007df4:	2300      	movs	r3, #0
 8007df6:	758b      	strb	r3, [r1, #22]
	if (!dp->sect) return;	/* Exit if read pointer has reached end of directory */
 8007df8:	69c3      	ldr	r3, [r0, #28]
 8007dfa:	2b00      	cmp	r3, #0
 8007dfc:	d06b      	beq.n	8007ed6 <get_fileinfo+0xea>
 8007dfe:	4606      	mov	r6, r0
 8007e00:	460c      	mov	r4, r1
		if (dp->blk_ofs != 0xFFFFFFFF) {	/* Get LFN if available */
 8007e02:	6b03      	ldr	r3, [r0, #48]	; 0x30
 8007e04:	f1b3 3fff 	cmp.w	r3, #4294967295	; 0xffffffff
 8007e08:	d016      	beq.n	8007e38 <get_fileinfo+0x4c>
			i = j = 0;
 8007e0a:	2300      	movs	r3, #0
 8007e0c:	461d      	mov	r5, r3
			while ((w = fs->lfnbuf[j++]) != 0) {	/* Get an LFN character */
 8007e0e:	f8d8 200c 	ldr.w	r2, [r8, #12]
 8007e12:	1c5f      	adds	r7, r3, #1
 8007e14:	f832 0013 	ldrh.w	r0, [r2, r3, lsl #1]
 8007e18:	b158      	cbz	r0, 8007e32 <get_fileinfo+0x46>
				w = ff_convert(w, 0);		/* Unicode -> OEM */
 8007e1a:	2100      	movs	r1, #0
 8007e1c:	f000 fdaa 	bl	8008974 <ff_convert>
				if (w == 0) { i = 0; break; }	/* No LFN if it could not be converted */
 8007e20:	b130      	cbz	r0, 8007e30 <get_fileinfo+0x44>
				if (i >= _MAX_LFN) { i = 0; break; }	/* No LFN if buffer overflow */
 8007e22:	2dfe      	cmp	r5, #254	; 0xfe
 8007e24:	d80c      	bhi.n	8007e40 <get_fileinfo+0x54>
				fno->fname[i++] = (TCHAR)w;
 8007e26:	1962      	adds	r2, r4, r5
 8007e28:	7590      	strb	r0, [r2, #22]
			while ((w = fs->lfnbuf[j++]) != 0) {	/* Get an LFN character */
 8007e2a:	463b      	mov	r3, r7
				fno->fname[i++] = (TCHAR)w;
 8007e2c:	3501      	adds	r5, #1
 8007e2e:	e7ee      	b.n	8007e0e <get_fileinfo+0x22>
				if (w == 0) { i = 0; break; }	/* No LFN if it could not be converted */
 8007e30:	2500      	movs	r5, #0
			fno->fname[i] = 0;	/* Terminate the LFN */
 8007e32:	4425      	add	r5, r4
 8007e34:	2300      	movs	r3, #0
 8007e36:	75ab      	strb	r3, [r5, #22]
	lfv = fno->fname[i];	/* LFN is exist if non-zero */
 8007e38:	7da5      	ldrb	r5, [r4, #22]
	i = j = 0;
 8007e3a:	2200      	movs	r2, #0
 8007e3c:	4613      	mov	r3, r2
	while (i < 11) {		/* Copy name body and extension */
 8007e3e:	e012      	b.n	8007e66 <get_fileinfo+0x7a>
				if (i >= _MAX_LFN) { i = 0; break; }	/* No LFN if buffer overflow */
 8007e40:	2500      	movs	r5, #0
 8007e42:	e7f6      	b.n	8007e32 <get_fileinfo+0x46>
		if (c == RDDEM) c = (TCHAR)DDEM;	/* Restore replaced DDEM character */
 8007e44:	23e5      	movs	r3, #229	; 0xe5
 8007e46:	e017      	b.n	8007e78 <get_fileinfo+0x8c>
			if (!lfv) fno->fname[j] = '.';
 8007e48:	b915      	cbnz	r5, 8007e50 <get_fileinfo+0x64>
 8007e4a:	18a0      	adds	r0, r4, r2
 8007e4c:	272e      	movs	r7, #46	; 0x2e
 8007e4e:	7587      	strb	r7, [r0, #22]
			fno->altname[j++] = '.';
 8007e50:	18a0      	adds	r0, r4, r2
 8007e52:	272e      	movs	r7, #46	; 0x2e
 8007e54:	7247      	strb	r7, [r0, #9]
 8007e56:	3201      	adds	r2, #1
 8007e58:	e010      	b.n	8007e7c <get_fileinfo+0x90>
			if (IsUpper(c) && (dp->dir[DIR_NTres] & ((i >= 9) ? NS_EXT : NS_BODY))) {
 8007e5a:	2010      	movs	r0, #16
 8007e5c:	e01c      	b.n	8007e98 <get_fileinfo+0xac>
			fno->fname[j] = c;
 8007e5e:	18a0      	adds	r0, r4, r2
 8007e60:	7583      	strb	r3, [r0, #22]
		j++;
 8007e62:	3201      	adds	r2, #1
			if (IsUpper(c) && (dp->dir[DIR_NTres] & ((i >= 9) ? NS_EXT : NS_BODY))) {
 8007e64:	460b      	mov	r3, r1
	while (i < 11) {		/* Copy name body and extension */
 8007e66:	2b0a      	cmp	r3, #10
 8007e68:	d81b      	bhi.n	8007ea2 <get_fileinfo+0xb6>
		c = (TCHAR)dp->dir[i++];
 8007e6a:	6a30      	ldr	r0, [r6, #32]
 8007e6c:	1c59      	adds	r1, r3, #1
 8007e6e:	5cc3      	ldrb	r3, [r0, r3]
		if (c == ' ') continue;				/* Skip padding spaces */
 8007e70:	2b20      	cmp	r3, #32
 8007e72:	d0f7      	beq.n	8007e64 <get_fileinfo+0x78>
		if (c == RDDEM) c = (TCHAR)DDEM;	/* Restore replaced DDEM character */
 8007e74:	2b05      	cmp	r3, #5
 8007e76:	d0e5      	beq.n	8007e44 <get_fileinfo+0x58>
		if (i == 9) {						/* Insert a . if extension is exist */
 8007e78:	2909      	cmp	r1, #9
 8007e7a:	d0e5      	beq.n	8007e48 <get_fileinfo+0x5c>
		fno->altname[j] = c;
 8007e7c:	18a0      	adds	r0, r4, r2
 8007e7e:	7243      	strb	r3, [r0, #9]
		if (!lfv) {
 8007e80:	2d00      	cmp	r5, #0
 8007e82:	d1ee      	bne.n	8007e62 <get_fileinfo+0x76>
			if (IsUpper(c) && (dp->dir[DIR_NTres] & ((i >= 9) ? NS_EXT : NS_BODY))) {
 8007e84:	f1a3 0041 	sub.w	r0, r3, #65	; 0x41
 8007e88:	b2c0      	uxtb	r0, r0
 8007e8a:	2819      	cmp	r0, #25
 8007e8c:	d8e7      	bhi.n	8007e5e <get_fileinfo+0x72>
 8007e8e:	6a30      	ldr	r0, [r6, #32]
 8007e90:	7b07      	ldrb	r7, [r0, #12]
 8007e92:	2908      	cmp	r1, #8
 8007e94:	d8e1      	bhi.n	8007e5a <get_fileinfo+0x6e>
 8007e96:	2008      	movs	r0, #8
 8007e98:	4207      	tst	r7, r0
 8007e9a:	d0e0      	beq.n	8007e5e <get_fileinfo+0x72>
				c += 0x20;			/* To lower */
 8007e9c:	3320      	adds	r3, #32
 8007e9e:	b2db      	uxtb	r3, r3
 8007ea0:	e7dd      	b.n	8007e5e <get_fileinfo+0x72>
	if (!lfv) {
 8007ea2:	b935      	cbnz	r5, 8007eb2 <get_fileinfo+0xc6>
		fno->fname[j] = 0;
 8007ea4:	18a3      	adds	r3, r4, r2
 8007ea6:	2100      	movs	r1, #0
 8007ea8:	7599      	strb	r1, [r3, #22]
		if (!dp->dir[DIR_NTres]) j = 0;	/* Altname is no longer needed if neither LFN nor case info is exist. */
 8007eaa:	6a33      	ldr	r3, [r6, #32]
 8007eac:	7b1b      	ldrb	r3, [r3, #12]
 8007eae:	b903      	cbnz	r3, 8007eb2 <get_fileinfo+0xc6>
 8007eb0:	460a      	mov	r2, r1
	fno->altname[j] = 0;	/* Terminate the SFN */
 8007eb2:	4422      	add	r2, r4
 8007eb4:	2300      	movs	r3, #0
 8007eb6:	7253      	strb	r3, [r2, #9]
	fno->fattrib = dp->dir[DIR_Attr];				/* Attribute */
 8007eb8:	6a33      	ldr	r3, [r6, #32]
 8007eba:	7adb      	ldrb	r3, [r3, #11]
 8007ebc:	7223      	strb	r3, [r4, #8]
	fno->fsize = ld_dword(dp->dir + DIR_FileSize);	/* Size */
 8007ebe:	6a30      	ldr	r0, [r6, #32]
 8007ec0:	301c      	adds	r0, #28
 8007ec2:	f7fe fe9e 	bl	8006c02 <ld_dword>
 8007ec6:	6020      	str	r0, [r4, #0]
	tm = ld_dword(dp->dir + DIR_ModTime);			/* Timestamp */
 8007ec8:	6a30      	ldr	r0, [r6, #32]
 8007eca:	3016      	adds	r0, #22
 8007ecc:	f7fe fe99 	bl	8006c02 <ld_dword>
	fno->ftime = (WORD)tm; fno->fdate = (WORD)(tm >> 16);
 8007ed0:	80e0      	strh	r0, [r4, #6]
 8007ed2:	0c00      	lsrs	r0, r0, #16
 8007ed4:	80a0      	strh	r0, [r4, #4]
}
 8007ed6:	e8bd 81f0 	ldmia.w	sp!, {r4, r5, r6, r7, r8, pc}
	...

08007edc <cmp_lfn>:
{
 8007edc:	e92d 47f0 	stmdb	sp!, {r4, r5, r6, r7, r8, r9, sl, lr}
 8007ee0:	4681      	mov	r9, r0
 8007ee2:	460f      	mov	r7, r1
	if (ld_word(dir + LDIR_FstClusLO) != 0) return 0;	/* Check LDIR_FstClusLO */
 8007ee4:	f101 001a 	add.w	r0, r1, #26
 8007ee8:	f7fe fe86 	bl	8006bf8 <ld_word>
 8007eec:	bbc8      	cbnz	r0, 8007f62 <cmp_lfn+0x86>
	i = ((dir[LDIR_Ord] & 0x3F) - 1) * 13;	/* Offset in the LFN buffer */
 8007eee:	783e      	ldrb	r6, [r7, #0]
 8007ef0:	f006 063f 	and.w	r6, r6, #63	; 0x3f
 8007ef4:	3e01      	subs	r6, #1
 8007ef6:	eb06 0346 	add.w	r3, r6, r6, lsl #1
 8007efa:	eb06 0683 	add.w	r6, r6, r3, lsl #2
	for (wc = 1, s = 0; s < 13; s++) {		/* Process all characters in the entry */
 8007efe:	f04f 0801 	mov.w	r8, #1
 8007f02:	2500      	movs	r5, #0
 8007f04:	e006      	b.n	8007f14 <cmp_lfn+0x38>
				return 0;					/* Not matched */
 8007f06:	2000      	movs	r0, #0
 8007f08:	e02c      	b.n	8007f64 <cmp_lfn+0x88>
			if (uc != 0xFFFF) return 0;		/* Check filler */
 8007f0a:	f64f 73ff 	movw	r3, #65535	; 0xffff
 8007f0e:	4298      	cmp	r0, r3
 8007f10:	d12a      	bne.n	8007f68 <cmp_lfn+0x8c>
	for (wc = 1, s = 0; s < 13; s++) {		/* Process all characters in the entry */
 8007f12:	3501      	adds	r5, #1
 8007f14:	2d0c      	cmp	r5, #12
 8007f16:	d818      	bhi.n	8007f4a <cmp_lfn+0x6e>
		uc = ld_word(dir + LfnOfs[s]);		/* Pick an LFN character */
 8007f18:	4b17      	ldr	r3, [pc, #92]	; (8007f78 <cmp_lfn+0x9c>)
 8007f1a:	5d58      	ldrb	r0, [r3, r5]
 8007f1c:	4438      	add	r0, r7
 8007f1e:	f7fe fe6b 	bl	8006bf8 <ld_word>
 8007f22:	4604      	mov	r4, r0
		if (wc) {
 8007f24:	f1b8 0f00 	cmp.w	r8, #0
 8007f28:	d0ef      	beq.n	8007f0a <cmp_lfn+0x2e>
			if (i >= _MAX_LFN || ff_wtoupper(uc) != ff_wtoupper(lfnbuf[i++])) {	/* Compare it */
 8007f2a:	2efe      	cmp	r6, #254	; 0xfe
 8007f2c:	d8eb      	bhi.n	8007f06 <cmp_lfn+0x2a>
 8007f2e:	f000 fd3f 	bl	80089b0 <ff_wtoupper>
 8007f32:	4680      	mov	r8, r0
 8007f34:	f106 0a01 	add.w	sl, r6, #1
 8007f38:	f839 0016 	ldrh.w	r0, [r9, r6, lsl #1]
 8007f3c:	f000 fd38 	bl	80089b0 <ff_wtoupper>
 8007f40:	4580      	cmp	r8, r0
 8007f42:	d1e0      	bne.n	8007f06 <cmp_lfn+0x2a>
			wc = uc;
 8007f44:	46a0      	mov	r8, r4
			if (i >= _MAX_LFN || ff_wtoupper(uc) != ff_wtoupper(lfnbuf[i++])) {	/* Compare it */
 8007f46:	4656      	mov	r6, sl
 8007f48:	e7e3      	b.n	8007f12 <cmp_lfn+0x36>
	if ((dir[LDIR_Ord] & LLEF) && wc && lfnbuf[i]) return 0;	/* Last segment matched but different length */
 8007f4a:	783b      	ldrb	r3, [r7, #0]
 8007f4c:	f013 0f40 	tst.w	r3, #64	; 0x40
 8007f50:	d00c      	beq.n	8007f6c <cmp_lfn+0x90>
 8007f52:	f1b8 0f00 	cmp.w	r8, #0
 8007f56:	d00b      	beq.n	8007f70 <cmp_lfn+0x94>
 8007f58:	f839 3016 	ldrh.w	r3, [r9, r6, lsl #1]
 8007f5c:	b953      	cbnz	r3, 8007f74 <cmp_lfn+0x98>
	return 1;		/* The part of LFN matched */
 8007f5e:	2001      	movs	r0, #1
 8007f60:	e000      	b.n	8007f64 <cmp_lfn+0x88>
	if (ld_word(dir + LDIR_FstClusLO) != 0) return 0;	/* Check LDIR_FstClusLO */
 8007f62:	2000      	movs	r0, #0
}
 8007f64:	e8bd 87f0 	ldmia.w	sp!, {r4, r5, r6, r7, r8, r9, sl, pc}
			if (uc != 0xFFFF) return 0;		/* Check filler */
 8007f68:	2000      	movs	r0, #0
 8007f6a:	e7fb      	b.n	8007f64 <cmp_lfn+0x88>
	return 1;		/* The part of LFN matched */
 8007f6c:	2001      	movs	r0, #1
 8007f6e:	e7f9      	b.n	8007f64 <cmp_lfn+0x88>
 8007f70:	2001      	movs	r0, #1
 8007f72:	e7f7      	b.n	8007f64 <cmp_lfn+0x88>
	if ((dir[LDIR_Ord] & LLEF) && wc && lfnbuf[i]) return 0;	/* Last segment matched but different length */
 8007f74:	2000      	movs	r0, #0
 8007f76:	e7f5      	b.n	8007f64 <cmp_lfn+0x88>
 8007f78:	08008b64 	.word	0x08008b64

08007f7c <dir_find>:
{
 8007f7c:	e92d 43f8 	stmdb	sp!, {r3, r4, r5, r6, r7, r8, r9, lr}
 8007f80:	4604      	mov	r4, r0
	FATFS *fs = dp->obj.fs;
 8007f82:	f8d0 8000 	ldr.w	r8, [r0]
	res = dir_sdi(dp, 0);			/* Rewind directory object */
 8007f86:	2100      	movs	r1, #0
 8007f88:	f7ff fc0f 	bl	80077aa <dir_sdi>
	if (res != FR_OK) return res;
 8007f8c:	4606      	mov	r6, r0
 8007f8e:	2800      	cmp	r0, #0
 8007f90:	d164      	bne.n	800805c <dir_find+0xe0>
	ord = sum = 0xFF; dp->blk_ofs = 0xFFFFFFFF;	/* Reset LFN sequence */
 8007f92:	f04f 33ff 	mov.w	r3, #4294967295	; 0xffffffff
 8007f96:	6323      	str	r3, [r4, #48]	; 0x30
 8007f98:	f04f 09ff 	mov.w	r9, #255	; 0xff
 8007f9c:	464f      	mov	r7, r9
 8007f9e:	e00a      	b.n	8007fb6 <dir_find+0x3a>
			ord = 0xFF; dp->blk_ofs = 0xFFFFFFFF;	/* Reset LFN sequence */
 8007fa0:	f04f 33ff 	mov.w	r3, #4294967295	; 0xffffffff
 8007fa4:	6323      	str	r3, [r4, #48]	; 0x30
 8007fa6:	27ff      	movs	r7, #255	; 0xff
		res = dir_next(dp, 0);	/* Next entry */
 8007fa8:	2100      	movs	r1, #0
 8007faa:	4620      	mov	r0, r4
 8007fac:	f7ff fcfd 	bl	80079aa <dir_next>
	} while (res == FR_OK);
 8007fb0:	4606      	mov	r6, r0
 8007fb2:	2800      	cmp	r0, #0
 8007fb4:	d152      	bne.n	800805c <dir_find+0xe0>
		res = move_window(fs, dp->sect);
 8007fb6:	69e1      	ldr	r1, [r4, #28]
 8007fb8:	4640      	mov	r0, r8
 8007fba:	f7ff f92b 	bl	8007214 <move_window>
		if (res != FR_OK) break;
 8007fbe:	4606      	mov	r6, r0
 8007fc0:	2800      	cmp	r0, #0
 8007fc2:	d14b      	bne.n	800805c <dir_find+0xe0>
		c = dp->dir[DIR_Name];
 8007fc4:	6a25      	ldr	r5, [r4, #32]
 8007fc6:	782b      	ldrb	r3, [r5, #0]
		if (c == 0) { res = FR_NO_FILE; break; }	/* Reached to end of table */
 8007fc8:	2b00      	cmp	r3, #0
 8007fca:	d046      	beq.n	800805a <dir_find+0xde>
		dp->obj.attr = a = dp->dir[DIR_Attr] & AM_MASK;
 8007fcc:	7ae9      	ldrb	r1, [r5, #11]
 8007fce:	f001 023f 	and.w	r2, r1, #63	; 0x3f
 8007fd2:	71a2      	strb	r2, [r4, #6]
		if (c == DDEM || ((a & AM_VOL) && a != AM_LFN)) {	/* An entry without valid data */
 8007fd4:	2be5      	cmp	r3, #229	; 0xe5
 8007fd6:	d0e3      	beq.n	8007fa0 <dir_find+0x24>
 8007fd8:	f011 0f08 	tst.w	r1, #8
 8007fdc:	d001      	beq.n	8007fe2 <dir_find+0x66>
 8007fde:	2a0f      	cmp	r2, #15
 8007fe0:	d1de      	bne.n	8007fa0 <dir_find+0x24>
			if (a == AM_LFN) {			/* An LFN entry is found */
 8007fe2:	2a0f      	cmp	r2, #15
 8007fe4:	d016      	beq.n	8008014 <dir_find+0x98>
				if (!ord && sum == sum_sfn(dp->dir)) break;	/* LFN matched? */
 8007fe6:	b927      	cbnz	r7, 8007ff2 <dir_find+0x76>
 8007fe8:	4628      	mov	r0, r5
 8007fea:	f7ff f82a 	bl	8007042 <sum_sfn>
 8007fee:	4548      	cmp	r0, r9
 8007ff0:	d034      	beq.n	800805c <dir_find+0xe0>
				if (!(dp->fn[NSFLAG] & NS_LOSS) && !mem_cmp(dp->dir, dp->fn, 11)) break;	/* SFN matched? */
 8007ff2:	f894 302f 	ldrb.w	r3, [r4, #47]	; 0x2f
 8007ff6:	f013 0f01 	tst.w	r3, #1
 8007ffa:	d106      	bne.n	800800a <dir_find+0x8e>
 8007ffc:	220b      	movs	r2, #11
 8007ffe:	f104 0124 	add.w	r1, r4, #36	; 0x24
 8008002:	4628      	mov	r0, r5
 8008004:	f7fe fe25 	bl	8006c52 <mem_cmp>
 8008008:	b340      	cbz	r0, 800805c <dir_find+0xe0>
				ord = 0xFF; dp->blk_ofs = 0xFFFFFFFF;	/* Reset LFN sequence */
 800800a:	f04f 33ff 	mov.w	r3, #4294967295	; 0xffffffff
 800800e:	6323      	str	r3, [r4, #48]	; 0x30
 8008010:	27ff      	movs	r7, #255	; 0xff
 8008012:	e7c9      	b.n	8007fa8 <dir_find+0x2c>
				if (!(dp->fn[NSFLAG] & NS_NOLFN)) {
 8008014:	f894 202f 	ldrb.w	r2, [r4, #47]	; 0x2f
 8008018:	f012 0f40 	tst.w	r2, #64	; 0x40
 800801c:	d1c4      	bne.n	8007fa8 <dir_find+0x2c>
					if (c & LLEF) {		/* Is it start of LFN sequence? */
 800801e:	f013 0f40 	tst.w	r3, #64	; 0x40
 8008022:	d006      	beq.n	8008032 <dir_find+0xb6>
						sum = dp->dir[LDIR_Chksum];
 8008024:	f895 900d 	ldrb.w	r9, [r5, #13]
						c &= (BYTE)~LLEF; ord = c;	/* LFN start order */
 8008028:	f003 03bf 	and.w	r3, r3, #191	; 0xbf
						dp->blk_ofs = dp->dptr;	/* Start offset of LFN */
 800802c:	6962      	ldr	r2, [r4, #20]
 800802e:	6322      	str	r2, [r4, #48]	; 0x30
						c &= (BYTE)~LLEF; ord = c;	/* LFN start order */
 8008030:	461f      	mov	r7, r3
					ord = (c == ord && sum == dp->dir[LDIR_Chksum] && cmp_lfn(fs->lfnbuf, dp->dir)) ? ord - 1 : 0xFF;
 8008032:	42bb      	cmp	r3, r7
 8008034:	d001      	beq.n	800803a <dir_find+0xbe>
 8008036:	27ff      	movs	r7, #255	; 0xff
 8008038:	e7b6      	b.n	8007fa8 <dir_find+0x2c>
 800803a:	7b6b      	ldrb	r3, [r5, #13]
 800803c:	454b      	cmp	r3, r9
 800803e:	d001      	beq.n	8008044 <dir_find+0xc8>
 8008040:	27ff      	movs	r7, #255	; 0xff
 8008042:	e7b1      	b.n	8007fa8 <dir_find+0x2c>
 8008044:	4629      	mov	r1, r5
 8008046:	f8d8 000c 	ldr.w	r0, [r8, #12]
 800804a:	f7ff ff47 	bl	8007edc <cmp_lfn>
 800804e:	b110      	cbz	r0, 8008056 <dir_find+0xda>
 8008050:	3f01      	subs	r7, #1
 8008052:	b2ff      	uxtb	r7, r7
 8008054:	e7a8      	b.n	8007fa8 <dir_find+0x2c>
 8008056:	27ff      	movs	r7, #255	; 0xff
 8008058:	e7a6      	b.n	8007fa8 <dir_find+0x2c>
		if (c == 0) { res = FR_NO_FILE; break; }	/* Reached to end of table */
 800805a:	2604      	movs	r6, #4
}
 800805c:	4630      	mov	r0, r6
 800805e:	e8bd 83f8 	ldmia.w	sp!, {r3, r4, r5, r6, r7, r8, r9, pc}

08008062 <follow_path>:
{
 8008062:	b530      	push	{r4, r5, lr}
 8008064:	b083      	sub	sp, #12
 8008066:	4604      	mov	r4, r0
 8008068:	9101      	str	r1, [sp, #4]
	FATFS *fs = obj->fs;
 800806a:	6805      	ldr	r5, [r0, #0]
		while (*path == '/' || *path == '\\') path++;	/* Strip heading separator */
 800806c:	e001      	b.n	8008072 <follow_path+0x10>
 800806e:	3301      	adds	r3, #1
 8008070:	9301      	str	r3, [sp, #4]
 8008072:	9b01      	ldr	r3, [sp, #4]
 8008074:	781a      	ldrb	r2, [r3, #0]
 8008076:	2a5c      	cmp	r2, #92	; 0x5c
 8008078:	bf18      	it	ne
 800807a:	2a2f      	cmpne	r2, #47	; 0x2f
 800807c:	d0f7      	beq.n	800806e <follow_path+0xc>
		obj->sclust = 0;					/* Start from root directory */
 800807e:	2200      	movs	r2, #0
 8008080:	60a2      	str	r2, [r4, #8]
	if ((UINT)*path < ' ') {				/* Null path name is the origin directory itself */
 8008082:	781b      	ldrb	r3, [r3, #0]
 8008084:	2b1f      	cmp	r3, #31
 8008086:	d91e      	bls.n	80080c6 <follow_path+0x64>
			res = create_name(dp, &path);	/* Get a segment name of the path */
 8008088:	a901      	add	r1, sp, #4
 800808a:	4620      	mov	r0, r4
 800808c:	f7ff fd94 	bl	8007bb8 <create_name>
			if (res != FR_OK) break;
 8008090:	4603      	mov	r3, r0
 8008092:	bb00      	cbnz	r0, 80080d6 <follow_path+0x74>
			res = dir_find(dp);				/* Find an object with the segment name */
 8008094:	4620      	mov	r0, r4
 8008096:	f7ff ff71 	bl	8007f7c <dir_find>
			ns = dp->fn[NSFLAG];
 800809a:	f894 202f 	ldrb.w	r2, [r4, #47]	; 0x2f
			if (res != FR_OK) {				/* Failed to find the object */
 800809e:	4603      	mov	r3, r0
 80080a0:	b9e0      	cbnz	r0, 80080dc <follow_path+0x7a>
			if (ns & NS_LAST) break;			/* Last segment matched. Function completed. */
 80080a2:	f012 0f04 	tst.w	r2, #4
 80080a6:	d116      	bne.n	80080d6 <follow_path+0x74>
			if (!(obj->attr & AM_DIR)) {		/* It is not a sub-directory and cannot follow */
 80080a8:	79a3      	ldrb	r3, [r4, #6]
 80080aa:	f013 0f10 	tst.w	r3, #16
 80080ae:	d01c      	beq.n	80080ea <follow_path+0x88>
				obj->sclust = ld_clust(fs, fs->win + dp->dptr % SS(fs));	/* Open next directory */
 80080b0:	f105 0334 	add.w	r3, r5, #52	; 0x34
 80080b4:	6961      	ldr	r1, [r4, #20]
 80080b6:	f3c1 0108 	ubfx	r1, r1, #0, #9
 80080ba:	4419      	add	r1, r3
 80080bc:	4628      	mov	r0, r5
 80080be:	f7fe fec7 	bl	8006e50 <ld_clust>
 80080c2:	60a0      	str	r0, [r4, #8]
			res = create_name(dp, &path);	/* Get a segment name of the path */
 80080c4:	e7e0      	b.n	8008088 <follow_path+0x26>
		dp->fn[NSFLAG] = NS_NONAME;
 80080c6:	2380      	movs	r3, #128	; 0x80
 80080c8:	f884 302f 	strb.w	r3, [r4, #47]	; 0x2f
		res = dir_sdi(dp, 0);
 80080cc:	4611      	mov	r1, r2
 80080ce:	4620      	mov	r0, r4
 80080d0:	f7ff fb6b 	bl	80077aa <dir_sdi>
 80080d4:	4603      	mov	r3, r0
}
 80080d6:	4618      	mov	r0, r3
 80080d8:	b003      	add	sp, #12
 80080da:	bd30      	pop	{r4, r5, pc}
				if (res == FR_NO_FILE) {	/* Object is not found */
 80080dc:	2804      	cmp	r0, #4
 80080de:	d1fa      	bne.n	80080d6 <follow_path+0x74>
						if (!(ns & NS_LAST)) res = FR_NO_PATH;	/* Adjust error code if not last segment */
 80080e0:	f012 0f04 	tst.w	r2, #4
 80080e4:	d1f7      	bne.n	80080d6 <follow_path+0x74>
 80080e6:	2305      	movs	r3, #5
 80080e8:	e7f5      	b.n	80080d6 <follow_path+0x74>
				res = FR_NO_PATH; break;
 80080ea:	2305      	movs	r3, #5
 80080ec:	e7f3      	b.n	80080d6 <follow_path+0x74>
	...

080080f0 <dir_register>:
{
 80080f0:	e92d 43f0 	stmdb	sp!, {r4, r5, r6, r7, r8, r9, lr}
 80080f4:	b085      	sub	sp, #20
	FATFS *fs = dp->obj.fs;
 80080f6:	6806      	ldr	r6, [r0, #0]
	if (dp->fn[NSFLAG] & (NS_DOT | NS_NONAME)) return FR_INVALID_NAME;	/* Check name validity */
 80080f8:	f890 302f 	ldrb.w	r3, [r0, #47]	; 0x2f
 80080fc:	f013 0fa0 	tst.w	r3, #160	; 0xa0
 8008100:	f040 808e 	bne.w	8008220 <dir_register+0x130>
 8008104:	4607      	mov	r7, r0
	for (nlen = 0; fs->lfnbuf[nlen]; nlen++) ;	/* Get lfn length */
 8008106:	2400      	movs	r4, #0
 8008108:	e000      	b.n	800810c <dir_register+0x1c>
 800810a:	3401      	adds	r4, #1
 800810c:	68f3      	ldr	r3, [r6, #12]
 800810e:	f833 3014 	ldrh.w	r3, [r3, r4, lsl #1]
 8008112:	2b00      	cmp	r3, #0
 8008114:	d1f9      	bne.n	800810a <dir_register+0x1a>
	mem_cpy(sn, dp->fn, 12);
 8008116:	f107 0824 	add.w	r8, r7, #36	; 0x24
 800811a:	220c      	movs	r2, #12
 800811c:	4641      	mov	r1, r8
 800811e:	a801      	add	r0, sp, #4
 8008120:	f7fe fd88 	bl	8006c34 <mem_cpy>
	if (sn[NSFLAG] & NS_LOSS) {			/* When LFN is out of 8.3 format, generate a numbered name */
 8008124:	f89d 300f 	ldrb.w	r3, [sp, #15]
 8008128:	f013 0f01 	tst.w	r3, #1
 800812c:	d01c      	beq.n	8008168 <dir_register+0x78>
		dp->fn[NSFLAG] = NS_NOLFN;		/* Find only SFN */
 800812e:	2340      	movs	r3, #64	; 0x40
 8008130:	f887 302f 	strb.w	r3, [r7, #47]	; 0x2f
		for (n = 1; n < 100; n++) {
 8008134:	2501      	movs	r5, #1
 8008136:	e000      	b.n	800813a <dir_register+0x4a>
 8008138:	3501      	adds	r5, #1
 800813a:	2d63      	cmp	r5, #99	; 0x63
 800813c:	d80b      	bhi.n	8008156 <dir_register+0x66>
			gen_numname(dp->fn, sn, fs->lfnbuf, n);	/* Generate a numbered name */
 800813e:	462b      	mov	r3, r5
 8008140:	68f2      	ldr	r2, [r6, #12]
 8008142:	a901      	add	r1, sp, #4
 8008144:	4640      	mov	r0, r8
 8008146:	f7fe ff27 	bl	8006f98 <gen_numname>
			res = dir_find(dp);				/* Check if the name collides with existing SFN */
 800814a:	4638      	mov	r0, r7
 800814c:	f7ff ff16 	bl	8007f7c <dir_find>
			if (res != FR_OK) break;
 8008150:	4681      	mov	r9, r0
 8008152:	2800      	cmp	r0, #0
 8008154:	d0f0      	beq.n	8008138 <dir_register+0x48>
		if (n == 100) return FR_DENIED;		/* Abort if too many collisions */
 8008156:	2d64      	cmp	r5, #100	; 0x64
 8008158:	d065      	beq.n	8008226 <dir_register+0x136>
		if (res != FR_NO_FILE) return res;	/* Abort if the result is other than 'not collided' */
 800815a:	f1b9 0f04 	cmp.w	r9, #4
 800815e:	d11b      	bne.n	8008198 <dir_register+0xa8>
		dp->fn[NSFLAG] = sn[NSFLAG];
 8008160:	f89d 300f 	ldrb.w	r3, [sp, #15]
 8008164:	f887 302f 	strb.w	r3, [r7, #47]	; 0x2f
	nent = (sn[NSFLAG] & NS_LFN) ? (nlen + 12) / 13 + 1 : 1;	/* Number of entries to allocate */
 8008168:	f89d 300f 	ldrb.w	r3, [sp, #15]
 800816c:	f013 0f02 	tst.w	r3, #2
 8008170:	d006      	beq.n	8008180 <dir_register+0x90>
 8008172:	340c      	adds	r4, #12
 8008174:	4b2d      	ldr	r3, [pc, #180]	; (800822c <dir_register+0x13c>)
 8008176:	fba3 3404 	umull	r3, r4, r3, r4
 800817a:	08a4      	lsrs	r4, r4, #2
 800817c:	3401      	adds	r4, #1
 800817e:	e000      	b.n	8008182 <dir_register+0x92>
 8008180:	2401      	movs	r4, #1
	res = dir_alloc(dp, nent);		/* Allocate entries */
 8008182:	4621      	mov	r1, r4
 8008184:	4638      	mov	r0, r7
 8008186:	f7ff fc94 	bl	8007ab2 <dir_alloc>
	if (res == FR_OK && --nent) {	/* Set LFN entry if needed */
 800818a:	4681      	mov	r9, r0
 800818c:	b908      	cbnz	r0, 8008192 <dir_register+0xa2>
 800818e:	3c01      	subs	r4, #1
 8008190:	d106      	bne.n	80081a0 <dir_register+0xb0>
	if (res == FR_OK) {
 8008192:	f1b9 0f00 	cmp.w	r9, #0
 8008196:	d029      	beq.n	80081ec <dir_register+0xfc>
}
 8008198:	4648      	mov	r0, r9
 800819a:	b005      	add	sp, #20
 800819c:	e8bd 83f0 	ldmia.w	sp!, {r4, r5, r6, r7, r8, r9, pc}
		res = dir_sdi(dp, dp->dptr - nent * SZDIRE);
 80081a0:	6979      	ldr	r1, [r7, #20]
 80081a2:	eba1 1144 	sub.w	r1, r1, r4, lsl #5
 80081a6:	4638      	mov	r0, r7
 80081a8:	f7ff faff 	bl	80077aa <dir_sdi>
		if (res == FR_OK) {
 80081ac:	4681      	mov	r9, r0
 80081ae:	2800      	cmp	r0, #0
 80081b0:	d1ef      	bne.n	8008192 <dir_register+0xa2>
			sum = sum_sfn(dp->fn);	/* Checksum value of the SFN tied to the LFN */
 80081b2:	4640      	mov	r0, r8
 80081b4:	f7fe ff45 	bl	8007042 <sum_sfn>
 80081b8:	4605      	mov	r5, r0
				res = move_window(fs, dp->sect);
 80081ba:	69f9      	ldr	r1, [r7, #28]
 80081bc:	4630      	mov	r0, r6
 80081be:	f7ff f829 	bl	8007214 <move_window>
				if (res != FR_OK) break;
 80081c2:	4681      	mov	r9, r0
 80081c4:	2800      	cmp	r0, #0
 80081c6:	d1e4      	bne.n	8008192 <dir_register+0xa2>
				put_lfn(fs->lfnbuf, dp->dir, (BYTE)nent, sum);
 80081c8:	462b      	mov	r3, r5
 80081ca:	b2e2      	uxtb	r2, r4
 80081cc:	6a39      	ldr	r1, [r7, #32]
 80081ce:	68f0      	ldr	r0, [r6, #12]
 80081d0:	f7fe fea6 	bl	8006f20 <put_lfn>
				fs->wflag = 1;
 80081d4:	2301      	movs	r3, #1
 80081d6:	70f3      	strb	r3, [r6, #3]
				res = dir_next(dp, 0);	/* Next entry */
 80081d8:	2100      	movs	r1, #0
 80081da:	4638      	mov	r0, r7
 80081dc:	f7ff fbe5 	bl	80079aa <dir_next>
			} while (res == FR_OK && --nent);
 80081e0:	4681      	mov	r9, r0
 80081e2:	2800      	cmp	r0, #0
 80081e4:	d1d5      	bne.n	8008192 <dir_register+0xa2>
 80081e6:	3c01      	subs	r4, #1
 80081e8:	d1e7      	bne.n	80081ba <dir_register+0xca>
 80081ea:	e7d2      	b.n	8008192 <dir_register+0xa2>
		res = move_window(fs, dp->sect);
 80081ec:	69f9      	ldr	r1, [r7, #28]
 80081ee:	4630      	mov	r0, r6
 80081f0:	f7ff f810 	bl	8007214 <move_window>
		if (res == FR_OK) {
 80081f4:	4681      	mov	r9, r0
 80081f6:	2800      	cmp	r0, #0
 80081f8:	d1ce      	bne.n	8008198 <dir_register+0xa8>
			mem_set(dp->dir, 0, SZDIRE);	/* Clean the entry */
 80081fa:	2220      	movs	r2, #32
 80081fc:	2100      	movs	r1, #0
 80081fe:	6a38      	ldr	r0, [r7, #32]
 8008200:	f7fe fd22 	bl	8006c48 <mem_set>
			mem_cpy(dp->dir + DIR_Name, dp->fn, 11);	/* Put SFN */
 8008204:	220b      	movs	r2, #11
 8008206:	4641      	mov	r1, r8
 8008208:	6a38      	ldr	r0, [r7, #32]
 800820a:	f7fe fd13 	bl	8006c34 <mem_cpy>
			dp->dir[DIR_NTres] = dp->fn[NSFLAG] & (NS_BODY | NS_EXT);	/* Put NT flag */
 800820e:	f897 302f 	ldrb.w	r3, [r7, #47]	; 0x2f
 8008212:	6a3a      	ldr	r2, [r7, #32]
 8008214:	f003 0318 	and.w	r3, r3, #24
 8008218:	7313      	strb	r3, [r2, #12]
			fs->wflag = 1;
 800821a:	2301      	movs	r3, #1
 800821c:	70f3      	strb	r3, [r6, #3]
 800821e:	e7bb      	b.n	8008198 <dir_register+0xa8>
	if (dp->fn[NSFLAG] & (NS_DOT | NS_NONAME)) return FR_INVALID_NAME;	/* Check name validity */
 8008220:	f04f 0906 	mov.w	r9, #6
 8008224:	e7b8      	b.n	8008198 <dir_register+0xa8>
		if (n == 100) return FR_DENIED;		/* Abort if too many collisions */
 8008226:	f04f 0907 	mov.w	r9, #7
 800822a:	e7b5      	b.n	8008198 <dir_register+0xa8>
 800822c:	4ec4ec4f 	.word	0x4ec4ec4f

08008230 <sync_fs>:
{
 8008230:	b570      	push	{r4, r5, r6, lr}
 8008232:	4604      	mov	r4, r0
	res = sync_window(fs);
 8008234:	f7fe ffc4 	bl	80071c0 <sync_window>
	if (res == FR_OK) {
 8008238:	4605      	mov	r5, r0
 800823a:	b948      	cbnz	r0, 8008250 <sync_fs+0x20>
		if (fs->fs_type == FS_FAT32 && fs->fsi_flag == 1) {
 800823c:	7823      	ldrb	r3, [r4, #0]
 800823e:	2b03      	cmp	r3, #3
 8008240:	d008      	beq.n	8008254 <sync_fs+0x24>
		if (disk_ioctl(fs->drv, CTRL_SYNC, 0) != RES_OK) res = FR_DISK_ERR;
 8008242:	2200      	movs	r2, #0
 8008244:	4611      	mov	r1, r2
 8008246:	7860      	ldrb	r0, [r4, #1]
 8008248:	f7fe fcca 	bl	8006be0 <disk_ioctl>
 800824c:	b100      	cbz	r0, 8008250 <sync_fs+0x20>
 800824e:	2501      	movs	r5, #1
}
 8008250:	4628      	mov	r0, r5
 8008252:	bd70      	pop	{r4, r5, r6, pc}
		if (fs->fs_type == FS_FAT32 && fs->fsi_flag == 1) {
 8008254:	7923      	ldrb	r3, [r4, #4]
 8008256:	2b01      	cmp	r3, #1
 8008258:	d1f3      	bne.n	8008242 <sync_fs+0x12>
			mem_set(fs->win, 0, SS(fs));
 800825a:	f104 0634 	add.w	r6, r4, #52	; 0x34
 800825e:	f44f 7200 	mov.w	r2, #512	; 0x200
 8008262:	2100      	movs	r1, #0
 8008264:	4630      	mov	r0, r6
 8008266:	f7fe fcef 	bl	8006c48 <mem_set>
			st_word(fs->win + BS_55AA, 0xAA55);
 800826a:	f64a 2155 	movw	r1, #43605	; 0xaa55
 800826e:	f204 2032 	addw	r0, r4, #562	; 0x232
 8008272:	f7fe fcd1 	bl	8006c18 <st_word>
			st_dword(fs->win + FSI_LeadSig, 0x41615252);
 8008276:	490f      	ldr	r1, [pc, #60]	; (80082b4 <sync_fs+0x84>)
 8008278:	4630      	mov	r0, r6
 800827a:	f7fe fcd1 	bl	8006c20 <st_dword>
			st_dword(fs->win + FSI_StrucSig, 0x61417272);
 800827e:	490e      	ldr	r1, [pc, #56]	; (80082b8 <sync_fs+0x88>)
 8008280:	f504 7006 	add.w	r0, r4, #536	; 0x218
 8008284:	f7fe fccc 	bl	8006c20 <st_dword>
			st_dword(fs->win + FSI_Free_Count, fs->free_clst);
 8008288:	6961      	ldr	r1, [r4, #20]
 800828a:	f504 7007 	add.w	r0, r4, #540	; 0x21c
 800828e:	f7fe fcc7 	bl	8006c20 <st_dword>
			st_dword(fs->win + FSI_Nxt_Free, fs->last_clst);
 8008292:	6921      	ldr	r1, [r4, #16]
 8008294:	f504 7008 	add.w	r0, r4, #544	; 0x220
 8008298:	f7fe fcc2 	bl	8006c20 <st_dword>
			fs->winsect = fs->volbase + 1;
 800829c:	6a22      	ldr	r2, [r4, #32]
 800829e:	3201      	adds	r2, #1
 80082a0:	6322      	str	r2, [r4, #48]	; 0x30
			disk_write(fs->drv, fs->win, fs->winsect, 1);
 80082a2:	2301      	movs	r3, #1
 80082a4:	4631      	mov	r1, r6
 80082a6:	7860      	ldrb	r0, [r4, #1]
 80082a8:	f7fe fc8e 	bl	8006bc8 <disk_write>
			fs->fsi_flag = 0;
 80082ac:	2300      	movs	r3, #0
 80082ae:	7123      	strb	r3, [r4, #4]
 80082b0:	e7c7      	b.n	8008242 <sync_fs+0x12>
 80082b2:	bf00      	nop
 80082b4:	41615252 	.word	0x41615252
 80082b8:	61417272 	.word	0x61417272

080082bc <f_mount>:
FRESULT f_mount (
	FATFS* fs,			/* Pointer to the file system object (NULL:unmount)*/
	const TCHAR* path,	/* Logical drive number to be mounted/unmounted */
	BYTE opt			/* Mode option 0:Do not mount (delayed mount), 1:Mount immediately */
)
{
 80082bc:	b570      	push	{r4, r5, r6, lr}
 80082be:	b084      	sub	sp, #16
 80082c0:	9001      	str	r0, [sp, #4]
 80082c2:	9100      	str	r1, [sp, #0]
 80082c4:	4616      	mov	r6, r2
	FATFS *cfs;
	int vol;
	FRESULT res;
	const TCHAR *rp = path;
 80082c6:	9103      	str	r1, [sp, #12]


	/* Get logical drive number */
	vol = get_ldnumber(&rp);
 80082c8:	a803      	add	r0, sp, #12
 80082ca:	f7fe ff32 	bl	8007132 <get_ldnumber>
	if (vol < 0) return FR_INVALID_DRIVE;
 80082ce:	1e04      	subs	r4, r0, #0
 80082d0:	db20      	blt.n	8008314 <f_mount+0x58>
	cfs = FatFs[vol];					/* Pointer to fs object */
 80082d2:	4b11      	ldr	r3, [pc, #68]	; (8008318 <f_mount+0x5c>)
 80082d4:	f853 5024 	ldr.w	r5, [r3, r4, lsl #2]

	if (cfs) {
 80082d8:	b125      	cbz	r5, 80082e4 <f_mount+0x28>
#if _FS_LOCK != 0
		clear_lock(cfs);
 80082da:	4628      	mov	r0, r5
 80082dc:	f7fe fd8e 	bl	8006dfc <clear_lock>
#endif
#if _FS_REENTRANT						/* Discard sync object of the current volume */
		if (!ff_del_syncobj(cfs->sobj)) return FR_INT_ERR;
#endif
		cfs->fs_type = 0;				/* Clear old fs object */
 80082e0:	2300      	movs	r3, #0
 80082e2:	702b      	strb	r3, [r5, #0]
	}

	if (fs) {
 80082e4:	9b01      	ldr	r3, [sp, #4]
 80082e6:	b10b      	cbz	r3, 80082ec <f_mount+0x30>
		fs->fs_type = 0;				/* Clear new fs object */
 80082e8:	2200      	movs	r2, #0
 80082ea:	701a      	strb	r2, [r3, #0]
#if _FS_REENTRANT						/* Create sync object for the new volume */
		if (!ff_cre_syncobj((BYTE)vol, &fs->sobj)) return FR_INT_ERR;
#endif
	}
	FatFs[vol] = fs;					/* Register new fs object */
 80082ec:	9b01      	ldr	r3, [sp, #4]
 80082ee:	4a0a      	ldr	r2, [pc, #40]	; (8008318 <f_mount+0x5c>)
 80082f0:	f842 3024 	str.w	r3, [r2, r4, lsl #2]

	if (!fs || opt != 1) return FR_OK;	/* Do not mount now, it will be mounted later */
 80082f4:	1e72      	subs	r2, r6, #1
 80082f6:	bf18      	it	ne
 80082f8:	2201      	movne	r2, #1
 80082fa:	2b00      	cmp	r3, #0
 80082fc:	bf08      	it	eq
 80082fe:	f042 0201 	orreq.w	r2, r2, #1
 8008302:	b112      	cbz	r2, 800830a <f_mount+0x4e>
 8008304:	2000      	movs	r0, #0

	res = find_volume(&path, &fs, 0);	/* Force mounted the volume */
	LEAVE_FF(fs, res);
}
 8008306:	b004      	add	sp, #16
 8008308:	bd70      	pop	{r4, r5, r6, pc}
	res = find_volume(&path, &fs, 0);	/* Force mounted the volume */
 800830a:	a901      	add	r1, sp, #4
 800830c:	4668      	mov	r0, sp
 800830e:	f7fe ffd9 	bl	80072c4 <find_volume>
	LEAVE_FF(fs, res);
 8008312:	e7f8      	b.n	8008306 <f_mount+0x4a>
	if (vol < 0) return FR_INVALID_DRIVE;
 8008314:	200b      	movs	r0, #11
 8008316:	e7f6      	b.n	8008306 <f_mount+0x4a>
 8008318:	2000071c 	.word	0x2000071c

0800831c <f_open>:
FRESULT f_open (
	FIL* fp,			/* Pointer to the blank file object */
	const TCHAR* path,	/* Pointer to the file name */
	BYTE mode			/* Access mode and file open mode flags */
)
{
 800831c:	e92d 43f0 	stmdb	sp!, {r4, r5, r6, r7, r8, r9, lr}
 8008320:	b093      	sub	sp, #76	; 0x4c
 8008322:	9101      	str	r1, [sp, #4]
	FSIZE_t ofs;
#endif
	DEF_NAMBUF


	if (!fp) return FR_INVALID_OBJECT;
 8008324:	2800      	cmp	r0, #0
 8008326:	f000 810d 	beq.w	8008544 <f_open+0x228>
 800832a:	4615      	mov	r5, r2
 800832c:	4606      	mov	r6, r0

	/* Get logical drive */
	mode &= _FS_READONLY ? FA_READ : FA_READ | FA_WRITE | FA_CREATE_ALWAYS | FA_CREATE_NEW | FA_OPEN_ALWAYS | FA_OPEN_APPEND | FA_SEEKEND;
 800832e:	f002 073f 	and.w	r7, r2, #63	; 0x3f
	res = find_volume(&path, &fs, mode);
 8008332:	463a      	mov	r2, r7
 8008334:	a903      	add	r1, sp, #12
 8008336:	a801      	add	r0, sp, #4
 8008338:	f7fe ffc4 	bl	80072c4 <find_volume>
	if (res == FR_OK) {
 800833c:	4604      	mov	r4, r0
 800833e:	b130      	cbz	r0, 800834e <f_open+0x32>
		}

		FREE_NAMBUF();
	}

	if (res != FR_OK) fp->obj.fs = 0;	/* Invalidate file object on error */
 8008340:	b10c      	cbz	r4, 8008346 <f_open+0x2a>
 8008342:	2300      	movs	r3, #0
 8008344:	6033      	str	r3, [r6, #0]

	LEAVE_FF(fs, res);
}
 8008346:	4620      	mov	r0, r4
 8008348:	b013      	add	sp, #76	; 0x4c
 800834a:	e8bd 83f0 	ldmia.w	sp!, {r4, r5, r6, r7, r8, r9, pc}
		dj.obj.fs = fs;
 800834e:	9b03      	ldr	r3, [sp, #12]
 8008350:	9304      	str	r3, [sp, #16]
		res = follow_path(&dj, path);	/* Follow the file path */
 8008352:	9901      	ldr	r1, [sp, #4]
 8008354:	a804      	add	r0, sp, #16
 8008356:	f7ff fe84 	bl	8008062 <follow_path>
		if (res == FR_OK) {
 800835a:	4604      	mov	r4, r0
 800835c:	b960      	cbnz	r0, 8008378 <f_open+0x5c>
			if (dj.fn[NSFLAG] & NS_NONAME) {	/* Origin directory itself? */
 800835e:	f99d 303f 	ldrsb.w	r3, [sp, #63]	; 0x3f
 8008362:	2b00      	cmp	r3, #0
 8008364:	db50      	blt.n	8008408 <f_open+0xec>
				res = chk_lock(&dj, (mode & ~FA_READ) ? 1 : 0);
 8008366:	f037 0301 	bics.w	r3, r7, #1
 800836a:	bf14      	ite	ne
 800836c:	2101      	movne	r1, #1
 800836e:	2100      	moveq	r1, #0
 8008370:	a804      	add	r0, sp, #16
 8008372:	f7fe fc83 	bl	8006c7c <chk_lock>
 8008376:	4604      	mov	r4, r0
		if (mode & (FA_CREATE_ALWAYS | FA_OPEN_ALWAYS | FA_CREATE_NEW)) {
 8008378:	f015 0f1c 	tst.w	r5, #28
 800837c:	d05a      	beq.n	8008434 <f_open+0x118>
			if (res != FR_OK) {					/* No file, create new */
 800837e:	2c00      	cmp	r4, #0
 8008380:	d04e      	beq.n	8008420 <f_open+0x104>
				if (res == FR_NO_FILE) {		/* There is no file to open, create a new entry */
 8008382:	2c04      	cmp	r4, #4
 8008384:	d042      	beq.n	800840c <f_open+0xf0>
				mode |= FA_CREATE_ALWAYS;		/* File is created */
 8008386:	f047 0708 	orr.w	r7, r7, #8
			if (res == FR_OK && (mode & FA_CREATE_ALWAYS)) {	/* Truncate it if overwrite mode */
 800838a:	2c00      	cmp	r4, #0
 800838c:	d161      	bne.n	8008452 <f_open+0x136>
 800838e:	f017 0f08 	tst.w	r7, #8
 8008392:	d05e      	beq.n	8008452 <f_open+0x136>
				dw = GET_FATTIME();
 8008394:	f7fe fb1a 	bl	80069cc <get_fattime>
 8008398:	4605      	mov	r5, r0
					st_dword(dj.dir + DIR_CrtTime, dw);	/* Set created time */
 800839a:	4601      	mov	r1, r0
 800839c:	980c      	ldr	r0, [sp, #48]	; 0x30
 800839e:	300e      	adds	r0, #14
 80083a0:	f7fe fc3e 	bl	8006c20 <st_dword>
					st_dword(dj.dir + DIR_ModTime, dw);	/* Set modified time */
 80083a4:	4629      	mov	r1, r5
 80083a6:	980c      	ldr	r0, [sp, #48]	; 0x30
 80083a8:	3016      	adds	r0, #22
 80083aa:	f7fe fc39 	bl	8006c20 <st_dword>
					dj.dir[DIR_Attr] = AM_ARC;			/* Reset attribute */
 80083ae:	9b0c      	ldr	r3, [sp, #48]	; 0x30
 80083b0:	2220      	movs	r2, #32
 80083b2:	72da      	strb	r2, [r3, #11]
					cl = ld_clust(fs, dj.dir);			/* Get cluster chain */
 80083b4:	f8dd 800c 	ldr.w	r8, [sp, #12]
 80083b8:	f8dd 9030 	ldr.w	r9, [sp, #48]	; 0x30
 80083bc:	4649      	mov	r1, r9
 80083be:	4640      	mov	r0, r8
 80083c0:	f7fe fd46 	bl	8006e50 <ld_clust>
 80083c4:	4605      	mov	r5, r0
					st_clust(fs, dj.dir, 0);			/* Reset file allocation info */
 80083c6:	2200      	movs	r2, #0
 80083c8:	4649      	mov	r1, r9
 80083ca:	4640      	mov	r0, r8
 80083cc:	f7fe fd53 	bl	8006e76 <st_clust>
					st_dword(dj.dir + DIR_FileSize, 0);
 80083d0:	2100      	movs	r1, #0
 80083d2:	980c      	ldr	r0, [sp, #48]	; 0x30
 80083d4:	301c      	adds	r0, #28
 80083d6:	f7fe fc23 	bl	8006c20 <st_dword>
					fs->wflag = 1;
 80083da:	9b03      	ldr	r3, [sp, #12]
 80083dc:	2201      	movs	r2, #1
 80083de:	70da      	strb	r2, [r3, #3]
					if (cl) {							/* Remove the cluster chain if exist */
 80083e0:	b3bd      	cbz	r5, 8008452 <f_open+0x136>
						dw = fs->winsect;
 80083e2:	9b03      	ldr	r3, [sp, #12]
 80083e4:	f8d3 8030 	ldr.w	r8, [r3, #48]	; 0x30
						res = remove_chain(&dj.obj, cl, 0);
 80083e8:	2200      	movs	r2, #0
 80083ea:	4629      	mov	r1, r5
 80083ec:	a804      	add	r0, sp, #16
 80083ee:	f7ff fa9d 	bl	800792c <remove_chain>
						if (res == FR_OK) {
 80083f2:	4604      	mov	r4, r0
 80083f4:	bb68      	cbnz	r0, 8008452 <f_open+0x136>
							res = move_window(fs, dw);
 80083f6:	4641      	mov	r1, r8
 80083f8:	9803      	ldr	r0, [sp, #12]
 80083fa:	f7fe ff0b 	bl	8007214 <move_window>
 80083fe:	4604      	mov	r4, r0
							fs->last_clst = cl - 1;		/* Reuse the cluster hole */
 8008400:	3d01      	subs	r5, #1
 8008402:	9b03      	ldr	r3, [sp, #12]
 8008404:	611d      	str	r5, [r3, #16]
 8008406:	e024      	b.n	8008452 <f_open+0x136>
				res = FR_INVALID_NAME;
 8008408:	2406      	movs	r4, #6
 800840a:	e7b5      	b.n	8008378 <f_open+0x5c>
					res = enq_lock() ? dir_register(&dj) : FR_TOO_MANY_OPEN_FILES;
 800840c:	f7fe fc74 	bl	8006cf8 <enq_lock>
 8008410:	b908      	cbnz	r0, 8008416 <f_open+0xfa>
 8008412:	2412      	movs	r4, #18
 8008414:	e7b7      	b.n	8008386 <f_open+0x6a>
 8008416:	a804      	add	r0, sp, #16
 8008418:	f7ff fe6a 	bl	80080f0 <dir_register>
 800841c:	4604      	mov	r4, r0
 800841e:	e7b2      	b.n	8008386 <f_open+0x6a>
				if (dj.obj.attr & (AM_RDO | AM_DIR)) {	/* Cannot overwrite it (R/O or DIR) */
 8008420:	f89d 3016 	ldrb.w	r3, [sp, #22]
 8008424:	f013 0f11 	tst.w	r3, #17
 8008428:	d112      	bne.n	8008450 <f_open+0x134>
					if (mode & FA_CREATE_NEW) res = FR_EXIST;	/* Cannot create as new file */
 800842a:	f015 0f04 	tst.w	r5, #4
 800842e:	d0ac      	beq.n	800838a <f_open+0x6e>
 8008430:	2408      	movs	r4, #8
 8008432:	e00e      	b.n	8008452 <f_open+0x136>
			if (res == FR_OK) {					/* Following succeeded */
 8008434:	b96c      	cbnz	r4, 8008452 <f_open+0x136>
				if (dj.obj.attr & AM_DIR) {		/* It is a directory */
 8008436:	f89d 3016 	ldrb.w	r3, [sp, #22]
 800843a:	f013 0f10 	tst.w	r3, #16
 800843e:	d14b      	bne.n	80084d8 <f_open+0x1bc>
					if ((mode & FA_WRITE) && (dj.obj.attr & AM_RDO)) { /* R/O violation */
 8008440:	f015 0f02 	tst.w	r5, #2
 8008444:	d005      	beq.n	8008452 <f_open+0x136>
 8008446:	f013 0f01 	tst.w	r3, #1
 800844a:	d002      	beq.n	8008452 <f_open+0x136>
						res = FR_DENIED;
 800844c:	2407      	movs	r4, #7
 800844e:	e016      	b.n	800847e <f_open+0x162>
					res = FR_DENIED;
 8008450:	2407      	movs	r4, #7
		if (res == FR_OK) {
 8008452:	b9a4      	cbnz	r4, 800847e <f_open+0x162>
			if (mode & FA_CREATE_ALWAYS)		/* Set file change flag if created or overwritten */
 8008454:	f017 0f08 	tst.w	r7, #8
 8008458:	d001      	beq.n	800845e <f_open+0x142>
				mode |= FA_MODIFIED;
 800845a:	f047 0740 	orr.w	r7, r7, #64	; 0x40
			fp->dir_sect = fs->winsect;			/* Pointer to the directory entry */
 800845e:	9b03      	ldr	r3, [sp, #12]
 8008460:	6b1b      	ldr	r3, [r3, #48]	; 0x30
 8008462:	6273      	str	r3, [r6, #36]	; 0x24
			fp->dir_ptr = dj.dir;
 8008464:	9b0c      	ldr	r3, [sp, #48]	; 0x30
 8008466:	62b3      	str	r3, [r6, #40]	; 0x28
			fp->obj.lockid = inc_lock(&dj, (mode & ~FA_READ) ? 1 : 0);
 8008468:	f037 0301 	bics.w	r3, r7, #1
 800846c:	bf14      	ite	ne
 800846e:	2101      	movne	r1, #1
 8008470:	2100      	moveq	r1, #0
 8008472:	a804      	add	r0, sp, #16
 8008474:	f7fe fc50 	bl	8006d18 <inc_lock>
 8008478:	6130      	str	r0, [r6, #16]
			if (!fp->obj.lockid) res = FR_INT_ERR;
 800847a:	2800      	cmp	r0, #0
 800847c:	d060      	beq.n	8008540 <f_open+0x224>
		if (res == FR_OK) {
 800847e:	2c00      	cmp	r4, #0
 8008480:	f47f af5e 	bne.w	8008340 <f_open+0x24>
				fp->obj.sclust = ld_clust(fs, dj.dir);					/* Get object allocation info */
 8008484:	9d03      	ldr	r5, [sp, #12]
 8008486:	f8dd 8030 	ldr.w	r8, [sp, #48]	; 0x30
 800848a:	4641      	mov	r1, r8
 800848c:	4628      	mov	r0, r5
 800848e:	f7fe fcdf 	bl	8006e50 <ld_clust>
 8008492:	60b0      	str	r0, [r6, #8]
				fp->obj.objsize = ld_dword(dj.dir + DIR_FileSize);
 8008494:	f108 001c 	add.w	r0, r8, #28
 8008498:	f7fe fbb3 	bl	8006c02 <ld_dword>
 800849c:	60f0      	str	r0, [r6, #12]
			fp->obj.fs = fs;	 	/* Validate the file object */
 800849e:	6035      	str	r5, [r6, #0]
			fp->obj.id = fs->id;
 80084a0:	88eb      	ldrh	r3, [r5, #6]
 80084a2:	80b3      	strh	r3, [r6, #4]
			fp->flag = mode;		/* Set file access mode */
 80084a4:	7537      	strb	r7, [r6, #20]
			fp->err = 0;			/* Clear error flag */
 80084a6:	2100      	movs	r1, #0
 80084a8:	7571      	strb	r1, [r6, #21]
			fp->sect = 0;			/* Invalidate current data sector */
 80084aa:	6231      	str	r1, [r6, #32]
			fp->fptr = 0;			/* Set file pointer top of the file */
 80084ac:	61b1      	str	r1, [r6, #24]
			mem_set(fp->buf, 0, _MAX_SS);	/* Clear sector buffer */
 80084ae:	f106 082c 	add.w	r8, r6, #44	; 0x2c
 80084b2:	f44f 7200 	mov.w	r2, #512	; 0x200
 80084b6:	4640      	mov	r0, r8
 80084b8:	f7fe fbc6 	bl	8006c48 <mem_set>
			if ((mode & FA_SEEKEND) && fp->obj.objsize > 0) {	/* Seek to end of file if FA_OPEN_APPEND is specified */
 80084bc:	f017 0f20 	tst.w	r7, #32
 80084c0:	f43f af3e 	beq.w	8008340 <f_open+0x24>
 80084c4:	68f5      	ldr	r5, [r6, #12]
 80084c6:	2d00      	cmp	r5, #0
 80084c8:	f43f af3a 	beq.w	8008340 <f_open+0x24>
				fp->fptr = fp->obj.objsize;			/* Offset to seek */
 80084cc:	61b5      	str	r5, [r6, #24]
				bcs = (DWORD)fs->csize * SS(fs);	/* Cluster size in byte */
 80084ce:	9b03      	ldr	r3, [sp, #12]
 80084d0:	895f      	ldrh	r7, [r3, #10]
 80084d2:	027f      	lsls	r7, r7, #9
				clst = fp->obj.sclust;				/* Follow the cluster chain */
 80084d4:	68b1      	ldr	r1, [r6, #8]
				for (ofs = fp->obj.objsize; res == FR_OK && ofs > bcs; ofs -= bcs) {
 80084d6:	e005      	b.n	80084e4 <f_open+0x1c8>
					res = FR_NO_FILE;
 80084d8:	2404      	movs	r4, #4
 80084da:	e7d0      	b.n	800847e <f_open+0x162>
					if (clst == 0xFFFFFFFF) res = FR_DISK_ERR;
 80084dc:	f1b1 3fff 	cmp.w	r1, #4294967295	; 0xffffffff
 80084e0:	d00f      	beq.n	8008502 <f_open+0x1e6>
				for (ofs = fp->obj.objsize; res == FR_OK && ofs > bcs; ofs -= bcs) {
 80084e2:	1bed      	subs	r5, r5, r7
 80084e4:	fab4 f384 	clz	r3, r4
 80084e8:	095b      	lsrs	r3, r3, #5
 80084ea:	42bd      	cmp	r5, r7
 80084ec:	bf98      	it	ls
 80084ee:	2300      	movls	r3, #0
 80084f0:	b14b      	cbz	r3, 8008506 <f_open+0x1ea>
					clst = get_fat(&fp->obj, clst);
 80084f2:	4630      	mov	r0, r6
 80084f4:	f7ff f8f1 	bl	80076da <get_fat>
 80084f8:	4601      	mov	r1, r0
					if (clst <= 1) res = FR_INT_ERR;
 80084fa:	2801      	cmp	r0, #1
 80084fc:	d8ee      	bhi.n	80084dc <f_open+0x1c0>
 80084fe:	2402      	movs	r4, #2
 8008500:	e7ec      	b.n	80084dc <f_open+0x1c0>
					if (clst == 0xFFFFFFFF) res = FR_DISK_ERR;
 8008502:	2401      	movs	r4, #1
 8008504:	e7ed      	b.n	80084e2 <f_open+0x1c6>
				fp->clust = clst;
 8008506:	61f1      	str	r1, [r6, #28]
				if (res == FR_OK && ofs % SS(fs)) {	/* Fill sector buffer if not on the sector boundary */
 8008508:	2c00      	cmp	r4, #0
 800850a:	f47f af19 	bne.w	8008340 <f_open+0x24>
 800850e:	f3c5 0308 	ubfx	r3, r5, #0, #9
 8008512:	2b00      	cmp	r3, #0
 8008514:	f43f af14 	beq.w	8008340 <f_open+0x24>
					if ((sc = clust2sect(fs, clst)) == 0) {
 8008518:	9f03      	ldr	r7, [sp, #12]
 800851a:	4638      	mov	r0, r7
 800851c:	f7fe fc8c 	bl	8006e38 <clust2sect>
 8008520:	b908      	cbnz	r0, 8008526 <f_open+0x20a>
						res = FR_INT_ERR;
 8008522:	2402      	movs	r4, #2
 8008524:	e70d      	b.n	8008342 <f_open+0x26>
						fp->sect = sc + (DWORD)(ofs / SS(fs));
 8008526:	eb00 2255 	add.w	r2, r0, r5, lsr #9
 800852a:	6232      	str	r2, [r6, #32]
						if (disk_read(fs->drv, fp->buf, fp->sect, 1) != RES_OK) res = FR_DISK_ERR;
 800852c:	2301      	movs	r3, #1
 800852e:	4641      	mov	r1, r8
 8008530:	7878      	ldrb	r0, [r7, #1]
 8008532:	f7fe fb3d 	bl	8006bb0 <disk_read>
 8008536:	2800      	cmp	r0, #0
 8008538:	f43f af02 	beq.w	8008340 <f_open+0x24>
 800853c:	2401      	movs	r4, #1
 800853e:	e700      	b.n	8008342 <f_open+0x26>
			if (!fp->obj.lockid) res = FR_INT_ERR;
 8008540:	2402      	movs	r4, #2
 8008542:	e6fd      	b.n	8008340 <f_open+0x24>
	if (!fp) return FR_INVALID_OBJECT;
 8008544:	2409      	movs	r4, #9
 8008546:	e6fe      	b.n	8008346 <f_open+0x2a>

08008548 <f_read>:
	FIL* fp, 	/* Pointer to the file object */
	void* buff,	/* Pointer to data buffer */
	UINT btr,	/* Number of bytes to read */
	UINT* br	/* Pointer to number of bytes read */
)
{
 8008548:	e92d 4ff0 	stmdb	sp!, {r4, r5, r6, r7, r8, r9, sl, fp, lr}
 800854c:	b085      	sub	sp, #20
 800854e:	4604      	mov	r4, r0
 8008550:	460e      	mov	r6, r1
 8008552:	4617      	mov	r7, r2
 8008554:	4698      	mov	r8, r3
	FSIZE_t remain;
	UINT rcnt, cc, csect;
	BYTE *rbuff = (BYTE*)buff;


	*br = 0;	/* Clear read byte counter */
 8008556:	2300      	movs	r3, #0
 8008558:	f8c8 3000 	str.w	r3, [r8]
	res = validate(&fp->obj, &fs);				/* Check validity of the file object */
 800855c:	a903      	add	r1, sp, #12
 800855e:	f7fe fe0c 	bl	800717a <validate>
	if (res != FR_OK || (res = (FRESULT)fp->err) != FR_OK) LEAVE_FF(fs, res);	/* Check validity */
 8008562:	9001      	str	r0, [sp, #4]
 8008564:	2800      	cmp	r0, #0
 8008566:	f040 80a8 	bne.w	80086ba <f_read+0x172>
 800856a:	7d63      	ldrb	r3, [r4, #21]
 800856c:	9301      	str	r3, [sp, #4]
 800856e:	2b00      	cmp	r3, #0
 8008570:	f040 80a3 	bne.w	80086ba <f_read+0x172>
	if (!(fp->flag & FA_READ)) LEAVE_FF(fs, FR_DENIED); /* Check access mode */
 8008574:	7d23      	ldrb	r3, [r4, #20]
 8008576:	f013 0f01 	tst.w	r3, #1
 800857a:	f000 80bd 	beq.w	80086f8 <f_read+0x1b0>
	remain = fp->obj.objsize - fp->fptr;
 800857e:	68e5      	ldr	r5, [r4, #12]
 8008580:	69a3      	ldr	r3, [r4, #24]
 8008582:	1aed      	subs	r5, r5, r3
	if (btr > remain) btr = (UINT)remain;		/* Truncate btr by remaining bytes */
 8008584:	42bd      	cmp	r5, r7
 8008586:	d35c      	bcc.n	8008642 <f_read+0xfa>
 8008588:	463d      	mov	r5, r7
 800858a:	e05a      	b.n	8008642 <f_read+0xfa>
					if (fp->cltbl) {
						clst = clmt_clust(fp, fp->fptr);	/* Get cluster# from the CLMT */
					} else
#endif
					{
						clst = get_fat(&fp->obj, fp->clust);	/* Follow cluster chain on the FAT */
 800858c:	69e1      	ldr	r1, [r4, #28]
 800858e:	4620      	mov	r0, r4
 8008590:	f7ff f8a3 	bl	80076da <get_fat>
 8008594:	e065      	b.n	8008662 <f_read+0x11a>
					}
				}
				if (clst < 2) ABORT(fs, FR_INT_ERR);
 8008596:	f04f 0a02 	mov.w	sl, #2
 800859a:	f884 a015 	strb.w	sl, [r4, #21]
 800859e:	f8cd a004 	str.w	sl, [sp, #4]
 80085a2:	e08a      	b.n	80086ba <f_read+0x172>
				if (clst == 0xFFFFFFFF) ABORT(fs, FR_DISK_ERR);
 80085a4:	f04f 0a01 	mov.w	sl, #1
 80085a8:	f884 a015 	strb.w	sl, [r4, #21]
 80085ac:	f8cd a004 	str.w	sl, [sp, #4]
 80085b0:	e083      	b.n	80086ba <f_read+0x172>
				fp->clust = clst;				/* Update current cluster */
			}
			sect = clust2sect(fs, fp->clust);	/* Get current sector */
			if (!sect) ABORT(fs, FR_INT_ERR);
 80085b2:	f04f 0a02 	mov.w	sl, #2
 80085b6:	f884 a015 	strb.w	sl, [r4, #21]
 80085ba:	f8cd a004 	str.w	sl, [sp, #4]
 80085be:	e07c      	b.n	80086ba <f_read+0x172>
#if _FS_TINY
				if (fs->wflag && fs->winsect - sect < cc) {
					mem_cpy(rbuff + ((fs->winsect - sect) * SS(fs)), fs->win, SS(fs));
				}
#else
				if ((fp->flag & FA_DIRTY) && fp->sect - sect < cc) {
 80085c0:	f994 3014 	ldrsb.w	r3, [r4, #20]
 80085c4:	2b00      	cmp	r3, #0
 80085c6:	db02      	blt.n	80085ce <f_read+0x86>
					mem_cpy(rbuff + ((fp->sect - sect) * SS(fs)), fp->buf, SS(fs));
				}
#endif
#endif
				rcnt = SS(fs) * cc;				/* Number of bytes transferred */
 80085c8:	ea4f 274a 	mov.w	r7, sl, lsl #9
				continue;
 80085cc:	e02f      	b.n	800862e <f_read+0xe6>
				if ((fp->flag & FA_DIRTY) && fp->sect - sect < cc) {
 80085ce:	6a20      	ldr	r0, [r4, #32]
 80085d0:	eba0 0009 	sub.w	r0, r0, r9
 80085d4:	4550      	cmp	r0, sl
 80085d6:	d2f7      	bcs.n	80085c8 <f_read+0x80>
					mem_cpy(rbuff + ((fp->sect - sect) * SS(fs)), fp->buf, SS(fs));
 80085d8:	f44f 7200 	mov.w	r2, #512	; 0x200
 80085dc:	f104 012c 	add.w	r1, r4, #44	; 0x2c
 80085e0:	eb06 2040 	add.w	r0, r6, r0, lsl #9
 80085e4:	f7fe fb26 	bl	8006c34 <mem_cpy>
 80085e8:	e7ee      	b.n	80085c8 <f_read+0x80>
			}
#if !_FS_TINY
			if (fp->sect != sect) {			/* Load data sector if not in cache */
 80085ea:	6a22      	ldr	r2, [r4, #32]
 80085ec:	454a      	cmp	r2, r9
 80085ee:	d00d      	beq.n	800860c <f_read+0xc4>
#if !_FS_READONLY
				if (fp->flag & FA_DIRTY) {		/* Write-back dirty sector cache */
 80085f0:	f994 3014 	ldrsb.w	r3, [r4, #20]
 80085f4:	2b00      	cmp	r3, #0
 80085f6:	db64      	blt.n	80086c2 <f_read+0x17a>
					if (disk_write(fs->drv, fp->buf, fp->sect, 1) != RES_OK) ABORT(fs, FR_DISK_ERR);
					fp->flag &= (BYTE)~FA_DIRTY;
				}
#endif
				if (disk_read(fs->drv, fp->buf, sect, 1) != RES_OK)	ABORT(fs, FR_DISK_ERR);	/* Fill sector cache */
 80085f8:	2301      	movs	r3, #1
 80085fa:	464a      	mov	r2, r9
 80085fc:	f104 012c 	add.w	r1, r4, #44	; 0x2c
 8008600:	9803      	ldr	r0, [sp, #12]
 8008602:	7840      	ldrb	r0, [r0, #1]
 8008604:	f7fe fad4 	bl	8006bb0 <disk_read>
 8008608:	2800      	cmp	r0, #0
 800860a:	d16e      	bne.n	80086ea <f_read+0x1a2>
			}
#endif
			fp->sect = sect;
 800860c:	f8c4 9020 	str.w	r9, [r4, #32]
		}
		rcnt = SS(fs) - (UINT)fp->fptr % SS(fs);	/* Number of bytes left in the sector */
 8008610:	69a3      	ldr	r3, [r4, #24]
 8008612:	f3c3 0308 	ubfx	r3, r3, #0, #9
 8008616:	f5c3 7700 	rsb	r7, r3, #512	; 0x200
		if (rcnt > btr) rcnt = btr;					/* Clip it by btr if needed */
 800861a:	42bd      	cmp	r5, r7
 800861c:	d200      	bcs.n	8008620 <f_read+0xd8>
 800861e:	462f      	mov	r7, r5
#if _FS_TINY
		if (move_window(fs, fp->sect) != FR_OK) ABORT(fs, FR_DISK_ERR);	/* Move sector window */
		mem_cpy(rbuff, fs->win + fp->fptr % SS(fs), rcnt);	/* Extract partial sector */
#else
		mem_cpy(rbuff, fp->buf + fp->fptr % SS(fs), rcnt);	/* Extract partial sector */
 8008620:	f104 012c 	add.w	r1, r4, #44	; 0x2c
 8008624:	463a      	mov	r2, r7
 8008626:	4419      	add	r1, r3
 8008628:	4630      	mov	r0, r6
 800862a:	f7fe fb03 	bl	8006c34 <mem_cpy>
		rbuff += rcnt, fp->fptr += rcnt, *br += rcnt, btr -= rcnt) {
 800862e:	443e      	add	r6, r7
 8008630:	69a3      	ldr	r3, [r4, #24]
 8008632:	443b      	add	r3, r7
 8008634:	61a3      	str	r3, [r4, #24]
 8008636:	f8d8 3000 	ldr.w	r3, [r8]
 800863a:	443b      	add	r3, r7
 800863c:	f8c8 3000 	str.w	r3, [r8]
 8008640:	1bed      	subs	r5, r5, r7
	for ( ;  btr;								/* Repeat until all data read */
 8008642:	2d00      	cmp	r5, #0
 8008644:	d039      	beq.n	80086ba <f_read+0x172>
		if (fp->fptr % SS(fs) == 0) {			/* On the sector boundary? */
 8008646:	69a3      	ldr	r3, [r4, #24]
 8008648:	f3c3 0208 	ubfx	r2, r3, #0, #9
 800864c:	2a00      	cmp	r2, #0
 800864e:	d1df      	bne.n	8008610 <f_read+0xc8>
			csect = (UINT)(fp->fptr / SS(fs) & (fs->csize - 1));	/* Sector offset in the cluster */
 8008650:	9a03      	ldr	r2, [sp, #12]
 8008652:	8957      	ldrh	r7, [r2, #10]
 8008654:	3f01      	subs	r7, #1
			if (csect == 0) {					/* On the cluster boundary? */
 8008656:	ea17 2753 	ands.w	r7, r7, r3, lsr #9
 800865a:	d108      	bne.n	800866e <f_read+0x126>
				if (fp->fptr == 0) {			/* On the top of the file? */
 800865c:	2b00      	cmp	r3, #0
 800865e:	d195      	bne.n	800858c <f_read+0x44>
					clst = fp->obj.sclust;		/* Follow cluster chain from the origin */
 8008660:	68a0      	ldr	r0, [r4, #8]
				if (clst < 2) ABORT(fs, FR_INT_ERR);
 8008662:	2801      	cmp	r0, #1
 8008664:	d997      	bls.n	8008596 <f_read+0x4e>
				if (clst == 0xFFFFFFFF) ABORT(fs, FR_DISK_ERR);
 8008666:	f1b0 3fff 	cmp.w	r0, #4294967295	; 0xffffffff
 800866a:	d09b      	beq.n	80085a4 <f_read+0x5c>
				fp->clust = clst;				/* Update current cluster */
 800866c:	61e0      	str	r0, [r4, #28]
			sect = clust2sect(fs, fp->clust);	/* Get current sector */
 800866e:	f8dd b00c 	ldr.w	fp, [sp, #12]
 8008672:	69e1      	ldr	r1, [r4, #28]
 8008674:	4658      	mov	r0, fp
 8008676:	f7fe fbdf 	bl	8006e38 <clust2sect>
			if (!sect) ABORT(fs, FR_INT_ERR);
 800867a:	4681      	mov	r9, r0
 800867c:	2800      	cmp	r0, #0
 800867e:	d098      	beq.n	80085b2 <f_read+0x6a>
			sect += csect;
 8008680:	44b9      	add	r9, r7
			cc = btr / SS(fs);					/* When remaining bytes >= sector size, */
 8008682:	ea4f 2a55 	mov.w	sl, r5, lsr #9
			if (cc) {							/* Read maximum contiguous sectors directly */
 8008686:	f5b5 7f00 	cmp.w	r5, #512	; 0x200
 800868a:	d3ae      	bcc.n	80085ea <f_read+0xa2>
				if (csect + cc > fs->csize) {	/* Clip at cluster boundary */
 800868c:	eb07 030a 	add.w	r3, r7, sl
 8008690:	f8bb 200a 	ldrh.w	r2, [fp, #10]
 8008694:	4293      	cmp	r3, r2
 8008696:	d901      	bls.n	800869c <f_read+0x154>
					cc = fs->csize - csect;
 8008698:	eba2 0a07 	sub.w	sl, r2, r7
				if (disk_read(fs->drv, rbuff, sect, cc) != RES_OK) ABORT(fs, FR_DISK_ERR);
 800869c:	4653      	mov	r3, sl
 800869e:	464a      	mov	r2, r9
 80086a0:	4631      	mov	r1, r6
 80086a2:	f89b 0001 	ldrb.w	r0, [fp, #1]
 80086a6:	f7fe fa83 	bl	8006bb0 <disk_read>
 80086aa:	2800      	cmp	r0, #0
 80086ac:	d088      	beq.n	80085c0 <f_read+0x78>
 80086ae:	f04f 0a01 	mov.w	sl, #1
 80086b2:	f884 a015 	strb.w	sl, [r4, #21]
 80086b6:	f8cd a004 	str.w	sl, [sp, #4]
#endif
	}

	LEAVE_FF(fs, FR_OK);
}
 80086ba:	9801      	ldr	r0, [sp, #4]
 80086bc:	b005      	add	sp, #20
 80086be:	e8bd 8ff0 	ldmia.w	sp!, {r4, r5, r6, r7, r8, r9, sl, fp, pc}
					if (disk_write(fs->drv, fp->buf, fp->sect, 1) != RES_OK) ABORT(fs, FR_DISK_ERR);
 80086c2:	2301      	movs	r3, #1
 80086c4:	f104 012c 	add.w	r1, r4, #44	; 0x2c
 80086c8:	f89b 0001 	ldrb.w	r0, [fp, #1]
 80086cc:	f7fe fa7c 	bl	8006bc8 <disk_write>
 80086d0:	b920      	cbnz	r0, 80086dc <f_read+0x194>
					fp->flag &= (BYTE)~FA_DIRTY;
 80086d2:	7d23      	ldrb	r3, [r4, #20]
 80086d4:	f003 037f 	and.w	r3, r3, #127	; 0x7f
 80086d8:	7523      	strb	r3, [r4, #20]
 80086da:	e78d      	b.n	80085f8 <f_read+0xb0>
					if (disk_write(fs->drv, fp->buf, fp->sect, 1) != RES_OK) ABORT(fs, FR_DISK_ERR);
 80086dc:	f04f 0a01 	mov.w	sl, #1
 80086e0:	f884 a015 	strb.w	sl, [r4, #21]
 80086e4:	f8cd a004 	str.w	sl, [sp, #4]
 80086e8:	e7e7      	b.n	80086ba <f_read+0x172>
				if (disk_read(fs->drv, fp->buf, sect, 1) != RES_OK)	ABORT(fs, FR_DISK_ERR);	/* Fill sector cache */
 80086ea:	f04f 0a01 	mov.w	sl, #1
 80086ee:	f884 a015 	strb.w	sl, [r4, #21]
 80086f2:	f8cd a004 	str.w	sl, [sp, #4]
 80086f6:	e7e0      	b.n	80086ba <f_read+0x172>
	if (!(fp->flag & FA_READ)) LEAVE_FF(fs, FR_DENIED); /* Check access mode */
 80086f8:	2307      	movs	r3, #7
 80086fa:	9301      	str	r3, [sp, #4]
 80086fc:	e7dd      	b.n	80086ba <f_read+0x172>

080086fe <f_sync>:
/*-----------------------------------------------------------------------*/

FRESULT f_sync (
	FIL* fp		/* Pointer to the file object */
)
{
 80086fe:	b570      	push	{r4, r5, r6, lr}
 8008700:	b082      	sub	sp, #8
 8008702:	4604      	mov	r4, r0
#if _FS_EXFAT
	DIR dj;
	DEF_NAMBUF
#endif

	res = validate(&fp->obj, &fs);	/* Check validity of the file object */
 8008704:	a901      	add	r1, sp, #4
 8008706:	f7fe fd38 	bl	800717a <validate>
	if (res == FR_OK) {
 800870a:	b970      	cbnz	r0, 800872a <f_sync+0x2c>
		if (fp->flag & FA_MODIFIED) {	/* Is there any change to the file? */
 800870c:	7d23      	ldrb	r3, [r4, #20]
 800870e:	f013 0f40 	tst.w	r3, #64	; 0x40
 8008712:	d00a      	beq.n	800872a <f_sync+0x2c>
#if !_FS_TINY
			if (fp->flag & FA_DIRTY) {	/* Write-back cached data if needed */
 8008714:	f013 0f80 	tst.w	r3, #128	; 0x80
 8008718:	d109      	bne.n	800872e <f_sync+0x30>
				if (disk_write(fs->drv, fp->buf, fp->sect, 1) != RES_OK) LEAVE_FF(fs, FR_DISK_ERR);
				fp->flag &= (BYTE)~FA_DIRTY;
			}
#endif
			/* Update the directory entry */
			tm = GET_FATTIME();				/* Modified time */
 800871a:	f7fe f957 	bl	80069cc <get_fattime>
 800871e:	4605      	mov	r5, r0
					FREE_NAMBUF();
				}
			} else
#endif
			{
				res = move_window(fs, fp->dir_sect);
 8008720:	6a61      	ldr	r1, [r4, #36]	; 0x24
 8008722:	9801      	ldr	r0, [sp, #4]
 8008724:	f7fe fd76 	bl	8007214 <move_window>
				if (res == FR_OK) {
 8008728:	b178      	cbz	r0, 800874a <f_sync+0x4c>
			}
		}
	}

	LEAVE_FF(fs, res);
}
 800872a:	b002      	add	sp, #8
 800872c:	bd70      	pop	{r4, r5, r6, pc}
				if (disk_write(fs->drv, fp->buf, fp->sect, 1) != RES_OK) LEAVE_FF(fs, FR_DISK_ERR);
 800872e:	2301      	movs	r3, #1
 8008730:	6a22      	ldr	r2, [r4, #32]
 8008732:	f104 012c 	add.w	r1, r4, #44	; 0x2c
 8008736:	9801      	ldr	r0, [sp, #4]
 8008738:	7840      	ldrb	r0, [r0, #1]
 800873a:	f7fe fa45 	bl	8006bc8 <disk_write>
 800873e:	bb40      	cbnz	r0, 8008792 <f_sync+0x94>
				fp->flag &= (BYTE)~FA_DIRTY;
 8008740:	7d23      	ldrb	r3, [r4, #20]
 8008742:	f003 037f 	and.w	r3, r3, #127	; 0x7f
 8008746:	7523      	strb	r3, [r4, #20]
 8008748:	e7e7      	b.n	800871a <f_sync+0x1c>
					dir = fp->dir_ptr;
 800874a:	6aa6      	ldr	r6, [r4, #40]	; 0x28
					dir[DIR_Attr] |= AM_ARC;						/* Set archive bit */
 800874c:	7af3      	ldrb	r3, [r6, #11]
 800874e:	f043 0320 	orr.w	r3, r3, #32
 8008752:	72f3      	strb	r3, [r6, #11]
					st_clust(fp->obj.fs, dir, fp->obj.sclust);		/* Update file allocation info  */
 8008754:	68a2      	ldr	r2, [r4, #8]
 8008756:	4631      	mov	r1, r6
 8008758:	6820      	ldr	r0, [r4, #0]
 800875a:	f7fe fb8c 	bl	8006e76 <st_clust>
					st_dword(dir + DIR_FileSize, (DWORD)fp->obj.objsize);	/* Update file size */
 800875e:	68e1      	ldr	r1, [r4, #12]
 8008760:	f106 001c 	add.w	r0, r6, #28
 8008764:	f7fe fa5c 	bl	8006c20 <st_dword>
					st_dword(dir + DIR_ModTime, tm);				/* Update modified time */
 8008768:	4629      	mov	r1, r5
 800876a:	f106 0016 	add.w	r0, r6, #22
 800876e:	f7fe fa57 	bl	8006c20 <st_dword>
					st_word(dir + DIR_LstAccDate, 0);
 8008772:	2100      	movs	r1, #0
 8008774:	f106 0012 	add.w	r0, r6, #18
 8008778:	f7fe fa4e 	bl	8006c18 <st_word>
					fs->wflag = 1;
 800877c:	9b01      	ldr	r3, [sp, #4]
 800877e:	2201      	movs	r2, #1
 8008780:	70da      	strb	r2, [r3, #3]
					res = sync_fs(fs);					/* Restore it to the directory */
 8008782:	9801      	ldr	r0, [sp, #4]
 8008784:	f7ff fd54 	bl	8008230 <sync_fs>
					fp->flag &= (BYTE)~FA_MODIFIED;
 8008788:	7d23      	ldrb	r3, [r4, #20]
 800878a:	f023 0340 	bic.w	r3, r3, #64	; 0x40
 800878e:	7523      	strb	r3, [r4, #20]
 8008790:	e7cb      	b.n	800872a <f_sync+0x2c>
				if (disk_write(fs->drv, fp->buf, fp->sect, 1) != RES_OK) LEAVE_FF(fs, FR_DISK_ERR);
 8008792:	2001      	movs	r0, #1
 8008794:	e7c9      	b.n	800872a <f_sync+0x2c>

08008796 <f_close>:
/*-----------------------------------------------------------------------*/

FRESULT f_close (
	FIL* fp		/* Pointer to the file object to be closed */
)
{
 8008796:	b510      	push	{r4, lr}
 8008798:	b082      	sub	sp, #8
 800879a:	4604      	mov	r4, r0
	FRESULT res;
	FATFS *fs;

#if !_FS_READONLY
	res = f_sync(fp);					/* Flush cached data */
 800879c:	f7ff ffaf 	bl	80086fe <f_sync>
	if (res == FR_OK)
 80087a0:	b108      	cbz	r0, 80087a6 <f_close+0x10>
			unlock_fs(fs, FR_OK);		/* Unlock volume */
#endif
		}
	}
	return res;
}
 80087a2:	b002      	add	sp, #8
 80087a4:	bd10      	pop	{r4, pc}
		res = validate(&fp->obj, &fs);	/* Lock volume */
 80087a6:	a901      	add	r1, sp, #4
 80087a8:	4620      	mov	r0, r4
 80087aa:	f7fe fce6 	bl	800717a <validate>
		if (res == FR_OK) {
 80087ae:	2800      	cmp	r0, #0
 80087b0:	d1f7      	bne.n	80087a2 <f_close+0xc>
			res = dec_lock(fp->obj.lockid);	/* Decrement file open counter */
 80087b2:	6920      	ldr	r0, [r4, #16]
 80087b4:	f7fe fb02 	bl	8006dbc <dec_lock>
			if (res == FR_OK)
 80087b8:	2800      	cmp	r0, #0
 80087ba:	d1f2      	bne.n	80087a2 <f_close+0xc>
				fp->obj.fs = 0;			/* Invalidate file object */
 80087bc:	6020      	str	r0, [r4, #0]
 80087be:	e7f0      	b.n	80087a2 <f_close+0xc>

080087c0 <f_opendir>:

FRESULT f_opendir (
	DIR* dp,			/* Pointer to directory object to create */
	const TCHAR* path	/* Pointer to the directory path */
)
{
 80087c0:	b530      	push	{r4, r5, lr}
 80087c2:	b085      	sub	sp, #20
 80087c4:	9101      	str	r1, [sp, #4]
	FATFS *fs;
	_FDID *obj;
	DEF_NAMBUF


	if (!dp) return FR_INVALID_OBJECT;
 80087c6:	2800      	cmp	r0, #0
 80087c8:	d03d      	beq.n	8008846 <f_opendir+0x86>
 80087ca:	4605      	mov	r5, r0

	/* Get logical drive */
	obj = &dp->obj;
	res = find_volume(&path, &fs, 0);
 80087cc:	2200      	movs	r2, #0
 80087ce:	a903      	add	r1, sp, #12
 80087d0:	a801      	add	r0, sp, #4
 80087d2:	f7fe fd77 	bl	80072c4 <find_volume>
	if (res == FR_OK) {
 80087d6:	4604      	mov	r4, r0
 80087d8:	b128      	cbz	r0, 80087e6 <f_opendir+0x26>
			}
		}
		FREE_NAMBUF();
		if (res == FR_NO_FILE) res = FR_NO_PATH;
	}
	if (res != FR_OK) obj->fs = 0;		/* Invalidate the directory object if function faild */
 80087da:	b10c      	cbz	r4, 80087e0 <f_opendir+0x20>
 80087dc:	2300      	movs	r3, #0
 80087de:	602b      	str	r3, [r5, #0]

	LEAVE_FF(fs, res);
}
 80087e0:	4620      	mov	r0, r4
 80087e2:	b005      	add	sp, #20
 80087e4:	bd30      	pop	{r4, r5, pc}
		obj->fs = fs;
 80087e6:	9b03      	ldr	r3, [sp, #12]
 80087e8:	602b      	str	r3, [r5, #0]
		res = follow_path(dp, path);			/* Follow the path to the directory */
 80087ea:	9901      	ldr	r1, [sp, #4]
 80087ec:	4628      	mov	r0, r5
 80087ee:	f7ff fc38 	bl	8008062 <follow_path>
		if (res == FR_OK) {						/* Follow completed */
 80087f2:	4604      	mov	r4, r0
 80087f4:	bb18      	cbnz	r0, 800883e <f_opendir+0x7e>
			if (!(dp->fn[NSFLAG] & NS_NONAME)) {	/* It is not the origin directory itself */
 80087f6:	f995 302f 	ldrsb.w	r3, [r5, #47]	; 0x2f
 80087fa:	2b00      	cmp	r3, #0
 80087fc:	db08      	blt.n	8008810 <f_opendir+0x50>
				if (obj->attr & AM_DIR) {		/* This object is a sub-directory */
 80087fe:	79ab      	ldrb	r3, [r5, #6]
 8008800:	f013 0f10 	tst.w	r3, #16
 8008804:	d01a      	beq.n	800883c <f_opendir+0x7c>
						obj->sclust = ld_clust(fs, dp->dir);	/* Get object allocation info */
 8008806:	6a29      	ldr	r1, [r5, #32]
 8008808:	9803      	ldr	r0, [sp, #12]
 800880a:	f7fe fb21 	bl	8006e50 <ld_clust>
 800880e:	60a8      	str	r0, [r5, #8]
				obj->id = fs->id;
 8008810:	9b03      	ldr	r3, [sp, #12]
 8008812:	88db      	ldrh	r3, [r3, #6]
 8008814:	80ab      	strh	r3, [r5, #4]
				res = dir_sdi(dp, 0);			/* Rewind directory */
 8008816:	2100      	movs	r1, #0
 8008818:	4628      	mov	r0, r5
 800881a:	f7fe ffc6 	bl	80077aa <dir_sdi>
				if (res == FR_OK) {
 800881e:	4604      	mov	r4, r0
 8008820:	b968      	cbnz	r0, 800883e <f_opendir+0x7e>
					if (obj->sclust) {
 8008822:	68ab      	ldr	r3, [r5, #8]
 8008824:	b913      	cbnz	r3, 800882c <f_opendir+0x6c>
						obj->lockid = 0;	/* Root directory need not to be locked */
 8008826:	2300      	movs	r3, #0
 8008828:	612b      	str	r3, [r5, #16]
 800882a:	e008      	b.n	800883e <f_opendir+0x7e>
						obj->lockid = inc_lock(dp, 0);	/* Lock the sub directory */
 800882c:	2100      	movs	r1, #0
 800882e:	4628      	mov	r0, r5
 8008830:	f7fe fa72 	bl	8006d18 <inc_lock>
 8008834:	6128      	str	r0, [r5, #16]
						if (!obj->lockid) res = FR_TOO_MANY_OPEN_FILES;
 8008836:	b910      	cbnz	r0, 800883e <f_opendir+0x7e>
 8008838:	2412      	movs	r4, #18
 800883a:	e7ce      	b.n	80087da <f_opendir+0x1a>
					res = FR_NO_PATH;
 800883c:	2405      	movs	r4, #5
		if (res == FR_NO_FILE) res = FR_NO_PATH;
 800883e:	2c04      	cmp	r4, #4
 8008840:	d1cb      	bne.n	80087da <f_opendir+0x1a>
 8008842:	2405      	movs	r4, #5
 8008844:	e7ca      	b.n	80087dc <f_opendir+0x1c>
	if (!dp) return FR_INVALID_OBJECT;
 8008846:	2409      	movs	r4, #9
 8008848:	e7ca      	b.n	80087e0 <f_opendir+0x20>

0800884a <f_closedir>:
/*-----------------------------------------------------------------------*/

FRESULT f_closedir (
	DIR *dp		/* Pointer to the directory object to be closed */
)
{
 800884a:	b510      	push	{r4, lr}
 800884c:	b082      	sub	sp, #8
 800884e:	4604      	mov	r4, r0
	FRESULT res;
	FATFS *fs;


	res = validate(&dp->obj, &fs);			/* Check validity of the file object */
 8008850:	a901      	add	r1, sp, #4
 8008852:	f7fe fc92 	bl	800717a <validate>
	if (res == FR_OK) {
 8008856:	b920      	cbnz	r0, 8008862 <f_closedir+0x18>
#if _FS_LOCK != 0
		if (dp->obj.lockid) {				/* Decrement sub-directory open counter */
 8008858:	6923      	ldr	r3, [r4, #16]
 800885a:	b923      	cbnz	r3, 8008866 <f_closedir+0x1c>
			res = dec_lock(dp->obj.lockid);
		}
		if (res == FR_OK)
 800885c:	b908      	cbnz	r0, 8008862 <f_closedir+0x18>
#endif
		{
			dp->obj.fs = 0;			/* Invalidate directory object */
 800885e:	2300      	movs	r3, #0
 8008860:	6023      	str	r3, [r4, #0]
#if _FS_REENTRANT
		unlock_fs(fs, FR_OK);		/* Unlock volume */
#endif
	}
	return res;
}
 8008862:	b002      	add	sp, #8
 8008864:	bd10      	pop	{r4, pc}
			res = dec_lock(dp->obj.lockid);
 8008866:	4618      	mov	r0, r3
 8008868:	f7fe faa8 	bl	8006dbc <dec_lock>
 800886c:	e7f6      	b.n	800885c <f_closedir+0x12>

0800886e <f_readdir>:

FRESULT f_readdir (
	DIR* dp,			/* Pointer to the open directory object */
	FILINFO* fno		/* Pointer to file information to return */
)
{
 800886e:	b570      	push	{r4, r5, r6, lr}
 8008870:	b082      	sub	sp, #8
 8008872:	4604      	mov	r4, r0
 8008874:	460d      	mov	r5, r1
	FRESULT res;
	FATFS *fs;
	DEF_NAMBUF


	res = validate(&dp->obj, &fs);	/* Check validity of the directory object */
 8008876:	a901      	add	r1, sp, #4
 8008878:	f7fe fc7f 	bl	800717a <validate>
	if (res == FR_OK) {
 800887c:	4606      	mov	r6, r0
 800887e:	b9c0      	cbnz	r0, 80088b2 <f_readdir+0x44>
		if (!fno) {
 8008880:	b195      	cbz	r5, 80088a8 <f_readdir+0x3a>
			res = dir_sdi(dp, 0);			/* Rewind the directory object */
		} else {
			INIT_NAMBUF(fs);
			res = dir_read(dp, 0);			/* Read an item */
 8008882:	2100      	movs	r1, #0
 8008884:	4620      	mov	r0, r4
 8008886:	f7ff f93b 	bl	8007b00 <dir_read>
			if (res == FR_NO_FILE) res = FR_OK;	/* Ignore end of directory */
 800888a:	2804      	cmp	r0, #4
 800888c:	d000      	beq.n	8008890 <f_readdir+0x22>
			if (res == FR_OK) {				/* A valid entry is found */
 800888e:	b998      	cbnz	r0, 80088b8 <f_readdir+0x4a>
				get_fileinfo(dp, fno);		/* Get the object information */
 8008890:	4629      	mov	r1, r5
 8008892:	4620      	mov	r0, r4
 8008894:	f7ff faaa 	bl	8007dec <get_fileinfo>
				res = dir_next(dp, 0);		/* Increment index for next */
 8008898:	2100      	movs	r1, #0
 800889a:	4620      	mov	r0, r4
 800889c:	f7ff f885 	bl	80079aa <dir_next>
				if (res == FR_NO_FILE) res = FR_OK;	/* Ignore end of directory now */
 80088a0:	2804      	cmp	r0, #4
 80088a2:	d006      	beq.n	80088b2 <f_readdir+0x44>
				res = dir_next(dp, 0);		/* Increment index for next */
 80088a4:	4606      	mov	r6, r0
 80088a6:	e004      	b.n	80088b2 <f_readdir+0x44>
			res = dir_sdi(dp, 0);			/* Rewind the directory object */
 80088a8:	2100      	movs	r1, #0
 80088aa:	4620      	mov	r0, r4
 80088ac:	f7fe ff7d 	bl	80077aa <dir_sdi>
 80088b0:	4606      	mov	r6, r0
			}
			FREE_NAMBUF();
		}
	}
	LEAVE_FF(fs, res);
}
 80088b2:	4630      	mov	r0, r6
 80088b4:	b002      	add	sp, #8
 80088b6:	bd70      	pop	{r4, r5, r6, pc}
			res = dir_read(dp, 0);			/* Read an item */
 80088b8:	4606      	mov	r6, r0
 80088ba:	e7fa      	b.n	80088b2 <f_readdir+0x44>

080088bc <f_findnext>:

FRESULT f_findnext (
	DIR* dp,		/* Pointer to the open directory object */
	FILINFO* fno	/* Pointer to the file information structure */
)
{
 80088bc:	b570      	push	{r4, r5, r6, lr}
 80088be:	4605      	mov	r5, r0
 80088c0:	460c      	mov	r4, r1
	FRESULT res;


	for (;;) {
		res = f_readdir(dp, fno);		/* Get a directory item */
 80088c2:	4621      	mov	r1, r4
 80088c4:	4628      	mov	r0, r5
 80088c6:	f7ff ffd2 	bl	800886e <f_readdir>
		if (res != FR_OK || !fno || !fno->fname[0]) break;	/* Terminate if any error or end of directory */
 80088ca:	4606      	mov	r6, r0
 80088cc:	fab4 f384 	clz	r3, r4
 80088d0:	095b      	lsrs	r3, r3, #5
 80088d2:	2800      	cmp	r0, #0
 80088d4:	bf18      	it	ne
 80088d6:	f043 0301 	orrne.w	r3, r3, #1
 80088da:	b953      	cbnz	r3, 80088f2 <f_findnext+0x36>
 80088dc:	7da3      	ldrb	r3, [r4, #22]
 80088de:	b143      	cbz	r3, 80088f2 <f_findnext+0x36>
		if (pattern_matching(dp->pat, fno->fname, 0, 0)) break;		/* Test for the file name */
 80088e0:	2300      	movs	r3, #0
 80088e2:	461a      	mov	r2, r3
 80088e4:	f104 0116 	add.w	r1, r4, #22
 80088e8:	6b68      	ldr	r0, [r5, #52]	; 0x34
 80088ea:	f7fe fbcf 	bl	800708c <pattern_matching>
 80088ee:	2800      	cmp	r0, #0
 80088f0:	d0e7      	beq.n	80088c2 <f_findnext+0x6>
#if _USE_LFN != 0 && _USE_FIND == 2
		if (pattern_matching(dp->pat, fno->altname, 0, 0)) break;	/* Test for alternative name if exist */
#endif
	}
	return res;
}
 80088f2:	4630      	mov	r0, r6
 80088f4:	bd70      	pop	{r4, r5, r6, pc}

080088f6 <f_findfirst>:
	DIR* dp,				/* Pointer to the blank directory object */
	FILINFO* fno,			/* Pointer to the file information structure */
	const TCHAR* path,		/* Pointer to the directory to open */
	const TCHAR* pattern	/* Pointer to the matching pattern */
)
{
 80088f6:	b538      	push	{r3, r4, r5, lr}
 80088f8:	4604      	mov	r4, r0
 80088fa:	460d      	mov	r5, r1
	FRESULT res;


	dp->pat = pattern;		/* Save pointer to pattern string */
 80088fc:	6343      	str	r3, [r0, #52]	; 0x34
	res = f_opendir(dp, path);		/* Open the target directory */
 80088fe:	4611      	mov	r1, r2
 8008900:	f7ff ff5e 	bl	80087c0 <f_opendir>
	if (res == FR_OK) {
 8008904:	b100      	cbz	r0, 8008908 <f_findfirst+0x12>
		res = f_findnext(dp, fno);	/* Find the first item */
	}
	return res;
}
 8008906:	bd38      	pop	{r3, r4, r5, pc}
		res = f_findnext(dp, fno);	/* Find the first item */
 8008908:	4629      	mov	r1, r5
 800890a:	4620      	mov	r0, r4
 800890c:	f7ff ffd6 	bl	80088bc <f_findnext>
 8008910:	e7f9      	b.n	8008906 <f_findfirst+0x10>
	...

08008914 <FATFS_LinkDriverEx>:
uint8_t FATFS_LinkDriverEx(const Diskio_drvTypeDef *drv, char *path, uint8_t lun)
{
  uint8_t ret = 1;
  uint8_t DiskNum = 0;

  if(disk.nbr < _VOLUMES)
 8008914:	4b13      	ldr	r3, [pc, #76]	; (8008964 <FATFS_LinkDriverEx+0x50>)
 8008916:	7a5b      	ldrb	r3, [r3, #9]
 8008918:	bb13      	cbnz	r3, 8008960 <FATFS_LinkDriverEx+0x4c>
{
 800891a:	b510      	push	{r4, lr}
 800891c:	4604      	mov	r4, r0
 800891e:	f003 00ff 	and.w	r0, r3, #255	; 0xff
  {
    disk.is_initialized[disk.nbr] = 0;
 8008922:	4b10      	ldr	r3, [pc, #64]	; (8008964 <FATFS_LinkDriverEx+0x50>)
 8008924:	f893 c009 	ldrb.w	ip, [r3, #9]
 8008928:	fa5f fc8c 	uxtb.w	ip, ip
 800892c:	f04f 0e00 	mov.w	lr, #0
 8008930:	f803 e00c 	strb.w	lr, [r3, ip]
    disk.drv[disk.nbr] = drv;
 8008934:	f893 c009 	ldrb.w	ip, [r3, #9]
 8008938:	eb03 0c8c 	add.w	ip, r3, ip, lsl #2
 800893c:	f8cc 4004 	str.w	r4, [ip, #4]
    disk.lun[disk.nbr] = lun;
 8008940:	7a5c      	ldrb	r4, [r3, #9]
 8008942:	441c      	add	r4, r3
 8008944:	7222      	strb	r2, [r4, #8]
    DiskNum = disk.nbr++;
 8008946:	7a5a      	ldrb	r2, [r3, #9]
 8008948:	1c54      	adds	r4, r2, #1
 800894a:	b2e4      	uxtb	r4, r4
 800894c:	725c      	strb	r4, [r3, #9]
    path[0] = DiskNum + '0';
 800894e:	3230      	adds	r2, #48	; 0x30
 8008950:	700a      	strb	r2, [r1, #0]
    path[1] = ':';
 8008952:	233a      	movs	r3, #58	; 0x3a
 8008954:	704b      	strb	r3, [r1, #1]
    path[2] = '/';
 8008956:	232f      	movs	r3, #47	; 0x2f
 8008958:	708b      	strb	r3, [r1, #2]
    path[3] = 0;
 800895a:	f881 e003 	strb.w	lr, [r1, #3]
    ret = 0;
  }

  return ret;
}
 800895e:	bd10      	pop	{r4, pc}
  uint8_t ret = 1;
 8008960:	2001      	movs	r0, #1
}
 8008962:	4770      	bx	lr
 8008964:	20000944 	.word	0x20000944

08008968 <FATFS_LinkDriver>:
  * @param  drv: pointer to the disk IO Driver structure
  * @param  path: pointer to the logical drive path
  * @retval Returns 0 in case of success, otherwise 1.
  */
uint8_t FATFS_LinkDriver(const Diskio_drvTypeDef *drv, char *path)
{
 8008968:	b508      	push	{r3, lr}
  return FATFS_LinkDriverEx(drv, path, 0);
 800896a:	2200      	movs	r2, #0
 800896c:	f7ff ffd2 	bl	8008914 <FATFS_LinkDriverEx>
}
 8008970:	bd08      	pop	{r3, pc}
	...

08008974 <ff_convert>:
)
{
	WCHAR c;


	if (chr < 0x80) {	/* ASCII */
 8008974:	287f      	cmp	r0, #127	; 0x7f
 8008976:	d917      	bls.n	80089a8 <ff_convert+0x34>
		c = chr;

	} else {
		if (dir) {		/* OEM code to Unicode */
 8008978:	b131      	cbz	r1, 8008988 <ff_convert+0x14>
			c = (chr >= 0x100) ? 0 : Tbl[chr - 0x80];
 800897a:	28ff      	cmp	r0, #255	; 0xff
 800897c:	d813      	bhi.n	80089a6 <ff_convert+0x32>
 800897e:	3880      	subs	r0, #128	; 0x80
 8008980:	4b0a      	ldr	r3, [pc, #40]	; (80089ac <ff_convert+0x38>)
 8008982:	f833 0010 	ldrh.w	r0, [r3, r0, lsl #1]
 8008986:	4770      	bx	lr

		} else {		/* Unicode to OEM code */
			for (c = 0; c < 0x80; c++) {
 8008988:	2300      	movs	r3, #0
 800898a:	2b7f      	cmp	r3, #127	; 0x7f
 800898c:	d807      	bhi.n	800899e <ff_convert+0x2a>
				if (chr == Tbl[c]) break;
 800898e:	4a07      	ldr	r2, [pc, #28]	; (80089ac <ff_convert+0x38>)
 8008990:	f832 2013 	ldrh.w	r2, [r2, r3, lsl #1]
 8008994:	4282      	cmp	r2, r0
 8008996:	d002      	beq.n	800899e <ff_convert+0x2a>
			for (c = 0; c < 0x80; c++) {
 8008998:	3301      	adds	r3, #1
 800899a:	b29b      	uxth	r3, r3
 800899c:	e7f5      	b.n	800898a <ff_convert+0x16>
			}
			c = (c + 0x80) & 0xFF;
 800899e:	f103 0080 	add.w	r0, r3, #128	; 0x80
 80089a2:	b2c0      	uxtb	r0, r0
 80089a4:	4770      	bx	lr
			c = (chr >= 0x100) ? 0 : Tbl[chr - 0x80];
 80089a6:	2000      	movs	r0, #0
		}
	}

	return c;
}
 80089a8:	4770      	bx	lr
 80089aa:	bf00      	nop
 80089ac:	08008b74 	.word	0x08008b74

080089b0 <ff_wtoupper>:


WCHAR ff_wtoupper (	/* Returns upper converted character */
	WCHAR chr		/* Unicode character to be upper converted (BMP only) */
)
{
 80089b0:	b510      	push	{r4, lr}
	};
	const WCHAR *p;
	WCHAR bc, nc, cmd;


	p = chr < 0x1000 ? cvt1 : cvt2;
 80089b2:	f5b0 5f80 	cmp.w	r0, #4096	; 0x1000
 80089b6:	d201      	bcs.n	80089bc <ff_wtoupper+0xc>
 80089b8:	4b22      	ldr	r3, [pc, #136]	; (8008a44 <ff_wtoupper+0x94>)
 80089ba:	e002      	b.n	80089c2 <ff_wtoupper+0x12>
 80089bc:	4b22      	ldr	r3, [pc, #136]	; (8008a48 <ff_wtoupper+0x98>)
 80089be:	e000      	b.n	80089c2 <ff_wtoupper+0x12>
	for (;;) {
		bc = *p++;								/* Get block base */
		if (!bc || chr < bc) break;
		nc = *p++; cmd = nc >> 8; nc &= 0xFF;	/* Get processing command and block size */
 80089c0:	4673      	mov	r3, lr
		bc = *p++;								/* Get block base */
 80089c2:	8819      	ldrh	r1, [r3, #0]
		if (!bc || chr < bc) break;
 80089c4:	4288      	cmp	r0, r1
 80089c6:	bf2c      	ite	cs
 80089c8:	2200      	movcs	r2, #0
 80089ca:	2201      	movcc	r2, #1
 80089cc:	2900      	cmp	r1, #0
 80089ce:	bf08      	it	eq
 80089d0:	f042 0201 	orreq.w	r2, r2, #1
 80089d4:	b9ca      	cbnz	r2, 8008a0a <ff_wtoupper+0x5a>
		nc = *p++; cmd = nc >> 8; nc &= 0xFF;	/* Get processing command and block size */
 80089d6:	f103 0e04 	add.w	lr, r3, #4
 80089da:	885b      	ldrh	r3, [r3, #2]
 80089dc:	0a1a      	lsrs	r2, r3, #8
 80089de:	b2db      	uxtb	r3, r3
		if (chr < bc + nc) {	/* In the block? */
 80089e0:	eb03 0c01 	add.w	ip, r3, r1
 80089e4:	4560      	cmp	r0, ip
 80089e6:	db04      	blt.n	80089f2 <ff_wtoupper+0x42>
			case 7: chr -= 80; break;				/* Shift -80 */
			case 8:	chr -= 0x1C60; break;			/* Shift -0x1C60 */
			}
			break;
		}
		if (!cmd) p += nc;
 80089e8:	2a00      	cmp	r2, #0
 80089ea:	d1e9      	bne.n	80089c0 <ff_wtoupper+0x10>
 80089ec:	eb0e 0343 	add.w	r3, lr, r3, lsl #1
 80089f0:	e7e7      	b.n	80089c2 <ff_wtoupper+0x12>
			switch (cmd) {
 80089f2:	2a08      	cmp	r2, #8
 80089f4:	d809      	bhi.n	8008a0a <ff_wtoupper+0x5a>
 80089f6:	e8df f002 	tbb	[pc, r2]
 80089fa:	0905      	.short	0x0905
 80089fc:	1815120f 	.word	0x1815120f
 8008a00:	1e1b      	.short	0x1e1b
 8008a02:	21          	.byte	0x21
 8008a03:	00          	.byte	0x00
			case 0:	chr = p[chr - bc]; break;		/* Table conversion */
 8008a04:	1a41      	subs	r1, r0, r1
 8008a06:	f83e 0011 	ldrh.w	r0, [lr, r1, lsl #1]
	}

	return chr;
}
 8008a0a:	bd10      	pop	{r4, pc}
			case 1:	chr -= (chr - bc) & 1; break;	/* Case pairs */
 8008a0c:	1a43      	subs	r3, r0, r1
 8008a0e:	f003 0301 	and.w	r3, r3, #1
 8008a12:	1ac0      	subs	r0, r0, r3
 8008a14:	b280      	uxth	r0, r0
 8008a16:	e7f8      	b.n	8008a0a <ff_wtoupper+0x5a>
			case 2: chr -= 16; break;				/* Shift -16 */
 8008a18:	3810      	subs	r0, #16
 8008a1a:	b280      	uxth	r0, r0
 8008a1c:	e7f5      	b.n	8008a0a <ff_wtoupper+0x5a>
			case 3:	chr -= 32; break;				/* Shift -32 */
 8008a1e:	3820      	subs	r0, #32
 8008a20:	b280      	uxth	r0, r0
 8008a22:	e7f2      	b.n	8008a0a <ff_wtoupper+0x5a>
			case 4:	chr -= 48; break;				/* Shift -48 */
 8008a24:	3830      	subs	r0, #48	; 0x30
 8008a26:	b280      	uxth	r0, r0
 8008a28:	e7ef      	b.n	8008a0a <ff_wtoupper+0x5a>
			case 5:	chr -= 26; break;				/* Shift -26 */
 8008a2a:	381a      	subs	r0, #26
 8008a2c:	b280      	uxth	r0, r0
 8008a2e:	e7ec      	b.n	8008a0a <ff_wtoupper+0x5a>
			case 6:	chr += 8; break;				/* Shift +8 */
 8008a30:	3008      	adds	r0, #8
 8008a32:	b280      	uxth	r0, r0
 8008a34:	e7e9      	b.n	8008a0a <ff_wtoupper+0x5a>
			case 7: chr -= 80; break;				/* Shift -80 */
 8008a36:	3850      	subs	r0, #80	; 0x50
 8008a38:	b280      	uxth	r0, r0
 8008a3a:	e7e6      	b.n	8008a0a <ff_wtoupper+0x5a>
			case 8:	chr -= 0x1C60; break;			/* Shift -0x1C60 */
 8008a3c:	f5a0 50e3 	sub.w	r0, r0, #7264	; 0x1c60
 8008a40:	b280      	uxth	r0, r0
 8008a42:	e7e2      	b.n	8008a0a <ff_wtoupper+0x5a>
 8008a44:	08008c74 	.word	0x08008c74
 8008a48:	08008e68 	.word	0x08008e68

08008a4c <__libc_init_array>:
 8008a4c:	b570      	push	{r4, r5, r6, lr}
 8008a4e:	4d0d      	ldr	r5, [pc, #52]	; (8008a84 <__libc_init_array+0x38>)
 8008a50:	4c0d      	ldr	r4, [pc, #52]	; (8008a88 <__libc_init_array+0x3c>)
 8008a52:	1b64      	subs	r4, r4, r5
 8008a54:	10a4      	asrs	r4, r4, #2
 8008a56:	2600      	movs	r6, #0
 8008a58:	42a6      	cmp	r6, r4
 8008a5a:	d109      	bne.n	8008a70 <__libc_init_array+0x24>
 8008a5c:	4d0b      	ldr	r5, [pc, #44]	; (8008a8c <__libc_init_array+0x40>)
 8008a5e:	4c0c      	ldr	r4, [pc, #48]	; (8008a90 <__libc_init_array+0x44>)
 8008a60:	f000 fa60 	bl	8008f24 <_init>
 8008a64:	1b64      	subs	r4, r4, r5
 8008a66:	10a4      	asrs	r4, r4, #2
 8008a68:	2600      	movs	r6, #0
 8008a6a:	42a6      	cmp	r6, r4
 8008a6c:	d105      	bne.n	8008a7a <__libc_init_array+0x2e>
 8008a6e:	bd70      	pop	{r4, r5, r6, pc}
 8008a70:	f855 3b04 	ldr.w	r3, [r5], #4
 8008a74:	4798      	blx	r3
 8008a76:	3601      	adds	r6, #1
 8008a78:	e7ee      	b.n	8008a58 <__libc_init_array+0xc>
 8008a7a:	f855 3b04 	ldr.w	r3, [r5], #4
 8008a7e:	4798      	blx	r3
 8008a80:	3601      	adds	r6, #1
 8008a82:	e7f2      	b.n	8008a6a <__libc_init_array+0x1e>
 8008a84:	08008f3c 	.word	0x08008f3c
 8008a88:	08008f3c 	.word	0x08008f3c
 8008a8c:	08008f3c 	.word	0x08008f3c
 8008a90:	08008f40 	.word	0x08008f40

08008a94 <memset>:
 8008a94:	4402      	add	r2, r0
 8008a96:	4603      	mov	r3, r0
 8008a98:	4293      	cmp	r3, r2
 8008a9a:	d100      	bne.n	8008a9e <memset+0xa>
 8008a9c:	4770      	bx	lr
 8008a9e:	f803 1b01 	strb.w	r1, [r3], #1
 8008aa2:	e7f9      	b.n	8008a98 <memset+0x4>
 8008aa4:	69622e2a 	.word	0x69622e2a
 8008aa8:	0000006e 	.word	0x0000006e

08008aac <D1CorePrescTable>:
 8008aac:	00000000 04030201 04030201 09080706     ................

08008abc <SD_Driver>:
 8008abc:	08006aa1 08006ac9 08006ad1 08006af5     .j...j...j...j..
 8008acc:	08006b19 3c3a2a22 7f7c3f3e 00000000     .k.."*:<>?|.....
 8008adc:	3d3b2c2b 00005d5b                       +,;=[]..

08008ae4 <ExCvt>:
 8008ae4:	41455543 43414141 49454545 41414949     CUEAAAACEEEIIIAA
 8008af4:	4f929245 55554f4f 4f554f59 9f9e4f9c     E..OOOUUYOUO.O..
 8008b04:	554f4941 a7a6a5a5 abaaa9a8 afaeadac     AIOU............
 8008b14:	b3b2b1b0 414141b4 bbbab9b8 bfbebdbc     .....AAA........
 8008b24:	c3c2c1c0 4141c5c4 cbcac9c8 cfcecdcc     ......AA........
 8008b34:	4545d1d1 49494945 dbdad949 df49dddc     ..EEEIIII.....I.
 8008b44:	4f4fe14f e8e64f4f 555555e8 efee5959     O.OOOO...UUUYY..
 8008b54:	f3f2f1f0 f7f6f5f4 fbfaf9f8 fffefdfc     ................

08008b64 <LfnOfs>:
 8008b64:	07050301 12100e09 1c181614 0000001e     ................

08008b74 <Tbl>:
 8008b74:	00fc00c7 00e200e9 00e000e4 00e700e5     ................
 8008b84:	00eb00ea 00ef00e8 00ec00ee 00c500c4     ................
 8008b94:	00e600c9 00f400c6 00f200f6 00f900fb     ................
 8008ba4:	00d600ff 00f800dc 00d800a3 019200d7     ................
 8008bb4:	00ed00e1 00fa00f3 00d100f1 00ba00aa     ................
 8008bc4:	00ae00bf 00bd00ac 00a100bc 00bb00ab     ................
 8008bd4:	25922591 25022593 00c12524 00c000c2     .%.%.%.%$%......
 8008be4:	256300a9 25572551 00a2255d 251000a5     ..c%Q%W%]%.....%
 8008bf4:	25342514 251c252c 253c2500 00c300e3     .%4%,%.%.%<%....
 8008c04:	2554255a 25662569 25502560 00a4256c     Z%T%i%f%`%P%l%..
 8008c14:	00d000f0 00cb00ca 013100c8 00ce00cd     ..........1.....
 8008c24:	251800cf 2588250c 00a62584 258000cc     ...%.%.%.%.....%
 8008c34:	00df00d3 00d200d4 00d500f5 00fe00b5     ................
 8008c44:	00da00de 00d900db 00dd00fd 00b400af     ................
 8008c54:	00b100ad 00be2017 00a700b6 00b800f7     ..... ..........
 8008c64:	00a800b0 00b900b7 00b200b3 00a025a0     .............%..

08008c74 <cvt1.1>:
 8008c74:	031a0061 031700e0 030700f8 000100ff     a...............
 8008c84:	01000178 01320130 01390106 014a0110     x...0.2...9...J.
 8008c94:	0179012e 01800106 0243004d 01820181     ..y.....M.C.....
 8008ca4:	01840182 01860184 01870187 018a0189     ................
 8008cb4:	018b018b 018e018d 0190018f 01910191     ................
 8008cc4:	01940193 019601f6 01980197 023d0198     ..............=.
 8008cd4:	019c019b 0220019d 01a0019f 01a201a0     ...... .........
 8008ce4:	01a401a2 01a601a4 01a701a7 01aa01a9     ................
 8008cf4:	01ac01ab 01ae01ac 01af01af 01b201b1     ................
 8008d04:	01b301b3 01b501b5 01b801b7 01ba01b8     ................
 8008d14:	01bc01bb 01be01bc 01c001f7 01c201c1     ................
 8008d24:	01c401c3 01c401c5 01c801c7 01ca01c7     ................
 8008d34:	01ca01cb 011001cd 000101dd 01de018e     ................
 8008d44:	01f30112 01f10003 01f401f4 012801f8     ..............(.
 8008d54:	01120222 0009023a 023b2c65 023d023b     "...:...e,;.;.=.
 8008d64:	023f2c66 02410240 02460241 0253010a     f,?.@.A.A.F...S.
 8008d74:	01810040 02550186 018a0189 018f0258     @.....U.....X...
 8008d84:	0190025a 025d025c 025f025e 02610193     Z...\.].^._...a.
 8008d94:	01940262 02650264 02670266 01960197     b...d.e.f.g.....
 8008da4:	2c62026a 026d026c 019c026e 02710270     j.b,l.m.n...p.q.
 8008db4:	0273019d 019f0274 02770276 02790278     ..s.t...v.w.x.y.
 8008dc4:	027b027a 2c64027c 027f027e 028101a6     z.{.|.d,~.......
 8008dd4:	01a90282 02850284 02870286 024401ae     ..............D.
 8008de4:	01b201b1 028d0245 028f028e 02910290     ....E...........
 8008df4:	037b01b7 03fd0003 03ff03fe 000403ac     ..{.............
 8008e04:	03880386 038a0389 031103b1 000203c2     ................
 8008e14:	03a303a3 030803c4 000303cc 038e038c     ................
 8008e24:	03d8038f 03f20118 03f9000a 03f403f3     ................
 8008e34:	03f603f5 03f703f7 03fa03f9 043003fa     ..............0.
 8008e44:	04500320 04600710 048a0122 04c10136      .P...`."...6...
 8008e54:	04cf010e 04c00001 014404d0 04260561     ..........D.a.&.
 8008e64:	00000000                                ....

08008e68 <cvt2.0>:
 8008e68:	00011d7d 1e002c63 1ea00196 1f00015a     }...c,......Z...
 8008e78:	1f100608 1f200606 1f300608 1f400608     ...... ...0...@.
 8008e88:	1f510606 1f590007 1f5b1f52 1f5d1f54     ..Q...Y.R.[.T.].
 8008e98:	1f5f1f56 06081f60 000e1f70 1fbb1fba     V._.`...p.......
 8008ea8:	1fc91fc8 1fcb1fca 1fdb1fda 1ff91ff8     ................
 8008eb8:	1feb1fea 1ffb1ffa 06081f80 06081f90     ................
 8008ec8:	06081fa0 00041fb0 1fb91fb8 1fbc1fb2     ................
 8008ed8:	00011fcc 1fd01fc3 1fe00602 1fe50602     ................
 8008ee8:	1fec0001 00011ff2 214e1ffc 21320001     ..........N!..2!
 8008ef8:	02102170 00012184 24d02183 2c30051a     p!...!...!.$..0,
 8008f08:	2c60042f 2c670102 2c750106 2c800102     /.`,..g,..u,...,
 8008f18:	2d000164 ff410826 0000031a              d..-&.A.....

08008f24 <_init>:
 8008f24:	b5f8      	push	{r3, r4, r5, r6, r7, lr}
 8008f26:	bf00      	nop
 8008f28:	bcf8      	pop	{r3, r4, r5, r6, r7}
 8008f2a:	bc08      	pop	{r3}
 8008f2c:	469e      	mov	lr, r3
 8008f2e:	4770      	bx	lr

08008f30 <_fini>:
 8008f30:	b5f8      	push	{r3, r4, r5, r6, r7, lr}
 8008f32:	bf00      	nop
 8008f34:	bcf8      	pop	{r3, r4, r5, r6, r7}
 8008f36:	bc08      	pop	{r3}
 8008f38:	469e      	mov	lr, r3
 8008f3a:	4770      	bx	lr
